ARM GAS  C:\Users\jisu8\AppData\Local\Temp\ccf2YVH5.s 			page 1


   1              		.cpu cortex-m7
   2              		.arch armv7e-m
   3              		.fpu fpv5-sp-d16
   4              		.eabi_attribute 27, 1
   5              		.eabi_attribute 28, 1
   6              		.eabi_attribute 20, 1
   7              		.eabi_attribute 21, 1
   8              		.eabi_attribute 23, 3
   9              		.eabi_attribute 24, 1
  10              		.eabi_attribute 25, 1
  11              		.eabi_attribute 26, 1
  12              		.eabi_attribute 30, 6
  13              		.eabi_attribute 34, 1
  14              		.eabi_attribute 18, 4
  15              		.file	"ccsbcs.c"
  16              		.text
  17              	.Ltext0:
  18              		.cfi_sections	.debug_frame
  19              		.section	.rodata.Tbl,"a"
  20              		.align	2
  23              	Tbl:
  24 0000 C700     		.short	199
  25 0002 FC00     		.short	252
  26 0004 E900     		.short	233
  27 0006 E200     		.short	226
  28 0008 E400     		.short	228
  29 000a E000     		.short	224
  30 000c E500     		.short	229
  31 000e E700     		.short	231
  32 0010 EA00     		.short	234
  33 0012 EB00     		.short	235
  34 0014 E800     		.short	232
  35 0016 EF00     		.short	239
  36 0018 EE00     		.short	238
  37 001a EC00     		.short	236
  38 001c C400     		.short	196
  39 001e C500     		.short	197
  40 0020 C900     		.short	201
  41 0022 E600     		.short	230
  42 0024 C600     		.short	198
  43 0026 F400     		.short	244
  44 0028 F600     		.short	246
  45 002a F200     		.short	242
  46 002c FB00     		.short	251
  47 002e F900     		.short	249
  48 0030 FF00     		.short	255
  49 0032 D600     		.short	214
  50 0034 DC00     		.short	220
  51 0036 A200     		.short	162
  52 0038 A300     		.short	163
  53 003a A500     		.short	165
  54 003c A720     		.short	8359
  55 003e 9201     		.short	402
  56 0040 E100     		.short	225
  57 0042 ED00     		.short	237
  58 0044 F300     		.short	243
  59 0046 FA00     		.short	250
ARM GAS  C:\Users\jisu8\AppData\Local\Temp\ccf2YVH5.s 			page 2


  60 0048 F100     		.short	241
  61 004a D100     		.short	209
  62 004c AA00     		.short	170
  63 004e BA00     		.short	186
  64 0050 BF00     		.short	191
  65 0052 1023     		.short	8976
  66 0054 AC00     		.short	172
  67 0056 BD00     		.short	189
  68 0058 BC00     		.short	188
  69 005a A100     		.short	161
  70 005c AB00     		.short	171
  71 005e BB00     		.short	187
  72 0060 9125     		.short	9617
  73 0062 9225     		.short	9618
  74 0064 9325     		.short	9619
  75 0066 0225     		.short	9474
  76 0068 2425     		.short	9508
  77 006a 6125     		.short	9569
  78 006c 6225     		.short	9570
  79 006e 5625     		.short	9558
  80 0070 5525     		.short	9557
  81 0072 6325     		.short	9571
  82 0074 5125     		.short	9553
  83 0076 5725     		.short	9559
  84 0078 5D25     		.short	9565
  85 007a 5C25     		.short	9564
  86 007c 5B25     		.short	9563
  87 007e 1025     		.short	9488
  88 0080 1425     		.short	9492
  89 0082 3425     		.short	9524
  90 0084 2C25     		.short	9516
  91 0086 1C25     		.short	9500
  92 0088 0025     		.short	9472
  93 008a 3C25     		.short	9532
  94 008c 5E25     		.short	9566
  95 008e 5F25     		.short	9567
  96 0090 5A25     		.short	9562
  97 0092 5425     		.short	9556
  98 0094 6925     		.short	9577
  99 0096 6625     		.short	9574
 100 0098 6025     		.short	9568
 101 009a 5025     		.short	9552
 102 009c 6C25     		.short	9580
 103 009e 6725     		.short	9575
 104 00a0 6825     		.short	9576
 105 00a2 6425     		.short	9572
 106 00a4 6525     		.short	9573
 107 00a6 5925     		.short	9561
 108 00a8 5825     		.short	9560
 109 00aa 5225     		.short	9554
 110 00ac 5325     		.short	9555
 111 00ae 6B25     		.short	9579
 112 00b0 6A25     		.short	9578
 113 00b2 1825     		.short	9496
 114 00b4 0C25     		.short	9484
 115 00b6 8825     		.short	9608
 116 00b8 8425     		.short	9604
ARM GAS  C:\Users\jisu8\AppData\Local\Temp\ccf2YVH5.s 			page 3


 117 00ba 8C25     		.short	9612
 118 00bc 9025     		.short	9616
 119 00be 8025     		.short	9600
 120 00c0 B103     		.short	945
 121 00c2 DF00     		.short	223
 122 00c4 9303     		.short	915
 123 00c6 C003     		.short	960
 124 00c8 A303     		.short	931
 125 00ca C303     		.short	963
 126 00cc B500     		.short	181
 127 00ce C403     		.short	964
 128 00d0 A603     		.short	934
 129 00d2 9803     		.short	920
 130 00d4 A903     		.short	937
 131 00d6 B403     		.short	948
 132 00d8 1E22     		.short	8734
 133 00da C603     		.short	966
 134 00dc B503     		.short	949
 135 00de 2922     		.short	8745
 136 00e0 6122     		.short	8801
 137 00e2 B100     		.short	177
 138 00e4 6522     		.short	8805
 139 00e6 6422     		.short	8804
 140 00e8 2023     		.short	8992
 141 00ea 2123     		.short	8993
 142 00ec F700     		.short	247
 143 00ee 4822     		.short	8776
 144 00f0 B000     		.short	176
 145 00f2 1922     		.short	8729
 146 00f4 B700     		.short	183
 147 00f6 1A22     		.short	8730
 148 00f8 7F20     		.short	8319
 149 00fa B200     		.short	178
 150 00fc A025     		.short	9632
 151 00fe A000     		.short	160
 152              		.section	.text.ff_convert,"ax",%progbits
 153              		.align	1
 154              		.global	ff_convert
 155              		.syntax unified
 156              		.thumb
 157              		.thumb_func
 159              	ff_convert:
 160              	.LFB149:
 161              		.file 1 "Middlewares/Third_Party/FatFs/src/option/ccsbcs.c"
   1:Middlewares/Third_Party/FatFs/src/option/ccsbcs.c **** /*------------------------------------------------------------------------*/
   2:Middlewares/Third_Party/FatFs/src/option/ccsbcs.c **** /* Unicode - Local code bidirectional converter  (C)ChaN, 2015            */
   3:Middlewares/Third_Party/FatFs/src/option/ccsbcs.c **** /* (SBCS code pages)                                                      */
   4:Middlewares/Third_Party/FatFs/src/option/ccsbcs.c **** /*------------------------------------------------------------------------*/
   5:Middlewares/Third_Party/FatFs/src/option/ccsbcs.c **** /*  437   U.S.
   6:Middlewares/Third_Party/FatFs/src/option/ccsbcs.c **** /   720   Arabic
   7:Middlewares/Third_Party/FatFs/src/option/ccsbcs.c **** /   737   Greek
   8:Middlewares/Third_Party/FatFs/src/option/ccsbcs.c **** /   771   KBL
   9:Middlewares/Third_Party/FatFs/src/option/ccsbcs.c **** /   775   Baltic
  10:Middlewares/Third_Party/FatFs/src/option/ccsbcs.c **** /   850   Latin 1
  11:Middlewares/Third_Party/FatFs/src/option/ccsbcs.c **** /   852   Latin 2
  12:Middlewares/Third_Party/FatFs/src/option/ccsbcs.c **** /   855   Cyrillic
  13:Middlewares/Third_Party/FatFs/src/option/ccsbcs.c **** /   857   Turkish
ARM GAS  C:\Users\jisu8\AppData\Local\Temp\ccf2YVH5.s 			page 4


  14:Middlewares/Third_Party/FatFs/src/option/ccsbcs.c **** /   860   Portuguese
  15:Middlewares/Third_Party/FatFs/src/option/ccsbcs.c **** /   861   Icelandic
  16:Middlewares/Third_Party/FatFs/src/option/ccsbcs.c **** /   862   Hebrew
  17:Middlewares/Third_Party/FatFs/src/option/ccsbcs.c **** /   863   Canadian French
  18:Middlewares/Third_Party/FatFs/src/option/ccsbcs.c **** /   864   Arabic
  19:Middlewares/Third_Party/FatFs/src/option/ccsbcs.c **** /   865   Nordic
  20:Middlewares/Third_Party/FatFs/src/option/ccsbcs.c **** /   866   Russian
  21:Middlewares/Third_Party/FatFs/src/option/ccsbcs.c **** /   869   Greek 2
  22:Middlewares/Third_Party/FatFs/src/option/ccsbcs.c **** */
  23:Middlewares/Third_Party/FatFs/src/option/ccsbcs.c **** 
  24:Middlewares/Third_Party/FatFs/src/option/ccsbcs.c **** #include "../ff.h"
  25:Middlewares/Third_Party/FatFs/src/option/ccsbcs.c **** 
  26:Middlewares/Third_Party/FatFs/src/option/ccsbcs.c **** 
  27:Middlewares/Third_Party/FatFs/src/option/ccsbcs.c **** #if _CODE_PAGE == 437
  28:Middlewares/Third_Party/FatFs/src/option/ccsbcs.c **** #define _TBLDEF 1
  29:Middlewares/Third_Party/FatFs/src/option/ccsbcs.c **** static
  30:Middlewares/Third_Party/FatFs/src/option/ccsbcs.c **** const WCHAR Tbl[] = {	/*  CP437(0x80-0xFF) to Unicode conversion table */
  31:Middlewares/Third_Party/FatFs/src/option/ccsbcs.c **** 	0x00C7, 0x00FC, 0x00E9, 0x00E2, 0x00E4, 0x00E0, 0x00E5, 0x00E7, 0x00EA, 0x00EB, 0x00E8, 0x00EF, 0x
  32:Middlewares/Third_Party/FatFs/src/option/ccsbcs.c **** 	0x00C9, 0x00E6, 0x00C6, 0x00F4, 0x00F6, 0x00F2, 0x00FB, 0x00F9, 0x00FF, 0x00D6, 0x00DC, 0x00A2, 0x
  33:Middlewares/Third_Party/FatFs/src/option/ccsbcs.c **** 	0x00E1, 0x00ED, 0x00F3, 0x00FA, 0x00F1, 0x00D1, 0x00AA, 0x00BA, 0x00BF, 0x2310, 0x00AC, 0x00BD, 0x
  34:Middlewares/Third_Party/FatFs/src/option/ccsbcs.c **** 	0x2591, 0x2592, 0x2593, 0x2502, 0x2524, 0x2561, 0x2562, 0x2556, 0x2555, 0x2563, 0x2551, 0x2557, 0x
  35:Middlewares/Third_Party/FatFs/src/option/ccsbcs.c **** 	0x2514, 0x2534, 0x252C, 0x251C, 0x2500, 0x253C, 0x255E, 0x255F, 0x255A, 0x2554, 0x2569, 0x2566, 0x
  36:Middlewares/Third_Party/FatFs/src/option/ccsbcs.c **** 	0x2568, 0x2564, 0x2565, 0x2559, 0x2558, 0x2552, 0x2553, 0x256B, 0x256A, 0x2518, 0x250C, 0x2588, 0x
  37:Middlewares/Third_Party/FatFs/src/option/ccsbcs.c **** 	0x03B1, 0x00DF, 0x0393, 0x03C0, 0x03A3, 0x03C3, 0x00B5, 0x03C4, 0x03A6, 0x0398, 0x03A9, 0x03B4, 0x
  38:Middlewares/Third_Party/FatFs/src/option/ccsbcs.c **** 	0x2261, 0x00B1, 0x2265, 0x2264, 0x2320, 0x2321, 0x00F7, 0x2248, 0x00B0, 0x2219, 0x00B7, 0x221A, 0x
  39:Middlewares/Third_Party/FatFs/src/option/ccsbcs.c **** };
  40:Middlewares/Third_Party/FatFs/src/option/ccsbcs.c **** 
  41:Middlewares/Third_Party/FatFs/src/option/ccsbcs.c **** #elif _CODE_PAGE == 720
  42:Middlewares/Third_Party/FatFs/src/option/ccsbcs.c **** #define _TBLDEF 1
  43:Middlewares/Third_Party/FatFs/src/option/ccsbcs.c **** static
  44:Middlewares/Third_Party/FatFs/src/option/ccsbcs.c **** const WCHAR Tbl[] = {	/*  CP720(0x80-0xFF) to Unicode conversion table */
  45:Middlewares/Third_Party/FatFs/src/option/ccsbcs.c **** 	0x0000, 0x0000, 0x00E9, 0x00E2, 0x0000, 0x00E0, 0x0000, 0x00E7, 0x00EA, 0x00EB, 0x00E8, 0x00EF, 0x
  46:Middlewares/Third_Party/FatFs/src/option/ccsbcs.c **** 	0x0000, 0x0651, 0x0652, 0x00F4, 0x00A4, 0x0640, 0x00FB, 0x00F9, 0x0621, 0x0622, 0x0623, 0x0624, 0x
  47:Middlewares/Third_Party/FatFs/src/option/ccsbcs.c **** 	0x0628, 0x0629, 0x062A, 0x062B, 0x062C, 0x062D, 0x062E, 0x062F, 0x0630, 0x0631, 0x0632, 0x0633, 0x
  48:Middlewares/Third_Party/FatFs/src/option/ccsbcs.c **** 	0x2591, 0x2592, 0x2593, 0x2502, 0x2524, 0x2561, 0x2562, 0x2556, 0x2555, 0x2563, 0x2551, 0x2557, 0x
  49:Middlewares/Third_Party/FatFs/src/option/ccsbcs.c **** 	0x2514, 0x2534, 0x252C, 0x251C, 0x2500, 0x253C, 0x255E, 0x255F, 0x255A, 0x2554, 0x2569, 0x2566, 0x
  50:Middlewares/Third_Party/FatFs/src/option/ccsbcs.c **** 	0x2568, 0x2564, 0x2565, 0x2559, 0x2558, 0x2552, 0x2553, 0x256B, 0x256A, 0x2518, 0x250C, 0x2588, 0x
  51:Middlewares/Third_Party/FatFs/src/option/ccsbcs.c **** 	0x0636, 0x0637, 0x0638, 0x0639, 0x063A, 0x0641, 0x00B5, 0x0642, 0x0643, 0x0644, 0x0645, 0x0646, 0x
  52:Middlewares/Third_Party/FatFs/src/option/ccsbcs.c **** 	0x2261, 0x064B, 0x064C, 0x064D, 0x064E, 0x064F, 0x0650, 0x2248, 0x00B0, 0x2219, 0x00B7, 0x221A, 0x
  53:Middlewares/Third_Party/FatFs/src/option/ccsbcs.c **** };
  54:Middlewares/Third_Party/FatFs/src/option/ccsbcs.c **** 
  55:Middlewares/Third_Party/FatFs/src/option/ccsbcs.c **** #elif _CODE_PAGE == 737
  56:Middlewares/Third_Party/FatFs/src/option/ccsbcs.c **** #define _TBLDEF 1
  57:Middlewares/Third_Party/FatFs/src/option/ccsbcs.c **** static
  58:Middlewares/Third_Party/FatFs/src/option/ccsbcs.c **** const WCHAR Tbl[] = {	/*  CP737(0x80-0xFF) to Unicode conversion table */
  59:Middlewares/Third_Party/FatFs/src/option/ccsbcs.c **** 	0x0391, 0x0392, 0x0393, 0x0394, 0x0395, 0x0396, 0x0397, 0x0398, 0x0399, 0x039A, 0x039B, 0x039C, 0x
  60:Middlewares/Third_Party/FatFs/src/option/ccsbcs.c **** 	0x03A1, 0x03A3, 0x03A4, 0x03A5, 0x03A6, 0x03A7, 0x03A8, 0x03A9, 0x03B1, 0x03B2, 0x03B3, 0x03B4, 0x
  61:Middlewares/Third_Party/FatFs/src/option/ccsbcs.c **** 	0x03B9, 0x03BA, 0x03BB, 0x03BC, 0x03BD, 0x03BE, 0x03BF, 0x03C0, 0x03C1, 0x03C3, 0x03C2, 0x03C4, 0x
  62:Middlewares/Third_Party/FatFs/src/option/ccsbcs.c **** 	0x2591, 0x2592, 0x2593, 0x2502, 0x2524, 0x2561, 0x2562, 0x2556, 0x2555, 0x2563, 0x2551, 0x2557, 0x
  63:Middlewares/Third_Party/FatFs/src/option/ccsbcs.c **** 	0x2514, 0x2534, 0x252C, 0x251C, 0x2500, 0x253C, 0x255E, 0x255F, 0x255A, 0x2554, 0x2569, 0x2566, 0x
  64:Middlewares/Third_Party/FatFs/src/option/ccsbcs.c **** 	0x2568, 0x2564, 0x2565, 0x2559, 0x2558, 0x2552, 0x2553, 0x256B, 0x256A, 0x2518, 0x250C, 0x2588, 0x
  65:Middlewares/Third_Party/FatFs/src/option/ccsbcs.c **** 	0x03C9, 0x03AC, 0x03AD, 0x03AE, 0x03CA, 0x03AF, 0x03CC, 0x03CD, 0x03CB, 0x03CE, 0x0386, 0x0388, 0x
  66:Middlewares/Third_Party/FatFs/src/option/ccsbcs.c **** 	0x038F, 0x00B1, 0x2265, 0x2264, 0x03AA, 0x03AB, 0x00F7, 0x2248, 0x00B0, 0x2219, 0x00B7, 0x221A, 0x
  67:Middlewares/Third_Party/FatFs/src/option/ccsbcs.c **** };
  68:Middlewares/Third_Party/FatFs/src/option/ccsbcs.c **** 
  69:Middlewares/Third_Party/FatFs/src/option/ccsbcs.c **** #elif _CODE_PAGE == 771
  70:Middlewares/Third_Party/FatFs/src/option/ccsbcs.c **** #define _TBLDEF 1
ARM GAS  C:\Users\jisu8\AppData\Local\Temp\ccf2YVH5.s 			page 5


  71:Middlewares/Third_Party/FatFs/src/option/ccsbcs.c **** static
  72:Middlewares/Third_Party/FatFs/src/option/ccsbcs.c **** const WCHAR Tbl[] = {	/*  CP771(0x80-0xFF) to Unicode conversion table */
  73:Middlewares/Third_Party/FatFs/src/option/ccsbcs.c **** 	0x0410, 0x0411, 0x0412, 0x0413, 0x0414, 0x0415, 0x0416, 0x0417, 0x0418, 0x0419, 0x041A, 0x041B, 0x
  74:Middlewares/Third_Party/FatFs/src/option/ccsbcs.c **** 	0x0420, 0x0421, 0x0422, 0x0423, 0x0424, 0x0425, 0x0426, 0x0427, 0x0428, 0x0429, 0x042A, 0x042B, 0x
  75:Middlewares/Third_Party/FatFs/src/option/ccsbcs.c **** 	0x0430, 0x0431, 0x0432, 0x0433, 0x0434, 0x0435, 0x0436, 0x0437, 0x0438, 0x0439, 0x043A, 0x043B, 0x
  76:Middlewares/Third_Party/FatFs/src/option/ccsbcs.c **** 	0x2591, 0x2592, 0x2593, 0x2502, 0x2524, 0x2561, 0x2562, 0x2556, 0x2555, 0x2563, 0x2551, 0x2557, 0x
  77:Middlewares/Third_Party/FatFs/src/option/ccsbcs.c **** 	0x2514, 0x2534, 0x252C, 0x251C, 0x2500, 0x253C, 0x255E, 0x255F, 0x255A, 0x2554, 0x2569, 0x2566, 0x
  78:Middlewares/Third_Party/FatFs/src/option/ccsbcs.c **** 	0x2568, 0x2564, 0x2565, 0x2559, 0x2558, 0x2552, 0x2553, 0x256B, 0x256A, 0x2518, 0x250C, 0x2588, 0x
  79:Middlewares/Third_Party/FatFs/src/option/ccsbcs.c **** 	0x0440, 0x0441, 0x0442, 0x0443, 0x0444, 0x0445, 0x0446, 0x0447, 0x0448, 0x0449, 0x044A, 0x044B, 0x
  80:Middlewares/Third_Party/FatFs/src/option/ccsbcs.c **** 	0x0118, 0x0119, 0x0116, 0x0117, 0x012E, 0x012F, 0x0160, 0x0161, 0x0172, 0x0173, 0x016A, 0x016B, 0x
  81:Middlewares/Third_Party/FatFs/src/option/ccsbcs.c **** };
  82:Middlewares/Third_Party/FatFs/src/option/ccsbcs.c **** 
  83:Middlewares/Third_Party/FatFs/src/option/ccsbcs.c **** #elif _CODE_PAGE == 775
  84:Middlewares/Third_Party/FatFs/src/option/ccsbcs.c **** #define _TBLDEF 1
  85:Middlewares/Third_Party/FatFs/src/option/ccsbcs.c **** static
  86:Middlewares/Third_Party/FatFs/src/option/ccsbcs.c **** const WCHAR Tbl[] = {	/*  CP775(0x80-0xFF) to Unicode conversion table */
  87:Middlewares/Third_Party/FatFs/src/option/ccsbcs.c **** 	0x0106, 0x00FC, 0x00E9, 0x0101, 0x00E4, 0x0123, 0x00E5, 0x0107, 0x0142, 0x0113, 0x0156, 0x0157, 0x
  88:Middlewares/Third_Party/FatFs/src/option/ccsbcs.c **** 	0x00C9, 0x00E6, 0x00C6, 0x014D, 0x00F6, 0x0122, 0x00A2, 0x015A, 0x015B, 0x00D6, 0x00DC, 0x00F8, 0x
  89:Middlewares/Third_Party/FatFs/src/option/ccsbcs.c **** 	0x0100, 0x012A, 0x00F3, 0x017B, 0x017C, 0x017A, 0x201D, 0x00A6, 0x00A9, 0x00AE, 0x00AC, 0x00BD, 0x
  90:Middlewares/Third_Party/FatFs/src/option/ccsbcs.c **** 	0x2591, 0x2592, 0x2593, 0x2502, 0x2524, 0x0104, 0x010C, 0x0118, 0x0116, 0x2563, 0x2551, 0x2557, 0x
  91:Middlewares/Third_Party/FatFs/src/option/ccsbcs.c **** 	0x2514, 0x2534, 0x252C, 0x251C, 0x2500, 0x253C, 0x0172, 0x016A, 0x255A, 0x2554, 0x2569, 0x2566, 0x
  92:Middlewares/Third_Party/FatFs/src/option/ccsbcs.c **** 	0x0105, 0x010D, 0x0119, 0x0117, 0x012F, 0x0161, 0x0173, 0x016B, 0x017E, 0x2518, 0x250C, 0x2588, 0x
  93:Middlewares/Third_Party/FatFs/src/option/ccsbcs.c **** 	0x00D3, 0x00DF, 0x014C, 0x0143, 0x00F5, 0x00D5, 0x00B5, 0x0144, 0x0136, 0x0137, 0x013B, 0x013C, 0x
  94:Middlewares/Third_Party/FatFs/src/option/ccsbcs.c **** 	0x00AD, 0x00B1, 0x201C, 0x00BE, 0x00B6, 0x00A7, 0x00F7, 0x201E, 0x00B0, 0x2219, 0x00B7, 0x00B9, 0x
  95:Middlewares/Third_Party/FatFs/src/option/ccsbcs.c **** };
  96:Middlewares/Third_Party/FatFs/src/option/ccsbcs.c **** 
  97:Middlewares/Third_Party/FatFs/src/option/ccsbcs.c **** #elif _CODE_PAGE == 850
  98:Middlewares/Third_Party/FatFs/src/option/ccsbcs.c **** #define _TBLDEF 1
  99:Middlewares/Third_Party/FatFs/src/option/ccsbcs.c **** static
 100:Middlewares/Third_Party/FatFs/src/option/ccsbcs.c **** const WCHAR Tbl[] = {	/*  CP850(0x80-0xFF) to Unicode conversion table */
 101:Middlewares/Third_Party/FatFs/src/option/ccsbcs.c **** 	0x00C7, 0x00FC, 0x00E9, 0x00E2, 0x00E4, 0x00E0, 0x00E5, 0x00E7, 0x00EA, 0x00EB, 0x00E8, 0x00EF, 0x
 102:Middlewares/Third_Party/FatFs/src/option/ccsbcs.c **** 	0x00C9, 0x00E6, 0x00C6, 0x00F4, 0x00F6, 0x00F2, 0x00FB, 0x00F9, 0x00FF, 0x00D6, 0x00DC, 0x00F8, 0x
 103:Middlewares/Third_Party/FatFs/src/option/ccsbcs.c **** 	0x00E1, 0x00ED, 0x00F3, 0x00FA, 0x00F1, 0x00D1, 0x00AA, 0x00BA, 0x00BF, 0x00AE, 0x00AC, 0x00BD, 0x
 104:Middlewares/Third_Party/FatFs/src/option/ccsbcs.c **** 	0x2591, 0x2592, 0x2593, 0x2502, 0x2524, 0x00C1, 0x00C2, 0x00C0, 0x00A9, 0x2563, 0x2551, 0x2557, 0x
 105:Middlewares/Third_Party/FatFs/src/option/ccsbcs.c **** 	0x2514, 0x2534, 0x252C, 0x251C, 0x2500, 0x253C, 0x00E3, 0x00C3, 0x255A, 0x2554, 0x2569, 0x2566, 0x
 106:Middlewares/Third_Party/FatFs/src/option/ccsbcs.c **** 	0x00F0, 0x00D0, 0x00CA, 0x00CB, 0x00C8, 0x0131, 0x00CD, 0x00CE, 0x00CF, 0x2518, 0x250C, 0x2588, 0x
 107:Middlewares/Third_Party/FatFs/src/option/ccsbcs.c **** 	0x00D3, 0x00DF, 0x00D4, 0x00D2, 0x00F5, 0x00D5, 0x00B5, 0x00FE, 0x00DE, 0x00DA, 0x00DB, 0x00D9, 0x
 108:Middlewares/Third_Party/FatFs/src/option/ccsbcs.c **** 	0x00AD, 0x00B1, 0x2017, 0x00BE, 0x00B6, 0x00A7, 0x00F7, 0x00B8, 0x00B0, 0x00A8, 0x00B7, 0x00B9, 0x
 109:Middlewares/Third_Party/FatFs/src/option/ccsbcs.c **** };
 110:Middlewares/Third_Party/FatFs/src/option/ccsbcs.c **** 
 111:Middlewares/Third_Party/FatFs/src/option/ccsbcs.c **** #elif _CODE_PAGE == 852
 112:Middlewares/Third_Party/FatFs/src/option/ccsbcs.c **** #define _TBLDEF 1
 113:Middlewares/Third_Party/FatFs/src/option/ccsbcs.c **** static
 114:Middlewares/Third_Party/FatFs/src/option/ccsbcs.c **** const WCHAR Tbl[] = {	/*  CP852(0x80-0xFF) to Unicode conversion table */
 115:Middlewares/Third_Party/FatFs/src/option/ccsbcs.c **** 	0x00C7, 0x00FC, 0x00E9, 0x00E2, 0x00E4, 0x016F, 0x0107, 0x00E7, 0x0142, 0x00EB, 0x0150, 0x0151, 0x
 116:Middlewares/Third_Party/FatFs/src/option/ccsbcs.c **** 	0x00C9, 0x0139, 0x013A, 0x00F4, 0x00F6, 0x013D, 0x013E, 0x015A, 0x015B, 0x00D6, 0x00DC, 0x0164, 0x
 117:Middlewares/Third_Party/FatFs/src/option/ccsbcs.c **** 	0x00E1, 0x00ED, 0x00F3, 0x00FA, 0x0104, 0x0105, 0x017D, 0x017E, 0x0118, 0x0119, 0x00AC, 0x017A, 0x
 118:Middlewares/Third_Party/FatFs/src/option/ccsbcs.c **** 	0x2591, 0x2592, 0x2593, 0x2502, 0x2524, 0x00C1, 0x00C2, 0x011A, 0x015E, 0x2563, 0x2551, 0x2557, 0x
 119:Middlewares/Third_Party/FatFs/src/option/ccsbcs.c **** 	0x2514, 0x2534, 0x252C, 0x251C, 0x2500, 0x253C, 0x0102, 0x0103, 0x255A, 0x2554, 0x2569, 0x2566, 0x
 120:Middlewares/Third_Party/FatFs/src/option/ccsbcs.c **** 	0x0111, 0x0110, 0x010E, 0x00CB, 0x010F, 0x0147, 0x00CD, 0x00CE, 0x011B, 0x2518, 0x250C, 0x2588, 0x
 121:Middlewares/Third_Party/FatFs/src/option/ccsbcs.c **** 	0x00D3, 0x00DF, 0x00D4, 0x0143, 0x0144, 0x0148, 0x0160, 0x0161, 0x0154, 0x00DA, 0x0155, 0x0170, 0x
 122:Middlewares/Third_Party/FatFs/src/option/ccsbcs.c **** 	0x00AD, 0x02DD, 0x02DB, 0x02C7, 0x02D8, 0x00A7, 0x00F7, 0x00B8, 0x00B0, 0x00A8, 0x02D9, 0x0171, 0x
 123:Middlewares/Third_Party/FatFs/src/option/ccsbcs.c **** };
 124:Middlewares/Third_Party/FatFs/src/option/ccsbcs.c **** 
 125:Middlewares/Third_Party/FatFs/src/option/ccsbcs.c **** #elif _CODE_PAGE == 855
 126:Middlewares/Third_Party/FatFs/src/option/ccsbcs.c **** #define _TBLDEF 1
 127:Middlewares/Third_Party/FatFs/src/option/ccsbcs.c **** static
ARM GAS  C:\Users\jisu8\AppData\Local\Temp\ccf2YVH5.s 			page 6


 128:Middlewares/Third_Party/FatFs/src/option/ccsbcs.c **** const WCHAR Tbl[] = {	/*  CP855(0x80-0xFF) to Unicode conversion table */
 129:Middlewares/Third_Party/FatFs/src/option/ccsbcs.c **** 	0x0452, 0x0402, 0x0453, 0x0403, 0x0451, 0x0401, 0x0454, 0x0404, 0x0455, 0x0405, 0x0456, 0x0406, 0x
 130:Middlewares/Third_Party/FatFs/src/option/ccsbcs.c **** 	0x0459, 0x0409, 0x045A, 0x040A, 0x045B, 0x040B, 0x045C, 0x040C, 0x045E, 0x040E, 0x045F, 0x040F, 0x
 131:Middlewares/Third_Party/FatFs/src/option/ccsbcs.c **** 	0x0430, 0x0410, 0x0431, 0x0411, 0x0446, 0x0426, 0x0434, 0x0414, 0x0435, 0x0415, 0x0444, 0x0424, 0x
 132:Middlewares/Third_Party/FatFs/src/option/ccsbcs.c **** 	0x2591, 0x2592, 0x2593, 0x2502, 0x2524, 0x0445, 0x0425, 0x0438, 0x0418, 0x2563, 0x2551, 0x2557, 0x
 133:Middlewares/Third_Party/FatFs/src/option/ccsbcs.c **** 	0x2514, 0x2534, 0x252C, 0x251C, 0x2500, 0x253C, 0x043A, 0x041A, 0x255A, 0x2554, 0x2569, 0x2566, 0x
 134:Middlewares/Third_Party/FatFs/src/option/ccsbcs.c **** 	0x043B, 0x041B, 0x043C, 0x041C, 0x043D, 0x041D, 0x043E, 0x041E, 0x043F, 0x2518, 0x250C, 0x2588, 0x
 135:Middlewares/Third_Party/FatFs/src/option/ccsbcs.c **** 	0x042F, 0x0440, 0x0420, 0x0441, 0x0421, 0x0442, 0x0422, 0x0443, 0x0423, 0x0436, 0x0416, 0x0432, 0x
 136:Middlewares/Third_Party/FatFs/src/option/ccsbcs.c **** 	0x00AD, 0x044B, 0x042B, 0x0437, 0x0417, 0x0448, 0x0428, 0x044D, 0x042D, 0x0449, 0x0429, 0x0447, 0x
 137:Middlewares/Third_Party/FatFs/src/option/ccsbcs.c **** };
 138:Middlewares/Third_Party/FatFs/src/option/ccsbcs.c **** 
 139:Middlewares/Third_Party/FatFs/src/option/ccsbcs.c **** #elif _CODE_PAGE == 857
 140:Middlewares/Third_Party/FatFs/src/option/ccsbcs.c **** #define _TBLDEF 1
 141:Middlewares/Third_Party/FatFs/src/option/ccsbcs.c **** static
 142:Middlewares/Third_Party/FatFs/src/option/ccsbcs.c **** const WCHAR Tbl[] = {	/*  CP857(0x80-0xFF) to Unicode conversion table */
 143:Middlewares/Third_Party/FatFs/src/option/ccsbcs.c **** 	0x00C7, 0x00FC, 0x00E9, 0x00E2, 0x00E4, 0x00E0, 0x00E5, 0x00E7, 0x00EA, 0x00EB, 0x00E8, 0x00EF, 0x
 144:Middlewares/Third_Party/FatFs/src/option/ccsbcs.c **** 	0x00C9, 0x00E6, 0x00C6, 0x00F4, 0x00F6, 0x00F2, 0x00FB, 0x00F9, 0x0130, 0x00D6, 0x00DC, 0x00F8, 0x
 145:Middlewares/Third_Party/FatFs/src/option/ccsbcs.c **** 	0x00E1, 0x00ED, 0x00F3, 0x00FA, 0x00F1, 0x00D1, 0x011E, 0x011F, 0x00BF, 0x00AE, 0x00AC, 0x00BD, 0x
 146:Middlewares/Third_Party/FatFs/src/option/ccsbcs.c **** 	0x2591, 0x2592, 0x2593, 0x2502, 0x2524, 0x00C1, 0x00C2, 0x00C0, 0x00A9, 0x2563, 0x2551, 0x2557, 0x
 147:Middlewares/Third_Party/FatFs/src/option/ccsbcs.c **** 	0x2514, 0x2534, 0x252C, 0x251C, 0x2500, 0x253C, 0x00E3, 0x00C3, 0x255A, 0x2554, 0x2569, 0x2566, 0x
 148:Middlewares/Third_Party/FatFs/src/option/ccsbcs.c **** 	0x00BA, 0x00AA, 0x00CA, 0x00CB, 0x00C8, 0x0000, 0x00CD, 0x00CE, 0x00CF, 0x2518, 0x250C, 0x2588, 0x
 149:Middlewares/Third_Party/FatFs/src/option/ccsbcs.c **** 	0x00D3, 0x00DF, 0x00D4, 0x00D2, 0x00F5, 0x00D5, 0x00B5, 0x0000, 0x00D7, 0x00DA, 0x00DB, 0x00D9, 0x
 150:Middlewares/Third_Party/FatFs/src/option/ccsbcs.c **** 	0x00AD, 0x00B1, 0x0000, 0x00BE, 0x00B6, 0x00A7, 0x00F7, 0x00B8, 0x00B0, 0x00A8, 0x00B7, 0x00B9, 0x
 151:Middlewares/Third_Party/FatFs/src/option/ccsbcs.c **** };
 152:Middlewares/Third_Party/FatFs/src/option/ccsbcs.c **** 
 153:Middlewares/Third_Party/FatFs/src/option/ccsbcs.c **** #elif _CODE_PAGE == 860
 154:Middlewares/Third_Party/FatFs/src/option/ccsbcs.c **** #define _TBLDEF 1
 155:Middlewares/Third_Party/FatFs/src/option/ccsbcs.c **** static
 156:Middlewares/Third_Party/FatFs/src/option/ccsbcs.c **** const WCHAR Tbl[] = {	/*  CP860(0x80-0xFF) to Unicode conversion table */
 157:Middlewares/Third_Party/FatFs/src/option/ccsbcs.c **** 	0x00C7, 0x00FC, 0x00E9, 0x00E2, 0x00E3, 0x00E0, 0x00C1, 0x00E7, 0x00EA, 0x00CA, 0x00E8, 0x00CD, 0x
 158:Middlewares/Third_Party/FatFs/src/option/ccsbcs.c **** 	0x00C9, 0x00C0, 0x00C8, 0x00F4, 0x00F5, 0x00F2, 0x00DA, 0x00F9, 0x00CC, 0x00D5, 0x00DC, 0x00A2, 0x
 159:Middlewares/Third_Party/FatFs/src/option/ccsbcs.c **** 	0x00E1, 0x00ED, 0x00F3, 0x00FA, 0x00F1, 0x00D1, 0x00AA, 0x00BA, 0x00BF, 0x00D2, 0x00AC, 0x00BD, 0x
 160:Middlewares/Third_Party/FatFs/src/option/ccsbcs.c **** 	0x2591, 0x2592, 0x2593, 0x2502, 0x2524, 0x2561, 0x2562, 0x2556, 0x2555, 0x2563, 0x2551, 0x2557, 0x
 161:Middlewares/Third_Party/FatFs/src/option/ccsbcs.c **** 	0x2514, 0x2534, 0x252C, 0x251C, 0x2500, 0x253C, 0x255E, 0x255F, 0x255A, 0x2554, 0x2569, 0x2566, 0x
 162:Middlewares/Third_Party/FatFs/src/option/ccsbcs.c **** 	0x2568, 0x2564, 0x2565, 0x2559, 0x2558, 0x2552, 0x2553, 0x256B, 0x256A, 0x2518, 0x250C, 0x2588, 0x
 163:Middlewares/Third_Party/FatFs/src/option/ccsbcs.c **** 	0x03B1, 0x00DF, 0x0393, 0x03C0, 0x03A3, 0x03C3, 0x00B5, 0x03C4, 0x03A6, 0x0398, 0x03A9, 0x03B4, 0x
 164:Middlewares/Third_Party/FatFs/src/option/ccsbcs.c **** 	0x2261, 0x00B1, 0x2265, 0x2264, 0x2320, 0x2321, 0x00F7, 0x2248, 0x00B0, 0x2219, 0x00B7, 0x221A, 0x
 165:Middlewares/Third_Party/FatFs/src/option/ccsbcs.c **** };
 166:Middlewares/Third_Party/FatFs/src/option/ccsbcs.c **** 
 167:Middlewares/Third_Party/FatFs/src/option/ccsbcs.c **** #elif _CODE_PAGE == 861
 168:Middlewares/Third_Party/FatFs/src/option/ccsbcs.c **** #define _TBLDEF 1
 169:Middlewares/Third_Party/FatFs/src/option/ccsbcs.c **** static
 170:Middlewares/Third_Party/FatFs/src/option/ccsbcs.c **** const WCHAR Tbl[] = {	/*  CP861(0x80-0xFF) to Unicode conversion table */
 171:Middlewares/Third_Party/FatFs/src/option/ccsbcs.c **** 	0x00C7, 0x00FC, 0x00E9, 0x00E2, 0x00E4, 0x00E0, 0x00E6, 0x00E7, 0x00EA, 0x00EB, 0x00E8, 0x00D0, 0x
 172:Middlewares/Third_Party/FatFs/src/option/ccsbcs.c **** 	0x00C9, 0x00E6, 0x00C6, 0x00F4, 0x00F6, 0x00FE, 0x00FB, 0x00DD, 0x00FD, 0x00D6, 0x00DC, 0x00F8, 0x
 173:Middlewares/Third_Party/FatFs/src/option/ccsbcs.c **** 	0x00E1, 0x00ED, 0x00F3, 0x00FA, 0x00C1, 0x00CD, 0x00D3, 0x00DA, 0x00BF, 0x2310, 0x00AC, 0x00BD, 0x
 174:Middlewares/Third_Party/FatFs/src/option/ccsbcs.c **** 	0x2591, 0x2592, 0x2593, 0x2502, 0x2524, 0x2561, 0x2562, 0x2556, 0x2555, 0x2563, 0x2551, 0x2557, 0x
 175:Middlewares/Third_Party/FatFs/src/option/ccsbcs.c **** 	0x2514, 0x2534, 0x252C, 0x251C, 0x2500, 0x253C, 0x255E, 0x255F, 0x255A, 0x2554, 0x2569, 0x2566, 0x
 176:Middlewares/Third_Party/FatFs/src/option/ccsbcs.c **** 	0x2568, 0x2564, 0x2565, 0x2559, 0x2558, 0x2552, 0x2553, 0x256B, 0x256A, 0x2518, 0x250C, 0x2588, 0x
 177:Middlewares/Third_Party/FatFs/src/option/ccsbcs.c **** 	0x03B1, 0x00DF, 0x0393, 0x03C0, 0x03A3, 0x03C3, 0x00B5, 0x03C4, 0x03A6, 0x0398, 0x03A9, 0x03B4, 0x
 178:Middlewares/Third_Party/FatFs/src/option/ccsbcs.c **** 	0x2261, 0x00B1, 0x2265, 0x2264, 0x2320, 0x2321, 0x00F7, 0x2248, 0x00B0, 0x2219, 0x00B7, 0x221A, 0x
 179:Middlewares/Third_Party/FatFs/src/option/ccsbcs.c **** };
 180:Middlewares/Third_Party/FatFs/src/option/ccsbcs.c **** 
 181:Middlewares/Third_Party/FatFs/src/option/ccsbcs.c **** #elif _CODE_PAGE == 862
 182:Middlewares/Third_Party/FatFs/src/option/ccsbcs.c **** #define _TBLDEF 1
 183:Middlewares/Third_Party/FatFs/src/option/ccsbcs.c **** static
 184:Middlewares/Third_Party/FatFs/src/option/ccsbcs.c **** const WCHAR Tbl[] = {	/*  CP862(0x80-0xFF) to Unicode conversion table */
ARM GAS  C:\Users\jisu8\AppData\Local\Temp\ccf2YVH5.s 			page 7


 185:Middlewares/Third_Party/FatFs/src/option/ccsbcs.c **** 	0x05D0, 0x05D1, 0x05D2, 0x05D3, 0x05D4, 0x05D5, 0x05D6, 0x05D7, 0x05D8, 0x05D9, 0x05DA, 0x05DB, 0x
 186:Middlewares/Third_Party/FatFs/src/option/ccsbcs.c **** 	0x05E0, 0x05E1, 0x05E2, 0x05E3, 0x05E4, 0x05E5, 0x05E6, 0x05E7, 0x05E8, 0x05E9, 0x05EA, 0x00A2, 0x
 187:Middlewares/Third_Party/FatFs/src/option/ccsbcs.c **** 	0x00E1, 0x00ED, 0x00F3, 0x00FA, 0x00F1, 0x00D1, 0x00AA, 0x00BA, 0x00BF, 0x2310, 0x00AC, 0x00BD, 0x
 188:Middlewares/Third_Party/FatFs/src/option/ccsbcs.c **** 	0x2591, 0x2592, 0x2593, 0x2502, 0x2524, 0x2561, 0x2562, 0x2556, 0x2555, 0x2563, 0x2551, 0x2557, 0x
 189:Middlewares/Third_Party/FatFs/src/option/ccsbcs.c **** 	0x2514, 0x2534, 0x252C, 0x251C, 0x2500, 0x253C, 0x255E, 0x255F, 0x255A, 0x2554, 0x2569, 0x2566, 0x
 190:Middlewares/Third_Party/FatFs/src/option/ccsbcs.c **** 	0x2568, 0x2564, 0x2565, 0x2559, 0x2558, 0x2552, 0x2553, 0x256B, 0x256A, 0x2518, 0x250C, 0x2588, 0x
 191:Middlewares/Third_Party/FatFs/src/option/ccsbcs.c **** 	0x03B1, 0x00DF, 0x0393, 0x03C0, 0x03A3, 0x03C3, 0x00B5, 0x03C4, 0x03A6, 0x0398, 0x03A9, 0x03B4, 0x
 192:Middlewares/Third_Party/FatFs/src/option/ccsbcs.c **** 	0x2261, 0x00B1, 0x2265, 0x2264, 0x2320, 0x2321, 0x00F7, 0x2248, 0x00B0, 0x2219, 0x00B7, 0x221A, 0x
 193:Middlewares/Third_Party/FatFs/src/option/ccsbcs.c **** };
 194:Middlewares/Third_Party/FatFs/src/option/ccsbcs.c **** 
 195:Middlewares/Third_Party/FatFs/src/option/ccsbcs.c **** #elif _CODE_PAGE == 863
 196:Middlewares/Third_Party/FatFs/src/option/ccsbcs.c **** #define _TBLDEF 1
 197:Middlewares/Third_Party/FatFs/src/option/ccsbcs.c **** static
 198:Middlewares/Third_Party/FatFs/src/option/ccsbcs.c **** const WCHAR Tbl[] = {	/*  CP863(0x80-0xFF) to Unicode conversion table */
 199:Middlewares/Third_Party/FatFs/src/option/ccsbcs.c **** 	0x00C7, 0x00FC, 0x00E9, 0x00E2, 0x00C2, 0x00E0, 0x00B6, 0x00E7, 0x00EA, 0x00EB, 0x00E8, 0x00EF, 0x
 200:Middlewares/Third_Party/FatFs/src/option/ccsbcs.c **** 	0x00C9, 0x00C8, 0x00CA, 0x00F4, 0x00CB, 0x00CF, 0x00FB, 0x00F9, 0x00A4, 0x00D4, 0x00DC, 0x00A2, 0x
 201:Middlewares/Third_Party/FatFs/src/option/ccsbcs.c **** 	0x00A6, 0x00B4, 0x00F3, 0x00FA, 0x00A8, 0x00BB, 0x00B3, 0x00AF, 0x00CE, 0x3210, 0x00AC, 0x00BD, 0x
 202:Middlewares/Third_Party/FatFs/src/option/ccsbcs.c **** 	0x2591, 0x2592, 0x2593, 0x2502, 0x2524, 0x2561, 0x2562, 0x2556, 0x2555, 0x2563, 0x2551, 0x2557, 0x
 203:Middlewares/Third_Party/FatFs/src/option/ccsbcs.c **** 	0x2514, 0x2534, 0x252C, 0x251C, 0x2500, 0x253C, 0x255E, 0x255F, 0x255A, 0x2554, 0x2569, 0x2566, 0x
 204:Middlewares/Third_Party/FatFs/src/option/ccsbcs.c **** 	0x2568, 0x2564, 0x2565, 0x2559, 0x2558, 0x2552, 0x2553, 0x256B, 0x256A, 0x2518, 0x250C, 0x2588, 0x
 205:Middlewares/Third_Party/FatFs/src/option/ccsbcs.c **** 	0x03B1, 0x00DF, 0x0393, 0x03C0, 0x03A3, 0x03C3, 0x00B5, 0x03C4, 0x03A6, 0x0398, 0x03A9, 0x03B4, 0x
 206:Middlewares/Third_Party/FatFs/src/option/ccsbcs.c **** 	0x2261, 0x00B1, 0x2265, 0x2264, 0x2320, 0x2321, 0x00F7, 0x2248, 0x00B0, 0x2219, 0x00B7, 0x221A, 0x
 207:Middlewares/Third_Party/FatFs/src/option/ccsbcs.c **** };
 208:Middlewares/Third_Party/FatFs/src/option/ccsbcs.c **** 
 209:Middlewares/Third_Party/FatFs/src/option/ccsbcs.c **** #elif _CODE_PAGE == 864
 210:Middlewares/Third_Party/FatFs/src/option/ccsbcs.c **** #define _TBLDEF 1
 211:Middlewares/Third_Party/FatFs/src/option/ccsbcs.c **** static
 212:Middlewares/Third_Party/FatFs/src/option/ccsbcs.c **** const WCHAR Tbl[] = {	/*  CP864(0x80-0xFF) to Unicode conversion table */
 213:Middlewares/Third_Party/FatFs/src/option/ccsbcs.c **** 	0x00B0, 0x00B7, 0x2219, 0x221A, 0x2592, 0x2500, 0x2502, 0x253C, 0x2524, 0x252C, 0x251C, 0x2534, 0x
 214:Middlewares/Third_Party/FatFs/src/option/ccsbcs.c **** 	0x03B2, 0x221E, 0x03C6, 0x00B1, 0x00BD, 0x00BC, 0x2248, 0x00AB, 0x00BB, 0xFEF7, 0xFEF8, 0x0000, 0x
 215:Middlewares/Third_Party/FatFs/src/option/ccsbcs.c **** 	0x00A0, 0x00AD, 0xFE82, 0x00A3, 0x00A4, 0xFE84, 0x0000, 0x20AC, 0xFE8E, 0xFE8F, 0xFE95, 0xFE99, 0x
 216:Middlewares/Third_Party/FatFs/src/option/ccsbcs.c **** 	0x0660, 0x0661, 0x0662, 0x0663, 0x0664, 0x0665, 0x0666, 0x0667, 0x0668, 0x0669, 0xFED1, 0x061B, 0x
 217:Middlewares/Third_Party/FatFs/src/option/ccsbcs.c **** 	0x00A2, 0xFE80, 0xFE81, 0xFE83, 0xFE85, 0xFECA, 0xFE8B, 0xFE8D, 0xFE91, 0xFE93, 0xFE97, 0xFE9B, 0x
 218:Middlewares/Third_Party/FatFs/src/option/ccsbcs.c **** 	0xFEAB, 0xFEAD, 0xFEAF, 0xFEB3, 0xFEB7, 0xFEBB, 0xFEBF, 0xFEC1, 0xFEC5, 0xFECB, 0xFECF, 0x00A6, 0x
 219:Middlewares/Third_Party/FatFs/src/option/ccsbcs.c **** 	0x0640, 0xFED3, 0xFED7, 0xFEDB, 0xFEDF, 0xFEE3, 0xFEE7, 0xFEEB, 0xFEED, 0xFEEF, 0xFEF3, 0xFEBD, 0x
 220:Middlewares/Third_Party/FatFs/src/option/ccsbcs.c **** 	0xFE7D, 0x0651, 0xFEE5, 0xFEE9, 0xFEEC, 0xFEF0, 0xFEF2, 0xFED0, 0xFED5, 0xFEF5, 0xFEF6, 0xFEDD, 0x
 221:Middlewares/Third_Party/FatFs/src/option/ccsbcs.c **** };
 222:Middlewares/Third_Party/FatFs/src/option/ccsbcs.c **** 
 223:Middlewares/Third_Party/FatFs/src/option/ccsbcs.c **** #elif _CODE_PAGE == 865
 224:Middlewares/Third_Party/FatFs/src/option/ccsbcs.c **** #define _TBLDEF 1
 225:Middlewares/Third_Party/FatFs/src/option/ccsbcs.c **** static
 226:Middlewares/Third_Party/FatFs/src/option/ccsbcs.c **** const WCHAR Tbl[] = {	/*  CP865(0x80-0xFF) to Unicode conversion table */
 227:Middlewares/Third_Party/FatFs/src/option/ccsbcs.c **** 	0x00C7, 0x00FC, 0x00E9, 0x00E2, 0x00E4, 0x00E0, 0x00E5, 0x00E7, 0x00EA, 0x00EB, 0x00E8, 0x00EF, 0x
 228:Middlewares/Third_Party/FatFs/src/option/ccsbcs.c **** 	0x00C5, 0x00E6, 0x00C6, 0x00F4, 0x00F6, 0x00F2, 0x00FB, 0x00F9, 0x00FF, 0x00D6, 0x00DC, 0x00F8, 0x
 229:Middlewares/Third_Party/FatFs/src/option/ccsbcs.c **** 	0x00E1, 0x00ED, 0x00F3, 0x00FA, 0x00F1, 0x00D1, 0x00AA, 0x00BA, 0x00BF, 0x2310, 0x00AC, 0x00BD, 0x
 230:Middlewares/Third_Party/FatFs/src/option/ccsbcs.c **** 	0x2591, 0x2592, 0x2593, 0x2502, 0x2524, 0x2561, 0x2562, 0x2556, 0x2555, 0x2563, 0x2551, 0x2557, 0x
 231:Middlewares/Third_Party/FatFs/src/option/ccsbcs.c **** 	0x2514, 0x2534, 0x252C, 0x251C, 0x2500, 0x253C, 0x255E, 0x255F, 0x255A, 0x2554, 0x2569, 0x2566, 0x
 232:Middlewares/Third_Party/FatFs/src/option/ccsbcs.c **** 	0x2568, 0x2564, 0x2565, 0x2559, 0x2558, 0x2552, 0x2553, 0x256B, 0x256A, 0x2518, 0x250C, 0x2588, 0x
 233:Middlewares/Third_Party/FatFs/src/option/ccsbcs.c **** 	0x03B1, 0x00DF, 0x0393, 0x03C0, 0x03A3, 0x03C3, 0x00B5, 0x03C4, 0x03A6, 0x0398, 0x03A9, 0x03B4, 0x
 234:Middlewares/Third_Party/FatFs/src/option/ccsbcs.c **** 	0x2261, 0x00B1, 0x2265, 0x2264, 0x2320, 0x2321, 0x00F7, 0x2248, 0x00B0, 0x2219, 0x00B7, 0x221A, 0x
 235:Middlewares/Third_Party/FatFs/src/option/ccsbcs.c **** };
 236:Middlewares/Third_Party/FatFs/src/option/ccsbcs.c **** 
 237:Middlewares/Third_Party/FatFs/src/option/ccsbcs.c **** #elif _CODE_PAGE == 866
 238:Middlewares/Third_Party/FatFs/src/option/ccsbcs.c **** #define _TBLDEF 1
 239:Middlewares/Third_Party/FatFs/src/option/ccsbcs.c **** static
 240:Middlewares/Third_Party/FatFs/src/option/ccsbcs.c **** const WCHAR Tbl[] = {	/*  CP866(0x80-0xFF) to Unicode conversion table */
 241:Middlewares/Third_Party/FatFs/src/option/ccsbcs.c **** 	0x0410, 0x0411, 0x0412, 0x0413, 0x0414, 0x0415, 0x0416, 0x0417, 0x0418, 0x0419, 0x041A, 0x041B, 0x
ARM GAS  C:\Users\jisu8\AppData\Local\Temp\ccf2YVH5.s 			page 8


 242:Middlewares/Third_Party/FatFs/src/option/ccsbcs.c **** 	0x0420, 0x0421, 0x0422, 0x0423, 0x0424, 0x0425, 0x0426, 0x0427, 0x0428, 0x0429, 0x042A, 0x042B, 0x
 243:Middlewares/Third_Party/FatFs/src/option/ccsbcs.c **** 	0x0430, 0x0431, 0x0432, 0x0433, 0x0434, 0x0435, 0x0436, 0x0437, 0x0438, 0x0439, 0x043A, 0x043B, 0x
 244:Middlewares/Third_Party/FatFs/src/option/ccsbcs.c **** 	0x2591, 0x2592, 0x2593, 0x2502, 0x2524, 0x2561, 0x2562, 0x2556, 0x2555, 0x2563, 0x2551, 0x2557, 0x
 245:Middlewares/Third_Party/FatFs/src/option/ccsbcs.c **** 	0x2514, 0x2534, 0x252C, 0x251C, 0x2500, 0x253C, 0x255E, 0x255F, 0x255A, 0x2554, 0x2569, 0x2566, 0x
 246:Middlewares/Third_Party/FatFs/src/option/ccsbcs.c **** 	0x2568, 0x2564, 0x2565, 0x2559, 0x2558, 0x2552, 0x2553, 0x256B, 0x256A, 0x2518, 0x250C, 0x2588, 0x
 247:Middlewares/Third_Party/FatFs/src/option/ccsbcs.c **** 	0x0440, 0x0441, 0x0442, 0x0443, 0x0444, 0x0445, 0x0446, 0x0447, 0x0448, 0x0449, 0x044A, 0x044B, 0x
 248:Middlewares/Third_Party/FatFs/src/option/ccsbcs.c **** 	0x0401, 0x0451, 0x0404, 0x0454, 0x0407, 0x0457, 0x040E, 0x045E, 0x00B0, 0x2219, 0x00B7, 0x221A, 0x
 249:Middlewares/Third_Party/FatFs/src/option/ccsbcs.c **** };
 250:Middlewares/Third_Party/FatFs/src/option/ccsbcs.c **** 
 251:Middlewares/Third_Party/FatFs/src/option/ccsbcs.c **** #elif _CODE_PAGE == 869
 252:Middlewares/Third_Party/FatFs/src/option/ccsbcs.c **** #define _TBLDEF 1
 253:Middlewares/Third_Party/FatFs/src/option/ccsbcs.c **** static
 254:Middlewares/Third_Party/FatFs/src/option/ccsbcs.c **** const WCHAR Tbl[] = {	/*  CP869(0x80-0xFF) to Unicode conversion table */
 255:Middlewares/Third_Party/FatFs/src/option/ccsbcs.c **** 	0x00B7, 0x00B7, 0x00B7, 0x00B7, 0x00B7, 0x00B7, 0x0386, 0x00B7, 0x00B7, 0x00AC, 0x00A6, 0x2018, 0x
 256:Middlewares/Third_Party/FatFs/src/option/ccsbcs.c **** 	0x038A, 0x03AA, 0x038C, 0x00B7, 0x00B7, 0x038E, 0x03AB, 0x00A9, 0x038F, 0x00B2, 0x00B3, 0x03AC, 0x
 257:Middlewares/Third_Party/FatFs/src/option/ccsbcs.c **** 	0x03CA, 0x0390, 0x03CC, 0x03CD, 0x0391, 0x0392, 0x0393, 0x0394, 0x0395, 0x0396, 0x0397, 0x00BD, 0x
 258:Middlewares/Third_Party/FatFs/src/option/ccsbcs.c **** 	0x2591, 0x2592, 0x2593, 0x2502, 0x2524, 0x039A, 0x039B, 0x039C, 0x039D, 0x2563, 0x2551, 0x2557, 0x
 259:Middlewares/Third_Party/FatFs/src/option/ccsbcs.c **** 	0x2514, 0x2534, 0x252C, 0x251C, 0x2500, 0x253C, 0x0A30, 0x03A1, 0x255A, 0x2554, 0x2569, 0x2566, 0x
 260:Middlewares/Third_Party/FatFs/src/option/ccsbcs.c **** 	0x03A4, 0x03A5, 0x03A6, 0x03A7, 0x03A8, 0x03A9, 0x03B1, 0x03B2, 0x03B3, 0x2518, 0x250C, 0x2588, 0x
 261:Middlewares/Third_Party/FatFs/src/option/ccsbcs.c **** 	0x03B6, 0x03B7, 0x03B8, 0x03B9, 0x03BA, 0x03BB, 0x03BC, 0x03BD, 0x03BE, 0x03BF, 0x03C0, 0x03C1, 0x
 262:Middlewares/Third_Party/FatFs/src/option/ccsbcs.c **** 	0x00AD, 0x00B1, 0x03C5, 0x03C6, 0x03C7, 0x00A7, 0x03C8, 0x0385, 0x00B0, 0x00A8, 0x03C9, 0x03CB, 0x
 263:Middlewares/Third_Party/FatFs/src/option/ccsbcs.c **** };
 264:Middlewares/Third_Party/FatFs/src/option/ccsbcs.c **** 
 265:Middlewares/Third_Party/FatFs/src/option/ccsbcs.c **** #endif
 266:Middlewares/Third_Party/FatFs/src/option/ccsbcs.c **** 
 267:Middlewares/Third_Party/FatFs/src/option/ccsbcs.c **** 
 268:Middlewares/Third_Party/FatFs/src/option/ccsbcs.c **** #if !_TBLDEF || !_USE_LFN
 269:Middlewares/Third_Party/FatFs/src/option/ccsbcs.c **** #error This file is not needed at current configuration. Remove from the project.
 270:Middlewares/Third_Party/FatFs/src/option/ccsbcs.c **** #endif
 271:Middlewares/Third_Party/FatFs/src/option/ccsbcs.c **** 
 272:Middlewares/Third_Party/FatFs/src/option/ccsbcs.c **** 
 273:Middlewares/Third_Party/FatFs/src/option/ccsbcs.c **** 
 274:Middlewares/Third_Party/FatFs/src/option/ccsbcs.c **** 
 275:Middlewares/Third_Party/FatFs/src/option/ccsbcs.c **** WCHAR ff_convert (	/* Converted character, Returns zero on error */
 276:Middlewares/Third_Party/FatFs/src/option/ccsbcs.c **** 	WCHAR	chr,	/* Character code to be converted */
 277:Middlewares/Third_Party/FatFs/src/option/ccsbcs.c **** 	UINT	dir		/* 0: Unicode to OEM code, 1: OEM code to Unicode */
 278:Middlewares/Third_Party/FatFs/src/option/ccsbcs.c **** )
 279:Middlewares/Third_Party/FatFs/src/option/ccsbcs.c **** {
 162              		.loc 1 279 1
 163              		.cfi_startproc
 164              		@ args = 0, pretend = 0, frame = 16
 165              		@ frame_needed = 1, uses_anonymous_args = 0
 166              		@ link register save eliminated.
 167 0000 80B4     		push	{r7}
 168              	.LCFI0:
 169              		.cfi_def_cfa_offset 4
 170              		.cfi_offset 7, -4
 171 0002 85B0     		sub	sp, sp, #20
 172              	.LCFI1:
 173              		.cfi_def_cfa_offset 24
 174 0004 00AF     		add	r7, sp, #0
 175              	.LCFI2:
 176              		.cfi_def_cfa_register 7
 177 0006 0346     		mov	r3, r0
 178 0008 3960     		str	r1, [r7]
 179 000a FB80     		strh	r3, [r7, #6]	@ movhi
 280:Middlewares/Third_Party/FatFs/src/option/ccsbcs.c **** 	WCHAR c;
ARM GAS  C:\Users\jisu8\AppData\Local\Temp\ccf2YVH5.s 			page 9


 281:Middlewares/Third_Party/FatFs/src/option/ccsbcs.c **** 
 282:Middlewares/Third_Party/FatFs/src/option/ccsbcs.c **** 
 283:Middlewares/Third_Party/FatFs/src/option/ccsbcs.c **** 	if (chr < 0x80) {	/* ASCII */
 180              		.loc 1 283 5
 181 000c FB88     		ldrh	r3, [r7, #6]
 182 000e 7F2B     		cmp	r3, #127
 183 0010 02D8     		bhi	.L2
 284:Middlewares/Third_Party/FatFs/src/option/ccsbcs.c **** 		c = chr;
 184              		.loc 1 284 5
 185 0012 FB88     		ldrh	r3, [r7, #6]	@ movhi
 186 0014 FB81     		strh	r3, [r7, #14]	@ movhi
 187 0016 25E0     		b	.L3
 188              	.L2:
 285:Middlewares/Third_Party/FatFs/src/option/ccsbcs.c **** 
 286:Middlewares/Third_Party/FatFs/src/option/ccsbcs.c **** 	} else {
 287:Middlewares/Third_Party/FatFs/src/option/ccsbcs.c **** 		if (dir) {		/* OEM code to Unicode */
 189              		.loc 1 287 6
 190 0018 3B68     		ldr	r3, [r7]
 191 001a 002B     		cmp	r3, #0
 192 001c 0BD0     		beq	.L4
 288:Middlewares/Third_Party/FatFs/src/option/ccsbcs.c **** 			c = (chr >= 0x100) ? 0 : Tbl[chr - 0x80];
 193              		.loc 1 288 6
 194 001e FB88     		ldrh	r3, [r7, #6]
 195 0020 FF2B     		cmp	r3, #255
 196 0022 05D8     		bhi	.L5
 197              		.loc 1 288 37 discriminator 1
 198 0024 FB88     		ldrh	r3, [r7, #6]
 199 0026 803B     		subs	r3, r3, #128
 200              		.loc 1 288 6 discriminator 1
 201 0028 124A     		ldr	r2, .L13
 202 002a 32F81330 		ldrh	r3, [r2, r3, lsl #1]
 203 002e 00E0     		b	.L6
 204              	.L5:
 205              		.loc 1 288 6 is_stmt 0 discriminator 2
 206 0030 0023     		movs	r3, #0
 207              	.L6:
 208              		.loc 1 288 6 discriminator 4
 209 0032 FB81     		strh	r3, [r7, #14]	@ movhi
 210 0034 16E0     		b	.L3
 211              	.L4:
 289:Middlewares/Third_Party/FatFs/src/option/ccsbcs.c **** 
 290:Middlewares/Third_Party/FatFs/src/option/ccsbcs.c **** 		} else {		/* Unicode to OEM code */
 291:Middlewares/Third_Party/FatFs/src/option/ccsbcs.c **** 			for (c = 0; c < 0x80; c++) {
 212              		.loc 1 291 11 is_stmt 1
 213 0036 0023     		movs	r3, #0
 214 0038 FB81     		strh	r3, [r7, #14]	@ movhi
 215              		.loc 1 291 4
 216 003a 09E0     		b	.L7
 217              	.L10:
 292:Middlewares/Third_Party/FatFs/src/option/ccsbcs.c **** 				if (chr == Tbl[c]) break;
 218              		.loc 1 292 19
 219 003c FB89     		ldrh	r3, [r7, #14]
 220 003e 0D4A     		ldr	r2, .L13
 221 0040 32F81330 		ldrh	r3, [r2, r3, lsl #1]
 222              		.loc 1 292 8
 223 0044 FA88     		ldrh	r2, [r7, #6]
 224 0046 9A42     		cmp	r2, r3
ARM GAS  C:\Users\jisu8\AppData\Local\Temp\ccf2YVH5.s 			page 10


 225 0048 06D0     		beq	.L12
 291:Middlewares/Third_Party/FatFs/src/option/ccsbcs.c **** 				if (chr == Tbl[c]) break;
 226              		.loc 1 291 27 discriminator 2
 227 004a FB89     		ldrh	r3, [r7, #14]
 228 004c 0133     		adds	r3, r3, #1
 229 004e FB81     		strh	r3, [r7, #14]	@ movhi
 230              	.L7:
 291:Middlewares/Third_Party/FatFs/src/option/ccsbcs.c **** 				if (chr == Tbl[c]) break;
 231              		.loc 1 291 4 discriminator 1
 232 0050 FB89     		ldrh	r3, [r7, #14]
 233 0052 7F2B     		cmp	r3, #127
 234 0054 F2D9     		bls	.L10
 235 0056 00E0     		b	.L9
 236              	.L12:
 237              		.loc 1 292 5
 238 0058 00BF     		nop
 239              	.L9:
 293:Middlewares/Third_Party/FatFs/src/option/ccsbcs.c **** 			}
 294:Middlewares/Third_Party/FatFs/src/option/ccsbcs.c **** 			c = (c + 0x80) & 0xFF;
 240              		.loc 1 294 11
 241 005a FB89     		ldrh	r3, [r7, #14]	@ movhi
 242 005c 8033     		adds	r3, r3, #128
 243 005e 9BB2     		uxth	r3, r3
 244              		.loc 1 294 6
 245 0060 DBB2     		uxtb	r3, r3
 246 0062 FB81     		strh	r3, [r7, #14]	@ movhi
 247              	.L3:
 295:Middlewares/Third_Party/FatFs/src/option/ccsbcs.c **** 		}
 296:Middlewares/Third_Party/FatFs/src/option/ccsbcs.c **** 	}
 297:Middlewares/Third_Party/FatFs/src/option/ccsbcs.c **** 
 298:Middlewares/Third_Party/FatFs/src/option/ccsbcs.c **** 	return c;
 248              		.loc 1 298 9
 249 0064 FB89     		ldrh	r3, [r7, #14]
 299:Middlewares/Third_Party/FatFs/src/option/ccsbcs.c **** }
 250              		.loc 1 299 1
 251 0066 1846     		mov	r0, r3
 252 0068 1437     		adds	r7, r7, #20
 253              	.LCFI3:
 254              		.cfi_def_cfa_offset 4
 255 006a BD46     		mov	sp, r7
 256              	.LCFI4:
 257              		.cfi_def_cfa_register 13
 258              		@ sp needed
 259 006c 5DF8047B 		ldr	r7, [sp], #4
 260              	.LCFI5:
 261              		.cfi_restore 7
 262              		.cfi_def_cfa_offset 0
 263 0070 7047     		bx	lr
 264              	.L14:
 265 0072 00BF     		.align	2
 266              	.L13:
 267 0074 00000000 		.word	Tbl
 268              		.cfi_endproc
 269              	.LFE149:
 271              		.section	.text.ff_wtoupper,"ax",%progbits
 272              		.align	1
 273              		.global	ff_wtoupper
ARM GAS  C:\Users\jisu8\AppData\Local\Temp\ccf2YVH5.s 			page 11


 274              		.syntax unified
 275              		.thumb
 276              		.thumb_func
 278              	ff_wtoupper:
 279              	.LFB150:
 300:Middlewares/Third_Party/FatFs/src/option/ccsbcs.c **** 
 301:Middlewares/Third_Party/FatFs/src/option/ccsbcs.c **** 
 302:Middlewares/Third_Party/FatFs/src/option/ccsbcs.c **** 
 303:Middlewares/Third_Party/FatFs/src/option/ccsbcs.c **** WCHAR ff_wtoupper (	/* Returns upper converted character */
 304:Middlewares/Third_Party/FatFs/src/option/ccsbcs.c **** 	WCHAR chr		/* Unicode character to be upper converted (BMP only) */
 305:Middlewares/Third_Party/FatFs/src/option/ccsbcs.c **** )
 306:Middlewares/Third_Party/FatFs/src/option/ccsbcs.c **** {
 280              		.loc 1 306 1
 281              		.cfi_startproc
 282              		@ args = 0, pretend = 0, frame = 24
 283              		@ frame_needed = 1, uses_anonymous_args = 0
 284              		@ link register save eliminated.
 285 0000 80B4     		push	{r7}
 286              	.LCFI6:
 287              		.cfi_def_cfa_offset 4
 288              		.cfi_offset 7, -4
 289 0002 87B0     		sub	sp, sp, #28
 290              	.LCFI7:
 291              		.cfi_def_cfa_offset 32
 292 0004 00AF     		add	r7, sp, #0
 293              	.LCFI8:
 294              		.cfi_def_cfa_register 7
 295 0006 0346     		mov	r3, r0
 296 0008 FB80     		strh	r3, [r7, #6]	@ movhi
 307:Middlewares/Third_Party/FatFs/src/option/ccsbcs.c **** 	/* Compressed upper conversion table */
 308:Middlewares/Third_Party/FatFs/src/option/ccsbcs.c **** 	static const WCHAR cvt1[] = {	/* U+0000 - U+0FFF */
 309:Middlewares/Third_Party/FatFs/src/option/ccsbcs.c **** 		/* Basic Latin */
 310:Middlewares/Third_Party/FatFs/src/option/ccsbcs.c **** 		0x0061,0x031A,
 311:Middlewares/Third_Party/FatFs/src/option/ccsbcs.c **** 		/* Latin-1 Supplement */
 312:Middlewares/Third_Party/FatFs/src/option/ccsbcs.c **** 		0x00E0,0x0317,  0x00F8,0x0307,  0x00FF,0x0001,0x0178,
 313:Middlewares/Third_Party/FatFs/src/option/ccsbcs.c **** 		/* Latin Extended-A */
 314:Middlewares/Third_Party/FatFs/src/option/ccsbcs.c **** 		0x0100,0x0130,  0x0132,0x0106,  0x0139,0x0110,  0x014A,0x012E,  0x0179,0x0106,
 315:Middlewares/Third_Party/FatFs/src/option/ccsbcs.c **** 		/* Latin Extended-B */
 316:Middlewares/Third_Party/FatFs/src/option/ccsbcs.c **** 		0x0180,0x004D,0x0243,0x0181,0x0182,0x0182,0x0184,0x0184,0x0186,0x0187,0x0187,0x0189,0x018A,0x018B
 317:Middlewares/Third_Party/FatFs/src/option/ccsbcs.c **** 		0x01CD,0x0110,  0x01DD,0x0001,0x018E,  0x01DE,0x0112,  0x01F3,0x0003,0x01F1,0x01F4,0x01F4,  0x01F
 318:Middlewares/Third_Party/FatFs/src/option/ccsbcs.c **** 		0x0222,0x0112,  0x023A,0x0009,0x2C65,0x023B,0x023B,0x023D,0x2C66,0x023F,0x0240,0x0241,0x0241,  0x
 319:Middlewares/Third_Party/FatFs/src/option/ccsbcs.c **** 		/* IPA Extensions */
 320:Middlewares/Third_Party/FatFs/src/option/ccsbcs.c **** 		0x0253,0x0040,0x0181,0x0186,0x0255,0x0189,0x018A,0x0258,0x018F,0x025A,0x0190,0x025C,0x025D,0x025E
 321:Middlewares/Third_Party/FatFs/src/option/ccsbcs.c **** 		/* Greek, Coptic */
 322:Middlewares/Third_Party/FatFs/src/option/ccsbcs.c **** 		0x037B,0x0003,0x03FD,0x03FE,0x03FF,  0x03AC,0x0004,0x0386,0x0388,0x0389,0x038A,  0x03B1,0x0311,
 323:Middlewares/Third_Party/FatFs/src/option/ccsbcs.c **** 		0x03C2,0x0002,0x03A3,0x03A3,  0x03C4,0x0308,  0x03CC,0x0003,0x038C,0x038E,0x038F,  0x03D8,0x0118,
 324:Middlewares/Third_Party/FatFs/src/option/ccsbcs.c **** 		0x03F2,0x000A,0x03F9,0x03F3,0x03F4,0x03F5,0x03F6,0x03F7,0x03F7,0x03F9,0x03FA,0x03FA,
 325:Middlewares/Third_Party/FatFs/src/option/ccsbcs.c **** 		/* Cyrillic */
 326:Middlewares/Third_Party/FatFs/src/option/ccsbcs.c **** 		0x0430,0x0320,  0x0450,0x0710,  0x0460,0x0122,  0x048A,0x0136,  0x04C1,0x010E,  0x04CF,0x0001,0x0
 327:Middlewares/Third_Party/FatFs/src/option/ccsbcs.c **** 		/* Armenian */
 328:Middlewares/Third_Party/FatFs/src/option/ccsbcs.c **** 		0x0561,0x0426,
 329:Middlewares/Third_Party/FatFs/src/option/ccsbcs.c **** 
 330:Middlewares/Third_Party/FatFs/src/option/ccsbcs.c **** 		0x0000
 331:Middlewares/Third_Party/FatFs/src/option/ccsbcs.c **** 	};
 332:Middlewares/Third_Party/FatFs/src/option/ccsbcs.c **** 	static const WCHAR cvt2[] = {	/* U+1000 - U+FFFF */
 333:Middlewares/Third_Party/FatFs/src/option/ccsbcs.c **** 		/* Phonetic Extensions */
 334:Middlewares/Third_Party/FatFs/src/option/ccsbcs.c **** 		0x1D7D,0x0001,0x2C63,
ARM GAS  C:\Users\jisu8\AppData\Local\Temp\ccf2YVH5.s 			page 12


 335:Middlewares/Third_Party/FatFs/src/option/ccsbcs.c **** 		/* Latin Extended Additional */
 336:Middlewares/Third_Party/FatFs/src/option/ccsbcs.c **** 		0x1E00,0x0196,  0x1EA0,0x015A,
 337:Middlewares/Third_Party/FatFs/src/option/ccsbcs.c **** 		/* Greek Extended */
 338:Middlewares/Third_Party/FatFs/src/option/ccsbcs.c **** 		0x1F00,0x0608,  0x1F10,0x0606,  0x1F20,0x0608,  0x1F30,0x0608,  0x1F40,0x0606,
 339:Middlewares/Third_Party/FatFs/src/option/ccsbcs.c **** 		0x1F51,0x0007,0x1F59,0x1F52,0x1F5B,0x1F54,0x1F5D,0x1F56,0x1F5F,  0x1F60,0x0608,
 340:Middlewares/Third_Party/FatFs/src/option/ccsbcs.c **** 		0x1F70,0x000E,0x1FBA,0x1FBB,0x1FC8,0x1FC9,0x1FCA,0x1FCB,0x1FDA,0x1FDB,0x1FF8,0x1FF9,0x1FEA,0x1FEB
 341:Middlewares/Third_Party/FatFs/src/option/ccsbcs.c **** 		0x1F80,0x0608,  0x1F90,0x0608,  0x1FA0,0x0608,  0x1FB0,0x0004,0x1FB8,0x1FB9,0x1FB2,0x1FBC,
 342:Middlewares/Third_Party/FatFs/src/option/ccsbcs.c **** 		0x1FCC,0x0001,0x1FC3,  0x1FD0,0x0602,  0x1FE0,0x0602,  0x1FE5,0x0001,0x1FEC,  0x1FF2,0x0001,0x1FF
 343:Middlewares/Third_Party/FatFs/src/option/ccsbcs.c **** 		/* Letterlike Symbols */
 344:Middlewares/Third_Party/FatFs/src/option/ccsbcs.c **** 		0x214E,0x0001,0x2132,
 345:Middlewares/Third_Party/FatFs/src/option/ccsbcs.c **** 		/* Number forms */
 346:Middlewares/Third_Party/FatFs/src/option/ccsbcs.c **** 		0x2170,0x0210,  0x2184,0x0001,0x2183,
 347:Middlewares/Third_Party/FatFs/src/option/ccsbcs.c **** 		/* Enclosed Alphanumerics */
 348:Middlewares/Third_Party/FatFs/src/option/ccsbcs.c **** 		0x24D0,0x051A,  0x2C30,0x042F,
 349:Middlewares/Third_Party/FatFs/src/option/ccsbcs.c **** 		/* Latin Extended-C */
 350:Middlewares/Third_Party/FatFs/src/option/ccsbcs.c **** 		0x2C60,0x0102,  0x2C67,0x0106, 0x2C75,0x0102,
 351:Middlewares/Third_Party/FatFs/src/option/ccsbcs.c **** 		/* Coptic */
 352:Middlewares/Third_Party/FatFs/src/option/ccsbcs.c **** 		0x2C80,0x0164,
 353:Middlewares/Third_Party/FatFs/src/option/ccsbcs.c **** 		/* Georgian Supplement */
 354:Middlewares/Third_Party/FatFs/src/option/ccsbcs.c **** 		0x2D00,0x0826,
 355:Middlewares/Third_Party/FatFs/src/option/ccsbcs.c **** 		/* Full-width */
 356:Middlewares/Third_Party/FatFs/src/option/ccsbcs.c **** 		0xFF41,0x031A,
 357:Middlewares/Third_Party/FatFs/src/option/ccsbcs.c **** 
 358:Middlewares/Third_Party/FatFs/src/option/ccsbcs.c **** 		0x0000
 359:Middlewares/Third_Party/FatFs/src/option/ccsbcs.c **** 	};
 360:Middlewares/Third_Party/FatFs/src/option/ccsbcs.c **** 	const WCHAR *p;
 361:Middlewares/Third_Party/FatFs/src/option/ccsbcs.c **** 	WCHAR bc, nc, cmd;
 362:Middlewares/Third_Party/FatFs/src/option/ccsbcs.c **** 
 363:Middlewares/Third_Party/FatFs/src/option/ccsbcs.c **** 
 364:Middlewares/Third_Party/FatFs/src/option/ccsbcs.c **** 	p = chr < 0x1000 ? cvt1 : cvt2;
 297              		.loc 1 364 26
 298 000a FB88     		ldrh	r3, [r7, #6]
 299 000c B3F5805F 		cmp	r3, #4096
 300 0010 01D2     		bcs	.L16
 301              		.loc 1 364 26 is_stmt 0 discriminator 1
 302 0012 3E4B     		ldr	r3, .L35
 303 0014 00E0     		b	.L17
 304              	.L16:
 305              		.loc 1 364 26 discriminator 2
 306 0016 3E4B     		ldr	r3, .L35+4
 307              	.L17:
 308              		.loc 1 364 4 is_stmt 1 discriminator 4
 309 0018 7B61     		str	r3, [r7, #20]
 310              	.L32:
 365:Middlewares/Third_Party/FatFs/src/option/ccsbcs.c **** 	for (;;) {
 366:Middlewares/Third_Party/FatFs/src/option/ccsbcs.c **** 		bc = *p++;								/* Get block base */
 311              		.loc 1 366 10
 312 001a 7B69     		ldr	r3, [r7, #20]
 313 001c 9A1C     		adds	r2, r3, #2
 314 001e 7A61     		str	r2, [r7, #20]
 315              		.loc 1 366 6
 316 0020 1B88     		ldrh	r3, [r3]	@ movhi
 317 0022 7B82     		strh	r3, [r7, #18]	@ movhi
 367:Middlewares/Third_Party/FatFs/src/option/ccsbcs.c **** 		if (!bc || chr < bc) break;
 318              		.loc 1 367 6
 319 0024 7B8A     		ldrh	r3, [r7, #18]
 320 0026 002B     		cmp	r3, #0
ARM GAS  C:\Users\jisu8\AppData\Local\Temp\ccf2YVH5.s 			page 13


 321 0028 68D0     		beq	.L18
 322              		.loc 1 367 11 discriminator 1
 323 002a FA88     		ldrh	r2, [r7, #6]
 324 002c 7B8A     		ldrh	r3, [r7, #18]
 325 002e 9A42     		cmp	r2, r3
 326 0030 64D3     		bcc	.L18
 368:Middlewares/Third_Party/FatFs/src/option/ccsbcs.c **** 		nc = *p++; cmd = nc >> 8; nc &= 0xFF;	/* Get processing command and block size */
 327              		.loc 1 368 10
 328 0032 7B69     		ldr	r3, [r7, #20]
 329 0034 9A1C     		adds	r2, r3, #2
 330 0036 7A61     		str	r2, [r7, #20]
 331              		.loc 1 368 6
 332 0038 1B88     		ldrh	r3, [r3]	@ movhi
 333 003a 3B82     		strh	r3, [r7, #16]	@ movhi
 334              		.loc 1 368 18
 335 003c 3B8A     		ldrh	r3, [r7, #16]
 336 003e 1B0A     		lsrs	r3, r3, #8
 337 0040 FB81     		strh	r3, [r7, #14]	@ movhi
 338              		.loc 1 368 32
 339 0042 3B8A     		ldrh	r3, [r7, #16]	@ movhi
 340 0044 DBB2     		uxtb	r3, r3
 341 0046 3B82     		strh	r3, [r7, #16]	@ movhi
 369:Middlewares/Third_Party/FatFs/src/option/ccsbcs.c **** 		if (chr < bc + nc) {	/* In the block? */
 342              		.loc 1 369 11
 343 0048 FA88     		ldrh	r2, [r7, #6]
 344              		.loc 1 369 16
 345 004a 798A     		ldrh	r1, [r7, #18]
 346 004c 3B8A     		ldrh	r3, [r7, #16]
 347 004e 0B44     		add	r3, r3, r1
 348              		.loc 1 369 6
 349 0050 9A42     		cmp	r2, r3
 350 0052 49DA     		bge	.L19
 370:Middlewares/Third_Party/FatFs/src/option/ccsbcs.c **** 			switch (cmd) {
 351              		.loc 1 370 4
 352 0054 FB89     		ldrh	r3, [r7, #14]
 353 0056 082B     		cmp	r3, #8
 354 0058 4FD8     		bhi	.L34
 355 005a 01A2     		adr	r2, .L22
 356 005c 52F823F0 		ldr	pc, [r2, r3, lsl #2]
 357              		.p2align 2
 358              	.L22:
 359 0060 85000000 		.word	.L30+1
 360 0064 97000000 		.word	.L29+1
 361 0068 AD000000 		.word	.L28+1
 362 006c B5000000 		.word	.L27+1
 363 0070 BD000000 		.word	.L26+1
 364 0074 C5000000 		.word	.L25+1
 365 0078 CD000000 		.word	.L24+1
 366 007c D5000000 		.word	.L23+1
 367 0080 DD000000 		.word	.L21+1
 368              		.p2align 1
 369              	.L30:
 371:Middlewares/Third_Party/FatFs/src/option/ccsbcs.c **** 			case 0:	chr = p[chr - bc]; break;		/* Table conversion */
 370              		.loc 1 371 24
 371 0084 FA88     		ldrh	r2, [r7, #6]
 372 0086 7B8A     		ldrh	r3, [r7, #18]
 373 0088 D31A     		subs	r3, r2, r3
ARM GAS  C:\Users\jisu8\AppData\Local\Temp\ccf2YVH5.s 			page 14


 374              		.loc 1 371 19
 375 008a 5B00     		lsls	r3, r3, #1
 376 008c 7A69     		ldr	r2, [r7, #20]
 377 008e 1344     		add	r3, r3, r2
 378              		.loc 1 371 16
 379 0090 1B88     		ldrh	r3, [r3]	@ movhi
 380 0092 FB80     		strh	r3, [r7, #6]	@ movhi
 381              		.loc 1 371 4
 382 0094 27E0     		b	.L20
 383              	.L29:
 372:Middlewares/Third_Party/FatFs/src/option/ccsbcs.c **** 			case 1:	chr -= (chr - bc) & 1; break;	/* Case pairs */
 384              		.loc 1 372 30
 385 0096 FA88     		ldrh	r2, [r7, #6]	@ movhi
 386 0098 7B8A     		ldrh	r3, [r7, #18]	@ movhi
 387 009a D31A     		subs	r3, r2, r3
 388 009c 9BB2     		uxth	r3, r3
 389 009e 03F00103 		and	r3, r3, #1
 390 00a2 9BB2     		uxth	r3, r3
 391              		.loc 1 372 16
 392 00a4 FA88     		ldrh	r2, [r7, #6]	@ movhi
 393 00a6 D31A     		subs	r3, r2, r3
 394 00a8 FB80     		strh	r3, [r7, #6]	@ movhi
 395              		.loc 1 372 4
 396 00aa 1CE0     		b	.L20
 397              	.L28:
 373:Middlewares/Third_Party/FatFs/src/option/ccsbcs.c **** 			case 2: chr -= 16; break;				/* Shift -16 */
 398              		.loc 1 373 16
 399 00ac FB88     		ldrh	r3, [r7, #6]	@ movhi
 400 00ae 103B     		subs	r3, r3, #16
 401 00b0 FB80     		strh	r3, [r7, #6]	@ movhi
 402              		.loc 1 373 4
 403 00b2 18E0     		b	.L20
 404              	.L27:
 374:Middlewares/Third_Party/FatFs/src/option/ccsbcs.c **** 			case 3:	chr -= 32; break;				/* Shift -32 */
 405              		.loc 1 374 16
 406 00b4 FB88     		ldrh	r3, [r7, #6]	@ movhi
 407 00b6 203B     		subs	r3, r3, #32
 408 00b8 FB80     		strh	r3, [r7, #6]	@ movhi
 409              		.loc 1 374 4
 410 00ba 14E0     		b	.L20
 411              	.L26:
 375:Middlewares/Third_Party/FatFs/src/option/ccsbcs.c **** 			case 4:	chr -= 48; break;				/* Shift -48 */
 412              		.loc 1 375 16
 413 00bc FB88     		ldrh	r3, [r7, #6]	@ movhi
 414 00be 303B     		subs	r3, r3, #48
 415 00c0 FB80     		strh	r3, [r7, #6]	@ movhi
 416              		.loc 1 375 4
 417 00c2 10E0     		b	.L20
 418              	.L25:
 376:Middlewares/Third_Party/FatFs/src/option/ccsbcs.c **** 			case 5:	chr -= 26; break;				/* Shift -26 */
 419              		.loc 1 376 16
 420 00c4 FB88     		ldrh	r3, [r7, #6]	@ movhi
 421 00c6 1A3B     		subs	r3, r3, #26
 422 00c8 FB80     		strh	r3, [r7, #6]	@ movhi
 423              		.loc 1 376 4
 424 00ca 0CE0     		b	.L20
 425              	.L24:
ARM GAS  C:\Users\jisu8\AppData\Local\Temp\ccf2YVH5.s 			page 15


 377:Middlewares/Third_Party/FatFs/src/option/ccsbcs.c **** 			case 6:	chr += 8; break;				/* Shift +8 */
 426              		.loc 1 377 16
 427 00cc FB88     		ldrh	r3, [r7, #6]	@ movhi
 428 00ce 0833     		adds	r3, r3, #8
 429 00d0 FB80     		strh	r3, [r7, #6]	@ movhi
 430              		.loc 1 377 4
 431 00d2 08E0     		b	.L20
 432              	.L23:
 378:Middlewares/Third_Party/FatFs/src/option/ccsbcs.c **** 			case 7: chr -= 80; break;				/* Shift -80 */
 433              		.loc 1 378 16
 434 00d4 FB88     		ldrh	r3, [r7, #6]	@ movhi
 435 00d6 503B     		subs	r3, r3, #80
 436 00d8 FB80     		strh	r3, [r7, #6]	@ movhi
 437              		.loc 1 378 4
 438 00da 04E0     		b	.L20
 439              	.L21:
 379:Middlewares/Third_Party/FatFs/src/option/ccsbcs.c **** 			case 8:	chr -= 0x1C60; break;			/* Shift -0x1C60 */
 440              		.loc 1 379 16
 441 00dc FB88     		ldrh	r3, [r7, #6]	@ movhi
 442 00de A3F5E353 		sub	r3, r3, #7264
 443 00e2 FB80     		strh	r3, [r7, #6]	@ movhi
 444              		.loc 1 379 4
 445 00e4 00BF     		nop
 446              	.L20:
 380:Middlewares/Third_Party/FatFs/src/option/ccsbcs.c **** 			}
 381:Middlewares/Third_Party/FatFs/src/option/ccsbcs.c **** 			break;
 447              		.loc 1 381 4
 448 00e6 08E0     		b	.L34
 449              	.L19:
 382:Middlewares/Third_Party/FatFs/src/option/ccsbcs.c **** 		}
 383:Middlewares/Third_Party/FatFs/src/option/ccsbcs.c **** 		if (!cmd) p += nc;
 450              		.loc 1 383 6
 451 00e8 FB89     		ldrh	r3, [r7, #14]
 452 00ea 002B     		cmp	r3, #0
 453 00ec 95D1     		bne	.L32
 454              		.loc 1 383 15 discriminator 1
 455 00ee 3B8A     		ldrh	r3, [r7, #16]
 456 00f0 5B00     		lsls	r3, r3, #1
 457 00f2 7A69     		ldr	r2, [r7, #20]
 458 00f4 1344     		add	r3, r3, r2
 459 00f6 7B61     		str	r3, [r7, #20]
 366:Middlewares/Third_Party/FatFs/src/option/ccsbcs.c **** 		if (!bc || chr < bc) break;
 460              		.loc 1 366 6 discriminator 1
 461 00f8 8FE7     		b	.L32
 462              	.L34:
 381:Middlewares/Third_Party/FatFs/src/option/ccsbcs.c **** 		}
 463              		.loc 1 381 4
 464 00fa 00BF     		nop
 465              	.L18:
 384:Middlewares/Third_Party/FatFs/src/option/ccsbcs.c **** 	}
 385:Middlewares/Third_Party/FatFs/src/option/ccsbcs.c **** 
 386:Middlewares/Third_Party/FatFs/src/option/ccsbcs.c **** 	return chr;
 466              		.loc 1 386 9
 467 00fc FB88     		ldrh	r3, [r7, #6]
 387:Middlewares/Third_Party/FatFs/src/option/ccsbcs.c **** }
 468              		.loc 1 387 1
 469 00fe 1846     		mov	r0, r3
ARM GAS  C:\Users\jisu8\AppData\Local\Temp\ccf2YVH5.s 			page 16


 470 0100 1C37     		adds	r7, r7, #28
 471              	.LCFI9:
 472              		.cfi_def_cfa_offset 4
 473 0102 BD46     		mov	sp, r7
 474              	.LCFI10:
 475              		.cfi_def_cfa_register 13
 476              		@ sp needed
 477 0104 5DF8047B 		ldr	r7, [sp], #4
 478              	.LCFI11:
 479              		.cfi_restore 7
 480              		.cfi_def_cfa_offset 0
 481 0108 7047     		bx	lr
 482              	.L36:
 483 010a 00BF     		.align	2
 484              	.L35:
 485 010c 00000000 		.word	cvt1.1
 486 0110 00000000 		.word	cvt2.0
 487              		.cfi_endproc
 488              	.LFE150:
 490              		.section	.rodata.cvt1.1,"a"
 491              		.align	2
 494              	cvt1.1:
 495 0000 6100     		.short	97
 496 0002 1A03     		.short	794
 497 0004 E000     		.short	224
 498 0006 1703     		.short	791
 499 0008 F800     		.short	248
 500 000a 0703     		.short	775
 501 000c FF00     		.short	255
 502 000e 0100     		.short	1
 503 0010 7801     		.short	376
 504 0012 0001     		.short	256
 505 0014 3001     		.short	304
 506 0016 3201     		.short	306
 507 0018 0601     		.short	262
 508 001a 3901     		.short	313
 509 001c 1001     		.short	272
 510 001e 4A01     		.short	330
 511 0020 2E01     		.short	302
 512 0022 7901     		.short	377
 513 0024 0601     		.short	262
 514 0026 8001     		.short	384
 515 0028 4D00     		.short	77
 516 002a 4302     		.short	579
 517 002c 8101     		.short	385
 518 002e 8201     		.short	386
 519 0030 8201     		.short	386
 520 0032 8401     		.short	388
 521 0034 8401     		.short	388
 522 0036 8601     		.short	390
 523 0038 8701     		.short	391
 524 003a 8701     		.short	391
 525 003c 8901     		.short	393
 526 003e 8A01     		.short	394
 527 0040 8B01     		.short	395
 528 0042 8B01     		.short	395
 529 0044 8D01     		.short	397
ARM GAS  C:\Users\jisu8\AppData\Local\Temp\ccf2YVH5.s 			page 17


 530 0046 8E01     		.short	398
 531 0048 8F01     		.short	399
 532 004a 9001     		.short	400
 533 004c 9101     		.short	401
 534 004e 9101     		.short	401
 535 0050 9301     		.short	403
 536 0052 9401     		.short	404
 537 0054 F601     		.short	502
 538 0056 9601     		.short	406
 539 0058 9701     		.short	407
 540 005a 9801     		.short	408
 541 005c 9801     		.short	408
 542 005e 3D02     		.short	573
 543 0060 9B01     		.short	411
 544 0062 9C01     		.short	412
 545 0064 9D01     		.short	413
 546 0066 2002     		.short	544
 547 0068 9F01     		.short	415
 548 006a A001     		.short	416
 549 006c A001     		.short	416
 550 006e A201     		.short	418
 551 0070 A201     		.short	418
 552 0072 A401     		.short	420
 553 0074 A401     		.short	420
 554 0076 A601     		.short	422
 555 0078 A701     		.short	423
 556 007a A701     		.short	423
 557 007c A901     		.short	425
 558 007e AA01     		.short	426
 559 0080 AB01     		.short	427
 560 0082 AC01     		.short	428
 561 0084 AC01     		.short	428
 562 0086 AE01     		.short	430
 563 0088 AF01     		.short	431
 564 008a AF01     		.short	431
 565 008c B101     		.short	433
 566 008e B201     		.short	434
 567 0090 B301     		.short	435
 568 0092 B301     		.short	435
 569 0094 B501     		.short	437
 570 0096 B501     		.short	437
 571 0098 B701     		.short	439
 572 009a B801     		.short	440
 573 009c B801     		.short	440
 574 009e BA01     		.short	442
 575 00a0 BB01     		.short	443
 576 00a2 BC01     		.short	444
 577 00a4 BC01     		.short	444
 578 00a6 BE01     		.short	446
 579 00a8 F701     		.short	503
 580 00aa C001     		.short	448
 581 00ac C101     		.short	449
 582 00ae C201     		.short	450
 583 00b0 C301     		.short	451
 584 00b2 C401     		.short	452
 585 00b4 C501     		.short	453
 586 00b6 C401     		.short	452
ARM GAS  C:\Users\jisu8\AppData\Local\Temp\ccf2YVH5.s 			page 18


 587 00b8 C701     		.short	455
 588 00ba C801     		.short	456
 589 00bc C701     		.short	455
 590 00be CA01     		.short	458
 591 00c0 CB01     		.short	459
 592 00c2 CA01     		.short	458
 593 00c4 CD01     		.short	461
 594 00c6 1001     		.short	272
 595 00c8 DD01     		.short	477
 596 00ca 0100     		.short	1
 597 00cc 8E01     		.short	398
 598 00ce DE01     		.short	478
 599 00d0 1201     		.short	274
 600 00d2 F301     		.short	499
 601 00d4 0300     		.short	3
 602 00d6 F101     		.short	497
 603 00d8 F401     		.short	500
 604 00da F401     		.short	500
 605 00dc F801     		.short	504
 606 00de 2801     		.short	296
 607 00e0 2202     		.short	546
 608 00e2 1201     		.short	274
 609 00e4 3A02     		.short	570
 610 00e6 0900     		.short	9
 611 00e8 652C     		.short	11365
 612 00ea 3B02     		.short	571
 613 00ec 3B02     		.short	571
 614 00ee 3D02     		.short	573
 615 00f0 662C     		.short	11366
 616 00f2 3F02     		.short	575
 617 00f4 4002     		.short	576
 618 00f6 4102     		.short	577
 619 00f8 4102     		.short	577
 620 00fa 4602     		.short	582
 621 00fc 0A01     		.short	266
 622 00fe 5302     		.short	595
 623 0100 4000     		.short	64
 624 0102 8101     		.short	385
 625 0104 8601     		.short	390
 626 0106 5502     		.short	597
 627 0108 8901     		.short	393
 628 010a 8A01     		.short	394
 629 010c 5802     		.short	600
 630 010e 8F01     		.short	399
 631 0110 5A02     		.short	602
 632 0112 9001     		.short	400
 633 0114 5C02     		.short	604
 634 0116 5D02     		.short	605
 635 0118 5E02     		.short	606
 636 011a 5F02     		.short	607
 637 011c 9301     		.short	403
 638 011e 6102     		.short	609
 639 0120 6202     		.short	610
 640 0122 9401     		.short	404
 641 0124 6402     		.short	612
 642 0126 6502     		.short	613
 643 0128 6602     		.short	614
ARM GAS  C:\Users\jisu8\AppData\Local\Temp\ccf2YVH5.s 			page 19


 644 012a 6702     		.short	615
 645 012c 9701     		.short	407
 646 012e 9601     		.short	406
 647 0130 6A02     		.short	618
 648 0132 622C     		.short	11362
 649 0134 6C02     		.short	620
 650 0136 6D02     		.short	621
 651 0138 6E02     		.short	622
 652 013a 9C01     		.short	412
 653 013c 7002     		.short	624
 654 013e 7102     		.short	625
 655 0140 9D01     		.short	413
 656 0142 7302     		.short	627
 657 0144 7402     		.short	628
 658 0146 9F01     		.short	415
 659 0148 7602     		.short	630
 660 014a 7702     		.short	631
 661 014c 7802     		.short	632
 662 014e 7902     		.short	633
 663 0150 7A02     		.short	634
 664 0152 7B02     		.short	635
 665 0154 7C02     		.short	636
 666 0156 642C     		.short	11364
 667 0158 7E02     		.short	638
 668 015a 7F02     		.short	639
 669 015c A601     		.short	422
 670 015e 8102     		.short	641
 671 0160 8202     		.short	642
 672 0162 A901     		.short	425
 673 0164 8402     		.short	644
 674 0166 8502     		.short	645
 675 0168 8602     		.short	646
 676 016a 8702     		.short	647
 677 016c AE01     		.short	430
 678 016e 4402     		.short	580
 679 0170 B101     		.short	433
 680 0172 B201     		.short	434
 681 0174 4502     		.short	581
 682 0176 8D02     		.short	653
 683 0178 8E02     		.short	654
 684 017a 8F02     		.short	655
 685 017c 9002     		.short	656
 686 017e 9102     		.short	657
 687 0180 B701     		.short	439
 688 0182 7B03     		.short	891
 689 0184 0300     		.short	3
 690 0186 FD03     		.short	1021
 691 0188 FE03     		.short	1022
 692 018a FF03     		.short	1023
 693 018c AC03     		.short	940
 694 018e 0400     		.short	4
 695 0190 8603     		.short	902
 696 0192 8803     		.short	904
 697 0194 8903     		.short	905
 698 0196 8A03     		.short	906
 699 0198 B103     		.short	945
 700 019a 1103     		.short	785
ARM GAS  C:\Users\jisu8\AppData\Local\Temp\ccf2YVH5.s 			page 20


 701 019c C203     		.short	962
 702 019e 0200     		.short	2
 703 01a0 A303     		.short	931
 704 01a2 A303     		.short	931
 705 01a4 C403     		.short	964
 706 01a6 0803     		.short	776
 707 01a8 CC03     		.short	972
 708 01aa 0300     		.short	3
 709 01ac 8C03     		.short	908
 710 01ae 8E03     		.short	910
 711 01b0 8F03     		.short	911
 712 01b2 D803     		.short	984
 713 01b4 1801     		.short	280
 714 01b6 F203     		.short	1010
 715 01b8 0A00     		.short	10
 716 01ba F903     		.short	1017
 717 01bc F303     		.short	1011
 718 01be F403     		.short	1012
 719 01c0 F503     		.short	1013
 720 01c2 F603     		.short	1014
 721 01c4 F703     		.short	1015
 722 01c6 F703     		.short	1015
 723 01c8 F903     		.short	1017
 724 01ca FA03     		.short	1018
 725 01cc FA03     		.short	1018
 726 01ce 3004     		.short	1072
 727 01d0 2003     		.short	800
 728 01d2 5004     		.short	1104
 729 01d4 1007     		.short	1808
 730 01d6 6004     		.short	1120
 731 01d8 2201     		.short	290
 732 01da 8A04     		.short	1162
 733 01dc 3601     		.short	310
 734 01de C104     		.short	1217
 735 01e0 0E01     		.short	270
 736 01e2 CF04     		.short	1231
 737 01e4 0100     		.short	1
 738 01e6 C004     		.short	1216
 739 01e8 D004     		.short	1232
 740 01ea 4401     		.short	324
 741 01ec 6105     		.short	1377
 742 01ee 2604     		.short	1062
 743 01f0 0000     		.short	0
 744              		.section	.rodata.cvt2.0,"a"
 745              		.align	2
 748              	cvt2.0:
 749 0000 7D1D     		.short	7549
 750 0002 0100     		.short	1
 751 0004 632C     		.short	11363
 752 0006 001E     		.short	7680
 753 0008 9601     		.short	406
 754 000a A01E     		.short	7840
 755 000c 5A01     		.short	346
 756 000e 001F     		.short	7936
 757 0010 0806     		.short	1544
 758 0012 101F     		.short	7952
 759 0014 0606     		.short	1542
ARM GAS  C:\Users\jisu8\AppData\Local\Temp\ccf2YVH5.s 			page 21


 760 0016 201F     		.short	7968
 761 0018 0806     		.short	1544
 762 001a 301F     		.short	7984
 763 001c 0806     		.short	1544
 764 001e 401F     		.short	8000
 765 0020 0606     		.short	1542
 766 0022 511F     		.short	8017
 767 0024 0700     		.short	7
 768 0026 591F     		.short	8025
 769 0028 521F     		.short	8018
 770 002a 5B1F     		.short	8027
 771 002c 541F     		.short	8020
 772 002e 5D1F     		.short	8029
 773 0030 561F     		.short	8022
 774 0032 5F1F     		.short	8031
 775 0034 601F     		.short	8032
 776 0036 0806     		.short	1544
 777 0038 701F     		.short	8048
 778 003a 0E00     		.short	14
 779 003c BA1F     		.short	8122
 780 003e BB1F     		.short	8123
 781 0040 C81F     		.short	8136
 782 0042 C91F     		.short	8137
 783 0044 CA1F     		.short	8138
 784 0046 CB1F     		.short	8139
 785 0048 DA1F     		.short	8154
 786 004a DB1F     		.short	8155
 787 004c F81F     		.short	8184
 788 004e F91F     		.short	8185
 789 0050 EA1F     		.short	8170
 790 0052 EB1F     		.short	8171
 791 0054 FA1F     		.short	8186
 792 0056 FB1F     		.short	8187
 793 0058 801F     		.short	8064
 794 005a 0806     		.short	1544
 795 005c 901F     		.short	8080
 796 005e 0806     		.short	1544
 797 0060 A01F     		.short	8096
 798 0062 0806     		.short	1544
 799 0064 B01F     		.short	8112
 800 0066 0400     		.short	4
 801 0068 B81F     		.short	8120
 802 006a B91F     		.short	8121
 803 006c B21F     		.short	8114
 804 006e BC1F     		.short	8124
 805 0070 CC1F     		.short	8140
 806 0072 0100     		.short	1
 807 0074 C31F     		.short	8131
 808 0076 D01F     		.short	8144
 809 0078 0206     		.short	1538
 810 007a E01F     		.short	8160
 811 007c 0206     		.short	1538
 812 007e E51F     		.short	8165
 813 0080 0100     		.short	1
 814 0082 EC1F     		.short	8172
 815 0084 F21F     		.short	8178
 816 0086 0100     		.short	1
ARM GAS  C:\Users\jisu8\AppData\Local\Temp\ccf2YVH5.s 			page 22


 817 0088 FC1F     		.short	8188
 818 008a 4E21     		.short	8526
 819 008c 0100     		.short	1
 820 008e 3221     		.short	8498
 821 0090 7021     		.short	8560
 822 0092 1002     		.short	528
 823 0094 8421     		.short	8580
 824 0096 0100     		.short	1
 825 0098 8321     		.short	8579
 826 009a D024     		.short	9424
 827 009c 1A05     		.short	1306
 828 009e 302C     		.short	11312
 829 00a0 2F04     		.short	1071
 830 00a2 602C     		.short	11360
 831 00a4 0201     		.short	258
 832 00a6 672C     		.short	11367
 833 00a8 0601     		.short	262
 834 00aa 752C     		.short	11381
 835 00ac 0201     		.short	258
 836 00ae 802C     		.short	11392
 837 00b0 6401     		.short	356
 838 00b2 002D     		.short	11520
 839 00b4 2608     		.short	2086
 840 00b6 41FF     		.short	-191
 841 00b8 1A03     		.short	794
 842 00ba 0000     		.short	0
 843              		.text
 844              	.Letext0:
 845              		.file 2 "Middlewares/Third_Party/FatFs/src/option/../integer.h"
ARM GAS  C:\Users\jisu8\AppData\Local\Temp\ccf2YVH5.s 			page 23

