ARM GAS  C:\Users\jisu8\AppData\Local\Temp\ccJ4hZYA.s 			page 1


   1              		.cpu cortex-m7
   2              		.arch armv7e-m
   3              		.fpu fpv5-sp-d16
   4              		.eabi_attribute 27, 1
   5              		.eabi_attribute 28, 1
   6              		.eabi_attribute 20, 1
   7              		.eabi_attribute 21, 1
   8              		.eabi_attribute 23, 3
   9              		.eabi_attribute 24, 1
  10              		.eabi_attribute 25, 1
  11              		.eabi_attribute 26, 1
  12              		.eabi_attribute 30, 6
  13              		.eabi_attribute 34, 1
  14              		.eabi_attribute 18, 4
  15              		.file	"fatfs.c"
  16              		.text
  17              	.Ltext0:
  18              		.cfi_sections	.debug_frame
  19              		.global	retSD
  20              		.section	.bss.retSD,"aw",%nobits
  23              	retSD:
  24 0000 00       		.space	1
  25              		.global	SDFatFS
  26              		.section	.bss.SDFatFS,"aw",%nobits
  27              		.align	2
  30              	SDFatFS:
  31 0000 00000000 		.space	572
  31      00000000 
  31      00000000 
  31      00000000 
  31      00000000 
  32              		.global	SDFile
  33              		.section	.bss.SDFile,"aw",%nobits
  34              		.align	3
  37              	SDFile:
  38 0000 00000000 		.space	600
  38      00000000 
  38      00000000 
  38      00000000 
  38      00000000 
  39              		.section	.text.MX_FATFS_Init,"ax",%progbits
  40              		.align	1
  41              		.global	MX_FATFS_Init
  42              		.syntax unified
  43              		.thumb
  44              		.thumb_func
  46              	MX_FATFS_Init:
  47              	.LFB149:
  48              		.file 1 "FATFS/App/fatfs.c"
   1:FATFS/App/fatfs.c **** /* USER CODE BEGIN Header */
   2:FATFS/App/fatfs.c **** /**
   3:FATFS/App/fatfs.c ****   ******************************************************************************
   4:FATFS/App/fatfs.c ****   * @file   fatfs.c
   5:FATFS/App/fatfs.c ****   * @brief  Code for fatfs applications
   6:FATFS/App/fatfs.c ****   ******************************************************************************
   7:FATFS/App/fatfs.c ****   * @attention
   8:FATFS/App/fatfs.c ****   *
ARM GAS  C:\Users\jisu8\AppData\Local\Temp\ccJ4hZYA.s 			page 2


   9:FATFS/App/fatfs.c ****   * Copyright (c) 2023 STMicroelectronics.
  10:FATFS/App/fatfs.c ****   * All rights reserved.
  11:FATFS/App/fatfs.c ****   *
  12:FATFS/App/fatfs.c ****   * This software is licensed under terms that can be found in the LICENSE file
  13:FATFS/App/fatfs.c ****   * in the root directory of this software component.
  14:FATFS/App/fatfs.c ****   * If no LICENSE file comes with this software, it is provided AS-IS.
  15:FATFS/App/fatfs.c ****   *
  16:FATFS/App/fatfs.c ****   ******************************************************************************
  17:FATFS/App/fatfs.c ****   */
  18:FATFS/App/fatfs.c **** /* USER CODE END Header */
  19:FATFS/App/fatfs.c **** #include "fatfs.h"
  20:FATFS/App/fatfs.c **** 
  21:FATFS/App/fatfs.c **** uint8_t retSD;    /* Return value for SD */
  22:FATFS/App/fatfs.c **** extern char SDPath[4];   /* SD logical drive path */
  23:FATFS/App/fatfs.c **** FATFS SDFatFS;    /* File system object for SD logical drive */
  24:FATFS/App/fatfs.c **** FIL SDFile;       /* File object for SD */
  25:FATFS/App/fatfs.c **** 
  26:FATFS/App/fatfs.c **** /* USER CODE BEGIN Variables */
  27:FATFS/App/fatfs.c **** 
  28:FATFS/App/fatfs.c **** /* USER CODE END Variables */
  29:FATFS/App/fatfs.c **** 
  30:FATFS/App/fatfs.c **** void MX_FATFS_Init(void)
  31:FATFS/App/fatfs.c **** {
  49              		.loc 1 31 1
  50              		.cfi_startproc
  51              		@ args = 0, pretend = 0, frame = 0
  52              		@ frame_needed = 1, uses_anonymous_args = 0
  53 0000 80B5     		push	{r7, lr}
  54              	.LCFI0:
  55              		.cfi_def_cfa_offset 8
  56              		.cfi_offset 7, -8
  57              		.cfi_offset 14, -4
  58 0002 00AF     		add	r7, sp, #0
  59              	.LCFI1:
  60              		.cfi_def_cfa_register 7
  32:FATFS/App/fatfs.c ****   /*## FatFS: Link the SD driver ###########################*/
  33:FATFS/App/fatfs.c ****   retSD = FATFS_LinkDriver(&SD_Driver, SDPath);
  61              		.loc 1 33 11
  62 0004 0449     		ldr	r1, .L2
  63 0006 0548     		ldr	r0, .L2+4
  64 0008 FFF7FEFF 		bl	FATFS_LinkDriver
  65 000c 0346     		mov	r3, r0
  66 000e 1A46     		mov	r2, r3
  67              		.loc 1 33 9
  68 0010 034B     		ldr	r3, .L2+8
  69 0012 1A70     		strb	r2, [r3]
  34:FATFS/App/fatfs.c **** 
  35:FATFS/App/fatfs.c ****   /* USER CODE BEGIN Init */
  36:FATFS/App/fatfs.c ****   /* additional user code for init */
  37:FATFS/App/fatfs.c ****   /* USER CODE END Init */
  38:FATFS/App/fatfs.c **** }
  70              		.loc 1 38 1
  71 0014 00BF     		nop
  72 0016 80BD     		pop	{r7, pc}
  73              	.L3:
  74              		.align	2
  75              	.L2:
ARM GAS  C:\Users\jisu8\AppData\Local\Temp\ccJ4hZYA.s 			page 3


  76 0018 00000000 		.word	SDPath
  77 001c 00000000 		.word	SD_Driver
  78 0020 00000000 		.word	retSD
  79              		.cfi_endproc
  80              	.LFE149:
  82              		.section	.text.get_fattime,"ax",%progbits
  83              		.align	1
  84              		.global	get_fattime
  85              		.syntax unified
  86              		.thumb
  87              		.thumb_func
  89              	get_fattime:
  90              	.LFB150:
  39:FATFS/App/fatfs.c **** 
  40:FATFS/App/fatfs.c **** /**
  41:FATFS/App/fatfs.c ****   * @brief  Gets Time from RTC
  42:FATFS/App/fatfs.c ****   * @param  None
  43:FATFS/App/fatfs.c ****   * @retval Time in DWORD
  44:FATFS/App/fatfs.c ****   */
  45:FATFS/App/fatfs.c **** DWORD get_fattime(void)
  46:FATFS/App/fatfs.c **** {
  91              		.loc 1 46 1
  92              		.cfi_startproc
  93              		@ args = 0, pretend = 0, frame = 0
  94              		@ frame_needed = 1, uses_anonymous_args = 0
  95              		@ link register save eliminated.
  96 0000 80B4     		push	{r7}
  97              	.LCFI2:
  98              		.cfi_def_cfa_offset 4
  99              		.cfi_offset 7, -4
 100 0002 00AF     		add	r7, sp, #0
 101              	.LCFI3:
 102              		.cfi_def_cfa_register 7
  47:FATFS/App/fatfs.c ****   /* USER CODE BEGIN get_fattime */
  48:FATFS/App/fatfs.c ****   return 0;
 103              		.loc 1 48 10
 104 0004 0023     		movs	r3, #0
  49:FATFS/App/fatfs.c ****   /* USER CODE END get_fattime */
  50:FATFS/App/fatfs.c **** }
 105              		.loc 1 50 1
 106 0006 1846     		mov	r0, r3
 107 0008 BD46     		mov	sp, r7
 108              	.LCFI4:
 109              		.cfi_def_cfa_register 13
 110              		@ sp needed
 111 000a 5DF8047B 		ldr	r7, [sp], #4
 112              	.LCFI5:
 113              		.cfi_restore 7
 114              		.cfi_def_cfa_offset 0
 115 000e 7047     		bx	lr
 116              		.cfi_endproc
 117              	.LFE150:
 119              		.text
 120              	.Letext0:
 121              		.file 2 "Middlewares/Third_Party/FatFs/src/integer.h"
 122              		.file 3 "d:\\3.tools\\arm_gcc_toolchain\\arm-none-eabi\\include\\machine\\_default_types.h"
 123              		.file 4 "d:\\3.tools\\arm_gcc_toolchain\\arm-none-eabi\\include\\sys\\_stdint.h"
ARM GAS  C:\Users\jisu8\AppData\Local\Temp\ccJ4hZYA.s 			page 4


 124              		.file 5 "Middlewares/Third_Party/FreeRTOS/Source/include/queue.h"
 125              		.file 6 "Middlewares/Third_Party/FreeRTOS/Source/include/semphr.h"
 126              		.file 7 "Middlewares/Third_Party/FreeRTOS/Source/CMSIS_RTOS/cmsis_os.h"
 127              		.file 8 "Middlewares/Third_Party/FatFs/src/ff.h"
 128              		.file 9 "Middlewares/Third_Party/FatFs/src/diskio.h"
 129              		.file 10 "Middlewares/Third_Party/FatFs/src/ff_gen_drv.h"
 130              		.file 11 "FATFS/Target/sd_diskio.h"
 131              		.file 12 "FATFS/App/fatfs.h"
ARM GAS  C:\Users\jisu8\AppData\Local\Temp\ccJ4hZYA.s 			page 5

