ARM GAS  C:\Users\jisu8\AppData\Local\Temp\ccsx1gbp.s 			page 1


   1              		.cpu cortex-m7
   2              		.arch armv7e-m
   3              		.fpu fpv5-sp-d16
   4              		.eabi_attribute 27, 1
   5              		.eabi_attribute 28, 1
   6              		.eabi_attribute 20, 1
   7              		.eabi_attribute 21, 1
   8              		.eabi_attribute 23, 3
   9              		.eabi_attribute 24, 1
  10              		.eabi_attribute 25, 1
  11              		.eabi_attribute 26, 1
  12              		.eabi_attribute 30, 6
  13              		.eabi_attribute 34, 1
  14              		.eabi_attribute 18, 4
  15              		.file	"ff_gen_drv.c"
  16              		.text
  17              	.Ltext0:
  18              		.cfi_sections	.debug_frame
  19              		.global	disk
  20              		.section	.bss.disk,"aw",%nobits
  21              		.align	2
  24              	disk:
  25 0000 00000000 		.space	12
  25      00000000 
  25      00000000 
  26              		.section	.text.FATFS_LinkDriverEx,"ax",%progbits
  27              		.align	1
  28              		.global	FATFS_LinkDriverEx
  29              		.syntax unified
  30              		.thumb
  31              		.thumb_func
  33              	FATFS_LinkDriverEx:
  34              	.LFB146:
  35              		.file 1 "Middlewares/Third_Party/FatFs/src/ff_gen_drv.c"
   1:Middlewares/Third_Party/FatFs/src/ff_gen_drv.c **** /**
   2:Middlewares/Third_Party/FatFs/src/ff_gen_drv.c ****   ******************************************************************************
   3:Middlewares/Third_Party/FatFs/src/ff_gen_drv.c ****   * @file    ff_gen_drv.c
   4:Middlewares/Third_Party/FatFs/src/ff_gen_drv.c ****   * @author  MCD Application Team
   5:Middlewares/Third_Party/FatFs/src/ff_gen_drv.c ****   * @brief   FatFs generic low level driver.
   6:Middlewares/Third_Party/FatFs/src/ff_gen_drv.c ****   *****************************************************************************
   7:Middlewares/Third_Party/FatFs/src/ff_gen_drv.c ****   * @attention
   8:Middlewares/Third_Party/FatFs/src/ff_gen_drv.c ****   *
   9:Middlewares/Third_Party/FatFs/src/ff_gen_drv.c ****   * Copyright (c) 2017 STMicroelectronics. All rights reserved.
  10:Middlewares/Third_Party/FatFs/src/ff_gen_drv.c ****   *
  11:Middlewares/Third_Party/FatFs/src/ff_gen_drv.c ****   * This software component is licensed by ST under BSD 3-Clause license,
  12:Middlewares/Third_Party/FatFs/src/ff_gen_drv.c ****   * the "License"; You may not use this file except in compliance with the
  13:Middlewares/Third_Party/FatFs/src/ff_gen_drv.c ****   * License. You may obtain a copy of the License at:
  14:Middlewares/Third_Party/FatFs/src/ff_gen_drv.c ****   *                       opensource.org/licenses/BSD-3-Clause
  15:Middlewares/Third_Party/FatFs/src/ff_gen_drv.c ****   *
  16:Middlewares/Third_Party/FatFs/src/ff_gen_drv.c ****   ******************************************************************************
  17:Middlewares/Third_Party/FatFs/src/ff_gen_drv.c **** **/
  18:Middlewares/Third_Party/FatFs/src/ff_gen_drv.c **** /* Includes ------------------------------------------------------------------*/
  19:Middlewares/Third_Party/FatFs/src/ff_gen_drv.c **** #include "ff_gen_drv.h"
  20:Middlewares/Third_Party/FatFs/src/ff_gen_drv.c **** 
  21:Middlewares/Third_Party/FatFs/src/ff_gen_drv.c **** /* Private typedef -----------------------------------------------------------*/
  22:Middlewares/Third_Party/FatFs/src/ff_gen_drv.c **** /* Private define ------------------------------------------------------------*/
  23:Middlewares/Third_Party/FatFs/src/ff_gen_drv.c **** /* Private variables ---------------------------------------------------------*/
ARM GAS  C:\Users\jisu8\AppData\Local\Temp\ccsx1gbp.s 			page 2


  24:Middlewares/Third_Party/FatFs/src/ff_gen_drv.c **** Disk_drvTypeDef disk = {{0},{0},{0},0};
  25:Middlewares/Third_Party/FatFs/src/ff_gen_drv.c **** 
  26:Middlewares/Third_Party/FatFs/src/ff_gen_drv.c **** /* Private function prototypes -----------------------------------------------*/
  27:Middlewares/Third_Party/FatFs/src/ff_gen_drv.c **** /* Private functions ---------------------------------------------------------*/
  28:Middlewares/Third_Party/FatFs/src/ff_gen_drv.c **** 
  29:Middlewares/Third_Party/FatFs/src/ff_gen_drv.c **** /**
  30:Middlewares/Third_Party/FatFs/src/ff_gen_drv.c ****   * @brief  Links a compatible diskio driver/lun id and increments the number of active
  31:Middlewares/Third_Party/FatFs/src/ff_gen_drv.c ****   *         linked drivers.
  32:Middlewares/Third_Party/FatFs/src/ff_gen_drv.c ****   * @note   The number of linked drivers (volumes) is up to 10 due to FatFs limits.
  33:Middlewares/Third_Party/FatFs/src/ff_gen_drv.c ****   * @param  drv: pointer to the disk IO Driver structure
  34:Middlewares/Third_Party/FatFs/src/ff_gen_drv.c ****   * @param  path: pointer to the logical drive path
  35:Middlewares/Third_Party/FatFs/src/ff_gen_drv.c ****   * @param  lun : only used for USB Key Disk to add multi-lun management
  36:Middlewares/Third_Party/FatFs/src/ff_gen_drv.c ****             else the parameter must be equal to 0
  37:Middlewares/Third_Party/FatFs/src/ff_gen_drv.c ****   * @retval Returns 0 in case of success, otherwise 1.
  38:Middlewares/Third_Party/FatFs/src/ff_gen_drv.c ****   */
  39:Middlewares/Third_Party/FatFs/src/ff_gen_drv.c **** uint8_t FATFS_LinkDriverEx(const Diskio_drvTypeDef *drv, char *path, uint8_t lun)
  40:Middlewares/Third_Party/FatFs/src/ff_gen_drv.c **** {
  36              		.loc 1 40 1
  37              		.cfi_startproc
  38              		@ args = 0, pretend = 0, frame = 24
  39              		@ frame_needed = 1, uses_anonymous_args = 0
  40              		@ link register save eliminated.
  41 0000 80B4     		push	{r7}
  42              	.LCFI0:
  43              		.cfi_def_cfa_offset 4
  44              		.cfi_offset 7, -4
  45 0002 87B0     		sub	sp, sp, #28
  46              	.LCFI1:
  47              		.cfi_def_cfa_offset 32
  48 0004 00AF     		add	r7, sp, #0
  49              	.LCFI2:
  50              		.cfi_def_cfa_register 7
  51 0006 F860     		str	r0, [r7, #12]
  52 0008 B960     		str	r1, [r7, #8]
  53 000a 1346     		mov	r3, r2
  54 000c FB71     		strb	r3, [r7, #7]
  41:Middlewares/Third_Party/FatFs/src/ff_gen_drv.c ****   uint8_t ret = 1;
  55              		.loc 1 41 11
  56 000e 0123     		movs	r3, #1
  57 0010 FB75     		strb	r3, [r7, #23]
  42:Middlewares/Third_Party/FatFs/src/ff_gen_drv.c ****   uint8_t DiskNum = 0;
  58              		.loc 1 42 11
  59 0012 0023     		movs	r3, #0
  60 0014 BB75     		strb	r3, [r7, #22]
  43:Middlewares/Third_Party/FatFs/src/ff_gen_drv.c **** 
  44:Middlewares/Third_Party/FatFs/src/ff_gen_drv.c ****   if(disk.nbr < _VOLUMES)
  61              		.loc 1 44 10
  62 0016 1F4B     		ldr	r3, .L4
  63 0018 5B7A     		ldrb	r3, [r3, #9]
  64 001a DBB2     		uxtb	r3, r3
  65              		.loc 1 44 5
  66 001c 002B     		cmp	r3, #0
  67 001e 31D1     		bne	.L2
  45:Middlewares/Third_Party/FatFs/src/ff_gen_drv.c ****   {
  46:Middlewares/Third_Party/FatFs/src/ff_gen_drv.c ****     disk.is_initialized[disk.nbr] = 0;
  68              		.loc 1 46 29
  69 0020 1C4B     		ldr	r3, .L4
ARM GAS  C:\Users\jisu8\AppData\Local\Temp\ccsx1gbp.s 			page 3


  70 0022 5B7A     		ldrb	r3, [r3, #9]
  71 0024 DBB2     		uxtb	r3, r3
  72 0026 1A46     		mov	r2, r3
  73              		.loc 1 46 35
  74 0028 1A4B     		ldr	r3, .L4
  75 002a 0021     		movs	r1, #0
  76 002c 9954     		strb	r1, [r3, r2]
  47:Middlewares/Third_Party/FatFs/src/ff_gen_drv.c ****     disk.drv[disk.nbr] = drv;
  77              		.loc 1 47 18
  78 002e 194B     		ldr	r3, .L4
  79 0030 5B7A     		ldrb	r3, [r3, #9]
  80 0032 DBB2     		uxtb	r3, r3
  81              		.loc 1 47 24
  82 0034 174A     		ldr	r2, .L4
  83 0036 9B00     		lsls	r3, r3, #2
  84 0038 1344     		add	r3, r3, r2
  85 003a FA68     		ldr	r2, [r7, #12]
  86 003c 5A60     		str	r2, [r3, #4]
  48:Middlewares/Third_Party/FatFs/src/ff_gen_drv.c ****     disk.lun[disk.nbr] = lun;
  87              		.loc 1 48 18
  88 003e 154B     		ldr	r3, .L4
  89 0040 5B7A     		ldrb	r3, [r3, #9]
  90 0042 DBB2     		uxtb	r3, r3
  91 0044 1A46     		mov	r2, r3
  92              		.loc 1 48 24
  93 0046 134B     		ldr	r3, .L4
  94 0048 1344     		add	r3, r3, r2
  95 004a FA79     		ldrb	r2, [r7, #7]
  96 004c 1A72     		strb	r2, [r3, #8]
  49:Middlewares/Third_Party/FatFs/src/ff_gen_drv.c ****     DiskNum = disk.nbr++;
  97              		.loc 1 49 19
  98 004e 114B     		ldr	r3, .L4
  99 0050 5B7A     		ldrb	r3, [r3, #9]
 100 0052 DBB2     		uxtb	r3, r3
 101              		.loc 1 49 23
 102 0054 5A1C     		adds	r2, r3, #1
 103 0056 D1B2     		uxtb	r1, r2
 104 0058 0E4A     		ldr	r2, .L4
 105 005a 5172     		strb	r1, [r2, #9]
 106              		.loc 1 49 13
 107 005c BB75     		strb	r3, [r7, #22]
  50:Middlewares/Third_Party/FatFs/src/ff_gen_drv.c ****     path[0] = DiskNum + '0';
 108              		.loc 1 50 23
 109 005e BB7D     		ldrb	r3, [r7, #22]
 110 0060 3033     		adds	r3, r3, #48
 111 0062 DAB2     		uxtb	r2, r3
 112              		.loc 1 50 13
 113 0064 BB68     		ldr	r3, [r7, #8]
 114 0066 1A70     		strb	r2, [r3]
  51:Middlewares/Third_Party/FatFs/src/ff_gen_drv.c ****     path[1] = ':';
 115              		.loc 1 51 9
 116 0068 BB68     		ldr	r3, [r7, #8]
 117 006a 0133     		adds	r3, r3, #1
 118              		.loc 1 51 13
 119 006c 3A22     		movs	r2, #58
 120 006e 1A70     		strb	r2, [r3]
  52:Middlewares/Third_Party/FatFs/src/ff_gen_drv.c ****     path[2] = '/';
ARM GAS  C:\Users\jisu8\AppData\Local\Temp\ccsx1gbp.s 			page 4


 121              		.loc 1 52 9
 122 0070 BB68     		ldr	r3, [r7, #8]
 123 0072 0233     		adds	r3, r3, #2
 124              		.loc 1 52 13
 125 0074 2F22     		movs	r2, #47
 126 0076 1A70     		strb	r2, [r3]
  53:Middlewares/Third_Party/FatFs/src/ff_gen_drv.c ****     path[3] = 0;
 127              		.loc 1 53 9
 128 0078 BB68     		ldr	r3, [r7, #8]
 129 007a 0333     		adds	r3, r3, #3
 130              		.loc 1 53 13
 131 007c 0022     		movs	r2, #0
 132 007e 1A70     		strb	r2, [r3]
  54:Middlewares/Third_Party/FatFs/src/ff_gen_drv.c ****     ret = 0;
 133              		.loc 1 54 9
 134 0080 0023     		movs	r3, #0
 135 0082 FB75     		strb	r3, [r7, #23]
 136              	.L2:
  55:Middlewares/Third_Party/FatFs/src/ff_gen_drv.c ****   }
  56:Middlewares/Third_Party/FatFs/src/ff_gen_drv.c **** 
  57:Middlewares/Third_Party/FatFs/src/ff_gen_drv.c ****   return ret;
 137              		.loc 1 57 10
 138 0084 FB7D     		ldrb	r3, [r7, #23]	@ zero_extendqisi2
  58:Middlewares/Third_Party/FatFs/src/ff_gen_drv.c **** }
 139              		.loc 1 58 1
 140 0086 1846     		mov	r0, r3
 141 0088 1C37     		adds	r7, r7, #28
 142              	.LCFI3:
 143              		.cfi_def_cfa_offset 4
 144 008a BD46     		mov	sp, r7
 145              	.LCFI4:
 146              		.cfi_def_cfa_register 13
 147              		@ sp needed
 148 008c 5DF8047B 		ldr	r7, [sp], #4
 149              	.LCFI5:
 150              		.cfi_restore 7
 151              		.cfi_def_cfa_offset 0
 152 0090 7047     		bx	lr
 153              	.L5:
 154 0092 00BF     		.align	2
 155              	.L4:
 156 0094 00000000 		.word	disk
 157              		.cfi_endproc
 158              	.LFE146:
 160              		.section	.text.FATFS_LinkDriver,"ax",%progbits
 161              		.align	1
 162              		.global	FATFS_LinkDriver
 163              		.syntax unified
 164              		.thumb
 165              		.thumb_func
 167              	FATFS_LinkDriver:
 168              	.LFB147:
  59:Middlewares/Third_Party/FatFs/src/ff_gen_drv.c **** 
  60:Middlewares/Third_Party/FatFs/src/ff_gen_drv.c **** /**
  61:Middlewares/Third_Party/FatFs/src/ff_gen_drv.c ****   * @brief  Links a compatible diskio driver and increments the number of active
  62:Middlewares/Third_Party/FatFs/src/ff_gen_drv.c ****   *         linked drivers.
  63:Middlewares/Third_Party/FatFs/src/ff_gen_drv.c ****   * @note   The number of linked drivers (volumes) is up to 10 due to FatFs limits
ARM GAS  C:\Users\jisu8\AppData\Local\Temp\ccsx1gbp.s 			page 5


  64:Middlewares/Third_Party/FatFs/src/ff_gen_drv.c ****   * @param  drv: pointer to the disk IO Driver structure
  65:Middlewares/Third_Party/FatFs/src/ff_gen_drv.c ****   * @param  path: pointer to the logical drive path
  66:Middlewares/Third_Party/FatFs/src/ff_gen_drv.c ****   * @retval Returns 0 in case of success, otherwise 1.
  67:Middlewares/Third_Party/FatFs/src/ff_gen_drv.c ****   */
  68:Middlewares/Third_Party/FatFs/src/ff_gen_drv.c **** uint8_t FATFS_LinkDriver(const Diskio_drvTypeDef *drv, char *path)
  69:Middlewares/Third_Party/FatFs/src/ff_gen_drv.c **** {
 169              		.loc 1 69 1
 170              		.cfi_startproc
 171              		@ args = 0, pretend = 0, frame = 8
 172              		@ frame_needed = 1, uses_anonymous_args = 0
 173 0000 80B5     		push	{r7, lr}
 174              	.LCFI6:
 175              		.cfi_def_cfa_offset 8
 176              		.cfi_offset 7, -8
 177              		.cfi_offset 14, -4
 178 0002 82B0     		sub	sp, sp, #8
 179              	.LCFI7:
 180              		.cfi_def_cfa_offset 16
 181 0004 00AF     		add	r7, sp, #0
 182              	.LCFI8:
 183              		.cfi_def_cfa_register 7
 184 0006 7860     		str	r0, [r7, #4]
 185 0008 3960     		str	r1, [r7]
  70:Middlewares/Third_Party/FatFs/src/ff_gen_drv.c ****   return FATFS_LinkDriverEx(drv, path, 0);
 186              		.loc 1 70 10
 187 000a 0022     		movs	r2, #0
 188 000c 3968     		ldr	r1, [r7]
 189 000e 7868     		ldr	r0, [r7, #4]
 190 0010 FFF7FEFF 		bl	FATFS_LinkDriverEx
 191 0014 0346     		mov	r3, r0
  71:Middlewares/Third_Party/FatFs/src/ff_gen_drv.c **** }
 192              		.loc 1 71 1
 193 0016 1846     		mov	r0, r3
 194 0018 0837     		adds	r7, r7, #8
 195              	.LCFI9:
 196              		.cfi_def_cfa_offset 8
 197 001a BD46     		mov	sp, r7
 198              	.LCFI10:
 199              		.cfi_def_cfa_register 13
 200              		@ sp needed
 201 001c 80BD     		pop	{r7, pc}
 202              		.cfi_endproc
 203              	.LFE147:
 205              		.section	.text.FATFS_UnLinkDriverEx,"ax",%progbits
 206              		.align	1
 207              		.global	FATFS_UnLinkDriverEx
 208              		.syntax unified
 209              		.thumb
 210              		.thumb_func
 212              	FATFS_UnLinkDriverEx:
 213              	.LFB148:
  72:Middlewares/Third_Party/FatFs/src/ff_gen_drv.c **** 
  73:Middlewares/Third_Party/FatFs/src/ff_gen_drv.c **** /**
  74:Middlewares/Third_Party/FatFs/src/ff_gen_drv.c ****   * @brief  Unlinks a diskio driver and decrements the number of active linked
  75:Middlewares/Third_Party/FatFs/src/ff_gen_drv.c ****   *         drivers.
  76:Middlewares/Third_Party/FatFs/src/ff_gen_drv.c ****   * @param  path: pointer to the logical drive path
  77:Middlewares/Third_Party/FatFs/src/ff_gen_drv.c ****   * @param  lun : not used
ARM GAS  C:\Users\jisu8\AppData\Local\Temp\ccsx1gbp.s 			page 6


  78:Middlewares/Third_Party/FatFs/src/ff_gen_drv.c ****   * @retval Returns 0 in case of success, otherwise 1.
  79:Middlewares/Third_Party/FatFs/src/ff_gen_drv.c ****   */
  80:Middlewares/Third_Party/FatFs/src/ff_gen_drv.c **** uint8_t FATFS_UnLinkDriverEx(char *path, uint8_t lun)
  81:Middlewares/Third_Party/FatFs/src/ff_gen_drv.c **** {
 214              		.loc 1 81 1
 215              		.cfi_startproc
 216              		@ args = 0, pretend = 0, frame = 16
 217              		@ frame_needed = 1, uses_anonymous_args = 0
 218              		@ link register save eliminated.
 219 0000 80B4     		push	{r7}
 220              	.LCFI11:
 221              		.cfi_def_cfa_offset 4
 222              		.cfi_offset 7, -4
 223 0002 85B0     		sub	sp, sp, #20
 224              	.LCFI12:
 225              		.cfi_def_cfa_offset 24
 226 0004 00AF     		add	r7, sp, #0
 227              	.LCFI13:
 228              		.cfi_def_cfa_register 7
 229 0006 7860     		str	r0, [r7, #4]
 230 0008 0B46     		mov	r3, r1
 231 000a FB70     		strb	r3, [r7, #3]
  82:Middlewares/Third_Party/FatFs/src/ff_gen_drv.c ****   uint8_t DiskNum = 0;
 232              		.loc 1 82 11
 233 000c 0023     		movs	r3, #0
 234 000e BB73     		strb	r3, [r7, #14]
  83:Middlewares/Third_Party/FatFs/src/ff_gen_drv.c ****   uint8_t ret = 1;
 235              		.loc 1 83 11
 236 0010 0123     		movs	r3, #1
 237 0012 FB73     		strb	r3, [r7, #15]
  84:Middlewares/Third_Party/FatFs/src/ff_gen_drv.c **** 
  85:Middlewares/Third_Party/FatFs/src/ff_gen_drv.c ****   if(disk.nbr >= 1)
 238              		.loc 1 85 10
 239 0014 154B     		ldr	r3, .L11
 240 0016 5B7A     		ldrb	r3, [r3, #9]
 241 0018 DBB2     		uxtb	r3, r3
 242              		.loc 1 85 5
 243 001a 002B     		cmp	r3, #0
 244 001c 1ED0     		beq	.L9
  86:Middlewares/Third_Party/FatFs/src/ff_gen_drv.c ****   {
  87:Middlewares/Third_Party/FatFs/src/ff_gen_drv.c ****     DiskNum = path[0] - '0';
 245              		.loc 1 87 19
 246 001e 7B68     		ldr	r3, [r7, #4]
 247 0020 1B78     		ldrb	r3, [r3]	@ zero_extendqisi2
 248              		.loc 1 87 13
 249 0022 303B     		subs	r3, r3, #48
 250 0024 BB73     		strb	r3, [r7, #14]
  88:Middlewares/Third_Party/FatFs/src/ff_gen_drv.c ****     if(disk.drv[DiskNum] != 0)
 251              		.loc 1 88 16
 252 0026 BB7B     		ldrb	r3, [r7, #14]	@ zero_extendqisi2
 253 0028 104A     		ldr	r2, .L11
 254 002a 9B00     		lsls	r3, r3, #2
 255 002c 1344     		add	r3, r3, r2
 256 002e 5B68     		ldr	r3, [r3, #4]
 257              		.loc 1 88 7
 258 0030 002B     		cmp	r3, #0
 259 0032 13D0     		beq	.L9
ARM GAS  C:\Users\jisu8\AppData\Local\Temp\ccsx1gbp.s 			page 7


  89:Middlewares/Third_Party/FatFs/src/ff_gen_drv.c ****     {
  90:Middlewares/Third_Party/FatFs/src/ff_gen_drv.c ****       disk.drv[DiskNum] = 0;
 260              		.loc 1 90 15
 261 0034 BB7B     		ldrb	r3, [r7, #14]	@ zero_extendqisi2
 262              		.loc 1 90 25
 263 0036 0D4A     		ldr	r2, .L11
 264 0038 9B00     		lsls	r3, r3, #2
 265 003a 1344     		add	r3, r3, r2
 266 003c 0022     		movs	r2, #0
 267 003e 5A60     		str	r2, [r3, #4]
  91:Middlewares/Third_Party/FatFs/src/ff_gen_drv.c ****       disk.lun[DiskNum] = 0;
 268              		.loc 1 91 15
 269 0040 BB7B     		ldrb	r3, [r7, #14]	@ zero_extendqisi2
 270              		.loc 1 91 25
 271 0042 0A4A     		ldr	r2, .L11
 272 0044 1344     		add	r3, r3, r2
 273 0046 0022     		movs	r2, #0
 274 0048 1A72     		strb	r2, [r3, #8]
  92:Middlewares/Third_Party/FatFs/src/ff_gen_drv.c ****       disk.nbr--;
 275              		.loc 1 92 11
 276 004a 084B     		ldr	r3, .L11
 277 004c 5B7A     		ldrb	r3, [r3, #9]
 278 004e DBB2     		uxtb	r3, r3
 279              		.loc 1 92 15
 280 0050 013B     		subs	r3, r3, #1
 281 0052 DAB2     		uxtb	r2, r3
 282 0054 054B     		ldr	r3, .L11
 283 0056 5A72     		strb	r2, [r3, #9]
  93:Middlewares/Third_Party/FatFs/src/ff_gen_drv.c ****       ret = 0;
 284              		.loc 1 93 11
 285 0058 0023     		movs	r3, #0
 286 005a FB73     		strb	r3, [r7, #15]
 287              	.L9:
  94:Middlewares/Third_Party/FatFs/src/ff_gen_drv.c ****     }
  95:Middlewares/Third_Party/FatFs/src/ff_gen_drv.c ****   }
  96:Middlewares/Third_Party/FatFs/src/ff_gen_drv.c **** 
  97:Middlewares/Third_Party/FatFs/src/ff_gen_drv.c ****   return ret;
 288              		.loc 1 97 10
 289 005c FB7B     		ldrb	r3, [r7, #15]	@ zero_extendqisi2
  98:Middlewares/Third_Party/FatFs/src/ff_gen_drv.c **** }
 290              		.loc 1 98 1
 291 005e 1846     		mov	r0, r3
 292 0060 1437     		adds	r7, r7, #20
 293              	.LCFI14:
 294              		.cfi_def_cfa_offset 4
 295 0062 BD46     		mov	sp, r7
 296              	.LCFI15:
 297              		.cfi_def_cfa_register 13
 298              		@ sp needed
 299 0064 5DF8047B 		ldr	r7, [sp], #4
 300              	.LCFI16:
 301              		.cfi_restore 7
 302              		.cfi_def_cfa_offset 0
 303 0068 7047     		bx	lr
 304              	.L12:
 305 006a 00BF     		.align	2
 306              	.L11:
ARM GAS  C:\Users\jisu8\AppData\Local\Temp\ccsx1gbp.s 			page 8


 307 006c 00000000 		.word	disk
 308              		.cfi_endproc
 309              	.LFE148:
 311              		.section	.text.FATFS_UnLinkDriver,"ax",%progbits
 312              		.align	1
 313              		.global	FATFS_UnLinkDriver
 314              		.syntax unified
 315              		.thumb
 316              		.thumb_func
 318              	FATFS_UnLinkDriver:
 319              	.LFB149:
  99:Middlewares/Third_Party/FatFs/src/ff_gen_drv.c **** 
 100:Middlewares/Third_Party/FatFs/src/ff_gen_drv.c **** /**
 101:Middlewares/Third_Party/FatFs/src/ff_gen_drv.c ****   * @brief  Unlinks a diskio driver and decrements the number of active linked
 102:Middlewares/Third_Party/FatFs/src/ff_gen_drv.c ****   *         drivers.
 103:Middlewares/Third_Party/FatFs/src/ff_gen_drv.c ****   * @param  path: pointer to the logical drive path
 104:Middlewares/Third_Party/FatFs/src/ff_gen_drv.c ****   * @retval Returns 0 in case of success, otherwise 1.
 105:Middlewares/Third_Party/FatFs/src/ff_gen_drv.c ****   */
 106:Middlewares/Third_Party/FatFs/src/ff_gen_drv.c **** uint8_t FATFS_UnLinkDriver(char *path)
 107:Middlewares/Third_Party/FatFs/src/ff_gen_drv.c **** {
 320              		.loc 1 107 1
 321              		.cfi_startproc
 322              		@ args = 0, pretend = 0, frame = 8
 323              		@ frame_needed = 1, uses_anonymous_args = 0
 324 0000 80B5     		push	{r7, lr}
 325              	.LCFI17:
 326              		.cfi_def_cfa_offset 8
 327              		.cfi_offset 7, -8
 328              		.cfi_offset 14, -4
 329 0002 82B0     		sub	sp, sp, #8
 330              	.LCFI18:
 331              		.cfi_def_cfa_offset 16
 332 0004 00AF     		add	r7, sp, #0
 333              	.LCFI19:
 334              		.cfi_def_cfa_register 7
 335 0006 7860     		str	r0, [r7, #4]
 108:Middlewares/Third_Party/FatFs/src/ff_gen_drv.c ****   return FATFS_UnLinkDriverEx(path, 0);
 336              		.loc 1 108 10
 337 0008 0021     		movs	r1, #0
 338 000a 7868     		ldr	r0, [r7, #4]
 339 000c FFF7FEFF 		bl	FATFS_UnLinkDriverEx
 340 0010 0346     		mov	r3, r0
 109:Middlewares/Third_Party/FatFs/src/ff_gen_drv.c **** }
 341              		.loc 1 109 1
 342 0012 1846     		mov	r0, r3
 343 0014 0837     		adds	r7, r7, #8
 344              	.LCFI20:
 345              		.cfi_def_cfa_offset 8
 346 0016 BD46     		mov	sp, r7
 347              	.LCFI21:
 348              		.cfi_def_cfa_register 13
 349              		@ sp needed
 350 0018 80BD     		pop	{r7, pc}
 351              		.cfi_endproc
 352              	.LFE149:
 354              		.section	.text.FATFS_GetAttachedDriversNbr,"ax",%progbits
 355              		.align	1
ARM GAS  C:\Users\jisu8\AppData\Local\Temp\ccsx1gbp.s 			page 9


 356              		.global	FATFS_GetAttachedDriversNbr
 357              		.syntax unified
 358              		.thumb
 359              		.thumb_func
 361              	FATFS_GetAttachedDriversNbr:
 362              	.LFB150:
 110:Middlewares/Third_Party/FatFs/src/ff_gen_drv.c **** 
 111:Middlewares/Third_Party/FatFs/src/ff_gen_drv.c **** /**
 112:Middlewares/Third_Party/FatFs/src/ff_gen_drv.c ****   * @brief  Gets number of linked drivers to the FatFs module.
 113:Middlewares/Third_Party/FatFs/src/ff_gen_drv.c ****   * @param  None
 114:Middlewares/Third_Party/FatFs/src/ff_gen_drv.c ****   * @retval Number of attached drivers.
 115:Middlewares/Third_Party/FatFs/src/ff_gen_drv.c ****   */
 116:Middlewares/Third_Party/FatFs/src/ff_gen_drv.c **** uint8_t FATFS_GetAttachedDriversNbr(void)
 117:Middlewares/Third_Party/FatFs/src/ff_gen_drv.c **** {
 363              		.loc 1 117 1
 364              		.cfi_startproc
 365              		@ args = 0, pretend = 0, frame = 0
 366              		@ frame_needed = 1, uses_anonymous_args = 0
 367              		@ link register save eliminated.
 368 0000 80B4     		push	{r7}
 369              	.LCFI22:
 370              		.cfi_def_cfa_offset 4
 371              		.cfi_offset 7, -4
 372 0002 00AF     		add	r7, sp, #0
 373              	.LCFI23:
 374              		.cfi_def_cfa_register 7
 118:Middlewares/Third_Party/FatFs/src/ff_gen_drv.c ****   return disk.nbr;
 375              		.loc 1 118 14
 376 0004 034B     		ldr	r3, .L17
 377 0006 5B7A     		ldrb	r3, [r3, #9]
 378 0008 DBB2     		uxtb	r3, r3
 119:Middlewares/Third_Party/FatFs/src/ff_gen_drv.c **** }
 379              		.loc 1 119 1
 380 000a 1846     		mov	r0, r3
 381 000c BD46     		mov	sp, r7
 382              	.LCFI24:
 383              		.cfi_def_cfa_register 13
 384              		@ sp needed
 385 000e 5DF8047B 		ldr	r7, [sp], #4
 386              	.LCFI25:
 387              		.cfi_restore 7
 388              		.cfi_def_cfa_offset 0
 389 0012 7047     		bx	lr
 390              	.L18:
 391              		.align	2
 392              	.L17:
 393 0014 00000000 		.word	disk
 394              		.cfi_endproc
 395              	.LFE150:
 397              		.text
 398              	.Letext0:
 399              		.file 2 "Middlewares/Third_Party/FatFs/src/integer.h"
 400              		.file 3 "Middlewares/Third_Party/FatFs/src/diskio.h"
 401              		.file 4 "d:\\3.tools\\arm_gcc_toolchain\\arm-none-eabi\\include\\machine\\_default_types.h"
 402              		.file 5 "d:\\3.tools\\arm_gcc_toolchain\\arm-none-eabi\\include\\sys\\_stdint.h"
 403              		.file 6 "Middlewares/Third_Party/FatFs/src/ff_gen_drv.h"
ARM GAS  C:\Users\jisu8\AppData\Local\Temp\ccsx1gbp.s 			page 10

