ARM GAS  C:\Users\jisu8\AppData\Local\Temp\ccBLEEib.s 			page 1


   1              		.cpu cortex-m7
   2              		.arch armv7e-m
   3              		.fpu fpv5-sp-d16
   4              		.eabi_attribute 27, 1
   5              		.eabi_attribute 28, 1
   6              		.eabi_attribute 20, 1
   7              		.eabi_attribute 21, 1
   8              		.eabi_attribute 23, 3
   9              		.eabi_attribute 24, 1
  10              		.eabi_attribute 25, 1
  11              		.eabi_attribute 26, 1
  12              		.eabi_attribute 30, 6
  13              		.eabi_attribute 34, 1
  14              		.eabi_attribute 18, 4
  15              		.file	"main.c"
  16              		.section	.rodata
  17              		.align	2
  18              	.LC0:
  19 0000 64656661 		.ascii	"defaultTask\000"
  19      756C7454 
  19      61736B00 
  20              		.text
  21              	.Ltext0:
  22              		.cfi_sections	.debug_frame
  23              		.global	hcrc
  24              		.section	.bss.hcrc,"aw",%nobits
  25              		.align	2
  28              	hcrc:
  29 0000 00000000 		.space	36
  29      00000000 
  29      00000000 
  29      00000000 
  29      00000000 
  30              		.global	hdma2d
  31              		.section	.bss.hdma2d,"aw",%nobits
  32              		.align	2
  35              	hdma2d:
  36 0000 00000000 		.space	64
  36      00000000 
  36      00000000 
  36      00000000 
  36      00000000 
  37              		.global	hi2c1
  38              		.section	.bss.hi2c1,"aw",%nobits
  39              		.align	2
  42              	hi2c1:
  43 0000 00000000 		.space	84
  43      00000000 
  43      00000000 
  43      00000000 
  43      00000000 
  44              		.global	hi2c3
  45              		.section	.bss.hi2c3,"aw",%nobits
  46              		.align	2
  49              	hi2c3:
  50 0000 00000000 		.space	84
  50      00000000 
ARM GAS  C:\Users\jisu8\AppData\Local\Temp\ccBLEEib.s 			page 2


  50      00000000 
  50      00000000 
  50      00000000 
  51              		.global	hltdc
  52              		.section	.bss.hltdc,"aw",%nobits
  53              		.align	2
  56              	hltdc:
  57 0000 00000000 		.space	168
  57      00000000 
  57      00000000 
  57      00000000 
  57      00000000 
  58              		.global	hqspi
  59              		.section	.bss.hqspi,"aw",%nobits
  60              		.align	2
  63              	hqspi:
  64 0000 00000000 		.space	76
  64      00000000 
  64      00000000 
  64      00000000 
  64      00000000 
  65              		.global	hsd1
  66              		.section	.bss.hsd1,"aw",%nobits
  67              		.align	2
  70              	hsd1:
  71 0000 00000000 		.space	132
  71      00000000 
  71      00000000 
  71      00000000 
  71      00000000 
  72              		.global	hdma_sdmmc1_rx
  73              		.section	.bss.hdma_sdmmc1_rx,"aw",%nobits
  74              		.align	2
  77              	hdma_sdmmc1_rx:
  78 0000 00000000 		.space	96
  78      00000000 
  78      00000000 
  78      00000000 
  78      00000000 
  79              		.global	hdma_sdmmc1_tx
  80              		.section	.bss.hdma_sdmmc1_tx,"aw",%nobits
  81              		.align	2
  84              	hdma_sdmmc1_tx:
  85 0000 00000000 		.space	96
  85      00000000 
  85      00000000 
  85      00000000 
  85      00000000 
  86              		.global	hspi2
  87              		.section	.bss.hspi2,"aw",%nobits
  88              		.align	2
  91              	hspi2:
  92 0000 00000000 		.space	100
  92      00000000 
  92      00000000 
  92      00000000 
  92      00000000 
ARM GAS  C:\Users\jisu8\AppData\Local\Temp\ccBLEEib.s 			page 3


  93              		.global	huart1
  94              		.section	.bss.huart1,"aw",%nobits
  95              		.align	2
  98              	huart1:
  99 0000 00000000 		.space	136
  99      00000000 
  99      00000000 
  99      00000000 
  99      00000000 
 100              		.global	huart6
 101              		.section	.bss.huart6,"aw",%nobits
 102              		.align	2
 105              	huart6:
 106 0000 00000000 		.space	136
 106      00000000 
 106      00000000 
 106      00000000 
 106      00000000 
 107              		.global	hsdram1
 108              		.section	.bss.hsdram1,"aw",%nobits
 109              		.align	2
 112              	hsdram1:
 113 0000 00000000 		.space	52
 113      00000000 
 113      00000000 
 113      00000000 
 113      00000000 
 114              		.global	defaultTaskHandle
 115              		.section	.bss.defaultTaskHandle,"aw",%nobits
 116              		.align	2
 119              	defaultTaskHandle:
 120 0000 00000000 		.space	4
 121              		.global	Usb_Mode
 122              		.section	.bss.Usb_Mode,"aw",%nobits
 125              	Usb_Mode:
 126 0000 00       		.space	1
 127              		.section	.rodata
 128              		.align	2
 129              	.LC2:
 130 000c 00000000 		.word	.LC0
 131 0010 00000000 		.word	StartDefaultTask
 132 0014 0000     		.short	0
 133 0016 0000     		.space	2
 134 0018 00000000 		.word	0
 135 001c 00100000 		.word	4096
 136 0020 00000000 		.word	0
 137 0024 00000000 		.word	0
 138              		.section	.text.main,"ax",%progbits
 139              		.align	1
 140              		.global	main
 141              		.syntax unified
 142              		.thumb
 143              		.thumb_func
 145              	main:
 146              	.LFB150:
 147              		.file 1 "Core/Src/main.c"
   1:Core/Src/main.c **** /* USER CODE BEGIN Header */
ARM GAS  C:\Users\jisu8\AppData\Local\Temp\ccBLEEib.s 			page 4


   2:Core/Src/main.c **** /**
   3:Core/Src/main.c ****   ******************************************************************************
   4:Core/Src/main.c ****   * @file           : main.c
   5:Core/Src/main.c ****   * @brief          : Main program body
   6:Core/Src/main.c ****   ******************************************************************************
   7:Core/Src/main.c ****   * @attention
   8:Core/Src/main.c ****   *
   9:Core/Src/main.c ****   * Copyright (c) 2023 STMicroelectronics.
  10:Core/Src/main.c ****   * All rights reserved.
  11:Core/Src/main.c ****   *
  12:Core/Src/main.c ****   * This software is licensed under terms that can be found in the LICENSE file
  13:Core/Src/main.c ****   * in the root directory of this software component.
  14:Core/Src/main.c ****   * If no LICENSE file comes with this software, it is provided AS-IS.
  15:Core/Src/main.c ****   *
  16:Core/Src/main.c ****   ******************************************************************************
  17:Core/Src/main.c ****   */
  18:Core/Src/main.c **** /* USER CODE END Header */
  19:Core/Src/main.c **** /* Includes ------------------------------------------------------------------*/
  20:Core/Src/main.c **** #include "main.h"
  21:Core/Src/main.c **** #include "cmsis_os.h"
  22:Core/Src/main.c **** #include "fatfs.h"
  23:Core/Src/main.c **** #include "usb_host.h"
  24:Core/Src/main.c **** #include "usb_device.h"
  25:Core/Src/main.c **** #include "lcd.h"
  26:Core/Src/main.c **** #include "touch.h"
  27:Core/Src/main.c **** #include "sdram.h"
  28:Core/Src/main.c **** /* Private includes ----------------------------------------------------------*/
  29:Core/Src/main.c **** /* USER CODE BEGIN Includes */
  30:Core/Src/main.c **** 
  31:Core/Src/main.c **** /* USER CODE END Includes */
  32:Core/Src/main.c **** 
  33:Core/Src/main.c **** /* Private typedef -----------------------------------------------------------*/
  34:Core/Src/main.c **** /* USER CODE BEGIN PTD */
  35:Core/Src/main.c **** 
  36:Core/Src/main.c **** /* USER CODE END PTD */
  37:Core/Src/main.c **** 
  38:Core/Src/main.c **** /* Private define ------------------------------------------------------------*/
  39:Core/Src/main.c **** /* USER CODE BEGIN PD */
  40:Core/Src/main.c **** /* USER CODE END PD */
  41:Core/Src/main.c **** 
  42:Core/Src/main.c **** /* Private macro -------------------------------------------------------------*/
  43:Core/Src/main.c **** /* USER CODE BEGIN PM */
  44:Core/Src/main.c **** 
  45:Core/Src/main.c **** /* USER CODE END PM */
  46:Core/Src/main.c **** 
  47:Core/Src/main.c **** /* Private variables ---------------------------------------------------------*/
  48:Core/Src/main.c **** 
  49:Core/Src/main.c **** CRC_HandleTypeDef hcrc;
  50:Core/Src/main.c **** 
  51:Core/Src/main.c **** DMA2D_HandleTypeDef hdma2d;
  52:Core/Src/main.c **** 
  53:Core/Src/main.c **** I2C_HandleTypeDef hi2c1;
  54:Core/Src/main.c **** I2C_HandleTypeDef hi2c3;
  55:Core/Src/main.c **** 
  56:Core/Src/main.c **** LTDC_HandleTypeDef hltdc;
  57:Core/Src/main.c **** 
  58:Core/Src/main.c **** QSPI_HandleTypeDef hqspi;
ARM GAS  C:\Users\jisu8\AppData\Local\Temp\ccBLEEib.s 			page 5


  59:Core/Src/main.c **** 
  60:Core/Src/main.c **** SD_HandleTypeDef hsd1;
  61:Core/Src/main.c **** DMA_HandleTypeDef hdma_sdmmc1_rx;
  62:Core/Src/main.c **** DMA_HandleTypeDef hdma_sdmmc1_tx;
  63:Core/Src/main.c **** 
  64:Core/Src/main.c **** SPI_HandleTypeDef hspi2;
  65:Core/Src/main.c **** 
  66:Core/Src/main.c **** UART_HandleTypeDef huart1;
  67:Core/Src/main.c **** UART_HandleTypeDef huart6;
  68:Core/Src/main.c **** 
  69:Core/Src/main.c **** SDRAM_HandleTypeDef hsdram1;
  70:Core/Src/main.c **** 
  71:Core/Src/main.c **** osThreadId defaultTaskHandle;
  72:Core/Src/main.c **** /* USER CODE BEGIN PV */
  73:Core/Src/main.c **** uint8_t Usb_Mode;
  74:Core/Src/main.c **** extern USBD_HandleTypeDef hUsbDeviceHS;
  75:Core/Src/main.c **** /* USER CODE END PV */
  76:Core/Src/main.c **** 
  77:Core/Src/main.c **** /* Private function prototypes -----------------------------------------------*/
  78:Core/Src/main.c **** void SystemClock_Config(void);
  79:Core/Src/main.c **** void PeriphCommonClock_Config(void);
  80:Core/Src/main.c **** static void MX_GPIO_Init(void);
  81:Core/Src/main.c **** static void MX_CRC_Init(void);
  82:Core/Src/main.c **** static void MX_FMC_Init(void);
  83:Core/Src/main.c **** static void MX_I2C1_Init(void);
  84:Core/Src/main.c **** static void MX_I2C3_Init(void);
  85:Core/Src/main.c **** static void MX_LTDC_Init(void);
  86:Core/Src/main.c **** static void MX_QUADSPI_Init(void);
  87:Core/Src/main.c **** static void MX_SDMMC1_SD_Init(void);
  88:Core/Src/main.c **** static void MX_SPI2_Init(void);
  89:Core/Src/main.c **** static void MX_USART1_UART_Init(void);
  90:Core/Src/main.c **** static void MX_USART6_UART_Init(void);
  91:Core/Src/main.c **** static void MX_DMA_Init(void);
  92:Core/Src/main.c **** static void MX_DMA2D_Init(void);
  93:Core/Src/main.c **** void StartDefaultTask(void const * argument);
  94:Core/Src/main.c **** 
  95:Core/Src/main.c **** /* USER CODE BEGIN PFP */
  96:Core/Src/main.c **** 
  97:Core/Src/main.c **** /* USER CODE END PFP */
  98:Core/Src/main.c **** 
  99:Core/Src/main.c **** /* Private user code ---------------------------------------------------------*/
 100:Core/Src/main.c **** /* USER CODE BEGIN 0 */
 101:Core/Src/main.c **** 
 102:Core/Src/main.c **** /* USER CODE END 0 */
 103:Core/Src/main.c **** 
 104:Core/Src/main.c **** /**
 105:Core/Src/main.c ****   * @brief  The application entry point.
 106:Core/Src/main.c ****   * @retval int
 107:Core/Src/main.c ****   */
 108:Core/Src/main.c **** int main(void)
 109:Core/Src/main.c **** {
 148              		.loc 1 109 1
 149              		.cfi_startproc
 150              		@ args = 0, pretend = 0, frame = 32
 151              		@ frame_needed = 1, uses_anonymous_args = 0
 152 0000 B0B5     		push	{r4, r5, r7, lr}
 153              	.LCFI0:
ARM GAS  C:\Users\jisu8\AppData\Local\Temp\ccBLEEib.s 			page 6


 154              		.cfi_def_cfa_offset 16
 155              		.cfi_offset 4, -16
 156              		.cfi_offset 5, -12
 157              		.cfi_offset 7, -8
 158              		.cfi_offset 14, -4
 159 0002 88B0     		sub	sp, sp, #32
 160              	.LCFI1:
 161              		.cfi_def_cfa_offset 48
 162 0004 00AF     		add	r7, sp, #0
 163              	.LCFI2:
 164              		.cfi_def_cfa_register 7
 110:Core/Src/main.c ****   /* USER CODE BEGIN 1 */
 111:Core/Src/main.c **** 
 112:Core/Src/main.c ****   /* USER CODE END 1 */
 113:Core/Src/main.c **** 
 114:Core/Src/main.c ****   /* MCU Configuration--------------------------------------------------------*/
 115:Core/Src/main.c **** 
 116:Core/Src/main.c ****   /* Reset of all peripherals, Initializes the Flash interface and the Systick. */
 117:Core/Src/main.c ****   HAL_Init();
 165              		.loc 1 117 3
 166 0006 FFF7FEFF 		bl	HAL_Init
 118:Core/Src/main.c **** 
 119:Core/Src/main.c ****   /* USER CODE BEGIN Init */
 120:Core/Src/main.c **** 
 121:Core/Src/main.c ****   /* USER CODE END Init */
 122:Core/Src/main.c **** 
 123:Core/Src/main.c ****   /* Configure the system clock */
 124:Core/Src/main.c ****   SystemClock_Config();
 167              		.loc 1 124 3
 168 000a FFF7FEFF 		bl	SystemClock_Config
 125:Core/Src/main.c **** 
 126:Core/Src/main.c **** /* Configure the peripherals common clocks */
 127:Core/Src/main.c ****   PeriphCommonClock_Config();
 169              		.loc 1 127 3
 170 000e FFF7FEFF 		bl	PeriphCommonClock_Config
 128:Core/Src/main.c **** 
 129:Core/Src/main.c ****   /* USER CODE BEGIN SysInit */
 130:Core/Src/main.c **** 
 131:Core/Src/main.c ****   /* USER CODE END SysInit */
 132:Core/Src/main.c **** 
 133:Core/Src/main.c ****   /* Initialize all configured peripherals */
 134:Core/Src/main.c ****   MX_GPIO_Init();
 171              		.loc 1 134 3
 172 0012 FFF7FEFF 		bl	MX_GPIO_Init
 135:Core/Src/main.c ****   MX_CRC_Init();
 173              		.loc 1 135 3
 174 0016 FFF7FEFF 		bl	MX_CRC_Init
 136:Core/Src/main.c ****   MX_FMC_Init();
 175              		.loc 1 136 3
 176 001a FFF7FEFF 		bl	MX_FMC_Init
 137:Core/Src/main.c ****   MX_I2C1_Init();
 177              		.loc 1 137 3
 178 001e FFF7FEFF 		bl	MX_I2C1_Init
 138:Core/Src/main.c ****   MX_I2C3_Init();
 179              		.loc 1 138 3
 180 0022 FFF7FEFF 		bl	MX_I2C3_Init
 139:Core/Src/main.c ****   MX_LTDC_Init();
ARM GAS  C:\Users\jisu8\AppData\Local\Temp\ccBLEEib.s 			page 7


 181              		.loc 1 139 3
 182 0026 FFF7FEFF 		bl	MX_LTDC_Init
 140:Core/Src/main.c ****   MX_QUADSPI_Init();
 183              		.loc 1 140 3
 184 002a FFF7FEFF 		bl	MX_QUADSPI_Init
 141:Core/Src/main.c ****   MX_SDMMC1_SD_Init();
 185              		.loc 1 141 3
 186 002e FFF7FEFF 		bl	MX_SDMMC1_SD_Init
 142:Core/Src/main.c ****   MX_SPI2_Init();
 187              		.loc 1 142 3
 188 0032 FFF7FEFF 		bl	MX_SPI2_Init
 143:Core/Src/main.c ****   MX_USART1_UART_Init();
 189              		.loc 1 143 3
 190 0036 FFF7FEFF 		bl	MX_USART1_UART_Init
 144:Core/Src/main.c ****   MX_USART6_UART_Init();
 191              		.loc 1 144 3
 192 003a FFF7FEFF 		bl	MX_USART6_UART_Init
 145:Core/Src/main.c ****   MX_FATFS_Init();
 193              		.loc 1 145 3
 194 003e FFF7FEFF 		bl	MX_FATFS_Init
 146:Core/Src/main.c ****   MX_DMA_Init();
 195              		.loc 1 146 3
 196 0042 FFF7FEFF 		bl	MX_DMA_Init
 147:Core/Src/main.c ****   MX_DMA2D_Init();
 197              		.loc 1 147 3
 198 0046 FFF7FEFF 		bl	MX_DMA2D_Init
 148:Core/Src/main.c ****   /* USER CODE BEGIN 2 */
 149:Core/Src/main.c **** 
 150:Core/Src/main.c ****   /* USER CODE END 2 */
 151:Core/Src/main.c **** 
 152:Core/Src/main.c ****   /* USER CODE BEGIN RTOS_MUTEX */
 153:Core/Src/main.c ****   /* add mutexes, ... */
 154:Core/Src/main.c ****   /* USER CODE END RTOS_MUTEX */
 155:Core/Src/main.c **** 
 156:Core/Src/main.c ****   /* USER CODE BEGIN RTOS_SEMAPHORES */
 157:Core/Src/main.c ****   /* add semaphores, ... */
 158:Core/Src/main.c ****   /* USER CODE END RTOS_SEMAPHORES */
 159:Core/Src/main.c **** 
 160:Core/Src/main.c ****   /* USER CODE BEGIN RTOS_TIMERS */
 161:Core/Src/main.c ****   /* start timers, add new ones, ... */
 162:Core/Src/main.c ****   /* USER CODE END RTOS_TIMERS */
 163:Core/Src/main.c **** 
 164:Core/Src/main.c ****   /* USER CODE BEGIN RTOS_QUEUES */
 165:Core/Src/main.c ****   /* add queues, ... */
 166:Core/Src/main.c ****   /* USER CODE END RTOS_QUEUES */
 167:Core/Src/main.c **** 
 168:Core/Src/main.c ****   /* Create the thread(s) */
 169:Core/Src/main.c ****   /* definition and creation of defaultTask */
 170:Core/Src/main.c ****   osThreadDef(defaultTask, StartDefaultTask, osPriorityNormal, 0, 4096);
 199              		.loc 1 170 3
 200 004a 0A4B     		ldr	r3, .L3
 201 004c 3C1D     		adds	r4, r7, #4
 202 004e 1D46     		mov	r5, r3
 203 0050 0FCD     		ldmia	r5!, {r0, r1, r2, r3}
 204 0052 0FC4     		stmia	r4!, {r0, r1, r2, r3}
 205 0054 95E80700 		ldm	r5, {r0, r1, r2}
 206 0058 84E80700 		stm	r4, {r0, r1, r2}
ARM GAS  C:\Users\jisu8\AppData\Local\Temp\ccBLEEib.s 			page 8


 171:Core/Src/main.c ****   defaultTaskHandle = osThreadCreate(osThread(defaultTask), NULL);
 207              		.loc 1 171 23
 208 005c 3B1D     		adds	r3, r7, #4
 209 005e 0021     		movs	r1, #0
 210 0060 1846     		mov	r0, r3
 211 0062 FFF7FEFF 		bl	osThreadCreate
 212 0066 0346     		mov	r3, r0
 213              		.loc 1 171 21
 214 0068 034A     		ldr	r2, .L3+4
 215 006a 1360     		str	r3, [r2]
 172:Core/Src/main.c **** 
 173:Core/Src/main.c ****   /* USER CODE BEGIN RTOS_THREADS */
 174:Core/Src/main.c ****   /* add threads, ... */
 175:Core/Src/main.c ****   /* USER CODE END RTOS_THREADS */
 176:Core/Src/main.c **** 
 177:Core/Src/main.c ****   /* Start scheduler */
 178:Core/Src/main.c ****   osKernelStart();
 216              		.loc 1 178 3
 217 006c FFF7FEFF 		bl	osKernelStart
 218              	.L2:
 179:Core/Src/main.c **** 
 180:Core/Src/main.c ****   /* We should never get here as control is now taken by the scheduler */
 181:Core/Src/main.c ****   /* Infinite loop */
 182:Core/Src/main.c ****   /* USER CODE BEGIN WHILE */
 183:Core/Src/main.c ****   while (1)
 219              		.loc 1 183 9 discriminator 1
 220 0070 FEE7     		b	.L2
 221              	.L4:
 222 0072 00BF     		.align	2
 223              	.L3:
 224 0074 0C000000 		.word	.LC2
 225 0078 00000000 		.word	defaultTaskHandle
 226              		.cfi_endproc
 227              	.LFE150:
 229              		.section	.text.SystemClock_Config,"ax",%progbits
 230              		.align	1
 231              		.global	SystemClock_Config
 232              		.syntax unified
 233              		.thumb
 234              		.thumb_func
 236              	SystemClock_Config:
 237              	.LFB151:
 184:Core/Src/main.c ****   {
 185:Core/Src/main.c ****     /* USER CODE END WHILE */
 186:Core/Src/main.c **** 
 187:Core/Src/main.c ****     /* USER CODE BEGIN 3 */
 188:Core/Src/main.c ****   }
 189:Core/Src/main.c ****   /* USER CODE END 3 */
 190:Core/Src/main.c **** }
 191:Core/Src/main.c **** 
 192:Core/Src/main.c **** /**
 193:Core/Src/main.c ****   * @brief System Clock Configuration
 194:Core/Src/main.c ****   * @retval None
 195:Core/Src/main.c ****   */
 196:Core/Src/main.c **** void SystemClock_Config(void)
 197:Core/Src/main.c **** {
 238              		.loc 1 197 1
ARM GAS  C:\Users\jisu8\AppData\Local\Temp\ccBLEEib.s 			page 9


 239              		.cfi_startproc
 240              		@ args = 0, pretend = 0, frame = 80
 241              		@ frame_needed = 1, uses_anonymous_args = 0
 242 0000 80B5     		push	{r7, lr}
 243              	.LCFI3:
 244              		.cfi_def_cfa_offset 8
 245              		.cfi_offset 7, -8
 246              		.cfi_offset 14, -4
 247 0002 94B0     		sub	sp, sp, #80
 248              	.LCFI4:
 249              		.cfi_def_cfa_offset 88
 250 0004 00AF     		add	r7, sp, #0
 251              	.LCFI5:
 252              		.cfi_def_cfa_register 7
 198:Core/Src/main.c ****   RCC_OscInitTypeDef RCC_OscInitStruct = {0};
 253              		.loc 1 198 22
 254 0006 07F12003 		add	r3, r7, #32
 255 000a 3022     		movs	r2, #48
 256 000c 0021     		movs	r1, #0
 257 000e 1846     		mov	r0, r3
 258 0010 FFF7FEFF 		bl	memset
 199:Core/Src/main.c ****   RCC_ClkInitTypeDef RCC_ClkInitStruct = {0};
 259              		.loc 1 199 22
 260 0014 07F10C03 		add	r3, r7, #12
 261 0018 0022     		movs	r2, #0
 262 001a 1A60     		str	r2, [r3]
 263 001c 5A60     		str	r2, [r3, #4]
 264 001e 9A60     		str	r2, [r3, #8]
 265 0020 DA60     		str	r2, [r3, #12]
 266 0022 1A61     		str	r2, [r3, #16]
 200:Core/Src/main.c **** 
 201:Core/Src/main.c ****   /** Configure LSE Drive Capability
 202:Core/Src/main.c ****   */
 203:Core/Src/main.c ****   HAL_PWR_EnableBkUpAccess();
 267              		.loc 1 203 3
 268 0024 FFF7FEFF 		bl	HAL_PWR_EnableBkUpAccess
 269              	.LBB4:
 204:Core/Src/main.c **** 
 205:Core/Src/main.c ****   /** Configure the main internal regulator output voltage
 206:Core/Src/main.c ****   */
 207:Core/Src/main.c ****   __HAL_RCC_PWR_CLK_ENABLE();
 270              		.loc 1 207 3
 271 0028 2B4B     		ldr	r3, .L10
 272 002a 1B6C     		ldr	r3, [r3, #64]
 273 002c 2A4A     		ldr	r2, .L10
 274 002e 43F08053 		orr	r3, r3, #268435456
 275 0032 1364     		str	r3, [r2, #64]
 276 0034 284B     		ldr	r3, .L10
 277 0036 1B6C     		ldr	r3, [r3, #64]
 278 0038 03F08053 		and	r3, r3, #268435456
 279 003c BB60     		str	r3, [r7, #8]
 280 003e BB68     		ldr	r3, [r7, #8]
 281              	.LBE4:
 282              	.LBB5:
 208:Core/Src/main.c ****   __HAL_PWR_VOLTAGESCALING_CONFIG(PWR_REGULATOR_VOLTAGE_SCALE1);
 283              		.loc 1 208 3
 284 0040 264B     		ldr	r3, .L10+4
ARM GAS  C:\Users\jisu8\AppData\Local\Temp\ccBLEEib.s 			page 10


 285 0042 1B68     		ldr	r3, [r3]
 286 0044 254A     		ldr	r2, .L10+4
 287 0046 43F44043 		orr	r3, r3, #49152
 288 004a 1360     		str	r3, [r2]
 289 004c 234B     		ldr	r3, .L10+4
 290 004e 1B68     		ldr	r3, [r3]
 291 0050 03F44043 		and	r3, r3, #49152
 292 0054 7B60     		str	r3, [r7, #4]
 293 0056 7B68     		ldr	r3, [r7, #4]
 294              	.LBE5:
 209:Core/Src/main.c **** 
 210:Core/Src/main.c ****   /** Initializes the RCC Oscillators according to the specified parameters
 211:Core/Src/main.c ****   * in the RCC_OscInitTypeDef structure.
 212:Core/Src/main.c ****   */
 213:Core/Src/main.c ****   RCC_OscInitStruct.OscillatorType = RCC_OSCILLATORTYPE_HSE;
 295              		.loc 1 213 36
 296 0058 0123     		movs	r3, #1
 297 005a 3B62     		str	r3, [r7, #32]
 214:Core/Src/main.c ****   RCC_OscInitStruct.HSEState = RCC_HSE_ON;
 298              		.loc 1 214 30
 299 005c 4FF48033 		mov	r3, #65536
 300 0060 7B62     		str	r3, [r7, #36]
 215:Core/Src/main.c ****   RCC_OscInitStruct.PLL.PLLState = RCC_PLL_ON;
 301              		.loc 1 215 34
 302 0062 0223     		movs	r3, #2
 303 0064 BB63     		str	r3, [r7, #56]
 216:Core/Src/main.c ****   RCC_OscInitStruct.PLL.PLLSource = RCC_PLLSOURCE_HSE;
 304              		.loc 1 216 35
 305 0066 4FF48003 		mov	r3, #4194304
 306 006a FB63     		str	r3, [r7, #60]
 217:Core/Src/main.c ****   RCC_OscInitStruct.PLL.PLLM = 25;
 307              		.loc 1 217 30
 308 006c 1923     		movs	r3, #25
 309 006e 3B64     		str	r3, [r7, #64]
 218:Core/Src/main.c ****   RCC_OscInitStruct.PLL.PLLN = 400;
 310              		.loc 1 218 30
 311 0070 4FF4C873 		mov	r3, #400
 312 0074 7B64     		str	r3, [r7, #68]
 219:Core/Src/main.c ****   RCC_OscInitStruct.PLL.PLLP = RCC_PLLP_DIV2;
 313              		.loc 1 219 30
 314 0076 0223     		movs	r3, #2
 315 0078 BB64     		str	r3, [r7, #72]
 220:Core/Src/main.c ****   RCC_OscInitStruct.PLL.PLLQ = 9;
 316              		.loc 1 220 30
 317 007a 0923     		movs	r3, #9
 318 007c FB64     		str	r3, [r7, #76]
 221:Core/Src/main.c ****   if (HAL_RCC_OscConfig(&RCC_OscInitStruct) != HAL_OK)
 319              		.loc 1 221 7
 320 007e 07F12003 		add	r3, r7, #32
 321 0082 1846     		mov	r0, r3
 322 0084 FFF7FEFF 		bl	HAL_RCC_OscConfig
 323 0088 0346     		mov	r3, r0
 324              		.loc 1 221 6
 325 008a 002B     		cmp	r3, #0
 326 008c 01D0     		beq	.L6
 222:Core/Src/main.c ****   {
 223:Core/Src/main.c ****     Error_Handler();
ARM GAS  C:\Users\jisu8\AppData\Local\Temp\ccBLEEib.s 			page 11


 327              		.loc 1 223 5
 328 008e FFF7FEFF 		bl	Error_Handler
 329              	.L6:
 224:Core/Src/main.c ****   }
 225:Core/Src/main.c **** 
 226:Core/Src/main.c ****   /** Activate the Over-Drive mode
 227:Core/Src/main.c ****   */
 228:Core/Src/main.c ****   if (HAL_PWREx_EnableOverDrive() != HAL_OK)
 330              		.loc 1 228 7
 331 0092 FFF7FEFF 		bl	HAL_PWREx_EnableOverDrive
 332 0096 0346     		mov	r3, r0
 333              		.loc 1 228 6
 334 0098 002B     		cmp	r3, #0
 335 009a 01D0     		beq	.L7
 229:Core/Src/main.c ****   {
 230:Core/Src/main.c ****     Error_Handler();
 336              		.loc 1 230 5
 337 009c FFF7FEFF 		bl	Error_Handler
 338              	.L7:
 231:Core/Src/main.c ****   }
 232:Core/Src/main.c **** 
 233:Core/Src/main.c ****   /** Initializes the CPU, AHB and APB buses clocks
 234:Core/Src/main.c ****   */
 235:Core/Src/main.c ****   RCC_ClkInitStruct.ClockType = RCC_CLOCKTYPE_HCLK|RCC_CLOCKTYPE_SYSCLK
 339              		.loc 1 235 31
 340 00a0 0F23     		movs	r3, #15
 341 00a2 FB60     		str	r3, [r7, #12]
 236:Core/Src/main.c ****                               |RCC_CLOCKTYPE_PCLK1|RCC_CLOCKTYPE_PCLK2;
 237:Core/Src/main.c ****   RCC_ClkInitStruct.SYSCLKSource = RCC_SYSCLKSOURCE_PLLCLK;
 342              		.loc 1 237 34
 343 00a4 0223     		movs	r3, #2
 344 00a6 3B61     		str	r3, [r7, #16]
 238:Core/Src/main.c ****   RCC_ClkInitStruct.AHBCLKDivider = RCC_SYSCLK_DIV1;
 345              		.loc 1 238 35
 346 00a8 0023     		movs	r3, #0
 347 00aa 7B61     		str	r3, [r7, #20]
 239:Core/Src/main.c ****   RCC_ClkInitStruct.APB1CLKDivider = RCC_HCLK_DIV4;
 348              		.loc 1 239 36
 349 00ac 4FF4A053 		mov	r3, #5120
 350 00b0 BB61     		str	r3, [r7, #24]
 240:Core/Src/main.c ****   RCC_ClkInitStruct.APB2CLKDivider = RCC_HCLK_DIV2;
 351              		.loc 1 240 36
 352 00b2 4FF48053 		mov	r3, #4096
 353 00b6 FB61     		str	r3, [r7, #28]
 241:Core/Src/main.c **** 
 242:Core/Src/main.c ****   if (HAL_RCC_ClockConfig(&RCC_ClkInitStruct, FLASH_LATENCY_6) != HAL_OK)
 354              		.loc 1 242 7
 355 00b8 07F10C03 		add	r3, r7, #12
 356 00bc 0621     		movs	r1, #6
 357 00be 1846     		mov	r0, r3
 358 00c0 FFF7FEFF 		bl	HAL_RCC_ClockConfig
 359 00c4 0346     		mov	r3, r0
 360              		.loc 1 242 6
 361 00c6 002B     		cmp	r3, #0
 362 00c8 01D0     		beq	.L9
 243:Core/Src/main.c ****   {
 244:Core/Src/main.c ****     Error_Handler();
ARM GAS  C:\Users\jisu8\AppData\Local\Temp\ccBLEEib.s 			page 12


 363              		.loc 1 244 5
 364 00ca FFF7FEFF 		bl	Error_Handler
 365              	.L9:
 245:Core/Src/main.c ****   }
 246:Core/Src/main.c **** }
 366              		.loc 1 246 1
 367 00ce 00BF     		nop
 368 00d0 5037     		adds	r7, r7, #80
 369              	.LCFI6:
 370              		.cfi_def_cfa_offset 8
 371 00d2 BD46     		mov	sp, r7
 372              	.LCFI7:
 373              		.cfi_def_cfa_register 13
 374              		@ sp needed
 375 00d4 80BD     		pop	{r7, pc}
 376              	.L11:
 377 00d6 00BF     		.align	2
 378              	.L10:
 379 00d8 00380240 		.word	1073887232
 380 00dc 00700040 		.word	1073770496
 381              		.cfi_endproc
 382              	.LFE151:
 384              		.section	.text.PeriphCommonClock_Config,"ax",%progbits
 385              		.align	1
 386              		.global	PeriphCommonClock_Config
 387              		.syntax unified
 388              		.thumb
 389              		.thumb_func
 391              	PeriphCommonClock_Config:
 392              	.LFB152:
 247:Core/Src/main.c **** 
 248:Core/Src/main.c **** /**
 249:Core/Src/main.c ****   * @brief Peripherals Common Clock Configuration
 250:Core/Src/main.c ****   * @retval None
 251:Core/Src/main.c ****   */
 252:Core/Src/main.c **** void PeriphCommonClock_Config(void)
 253:Core/Src/main.c **** {
 393              		.loc 1 253 1
 394              		.cfi_startproc
 395              		@ args = 0, pretend = 0, frame = 136
 396              		@ frame_needed = 1, uses_anonymous_args = 0
 397 0000 80B5     		push	{r7, lr}
 398              	.LCFI8:
 399              		.cfi_def_cfa_offset 8
 400              		.cfi_offset 7, -8
 401              		.cfi_offset 14, -4
 402 0002 A2B0     		sub	sp, sp, #136
 403              	.LCFI9:
 404              		.cfi_def_cfa_offset 144
 405 0004 00AF     		add	r7, sp, #0
 406              	.LCFI10:
 407              		.cfi_def_cfa_register 7
 254:Core/Src/main.c ****   RCC_PeriphCLKInitTypeDef PeriphClkInitStruct = {0};
 408              		.loc 1 254 28
 409 0006 3B1D     		adds	r3, r7, #4
 410 0008 8422     		movs	r2, #132
 411 000a 0021     		movs	r1, #0
ARM GAS  C:\Users\jisu8\AppData\Local\Temp\ccBLEEib.s 			page 13


 412 000c 1846     		mov	r0, r3
 413 000e FFF7FEFF 		bl	memset
 255:Core/Src/main.c **** 
 256:Core/Src/main.c ****   /** Initializes the peripherals clock
 257:Core/Src/main.c ****   */
 258:Core/Src/main.c ****   PeriphClkInitStruct.PeriphClockSelection = RCC_PERIPHCLK_LTDC|RCC_PERIPHCLK_SDMMC1
 414              		.loc 1 258 44
 415 0012 124B     		ldr	r3, .L15
 416 0014 7B60     		str	r3, [r7, #4]
 259:Core/Src/main.c ****                               |RCC_PERIPHCLK_CLK48;
 260:Core/Src/main.c ****   PeriphClkInitStruct.PLLSAI.PLLSAIN = 384;
 417              		.loc 1 260 38
 418 0016 4FF4C073 		mov	r3, #384
 419 001a BB61     		str	r3, [r7, #24]
 261:Core/Src/main.c ****   PeriphClkInitStruct.PLLSAI.PLLSAIR = 5;
 420              		.loc 1 261 38
 421 001c 0523     		movs	r3, #5
 422 001e 3B62     		str	r3, [r7, #32]
 262:Core/Src/main.c ****   PeriphClkInitStruct.PLLSAI.PLLSAIQ = 2;
 423              		.loc 1 262 38
 424 0020 0223     		movs	r3, #2
 425 0022 FB61     		str	r3, [r7, #28]
 263:Core/Src/main.c ****   PeriphClkInitStruct.PLLSAI.PLLSAIP = RCC_PLLSAIP_DIV8;
 426              		.loc 1 263 38
 427 0024 0323     		movs	r3, #3
 428 0026 7B62     		str	r3, [r7, #36]
 264:Core/Src/main.c ****   PeriphClkInitStruct.PLLSAIDivQ = 1;
 429              		.loc 1 264 34
 430 0028 0123     		movs	r3, #1
 431 002a FB62     		str	r3, [r7, #44]
 265:Core/Src/main.c ****   PeriphClkInitStruct.PLLSAIDivR = RCC_PLLSAIDIVR_8;
 432              		.loc 1 265 34
 433 002c 4FF40033 		mov	r3, #131072
 434 0030 3B63     		str	r3, [r7, #48]
 266:Core/Src/main.c ****   PeriphClkInitStruct.Clk48ClockSelection = RCC_CLK48SOURCE_PLLSAIP;
 435              		.loc 1 266 43
 436 0032 4FF00063 		mov	r3, #134217728
 437 0036 C7F88030 		str	r3, [r7, #128]
 267:Core/Src/main.c ****   PeriphClkInitStruct.Sdmmc1ClockSelection = RCC_SDMMC1CLKSOURCE_CLK48;
 438              		.loc 1 267 44
 439 003a 0023     		movs	r3, #0
 440 003c C7F88430 		str	r3, [r7, #132]
 268:Core/Src/main.c ****   if (HAL_RCCEx_PeriphCLKConfig(&PeriphClkInitStruct) != HAL_OK)
 441              		.loc 1 268 7
 442 0040 3B1D     		adds	r3, r7, #4
 443 0042 1846     		mov	r0, r3
 444 0044 FFF7FEFF 		bl	HAL_RCCEx_PeriphCLKConfig
 445 0048 0346     		mov	r3, r0
 446              		.loc 1 268 6
 447 004a 002B     		cmp	r3, #0
 448 004c 01D0     		beq	.L14
 269:Core/Src/main.c ****   {
 270:Core/Src/main.c ****     Error_Handler();
 449              		.loc 1 270 5
 450 004e FFF7FEFF 		bl	Error_Handler
 451              	.L14:
 271:Core/Src/main.c ****   }
ARM GAS  C:\Users\jisu8\AppData\Local\Temp\ccBLEEib.s 			page 14


 272:Core/Src/main.c **** }
 452              		.loc 1 272 1
 453 0052 00BF     		nop
 454 0054 8837     		adds	r7, r7, #136
 455              	.LCFI11:
 456              		.cfi_def_cfa_offset 8
 457 0056 BD46     		mov	sp, r7
 458              	.LCFI12:
 459              		.cfi_def_cfa_register 13
 460              		@ sp needed
 461 0058 80BD     		pop	{r7, pc}
 462              	.L16:
 463 005a 00BF     		.align	2
 464              	.L15:
 465 005c 0800A000 		.word	10485768
 466              		.cfi_endproc
 467              	.LFE152:
 469              		.section	.text.MX_CRC_Init,"ax",%progbits
 470              		.align	1
 471              		.syntax unified
 472              		.thumb
 473              		.thumb_func
 475              	MX_CRC_Init:
 476              	.LFB153:
 273:Core/Src/main.c **** 
 274:Core/Src/main.c **** /**
 275:Core/Src/main.c ****   * @brief CRC Initialization Function
 276:Core/Src/main.c ****   * @param None
 277:Core/Src/main.c ****   * @retval None
 278:Core/Src/main.c ****   */
 279:Core/Src/main.c **** static void MX_CRC_Init(void)
 280:Core/Src/main.c **** {
 477              		.loc 1 280 1
 478              		.cfi_startproc
 479              		@ args = 0, pretend = 0, frame = 0
 480              		@ frame_needed = 1, uses_anonymous_args = 0
 481 0000 80B5     		push	{r7, lr}
 482              	.LCFI13:
 483              		.cfi_def_cfa_offset 8
 484              		.cfi_offset 7, -8
 485              		.cfi_offset 14, -4
 486 0002 00AF     		add	r7, sp, #0
 487              	.LCFI14:
 488              		.cfi_def_cfa_register 7
 281:Core/Src/main.c **** 
 282:Core/Src/main.c ****   /* USER CODE BEGIN CRC_Init 0 */
 283:Core/Src/main.c **** 
 284:Core/Src/main.c ****   /* USER CODE END CRC_Init 0 */
 285:Core/Src/main.c **** 
 286:Core/Src/main.c ****   /* USER CODE BEGIN CRC_Init 1 */
 287:Core/Src/main.c **** 
 288:Core/Src/main.c ****   /* USER CODE END CRC_Init 1 */
 289:Core/Src/main.c ****   hcrc.Instance = CRC;
 489              		.loc 1 289 17
 490 0004 0D4B     		ldr	r3, .L20
 491 0006 0E4A     		ldr	r2, .L20+4
 492 0008 1A60     		str	r2, [r3]
ARM GAS  C:\Users\jisu8\AppData\Local\Temp\ccBLEEib.s 			page 15


 290:Core/Src/main.c ****   hcrc.Init.DefaultPolynomialUse = DEFAULT_POLYNOMIAL_ENABLE;
 493              		.loc 1 290 34
 494 000a 0C4B     		ldr	r3, .L20
 495 000c 0022     		movs	r2, #0
 496 000e 1A71     		strb	r2, [r3, #4]
 291:Core/Src/main.c ****   hcrc.Init.DefaultInitValueUse = DEFAULT_INIT_VALUE_ENABLE;
 497              		.loc 1 291 33
 498 0010 0A4B     		ldr	r3, .L20
 499 0012 0022     		movs	r2, #0
 500 0014 5A71     		strb	r2, [r3, #5]
 292:Core/Src/main.c ****   hcrc.Init.InputDataInversionMode = CRC_INPUTDATA_INVERSION_NONE;
 501              		.loc 1 292 36
 502 0016 094B     		ldr	r3, .L20
 503 0018 0022     		movs	r2, #0
 504 001a 5A61     		str	r2, [r3, #20]
 293:Core/Src/main.c ****   hcrc.Init.OutputDataInversionMode = CRC_OUTPUTDATA_INVERSION_DISABLE;
 505              		.loc 1 293 37
 506 001c 074B     		ldr	r3, .L20
 507 001e 0022     		movs	r2, #0
 508 0020 9A61     		str	r2, [r3, #24]
 294:Core/Src/main.c ****   hcrc.InputDataFormat = CRC_INPUTDATA_FORMAT_BYTES;
 509              		.loc 1 294 24
 510 0022 064B     		ldr	r3, .L20
 511 0024 0122     		movs	r2, #1
 512 0026 1A62     		str	r2, [r3, #32]
 295:Core/Src/main.c ****   if (HAL_CRC_Init(&hcrc) != HAL_OK)
 513              		.loc 1 295 7
 514 0028 0448     		ldr	r0, .L20
 515 002a FFF7FEFF 		bl	HAL_CRC_Init
 516 002e 0346     		mov	r3, r0
 517              		.loc 1 295 6
 518 0030 002B     		cmp	r3, #0
 519 0032 01D0     		beq	.L19
 296:Core/Src/main.c ****   {
 297:Core/Src/main.c ****     Error_Handler();
 520              		.loc 1 297 5
 521 0034 FFF7FEFF 		bl	Error_Handler
 522              	.L19:
 298:Core/Src/main.c ****   }
 299:Core/Src/main.c ****   /* USER CODE BEGIN CRC_Init 2 */
 300:Core/Src/main.c **** 
 301:Core/Src/main.c ****   /* USER CODE END CRC_Init 2 */
 302:Core/Src/main.c **** 
 303:Core/Src/main.c **** }
 523              		.loc 1 303 1
 524 0038 00BF     		nop
 525 003a 80BD     		pop	{r7, pc}
 526              	.L21:
 527              		.align	2
 528              	.L20:
 529 003c 00000000 		.word	hcrc
 530 0040 00300240 		.word	1073885184
 531              		.cfi_endproc
 532              	.LFE153:
 534              		.section	.text.MX_DMA2D_Init,"ax",%progbits
 535              		.align	1
 536              		.syntax unified
ARM GAS  C:\Users\jisu8\AppData\Local\Temp\ccBLEEib.s 			page 16


 537              		.thumb
 538              		.thumb_func
 540              	MX_DMA2D_Init:
 541              	.LFB154:
 304:Core/Src/main.c **** 
 305:Core/Src/main.c **** /**
 306:Core/Src/main.c ****   * @brief DMA2D Initialization Function
 307:Core/Src/main.c ****   * @param None
 308:Core/Src/main.c ****   * @retval None
 309:Core/Src/main.c ****   */
 310:Core/Src/main.c **** static void MX_DMA2D_Init(void)
 311:Core/Src/main.c **** {
 542              		.loc 1 311 1
 543              		.cfi_startproc
 544              		@ args = 0, pretend = 0, frame = 0
 545              		@ frame_needed = 1, uses_anonymous_args = 0
 546 0000 80B5     		push	{r7, lr}
 547              	.LCFI15:
 548              		.cfi_def_cfa_offset 8
 549              		.cfi_offset 7, -8
 550              		.cfi_offset 14, -4
 551 0002 00AF     		add	r7, sp, #0
 552              	.LCFI16:
 553              		.cfi_def_cfa_register 7
 312:Core/Src/main.c **** 
 313:Core/Src/main.c ****   /* USER CODE BEGIN DMA2D_Init 0 */
 314:Core/Src/main.c **** 
 315:Core/Src/main.c ****   /* USER CODE END DMA2D_Init 0 */
 316:Core/Src/main.c **** 
 317:Core/Src/main.c ****   /* USER CODE BEGIN DMA2D_Init 1 */
 318:Core/Src/main.c **** 
 319:Core/Src/main.c ****   /* USER CODE END DMA2D_Init 1 */
 320:Core/Src/main.c ****   hdma2d.Instance = DMA2D;
 554              		.loc 1 320 19
 555 0004 154B     		ldr	r3, .L26
 556 0006 164A     		ldr	r2, .L26+4
 557 0008 1A60     		str	r2, [r3]
 321:Core/Src/main.c ****   hdma2d.Init.Mode = DMA2D_M2M;
 558              		.loc 1 321 20
 559 000a 144B     		ldr	r3, .L26
 560 000c 0022     		movs	r2, #0
 561 000e 5A60     		str	r2, [r3, #4]
 322:Core/Src/main.c ****   hdma2d.Init.ColorMode = DMA2D_OUTPUT_ARGB8888;
 562              		.loc 1 322 25
 563 0010 124B     		ldr	r3, .L26
 564 0012 0022     		movs	r2, #0
 565 0014 9A60     		str	r2, [r3, #8]
 323:Core/Src/main.c ****   hdma2d.Init.OutputOffset = 0;
 566              		.loc 1 323 28
 567 0016 114B     		ldr	r3, .L26
 568 0018 0022     		movs	r2, #0
 569 001a DA60     		str	r2, [r3, #12]
 324:Core/Src/main.c ****   hdma2d.LayerCfg[1].InputOffset = 0;
 570              		.loc 1 324 34
 571 001c 0F4B     		ldr	r3, .L26
 572 001e 0022     		movs	r2, #0
 573 0020 9A62     		str	r2, [r3, #40]
ARM GAS  C:\Users\jisu8\AppData\Local\Temp\ccBLEEib.s 			page 17


 325:Core/Src/main.c ****   hdma2d.LayerCfg[1].InputColorMode = DMA2D_INPUT_ARGB8888;
 574              		.loc 1 325 37
 575 0022 0E4B     		ldr	r3, .L26
 576 0024 0022     		movs	r2, #0
 577 0026 DA62     		str	r2, [r3, #44]
 326:Core/Src/main.c ****   hdma2d.LayerCfg[1].AlphaMode = DMA2D_NO_MODIF_ALPHA;
 578              		.loc 1 326 32
 579 0028 0C4B     		ldr	r3, .L26
 580 002a 0022     		movs	r2, #0
 581 002c 1A63     		str	r2, [r3, #48]
 327:Core/Src/main.c ****   hdma2d.LayerCfg[1].InputAlpha = 0;
 582              		.loc 1 327 33
 583 002e 0B4B     		ldr	r3, .L26
 584 0030 0022     		movs	r2, #0
 585 0032 5A63     		str	r2, [r3, #52]
 328:Core/Src/main.c ****   if (HAL_DMA2D_Init(&hdma2d) != HAL_OK)
 586              		.loc 1 328 7
 587 0034 0948     		ldr	r0, .L26
 588 0036 FFF7FEFF 		bl	HAL_DMA2D_Init
 589 003a 0346     		mov	r3, r0
 590              		.loc 1 328 6
 591 003c 002B     		cmp	r3, #0
 592 003e 01D0     		beq	.L23
 329:Core/Src/main.c ****   {
 330:Core/Src/main.c ****     Error_Handler();
 593              		.loc 1 330 5
 594 0040 FFF7FEFF 		bl	Error_Handler
 595              	.L23:
 331:Core/Src/main.c ****   }
 332:Core/Src/main.c ****   if (HAL_DMA2D_ConfigLayer(&hdma2d, 1) != HAL_OK)
 596              		.loc 1 332 7
 597 0044 0121     		movs	r1, #1
 598 0046 0548     		ldr	r0, .L26
 599 0048 FFF7FEFF 		bl	HAL_DMA2D_ConfigLayer
 600 004c 0346     		mov	r3, r0
 601              		.loc 1 332 6
 602 004e 002B     		cmp	r3, #0
 603 0050 01D0     		beq	.L25
 333:Core/Src/main.c ****   {
 334:Core/Src/main.c ****     Error_Handler();
 604              		.loc 1 334 5
 605 0052 FFF7FEFF 		bl	Error_Handler
 606              	.L25:
 335:Core/Src/main.c ****   }
 336:Core/Src/main.c ****   /* USER CODE BEGIN DMA2D_Init 2 */
 337:Core/Src/main.c **** 
 338:Core/Src/main.c ****   /* USER CODE END DMA2D_Init 2 */
 339:Core/Src/main.c **** 
 340:Core/Src/main.c **** }
 607              		.loc 1 340 1
 608 0056 00BF     		nop
 609 0058 80BD     		pop	{r7, pc}
 610              	.L27:
 611 005a 00BF     		.align	2
 612              	.L26:
 613 005c 00000000 		.word	hdma2d
 614 0060 00B00240 		.word	1073917952
ARM GAS  C:\Users\jisu8\AppData\Local\Temp\ccBLEEib.s 			page 18


 615              		.cfi_endproc
 616              	.LFE154:
 618              		.section	.text.MX_I2C1_Init,"ax",%progbits
 619              		.align	1
 620              		.syntax unified
 621              		.thumb
 622              		.thumb_func
 624              	MX_I2C1_Init:
 625              	.LFB155:
 341:Core/Src/main.c **** 
 342:Core/Src/main.c **** /**
 343:Core/Src/main.c ****   * @brief I2C1 Initialization Function
 344:Core/Src/main.c ****   * @param None
 345:Core/Src/main.c ****   * @retval None
 346:Core/Src/main.c ****   */
 347:Core/Src/main.c **** static void MX_I2C1_Init(void)
 348:Core/Src/main.c **** {
 626              		.loc 1 348 1
 627              		.cfi_startproc
 628              		@ args = 0, pretend = 0, frame = 0
 629              		@ frame_needed = 1, uses_anonymous_args = 0
 630 0000 80B5     		push	{r7, lr}
 631              	.LCFI17:
 632              		.cfi_def_cfa_offset 8
 633              		.cfi_offset 7, -8
 634              		.cfi_offset 14, -4
 635 0002 00AF     		add	r7, sp, #0
 636              	.LCFI18:
 637              		.cfi_def_cfa_register 7
 349:Core/Src/main.c **** 
 350:Core/Src/main.c ****   /* USER CODE BEGIN I2C1_Init 0 */
 351:Core/Src/main.c **** 
 352:Core/Src/main.c ****   /* USER CODE END I2C1_Init 0 */
 353:Core/Src/main.c **** 
 354:Core/Src/main.c ****   /* USER CODE BEGIN I2C1_Init 1 */
 355:Core/Src/main.c **** 
 356:Core/Src/main.c ****   /* USER CODE END I2C1_Init 1 */
 357:Core/Src/main.c ****   hi2c1.Instance = I2C1;
 638              		.loc 1 357 18
 639 0004 1B4B     		ldr	r3, .L33
 640 0006 1C4A     		ldr	r2, .L33+4
 641 0008 1A60     		str	r2, [r3]
 358:Core/Src/main.c ****   hi2c1.Init.Timing = 0x00C0EAFF;
 642              		.loc 1 358 21
 643 000a 1A4B     		ldr	r3, .L33
 644 000c 1B4A     		ldr	r2, .L33+8
 645 000e 5A60     		str	r2, [r3, #4]
 359:Core/Src/main.c ****   hi2c1.Init.OwnAddress1 = 0;
 646              		.loc 1 359 26
 647 0010 184B     		ldr	r3, .L33
 648 0012 0022     		movs	r2, #0
 649 0014 9A60     		str	r2, [r3, #8]
 360:Core/Src/main.c ****   hi2c1.Init.AddressingMode = I2C_ADDRESSINGMODE_7BIT;
 650              		.loc 1 360 29
 651 0016 174B     		ldr	r3, .L33
 652 0018 0122     		movs	r2, #1
 653 001a DA60     		str	r2, [r3, #12]
ARM GAS  C:\Users\jisu8\AppData\Local\Temp\ccBLEEib.s 			page 19


 361:Core/Src/main.c ****   hi2c1.Init.DualAddressMode = I2C_DUALADDRESS_DISABLE;
 654              		.loc 1 361 30
 655 001c 154B     		ldr	r3, .L33
 656 001e 0022     		movs	r2, #0
 657 0020 1A61     		str	r2, [r3, #16]
 362:Core/Src/main.c ****   hi2c1.Init.OwnAddress2 = 0;
 658              		.loc 1 362 26
 659 0022 144B     		ldr	r3, .L33
 660 0024 0022     		movs	r2, #0
 661 0026 5A61     		str	r2, [r3, #20]
 363:Core/Src/main.c ****   hi2c1.Init.OwnAddress2Masks = I2C_OA2_NOMASK;
 662              		.loc 1 363 31
 663 0028 124B     		ldr	r3, .L33
 664 002a 0022     		movs	r2, #0
 665 002c 9A61     		str	r2, [r3, #24]
 364:Core/Src/main.c ****   hi2c1.Init.GeneralCallMode = I2C_GENERALCALL_DISABLE;
 666              		.loc 1 364 30
 667 002e 114B     		ldr	r3, .L33
 668 0030 0022     		movs	r2, #0
 669 0032 DA61     		str	r2, [r3, #28]
 365:Core/Src/main.c ****   hi2c1.Init.NoStretchMode = I2C_NOSTRETCH_DISABLE;
 670              		.loc 1 365 28
 671 0034 0F4B     		ldr	r3, .L33
 672 0036 0022     		movs	r2, #0
 673 0038 1A62     		str	r2, [r3, #32]
 366:Core/Src/main.c ****   if (HAL_I2C_Init(&hi2c1) != HAL_OK)
 674              		.loc 1 366 7
 675 003a 0E48     		ldr	r0, .L33
 676 003c FFF7FEFF 		bl	HAL_I2C_Init
 677 0040 0346     		mov	r3, r0
 678              		.loc 1 366 6
 679 0042 002B     		cmp	r3, #0
 680 0044 01D0     		beq	.L29
 367:Core/Src/main.c ****   {
 368:Core/Src/main.c ****     Error_Handler();
 681              		.loc 1 368 5
 682 0046 FFF7FEFF 		bl	Error_Handler
 683              	.L29:
 369:Core/Src/main.c ****   }
 370:Core/Src/main.c **** 
 371:Core/Src/main.c ****   /** Configure Analogue filter
 372:Core/Src/main.c ****   */
 373:Core/Src/main.c ****   if (HAL_I2CEx_ConfigAnalogFilter(&hi2c1, I2C_ANALOGFILTER_ENABLE) != HAL_OK)
 684              		.loc 1 373 7
 685 004a 0021     		movs	r1, #0
 686 004c 0948     		ldr	r0, .L33
 687 004e FFF7FEFF 		bl	HAL_I2CEx_ConfigAnalogFilter
 688 0052 0346     		mov	r3, r0
 689              		.loc 1 373 6
 690 0054 002B     		cmp	r3, #0
 691 0056 01D0     		beq	.L30
 374:Core/Src/main.c ****   {
 375:Core/Src/main.c ****     Error_Handler();
 692              		.loc 1 375 5
 693 0058 FFF7FEFF 		bl	Error_Handler
 694              	.L30:
 376:Core/Src/main.c ****   }
ARM GAS  C:\Users\jisu8\AppData\Local\Temp\ccBLEEib.s 			page 20


 377:Core/Src/main.c **** 
 378:Core/Src/main.c ****   /** Configure Digital filter
 379:Core/Src/main.c ****   */
 380:Core/Src/main.c ****   if (HAL_I2CEx_ConfigDigitalFilter(&hi2c1, 0) != HAL_OK)
 695              		.loc 1 380 7
 696 005c 0021     		movs	r1, #0
 697 005e 0548     		ldr	r0, .L33
 698 0060 FFF7FEFF 		bl	HAL_I2CEx_ConfigDigitalFilter
 699 0064 0346     		mov	r3, r0
 700              		.loc 1 380 6
 701 0066 002B     		cmp	r3, #0
 702 0068 01D0     		beq	.L32
 381:Core/Src/main.c ****   {
 382:Core/Src/main.c ****     Error_Handler();
 703              		.loc 1 382 5
 704 006a FFF7FEFF 		bl	Error_Handler
 705              	.L32:
 383:Core/Src/main.c ****   }
 384:Core/Src/main.c ****   /* USER CODE BEGIN I2C1_Init 2 */
 385:Core/Src/main.c **** 
 386:Core/Src/main.c ****   /* USER CODE END I2C1_Init 2 */
 387:Core/Src/main.c **** 
 388:Core/Src/main.c **** }
 706              		.loc 1 388 1
 707 006e 00BF     		nop
 708 0070 80BD     		pop	{r7, pc}
 709              	.L34:
 710 0072 00BF     		.align	2
 711              	.L33:
 712 0074 00000000 		.word	hi2c1
 713 0078 00540040 		.word	1073763328
 714 007c FFEAC000 		.word	12643071
 715              		.cfi_endproc
 716              	.LFE155:
 718              		.section	.text.MX_I2C3_Init,"ax",%progbits
 719              		.align	1
 720              		.syntax unified
 721              		.thumb
 722              		.thumb_func
 724              	MX_I2C3_Init:
 725              	.LFB156:
 389:Core/Src/main.c **** 
 390:Core/Src/main.c **** /**
 391:Core/Src/main.c ****   * @brief I2C3 Initialization Function
 392:Core/Src/main.c ****   * @param None
 393:Core/Src/main.c ****   * @retval None
 394:Core/Src/main.c ****   */
 395:Core/Src/main.c **** static void MX_I2C3_Init(void)
 396:Core/Src/main.c **** {
 726              		.loc 1 396 1
 727              		.cfi_startproc
 728              		@ args = 0, pretend = 0, frame = 0
 729              		@ frame_needed = 1, uses_anonymous_args = 0
 730 0000 80B5     		push	{r7, lr}
 731              	.LCFI19:
 732              		.cfi_def_cfa_offset 8
 733              		.cfi_offset 7, -8
ARM GAS  C:\Users\jisu8\AppData\Local\Temp\ccBLEEib.s 			page 21


 734              		.cfi_offset 14, -4
 735 0002 00AF     		add	r7, sp, #0
 736              	.LCFI20:
 737              		.cfi_def_cfa_register 7
 397:Core/Src/main.c **** 
 398:Core/Src/main.c ****   /* USER CODE BEGIN I2C3_Init 0 */
 399:Core/Src/main.c **** 
 400:Core/Src/main.c ****   /* USER CODE END I2C3_Init 0 */
 401:Core/Src/main.c **** 
 402:Core/Src/main.c ****   /* USER CODE BEGIN I2C3_Init 1 */
 403:Core/Src/main.c **** 
 404:Core/Src/main.c ****   /* USER CODE END I2C3_Init 1 */
 405:Core/Src/main.c ****   hi2c3.Instance = I2C3;
 738              		.loc 1 405 18
 739 0004 1B4B     		ldr	r3, .L40
 740 0006 1C4A     		ldr	r2, .L40+4
 741 0008 1A60     		str	r2, [r3]
 406:Core/Src/main.c ****   hi2c3.Init.Timing = 0x00C0EAFF;
 742              		.loc 1 406 21
 743 000a 1A4B     		ldr	r3, .L40
 744 000c 1B4A     		ldr	r2, .L40+8
 745 000e 5A60     		str	r2, [r3, #4]
 407:Core/Src/main.c ****   hi2c3.Init.OwnAddress1 = 0;
 746              		.loc 1 407 26
 747 0010 184B     		ldr	r3, .L40
 748 0012 0022     		movs	r2, #0
 749 0014 9A60     		str	r2, [r3, #8]
 408:Core/Src/main.c ****   hi2c3.Init.AddressingMode = I2C_ADDRESSINGMODE_7BIT;
 750              		.loc 1 408 29
 751 0016 174B     		ldr	r3, .L40
 752 0018 0122     		movs	r2, #1
 753 001a DA60     		str	r2, [r3, #12]
 409:Core/Src/main.c ****   hi2c3.Init.DualAddressMode = I2C_DUALADDRESS_DISABLE;
 754              		.loc 1 409 30
 755 001c 154B     		ldr	r3, .L40
 756 001e 0022     		movs	r2, #0
 757 0020 1A61     		str	r2, [r3, #16]
 410:Core/Src/main.c ****   hi2c3.Init.OwnAddress2 = 0;
 758              		.loc 1 410 26
 759 0022 144B     		ldr	r3, .L40
 760 0024 0022     		movs	r2, #0
 761 0026 5A61     		str	r2, [r3, #20]
 411:Core/Src/main.c ****   hi2c3.Init.OwnAddress2Masks = I2C_OA2_NOMASK;
 762              		.loc 1 411 31
 763 0028 124B     		ldr	r3, .L40
 764 002a 0022     		movs	r2, #0
 765 002c 9A61     		str	r2, [r3, #24]
 412:Core/Src/main.c ****   hi2c3.Init.GeneralCallMode = I2C_GENERALCALL_DISABLE;
 766              		.loc 1 412 30
 767 002e 114B     		ldr	r3, .L40
 768 0030 0022     		movs	r2, #0
 769 0032 DA61     		str	r2, [r3, #28]
 413:Core/Src/main.c ****   hi2c3.Init.NoStretchMode = I2C_NOSTRETCH_DISABLE;
 770              		.loc 1 413 28
 771 0034 0F4B     		ldr	r3, .L40
 772 0036 0022     		movs	r2, #0
 773 0038 1A62     		str	r2, [r3, #32]
ARM GAS  C:\Users\jisu8\AppData\Local\Temp\ccBLEEib.s 			page 22


 414:Core/Src/main.c ****   if (HAL_I2C_Init(&hi2c3) != HAL_OK)
 774              		.loc 1 414 7
 775 003a 0E48     		ldr	r0, .L40
 776 003c FFF7FEFF 		bl	HAL_I2C_Init
 777 0040 0346     		mov	r3, r0
 778              		.loc 1 414 6
 779 0042 002B     		cmp	r3, #0
 780 0044 01D0     		beq	.L36
 415:Core/Src/main.c ****   {
 416:Core/Src/main.c ****     Error_Handler();
 781              		.loc 1 416 5
 782 0046 FFF7FEFF 		bl	Error_Handler
 783              	.L36:
 417:Core/Src/main.c ****   }
 418:Core/Src/main.c **** 
 419:Core/Src/main.c ****   /** Configure Analogue filter
 420:Core/Src/main.c ****   */
 421:Core/Src/main.c ****   if (HAL_I2CEx_ConfigAnalogFilter(&hi2c3, I2C_ANALOGFILTER_ENABLE) != HAL_OK)
 784              		.loc 1 421 7
 785 004a 0021     		movs	r1, #0
 786 004c 0948     		ldr	r0, .L40
 787 004e FFF7FEFF 		bl	HAL_I2CEx_ConfigAnalogFilter
 788 0052 0346     		mov	r3, r0
 789              		.loc 1 421 6
 790 0054 002B     		cmp	r3, #0
 791 0056 01D0     		beq	.L37
 422:Core/Src/main.c ****   {
 423:Core/Src/main.c ****     Error_Handler();
 792              		.loc 1 423 5
 793 0058 FFF7FEFF 		bl	Error_Handler
 794              	.L37:
 424:Core/Src/main.c ****   }
 425:Core/Src/main.c **** 
 426:Core/Src/main.c ****   /** Configure Digital filter
 427:Core/Src/main.c ****   */
 428:Core/Src/main.c ****   if (HAL_I2CEx_ConfigDigitalFilter(&hi2c3, 0) != HAL_OK)
 795              		.loc 1 428 7
 796 005c 0021     		movs	r1, #0
 797 005e 0548     		ldr	r0, .L40
 798 0060 FFF7FEFF 		bl	HAL_I2CEx_ConfigDigitalFilter
 799 0064 0346     		mov	r3, r0
 800              		.loc 1 428 6
 801 0066 002B     		cmp	r3, #0
 802 0068 01D0     		beq	.L39
 429:Core/Src/main.c ****   {
 430:Core/Src/main.c ****     Error_Handler();
 803              		.loc 1 430 5
 804 006a FFF7FEFF 		bl	Error_Handler
 805              	.L39:
 431:Core/Src/main.c ****   }
 432:Core/Src/main.c ****   /* USER CODE BEGIN I2C3_Init 2 */
 433:Core/Src/main.c **** 
 434:Core/Src/main.c ****   /* USER CODE END I2C3_Init 2 */
 435:Core/Src/main.c **** 
 436:Core/Src/main.c **** }
 806              		.loc 1 436 1
 807 006e 00BF     		nop
ARM GAS  C:\Users\jisu8\AppData\Local\Temp\ccBLEEib.s 			page 23


 808 0070 80BD     		pop	{r7, pc}
 809              	.L41:
 810 0072 00BF     		.align	2
 811              	.L40:
 812 0074 00000000 		.word	hi2c3
 813 0078 005C0040 		.word	1073765376
 814 007c FFEAC000 		.word	12643071
 815              		.cfi_endproc
 816              	.LFE156:
 818              		.section	.text.MX_LTDC_Init,"ax",%progbits
 819              		.align	1
 820              		.syntax unified
 821              		.thumb
 822              		.thumb_func
 824              	MX_LTDC_Init:
 825              	.LFB157:
 437:Core/Src/main.c **** 
 438:Core/Src/main.c **** /**
 439:Core/Src/main.c ****   * @brief LTDC Initialization Function
 440:Core/Src/main.c ****   * @param None
 441:Core/Src/main.c ****   * @retval None
 442:Core/Src/main.c ****   */
 443:Core/Src/main.c **** static void MX_LTDC_Init(void)
 444:Core/Src/main.c **** {
 826              		.loc 1 444 1
 827              		.cfi_startproc
 828              		@ args = 0, pretend = 0, frame = 56
 829              		@ frame_needed = 1, uses_anonymous_args = 0
 830 0000 80B5     		push	{r7, lr}
 831              	.LCFI21:
 832              		.cfi_def_cfa_offset 8
 833              		.cfi_offset 7, -8
 834              		.cfi_offset 14, -4
 835 0002 8EB0     		sub	sp, sp, #56
 836              	.LCFI22:
 837              		.cfi_def_cfa_offset 64
 838 0004 00AF     		add	r7, sp, #0
 839              	.LCFI23:
 840              		.cfi_def_cfa_register 7
 445:Core/Src/main.c **** 
 446:Core/Src/main.c ****   /* USER CODE BEGIN LTDC_Init 0 */
 447:Core/Src/main.c **** 
 448:Core/Src/main.c ****   /* USER CODE END LTDC_Init 0 */
 449:Core/Src/main.c **** 
 450:Core/Src/main.c ****   LTDC_LayerCfgTypeDef pLayerCfg = {0};
 841              		.loc 1 450 24
 842 0006 3B1D     		adds	r3, r7, #4
 843 0008 3422     		movs	r2, #52
 844 000a 0021     		movs	r1, #0
 845 000c 1846     		mov	r0, r3
 846 000e FFF7FEFF 		bl	memset
 451:Core/Src/main.c **** 
 452:Core/Src/main.c ****   /* USER CODE BEGIN LTDC_Init 1 */
 453:Core/Src/main.c **** 
 454:Core/Src/main.c ****   /* USER CODE END LTDC_Init 1 */
 455:Core/Src/main.c ****   hltdc.Instance = LTDC;
 847              		.loc 1 455 18
ARM GAS  C:\Users\jisu8\AppData\Local\Temp\ccBLEEib.s 			page 24


 848 0012 3A4B     		ldr	r3, .L46
 849 0014 3A4A     		ldr	r2, .L46+4
 850 0016 1A60     		str	r2, [r3]
 456:Core/Src/main.c ****   hltdc.Init.HSPolarity = LTDC_HSPOLARITY_AL;
 851              		.loc 1 456 25
 852 0018 384B     		ldr	r3, .L46
 853 001a 0022     		movs	r2, #0
 854 001c 5A60     		str	r2, [r3, #4]
 457:Core/Src/main.c ****   hltdc.Init.VSPolarity = LTDC_VSPOLARITY_AL;
 855              		.loc 1 457 25
 856 001e 374B     		ldr	r3, .L46
 857 0020 0022     		movs	r2, #0
 858 0022 9A60     		str	r2, [r3, #8]
 458:Core/Src/main.c ****   hltdc.Init.DEPolarity = LTDC_DEPOLARITY_AL;
 859              		.loc 1 458 25
 860 0024 354B     		ldr	r3, .L46
 861 0026 0022     		movs	r2, #0
 862 0028 DA60     		str	r2, [r3, #12]
 459:Core/Src/main.c ****   hltdc.Init.PCPolarity = LTDC_PCPOLARITY_IPC;
 863              		.loc 1 459 25
 864 002a 344B     		ldr	r3, .L46
 865 002c 0022     		movs	r2, #0
 866 002e 1A61     		str	r2, [r3, #16]
 460:Core/Src/main.c ****   hltdc.Init.HorizontalSync = 40;
 867              		.loc 1 460 29
 868 0030 324B     		ldr	r3, .L46
 869 0032 2822     		movs	r2, #40
 870 0034 5A61     		str	r2, [r3, #20]
 461:Core/Src/main.c ****   hltdc.Init.VerticalSync = 9;
 871              		.loc 1 461 27
 872 0036 314B     		ldr	r3, .L46
 873 0038 0922     		movs	r2, #9
 874 003a 9A61     		str	r2, [r3, #24]
 462:Core/Src/main.c ****   hltdc.Init.AccumulatedHBP = 53;
 875              		.loc 1 462 29
 876 003c 2F4B     		ldr	r3, .L46
 877 003e 3522     		movs	r2, #53
 878 0040 DA61     		str	r2, [r3, #28]
 463:Core/Src/main.c ****   hltdc.Init.AccumulatedVBP = 11;
 879              		.loc 1 463 29
 880 0042 2E4B     		ldr	r3, .L46
 881 0044 0B22     		movs	r2, #11
 882 0046 1A62     		str	r2, [r3, #32]
 464:Core/Src/main.c ****   hltdc.Init.AccumulatedActiveW = 533;
 883              		.loc 1 464 33
 884 0048 2C4B     		ldr	r3, .L46
 885 004a 40F21522 		movw	r2, #533
 886 004e 5A62     		str	r2, [r3, #36]
 465:Core/Src/main.c ****   hltdc.Init.AccumulatedActiveH = 283;
 887              		.loc 1 465 33
 888 0050 2A4B     		ldr	r3, .L46
 889 0052 40F21B12 		movw	r2, #283
 890 0056 9A62     		str	r2, [r3, #40]
 466:Core/Src/main.c ****   hltdc.Init.TotalWidth = 565;
 891              		.loc 1 466 25
 892 0058 284B     		ldr	r3, .L46
 893 005a 40F23522 		movw	r2, #565
ARM GAS  C:\Users\jisu8\AppData\Local\Temp\ccBLEEib.s 			page 25


 894 005e DA62     		str	r2, [r3, #44]
 467:Core/Src/main.c ****   hltdc.Init.TotalHeigh = 285;
 895              		.loc 1 467 25
 896 0060 264B     		ldr	r3, .L46
 897 0062 40F21D12 		movw	r2, #285
 898 0066 1A63     		str	r2, [r3, #48]
 468:Core/Src/main.c ****   hltdc.Init.Backcolor.Blue = 0;
 899              		.loc 1 468 29
 900 0068 244B     		ldr	r3, .L46
 901 006a 0022     		movs	r2, #0
 902 006c 83F83420 		strb	r2, [r3, #52]
 469:Core/Src/main.c ****   hltdc.Init.Backcolor.Green = 0;
 903              		.loc 1 469 30
 904 0070 224B     		ldr	r3, .L46
 905 0072 0022     		movs	r2, #0
 906 0074 83F83520 		strb	r2, [r3, #53]
 470:Core/Src/main.c ****   hltdc.Init.Backcolor.Red = 0;
 907              		.loc 1 470 28
 908 0078 204B     		ldr	r3, .L46
 909 007a 0022     		movs	r2, #0
 910 007c 83F83620 		strb	r2, [r3, #54]
 471:Core/Src/main.c ****   if (HAL_LTDC_Init(&hltdc) != HAL_OK)
 911              		.loc 1 471 7
 912 0080 1E48     		ldr	r0, .L46
 913 0082 FFF7FEFF 		bl	HAL_LTDC_Init
 914 0086 0346     		mov	r3, r0
 915              		.loc 1 471 6
 916 0088 002B     		cmp	r3, #0
 917 008a 01D0     		beq	.L43
 472:Core/Src/main.c ****   {
 473:Core/Src/main.c ****     Error_Handler();
 918              		.loc 1 473 5
 919 008c FFF7FEFF 		bl	Error_Handler
 920              	.L43:
 474:Core/Src/main.c ****   }
 475:Core/Src/main.c ****   pLayerCfg.WindowX0 = 0;
 921              		.loc 1 475 22
 922 0090 0023     		movs	r3, #0
 923 0092 7B60     		str	r3, [r7, #4]
 476:Core/Src/main.c ****   pLayerCfg.WindowX1 = 480;
 924              		.loc 1 476 22
 925 0094 4FF4F073 		mov	r3, #480
 926 0098 BB60     		str	r3, [r7, #8]
 477:Core/Src/main.c ****   pLayerCfg.WindowY0 = 0;
 927              		.loc 1 477 22
 928 009a 0023     		movs	r3, #0
 929 009c FB60     		str	r3, [r7, #12]
 478:Core/Src/main.c ****   pLayerCfg.WindowY1 = 272;
 930              		.loc 1 478 22
 931 009e 4FF48873 		mov	r3, #272
 932 00a2 3B61     		str	r3, [r7, #16]
 479:Core/Src/main.c ****   pLayerCfg.PixelFormat = LTDC_PIXEL_FORMAT_ARGB8888;
 933              		.loc 1 479 25
 934 00a4 0023     		movs	r3, #0
 935 00a6 7B61     		str	r3, [r7, #20]
 480:Core/Src/main.c ****   pLayerCfg.Alpha = 255;
 936              		.loc 1 480 19
ARM GAS  C:\Users\jisu8\AppData\Local\Temp\ccBLEEib.s 			page 26


 937 00a8 FF23     		movs	r3, #255
 938 00aa BB61     		str	r3, [r7, #24]
 481:Core/Src/main.c ****   pLayerCfg.Alpha0 = 0;
 939              		.loc 1 481 20
 940 00ac 0023     		movs	r3, #0
 941 00ae FB61     		str	r3, [r7, #28]
 482:Core/Src/main.c ****   pLayerCfg.BlendingFactor1 = LTDC_BLENDING_FACTOR1_PAxCA;
 942              		.loc 1 482 29
 943 00b0 4FF4C063 		mov	r3, #1536
 944 00b4 3B62     		str	r3, [r7, #32]
 483:Core/Src/main.c ****   pLayerCfg.BlendingFactor2 = LTDC_BLENDING_FACTOR2_PAxCA;
 945              		.loc 1 483 29
 946 00b6 0723     		movs	r3, #7
 947 00b8 7B62     		str	r3, [r7, #36]
 484:Core/Src/main.c ****   pLayerCfg.FBStartAdress = 0xC0000000;
 948              		.loc 1 484 27
 949 00ba 4FF04043 		mov	r3, #-1073741824
 950 00be BB62     		str	r3, [r7, #40]
 485:Core/Src/main.c ****   pLayerCfg.ImageWidth = 480;
 951              		.loc 1 485 24
 952 00c0 4FF4F073 		mov	r3, #480
 953 00c4 FB62     		str	r3, [r7, #44]
 486:Core/Src/main.c ****   pLayerCfg.ImageHeight = 272;
 954              		.loc 1 486 25
 955 00c6 4FF48873 		mov	r3, #272
 956 00ca 3B63     		str	r3, [r7, #48]
 487:Core/Src/main.c ****   pLayerCfg.Backcolor.Blue = 0;
 957              		.loc 1 487 28
 958 00cc 0023     		movs	r3, #0
 959 00ce 87F83430 		strb	r3, [r7, #52]
 488:Core/Src/main.c ****   pLayerCfg.Backcolor.Green = 0;
 960              		.loc 1 488 29
 961 00d2 0023     		movs	r3, #0
 962 00d4 87F83530 		strb	r3, [r7, #53]
 489:Core/Src/main.c ****   pLayerCfg.Backcolor.Red = 0;
 963              		.loc 1 489 27
 964 00d8 0023     		movs	r3, #0
 965 00da 87F83630 		strb	r3, [r7, #54]
 490:Core/Src/main.c ****   if (HAL_LTDC_ConfigLayer(&hltdc, &pLayerCfg, 0) != HAL_OK)
 966              		.loc 1 490 7
 967 00de 3B1D     		adds	r3, r7, #4
 968 00e0 0022     		movs	r2, #0
 969 00e2 1946     		mov	r1, r3
 970 00e4 0548     		ldr	r0, .L46
 971 00e6 FFF7FEFF 		bl	HAL_LTDC_ConfigLayer
 972 00ea 0346     		mov	r3, r0
 973              		.loc 1 490 6
 974 00ec 002B     		cmp	r3, #0
 975 00ee 01D0     		beq	.L45
 491:Core/Src/main.c ****   {
 492:Core/Src/main.c ****     Error_Handler();
 976              		.loc 1 492 5
 977 00f0 FFF7FEFF 		bl	Error_Handler
 978              	.L45:
 493:Core/Src/main.c ****   }
 494:Core/Src/main.c ****   /* USER CODE BEGIN LTDC_Init 2 */
 495:Core/Src/main.c **** 
ARM GAS  C:\Users\jisu8\AppData\Local\Temp\ccBLEEib.s 			page 27


 496:Core/Src/main.c ****   /* USER CODE END LTDC_Init 2 */
 497:Core/Src/main.c **** 
 498:Core/Src/main.c **** }
 979              		.loc 1 498 1
 980 00f4 00BF     		nop
 981 00f6 3837     		adds	r7, r7, #56
 982              	.LCFI24:
 983              		.cfi_def_cfa_offset 8
 984 00f8 BD46     		mov	sp, r7
 985              	.LCFI25:
 986              		.cfi_def_cfa_register 13
 987              		@ sp needed
 988 00fa 80BD     		pop	{r7, pc}
 989              	.L47:
 990              		.align	2
 991              	.L46:
 992 00fc 00000000 		.word	hltdc
 993 0100 00680140 		.word	1073833984
 994              		.cfi_endproc
 995              	.LFE157:
 997              		.section	.text.MX_QUADSPI_Init,"ax",%progbits
 998              		.align	1
 999              		.syntax unified
 1000              		.thumb
 1001              		.thumb_func
 1003              	MX_QUADSPI_Init:
 1004              	.LFB158:
 499:Core/Src/main.c **** 
 500:Core/Src/main.c **** /**
 501:Core/Src/main.c ****   * @brief QUADSPI Initialization Function
 502:Core/Src/main.c ****   * @param None
 503:Core/Src/main.c ****   * @retval None
 504:Core/Src/main.c ****   */
 505:Core/Src/main.c **** static void MX_QUADSPI_Init(void)
 506:Core/Src/main.c **** {
 1005              		.loc 1 506 1
 1006              		.cfi_startproc
 1007              		@ args = 0, pretend = 0, frame = 0
 1008              		@ frame_needed = 1, uses_anonymous_args = 0
 1009 0000 80B5     		push	{r7, lr}
 1010              	.LCFI26:
 1011              		.cfi_def_cfa_offset 8
 1012              		.cfi_offset 7, -8
 1013              		.cfi_offset 14, -4
 1014 0002 00AF     		add	r7, sp, #0
 1015              	.LCFI27:
 1016              		.cfi_def_cfa_register 7
 507:Core/Src/main.c **** 
 508:Core/Src/main.c ****   /* USER CODE BEGIN QUADSPI_Init 0 */
 509:Core/Src/main.c **** 
 510:Core/Src/main.c ****   /* USER CODE END QUADSPI_Init 0 */
 511:Core/Src/main.c **** 
 512:Core/Src/main.c ****   /* USER CODE BEGIN QUADSPI_Init 1 */
 513:Core/Src/main.c **** 
 514:Core/Src/main.c ****   /* USER CODE END QUADSPI_Init 1 */
 515:Core/Src/main.c ****   /* QUADSPI parameter configuration*/
 516:Core/Src/main.c ****   hqspi.Instance = QUADSPI;
ARM GAS  C:\Users\jisu8\AppData\Local\Temp\ccBLEEib.s 			page 28


 1017              		.loc 1 516 18
 1018 0004 124B     		ldr	r3, .L51
 1019 0006 134A     		ldr	r2, .L51+4
 1020 0008 1A60     		str	r2, [r3]
 517:Core/Src/main.c ****   hqspi.Init.ClockPrescaler = 1;
 1021              		.loc 1 517 29
 1022 000a 114B     		ldr	r3, .L51
 1023 000c 0122     		movs	r2, #1
 1024 000e 5A60     		str	r2, [r3, #4]
 518:Core/Src/main.c ****   hqspi.Init.FifoThreshold = 4;
 1025              		.loc 1 518 28
 1026 0010 0F4B     		ldr	r3, .L51
 1027 0012 0422     		movs	r2, #4
 1028 0014 9A60     		str	r2, [r3, #8]
 519:Core/Src/main.c ****   hqspi.Init.SampleShifting = QSPI_SAMPLE_SHIFTING_HALFCYCLE;
 1029              		.loc 1 519 29
 1030 0016 0E4B     		ldr	r3, .L51
 1031 0018 1022     		movs	r2, #16
 1032 001a DA60     		str	r2, [r3, #12]
 520:Core/Src/main.c ****   hqspi.Init.FlashSize = 24;
 1033              		.loc 1 520 24
 1034 001c 0C4B     		ldr	r3, .L51
 1035 001e 1822     		movs	r2, #24
 1036 0020 1A61     		str	r2, [r3, #16]
 521:Core/Src/main.c ****   hqspi.Init.ChipSelectHighTime = QSPI_CS_HIGH_TIME_6_CYCLE;
 1037              		.loc 1 521 33
 1038 0022 0B4B     		ldr	r3, .L51
 1039 0024 4FF4A062 		mov	r2, #1280
 1040 0028 5A61     		str	r2, [r3, #20]
 522:Core/Src/main.c ****   hqspi.Init.ClockMode = QSPI_CLOCK_MODE_0;
 1041              		.loc 1 522 24
 1042 002a 094B     		ldr	r3, .L51
 1043 002c 0022     		movs	r2, #0
 1044 002e 9A61     		str	r2, [r3, #24]
 523:Core/Src/main.c ****   hqspi.Init.FlashID = QSPI_FLASH_ID_1;
 1045              		.loc 1 523 22
 1046 0030 074B     		ldr	r3, .L51
 1047 0032 0022     		movs	r2, #0
 1048 0034 DA61     		str	r2, [r3, #28]
 524:Core/Src/main.c ****   hqspi.Init.DualFlash = QSPI_DUALFLASH_DISABLE;
 1049              		.loc 1 524 24
 1050 0036 064B     		ldr	r3, .L51
 1051 0038 0022     		movs	r2, #0
 1052 003a 1A62     		str	r2, [r3, #32]
 525:Core/Src/main.c ****   if (HAL_QSPI_Init(&hqspi) != HAL_OK)
 1053              		.loc 1 525 7
 1054 003c 0448     		ldr	r0, .L51
 1055 003e FFF7FEFF 		bl	HAL_QSPI_Init
 1056 0042 0346     		mov	r3, r0
 1057              		.loc 1 525 6
 1058 0044 002B     		cmp	r3, #0
 1059 0046 01D0     		beq	.L50
 526:Core/Src/main.c ****   {
 527:Core/Src/main.c ****     Error_Handler();
 1060              		.loc 1 527 5
 1061 0048 FFF7FEFF 		bl	Error_Handler
 1062              	.L50:
ARM GAS  C:\Users\jisu8\AppData\Local\Temp\ccBLEEib.s 			page 29


 528:Core/Src/main.c ****   }
 529:Core/Src/main.c ****   /* USER CODE BEGIN QUADSPI_Init 2 */
 530:Core/Src/main.c **** 
 531:Core/Src/main.c ****   /* USER CODE END QUADSPI_Init 2 */
 532:Core/Src/main.c **** 
 533:Core/Src/main.c **** }
 1063              		.loc 1 533 1
 1064 004c 00BF     		nop
 1065 004e 80BD     		pop	{r7, pc}
 1066              	.L52:
 1067              		.align	2
 1068              	.L51:
 1069 0050 00000000 		.word	hqspi
 1070 0054 001000A0 		.word	-1610608640
 1071              		.cfi_endproc
 1072              	.LFE158:
 1074              		.section	.text.MX_SDMMC1_SD_Init,"ax",%progbits
 1075              		.align	1
 1076              		.syntax unified
 1077              		.thumb
 1078              		.thumb_func
 1080              	MX_SDMMC1_SD_Init:
 1081              	.LFB159:
 534:Core/Src/main.c **** 
 535:Core/Src/main.c **** /**
 536:Core/Src/main.c ****   * @brief SDMMC1 Initialization Function
 537:Core/Src/main.c ****   * @param None
 538:Core/Src/main.c ****   * @retval None
 539:Core/Src/main.c ****   */
 540:Core/Src/main.c **** static void MX_SDMMC1_SD_Init(void)
 541:Core/Src/main.c **** {
 1082              		.loc 1 541 1
 1083              		.cfi_startproc
 1084              		@ args = 0, pretend = 0, frame = 0
 1085              		@ frame_needed = 1, uses_anonymous_args = 0
 1086              		@ link register save eliminated.
 1087 0000 80B4     		push	{r7}
 1088              	.LCFI28:
 1089              		.cfi_def_cfa_offset 4
 1090              		.cfi_offset 7, -4
 1091 0002 00AF     		add	r7, sp, #0
 1092              	.LCFI29:
 1093              		.cfi_def_cfa_register 7
 542:Core/Src/main.c **** 
 543:Core/Src/main.c ****   /* USER CODE BEGIN SDMMC1_Init 0 */
 544:Core/Src/main.c **** 
 545:Core/Src/main.c ****   /* USER CODE END SDMMC1_Init 0 */
 546:Core/Src/main.c **** 
 547:Core/Src/main.c ****   /* USER CODE BEGIN SDMMC1_Init 1 */
 548:Core/Src/main.c **** 
 549:Core/Src/main.c ****   /* USER CODE END SDMMC1_Init 1 */
 550:Core/Src/main.c ****   hsd1.Instance = SDMMC1;
 1094              		.loc 1 550 17
 1095 0004 0C4B     		ldr	r3, .L54
 1096 0006 0D4A     		ldr	r2, .L54+4
 1097 0008 1A60     		str	r2, [r3]
 551:Core/Src/main.c ****   hsd1.Init.ClockEdge = SDMMC_CLOCK_EDGE_RISING;
ARM GAS  C:\Users\jisu8\AppData\Local\Temp\ccBLEEib.s 			page 30


 1098              		.loc 1 551 23
 1099 000a 0B4B     		ldr	r3, .L54
 1100 000c 0022     		movs	r2, #0
 1101 000e 5A60     		str	r2, [r3, #4]
 552:Core/Src/main.c ****   hsd1.Init.ClockBypass = SDMMC_CLOCK_BYPASS_DISABLE;
 1102              		.loc 1 552 25
 1103 0010 094B     		ldr	r3, .L54
 1104 0012 0022     		movs	r2, #0
 1105 0014 9A60     		str	r2, [r3, #8]
 553:Core/Src/main.c ****   hsd1.Init.ClockPowerSave = SDMMC_CLOCK_POWER_SAVE_DISABLE;
 1106              		.loc 1 553 28
 1107 0016 084B     		ldr	r3, .L54
 1108 0018 0022     		movs	r2, #0
 1109 001a DA60     		str	r2, [r3, #12]
 554:Core/Src/main.c ****   hsd1.Init.BusWide = SDMMC_BUS_WIDE_1B;
 1110              		.loc 1 554 21
 1111 001c 064B     		ldr	r3, .L54
 1112 001e 0022     		movs	r2, #0
 1113 0020 1A61     		str	r2, [r3, #16]
 555:Core/Src/main.c ****   hsd1.Init.HardwareFlowControl = SDMMC_HARDWARE_FLOW_CONTROL_DISABLE;
 1114              		.loc 1 555 33
 1115 0022 054B     		ldr	r3, .L54
 1116 0024 0022     		movs	r2, #0
 1117 0026 5A61     		str	r2, [r3, #20]
 556:Core/Src/main.c ****   hsd1.Init.ClockDiv = 0;
 1118              		.loc 1 556 22
 1119 0028 034B     		ldr	r3, .L54
 1120 002a 0022     		movs	r2, #0
 1121 002c 9A61     		str	r2, [r3, #24]
 557:Core/Src/main.c ****   /* USER CODE BEGIN SDMMC1_Init 2 */
 558:Core/Src/main.c **** 
 559:Core/Src/main.c ****   /* USER CODE END SDMMC1_Init 2 */
 560:Core/Src/main.c **** 
 561:Core/Src/main.c **** }
 1122              		.loc 1 561 1
 1123 002e 00BF     		nop
 1124 0030 BD46     		mov	sp, r7
 1125              	.LCFI30:
 1126              		.cfi_def_cfa_register 13
 1127              		@ sp needed
 1128 0032 5DF8047B 		ldr	r7, [sp], #4
 1129              	.LCFI31:
 1130              		.cfi_restore 7
 1131              		.cfi_def_cfa_offset 0
 1132 0036 7047     		bx	lr
 1133              	.L55:
 1134              		.align	2
 1135              	.L54:
 1136 0038 00000000 		.word	hsd1
 1137 003c 002C0140 		.word	1073818624
 1138              		.cfi_endproc
 1139              	.LFE159:
 1141              		.section	.text.MX_SPI2_Init,"ax",%progbits
 1142              		.align	1
 1143              		.syntax unified
 1144              		.thumb
 1145              		.thumb_func
ARM GAS  C:\Users\jisu8\AppData\Local\Temp\ccBLEEib.s 			page 31


 1147              	MX_SPI2_Init:
 1148              	.LFB160:
 562:Core/Src/main.c **** 
 563:Core/Src/main.c **** /**
 564:Core/Src/main.c ****   * @brief SPI2 Initialization Function
 565:Core/Src/main.c ****   * @param None
 566:Core/Src/main.c ****   * @retval None
 567:Core/Src/main.c ****   */
 568:Core/Src/main.c **** static void MX_SPI2_Init(void)
 569:Core/Src/main.c **** {
 1149              		.loc 1 569 1
 1150              		.cfi_startproc
 1151              		@ args = 0, pretend = 0, frame = 0
 1152              		@ frame_needed = 1, uses_anonymous_args = 0
 1153 0000 80B5     		push	{r7, lr}
 1154              	.LCFI32:
 1155              		.cfi_def_cfa_offset 8
 1156              		.cfi_offset 7, -8
 1157              		.cfi_offset 14, -4
 1158 0002 00AF     		add	r7, sp, #0
 1159              	.LCFI33:
 1160              		.cfi_def_cfa_register 7
 570:Core/Src/main.c **** 
 571:Core/Src/main.c ****   /* USER CODE BEGIN SPI2_Init 0 */
 572:Core/Src/main.c **** 
 573:Core/Src/main.c ****   /* USER CODE END SPI2_Init 0 */
 574:Core/Src/main.c **** 
 575:Core/Src/main.c ****   /* USER CODE BEGIN SPI2_Init 1 */
 576:Core/Src/main.c **** 
 577:Core/Src/main.c ****   /* USER CODE END SPI2_Init 1 */
 578:Core/Src/main.c ****   /* SPI2 parameter configuration*/
 579:Core/Src/main.c ****   hspi2.Instance = SPI2;
 1161              		.loc 1 579 18
 1162 0004 1B4B     		ldr	r3, .L59
 1163 0006 1C4A     		ldr	r2, .L59+4
 1164 0008 1A60     		str	r2, [r3]
 580:Core/Src/main.c ****   hspi2.Init.Mode = SPI_MODE_MASTER;
 1165              		.loc 1 580 19
 1166 000a 1A4B     		ldr	r3, .L59
 1167 000c 4FF48272 		mov	r2, #260
 1168 0010 5A60     		str	r2, [r3, #4]
 581:Core/Src/main.c ****   hspi2.Init.Direction = SPI_DIRECTION_2LINES;
 1169              		.loc 1 581 24
 1170 0012 184B     		ldr	r3, .L59
 1171 0014 0022     		movs	r2, #0
 1172 0016 9A60     		str	r2, [r3, #8]
 582:Core/Src/main.c ****   hspi2.Init.DataSize = SPI_DATASIZE_4BIT;
 1173              		.loc 1 582 23
 1174 0018 164B     		ldr	r3, .L59
 1175 001a 4FF44072 		mov	r2, #768
 1176 001e DA60     		str	r2, [r3, #12]
 583:Core/Src/main.c ****   hspi2.Init.CLKPolarity = SPI_POLARITY_LOW;
 1177              		.loc 1 583 26
 1178 0020 144B     		ldr	r3, .L59
 1179 0022 0022     		movs	r2, #0
 1180 0024 1A61     		str	r2, [r3, #16]
 584:Core/Src/main.c ****   hspi2.Init.CLKPhase = SPI_PHASE_1EDGE;
ARM GAS  C:\Users\jisu8\AppData\Local\Temp\ccBLEEib.s 			page 32


 1181              		.loc 1 584 23
 1182 0026 134B     		ldr	r3, .L59
 1183 0028 0022     		movs	r2, #0
 1184 002a 5A61     		str	r2, [r3, #20]
 585:Core/Src/main.c ****   hspi2.Init.NSS = SPI_NSS_SOFT;
 1185              		.loc 1 585 18
 1186 002c 114B     		ldr	r3, .L59
 1187 002e 4FF40072 		mov	r2, #512
 1188 0032 9A61     		str	r2, [r3, #24]
 586:Core/Src/main.c ****   hspi2.Init.BaudRatePrescaler = SPI_BAUDRATEPRESCALER_2;
 1189              		.loc 1 586 32
 1190 0034 0F4B     		ldr	r3, .L59
 1191 0036 0022     		movs	r2, #0
 1192 0038 DA61     		str	r2, [r3, #28]
 587:Core/Src/main.c ****   hspi2.Init.FirstBit = SPI_FIRSTBIT_MSB;
 1193              		.loc 1 587 23
 1194 003a 0E4B     		ldr	r3, .L59
 1195 003c 0022     		movs	r2, #0
 1196 003e 1A62     		str	r2, [r3, #32]
 588:Core/Src/main.c ****   hspi2.Init.TIMode = SPI_TIMODE_DISABLE;
 1197              		.loc 1 588 21
 1198 0040 0C4B     		ldr	r3, .L59
 1199 0042 0022     		movs	r2, #0
 1200 0044 5A62     		str	r2, [r3, #36]
 589:Core/Src/main.c ****   hspi2.Init.CRCCalculation = SPI_CRCCALCULATION_DISABLE;
 1201              		.loc 1 589 29
 1202 0046 0B4B     		ldr	r3, .L59
 1203 0048 0022     		movs	r2, #0
 1204 004a 9A62     		str	r2, [r3, #40]
 590:Core/Src/main.c ****   hspi2.Init.CRCPolynomial = 7;
 1205              		.loc 1 590 28
 1206 004c 094B     		ldr	r3, .L59
 1207 004e 0722     		movs	r2, #7
 1208 0050 DA62     		str	r2, [r3, #44]
 591:Core/Src/main.c ****   hspi2.Init.CRCLength = SPI_CRC_LENGTH_DATASIZE;
 1209              		.loc 1 591 24
 1210 0052 084B     		ldr	r3, .L59
 1211 0054 0022     		movs	r2, #0
 1212 0056 1A63     		str	r2, [r3, #48]
 592:Core/Src/main.c ****   hspi2.Init.NSSPMode = SPI_NSS_PULSE_ENABLE;
 1213              		.loc 1 592 23
 1214 0058 064B     		ldr	r3, .L59
 1215 005a 0822     		movs	r2, #8
 1216 005c 5A63     		str	r2, [r3, #52]
 593:Core/Src/main.c ****   if (HAL_SPI_Init(&hspi2) != HAL_OK)
 1217              		.loc 1 593 7
 1218 005e 0548     		ldr	r0, .L59
 1219 0060 FFF7FEFF 		bl	HAL_SPI_Init
 1220 0064 0346     		mov	r3, r0
 1221              		.loc 1 593 6
 1222 0066 002B     		cmp	r3, #0
 1223 0068 01D0     		beq	.L58
 594:Core/Src/main.c ****   {
 595:Core/Src/main.c ****     Error_Handler();
 1224              		.loc 1 595 5
 1225 006a FFF7FEFF 		bl	Error_Handler
 1226              	.L58:
ARM GAS  C:\Users\jisu8\AppData\Local\Temp\ccBLEEib.s 			page 33


 596:Core/Src/main.c ****   }
 597:Core/Src/main.c ****   /* USER CODE BEGIN SPI2_Init 2 */
 598:Core/Src/main.c **** 
 599:Core/Src/main.c ****   /* USER CODE END SPI2_Init 2 */
 600:Core/Src/main.c **** 
 601:Core/Src/main.c **** }
 1227              		.loc 1 601 1
 1228 006e 00BF     		nop
 1229 0070 80BD     		pop	{r7, pc}
 1230              	.L60:
 1231 0072 00BF     		.align	2
 1232              	.L59:
 1233 0074 00000000 		.word	hspi2
 1234 0078 00380040 		.word	1073756160
 1235              		.cfi_endproc
 1236              	.LFE160:
 1238              		.section	.text.MX_USART1_UART_Init,"ax",%progbits
 1239              		.align	1
 1240              		.syntax unified
 1241              		.thumb
 1242              		.thumb_func
 1244              	MX_USART1_UART_Init:
 1245              	.LFB161:
 602:Core/Src/main.c **** 
 603:Core/Src/main.c **** /**
 604:Core/Src/main.c ****   * @brief USART1 Initialization Function
 605:Core/Src/main.c ****   * @param None
 606:Core/Src/main.c ****   * @retval None
 607:Core/Src/main.c ****   */
 608:Core/Src/main.c **** static void MX_USART1_UART_Init(void)
 609:Core/Src/main.c **** {
 1246              		.loc 1 609 1
 1247              		.cfi_startproc
 1248              		@ args = 0, pretend = 0, frame = 0
 1249              		@ frame_needed = 1, uses_anonymous_args = 0
 1250 0000 80B5     		push	{r7, lr}
 1251              	.LCFI34:
 1252              		.cfi_def_cfa_offset 8
 1253              		.cfi_offset 7, -8
 1254              		.cfi_offset 14, -4
 1255 0002 00AF     		add	r7, sp, #0
 1256              	.LCFI35:
 1257              		.cfi_def_cfa_register 7
 610:Core/Src/main.c **** 
 611:Core/Src/main.c ****   /* USER CODE BEGIN USART1_Init 0 */
 612:Core/Src/main.c **** 
 613:Core/Src/main.c ****   /* USER CODE END USART1_Init 0 */
 614:Core/Src/main.c **** 
 615:Core/Src/main.c ****   /* USER CODE BEGIN USART1_Init 1 */
 616:Core/Src/main.c **** 
 617:Core/Src/main.c ****   /* USER CODE END USART1_Init 1 */
 618:Core/Src/main.c ****   huart1.Instance = USART1;
 1258              		.loc 1 618 19
 1259 0004 144B     		ldr	r3, .L64
 1260 0006 154A     		ldr	r2, .L64+4
 1261 0008 1A60     		str	r2, [r3]
 619:Core/Src/main.c ****   huart1.Init.BaudRate = 115200;
ARM GAS  C:\Users\jisu8\AppData\Local\Temp\ccBLEEib.s 			page 34


 1262              		.loc 1 619 24
 1263 000a 134B     		ldr	r3, .L64
 1264 000c 4FF4E132 		mov	r2, #115200
 1265 0010 5A60     		str	r2, [r3, #4]
 620:Core/Src/main.c ****   huart1.Init.WordLength = UART_WORDLENGTH_8B;
 1266              		.loc 1 620 26
 1267 0012 114B     		ldr	r3, .L64
 1268 0014 0022     		movs	r2, #0
 1269 0016 9A60     		str	r2, [r3, #8]
 621:Core/Src/main.c ****   huart1.Init.StopBits = UART_STOPBITS_1;
 1270              		.loc 1 621 24
 1271 0018 0F4B     		ldr	r3, .L64
 1272 001a 0022     		movs	r2, #0
 1273 001c DA60     		str	r2, [r3, #12]
 622:Core/Src/main.c ****   huart1.Init.Parity = UART_PARITY_NONE;
 1274              		.loc 1 622 22
 1275 001e 0E4B     		ldr	r3, .L64
 1276 0020 0022     		movs	r2, #0
 1277 0022 1A61     		str	r2, [r3, #16]
 623:Core/Src/main.c ****   huart1.Init.Mode = UART_MODE_TX_RX;
 1278              		.loc 1 623 20
 1279 0024 0C4B     		ldr	r3, .L64
 1280 0026 0C22     		movs	r2, #12
 1281 0028 5A61     		str	r2, [r3, #20]
 624:Core/Src/main.c ****   huart1.Init.HwFlowCtl = UART_HWCONTROL_NONE;
 1282              		.loc 1 624 25
 1283 002a 0B4B     		ldr	r3, .L64
 1284 002c 0022     		movs	r2, #0
 1285 002e 9A61     		str	r2, [r3, #24]
 625:Core/Src/main.c ****   huart1.Init.OverSampling = UART_OVERSAMPLING_16;
 1286              		.loc 1 625 28
 1287 0030 094B     		ldr	r3, .L64
 1288 0032 0022     		movs	r2, #0
 1289 0034 DA61     		str	r2, [r3, #28]
 626:Core/Src/main.c ****   huart1.Init.OneBitSampling = UART_ONE_BIT_SAMPLE_DISABLE;
 1290              		.loc 1 626 30
 1291 0036 084B     		ldr	r3, .L64
 1292 0038 0022     		movs	r2, #0
 1293 003a 1A62     		str	r2, [r3, #32]
 627:Core/Src/main.c ****   huart1.AdvancedInit.AdvFeatureInit = UART_ADVFEATURE_NO_INIT;
 1294              		.loc 1 627 38
 1295 003c 064B     		ldr	r3, .L64
 1296 003e 0022     		movs	r2, #0
 1297 0040 5A62     		str	r2, [r3, #36]
 628:Core/Src/main.c ****   if (HAL_UART_Init(&huart1) != HAL_OK)
 1298              		.loc 1 628 7
 1299 0042 0548     		ldr	r0, .L64
 1300 0044 FFF7FEFF 		bl	HAL_UART_Init
 1301 0048 0346     		mov	r3, r0
 1302              		.loc 1 628 6
 1303 004a 002B     		cmp	r3, #0
 1304 004c 01D0     		beq	.L63
 629:Core/Src/main.c ****   {
 630:Core/Src/main.c ****     Error_Handler();
 1305              		.loc 1 630 5
 1306 004e FFF7FEFF 		bl	Error_Handler
 1307              	.L63:
ARM GAS  C:\Users\jisu8\AppData\Local\Temp\ccBLEEib.s 			page 35


 631:Core/Src/main.c ****   }
 632:Core/Src/main.c ****   /* USER CODE BEGIN USART1_Init 2 */
 633:Core/Src/main.c **** 
 634:Core/Src/main.c ****   /* USER CODE END USART1_Init 2 */
 635:Core/Src/main.c **** 
 636:Core/Src/main.c **** }
 1308              		.loc 1 636 1
 1309 0052 00BF     		nop
 1310 0054 80BD     		pop	{r7, pc}
 1311              	.L65:
 1312 0056 00BF     		.align	2
 1313              	.L64:
 1314 0058 00000000 		.word	huart1
 1315 005c 00100140 		.word	1073811456
 1316              		.cfi_endproc
 1317              	.LFE161:
 1319              		.section	.text.MX_USART6_UART_Init,"ax",%progbits
 1320              		.align	1
 1321              		.syntax unified
 1322              		.thumb
 1323              		.thumb_func
 1325              	MX_USART6_UART_Init:
 1326              	.LFB162:
 637:Core/Src/main.c **** 
 638:Core/Src/main.c **** /**
 639:Core/Src/main.c ****   * @brief USART6 Initialization Function
 640:Core/Src/main.c ****   * @param None
 641:Core/Src/main.c ****   * @retval None
 642:Core/Src/main.c ****   */
 643:Core/Src/main.c **** static void MX_USART6_UART_Init(void)
 644:Core/Src/main.c **** {
 1327              		.loc 1 644 1
 1328              		.cfi_startproc
 1329              		@ args = 0, pretend = 0, frame = 0
 1330              		@ frame_needed = 1, uses_anonymous_args = 0
 1331 0000 80B5     		push	{r7, lr}
 1332              	.LCFI36:
 1333              		.cfi_def_cfa_offset 8
 1334              		.cfi_offset 7, -8
 1335              		.cfi_offset 14, -4
 1336 0002 00AF     		add	r7, sp, #0
 1337              	.LCFI37:
 1338              		.cfi_def_cfa_register 7
 645:Core/Src/main.c **** 
 646:Core/Src/main.c ****   /* USER CODE BEGIN USART6_Init 0 */
 647:Core/Src/main.c **** 
 648:Core/Src/main.c ****   /* USER CODE END USART6_Init 0 */
 649:Core/Src/main.c **** 
 650:Core/Src/main.c ****   /* USER CODE BEGIN USART6_Init 1 */
 651:Core/Src/main.c **** 
 652:Core/Src/main.c ****   /* USER CODE END USART6_Init 1 */
 653:Core/Src/main.c ****   huart6.Instance = USART6;
 1339              		.loc 1 653 19
 1340 0004 144B     		ldr	r3, .L69
 1341 0006 154A     		ldr	r2, .L69+4
 1342 0008 1A60     		str	r2, [r3]
 654:Core/Src/main.c ****   huart6.Init.BaudRate = 115200;
ARM GAS  C:\Users\jisu8\AppData\Local\Temp\ccBLEEib.s 			page 36


 1343              		.loc 1 654 24
 1344 000a 134B     		ldr	r3, .L69
 1345 000c 4FF4E132 		mov	r2, #115200
 1346 0010 5A60     		str	r2, [r3, #4]
 655:Core/Src/main.c ****   huart6.Init.WordLength = UART_WORDLENGTH_8B;
 1347              		.loc 1 655 26
 1348 0012 114B     		ldr	r3, .L69
 1349 0014 0022     		movs	r2, #0
 1350 0016 9A60     		str	r2, [r3, #8]
 656:Core/Src/main.c ****   huart6.Init.StopBits = UART_STOPBITS_1;
 1351              		.loc 1 656 24
 1352 0018 0F4B     		ldr	r3, .L69
 1353 001a 0022     		movs	r2, #0
 1354 001c DA60     		str	r2, [r3, #12]
 657:Core/Src/main.c ****   huart6.Init.Parity = UART_PARITY_NONE;
 1355              		.loc 1 657 22
 1356 001e 0E4B     		ldr	r3, .L69
 1357 0020 0022     		movs	r2, #0
 1358 0022 1A61     		str	r2, [r3, #16]
 658:Core/Src/main.c ****   huart6.Init.Mode = UART_MODE_TX_RX;
 1359              		.loc 1 658 20
 1360 0024 0C4B     		ldr	r3, .L69
 1361 0026 0C22     		movs	r2, #12
 1362 0028 5A61     		str	r2, [r3, #20]
 659:Core/Src/main.c ****   huart6.Init.HwFlowCtl = UART_HWCONTROL_NONE;
 1363              		.loc 1 659 25
 1364 002a 0B4B     		ldr	r3, .L69
 1365 002c 0022     		movs	r2, #0
 1366 002e 9A61     		str	r2, [r3, #24]
 660:Core/Src/main.c ****   huart6.Init.OverSampling = UART_OVERSAMPLING_16;
 1367              		.loc 1 660 28
 1368 0030 094B     		ldr	r3, .L69
 1369 0032 0022     		movs	r2, #0
 1370 0034 DA61     		str	r2, [r3, #28]
 661:Core/Src/main.c ****   huart6.Init.OneBitSampling = UART_ONE_BIT_SAMPLE_DISABLE;
 1371              		.loc 1 661 30
 1372 0036 084B     		ldr	r3, .L69
 1373 0038 0022     		movs	r2, #0
 1374 003a 1A62     		str	r2, [r3, #32]
 662:Core/Src/main.c ****   huart6.AdvancedInit.AdvFeatureInit = UART_ADVFEATURE_NO_INIT;
 1375              		.loc 1 662 38
 1376 003c 064B     		ldr	r3, .L69
 1377 003e 0022     		movs	r2, #0
 1378 0040 5A62     		str	r2, [r3, #36]
 663:Core/Src/main.c ****   if (HAL_UART_Init(&huart6) != HAL_OK)
 1379              		.loc 1 663 7
 1380 0042 0548     		ldr	r0, .L69
 1381 0044 FFF7FEFF 		bl	HAL_UART_Init
 1382 0048 0346     		mov	r3, r0
 1383              		.loc 1 663 6
 1384 004a 002B     		cmp	r3, #0
 1385 004c 01D0     		beq	.L68
 664:Core/Src/main.c ****   {
 665:Core/Src/main.c ****     Error_Handler();
 1386              		.loc 1 665 5
 1387 004e FFF7FEFF 		bl	Error_Handler
 1388              	.L68:
ARM GAS  C:\Users\jisu8\AppData\Local\Temp\ccBLEEib.s 			page 37


 666:Core/Src/main.c ****   }
 667:Core/Src/main.c ****   /* USER CODE BEGIN USART6_Init 2 */
 668:Core/Src/main.c **** 
 669:Core/Src/main.c ****   /* USER CODE END USART6_Init 2 */
 670:Core/Src/main.c **** 
 671:Core/Src/main.c **** }
 1389              		.loc 1 671 1
 1390 0052 00BF     		nop
 1391 0054 80BD     		pop	{r7, pc}
 1392              	.L70:
 1393 0056 00BF     		.align	2
 1394              	.L69:
 1395 0058 00000000 		.word	huart6
 1396 005c 00140140 		.word	1073812480
 1397              		.cfi_endproc
 1398              	.LFE162:
 1400              		.section	.text.MX_DMA_Init,"ax",%progbits
 1401              		.align	1
 1402              		.syntax unified
 1403              		.thumb
 1404              		.thumb_func
 1406              	MX_DMA_Init:
 1407              	.LFB163:
 672:Core/Src/main.c **** 
 673:Core/Src/main.c **** /**
 674:Core/Src/main.c ****   * Enable DMA controller clock
 675:Core/Src/main.c ****   */
 676:Core/Src/main.c **** static void MX_DMA_Init(void)
 677:Core/Src/main.c **** {
 1408              		.loc 1 677 1
 1409              		.cfi_startproc
 1410              		@ args = 0, pretend = 0, frame = 8
 1411              		@ frame_needed = 1, uses_anonymous_args = 0
 1412 0000 80B5     		push	{r7, lr}
 1413              	.LCFI38:
 1414              		.cfi_def_cfa_offset 8
 1415              		.cfi_offset 7, -8
 1416              		.cfi_offset 14, -4
 1417 0002 82B0     		sub	sp, sp, #8
 1418              	.LCFI39:
 1419              		.cfi_def_cfa_offset 16
 1420 0004 00AF     		add	r7, sp, #0
 1421              	.LCFI40:
 1422              		.cfi_def_cfa_register 7
 1423              	.LBB6:
 678:Core/Src/main.c **** 
 679:Core/Src/main.c ****   /* DMA controller clock enable */
 680:Core/Src/main.c ****   __HAL_RCC_DMA2_CLK_ENABLE();
 1424              		.loc 1 680 3
 1425 0006 104B     		ldr	r3, .L72
 1426 0008 1B6B     		ldr	r3, [r3, #48]
 1427 000a 0F4A     		ldr	r2, .L72
 1428 000c 43F48003 		orr	r3, r3, #4194304
 1429 0010 1363     		str	r3, [r2, #48]
 1430 0012 0D4B     		ldr	r3, .L72
 1431 0014 1B6B     		ldr	r3, [r3, #48]
 1432 0016 03F48003 		and	r3, r3, #4194304
ARM GAS  C:\Users\jisu8\AppData\Local\Temp\ccBLEEib.s 			page 38


 1433 001a 7B60     		str	r3, [r7, #4]
 1434 001c 7B68     		ldr	r3, [r7, #4]
 1435              	.LBE6:
 681:Core/Src/main.c **** 
 682:Core/Src/main.c ****   /* DMA interrupt init */
 683:Core/Src/main.c ****   /* DMA2_Stream3_IRQn interrupt configuration */
 684:Core/Src/main.c ****   HAL_NVIC_SetPriority(DMA2_Stream3_IRQn, 5, 0);
 1436              		.loc 1 684 3
 1437 001e 0022     		movs	r2, #0
 1438 0020 0521     		movs	r1, #5
 1439 0022 3B20     		movs	r0, #59
 1440 0024 FFF7FEFF 		bl	HAL_NVIC_SetPriority
 685:Core/Src/main.c ****   HAL_NVIC_EnableIRQ(DMA2_Stream3_IRQn);
 1441              		.loc 1 685 3
 1442 0028 3B20     		movs	r0, #59
 1443 002a FFF7FEFF 		bl	HAL_NVIC_EnableIRQ
 686:Core/Src/main.c ****   /* DMA2_Stream6_IRQn interrupt configuration */
 687:Core/Src/main.c ****   HAL_NVIC_SetPriority(DMA2_Stream6_IRQn, 5, 0);
 1444              		.loc 1 687 3
 1445 002e 0022     		movs	r2, #0
 1446 0030 0521     		movs	r1, #5
 1447 0032 4520     		movs	r0, #69
 1448 0034 FFF7FEFF 		bl	HAL_NVIC_SetPriority
 688:Core/Src/main.c ****   HAL_NVIC_EnableIRQ(DMA2_Stream6_IRQn);
 1449              		.loc 1 688 3
 1450 0038 4520     		movs	r0, #69
 1451 003a FFF7FEFF 		bl	HAL_NVIC_EnableIRQ
 689:Core/Src/main.c **** 
 690:Core/Src/main.c **** }
 1452              		.loc 1 690 1
 1453 003e 00BF     		nop
 1454 0040 0837     		adds	r7, r7, #8
 1455              	.LCFI41:
 1456              		.cfi_def_cfa_offset 8
 1457 0042 BD46     		mov	sp, r7
 1458              	.LCFI42:
 1459              		.cfi_def_cfa_register 13
 1460              		@ sp needed
 1461 0044 80BD     		pop	{r7, pc}
 1462              	.L73:
 1463 0046 00BF     		.align	2
 1464              	.L72:
 1465 0048 00380240 		.word	1073887232
 1466              		.cfi_endproc
 1467              	.LFE163:
 1469              		.section	.text.MX_FMC_Init,"ax",%progbits
 1470              		.align	1
 1471              		.syntax unified
 1472              		.thumb
 1473              		.thumb_func
 1475              	MX_FMC_Init:
 1476              	.LFB164:
 691:Core/Src/main.c **** 
 692:Core/Src/main.c **** /* FMC initialization function */
 693:Core/Src/main.c **** static void MX_FMC_Init(void)
 694:Core/Src/main.c **** {
 1477              		.loc 1 694 1
ARM GAS  C:\Users\jisu8\AppData\Local\Temp\ccBLEEib.s 			page 39


 1478              		.cfi_startproc
 1479              		@ args = 0, pretend = 0, frame = 32
 1480              		@ frame_needed = 1, uses_anonymous_args = 0
 1481 0000 80B5     		push	{r7, lr}
 1482              	.LCFI43:
 1483              		.cfi_def_cfa_offset 8
 1484              		.cfi_offset 7, -8
 1485              		.cfi_offset 14, -4
 1486 0002 88B0     		sub	sp, sp, #32
 1487              	.LCFI44:
 1488              		.cfi_def_cfa_offset 40
 1489 0004 00AF     		add	r7, sp, #0
 1490              	.LCFI45:
 1491              		.cfi_def_cfa_register 7
 695:Core/Src/main.c **** 
 696:Core/Src/main.c ****   /* USER CODE BEGIN FMC_Init 0 */
 697:Core/Src/main.c **** 
 698:Core/Src/main.c ****   /* USER CODE END FMC_Init 0 */
 699:Core/Src/main.c **** 
 700:Core/Src/main.c ****   FMC_SDRAM_TimingTypeDef SdramTiming = {0};
 1492              		.loc 1 700 27
 1493 0006 3B1D     		adds	r3, r7, #4
 1494 0008 0022     		movs	r2, #0
 1495 000a 1A60     		str	r2, [r3]
 1496 000c 5A60     		str	r2, [r3, #4]
 1497 000e 9A60     		str	r2, [r3, #8]
 1498 0010 DA60     		str	r2, [r3, #12]
 1499 0012 1A61     		str	r2, [r3, #16]
 1500 0014 5A61     		str	r2, [r3, #20]
 1501 0016 9A61     		str	r2, [r3, #24]
 701:Core/Src/main.c **** 
 702:Core/Src/main.c ****   /* USER CODE BEGIN FMC_Init 1 */
 703:Core/Src/main.c **** 
 704:Core/Src/main.c ****   /* USER CODE END FMC_Init 1 */
 705:Core/Src/main.c **** 
 706:Core/Src/main.c ****   /** Perform the SDRAM1 memory initialization sequence
 707:Core/Src/main.c ****   */
 708:Core/Src/main.c ****   hsdram1.Instance = FMC_SDRAM_DEVICE;
 1502              		.loc 1 708 20
 1503 0018 1F4B     		ldr	r3, .L77
 1504 001a 204A     		ldr	r2, .L77+4
 1505 001c 1A60     		str	r2, [r3]
 709:Core/Src/main.c ****   /* hsdram1.Init */
 710:Core/Src/main.c ****   hsdram1.Init.SDBank = FMC_SDRAM_BANK1;
 1506              		.loc 1 710 23
 1507 001e 1E4B     		ldr	r3, .L77
 1508 0020 0022     		movs	r2, #0
 1509 0022 5A60     		str	r2, [r3, #4]
 711:Core/Src/main.c ****   hsdram1.Init.ColumnBitsNumber = FMC_SDRAM_COLUMN_BITS_NUM_8;
 1510              		.loc 1 711 33
 1511 0024 1C4B     		ldr	r3, .L77
 1512 0026 0022     		movs	r2, #0
 1513 0028 9A60     		str	r2, [r3, #8]
 712:Core/Src/main.c ****   hsdram1.Init.RowBitsNumber = FMC_SDRAM_ROW_BITS_NUM_12;
 1514              		.loc 1 712 30
 1515 002a 1B4B     		ldr	r3, .L77
 1516 002c 0422     		movs	r2, #4
ARM GAS  C:\Users\jisu8\AppData\Local\Temp\ccBLEEib.s 			page 40


 1517 002e DA60     		str	r2, [r3, #12]
 713:Core/Src/main.c ****   hsdram1.Init.MemoryDataWidth = FMC_SDRAM_MEM_BUS_WIDTH_16;
 1518              		.loc 1 713 32
 1519 0030 194B     		ldr	r3, .L77
 1520 0032 1022     		movs	r2, #16
 1521 0034 1A61     		str	r2, [r3, #16]
 714:Core/Src/main.c ****   hsdram1.Init.InternalBankNumber = FMC_SDRAM_INTERN_BANKS_NUM_4;
 1522              		.loc 1 714 35
 1523 0036 184B     		ldr	r3, .L77
 1524 0038 4022     		movs	r2, #64
 1525 003a 5A61     		str	r2, [r3, #20]
 715:Core/Src/main.c ****   hsdram1.Init.CASLatency = FMC_SDRAM_CAS_LATENCY_2;
 1526              		.loc 1 715 27
 1527 003c 164B     		ldr	r3, .L77
 1528 003e 4FF48072 		mov	r2, #256
 1529 0042 9A61     		str	r2, [r3, #24]
 716:Core/Src/main.c ****   hsdram1.Init.WriteProtection = FMC_SDRAM_WRITE_PROTECTION_DISABLE;
 1530              		.loc 1 716 32
 1531 0044 144B     		ldr	r3, .L77
 1532 0046 0022     		movs	r2, #0
 1533 0048 DA61     		str	r2, [r3, #28]
 717:Core/Src/main.c ****   hsdram1.Init.SDClockPeriod = FMC_SDRAM_CLOCK_PERIOD_2;
 1534              		.loc 1 717 30
 1535 004a 134B     		ldr	r3, .L77
 1536 004c 4FF40062 		mov	r2, #2048
 1537 0050 1A62     		str	r2, [r3, #32]
 718:Core/Src/main.c ****   hsdram1.Init.ReadBurst = FMC_SDRAM_RBURST_ENABLE;
 1538              		.loc 1 718 26
 1539 0052 114B     		ldr	r3, .L77
 1540 0054 4FF48052 		mov	r2, #4096
 1541 0058 5A62     		str	r2, [r3, #36]
 719:Core/Src/main.c ****   hsdram1.Init.ReadPipeDelay = FMC_SDRAM_RPIPE_DELAY_0;
 1542              		.loc 1 719 30
 1543 005a 0F4B     		ldr	r3, .L77
 1544 005c 0022     		movs	r2, #0
 1545 005e 9A62     		str	r2, [r3, #40]
 720:Core/Src/main.c ****   /* SdramTiming */
 721:Core/Src/main.c ****   SdramTiming.LoadToActiveDelay = 2;
 1546              		.loc 1 721 33
 1547 0060 0223     		movs	r3, #2
 1548 0062 7B60     		str	r3, [r7, #4]
 722:Core/Src/main.c ****   SdramTiming.ExitSelfRefreshDelay = 7;
 1549              		.loc 1 722 36
 1550 0064 0723     		movs	r3, #7
 1551 0066 BB60     		str	r3, [r7, #8]
 723:Core/Src/main.c ****   SdramTiming.SelfRefreshTime = 4;
 1552              		.loc 1 723 31
 1553 0068 0423     		movs	r3, #4
 1554 006a FB60     		str	r3, [r7, #12]
 724:Core/Src/main.c ****   SdramTiming.RowCycleDelay = 7;
 1555              		.loc 1 724 29
 1556 006c 0723     		movs	r3, #7
 1557 006e 3B61     		str	r3, [r7, #16]
 725:Core/Src/main.c ****   SdramTiming.WriteRecoveryTime = 3;
 1558              		.loc 1 725 33
 1559 0070 0323     		movs	r3, #3
 1560 0072 7B61     		str	r3, [r7, #20]
ARM GAS  C:\Users\jisu8\AppData\Local\Temp\ccBLEEib.s 			page 41


 726:Core/Src/main.c ****   SdramTiming.RPDelay = 2;
 1561              		.loc 1 726 23
 1562 0074 0223     		movs	r3, #2
 1563 0076 BB61     		str	r3, [r7, #24]
 727:Core/Src/main.c ****   SdramTiming.RCDDelay = 2;
 1564              		.loc 1 727 24
 1565 0078 0223     		movs	r3, #2
 1566 007a FB61     		str	r3, [r7, #28]
 728:Core/Src/main.c **** 
 729:Core/Src/main.c ****   if (HAL_SDRAM_Init(&hsdram1, &SdramTiming) != HAL_OK)
 1567              		.loc 1 729 7
 1568 007c 3B1D     		adds	r3, r7, #4
 1569 007e 1946     		mov	r1, r3
 1570 0080 0548     		ldr	r0, .L77
 1571 0082 FFF7FEFF 		bl	HAL_SDRAM_Init
 1572 0086 0346     		mov	r3, r0
 1573              		.loc 1 729 6
 1574 0088 002B     		cmp	r3, #0
 1575 008a 01D0     		beq	.L76
 730:Core/Src/main.c ****   {
 731:Core/Src/main.c ****     Error_Handler( );
 1576              		.loc 1 731 5
 1577 008c FFF7FEFF 		bl	Error_Handler
 1578              	.L76:
 732:Core/Src/main.c ****   }
 733:Core/Src/main.c **** 
 734:Core/Src/main.c ****   /* USER CODE BEGIN FMC_Init 2 */
 735:Core/Src/main.c **** 
 736:Core/Src/main.c ****   /* USER CODE END FMC_Init 2 */
 737:Core/Src/main.c **** }
 1579              		.loc 1 737 1
 1580 0090 00BF     		nop
 1581 0092 2037     		adds	r7, r7, #32
 1582              	.LCFI46:
 1583              		.cfi_def_cfa_offset 8
 1584 0094 BD46     		mov	sp, r7
 1585              	.LCFI47:
 1586              		.cfi_def_cfa_register 13
 1587              		@ sp needed
 1588 0096 80BD     		pop	{r7, pc}
 1589              	.L78:
 1590              		.align	2
 1591              	.L77:
 1592 0098 00000000 		.word	hsdram1
 1593 009c 400100A0 		.word	-1610612416
 1594              		.cfi_endproc
 1595              	.LFE164:
 1597              		.section	.text.MX_GPIO_Init,"ax",%progbits
 1598              		.align	1
 1599              		.syntax unified
 1600              		.thumb
 1601              		.thumb_func
 1603              	MX_GPIO_Init:
 1604              	.LFB165:
 738:Core/Src/main.c **** 
 739:Core/Src/main.c **** /**
 740:Core/Src/main.c ****   * @brief GPIO Initialization Function
ARM GAS  C:\Users\jisu8\AppData\Local\Temp\ccBLEEib.s 			page 42


 741:Core/Src/main.c ****   * @param None
 742:Core/Src/main.c ****   * @retval None
 743:Core/Src/main.c ****   */
 744:Core/Src/main.c **** static void MX_GPIO_Init(void)
 745:Core/Src/main.c **** {
 1605              		.loc 1 745 1
 1606              		.cfi_startproc
 1607              		@ args = 0, pretend = 0, frame = 64
 1608              		@ frame_needed = 1, uses_anonymous_args = 0
 1609 0000 80B5     		push	{r7, lr}
 1610              	.LCFI48:
 1611              		.cfi_def_cfa_offset 8
 1612              		.cfi_offset 7, -8
 1613              		.cfi_offset 14, -4
 1614 0002 90B0     		sub	sp, sp, #64
 1615              	.LCFI49:
 1616              		.cfi_def_cfa_offset 72
 1617 0004 00AF     		add	r7, sp, #0
 1618              	.LCFI50:
 1619              		.cfi_def_cfa_register 7
 746:Core/Src/main.c ****   GPIO_InitTypeDef GPIO_InitStruct = {0};
 1620              		.loc 1 746 20
 1621 0006 07F12C03 		add	r3, r7, #44
 1622 000a 0022     		movs	r2, #0
 1623 000c 1A60     		str	r2, [r3]
 1624 000e 5A60     		str	r2, [r3, #4]
 1625 0010 9A60     		str	r2, [r3, #8]
 1626 0012 DA60     		str	r2, [r3, #12]
 1627 0014 1A61     		str	r2, [r3, #16]
 1628              	.LBB7:
 747:Core/Src/main.c **** 
 748:Core/Src/main.c ****   /* GPIO Ports Clock Enable */
 749:Core/Src/main.c ****   __HAL_RCC_GPIOE_CLK_ENABLE();
 1629              		.loc 1 749 3
 1630 0016 AF4B     		ldr	r3, .L80
 1631 0018 1B6B     		ldr	r3, [r3, #48]
 1632 001a AE4A     		ldr	r2, .L80
 1633 001c 43F01003 		orr	r3, r3, #16
 1634 0020 1363     		str	r3, [r2, #48]
 1635 0022 AC4B     		ldr	r3, .L80
 1636 0024 1B6B     		ldr	r3, [r3, #48]
 1637 0026 03F01003 		and	r3, r3, #16
 1638 002a BB62     		str	r3, [r7, #40]
 1639 002c BB6A     		ldr	r3, [r7, #40]
 1640              	.LBE7:
 1641              	.LBB8:
 750:Core/Src/main.c ****   __HAL_RCC_GPIOG_CLK_ENABLE();
 1642              		.loc 1 750 3
 1643 002e A94B     		ldr	r3, .L80
 1644 0030 1B6B     		ldr	r3, [r3, #48]
 1645 0032 A84A     		ldr	r2, .L80
 1646 0034 43F04003 		orr	r3, r3, #64
 1647 0038 1363     		str	r3, [r2, #48]
 1648 003a A64B     		ldr	r3, .L80
 1649 003c 1B6B     		ldr	r3, [r3, #48]
 1650 003e 03F04003 		and	r3, r3, #64
 1651 0042 7B62     		str	r3, [r7, #36]
ARM GAS  C:\Users\jisu8\AppData\Local\Temp\ccBLEEib.s 			page 43


 1652 0044 7B6A     		ldr	r3, [r7, #36]
 1653              	.LBE8:
 1654              	.LBB9:
 751:Core/Src/main.c ****   __HAL_RCC_GPIOB_CLK_ENABLE();
 1655              		.loc 1 751 3
 1656 0046 A34B     		ldr	r3, .L80
 1657 0048 1B6B     		ldr	r3, [r3, #48]
 1658 004a A24A     		ldr	r2, .L80
 1659 004c 43F00203 		orr	r3, r3, #2
 1660 0050 1363     		str	r3, [r2, #48]
 1661 0052 A04B     		ldr	r3, .L80
 1662 0054 1B6B     		ldr	r3, [r3, #48]
 1663 0056 03F00203 		and	r3, r3, #2
 1664 005a 3B62     		str	r3, [r7, #32]
 1665 005c 3B6A     		ldr	r3, [r7, #32]
 1666              	.LBE9:
 1667              	.LBB10:
 752:Core/Src/main.c ****   __HAL_RCC_GPIOD_CLK_ENABLE();
 1668              		.loc 1 752 3
 1669 005e 9D4B     		ldr	r3, .L80
 1670 0060 1B6B     		ldr	r3, [r3, #48]
 1671 0062 9C4A     		ldr	r2, .L80
 1672 0064 43F00803 		orr	r3, r3, #8
 1673 0068 1363     		str	r3, [r2, #48]
 1674 006a 9A4B     		ldr	r3, .L80
 1675 006c 1B6B     		ldr	r3, [r3, #48]
 1676 006e 03F00803 		and	r3, r3, #8
 1677 0072 FB61     		str	r3, [r7, #28]
 1678 0074 FB69     		ldr	r3, [r7, #28]
 1679              	.LBE10:
 1680              	.LBB11:
 753:Core/Src/main.c ****   __HAL_RCC_GPIOC_CLK_ENABLE();
 1681              		.loc 1 753 3
 1682 0076 974B     		ldr	r3, .L80
 1683 0078 1B6B     		ldr	r3, [r3, #48]
 1684 007a 964A     		ldr	r2, .L80
 1685 007c 43F00403 		orr	r3, r3, #4
 1686 0080 1363     		str	r3, [r2, #48]
 1687 0082 944B     		ldr	r3, .L80
 1688 0084 1B6B     		ldr	r3, [r3, #48]
 1689 0086 03F00403 		and	r3, r3, #4
 1690 008a BB61     		str	r3, [r7, #24]
 1691 008c BB69     		ldr	r3, [r7, #24]
 1692              	.LBE11:
 1693              	.LBB12:
 754:Core/Src/main.c ****   __HAL_RCC_GPIOA_CLK_ENABLE();
 1694              		.loc 1 754 3
 1695 008e 914B     		ldr	r3, .L80
 1696 0090 1B6B     		ldr	r3, [r3, #48]
 1697 0092 904A     		ldr	r2, .L80
 1698 0094 43F00103 		orr	r3, r3, #1
 1699 0098 1363     		str	r3, [r2, #48]
 1700 009a 8E4B     		ldr	r3, .L80
 1701 009c 1B6B     		ldr	r3, [r3, #48]
 1702 009e 03F00103 		and	r3, r3, #1
 1703 00a2 7B61     		str	r3, [r7, #20]
 1704 00a4 7B69     		ldr	r3, [r7, #20]
ARM GAS  C:\Users\jisu8\AppData\Local\Temp\ccBLEEib.s 			page 44


 1705              	.LBE12:
 1706              	.LBB13:
 755:Core/Src/main.c ****   __HAL_RCC_GPIOJ_CLK_ENABLE();
 1707              		.loc 1 755 3
 1708 00a6 8B4B     		ldr	r3, .L80
 1709 00a8 1B6B     		ldr	r3, [r3, #48]
 1710 00aa 8A4A     		ldr	r2, .L80
 1711 00ac 43F40073 		orr	r3, r3, #512
 1712 00b0 1363     		str	r3, [r2, #48]
 1713 00b2 884B     		ldr	r3, .L80
 1714 00b4 1B6B     		ldr	r3, [r3, #48]
 1715 00b6 03F40073 		and	r3, r3, #512
 1716 00ba 3B61     		str	r3, [r7, #16]
 1717 00bc 3B69     		ldr	r3, [r7, #16]
 1718              	.LBE13:
 1719              	.LBB14:
 756:Core/Src/main.c ****   __HAL_RCC_GPIOI_CLK_ENABLE();
 1720              		.loc 1 756 3
 1721 00be 854B     		ldr	r3, .L80
 1722 00c0 1B6B     		ldr	r3, [r3, #48]
 1723 00c2 844A     		ldr	r2, .L80
 1724 00c4 43F48073 		orr	r3, r3, #256
 1725 00c8 1363     		str	r3, [r2, #48]
 1726 00ca 824B     		ldr	r3, .L80
 1727 00cc 1B6B     		ldr	r3, [r3, #48]
 1728 00ce 03F48073 		and	r3, r3, #256
 1729 00d2 FB60     		str	r3, [r7, #12]
 1730 00d4 FB68     		ldr	r3, [r7, #12]
 1731              	.LBE14:
 1732              	.LBB15:
 757:Core/Src/main.c ****   __HAL_RCC_GPIOK_CLK_ENABLE();
 1733              		.loc 1 757 3
 1734 00d6 7F4B     		ldr	r3, .L80
 1735 00d8 1B6B     		ldr	r3, [r3, #48]
 1736 00da 7E4A     		ldr	r2, .L80
 1737 00dc 43F48063 		orr	r3, r3, #1024
 1738 00e0 1363     		str	r3, [r2, #48]
 1739 00e2 7C4B     		ldr	r3, .L80
 1740 00e4 1B6B     		ldr	r3, [r3, #48]
 1741 00e6 03F48063 		and	r3, r3, #1024
 1742 00ea BB60     		str	r3, [r7, #8]
 1743 00ec BB68     		ldr	r3, [r7, #8]
 1744              	.LBE15:
 1745              	.LBB16:
 758:Core/Src/main.c ****   __HAL_RCC_GPIOF_CLK_ENABLE();
 1746              		.loc 1 758 3
 1747 00ee 794B     		ldr	r3, .L80
 1748 00f0 1B6B     		ldr	r3, [r3, #48]
 1749 00f2 784A     		ldr	r2, .L80
 1750 00f4 43F02003 		orr	r3, r3, #32
 1751 00f8 1363     		str	r3, [r2, #48]
 1752 00fa 764B     		ldr	r3, .L80
 1753 00fc 1B6B     		ldr	r3, [r3, #48]
 1754 00fe 03F02003 		and	r3, r3, #32
 1755 0102 7B60     		str	r3, [r7, #4]
 1756 0104 7B68     		ldr	r3, [r7, #4]
 1757              	.LBE16:
ARM GAS  C:\Users\jisu8\AppData\Local\Temp\ccBLEEib.s 			page 45


 1758              	.LBB17:
 759:Core/Src/main.c ****   __HAL_RCC_GPIOH_CLK_ENABLE();
 1759              		.loc 1 759 3
 1760 0106 734B     		ldr	r3, .L80
 1761 0108 1B6B     		ldr	r3, [r3, #48]
 1762 010a 724A     		ldr	r2, .L80
 1763 010c 43F08003 		orr	r3, r3, #128
 1764 0110 1363     		str	r3, [r2, #48]
 1765 0112 704B     		ldr	r3, .L80
 1766 0114 1B6B     		ldr	r3, [r3, #48]
 1767 0116 03F08003 		and	r3, r3, #128
 1768 011a 3B60     		str	r3, [r7]
 1769 011c 3B68     		ldr	r3, [r7]
 1770              	.LBE17:
 760:Core/Src/main.c **** 
 761:Core/Src/main.c ****   /*Configure GPIO pin Output Level */
 762:Core/Src/main.c ****   HAL_GPIO_WritePin(OTG_FS_PowerSwitchOn_GPIO_Port, OTG_FS_PowerSwitchOn_Pin, GPIO_PIN_SET);
 1771              		.loc 1 762 3
 1772 011e 0122     		movs	r2, #1
 1773 0120 2021     		movs	r1, #32
 1774 0122 6D48     		ldr	r0, .L80+4
 1775 0124 FFF7FEFF 		bl	HAL_GPIO_WritePin
 763:Core/Src/main.c **** 
 764:Core/Src/main.c ****   /*Configure GPIO pin Output Level */
 765:Core/Src/main.c ****   HAL_GPIO_WritePin(GPIOI, ARDUINO_D7_Pin|ARDUINO_D8_Pin, GPIO_PIN_RESET);
 1776              		.loc 1 765 3
 1777 0128 0022     		movs	r2, #0
 1778 012a 0C21     		movs	r1, #12
 1779 012c 6B48     		ldr	r0, .L80+8
 1780 012e FFF7FEFF 		bl	HAL_GPIO_WritePin
 766:Core/Src/main.c **** 
 767:Core/Src/main.c ****   /*Configure GPIO pin Output Level */
 768:Core/Src/main.c ****   HAL_GPIO_WritePin(LCD_BL_CTRL_GPIO_Port, LCD_BL_CTRL_Pin, GPIO_PIN_SET);
 1781              		.loc 1 768 3
 1782 0132 0122     		movs	r2, #1
 1783 0134 0821     		movs	r1, #8
 1784 0136 6A48     		ldr	r0, .L80+12
 1785 0138 FFF7FEFF 		bl	HAL_GPIO_WritePin
 769:Core/Src/main.c **** 
 770:Core/Src/main.c ****   /*Configure GPIO pin Output Level */
 771:Core/Src/main.c ****   HAL_GPIO_WritePin(LCD_DISP_GPIO_Port, LCD_DISP_Pin, GPIO_PIN_SET);
 1786              		.loc 1 771 3
 1787 013c 0122     		movs	r2, #1
 1788 013e 4FF48051 		mov	r1, #4096
 1789 0142 6648     		ldr	r0, .L80+8
 1790 0144 FFF7FEFF 		bl	HAL_GPIO_WritePin
 772:Core/Src/main.c **** 
 773:Core/Src/main.c ****   /*Configure GPIO pin Output Level */
 774:Core/Src/main.c ****   HAL_GPIO_WritePin(DCMI_PWR_EN_GPIO_Port, DCMI_PWR_EN_Pin, GPIO_PIN_RESET);
 1791              		.loc 1 774 3
 1792 0148 0022     		movs	r2, #0
 1793 014a 4FF40051 		mov	r1, #8192
 1794 014e 6548     		ldr	r0, .L80+16
 1795 0150 FFF7FEFF 		bl	HAL_GPIO_WritePin
 775:Core/Src/main.c **** 
 776:Core/Src/main.c ****   /*Configure GPIO pin Output Level */
 777:Core/Src/main.c ****   HAL_GPIO_WritePin(GPIOG, ARDUINO_D4_Pin|ARDUINO_D2_Pin|EXT_RST_Pin, GPIO_PIN_RESET);
ARM GAS  C:\Users\jisu8\AppData\Local\Temp\ccBLEEib.s 			page 46


 1796              		.loc 1 777 3
 1797 0154 0022     		movs	r2, #0
 1798 0156 C821     		movs	r1, #200
 1799 0158 6348     		ldr	r0, .L80+20
 1800 015a FFF7FEFF 		bl	HAL_GPIO_WritePin
 778:Core/Src/main.c **** 
 779:Core/Src/main.c ****   /*Configure GPIO pin : OTG_HS_OverCurrent_Pin */
 780:Core/Src/main.c ****   GPIO_InitStruct.Pin = OTG_HS_OverCurrent_Pin;
 1801              		.loc 1 780 23
 1802 015e 0823     		movs	r3, #8
 1803 0160 FB62     		str	r3, [r7, #44]
 781:Core/Src/main.c ****   GPIO_InitStruct.Mode = GPIO_MODE_INPUT;
 1804              		.loc 1 781 24
 1805 0162 0023     		movs	r3, #0
 1806 0164 3B63     		str	r3, [r7, #48]
 782:Core/Src/main.c ****   GPIO_InitStruct.Pull = GPIO_NOPULL;
 1807              		.loc 1 782 24
 1808 0166 0023     		movs	r3, #0
 1809 0168 7B63     		str	r3, [r7, #52]
 783:Core/Src/main.c ****   HAL_GPIO_Init(OTG_HS_OverCurrent_GPIO_Port, &GPIO_InitStruct);
 1810              		.loc 1 783 3
 1811 016a 07F12C03 		add	r3, r7, #44
 1812 016e 1946     		mov	r1, r3
 1813 0170 5E48     		ldr	r0, .L80+24
 1814 0172 FFF7FEFF 		bl	HAL_GPIO_Init
 784:Core/Src/main.c **** 
 785:Core/Src/main.c ****   /*Configure GPIO pins : RMII_TXD1_Pin RMII_TXD0_Pin RMII_TX_EN_Pin */
 786:Core/Src/main.c ****   GPIO_InitStruct.Pin = RMII_TXD1_Pin|RMII_TXD0_Pin|RMII_TX_EN_Pin;
 1815              		.loc 1 786 23
 1816 0176 4FF4D043 		mov	r3, #26624
 1817 017a FB62     		str	r3, [r7, #44]
 787:Core/Src/main.c ****   GPIO_InitStruct.Mode = GPIO_MODE_AF_PP;
 1818              		.loc 1 787 24
 1819 017c 0223     		movs	r3, #2
 1820 017e 3B63     		str	r3, [r7, #48]
 788:Core/Src/main.c ****   GPIO_InitStruct.Pull = GPIO_NOPULL;
 1821              		.loc 1 788 24
 1822 0180 0023     		movs	r3, #0
 1823 0182 7B63     		str	r3, [r7, #52]
 789:Core/Src/main.c ****   GPIO_InitStruct.Speed = GPIO_SPEED_FREQ_VERY_HIGH;
 1824              		.loc 1 789 25
 1825 0184 0323     		movs	r3, #3
 1826 0186 BB63     		str	r3, [r7, #56]
 790:Core/Src/main.c ****   GPIO_InitStruct.Alternate = GPIO_AF11_ETH;
 1827              		.loc 1 790 29
 1828 0188 0B23     		movs	r3, #11
 1829 018a FB63     		str	r3, [r7, #60]
 791:Core/Src/main.c ****   HAL_GPIO_Init(GPIOG, &GPIO_InitStruct);
 1830              		.loc 1 791 3
 1831 018c 07F12C03 		add	r3, r7, #44
 1832 0190 1946     		mov	r1, r3
 1833 0192 5548     		ldr	r0, .L80+20
 1834 0194 FFF7FEFF 		bl	HAL_GPIO_Init
 792:Core/Src/main.c **** 
 793:Core/Src/main.c ****   /*Configure GPIO pin : ARDUINO_PWM_D3_Pin */
 794:Core/Src/main.c ****   GPIO_InitStruct.Pin = ARDUINO_PWM_D3_Pin;
 1835              		.loc 1 794 23
ARM GAS  C:\Users\jisu8\AppData\Local\Temp\ccBLEEib.s 			page 47


 1836 0198 1023     		movs	r3, #16
 1837 019a FB62     		str	r3, [r7, #44]
 795:Core/Src/main.c ****   GPIO_InitStruct.Mode = GPIO_MODE_AF_PP;
 1838              		.loc 1 795 24
 1839 019c 0223     		movs	r3, #2
 1840 019e 3B63     		str	r3, [r7, #48]
 796:Core/Src/main.c ****   GPIO_InitStruct.Pull = GPIO_NOPULL;
 1841              		.loc 1 796 24
 1842 01a0 0023     		movs	r3, #0
 1843 01a2 7B63     		str	r3, [r7, #52]
 797:Core/Src/main.c ****   GPIO_InitStruct.Speed = GPIO_SPEED_FREQ_LOW;
 1844              		.loc 1 797 25
 1845 01a4 0023     		movs	r3, #0
 1846 01a6 BB63     		str	r3, [r7, #56]
 798:Core/Src/main.c ****   GPIO_InitStruct.Alternate = GPIO_AF2_TIM3;
 1847              		.loc 1 798 29
 1848 01a8 0223     		movs	r3, #2
 1849 01aa FB63     		str	r3, [r7, #60]
 799:Core/Src/main.c ****   HAL_GPIO_Init(ARDUINO_PWM_D3_GPIO_Port, &GPIO_InitStruct);
 1850              		.loc 1 799 3
 1851 01ac 07F12C03 		add	r3, r7, #44
 1852 01b0 1946     		mov	r1, r3
 1853 01b2 4F48     		ldr	r0, .L80+28
 1854 01b4 FFF7FEFF 		bl	HAL_GPIO_Init
 800:Core/Src/main.c **** 
 801:Core/Src/main.c ****   /*Configure GPIO pin : SPDIF_RX0_Pin */
 802:Core/Src/main.c ****   GPIO_InitStruct.Pin = SPDIF_RX0_Pin;
 1855              		.loc 1 802 23
 1856 01b8 8023     		movs	r3, #128
 1857 01ba FB62     		str	r3, [r7, #44]
 803:Core/Src/main.c ****   GPIO_InitStruct.Mode = GPIO_MODE_AF_PP;
 1858              		.loc 1 803 24
 1859 01bc 0223     		movs	r3, #2
 1860 01be 3B63     		str	r3, [r7, #48]
 804:Core/Src/main.c ****   GPIO_InitStruct.Pull = GPIO_NOPULL;
 1861              		.loc 1 804 24
 1862 01c0 0023     		movs	r3, #0
 1863 01c2 7B63     		str	r3, [r7, #52]
 805:Core/Src/main.c ****   GPIO_InitStruct.Speed = GPIO_SPEED_FREQ_LOW;
 1864              		.loc 1 805 25
 1865 01c4 0023     		movs	r3, #0
 1866 01c6 BB63     		str	r3, [r7, #56]
 806:Core/Src/main.c ****   GPIO_InitStruct.Alternate = GPIO_AF8_SPDIFRX;
 1867              		.loc 1 806 29
 1868 01c8 0823     		movs	r3, #8
 1869 01ca FB63     		str	r3, [r7, #60]
 807:Core/Src/main.c ****   HAL_GPIO_Init(SPDIF_RX0_GPIO_Port, &GPIO_InitStruct);
 1870              		.loc 1 807 3
 1871 01cc 07F12C03 		add	r3, r7, #44
 1872 01d0 1946     		mov	r1, r3
 1873 01d2 4148     		ldr	r0, .L80+4
 1874 01d4 FFF7FEFF 		bl	HAL_GPIO_Init
 808:Core/Src/main.c **** 
 809:Core/Src/main.c ****   /*Configure GPIO pin : ARDUINO_PWM_D9_Pin */
 810:Core/Src/main.c ****   GPIO_InitStruct.Pin = ARDUINO_PWM_D9_Pin;
 1875              		.loc 1 810 23
 1876 01d8 4FF40043 		mov	r3, #32768
ARM GAS  C:\Users\jisu8\AppData\Local\Temp\ccBLEEib.s 			page 48


 1877 01dc FB62     		str	r3, [r7, #44]
 811:Core/Src/main.c ****   GPIO_InitStruct.Mode = GPIO_MODE_AF_PP;
 1878              		.loc 1 811 24
 1879 01de 0223     		movs	r3, #2
 1880 01e0 3B63     		str	r3, [r7, #48]
 812:Core/Src/main.c ****   GPIO_InitStruct.Pull = GPIO_NOPULL;
 1881              		.loc 1 812 24
 1882 01e2 0023     		movs	r3, #0
 1883 01e4 7B63     		str	r3, [r7, #52]
 813:Core/Src/main.c ****   GPIO_InitStruct.Speed = GPIO_SPEED_FREQ_LOW;
 1884              		.loc 1 813 25
 1885 01e6 0023     		movs	r3, #0
 1886 01e8 BB63     		str	r3, [r7, #56]
 814:Core/Src/main.c ****   GPIO_InitStruct.Alternate = GPIO_AF1_TIM2;
 1887              		.loc 1 814 29
 1888 01ea 0123     		movs	r3, #1
 1889 01ec FB63     		str	r3, [r7, #60]
 815:Core/Src/main.c ****   HAL_GPIO_Init(ARDUINO_PWM_D9_GPIO_Port, &GPIO_InitStruct);
 1890              		.loc 1 815 3
 1891 01ee 07F12C03 		add	r3, r7, #44
 1892 01f2 1946     		mov	r1, r3
 1893 01f4 3F48     		ldr	r0, .L80+32
 1894 01f6 FFF7FEFF 		bl	HAL_GPIO_Init
 816:Core/Src/main.c **** 
 817:Core/Src/main.c ****   /*Configure GPIO pins : DCMI_D6_Pin DCMI_D7_Pin */
 818:Core/Src/main.c ****   GPIO_InitStruct.Pin = DCMI_D6_Pin|DCMI_D7_Pin;
 1895              		.loc 1 818 23
 1896 01fa 6023     		movs	r3, #96
 1897 01fc FB62     		str	r3, [r7, #44]
 819:Core/Src/main.c ****   GPIO_InitStruct.Mode = GPIO_MODE_AF_PP;
 1898              		.loc 1 819 24
 1899 01fe 0223     		movs	r3, #2
 1900 0200 3B63     		str	r3, [r7, #48]
 820:Core/Src/main.c ****   GPIO_InitStruct.Pull = GPIO_NOPULL;
 1901              		.loc 1 820 24
 1902 0202 0023     		movs	r3, #0
 1903 0204 7B63     		str	r3, [r7, #52]
 821:Core/Src/main.c ****   GPIO_InitStruct.Speed = GPIO_SPEED_FREQ_LOW;
 1904              		.loc 1 821 25
 1905 0206 0023     		movs	r3, #0
 1906 0208 BB63     		str	r3, [r7, #56]
 822:Core/Src/main.c ****   GPIO_InitStruct.Alternate = GPIO_AF13_DCMI;
 1907              		.loc 1 822 29
 1908 020a 0D23     		movs	r3, #13
 1909 020c FB63     		str	r3, [r7, #60]
 823:Core/Src/main.c ****   HAL_GPIO_Init(GPIOE, &GPIO_InitStruct);
 1910              		.loc 1 823 3
 1911 020e 07F12C03 		add	r3, r7, #44
 1912 0212 1946     		mov	r1, r3
 1913 0214 3548     		ldr	r0, .L80+24
 1914 0216 FFF7FEFF 		bl	HAL_GPIO_Init
 824:Core/Src/main.c **** 
 825:Core/Src/main.c ****   /*Configure GPIO pin : OTG_FS_VBUS_Pin */
 826:Core/Src/main.c ****   GPIO_InitStruct.Pin = OTG_FS_VBUS_Pin;
 1915              		.loc 1 826 23
 1916 021a 4FF48053 		mov	r3, #4096
 1917 021e FB62     		str	r3, [r7, #44]
ARM GAS  C:\Users\jisu8\AppData\Local\Temp\ccBLEEib.s 			page 49


 827:Core/Src/main.c ****   GPIO_InitStruct.Mode = GPIO_MODE_INPUT;
 1918              		.loc 1 827 24
 1919 0220 0023     		movs	r3, #0
 1920 0222 3B63     		str	r3, [r7, #48]
 828:Core/Src/main.c ****   GPIO_InitStruct.Pull = GPIO_NOPULL;
 1921              		.loc 1 828 24
 1922 0224 0023     		movs	r3, #0
 1923 0226 7B63     		str	r3, [r7, #52]
 829:Core/Src/main.c ****   HAL_GPIO_Init(OTG_FS_VBUS_GPIO_Port, &GPIO_InitStruct);
 1924              		.loc 1 829 3
 1925 0228 07F12C03 		add	r3, r7, #44
 1926 022c 1946     		mov	r1, r3
 1927 022e 3248     		ldr	r0, .L80+36
 1928 0230 FFF7FEFF 		bl	HAL_GPIO_Init
 830:Core/Src/main.c **** 
 831:Core/Src/main.c ****   /*Configure GPIO pin : Audio_INT_Pin */
 832:Core/Src/main.c ****   GPIO_InitStruct.Pin = Audio_INT_Pin;
 1929              		.loc 1 832 23
 1930 0234 4023     		movs	r3, #64
 1931 0236 FB62     		str	r3, [r7, #44]
 833:Core/Src/main.c ****   GPIO_InitStruct.Mode = GPIO_MODE_EVT_RISING;
 1932              		.loc 1 833 24
 1933 0238 4FF49013 		mov	r3, #1179648
 1934 023c 3B63     		str	r3, [r7, #48]
 834:Core/Src/main.c ****   GPIO_InitStruct.Pull = GPIO_NOPULL;
 1935              		.loc 1 834 24
 1936 023e 0023     		movs	r3, #0
 1937 0240 7B63     		str	r3, [r7, #52]
 835:Core/Src/main.c ****   HAL_GPIO_Init(Audio_INT_GPIO_Port, &GPIO_InitStruct);
 1938              		.loc 1 835 3
 1939 0242 07F12C03 		add	r3, r7, #44
 1940 0246 1946     		mov	r1, r3
 1941 0248 2348     		ldr	r0, .L80+4
 1942 024a FFF7FEFF 		bl	HAL_GPIO_Init
 836:Core/Src/main.c **** 
 837:Core/Src/main.c ****   /*Configure GPIO pins : OTG_FS_P_Pin OTG_FS_N_Pin OTG_FS_ID_Pin */
 838:Core/Src/main.c ****   GPIO_InitStruct.Pin = OTG_FS_P_Pin|OTG_FS_N_Pin|OTG_FS_ID_Pin;
 1943              		.loc 1 838 23
 1944 024e 4FF4E053 		mov	r3, #7168
 1945 0252 FB62     		str	r3, [r7, #44]
 839:Core/Src/main.c ****   GPIO_InitStruct.Mode = GPIO_MODE_AF_PP;
 1946              		.loc 1 839 24
 1947 0254 0223     		movs	r3, #2
 1948 0256 3B63     		str	r3, [r7, #48]
 840:Core/Src/main.c ****   GPIO_InitStruct.Pull = GPIO_NOPULL;
 1949              		.loc 1 840 24
 1950 0258 0023     		movs	r3, #0
 1951 025a 7B63     		str	r3, [r7, #52]
 841:Core/Src/main.c ****   GPIO_InitStruct.Speed = GPIO_SPEED_FREQ_VERY_HIGH;
 1952              		.loc 1 841 25
 1953 025c 0323     		movs	r3, #3
 1954 025e BB63     		str	r3, [r7, #56]
 842:Core/Src/main.c ****   GPIO_InitStruct.Alternate = GPIO_AF10_OTG_FS;
 1955              		.loc 1 842 29
 1956 0260 0A23     		movs	r3, #10
 1957 0262 FB63     		str	r3, [r7, #60]
 843:Core/Src/main.c ****   HAL_GPIO_Init(GPIOA, &GPIO_InitStruct);
ARM GAS  C:\Users\jisu8\AppData\Local\Temp\ccBLEEib.s 			page 50


 1958              		.loc 1 843 3
 1959 0264 07F12C03 		add	r3, r7, #44
 1960 0268 1946     		mov	r1, r3
 1961 026a 2248     		ldr	r0, .L80+32
 1962 026c FFF7FEFF 		bl	HAL_GPIO_Init
 844:Core/Src/main.c **** 
 845:Core/Src/main.c ****   /*Configure GPIO pins : SAI2_MCLKA_Pin SAI2_SCKA_Pin SAI2_FSA_Pin SAI2_SDA_Pin */
 846:Core/Src/main.c ****   GPIO_InitStruct.Pin = SAI2_MCLKA_Pin|SAI2_SCKA_Pin|SAI2_FSA_Pin|SAI2_SDA_Pin;
 1963              		.loc 1 846 23
 1964 0270 F023     		movs	r3, #240
 1965 0272 FB62     		str	r3, [r7, #44]
 847:Core/Src/main.c ****   GPIO_InitStruct.Mode = GPIO_MODE_AF_PP;
 1966              		.loc 1 847 24
 1967 0274 0223     		movs	r3, #2
 1968 0276 3B63     		str	r3, [r7, #48]
 848:Core/Src/main.c ****   GPIO_InitStruct.Pull = GPIO_NOPULL;
 1969              		.loc 1 848 24
 1970 0278 0023     		movs	r3, #0
 1971 027a 7B63     		str	r3, [r7, #52]
 849:Core/Src/main.c ****   GPIO_InitStruct.Speed = GPIO_SPEED_FREQ_LOW;
 1972              		.loc 1 849 25
 1973 027c 0023     		movs	r3, #0
 1974 027e BB63     		str	r3, [r7, #56]
 850:Core/Src/main.c ****   GPIO_InitStruct.Alternate = GPIO_AF10_SAI2;
 1975              		.loc 1 850 29
 1976 0280 0A23     		movs	r3, #10
 1977 0282 FB63     		str	r3, [r7, #60]
 851:Core/Src/main.c ****   HAL_GPIO_Init(GPIOI, &GPIO_InitStruct);
 1978              		.loc 1 851 3
 1979 0284 07F12C03 		add	r3, r7, #44
 1980 0288 1946     		mov	r1, r3
 1981 028a 1448     		ldr	r0, .L80+8
 1982 028c FFF7FEFF 		bl	HAL_GPIO_Init
 852:Core/Src/main.c **** 
 853:Core/Src/main.c ****   /*Configure GPIO pin : SAI2_SDB_Pin */
 854:Core/Src/main.c ****   GPIO_InitStruct.Pin = SAI2_SDB_Pin;
 1983              		.loc 1 854 23
 1984 0290 4FF48063 		mov	r3, #1024
 1985 0294 FB62     		str	r3, [r7, #44]
 855:Core/Src/main.c ****   GPIO_InitStruct.Mode = GPIO_MODE_AF_PP;
 1986              		.loc 1 855 24
 1987 0296 0223     		movs	r3, #2
 1988 0298 3B63     		str	r3, [r7, #48]
 856:Core/Src/main.c ****   GPIO_InitStruct.Pull = GPIO_NOPULL;
 1989              		.loc 1 856 24
 1990 029a 0023     		movs	r3, #0
 1991 029c 7B63     		str	r3, [r7, #52]
 857:Core/Src/main.c ****   GPIO_InitStruct.Speed = GPIO_SPEED_FREQ_LOW;
 1992              		.loc 1 857 25
 1993 029e 0023     		movs	r3, #0
 1994 02a0 BB63     		str	r3, [r7, #56]
 858:Core/Src/main.c ****   GPIO_InitStruct.Alternate = GPIO_AF10_SAI2;
 1995              		.loc 1 858 29
 1996 02a2 0A23     		movs	r3, #10
 1997 02a4 FB63     		str	r3, [r7, #60]
 859:Core/Src/main.c ****   HAL_GPIO_Init(SAI2_SDB_GPIO_Port, &GPIO_InitStruct);
 1998              		.loc 1 859 3
ARM GAS  C:\Users\jisu8\AppData\Local\Temp\ccBLEEib.s 			page 51


 1999 02a6 07F12C03 		add	r3, r7, #44
 2000 02aa 1946     		mov	r1, r3
 2001 02ac 0E48     		ldr	r0, .L80+20
 2002 02ae FFF7FEFF 		bl	HAL_GPIO_Init
 860:Core/Src/main.c **** 
 861:Core/Src/main.c ****   /*Configure GPIO pin : OTG_FS_PowerSwitchOn_Pin */
 862:Core/Src/main.c ****   GPIO_InitStruct.Pin = OTG_FS_PowerSwitchOn_Pin;
 2003              		.loc 1 862 23
 2004 02b2 2023     		movs	r3, #32
 2005 02b4 FB62     		str	r3, [r7, #44]
 863:Core/Src/main.c ****   GPIO_InitStruct.Mode = GPIO_MODE_OUTPUT_PP;
 2006              		.loc 1 863 24
 2007 02b6 0123     		movs	r3, #1
 2008 02b8 3B63     		str	r3, [r7, #48]
 864:Core/Src/main.c ****   GPIO_InitStruct.Pull = GPIO_NOPULL;
 2009              		.loc 1 864 24
 2010 02ba 0023     		movs	r3, #0
 2011 02bc 7B63     		str	r3, [r7, #52]
 865:Core/Src/main.c ****   GPIO_InitStruct.Speed = GPIO_SPEED_FREQ_LOW;
 2012              		.loc 1 865 25
 2013 02be 0023     		movs	r3, #0
 2014 02c0 BB63     		str	r3, [r7, #56]
 866:Core/Src/main.c ****   HAL_GPIO_Init(OTG_FS_PowerSwitchOn_GPIO_Port, &GPIO_InitStruct);
 2015              		.loc 1 866 3
 2016 02c2 07F12C03 		add	r3, r7, #44
 2017 02c6 1946     		mov	r1, r3
 2018 02c8 0348     		ldr	r0, .L80+4
 2019 02ca FFF7FEFF 		bl	HAL_GPIO_Init
 867:Core/Src/main.c **** 
 868:Core/Src/main.c ****   /*Configure GPIO pin : DCMI_D5_Pin */
 869:Core/Src/main.c ****   GPIO_InitStruct.Pin = DCMI_D5_Pin;
 2020              		.loc 1 869 23
 2021 02ce 0823     		movs	r3, #8
 2022 02d0 14E0     		b	.L81
 2023              	.L82:
 2024 02d2 00BF     		.align	2
 2025              	.L80:
 2026 02d4 00380240 		.word	1073887232
 2027 02d8 000C0240 		.word	1073875968
 2028 02dc 00200240 		.word	1073881088
 2029 02e0 00280240 		.word	1073883136
 2030 02e4 001C0240 		.word	1073880064
 2031 02e8 00180240 		.word	1073879040
 2032 02ec 00100240 		.word	1073876992
 2033 02f0 00040240 		.word	1073873920
 2034 02f4 00000240 		.word	1073872896
 2035 02f8 00240240 		.word	1073882112
 2036              	.L81:
 2037 02fc FB62     		str	r3, [r7, #44]
 870:Core/Src/main.c ****   GPIO_InitStruct.Mode = GPIO_MODE_AF_PP;
 2038              		.loc 1 870 24
 2039 02fe 0223     		movs	r3, #2
 2040 0300 3B63     		str	r3, [r7, #48]
 871:Core/Src/main.c ****   GPIO_InitStruct.Pull = GPIO_NOPULL;
 2041              		.loc 1 871 24
 2042 0302 0023     		movs	r3, #0
 2043 0304 7B63     		str	r3, [r7, #52]
ARM GAS  C:\Users\jisu8\AppData\Local\Temp\ccBLEEib.s 			page 52


 872:Core/Src/main.c ****   GPIO_InitStruct.Speed = GPIO_SPEED_FREQ_LOW;
 2044              		.loc 1 872 25
 2045 0306 0023     		movs	r3, #0
 2046 0308 BB63     		str	r3, [r7, #56]
 873:Core/Src/main.c ****   GPIO_InitStruct.Alternate = GPIO_AF13_DCMI;
 2047              		.loc 1 873 29
 2048 030a 0D23     		movs	r3, #13
 2049 030c FB63     		str	r3, [r7, #60]
 874:Core/Src/main.c ****   HAL_GPIO_Init(DCMI_D5_GPIO_Port, &GPIO_InitStruct);
 2050              		.loc 1 874 3
 2051 030e 07F12C03 		add	r3, r7, #44
 2052 0312 1946     		mov	r1, r3
 2053 0314 8E48     		ldr	r0, .L83
 2054 0316 FFF7FEFF 		bl	HAL_GPIO_Init
 875:Core/Src/main.c **** 
 876:Core/Src/main.c ****   /*Configure GPIO pins : ARDUINO_D7_Pin ARDUINO_D8_Pin LCD_DISP_Pin */
 877:Core/Src/main.c ****   GPIO_InitStruct.Pin = ARDUINO_D7_Pin|ARDUINO_D8_Pin|LCD_DISP_Pin;
 2055              		.loc 1 877 23
 2056 031a 41F20C03 		movw	r3, #4108
 2057 031e FB62     		str	r3, [r7, #44]
 878:Core/Src/main.c ****   GPIO_InitStruct.Mode = GPIO_MODE_OUTPUT_PP;
 2058              		.loc 1 878 24
 2059 0320 0123     		movs	r3, #1
 2060 0322 3B63     		str	r3, [r7, #48]
 879:Core/Src/main.c ****   GPIO_InitStruct.Pull = GPIO_NOPULL;
 2061              		.loc 1 879 24
 2062 0324 0023     		movs	r3, #0
 2063 0326 7B63     		str	r3, [r7, #52]
 880:Core/Src/main.c ****   GPIO_InitStruct.Speed = GPIO_SPEED_FREQ_LOW;
 2064              		.loc 1 880 25
 2065 0328 0023     		movs	r3, #0
 2066 032a BB63     		str	r3, [r7, #56]
 881:Core/Src/main.c ****   HAL_GPIO_Init(GPIOI, &GPIO_InitStruct);
 2067              		.loc 1 881 3
 2068 032c 07F12C03 		add	r3, r7, #44
 2069 0330 1946     		mov	r1, r3
 2070 0332 8848     		ldr	r0, .L83+4
 2071 0334 FFF7FEFF 		bl	HAL_GPIO_Init
 882:Core/Src/main.c **** 
 883:Core/Src/main.c ****   /*Configure GPIO pin : uSD_Detect_Pin */
 884:Core/Src/main.c ****   GPIO_InitStruct.Pin = uSD_Detect_Pin;
 2072              		.loc 1 884 23
 2073 0338 4FF40053 		mov	r3, #8192
 2074 033c FB62     		str	r3, [r7, #44]
 885:Core/Src/main.c ****   GPIO_InitStruct.Mode = GPIO_MODE_INPUT;
 2075              		.loc 1 885 24
 2076 033e 0023     		movs	r3, #0
 2077 0340 3B63     		str	r3, [r7, #48]
 886:Core/Src/main.c ****   GPIO_InitStruct.Pull = GPIO_NOPULL;
 2078              		.loc 1 886 24
 2079 0342 0023     		movs	r3, #0
 2080 0344 7B63     		str	r3, [r7, #52]
 887:Core/Src/main.c ****   HAL_GPIO_Init(uSD_Detect_GPIO_Port, &GPIO_InitStruct);
 2081              		.loc 1 887 3
 2082 0346 07F12C03 		add	r3, r7, #44
 2083 034a 1946     		mov	r1, r3
 2084 034c 8248     		ldr	r0, .L83+8
ARM GAS  C:\Users\jisu8\AppData\Local\Temp\ccBLEEib.s 			page 53


 2085 034e FFF7FEFF 		bl	HAL_GPIO_Init
 888:Core/Src/main.c **** 
 889:Core/Src/main.c ****   /*Configure GPIO pin : LCD_BL_CTRL_Pin */
 890:Core/Src/main.c ****   GPIO_InitStruct.Pin = LCD_BL_CTRL_Pin;
 2086              		.loc 1 890 23
 2087 0352 0823     		movs	r3, #8
 2088 0354 FB62     		str	r3, [r7, #44]
 891:Core/Src/main.c ****   GPIO_InitStruct.Mode = GPIO_MODE_OUTPUT_PP;
 2089              		.loc 1 891 24
 2090 0356 0123     		movs	r3, #1
 2091 0358 3B63     		str	r3, [r7, #48]
 892:Core/Src/main.c ****   GPIO_InitStruct.Pull = GPIO_NOPULL;
 2092              		.loc 1 892 24
 2093 035a 0023     		movs	r3, #0
 2094 035c 7B63     		str	r3, [r7, #52]
 893:Core/Src/main.c ****   GPIO_InitStruct.Speed = GPIO_SPEED_FREQ_LOW;
 2095              		.loc 1 893 25
 2096 035e 0023     		movs	r3, #0
 2097 0360 BB63     		str	r3, [r7, #56]
 894:Core/Src/main.c ****   HAL_GPIO_Init(LCD_BL_CTRL_GPIO_Port, &GPIO_InitStruct);
 2098              		.loc 1 894 3
 2099 0362 07F12C03 		add	r3, r7, #44
 2100 0366 1946     		mov	r1, r3
 2101 0368 7C48     		ldr	r0, .L83+12
 2102 036a FFF7FEFF 		bl	HAL_GPIO_Init
 895:Core/Src/main.c **** 
 896:Core/Src/main.c ****   /*Configure GPIO pin : DCMI_VSYNC_Pin */
 897:Core/Src/main.c ****   GPIO_InitStruct.Pin = DCMI_VSYNC_Pin;
 2103              		.loc 1 897 23
 2104 036e 4FF40073 		mov	r3, #512
 2105 0372 FB62     		str	r3, [r7, #44]
 898:Core/Src/main.c ****   GPIO_InitStruct.Mode = GPIO_MODE_AF_PP;
 2106              		.loc 1 898 24
 2107 0374 0223     		movs	r3, #2
 2108 0376 3B63     		str	r3, [r7, #48]
 899:Core/Src/main.c ****   GPIO_InitStruct.Pull = GPIO_NOPULL;
 2109              		.loc 1 899 24
 2110 0378 0023     		movs	r3, #0
 2111 037a 7B63     		str	r3, [r7, #52]
 900:Core/Src/main.c ****   GPIO_InitStruct.Speed = GPIO_SPEED_FREQ_LOW;
 2112              		.loc 1 900 25
 2113 037c 0023     		movs	r3, #0
 2114 037e BB63     		str	r3, [r7, #56]
 901:Core/Src/main.c ****   GPIO_InitStruct.Alternate = GPIO_AF13_DCMI;
 2115              		.loc 1 901 29
 2116 0380 0D23     		movs	r3, #13
 2117 0382 FB63     		str	r3, [r7, #60]
 902:Core/Src/main.c ****   HAL_GPIO_Init(DCMI_VSYNC_GPIO_Port, &GPIO_InitStruct);
 2118              		.loc 1 902 3
 2119 0384 07F12C03 		add	r3, r7, #44
 2120 0388 1946     		mov	r1, r3
 2121 038a 7548     		ldr	r0, .L83+16
 2122 038c FFF7FEFF 		bl	HAL_GPIO_Init
 903:Core/Src/main.c **** 
 904:Core/Src/main.c ****   /*Configure GPIO pin : OTG_FS_OverCurrent_Pin */
 905:Core/Src/main.c ****   GPIO_InitStruct.Pin = OTG_FS_OverCurrent_Pin;
 2123              		.loc 1 905 23
ARM GAS  C:\Users\jisu8\AppData\Local\Temp\ccBLEEib.s 			page 54


 2124 0390 1023     		movs	r3, #16
 2125 0392 FB62     		str	r3, [r7, #44]
 906:Core/Src/main.c ****   GPIO_InitStruct.Mode = GPIO_MODE_INPUT;
 2126              		.loc 1 906 24
 2127 0394 0023     		movs	r3, #0
 2128 0396 3B63     		str	r3, [r7, #48]
 907:Core/Src/main.c ****   GPIO_InitStruct.Pull = GPIO_NOPULL;
 2129              		.loc 1 907 24
 2130 0398 0023     		movs	r3, #0
 2131 039a 7B63     		str	r3, [r7, #52]
 908:Core/Src/main.c ****   HAL_GPIO_Init(OTG_FS_OverCurrent_GPIO_Port, &GPIO_InitStruct);
 2132              		.loc 1 908 3
 2133 039c 07F12C03 		add	r3, r7, #44
 2134 03a0 1946     		mov	r1, r3
 2135 03a2 6B48     		ldr	r0, .L83
 2136 03a4 FFF7FEFF 		bl	HAL_GPIO_Init
 909:Core/Src/main.c **** 
 910:Core/Src/main.c ****   /*Configure GPIO pins : TP3_Pin NC2_Pin */
 911:Core/Src/main.c ****   GPIO_InitStruct.Pin = TP3_Pin|NC2_Pin;
 2137              		.loc 1 911 23
 2138 03a8 48F20403 		movw	r3, #32772
 2139 03ac FB62     		str	r3, [r7, #44]
 912:Core/Src/main.c ****   GPIO_InitStruct.Mode = GPIO_MODE_INPUT;
 2140              		.loc 1 912 24
 2141 03ae 0023     		movs	r3, #0
 2142 03b0 3B63     		str	r3, [r7, #48]
 913:Core/Src/main.c ****   GPIO_InitStruct.Pull = GPIO_NOPULL;
 2143              		.loc 1 913 24
 2144 03b2 0023     		movs	r3, #0
 2145 03b4 7B63     		str	r3, [r7, #52]
 914:Core/Src/main.c ****   HAL_GPIO_Init(GPIOH, &GPIO_InitStruct);
 2146              		.loc 1 914 3
 2147 03b6 07F12C03 		add	r3, r7, #44
 2148 03ba 1946     		mov	r1, r3
 2149 03bc 6948     		ldr	r0, .L83+20
 2150 03be FFF7FEFF 		bl	HAL_GPIO_Init
 915:Core/Src/main.c **** 
 916:Core/Src/main.c ****   /*Configure GPIO pin : DCMI_PWR_EN_Pin */
 917:Core/Src/main.c ****   GPIO_InitStruct.Pin = DCMI_PWR_EN_Pin;
 2151              		.loc 1 917 23
 2152 03c2 4FF40053 		mov	r3, #8192
 2153 03c6 FB62     		str	r3, [r7, #44]
 918:Core/Src/main.c ****   GPIO_InitStruct.Mode = GPIO_MODE_OUTPUT_PP;
 2154              		.loc 1 918 24
 2155 03c8 0123     		movs	r3, #1
 2156 03ca 3B63     		str	r3, [r7, #48]
 919:Core/Src/main.c ****   GPIO_InitStruct.Pull = GPIO_NOPULL;
 2157              		.loc 1 919 24
 2158 03cc 0023     		movs	r3, #0
 2159 03ce 7B63     		str	r3, [r7, #52]
 920:Core/Src/main.c ****   GPIO_InitStruct.Speed = GPIO_SPEED_FREQ_LOW;
 2160              		.loc 1 920 25
 2161 03d0 0023     		movs	r3, #0
 2162 03d2 BB63     		str	r3, [r7, #56]
 921:Core/Src/main.c ****   HAL_GPIO_Init(DCMI_PWR_EN_GPIO_Port, &GPIO_InitStruct);
 2163              		.loc 1 921 3
 2164 03d4 07F12C03 		add	r3, r7, #44
ARM GAS  C:\Users\jisu8\AppData\Local\Temp\ccBLEEib.s 			page 55


 2165 03d8 1946     		mov	r1, r3
 2166 03da 6248     		ldr	r0, .L83+20
 2167 03dc FFF7FEFF 		bl	HAL_GPIO_Init
 922:Core/Src/main.c **** 
 923:Core/Src/main.c ****   /*Configure GPIO pins : DCMI_D4_Pin DCMI_D3_Pin DCMI_D0_Pin DCMI_D2_Pin
 924:Core/Src/main.c ****                            DCMI_D1_Pin */
 925:Core/Src/main.c ****   GPIO_InitStruct.Pin = DCMI_D4_Pin|DCMI_D3_Pin|DCMI_D0_Pin|DCMI_D2_Pin
 2168              		.loc 1 925 23
 2169 03e0 4FF4BC43 		mov	r3, #24064
 2170 03e4 FB62     		str	r3, [r7, #44]
 926:Core/Src/main.c ****                           |DCMI_D1_Pin;
 927:Core/Src/main.c ****   GPIO_InitStruct.Mode = GPIO_MODE_AF_PP;
 2171              		.loc 1 927 24
 2172 03e6 0223     		movs	r3, #2
 2173 03e8 3B63     		str	r3, [r7, #48]
 928:Core/Src/main.c ****   GPIO_InitStruct.Pull = GPIO_NOPULL;
 2174              		.loc 1 928 24
 2175 03ea 0023     		movs	r3, #0
 2176 03ec 7B63     		str	r3, [r7, #52]
 929:Core/Src/main.c ****   GPIO_InitStruct.Speed = GPIO_SPEED_FREQ_LOW;
 2177              		.loc 1 929 25
 2178 03ee 0023     		movs	r3, #0
 2179 03f0 BB63     		str	r3, [r7, #56]
 930:Core/Src/main.c ****   GPIO_InitStruct.Alternate = GPIO_AF13_DCMI;
 2180              		.loc 1 930 29
 2181 03f2 0D23     		movs	r3, #13
 2182 03f4 FB63     		str	r3, [r7, #60]
 931:Core/Src/main.c ****   HAL_GPIO_Init(GPIOH, &GPIO_InitStruct);
 2183              		.loc 1 931 3
 2184 03f6 07F12C03 		add	r3, r7, #44
 2185 03fa 1946     		mov	r1, r3
 2186 03fc 5948     		ldr	r0, .L83+20
 2187 03fe FFF7FEFF 		bl	HAL_GPIO_Init
 932:Core/Src/main.c **** 
 933:Core/Src/main.c ****   /*Configure GPIO pin : ARDUINO_PWM_CS_D5_Pin */
 934:Core/Src/main.c ****   GPIO_InitStruct.Pin = ARDUINO_PWM_CS_D5_Pin;
 2188              		.loc 1 934 23
 2189 0402 0123     		movs	r3, #1
 2190 0404 FB62     		str	r3, [r7, #44]
 935:Core/Src/main.c ****   GPIO_InitStruct.Mode = GPIO_MODE_AF_PP;
 2191              		.loc 1 935 24
 2192 0406 0223     		movs	r3, #2
 2193 0408 3B63     		str	r3, [r7, #48]
 936:Core/Src/main.c ****   GPIO_InitStruct.Pull = GPIO_NOPULL;
 2194              		.loc 1 936 24
 2195 040a 0023     		movs	r3, #0
 2196 040c 7B63     		str	r3, [r7, #52]
 937:Core/Src/main.c ****   GPIO_InitStruct.Speed = GPIO_SPEED_FREQ_LOW;
 2197              		.loc 1 937 25
 2198 040e 0023     		movs	r3, #0
 2199 0410 BB63     		str	r3, [r7, #56]
 938:Core/Src/main.c ****   GPIO_InitStruct.Alternate = GPIO_AF2_TIM5;
 2200              		.loc 1 938 29
 2201 0412 0223     		movs	r3, #2
 2202 0414 FB63     		str	r3, [r7, #60]
 939:Core/Src/main.c ****   HAL_GPIO_Init(ARDUINO_PWM_CS_D5_GPIO_Port, &GPIO_InitStruct);
 2203              		.loc 1 939 3
ARM GAS  C:\Users\jisu8\AppData\Local\Temp\ccBLEEib.s 			page 56


 2204 0416 07F12C03 		add	r3, r7, #44
 2205 041a 1946     		mov	r1, r3
 2206 041c 4D48     		ldr	r0, .L83+4
 2207 041e FFF7FEFF 		bl	HAL_GPIO_Init
 940:Core/Src/main.c **** 
 941:Core/Src/main.c ****   /*Configure GPIO pin : ARDUINO_PWM_D10_Pin */
 942:Core/Src/main.c ****   GPIO_InitStruct.Pin = ARDUINO_PWM_D10_Pin;
 2208              		.loc 1 942 23
 2209 0422 4FF48073 		mov	r3, #256
 2210 0426 FB62     		str	r3, [r7, #44]
 943:Core/Src/main.c ****   GPIO_InitStruct.Mode = GPIO_MODE_AF_PP;
 2211              		.loc 1 943 24
 2212 0428 0223     		movs	r3, #2
 2213 042a 3B63     		str	r3, [r7, #48]
 944:Core/Src/main.c ****   GPIO_InitStruct.Pull = GPIO_NOPULL;
 2214              		.loc 1 944 24
 2215 042c 0023     		movs	r3, #0
 2216 042e 7B63     		str	r3, [r7, #52]
 945:Core/Src/main.c ****   GPIO_InitStruct.Speed = GPIO_SPEED_FREQ_LOW;
 2217              		.loc 1 945 25
 2218 0430 0023     		movs	r3, #0
 2219 0432 BB63     		str	r3, [r7, #56]
 946:Core/Src/main.c ****   GPIO_InitStruct.Alternate = GPIO_AF1_TIM1;
 2220              		.loc 1 946 29
 2221 0434 0123     		movs	r3, #1
 2222 0436 FB63     		str	r3, [r7, #60]
 947:Core/Src/main.c ****   HAL_GPIO_Init(ARDUINO_PWM_D10_GPIO_Port, &GPIO_InitStruct);
 2223              		.loc 1 947 3
 2224 0438 07F12C03 		add	r3, r7, #44
 2225 043c 1946     		mov	r1, r3
 2226 043e 4A48     		ldr	r0, .L83+24
 2227 0440 FFF7FEFF 		bl	HAL_GPIO_Init
 948:Core/Src/main.c **** 
 949:Core/Src/main.c ****   /*Configure GPIO pin : LCD_INT_Pin */
 950:Core/Src/main.c ****   GPIO_InitStruct.Pin = LCD_INT_Pin;
 2228              		.loc 1 950 23
 2229 0444 4FF40053 		mov	r3, #8192
 2230 0448 FB62     		str	r3, [r7, #44]
 951:Core/Src/main.c ****   GPIO_InitStruct.Mode = GPIO_MODE_EVT_RISING;
 2231              		.loc 1 951 24
 2232 044a 4FF49013 		mov	r3, #1179648
 2233 044e 3B63     		str	r3, [r7, #48]
 952:Core/Src/main.c ****   GPIO_InitStruct.Pull = GPIO_NOPULL;
 2234              		.loc 1 952 24
 2235 0450 0023     		movs	r3, #0
 2236 0452 7B63     		str	r3, [r7, #52]
 953:Core/Src/main.c ****   HAL_GPIO_Init(LCD_INT_GPIO_Port, &GPIO_InitStruct);
 2237              		.loc 1 953 3
 2238 0454 07F12C03 		add	r3, r7, #44
 2239 0458 1946     		mov	r1, r3
 2240 045a 3E48     		ldr	r0, .L83+4
 2241 045c FFF7FEFF 		bl	HAL_GPIO_Init
 954:Core/Src/main.c **** 
 955:Core/Src/main.c ****   /*Configure GPIO pins : ARDUINO_D4_Pin ARDUINO_D2_Pin EXT_RST_Pin */
 956:Core/Src/main.c ****   GPIO_InitStruct.Pin = ARDUINO_D4_Pin|ARDUINO_D2_Pin|EXT_RST_Pin;
 2242              		.loc 1 956 23
 2243 0460 C823     		movs	r3, #200
ARM GAS  C:\Users\jisu8\AppData\Local\Temp\ccBLEEib.s 			page 57


 2244 0462 FB62     		str	r3, [r7, #44]
 957:Core/Src/main.c ****   GPIO_InitStruct.Mode = GPIO_MODE_OUTPUT_PP;
 2245              		.loc 1 957 24
 2246 0464 0123     		movs	r3, #1
 2247 0466 3B63     		str	r3, [r7, #48]
 958:Core/Src/main.c ****   GPIO_InitStruct.Pull = GPIO_NOPULL;
 2248              		.loc 1 958 24
 2249 0468 0023     		movs	r3, #0
 2250 046a 7B63     		str	r3, [r7, #52]
 959:Core/Src/main.c ****   GPIO_InitStruct.Speed = GPIO_SPEED_FREQ_LOW;
 2251              		.loc 1 959 25
 2252 046c 0023     		movs	r3, #0
 2253 046e BB63     		str	r3, [r7, #56]
 960:Core/Src/main.c ****   HAL_GPIO_Init(GPIOG, &GPIO_InitStruct);
 2254              		.loc 1 960 3
 2255 0470 07F12C03 		add	r3, r7, #44
 2256 0474 1946     		mov	r1, r3
 2257 0476 3A48     		ldr	r0, .L83+16
 2258 0478 FFF7FEFF 		bl	HAL_GPIO_Init
 961:Core/Src/main.c **** 
 962:Core/Src/main.c ****   /*Configure GPIO pins : ARDUINO_A4_Pin ARDUINO_A5_Pin ARDUINO_A1_Pin ARDUINO_A2_Pin
 963:Core/Src/main.c ****                            ARDUINO_A3_Pin */
 964:Core/Src/main.c ****   GPIO_InitStruct.Pin = ARDUINO_A4_Pin|ARDUINO_A5_Pin|ARDUINO_A1_Pin|ARDUINO_A2_Pin
 2259              		.loc 1 964 23
 2260 047c 4FF4F863 		mov	r3, #1984
 2261 0480 FB62     		str	r3, [r7, #44]
 965:Core/Src/main.c ****                           |ARDUINO_A3_Pin;
 966:Core/Src/main.c ****   GPIO_InitStruct.Mode = GPIO_MODE_ANALOG;
 2262              		.loc 1 966 24
 2263 0482 0323     		movs	r3, #3
 2264 0484 3B63     		str	r3, [r7, #48]
 967:Core/Src/main.c ****   GPIO_InitStruct.Pull = GPIO_NOPULL;
 2265              		.loc 1 967 24
 2266 0486 0023     		movs	r3, #0
 2267 0488 7B63     		str	r3, [r7, #52]
 968:Core/Src/main.c ****   HAL_GPIO_Init(GPIOF, &GPIO_InitStruct);
 2268              		.loc 1 968 3
 2269 048a 07F12C03 		add	r3, r7, #44
 2270 048e 1946     		mov	r1, r3
 2271 0490 3648     		ldr	r0, .L83+28
 2272 0492 FFF7FEFF 		bl	HAL_GPIO_Init
 969:Core/Src/main.c **** 
 970:Core/Src/main.c ****   /*Configure GPIO pins : RMII_MDC_Pin RMII_RXD0_Pin RMII_RXD1_Pin */
 971:Core/Src/main.c ****   GPIO_InitStruct.Pin = RMII_MDC_Pin|RMII_RXD0_Pin|RMII_RXD1_Pin;
 2273              		.loc 1 971 23
 2274 0496 3223     		movs	r3, #50
 2275 0498 FB62     		str	r3, [r7, #44]
 972:Core/Src/main.c ****   GPIO_InitStruct.Mode = GPIO_MODE_AF_PP;
 2276              		.loc 1 972 24
 2277 049a 0223     		movs	r3, #2
 2278 049c 3B63     		str	r3, [r7, #48]
 973:Core/Src/main.c ****   GPIO_InitStruct.Pull = GPIO_NOPULL;
 2279              		.loc 1 973 24
 2280 049e 0023     		movs	r3, #0
 2281 04a0 7B63     		str	r3, [r7, #52]
 974:Core/Src/main.c ****   GPIO_InitStruct.Speed = GPIO_SPEED_FREQ_VERY_HIGH;
 2282              		.loc 1 974 25
ARM GAS  C:\Users\jisu8\AppData\Local\Temp\ccBLEEib.s 			page 58


 2283 04a2 0323     		movs	r3, #3
 2284 04a4 BB63     		str	r3, [r7, #56]
 975:Core/Src/main.c ****   GPIO_InitStruct.Alternate = GPIO_AF11_ETH;
 2285              		.loc 1 975 29
 2286 04a6 0B23     		movs	r3, #11
 2287 04a8 FB63     		str	r3, [r7, #60]
 976:Core/Src/main.c ****   HAL_GPIO_Init(GPIOC, &GPIO_InitStruct);
 2288              		.loc 1 976 3
 2289 04aa 07F12C03 		add	r3, r7, #44
 2290 04ae 1946     		mov	r1, r3
 2291 04b0 2948     		ldr	r0, .L83+8
 2292 04b2 FFF7FEFF 		bl	HAL_GPIO_Init
 977:Core/Src/main.c **** 
 978:Core/Src/main.c ****   /*Configure GPIO pin : RMII_RXER_Pin */
 979:Core/Src/main.c ****   GPIO_InitStruct.Pin = RMII_RXER_Pin;
 2293              		.loc 1 979 23
 2294 04b6 0423     		movs	r3, #4
 2295 04b8 FB62     		str	r3, [r7, #44]
 980:Core/Src/main.c ****   GPIO_InitStruct.Mode = GPIO_MODE_INPUT;
 2296              		.loc 1 980 24
 2297 04ba 0023     		movs	r3, #0
 2298 04bc 3B63     		str	r3, [r7, #48]
 981:Core/Src/main.c ****   GPIO_InitStruct.Pull = GPIO_NOPULL;
 2299              		.loc 1 981 24
 2300 04be 0023     		movs	r3, #0
 2301 04c0 7B63     		str	r3, [r7, #52]
 982:Core/Src/main.c ****   HAL_GPIO_Init(RMII_RXER_GPIO_Port, &GPIO_InitStruct);
 2302              		.loc 1 982 3
 2303 04c2 07F12C03 		add	r3, r7, #44
 2304 04c6 1946     		mov	r1, r3
 2305 04c8 2548     		ldr	r0, .L83+16
 2306 04ca FFF7FEFF 		bl	HAL_GPIO_Init
 983:Core/Src/main.c **** 
 984:Core/Src/main.c ****   /*Configure GPIO pins : RMII_REF_CLK_Pin RMII_MDIO_Pin RMII_CRS_DV_Pin */
 985:Core/Src/main.c ****   GPIO_InitStruct.Pin = RMII_REF_CLK_Pin|RMII_MDIO_Pin|RMII_CRS_DV_Pin;
 2307              		.loc 1 985 23
 2308 04ce 8623     		movs	r3, #134
 2309 04d0 FB62     		str	r3, [r7, #44]
 986:Core/Src/main.c ****   GPIO_InitStruct.Mode = GPIO_MODE_AF_PP;
 2310              		.loc 1 986 24
 2311 04d2 0223     		movs	r3, #2
 2312 04d4 3B63     		str	r3, [r7, #48]
 987:Core/Src/main.c ****   GPIO_InitStruct.Pull = GPIO_NOPULL;
 2313              		.loc 1 987 24
 2314 04d6 0023     		movs	r3, #0
 2315 04d8 7B63     		str	r3, [r7, #52]
 988:Core/Src/main.c ****   GPIO_InitStruct.Speed = GPIO_SPEED_FREQ_VERY_HIGH;
 2316              		.loc 1 988 25
 2317 04da 0323     		movs	r3, #3
 2318 04dc BB63     		str	r3, [r7, #56]
 989:Core/Src/main.c ****   GPIO_InitStruct.Alternate = GPIO_AF11_ETH;
 2319              		.loc 1 989 29
 2320 04de 0B23     		movs	r3, #11
 2321 04e0 FB63     		str	r3, [r7, #60]
 990:Core/Src/main.c ****   HAL_GPIO_Init(GPIOA, &GPIO_InitStruct);
 2322              		.loc 1 990 3
 2323 04e2 07F12C03 		add	r3, r7, #44
ARM GAS  C:\Users\jisu8\AppData\Local\Temp\ccBLEEib.s 			page 59


 2324 04e6 1946     		mov	r1, r3
 2325 04e8 1F48     		ldr	r0, .L83+24
 2326 04ea FFF7FEFF 		bl	HAL_GPIO_Init
 991:Core/Src/main.c **** 
 992:Core/Src/main.c ****   /*Configure GPIO pin : ARDUINO_A0_Pin */
 993:Core/Src/main.c ****   GPIO_InitStruct.Pin = ARDUINO_A0_Pin;
 2327              		.loc 1 993 23
 2328 04ee 0123     		movs	r3, #1
 2329 04f0 FB62     		str	r3, [r7, #44]
 994:Core/Src/main.c ****   GPIO_InitStruct.Mode = GPIO_MODE_ANALOG;
 2330              		.loc 1 994 24
 2331 04f2 0323     		movs	r3, #3
 2332 04f4 3B63     		str	r3, [r7, #48]
 995:Core/Src/main.c ****   GPIO_InitStruct.Pull = GPIO_NOPULL;
 2333              		.loc 1 995 24
 2334 04f6 0023     		movs	r3, #0
 2335 04f8 7B63     		str	r3, [r7, #52]
 996:Core/Src/main.c ****   HAL_GPIO_Init(ARDUINO_A0_GPIO_Port, &GPIO_InitStruct);
 2336              		.loc 1 996 3
 2337 04fa 07F12C03 		add	r3, r7, #44
 2338 04fe 1946     		mov	r1, r3
 2339 0500 1948     		ldr	r0, .L83+24
 2340 0502 FFF7FEFF 		bl	HAL_GPIO_Init
 997:Core/Src/main.c **** 
 998:Core/Src/main.c ****   /*Configure GPIO pins : DCMI_HSYNC_Pin PA6 */
 999:Core/Src/main.c ****   GPIO_InitStruct.Pin = DCMI_HSYNC_Pin|GPIO_PIN_6;
 2341              		.loc 1 999 23
 2342 0506 5023     		movs	r3, #80
 2343 0508 FB62     		str	r3, [r7, #44]
1000:Core/Src/main.c ****   GPIO_InitStruct.Mode = GPIO_MODE_AF_PP;
 2344              		.loc 1 1000 24
 2345 050a 0223     		movs	r3, #2
 2346 050c 3B63     		str	r3, [r7, #48]
1001:Core/Src/main.c ****   GPIO_InitStruct.Pull = GPIO_NOPULL;
 2347              		.loc 1 1001 24
 2348 050e 0023     		movs	r3, #0
 2349 0510 7B63     		str	r3, [r7, #52]
1002:Core/Src/main.c ****   GPIO_InitStruct.Speed = GPIO_SPEED_FREQ_LOW;
 2350              		.loc 1 1002 25
 2351 0512 0023     		movs	r3, #0
 2352 0514 BB63     		str	r3, [r7, #56]
1003:Core/Src/main.c ****   GPIO_InitStruct.Alternate = GPIO_AF13_DCMI;
 2353              		.loc 1 1003 29
 2354 0516 0D23     		movs	r3, #13
 2355 0518 FB63     		str	r3, [r7, #60]
1004:Core/Src/main.c ****   HAL_GPIO_Init(GPIOA, &GPIO_InitStruct);
 2356              		.loc 1 1004 3
 2357 051a 07F12C03 		add	r3, r7, #44
 2358 051e 1946     		mov	r1, r3
 2359 0520 1148     		ldr	r0, .L83+24
 2360 0522 FFF7FEFF 		bl	HAL_GPIO_Init
1005:Core/Src/main.c **** 
1006:Core/Src/main.c ****   /*Configure GPIO pin : ARDUINO_PWM_D6_Pin */
1007:Core/Src/main.c ****   GPIO_InitStruct.Pin = ARDUINO_PWM_D6_Pin;
 2361              		.loc 1 1007 23
 2362 0526 4023     		movs	r3, #64
 2363 0528 FB62     		str	r3, [r7, #44]
ARM GAS  C:\Users\jisu8\AppData\Local\Temp\ccBLEEib.s 			page 60


1008:Core/Src/main.c ****   GPIO_InitStruct.Mode = GPIO_MODE_AF_PP;
 2364              		.loc 1 1008 24
 2365 052a 0223     		movs	r3, #2
 2366 052c 3B63     		str	r3, [r7, #48]
1009:Core/Src/main.c ****   GPIO_InitStruct.Pull = GPIO_NOPULL;
 2367              		.loc 1 1009 24
 2368 052e 0023     		movs	r3, #0
 2369 0530 7B63     		str	r3, [r7, #52]
1010:Core/Src/main.c ****   GPIO_InitStruct.Speed = GPIO_SPEED_FREQ_LOW;
 2370              		.loc 1 1010 25
 2371 0532 0023     		movs	r3, #0
 2372 0534 BB63     		str	r3, [r7, #56]
1011:Core/Src/main.c ****   GPIO_InitStruct.Alternate = GPIO_AF9_TIM12;
 2373              		.loc 1 1011 29
 2374 0536 0923     		movs	r3, #9
 2375 0538 FB63     		str	r3, [r7, #60]
1012:Core/Src/main.c ****   HAL_GPIO_Init(ARDUINO_PWM_D6_GPIO_Port, &GPIO_InitStruct);
 2376              		.loc 1 1012 3
 2377 053a 07F12C03 		add	r3, r7, #44
 2378 053e 1946     		mov	r1, r3
 2379 0540 0848     		ldr	r0, .L83+20
 2380 0542 FFF7FEFF 		bl	HAL_GPIO_Init
1013:Core/Src/main.c **** 
1014:Core/Src/main.c **** }
 2381              		.loc 1 1014 1
 2382 0546 00BF     		nop
 2383 0548 4037     		adds	r7, r7, #64
 2384              	.LCFI51:
 2385              		.cfi_def_cfa_offset 8
 2386 054a BD46     		mov	sp, r7
 2387              	.LCFI52:
 2388              		.cfi_def_cfa_register 13
 2389              		@ sp needed
 2390 054c 80BD     		pop	{r7, pc}
 2391              	.L84:
 2392 054e 00BF     		.align	2
 2393              	.L83:
 2394 0550 000C0240 		.word	1073875968
 2395 0554 00200240 		.word	1073881088
 2396 0558 00080240 		.word	1073874944
 2397 055c 00280240 		.word	1073883136
 2398 0560 00180240 		.word	1073879040
 2399 0564 001C0240 		.word	1073880064
 2400 0568 00000240 		.word	1073872896
 2401 056c 00140240 		.word	1073878016
 2402              		.cfi_endproc
 2403              	.LFE165:
 2405              		.section	.text.StartDefaultTask,"ax",%progbits
 2406              		.align	1
 2407              		.global	StartDefaultTask
 2408              		.syntax unified
 2409              		.thumb
 2410              		.thumb_func
 2412              	StartDefaultTask:
 2413              	.LFB166:
1015:Core/Src/main.c **** 
1016:Core/Src/main.c **** /* USER CODE END 4 */
ARM GAS  C:\Users\jisu8\AppData\Local\Temp\ccBLEEib.s 			page 61


1017:Core/Src/main.c **** /* USER CODE BEGIN Header_StartDefaultTask */
1018:Core/Src/main.c **** /**
1019:Core/Src/main.c ****   * @brief  Function implementing the defaultTask thread.
1020:Core/Src/main.c ****   * @param  argument: Not used
1021:Core/Src/main.c ****   * @retval None
1022:Core/Src/main.c ****   */
1023:Core/Src/main.c **** /* USER CODE END Header_StartDefaultTask */
1024:Core/Src/main.c **** void StartDefaultTask(void const * argument)
1025:Core/Src/main.c **** {
 2414              		.loc 1 1025 1
 2415              		.cfi_startproc
 2416              		@ args = 0, pretend = 0, frame = 8
 2417              		@ frame_needed = 1, uses_anonymous_args = 0
 2418 0000 90B5     		push	{r4, r7, lr}
 2419              	.LCFI53:
 2420              		.cfi_def_cfa_offset 12
 2421              		.cfi_offset 4, -12
 2422              		.cfi_offset 7, -8
 2423              		.cfi_offset 14, -4
 2424 0002 83B0     		sub	sp, sp, #12
 2425              	.LCFI54:
 2426              		.cfi_def_cfa_offset 24
 2427 0004 00AF     		add	r7, sp, #0
 2428              	.LCFI55:
 2429              		.cfi_def_cfa_register 7
 2430 0006 7860     		str	r0, [r7, #4]
1026:Core/Src/main.c ****     static uint8_t Usb_Mode_old;
1027:Core/Src/main.c ****     Music_SdCard_Init();
 2431              		.loc 1 1027 5
 2432 0008 FFF7FEFF 		bl	Music_SdCard_Init
1028:Core/Src/main.c ****     
1029:Core/Src/main.c ****     BSP_SDRAM_Init();
 2433              		.loc 1 1029 5
 2434 000c FFF7FEFF 		bl	BSP_SDRAM_Init
1030:Core/Src/main.c ****     BSP_LCD_Init();
 2435              		.loc 1 1030 5
 2436 0010 FFF7FEFF 		bl	BSP_LCD_Init
1031:Core/Src/main.c ****     BSP_TS_Init(BSP_LCD_GetXSize(), BSP_LCD_GetYSize());
 2437              		.loc 1 1031 17
 2438 0014 FFF7FEFF 		bl	BSP_LCD_GetXSize
 2439 0018 0346     		mov	r3, r0
 2440              		.loc 1 1031 5
 2441 001a 9CB2     		uxth	r4, r3
 2442              		.loc 1 1031 37
 2443 001c FFF7FEFF 		bl	BSP_LCD_GetYSize
 2444 0020 0346     		mov	r3, r0
 2445              		.loc 1 1031 5
 2446 0022 9BB2     		uxth	r3, r3
 2447 0024 1946     		mov	r1, r3
 2448 0026 2046     		mov	r0, r4
 2449 0028 FFF7FEFF 		bl	BSP_TS_Init
1032:Core/Src/main.c ****     LCD_Display_Init();
 2450              		.loc 1 1032 5
 2451 002c FFF7FEFF 		bl	LCD_Display_Init
1033:Core/Src/main.c ****     Music_File_Read();
 2452              		.loc 1 1033 5
 2453 0030 FFF7FEFF 		bl	Music_File_Read
ARM GAS  C:\Users\jisu8\AppData\Local\Temp\ccBLEEib.s 			page 62


1034:Core/Src/main.c ****     /* init code for USB_HOST */
1035:Core/Src/main.c ****     //MX_USB_HOST_Init();
1036:Core/Src/main.c ****     /* init code for USB_DEVICE */
1037:Core/Src/main.c ****     MX_USB_DEVICE_Init();  
 2454              		.loc 1 1037 5
 2455 0034 FFF7FEFF 		bl	MX_USB_DEVICE_Init
 2456              	.L88:
1038:Core/Src/main.c ****     
1039:Core/Src/main.c ****     /* Infinite loop */
1040:Core/Src/main.c ****     for(;;)
1041:Core/Src/main.c ****     {
1042:Core/Src/main.c ****         if((Usb_Mode == 0) && (Usb_Mode_old == 1))
 2457              		.loc 1 1042 22
 2458 0038 0B4B     		ldr	r3, .L89
 2459 003a 1B78     		ldrb	r3, [r3]	@ zero_extendqisi2
 2460              		.loc 1 1042 11
 2461 003c 002B     		cmp	r3, #0
 2462 003e 0CD1     		bne	.L86
 2463              		.loc 1 1042 45 discriminator 1
 2464 0040 0A4B     		ldr	r3, .L89+4
 2465 0042 1B78     		ldrb	r3, [r3]	@ zero_extendqisi2
 2466              		.loc 1 1042 28 discriminator 1
 2467 0044 012B     		cmp	r3, #1
 2468 0046 05D1     		bne	.L87
 2469              	.LBB18:
1043:Core/Src/main.c ****         {
1044:Core/Src/main.c ****           USBD_Stop(&hUsbDeviceHS);
 2470              		.loc 1 1044 11
 2471 0048 0948     		ldr	r0, .L89+8
 2472 004a FFF7FEFF 		bl	USBD_Stop
1045:Core/Src/main.c ****           Music_File_Read();
 2473              		.loc 1 1045 11
 2474 004e FFF7FEFF 		bl	Music_File_Read
 2475              	.LBE18:
 2476 0052 02E0     		b	.L86
 2477              	.L87:
1046:Core/Src/main.c ****         }
1047:Core/Src/main.c ****         else if((Usb_Mode == 1) && (Usb_Mode_old == 0))
 2478              		.loc 1 1047 27
 2479 0054 044B     		ldr	r3, .L89
 2480 0056 1B78     		ldrb	r3, [r3]	@ zero_extendqisi2
 2481              		.loc 1 1047 16
 2482 0058 012B     		cmp	r3, #1
 2483              	.L86:
1048:Core/Src/main.c ****         {
1049:Core/Src/main.c **** 
1050:Core/Src/main.c ****         }
1051:Core/Src/main.c ****         Usb_Mode_old == Usb_Mode;
1052:Core/Src/main.c ****         Touch_Operation();
 2484              		.loc 1 1052 9
 2485 005a FFF7FEFF 		bl	Touch_Operation
1053:Core/Src/main.c ****         osDelay(100);
 2486              		.loc 1 1053 9
 2487 005e 6420     		movs	r0, #100
 2488 0060 FFF7FEFF 		bl	osDelay
1042:Core/Src/main.c ****         {
 2489              		.loc 1 1042 11
ARM GAS  C:\Users\jisu8\AppData\Local\Temp\ccBLEEib.s 			page 63


 2490 0064 E8E7     		b	.L88
 2491              	.L90:
 2492 0066 00BF     		.align	2
 2493              	.L89:
 2494 0068 00000000 		.word	Usb_Mode
 2495 006c 00000000 		.word	Usb_Mode_old.0
 2496 0070 00000000 		.word	hUsbDeviceHS
 2497              		.cfi_endproc
 2498              	.LFE166:
 2500              		.section	.text.HAL_TIM_PeriodElapsedCallback,"ax",%progbits
 2501              		.align	1
 2502              		.global	HAL_TIM_PeriodElapsedCallback
 2503              		.syntax unified
 2504              		.thumb
 2505              		.thumb_func
 2507              	HAL_TIM_PeriodElapsedCallback:
 2508              	.LFB167:
1054:Core/Src/main.c ****     }
1055:Core/Src/main.c **** }
1056:Core/Src/main.c **** 
1057:Core/Src/main.c **** /**
1058:Core/Src/main.c ****   * @brief  Period elapsed callback in non blocking mode
1059:Core/Src/main.c ****   * @note   This function is called  when TIM6 interrupt took place, inside
1060:Core/Src/main.c ****   * HAL_TIM_IRQHandler(). It makes a direct call to HAL_IncTick() to increment
1061:Core/Src/main.c ****   * a global variable "uwTick" used as application time base.
1062:Core/Src/main.c ****   * @param  htim : TIM handle
1063:Core/Src/main.c ****   * @retval None
1064:Core/Src/main.c ****   */
1065:Core/Src/main.c **** void HAL_TIM_PeriodElapsedCallback(TIM_HandleTypeDef *htim)
1066:Core/Src/main.c **** {
 2509              		.loc 1 1066 1
 2510              		.cfi_startproc
 2511              		@ args = 0, pretend = 0, frame = 8
 2512              		@ frame_needed = 1, uses_anonymous_args = 0
 2513 0000 80B5     		push	{r7, lr}
 2514              	.LCFI56:
 2515              		.cfi_def_cfa_offset 8
 2516              		.cfi_offset 7, -8
 2517              		.cfi_offset 14, -4
 2518 0002 82B0     		sub	sp, sp, #8
 2519              	.LCFI57:
 2520              		.cfi_def_cfa_offset 16
 2521 0004 00AF     		add	r7, sp, #0
 2522              	.LCFI58:
 2523              		.cfi_def_cfa_register 7
 2524 0006 7860     		str	r0, [r7, #4]
1067:Core/Src/main.c ****   /* USER CODE BEGIN Callback 0 */
1068:Core/Src/main.c **** 
1069:Core/Src/main.c ****   /* USER CODE END Callback 0 */
1070:Core/Src/main.c ****   if (htim->Instance == TIM6) {
 2525              		.loc 1 1070 11
 2526 0008 7B68     		ldr	r3, [r7, #4]
 2527 000a 1B68     		ldr	r3, [r3]
 2528              		.loc 1 1070 6
 2529 000c 044A     		ldr	r2, .L94
 2530 000e 9342     		cmp	r3, r2
 2531 0010 01D1     		bne	.L93
ARM GAS  C:\Users\jisu8\AppData\Local\Temp\ccBLEEib.s 			page 64


1071:Core/Src/main.c ****     HAL_IncTick();
 2532              		.loc 1 1071 5
 2533 0012 FFF7FEFF 		bl	HAL_IncTick
 2534              	.L93:
1072:Core/Src/main.c ****   }
1073:Core/Src/main.c ****   /* USER CODE BEGIN Callback 1 */
1074:Core/Src/main.c **** 
1075:Core/Src/main.c ****   /* USER CODE END Callback 1 */
1076:Core/Src/main.c **** }
 2535              		.loc 1 1076 1
 2536 0016 00BF     		nop
 2537 0018 0837     		adds	r7, r7, #8
 2538              	.LCFI59:
 2539              		.cfi_def_cfa_offset 8
 2540 001a BD46     		mov	sp, r7
 2541              	.LCFI60:
 2542              		.cfi_def_cfa_register 13
 2543              		@ sp needed
 2544 001c 80BD     		pop	{r7, pc}
 2545              	.L95:
 2546 001e 00BF     		.align	2
 2547              	.L94:
 2548 0020 00100040 		.word	1073745920
 2549              		.cfi_endproc
 2550              	.LFE167:
 2552              		.section	.text.Error_Handler,"ax",%progbits
 2553              		.align	1
 2554              		.global	Error_Handler
 2555              		.syntax unified
 2556              		.thumb
 2557              		.thumb_func
 2559              	Error_Handler:
 2560              	.LFB168:
1077:Core/Src/main.c **** 
1078:Core/Src/main.c **** /**
1079:Core/Src/main.c ****   * @brief  This function is executed in case of error occurrence.
1080:Core/Src/main.c ****   * @retval None
1081:Core/Src/main.c ****   */
1082:Core/Src/main.c **** void Error_Handler(void)
1083:Core/Src/main.c **** {
 2561              		.loc 1 1083 1
 2562              		.cfi_startproc
 2563              		@ args = 0, pretend = 0, frame = 0
 2564              		@ frame_needed = 1, uses_anonymous_args = 0
 2565              		@ link register save eliminated.
 2566 0000 80B4     		push	{r7}
 2567              	.LCFI61:
 2568              		.cfi_def_cfa_offset 4
 2569              		.cfi_offset 7, -4
 2570 0002 00AF     		add	r7, sp, #0
 2571              	.LCFI62:
 2572              		.cfi_def_cfa_register 7
 2573              	.LBB19:
 2574              	.LBB20:
 2575              		.file 2 "Drivers/CMSIS/Include/cmsis_gcc.h"
   1:Drivers/CMSIS/Include/cmsis_gcc.h **** /**************************************************************************//**
   2:Drivers/CMSIS/Include/cmsis_gcc.h ****  * @file     cmsis_gcc.h
ARM GAS  C:\Users\jisu8\AppData\Local\Temp\ccBLEEib.s 			page 65


   3:Drivers/CMSIS/Include/cmsis_gcc.h ****  * @brief    CMSIS compiler GCC header file
   4:Drivers/CMSIS/Include/cmsis_gcc.h ****  * @version  V5.0.4
   5:Drivers/CMSIS/Include/cmsis_gcc.h ****  * @date     09. April 2018
   6:Drivers/CMSIS/Include/cmsis_gcc.h ****  ******************************************************************************/
   7:Drivers/CMSIS/Include/cmsis_gcc.h **** /*
   8:Drivers/CMSIS/Include/cmsis_gcc.h ****  * Copyright (c) 2009-2018 Arm Limited. All rights reserved.
   9:Drivers/CMSIS/Include/cmsis_gcc.h ****  *
  10:Drivers/CMSIS/Include/cmsis_gcc.h ****  * SPDX-License-Identifier: Apache-2.0
  11:Drivers/CMSIS/Include/cmsis_gcc.h ****  *
  12:Drivers/CMSIS/Include/cmsis_gcc.h ****  * Licensed under the Apache License, Version 2.0 (the License); you may
  13:Drivers/CMSIS/Include/cmsis_gcc.h ****  * not use this file except in compliance with the License.
  14:Drivers/CMSIS/Include/cmsis_gcc.h ****  * You may obtain a copy of the License at
  15:Drivers/CMSIS/Include/cmsis_gcc.h ****  *
  16:Drivers/CMSIS/Include/cmsis_gcc.h ****  * www.apache.org/licenses/LICENSE-2.0
  17:Drivers/CMSIS/Include/cmsis_gcc.h ****  *
  18:Drivers/CMSIS/Include/cmsis_gcc.h ****  * Unless required by applicable law or agreed to in writing, software
  19:Drivers/CMSIS/Include/cmsis_gcc.h ****  * distributed under the License is distributed on an AS IS BASIS, WITHOUT
  20:Drivers/CMSIS/Include/cmsis_gcc.h ****  * WARRANTIES OR CONDITIONS OF ANY KIND, either express or implied.
  21:Drivers/CMSIS/Include/cmsis_gcc.h ****  * See the License for the specific language governing permissions and
  22:Drivers/CMSIS/Include/cmsis_gcc.h ****  * limitations under the License.
  23:Drivers/CMSIS/Include/cmsis_gcc.h ****  */
  24:Drivers/CMSIS/Include/cmsis_gcc.h **** 
  25:Drivers/CMSIS/Include/cmsis_gcc.h **** #ifndef __CMSIS_GCC_H
  26:Drivers/CMSIS/Include/cmsis_gcc.h **** #define __CMSIS_GCC_H
  27:Drivers/CMSIS/Include/cmsis_gcc.h **** 
  28:Drivers/CMSIS/Include/cmsis_gcc.h **** /* ignore some GCC warnings */
  29:Drivers/CMSIS/Include/cmsis_gcc.h **** #pragma GCC diagnostic push
  30:Drivers/CMSIS/Include/cmsis_gcc.h **** #pragma GCC diagnostic ignored "-Wsign-conversion"
  31:Drivers/CMSIS/Include/cmsis_gcc.h **** #pragma GCC diagnostic ignored "-Wconversion"
  32:Drivers/CMSIS/Include/cmsis_gcc.h **** #pragma GCC diagnostic ignored "-Wunused-parameter"
  33:Drivers/CMSIS/Include/cmsis_gcc.h **** 
  34:Drivers/CMSIS/Include/cmsis_gcc.h **** /* Fallback for __has_builtin */
  35:Drivers/CMSIS/Include/cmsis_gcc.h **** #ifndef __has_builtin
  36:Drivers/CMSIS/Include/cmsis_gcc.h ****   #define __has_builtin(x) (0)
  37:Drivers/CMSIS/Include/cmsis_gcc.h **** #endif
  38:Drivers/CMSIS/Include/cmsis_gcc.h **** 
  39:Drivers/CMSIS/Include/cmsis_gcc.h **** /* CMSIS compiler specific defines */
  40:Drivers/CMSIS/Include/cmsis_gcc.h **** #ifndef   __ASM
  41:Drivers/CMSIS/Include/cmsis_gcc.h ****   #define __ASM                                  __asm
  42:Drivers/CMSIS/Include/cmsis_gcc.h **** #endif
  43:Drivers/CMSIS/Include/cmsis_gcc.h **** #ifndef   __INLINE
  44:Drivers/CMSIS/Include/cmsis_gcc.h ****   #define __INLINE                               inline
  45:Drivers/CMSIS/Include/cmsis_gcc.h **** #endif
  46:Drivers/CMSIS/Include/cmsis_gcc.h **** #ifndef   __STATIC_INLINE
  47:Drivers/CMSIS/Include/cmsis_gcc.h ****   #define __STATIC_INLINE                        static inline
  48:Drivers/CMSIS/Include/cmsis_gcc.h **** #endif
  49:Drivers/CMSIS/Include/cmsis_gcc.h **** #ifndef   __STATIC_FORCEINLINE                 
  50:Drivers/CMSIS/Include/cmsis_gcc.h ****   #define __STATIC_FORCEINLINE                   __attribute__((always_inline)) static inline
  51:Drivers/CMSIS/Include/cmsis_gcc.h **** #endif                                           
  52:Drivers/CMSIS/Include/cmsis_gcc.h **** #ifndef   __NO_RETURN
  53:Drivers/CMSIS/Include/cmsis_gcc.h ****   #define __NO_RETURN                            __attribute__((__noreturn__))
  54:Drivers/CMSIS/Include/cmsis_gcc.h **** #endif
  55:Drivers/CMSIS/Include/cmsis_gcc.h **** #ifndef   __USED
  56:Drivers/CMSIS/Include/cmsis_gcc.h ****   #define __USED                                 __attribute__((used))
  57:Drivers/CMSIS/Include/cmsis_gcc.h **** #endif
  58:Drivers/CMSIS/Include/cmsis_gcc.h **** #ifndef   __WEAK
  59:Drivers/CMSIS/Include/cmsis_gcc.h ****   #define __WEAK                                 __attribute__((weak))
ARM GAS  C:\Users\jisu8\AppData\Local\Temp\ccBLEEib.s 			page 66


  60:Drivers/CMSIS/Include/cmsis_gcc.h **** #endif
  61:Drivers/CMSIS/Include/cmsis_gcc.h **** #ifndef   __PACKED
  62:Drivers/CMSIS/Include/cmsis_gcc.h ****   #define __PACKED                               __attribute__((packed, aligned(1)))
  63:Drivers/CMSIS/Include/cmsis_gcc.h **** #endif
  64:Drivers/CMSIS/Include/cmsis_gcc.h **** #ifndef   __PACKED_STRUCT
  65:Drivers/CMSIS/Include/cmsis_gcc.h ****   #define __PACKED_STRUCT                        struct __attribute__((packed, aligned(1)))
  66:Drivers/CMSIS/Include/cmsis_gcc.h **** #endif
  67:Drivers/CMSIS/Include/cmsis_gcc.h **** #ifndef   __PACKED_UNION
  68:Drivers/CMSIS/Include/cmsis_gcc.h ****   #define __PACKED_UNION                         union __attribute__((packed, aligned(1)))
  69:Drivers/CMSIS/Include/cmsis_gcc.h **** #endif
  70:Drivers/CMSIS/Include/cmsis_gcc.h **** #ifndef   __UNALIGNED_UINT32        /* deprecated */
  71:Drivers/CMSIS/Include/cmsis_gcc.h ****   #pragma GCC diagnostic push
  72:Drivers/CMSIS/Include/cmsis_gcc.h ****   #pragma GCC diagnostic ignored "-Wpacked"
  73:Drivers/CMSIS/Include/cmsis_gcc.h ****   #pragma GCC diagnostic ignored "-Wattributes"
  74:Drivers/CMSIS/Include/cmsis_gcc.h ****   struct __attribute__((packed)) T_UINT32 { uint32_t v; };
  75:Drivers/CMSIS/Include/cmsis_gcc.h ****   #pragma GCC diagnostic pop
  76:Drivers/CMSIS/Include/cmsis_gcc.h ****   #define __UNALIGNED_UINT32(x)                  (((struct T_UINT32 *)(x))->v)
  77:Drivers/CMSIS/Include/cmsis_gcc.h **** #endif
  78:Drivers/CMSIS/Include/cmsis_gcc.h **** #ifndef   __UNALIGNED_UINT16_WRITE
  79:Drivers/CMSIS/Include/cmsis_gcc.h ****   #pragma GCC diagnostic push
  80:Drivers/CMSIS/Include/cmsis_gcc.h ****   #pragma GCC diagnostic ignored "-Wpacked"
  81:Drivers/CMSIS/Include/cmsis_gcc.h ****   #pragma GCC diagnostic ignored "-Wattributes"
  82:Drivers/CMSIS/Include/cmsis_gcc.h ****   __PACKED_STRUCT T_UINT16_WRITE { uint16_t v; };
  83:Drivers/CMSIS/Include/cmsis_gcc.h ****   #pragma GCC diagnostic pop
  84:Drivers/CMSIS/Include/cmsis_gcc.h ****   #define __UNALIGNED_UINT16_WRITE(addr, val)    (void)((((struct T_UINT16_WRITE *)(void *)(addr))-
  85:Drivers/CMSIS/Include/cmsis_gcc.h **** #endif
  86:Drivers/CMSIS/Include/cmsis_gcc.h **** #ifndef   __UNALIGNED_UINT16_READ
  87:Drivers/CMSIS/Include/cmsis_gcc.h ****   #pragma GCC diagnostic push
  88:Drivers/CMSIS/Include/cmsis_gcc.h ****   #pragma GCC diagnostic ignored "-Wpacked"
  89:Drivers/CMSIS/Include/cmsis_gcc.h ****   #pragma GCC diagnostic ignored "-Wattributes"
  90:Drivers/CMSIS/Include/cmsis_gcc.h ****   __PACKED_STRUCT T_UINT16_READ { uint16_t v; };
  91:Drivers/CMSIS/Include/cmsis_gcc.h ****   #pragma GCC diagnostic pop
  92:Drivers/CMSIS/Include/cmsis_gcc.h ****   #define __UNALIGNED_UINT16_READ(addr)          (((const struct T_UINT16_READ *)(const void *)(add
  93:Drivers/CMSIS/Include/cmsis_gcc.h **** #endif
  94:Drivers/CMSIS/Include/cmsis_gcc.h **** #ifndef   __UNALIGNED_UINT32_WRITE
  95:Drivers/CMSIS/Include/cmsis_gcc.h ****   #pragma GCC diagnostic push
  96:Drivers/CMSIS/Include/cmsis_gcc.h ****   #pragma GCC diagnostic ignored "-Wpacked"
  97:Drivers/CMSIS/Include/cmsis_gcc.h ****   #pragma GCC diagnostic ignored "-Wattributes"
  98:Drivers/CMSIS/Include/cmsis_gcc.h ****   __PACKED_STRUCT T_UINT32_WRITE { uint32_t v; };
  99:Drivers/CMSIS/Include/cmsis_gcc.h ****   #pragma GCC diagnostic pop
 100:Drivers/CMSIS/Include/cmsis_gcc.h ****   #define __UNALIGNED_UINT32_WRITE(addr, val)    (void)((((struct T_UINT32_WRITE *)(void *)(addr))-
 101:Drivers/CMSIS/Include/cmsis_gcc.h **** #endif
 102:Drivers/CMSIS/Include/cmsis_gcc.h **** #ifndef   __UNALIGNED_UINT32_READ
 103:Drivers/CMSIS/Include/cmsis_gcc.h ****   #pragma GCC diagnostic push
 104:Drivers/CMSIS/Include/cmsis_gcc.h ****   #pragma GCC diagnostic ignored "-Wpacked"
 105:Drivers/CMSIS/Include/cmsis_gcc.h ****   #pragma GCC diagnostic ignored "-Wattributes"
 106:Drivers/CMSIS/Include/cmsis_gcc.h ****   __PACKED_STRUCT T_UINT32_READ { uint32_t v; };
 107:Drivers/CMSIS/Include/cmsis_gcc.h ****   #pragma GCC diagnostic pop
 108:Drivers/CMSIS/Include/cmsis_gcc.h ****   #define __UNALIGNED_UINT32_READ(addr)          (((const struct T_UINT32_READ *)(const void *)(add
 109:Drivers/CMSIS/Include/cmsis_gcc.h **** #endif
 110:Drivers/CMSIS/Include/cmsis_gcc.h **** #ifndef   __ALIGNED
 111:Drivers/CMSIS/Include/cmsis_gcc.h ****   #define __ALIGNED(x)                           __attribute__((aligned(x)))
 112:Drivers/CMSIS/Include/cmsis_gcc.h **** #endif
 113:Drivers/CMSIS/Include/cmsis_gcc.h **** #ifndef   __RESTRICT
 114:Drivers/CMSIS/Include/cmsis_gcc.h ****   #define __RESTRICT                             __restrict
 115:Drivers/CMSIS/Include/cmsis_gcc.h **** #endif
 116:Drivers/CMSIS/Include/cmsis_gcc.h **** 
ARM GAS  C:\Users\jisu8\AppData\Local\Temp\ccBLEEib.s 			page 67


 117:Drivers/CMSIS/Include/cmsis_gcc.h **** 
 118:Drivers/CMSIS/Include/cmsis_gcc.h **** /* ###########################  Core Function Access  ########################### */
 119:Drivers/CMSIS/Include/cmsis_gcc.h **** /** \ingroup  CMSIS_Core_FunctionInterface
 120:Drivers/CMSIS/Include/cmsis_gcc.h ****     \defgroup CMSIS_Core_RegAccFunctions CMSIS Core Register Access Functions
 121:Drivers/CMSIS/Include/cmsis_gcc.h ****   @{
 122:Drivers/CMSIS/Include/cmsis_gcc.h ****  */
 123:Drivers/CMSIS/Include/cmsis_gcc.h **** 
 124:Drivers/CMSIS/Include/cmsis_gcc.h **** /**
 125:Drivers/CMSIS/Include/cmsis_gcc.h ****   \brief   Enable IRQ Interrupts
 126:Drivers/CMSIS/Include/cmsis_gcc.h ****   \details Enables IRQ interrupts by clearing the I-bit in the CPSR.
 127:Drivers/CMSIS/Include/cmsis_gcc.h ****            Can only be executed in Privileged modes.
 128:Drivers/CMSIS/Include/cmsis_gcc.h ****  */
 129:Drivers/CMSIS/Include/cmsis_gcc.h **** __STATIC_FORCEINLINE void __enable_irq(void)
 130:Drivers/CMSIS/Include/cmsis_gcc.h **** {
 131:Drivers/CMSIS/Include/cmsis_gcc.h ****   __ASM volatile ("cpsie i" : : : "memory");
 132:Drivers/CMSIS/Include/cmsis_gcc.h **** }
 133:Drivers/CMSIS/Include/cmsis_gcc.h **** 
 134:Drivers/CMSIS/Include/cmsis_gcc.h **** 
 135:Drivers/CMSIS/Include/cmsis_gcc.h **** /**
 136:Drivers/CMSIS/Include/cmsis_gcc.h ****   \brief   Disable IRQ Interrupts
 137:Drivers/CMSIS/Include/cmsis_gcc.h ****   \details Disables IRQ interrupts by setting the I-bit in the CPSR.
 138:Drivers/CMSIS/Include/cmsis_gcc.h ****            Can only be executed in Privileged modes.
 139:Drivers/CMSIS/Include/cmsis_gcc.h ****  */
 140:Drivers/CMSIS/Include/cmsis_gcc.h **** __STATIC_FORCEINLINE void __disable_irq(void)
 141:Drivers/CMSIS/Include/cmsis_gcc.h **** {
 142:Drivers/CMSIS/Include/cmsis_gcc.h ****   __ASM volatile ("cpsid i" : : : "memory");
 2576              		.loc 2 142 3
 2577              		.syntax unified
 2578              	@ 142 "Drivers/CMSIS/Include/cmsis_gcc.h" 1
 2579 0004 72B6     		cpsid i
 2580              	@ 0 "" 2
 143:Drivers/CMSIS/Include/cmsis_gcc.h **** }
 2581              		.loc 2 143 1
 2582              		.thumb
 2583              		.syntax unified
 2584 0006 00BF     		nop
 2585              	.L97:
 2586              	.LBE20:
 2587              	.LBE19:
1084:Core/Src/main.c ****   /* USER CODE BEGIN Error_Handler_Debug */
1085:Core/Src/main.c ****   /* User can add his own implementation to report the HAL error return state */
1086:Core/Src/main.c ****   __disable_irq();
1087:Core/Src/main.c ****   while (1)
 2588              		.loc 1 1087 9 discriminator 1
 2589 0008 FEE7     		b	.L97
 2590              		.cfi_endproc
 2591              	.LFE168:
 2593              		.section	.bss.Usb_Mode_old.0,"aw",%nobits
 2596              	Usb_Mode_old.0:
 2597 0000 00       		.space	1
 2598              		.text
 2599              	.Letext0:
 2600              		.file 3 "d:\\3.tools\\arm_gcc_toolchain\\arm-none-eabi\\include\\machine\\_default_types.h"
 2601              		.file 4 "d:\\3.tools\\arm_gcc_toolchain\\arm-none-eabi\\include\\sys\\_stdint.h"
 2602              		.file 5 "Drivers/CMSIS/Device/ST/STM32F7xx/Include/stm32f746xx.h"
 2603              		.file 6 "Drivers/STM32F7xx_HAL_Driver/Inc/stm32f7xx_hal_def.h"
 2604              		.file 7 "Drivers/STM32F7xx_HAL_Driver/Inc/stm32f7xx_hal_rcc_ex.h"
ARM GAS  C:\Users\jisu8\AppData\Local\Temp\ccBLEEib.s 			page 68


 2605              		.file 8 "Drivers/STM32F7xx_HAL_Driver/Inc/stm32f7xx_hal_rcc.h"
 2606              		.file 9 "Drivers/STM32F7xx_HAL_Driver/Inc/stm32f7xx_hal_gpio.h"
 2607              		.file 10 "Drivers/STM32F7xx_HAL_Driver/Inc/stm32f7xx_hal_dma.h"
 2608              		.file 11 "Drivers/STM32F7xx_HAL_Driver/Inc/stm32f7xx_hal_crc.h"
 2609              		.file 12 "Drivers/STM32F7xx_HAL_Driver/Inc/stm32f7xx_hal_dma2d.h"
 2610              		.file 13 "Drivers/STM32F7xx_HAL_Driver/Inc/stm32f7xx_ll_fmc.h"
 2611              		.file 14 "Drivers/STM32F7xx_HAL_Driver/Inc/stm32f7xx_hal_sdram.h"
 2612              		.file 15 "Drivers/STM32F7xx_HAL_Driver/Inc/stm32f7xx_hal_i2c.h"
 2613              		.file 16 "Drivers/STM32F7xx_HAL_Driver/Inc/stm32f7xx_hal_ltdc.h"
 2614              		.file 17 "Drivers/STM32F7xx_HAL_Driver/Inc/stm32f7xx_hal_qspi.h"
 2615              		.file 18 "Drivers/STM32F7xx_HAL_Driver/Inc/stm32f7xx_ll_sdmmc.h"
 2616              		.file 19 "Drivers/STM32F7xx_HAL_Driver/Inc/stm32f7xx_hal_sd.h"
 2617              		.file 20 "Drivers/STM32F7xx_HAL_Driver/Inc/stm32f7xx_hal_spi.h"
 2618              		.file 21 "Drivers/STM32F7xx_HAL_Driver/Inc/stm32f7xx_hal_tim.h"
 2619              		.file 22 "Drivers/STM32F7xx_HAL_Driver/Inc/stm32f7xx_hal_uart.h"
 2620              		.file 23 "d:\\3.tools\\arm_gcc_toolchain\\lib\\gcc\\arm-none-eabi\\10.3.1\\include\\stddef.h"
 2621              		.file 24 "d:\\3.tools\\arm_gcc_toolchain\\arm-none-eabi\\include\\sys\\_types.h"
 2622              		.file 25 "d:\\3.tools\\arm_gcc_toolchain\\arm-none-eabi\\include\\sys\\reent.h"
 2623              		.file 26 "d:\\3.tools\\arm_gcc_toolchain\\arm-none-eabi\\include\\sys\\lock.h"
 2624              		.file 27 "Core/Inc/main.h"
 2625              		.file 28 "Middlewares/Third_Party/FreeRTOS/Source/portable/GCC/ARM_CM7/r0p1/portmacro.h"
 2626              		.file 29 "Middlewares/Third_Party/FreeRTOS/Source/include/FreeRTOS.h"
 2627              		.file 30 "Middlewares/Third_Party/FreeRTOS/Source/include/task.h"
 2628              		.file 31 "Middlewares/Third_Party/FreeRTOS/Source/CMSIS_RTOS/cmsis_os.h"
 2629              		.file 32 "Middlewares/ST/STM32_USB_Device_Library/Core/Inc/usbd_def.h"
 2630              		.file 33 "Core/Inc/touch.h"
ARM GAS  C:\Users\jisu8\AppData\Local\Temp\ccBLEEib.s 			page 69


DEFINED SYMBOLS
                            *ABS*:00000000 main.c
C:\Users\jisu8\AppData\Local\Temp\ccBLEEib.s:17     .rodata:00000000 $d
C:\Users\jisu8\AppData\Local\Temp\ccBLEEib.s:28     .bss.hcrc:00000000 hcrc
C:\Users\jisu8\AppData\Local\Temp\ccBLEEib.s:25     .bss.hcrc:00000000 $d
C:\Users\jisu8\AppData\Local\Temp\ccBLEEib.s:35     .bss.hdma2d:00000000 hdma2d
C:\Users\jisu8\AppData\Local\Temp\ccBLEEib.s:32     .bss.hdma2d:00000000 $d
C:\Users\jisu8\AppData\Local\Temp\ccBLEEib.s:42     .bss.hi2c1:00000000 hi2c1
C:\Users\jisu8\AppData\Local\Temp\ccBLEEib.s:39     .bss.hi2c1:00000000 $d
C:\Users\jisu8\AppData\Local\Temp\ccBLEEib.s:49     .bss.hi2c3:00000000 hi2c3
C:\Users\jisu8\AppData\Local\Temp\ccBLEEib.s:46     .bss.hi2c3:00000000 $d
C:\Users\jisu8\AppData\Local\Temp\ccBLEEib.s:56     .bss.hltdc:00000000 hltdc
C:\Users\jisu8\AppData\Local\Temp\ccBLEEib.s:53     .bss.hltdc:00000000 $d
C:\Users\jisu8\AppData\Local\Temp\ccBLEEib.s:63     .bss.hqspi:00000000 hqspi
C:\Users\jisu8\AppData\Local\Temp\ccBLEEib.s:60     .bss.hqspi:00000000 $d
C:\Users\jisu8\AppData\Local\Temp\ccBLEEib.s:70     .bss.hsd1:00000000 hsd1
C:\Users\jisu8\AppData\Local\Temp\ccBLEEib.s:67     .bss.hsd1:00000000 $d
C:\Users\jisu8\AppData\Local\Temp\ccBLEEib.s:77     .bss.hdma_sdmmc1_rx:00000000 hdma_sdmmc1_rx
C:\Users\jisu8\AppData\Local\Temp\ccBLEEib.s:74     .bss.hdma_sdmmc1_rx:00000000 $d
C:\Users\jisu8\AppData\Local\Temp\ccBLEEib.s:84     .bss.hdma_sdmmc1_tx:00000000 hdma_sdmmc1_tx
C:\Users\jisu8\AppData\Local\Temp\ccBLEEib.s:81     .bss.hdma_sdmmc1_tx:00000000 $d
C:\Users\jisu8\AppData\Local\Temp\ccBLEEib.s:91     .bss.hspi2:00000000 hspi2
C:\Users\jisu8\AppData\Local\Temp\ccBLEEib.s:88     .bss.hspi2:00000000 $d
C:\Users\jisu8\AppData\Local\Temp\ccBLEEib.s:98     .bss.huart1:00000000 huart1
C:\Users\jisu8\AppData\Local\Temp\ccBLEEib.s:95     .bss.huart1:00000000 $d
C:\Users\jisu8\AppData\Local\Temp\ccBLEEib.s:105    .bss.huart6:00000000 huart6
C:\Users\jisu8\AppData\Local\Temp\ccBLEEib.s:102    .bss.huart6:00000000 $d
C:\Users\jisu8\AppData\Local\Temp\ccBLEEib.s:112    .bss.hsdram1:00000000 hsdram1
C:\Users\jisu8\AppData\Local\Temp\ccBLEEib.s:109    .bss.hsdram1:00000000 $d
C:\Users\jisu8\AppData\Local\Temp\ccBLEEib.s:119    .bss.defaultTaskHandle:00000000 defaultTaskHandle
C:\Users\jisu8\AppData\Local\Temp\ccBLEEib.s:116    .bss.defaultTaskHandle:00000000 $d
C:\Users\jisu8\AppData\Local\Temp\ccBLEEib.s:125    .bss.Usb_Mode:00000000 Usb_Mode
C:\Users\jisu8\AppData\Local\Temp\ccBLEEib.s:126    .bss.Usb_Mode:00000000 $d
C:\Users\jisu8\AppData\Local\Temp\ccBLEEib.s:2412   .text.StartDefaultTask:00000000 StartDefaultTask
C:\Users\jisu8\AppData\Local\Temp\ccBLEEib.s:139    .text.main:00000000 $t
C:\Users\jisu8\AppData\Local\Temp\ccBLEEib.s:145    .text.main:00000000 main
C:\Users\jisu8\AppData\Local\Temp\ccBLEEib.s:236    .text.SystemClock_Config:00000000 SystemClock_Config
C:\Users\jisu8\AppData\Local\Temp\ccBLEEib.s:391    .text.PeriphCommonClock_Config:00000000 PeriphCommonClock_Config
C:\Users\jisu8\AppData\Local\Temp\ccBLEEib.s:1603   .text.MX_GPIO_Init:00000000 MX_GPIO_Init
C:\Users\jisu8\AppData\Local\Temp\ccBLEEib.s:475    .text.MX_CRC_Init:00000000 MX_CRC_Init
C:\Users\jisu8\AppData\Local\Temp\ccBLEEib.s:1475   .text.MX_FMC_Init:00000000 MX_FMC_Init
C:\Users\jisu8\AppData\Local\Temp\ccBLEEib.s:624    .text.MX_I2C1_Init:00000000 MX_I2C1_Init
C:\Users\jisu8\AppData\Local\Temp\ccBLEEib.s:724    .text.MX_I2C3_Init:00000000 MX_I2C3_Init
C:\Users\jisu8\AppData\Local\Temp\ccBLEEib.s:824    .text.MX_LTDC_Init:00000000 MX_LTDC_Init
C:\Users\jisu8\AppData\Local\Temp\ccBLEEib.s:1003   .text.MX_QUADSPI_Init:00000000 MX_QUADSPI_Init
C:\Users\jisu8\AppData\Local\Temp\ccBLEEib.s:1080   .text.MX_SDMMC1_SD_Init:00000000 MX_SDMMC1_SD_Init
C:\Users\jisu8\AppData\Local\Temp\ccBLEEib.s:1147   .text.MX_SPI2_Init:00000000 MX_SPI2_Init
C:\Users\jisu8\AppData\Local\Temp\ccBLEEib.s:1244   .text.MX_USART1_UART_Init:00000000 MX_USART1_UART_Init
C:\Users\jisu8\AppData\Local\Temp\ccBLEEib.s:1325   .text.MX_USART6_UART_Init:00000000 MX_USART6_UART_Init
C:\Users\jisu8\AppData\Local\Temp\ccBLEEib.s:1406   .text.MX_DMA_Init:00000000 MX_DMA_Init
C:\Users\jisu8\AppData\Local\Temp\ccBLEEib.s:540    .text.MX_DMA2D_Init:00000000 MX_DMA2D_Init
C:\Users\jisu8\AppData\Local\Temp\ccBLEEib.s:224    .text.main:00000074 $d
C:\Users\jisu8\AppData\Local\Temp\ccBLEEib.s:230    .text.SystemClock_Config:00000000 $t
C:\Users\jisu8\AppData\Local\Temp\ccBLEEib.s:2559   .text.Error_Handler:00000000 Error_Handler
C:\Users\jisu8\AppData\Local\Temp\ccBLEEib.s:379    .text.SystemClock_Config:000000d8 $d
C:\Users\jisu8\AppData\Local\Temp\ccBLEEib.s:385    .text.PeriphCommonClock_Config:00000000 $t
C:\Users\jisu8\AppData\Local\Temp\ccBLEEib.s:465    .text.PeriphCommonClock_Config:0000005c $d
ARM GAS  C:\Users\jisu8\AppData\Local\Temp\ccBLEEib.s 			page 70


C:\Users\jisu8\AppData\Local\Temp\ccBLEEib.s:470    .text.MX_CRC_Init:00000000 $t
C:\Users\jisu8\AppData\Local\Temp\ccBLEEib.s:529    .text.MX_CRC_Init:0000003c $d
C:\Users\jisu8\AppData\Local\Temp\ccBLEEib.s:535    .text.MX_DMA2D_Init:00000000 $t
C:\Users\jisu8\AppData\Local\Temp\ccBLEEib.s:613    .text.MX_DMA2D_Init:0000005c $d
C:\Users\jisu8\AppData\Local\Temp\ccBLEEib.s:619    .text.MX_I2C1_Init:00000000 $t
C:\Users\jisu8\AppData\Local\Temp\ccBLEEib.s:712    .text.MX_I2C1_Init:00000074 $d
C:\Users\jisu8\AppData\Local\Temp\ccBLEEib.s:719    .text.MX_I2C3_Init:00000000 $t
C:\Users\jisu8\AppData\Local\Temp\ccBLEEib.s:812    .text.MX_I2C3_Init:00000074 $d
C:\Users\jisu8\AppData\Local\Temp\ccBLEEib.s:819    .text.MX_LTDC_Init:00000000 $t
C:\Users\jisu8\AppData\Local\Temp\ccBLEEib.s:992    .text.MX_LTDC_Init:000000fc $d
C:\Users\jisu8\AppData\Local\Temp\ccBLEEib.s:998    .text.MX_QUADSPI_Init:00000000 $t
C:\Users\jisu8\AppData\Local\Temp\ccBLEEib.s:1069   .text.MX_QUADSPI_Init:00000050 $d
C:\Users\jisu8\AppData\Local\Temp\ccBLEEib.s:1075   .text.MX_SDMMC1_SD_Init:00000000 $t
C:\Users\jisu8\AppData\Local\Temp\ccBLEEib.s:1136   .text.MX_SDMMC1_SD_Init:00000038 $d
C:\Users\jisu8\AppData\Local\Temp\ccBLEEib.s:1142   .text.MX_SPI2_Init:00000000 $t
C:\Users\jisu8\AppData\Local\Temp\ccBLEEib.s:1233   .text.MX_SPI2_Init:00000074 $d
C:\Users\jisu8\AppData\Local\Temp\ccBLEEib.s:1239   .text.MX_USART1_UART_Init:00000000 $t
C:\Users\jisu8\AppData\Local\Temp\ccBLEEib.s:1314   .text.MX_USART1_UART_Init:00000058 $d
C:\Users\jisu8\AppData\Local\Temp\ccBLEEib.s:1320   .text.MX_USART6_UART_Init:00000000 $t
C:\Users\jisu8\AppData\Local\Temp\ccBLEEib.s:1395   .text.MX_USART6_UART_Init:00000058 $d
C:\Users\jisu8\AppData\Local\Temp\ccBLEEib.s:1401   .text.MX_DMA_Init:00000000 $t
C:\Users\jisu8\AppData\Local\Temp\ccBLEEib.s:1465   .text.MX_DMA_Init:00000048 $d
C:\Users\jisu8\AppData\Local\Temp\ccBLEEib.s:1470   .text.MX_FMC_Init:00000000 $t
C:\Users\jisu8\AppData\Local\Temp\ccBLEEib.s:1592   .text.MX_FMC_Init:00000098 $d
C:\Users\jisu8\AppData\Local\Temp\ccBLEEib.s:1598   .text.MX_GPIO_Init:00000000 $t
C:\Users\jisu8\AppData\Local\Temp\ccBLEEib.s:2026   .text.MX_GPIO_Init:000002d4 $d
C:\Users\jisu8\AppData\Local\Temp\ccBLEEib.s:2037   .text.MX_GPIO_Init:000002fc $t
C:\Users\jisu8\AppData\Local\Temp\ccBLEEib.s:2394   .text.MX_GPIO_Init:00000550 $d
C:\Users\jisu8\AppData\Local\Temp\ccBLEEib.s:2406   .text.StartDefaultTask:00000000 $t
C:\Users\jisu8\AppData\Local\Temp\ccBLEEib.s:2494   .text.StartDefaultTask:00000068 $d
C:\Users\jisu8\AppData\Local\Temp\ccBLEEib.s:2596   .bss.Usb_Mode_old.0:00000000 Usb_Mode_old.0
C:\Users\jisu8\AppData\Local\Temp\ccBLEEib.s:2501   .text.HAL_TIM_PeriodElapsedCallback:00000000 $t
C:\Users\jisu8\AppData\Local\Temp\ccBLEEib.s:2507   .text.HAL_TIM_PeriodElapsedCallback:00000000 HAL_TIM_PeriodElapsedCallback
C:\Users\jisu8\AppData\Local\Temp\ccBLEEib.s:2548   .text.HAL_TIM_PeriodElapsedCallback:00000020 $d
C:\Users\jisu8\AppData\Local\Temp\ccBLEEib.s:2553   .text.Error_Handler:00000000 $t
C:\Users\jisu8\AppData\Local\Temp\ccBLEEib.s:2597   .bss.Usb_Mode_old.0:00000000 $d

UNDEFINED SYMBOLS
HAL_Init
MX_FATFS_Init
osThreadCreate
osKernelStart
memset
HAL_PWR_EnableBkUpAccess
HAL_RCC_OscConfig
HAL_PWREx_EnableOverDrive
HAL_RCC_ClockConfig
HAL_RCCEx_PeriphCLKConfig
HAL_CRC_Init
HAL_DMA2D_Init
HAL_DMA2D_ConfigLayer
HAL_I2C_Init
HAL_I2CEx_ConfigAnalogFilter
HAL_I2CEx_ConfigDigitalFilter
HAL_LTDC_Init
HAL_LTDC_ConfigLayer
HAL_QSPI_Init
ARM GAS  C:\Users\jisu8\AppData\Local\Temp\ccBLEEib.s 			page 71


HAL_SPI_Init
HAL_UART_Init
HAL_NVIC_SetPriority
HAL_NVIC_EnableIRQ
HAL_SDRAM_Init
HAL_GPIO_WritePin
HAL_GPIO_Init
Music_SdCard_Init
BSP_SDRAM_Init
BSP_LCD_Init
BSP_LCD_GetXSize
BSP_LCD_GetYSize
BSP_TS_Init
LCD_Display_Init
Music_File_Read
MX_USB_DEVICE_Init
USBD_Stop
Touch_Operation
osDelay
hUsbDeviceHS
HAL_IncTick
