ARM GAS  C:\Users\jisu8\AppData\Local\Temp\ccKXjsiY.s 			page 1


   1              		.cpu cortex-m7
   2              		.arch armv7e-m
   3              		.fpu fpv5-sp-d16
   4              		.eabi_attribute 27, 1
   5              		.eabi_attribute 28, 1
   6              		.eabi_attribute 20, 1
   7              		.eabi_attribute 21, 1
   8              		.eabi_attribute 23, 3
   9              		.eabi_attribute 24, 1
  10              		.eabi_attribute 25, 1
  11              		.eabi_attribute 26, 1
  12              		.eabi_attribute 30, 6
  13              		.eabi_attribute 34, 1
  14              		.eabi_attribute 18, 4
  15              		.file	"music.c"
  16              		.text
  17              	.Ltext0:
  18              		.cfi_sections	.debug_frame
  19              		.global	SDFatFs
  20              		.section	.bss.SDFatFs,"aw",%nobits
  21              		.align	2
  24              	SDFatFs:
  25 0000 00000000 		.space	572
  25      00000000 
  25      00000000 
  25      00000000 
  25      00000000 
  26              		.global	MyFile
  27              		.section	.bss.MyFile,"aw",%nobits
  28              		.align	3
  31              	MyFile:
  32 0000 00000000 		.space	600
  32      00000000 
  32      00000000 
  32      00000000 
  32      00000000 
  33              		.global	dir
  34              		.section	.bss.dir,"aw",%nobits
  35              		.align	3
  38              	dir:
  39 0000 00000000 		.space	80
  39      00000000 
  39      00000000 
  39      00000000 
  39      00000000 
  40              		.global	fno
  41              		.section	.bss.fno,"aw",%nobits
  42              		.align	3
  45              	fno:
  46 0000 00000000 		.space	288
  46      00000000 
  46      00000000 
  46      00000000 
  46      00000000 
  47              		.global	SDPath
  48              		.section	.bss.SDPath,"aw",%nobits
  49              		.align	2
ARM GAS  C:\Users\jisu8\AppData\Local\Temp\ccKXjsiY.s 			page 2


  52              	SDPath:
  53 0000 00000000 		.space	4
  54              		.global	Music_file_count
  55              		.section	.bss.Music_file_count,"aw",%nobits
  56              		.align	1
  59              	Music_file_count:
  60 0000 0000     		.space	2
  61              		.section	.rodata
  62              		.align	2
  63              	.LC1:
  64 0000 64756D6D 		.ascii	"dummy.txt\000"
  64      792E7478 
  64      7400
  65 000a 0000     		.align	2
  66              	.LC0:
  67 000c 53442063 		.ascii	"SD card test in STM32F746G-DISCO board\000"
  67      61726420 
  67      74657374 
  67      20696E20 
  67      53544D33 
  68              		.section	.text.Music_SdCard_Init,"ax",%progbits
  69              		.align	1
  70              		.global	Music_SdCard_Init
  71              		.syntax unified
  72              		.thumb
  73              		.thumb_func
  75              	Music_SdCard_Init:
  76              	.LFB149:
  77              		.file 1 "Core/Src/music.c"
   1:Core/Src/music.c **** 
   2:Core/Src/music.c **** #include "music.h"
   3:Core/Src/music.c **** #include "lcd.h"
   4:Core/Src/music.c **** 
   5:Core/Src/music.c **** FATFS SDFatFs; /* File system object for SD card logical drive */
   6:Core/Src/music.c **** FIL MyFile; /* File object */
   7:Core/Src/music.c **** DIR dir;                    // Directory
   8:Core/Src/music.c **** FILINFO fno;                // File Info
   9:Core/Src/music.c **** char SDPath[4]; /* SD card logical drive path */
  10:Core/Src/music.c **** uint16_t Music_file_count;
  11:Core/Src/music.c **** 
  12:Core/Src/music.c **** static uint8_t Music_File_Decision(char *name);
  13:Core/Src/music.c **** 
  14:Core/Src/music.c **** void Music_SdCard_Init(void)
  15:Core/Src/music.c **** {
  78              		.loc 1 15 1
  79              		.cfi_startproc
  80              		@ args = 0, pretend = 0, frame = 144
  81              		@ frame_needed = 1, uses_anonymous_args = 0
  82 0000 B0B5     		push	{r4, r5, r7, lr}
  83              	.LCFI0:
  84              		.cfi_def_cfa_offset 16
  85              		.cfi_offset 4, -16
  86              		.cfi_offset 5, -12
  87              		.cfi_offset 7, -8
  88              		.cfi_offset 14, -4
  89 0002 A4B0     		sub	sp, sp, #144
  90              	.LCFI1:
ARM GAS  C:\Users\jisu8\AppData\Local\Temp\ccKXjsiY.s 			page 3


  91              		.cfi_def_cfa_offset 160
  92 0004 00AF     		add	r7, sp, #0
  93              	.LCFI2:
  94              		.cfi_def_cfa_register 7
  16:Core/Src/music.c ****     uint8_t tx_buf[100] = {0,};
  95              		.loc 1 16 13
  96 0006 0023     		movs	r3, #0
  97 0008 FB62     		str	r3, [r7, #44]
  98 000a 07F13003 		add	r3, r7, #48
  99 000e 6022     		movs	r2, #96
 100 0010 0021     		movs	r1, #0
 101 0012 1846     		mov	r0, r3
 102 0014 FFF7FEFF 		bl	memset
  17:Core/Src/music.c ****     uint32_t byteswritten; /* File write count */
  18:Core/Src/music.c ****     uint8_t wtext[] = "SD card test in STM32F746G-DISCO board"; 
 103              		.loc 1 18 13
 104 0018 134B     		ldr	r3, .L2
 105 001a 3C46     		mov	r4, r7
 106 001c 1D46     		mov	r5, r3
 107 001e 0FCD     		ldmia	r5!, {r0, r1, r2, r3}
 108 0020 0FC4     		stmia	r4!, {r0, r1, r2, r3}
 109 0022 0FCD     		ldmia	r5!, {r0, r1, r2, r3}
 110 0024 0FC4     		stmia	r4!, {r0, r1, r2, r3}
 111 0026 95E80300 		ldm	r5, {r0, r1}
 112 002a 2060     		str	r0, [r4]
 113 002c 0434     		adds	r4, r4, #4
 114 002e 2180     		strh	r1, [r4]	@ movhi
 115 0030 0234     		adds	r4, r4, #2
 116 0032 0B0C     		lsrs	r3, r1, #16
 117 0034 2370     		strb	r3, [r4]
  19:Core/Src/music.c ****     f_mount(&SDFatFs, (TCHAR const*) SDPath, 0);
 118              		.loc 1 19 5
 119 0036 0022     		movs	r2, #0
 120 0038 0C49     		ldr	r1, .L2+4
 121 003a 0D48     		ldr	r0, .L2+8
 122 003c FFF7FEFF 		bl	f_mount
  20:Core/Src/music.c ****     f_open(&MyFile, "dummy.txt", FA_CREATE_ALWAYS | FA_WRITE);
 123              		.loc 1 20 5
 124 0040 0A22     		movs	r2, #10
 125 0042 0C49     		ldr	r1, .L2+12
 126 0044 0C48     		ldr	r0, .L2+16
 127 0046 FFF7FEFF 		bl	f_open
  21:Core/Src/music.c ****     f_write(&MyFile, wtext, sizeof(wtext), (void *) &byteswritten);
 128              		.loc 1 21 5
 129 004a 07F12803 		add	r3, r7, #40
 130 004e 3946     		mov	r1, r7
 131 0050 2722     		movs	r2, #39
 132 0052 0948     		ldr	r0, .L2+16
 133 0054 FFF7FEFF 		bl	f_write
  22:Core/Src/music.c ****     f_close(&MyFile);
 134              		.loc 1 22 5
 135 0058 0748     		ldr	r0, .L2+16
 136 005a FFF7FEFF 		bl	f_close
  23:Core/Src/music.c **** }
 137              		.loc 1 23 1
 138 005e 00BF     		nop
 139 0060 9037     		adds	r7, r7, #144
ARM GAS  C:\Users\jisu8\AppData\Local\Temp\ccKXjsiY.s 			page 4


 140              	.LCFI3:
 141              		.cfi_def_cfa_offset 16
 142 0062 BD46     		mov	sp, r7
 143              	.LCFI4:
 144              		.cfi_def_cfa_register 13
 145              		@ sp needed
 146 0064 B0BD     		pop	{r4, r5, r7, pc}
 147              	.L3:
 148 0066 00BF     		.align	2
 149              	.L2:
 150 0068 0C000000 		.word	.LC0
 151 006c 00000000 		.word	SDPath
 152 0070 00000000 		.word	SDFatFs
 153 0074 00000000 		.word	.LC1
 154 0078 00000000 		.word	MyFile
 155              		.cfi_endproc
 156              	.LFE149:
 158              		.section	.rodata
 159 0033 00       		.align	2
 160              	.LC2:
 161 0034 2F00     		.ascii	"/\000"
 162 0036 0000     		.align	2
 163              	.LC3:
 164 0038 257300   		.ascii	"%s\000"
 165              		.section	.text.Music_File_Read,"ax",%progbits
 166              		.align	1
 167              		.global	Music_File_Read
 168              		.syntax unified
 169              		.thumb
 170              		.thumb_func
 172              	Music_File_Read:
 173              	.LFB150:
  24:Core/Src/music.c **** 
  25:Core/Src/music.c **** void Music_File_Read(void)
  26:Core/Src/music.c **** {
 174              		.loc 1 26 1
 175              		.cfi_startproc
 176              		@ args = 0, pretend = 0, frame = 56
 177              		@ frame_needed = 1, uses_anonymous_args = 0
 178 0000 80B5     		push	{r7, lr}
 179              	.LCFI5:
 180              		.cfi_def_cfa_offset 8
 181              		.cfi_offset 7, -8
 182              		.cfi_offset 14, -4
 183 0002 8EB0     		sub	sp, sp, #56
 184              	.LCFI6:
 185              		.cfi_def_cfa_offset 64
 186 0004 00AF     		add	r7, sp, #0
 187              	.LCFI7:
 188              		.cfi_def_cfa_register 7
  27:Core/Src/music.c ****     uint8_t retval = 0;
 189              		.loc 1 27 13
 190 0006 0023     		movs	r3, #0
 191 0008 87F83630 		strb	r3, [r7, #54]
  28:Core/Src/music.c ****     uint8_t counter = 0;
 192              		.loc 1 28 13
 193 000c 0023     		movs	r3, #0
ARM GAS  C:\Users\jisu8\AppData\Local\Temp\ccKXjsiY.s 			page 5


 194 000e 87F83730 		strb	r3, [r7, #55]
  29:Core/Src/music.c ****     BSP_LCD_SetBackColor(LCD_COLOR_DARKGRAY);
 195              		.loc 1 29 5
 196 0012 2C48     		ldr	r0, .L8
 197 0014 FFF7FEFF 		bl	BSP_LCD_SetBackColor
  30:Core/Src/music.c ****     BSP_LCD_SetTextColor(LCD_COLOR_WHITE);
 198              		.loc 1 30 5
 199 0018 4FF0FF30 		mov	r0, #-1
 200 001c FFF7FEFF 		bl	BSP_LCD_SetTextColor
  31:Core/Src/music.c ****     f_opendir(&dir, "/");   // Open Root
 201              		.loc 1 31 5
 202 0020 2949     		ldr	r1, .L8+4
 203 0022 2A48     		ldr	r0, .L8+8
 204 0024 FFF7FEFF 		bl	f_opendir
 205              	.L7:
 206              	.LBB2:
  32:Core/Src/music.c ****     do
  33:Core/Src/music.c ****     {
  34:Core/Src/music.c ****         uint8_t tx_buf[50] = {0,};
 207              		.loc 1 34 17
 208 0028 0023     		movs	r3, #0
 209 002a 7B60     		str	r3, [r7, #4]
 210 002c 07F10803 		add	r3, r7, #8
 211 0030 2E22     		movs	r2, #46
 212 0032 0021     		movs	r1, #0
 213 0034 1846     		mov	r0, r3
 214 0036 FFF7FEFF 		bl	memset
  35:Core/Src/music.c ****         f_readdir(&dir, &fno);
 215              		.loc 1 35 9
 216 003a 2549     		ldr	r1, .L8+12
 217 003c 2348     		ldr	r0, .L8+8
 218 003e FFF7FEFF 		bl	f_readdir
  36:Core/Src/music.c ****         if (fno.fname[0] != 0)
 219              		.loc 1 36 22
 220 0042 234B     		ldr	r3, .L8+12
 221 0044 9B7E     		ldrb	r3, [r3, #26]	@ zero_extendqisi2
 222              		.loc 1 36 12
 223 0046 002B     		cmp	r3, #0
 224 0048 04D0     		beq	.L5
  37:Core/Src/music.c ****         {
  38:Core/Src/music.c ****             counter++;
 225              		.loc 1 38 20
 226 004a 97F83730 		ldrb	r3, [r7, #55]	@ zero_extendqisi2
 227 004e 0133     		adds	r3, r3, #1
 228 0050 87F83730 		strb	r3, [r7, #55]
 229              	.L5:
  39:Core/Src/music.c ****         }
  40:Core/Src/music.c ****         if ((counter > 1) && (counter < 8))
 230              		.loc 1 40 12
 231 0054 97F83730 		ldrb	r3, [r7, #55]	@ zero_extendqisi2
 232 0058 012B     		cmp	r3, #1
 233 005a 27D9     		bls	.L6
 234              		.loc 1 40 27 discriminator 1
 235 005c 97F83730 		ldrb	r3, [r7, #55]	@ zero_extendqisi2
 236 0060 072B     		cmp	r3, #7
 237 0062 23D8     		bhi	.L6
  41:Core/Src/music.c ****         {
ARM GAS  C:\Users\jisu8\AppData\Local\Temp\ccKXjsiY.s 			page 6


  42:Core/Src/music.c ****             retval = Music_File_Decision((char *)fno.fname);
 238              		.loc 1 42 22
 239 0064 1B48     		ldr	r0, .L8+16
 240 0066 FFF7FEFF 		bl	Music_File_Decision
 241 006a 0346     		mov	r3, r0
 242 006c 87F83630 		strb	r3, [r7, #54]
  43:Core/Src/music.c ****             if(retval == 1)
 243              		.loc 1 43 15
 244 0070 97F83630 		ldrb	r3, [r7, #54]	@ zero_extendqisi2
 245 0074 012B     		cmp	r3, #1
 246 0076 19D1     		bne	.L6
  44:Core/Src/music.c ****             {
  45:Core/Src/music.c ****                 Music_file_count++;
 247              		.loc 1 45 33
 248 0078 174B     		ldr	r3, .L8+20
 249 007a 1B88     		ldrh	r3, [r3]
 250 007c 0133     		adds	r3, r3, #1
 251 007e 9AB2     		uxth	r2, r3
 252 0080 154B     		ldr	r3, .L8+20
 253 0082 1A80     		strh	r2, [r3]	@ movhi
  46:Core/Src/music.c ****                 sprintf((char*)tx_buf, "%s", (char *)fno.fname);
 254              		.loc 1 46 17
 255 0084 3B1D     		adds	r3, r7, #4
 256 0086 134A     		ldr	r2, .L8+16
 257 0088 1449     		ldr	r1, .L8+24
 258 008a 1846     		mov	r0, r3
 259 008c FFF7FEFF 		bl	sprintf
  47:Core/Src/music.c ****                 BSP_LCD_DisplayStringAt(37, 30 * (Music_file_count) + 6, (uint8_t *)&tx_buf, LEFT_M
 260              		.loc 1 47 17
 261 0090 114B     		ldr	r3, .L8+20
 262 0092 1B88     		ldrh	r3, [r3]
 263 0094 1A46     		mov	r2, r3	@ movhi
 264 0096 1201     		lsls	r2, r2, #4
 265 0098 D31A     		subs	r3, r2, r3
 266 009a 5B00     		lsls	r3, r3, #1
 267 009c 9BB2     		uxth	r3, r3
 268 009e 0633     		adds	r3, r3, #6
 269 00a0 99B2     		uxth	r1, r3
 270 00a2 3A1D     		adds	r2, r7, #4
 271 00a4 0323     		movs	r3, #3
 272 00a6 2520     		movs	r0, #37
 273 00a8 FFF7FEFF 		bl	BSP_LCD_DisplayStringAt
 274              	.L6:
 275              	.LBE2:
  48:Core/Src/music.c ****             }
  49:Core/Src/music.c ****         }
  50:Core/Src/music.c **** 
  51:Core/Src/music.c ****     } while(fno.fname[0] != 0);
 276              		.loc 1 51 22
 277 00ac 084B     		ldr	r3, .L8+12
 278 00ae 9B7E     		ldrb	r3, [r3, #26]	@ zero_extendqisi2
 279              		.loc 1 51 5
 280 00b0 002B     		cmp	r3, #0
 281 00b2 B9D1     		bne	.L7
  52:Core/Src/music.c **** 
  53:Core/Src/music.c ****     f_closedir(&dir);
 282              		.loc 1 53 5
ARM GAS  C:\Users\jisu8\AppData\Local\Temp\ccKXjsiY.s 			page 7


 283 00b4 0548     		ldr	r0, .L8+8
 284 00b6 FFF7FEFF 		bl	f_closedir
  54:Core/Src/music.c **** }
 285              		.loc 1 54 1
 286 00ba 00BF     		nop
 287 00bc 3837     		adds	r7, r7, #56
 288              	.LCFI8:
 289              		.cfi_def_cfa_offset 8
 290 00be BD46     		mov	sp, r7
 291              	.LCFI9:
 292              		.cfi_def_cfa_register 13
 293              		@ sp needed
 294 00c0 80BD     		pop	{r7, pc}
 295              	.L9:
 296 00c2 00BF     		.align	2
 297              	.L8:
 298 00c4 404040FF 		.word	-12566464
 299 00c8 34000000 		.word	.LC2
 300 00cc 00000000 		.word	dir
 301 00d0 00000000 		.word	fno
 302 00d4 1A000000 		.word	fno+26
 303 00d8 00000000 		.word	Music_file_count
 304 00dc 38000000 		.word	.LC3
 305              		.cfi_endproc
 306              	.LFE150:
 308              		.section	.text.Music_Play,"ax",%progbits
 309              		.align	1
 310              		.global	Music_Play
 311              		.syntax unified
 312              		.thumb
 313              		.thumb_func
 315              	Music_Play:
 316              	.LFB151:
  55:Core/Src/music.c ****  
  56:Core/Src/music.c **** void Music_Play(void)
  57:Core/Src/music.c **** {
 317              		.loc 1 57 1
 318              		.cfi_startproc
 319              		@ args = 0, pretend = 0, frame = 0
 320              		@ frame_needed = 1, uses_anonymous_args = 0
 321              		@ link register save eliminated.
 322 0000 80B4     		push	{r7}
 323              	.LCFI10:
 324              		.cfi_def_cfa_offset 4
 325              		.cfi_offset 7, -4
 326 0002 00AF     		add	r7, sp, #0
 327              	.LCFI11:
 328              		.cfi_def_cfa_register 7
  58:Core/Src/music.c **** 
  59:Core/Src/music.c **** }
 329              		.loc 1 59 1
 330 0004 00BF     		nop
 331 0006 BD46     		mov	sp, r7
 332              	.LCFI12:
 333              		.cfi_def_cfa_register 13
 334              		@ sp needed
 335 0008 5DF8047B 		ldr	r7, [sp], #4
ARM GAS  C:\Users\jisu8\AppData\Local\Temp\ccKXjsiY.s 			page 8


 336              	.LCFI13:
 337              		.cfi_restore 7
 338              		.cfi_def_cfa_offset 0
 339 000c 7047     		bx	lr
 340              		.cfi_endproc
 341              	.LFE151:
 343              		.section	.text.Music_File_Decision,"ax",%progbits
 344              		.align	1
 345              		.syntax unified
 346              		.thumb
 347              		.thumb_func
 349              	Music_File_Decision:
 350              	.LFB152:
  60:Core/Src/music.c **** 
  61:Core/Src/music.c **** static uint8_t Music_File_Decision(char *name)
  62:Core/Src/music.c **** {
 351              		.loc 1 62 1
 352              		.cfi_startproc
 353              		@ args = 0, pretend = 0, frame = 16
 354              		@ frame_needed = 1, uses_anonymous_args = 0
 355              		@ link register save eliminated.
 356 0000 80B4     		push	{r7}
 357              	.LCFI14:
 358              		.cfi_def_cfa_offset 4
 359              		.cfi_offset 7, -4
 360 0002 85B0     		sub	sp, sp, #20
 361              	.LCFI15:
 362              		.cfi_def_cfa_offset 24
 363 0004 00AF     		add	r7, sp, #0
 364              	.LCFI16:
 365              		.cfi_def_cfa_register 7
 366 0006 7860     		str	r0, [r7, #4]
  63:Core/Src/music.c ****     uint8_t counter = 0;
 367              		.loc 1 63 13
 368 0008 0023     		movs	r3, #0
 369 000a FB73     		strb	r3, [r7, #15]
  64:Core/Src/music.c ****     while(name[counter] != 0)
 370              		.loc 1 64 10
 371 000c 02E0     		b	.L12
 372              	.L13:
  65:Core/Src/music.c ****     {
  66:Core/Src/music.c ****         counter++;
 373              		.loc 1 66 16
 374 000e FB7B     		ldrb	r3, [r7, #15]	@ zero_extendqisi2
 375 0010 0133     		adds	r3, r3, #1
 376 0012 FB73     		strb	r3, [r7, #15]
 377              	.L12:
  64:Core/Src/music.c ****     while(name[counter] != 0)
 378              		.loc 1 64 15
 379 0014 FB7B     		ldrb	r3, [r7, #15]	@ zero_extendqisi2
 380 0016 7A68     		ldr	r2, [r7, #4]
 381 0018 1344     		add	r3, r3, r2
 382 001a 1B78     		ldrb	r3, [r3]	@ zero_extendqisi2
  64:Core/Src/music.c ****     while(name[counter] != 0)
 383              		.loc 1 64 10
 384 001c 002B     		cmp	r3, #0
 385 001e F6D1     		bne	.L13
ARM GAS  C:\Users\jisu8\AppData\Local\Temp\ccKXjsiY.s 			page 9


  67:Core/Src/music.c ****     }
  68:Core/Src/music.c **** 
  69:Core/Src/music.c ****     if(counter>0)
 386              		.loc 1 69 7
 387 0020 FB7B     		ldrb	r3, [r7, #15]	@ zero_extendqisi2
 388 0022 002B     		cmp	r3, #0
 389 0024 18D0     		beq	.L14
  70:Core/Src/music.c ****     {
  71:Core/Src/music.c ****         if((name[counter-3] == 'm')&&(name[counter-2] == 'p')&&(name[counter-1] == '3'))
 390              		.loc 1 71 17
 391 0026 FB7B     		ldrb	r3, [r7, #15]	@ zero_extendqisi2
 392 0028 033B     		subs	r3, r3, #3
 393 002a 7A68     		ldr	r2, [r7, #4]
 394 002c 1344     		add	r3, r3, r2
 395 002e 1B78     		ldrb	r3, [r3]	@ zero_extendqisi2
 396              		.loc 1 71 11
 397 0030 6D2B     		cmp	r3, #109
 398 0032 0FD1     		bne	.L15
 399              		.loc 1 71 43 discriminator 1
 400 0034 FB7B     		ldrb	r3, [r7, #15]	@ zero_extendqisi2
 401 0036 023B     		subs	r3, r3, #2
 402 0038 7A68     		ldr	r2, [r7, #4]
 403 003a 1344     		add	r3, r3, r2
 404 003c 1B78     		ldrb	r3, [r3]	@ zero_extendqisi2
 405              		.loc 1 71 36 discriminator 1
 406 003e 702B     		cmp	r3, #112
 407 0040 08D1     		bne	.L15
 408              		.loc 1 71 69 discriminator 2
 409 0042 FB7B     		ldrb	r3, [r7, #15]	@ zero_extendqisi2
 410 0044 013B     		subs	r3, r3, #1
 411 0046 7A68     		ldr	r2, [r7, #4]
 412 0048 1344     		add	r3, r3, r2
 413 004a 1B78     		ldrb	r3, [r3]	@ zero_extendqisi2
 414              		.loc 1 71 62 discriminator 2
 415 004c 332B     		cmp	r3, #51
 416 004e 01D1     		bne	.L15
  72:Core/Src/music.c ****         {
  73:Core/Src/music.c ****             return 1;
 417              		.loc 1 73 20
 418 0050 0123     		movs	r3, #1
 419 0052 02E0     		b	.L16
 420              	.L15:
  74:Core/Src/music.c ****         }
  75:Core/Src/music.c ****         else
  76:Core/Src/music.c ****         {
  77:Core/Src/music.c ****             return 0;
 421              		.loc 1 77 20
 422 0054 0023     		movs	r3, #0
 423 0056 00E0     		b	.L16
 424              	.L14:
  78:Core/Src/music.c ****         }
  79:Core/Src/music.c ****     }
  80:Core/Src/music.c ****     
  81:Core/Src/music.c ****     return 0;
 425              		.loc 1 81 12
 426 0058 0023     		movs	r3, #0
 427              	.L16:
ARM GAS  C:\Users\jisu8\AppData\Local\Temp\ccKXjsiY.s 			page 10


  82:Core/Src/music.c **** }...
 428              		.loc 1 82 1
 429 005a 1846     		mov	r0, r3
 430 005c 1437     		adds	r7, r7, #20
 431              	.LCFI17:
 432              		.cfi_def_cfa_offset 4
 433 005e BD46     		mov	sp, r7
 434              	.LCFI18:
 435              		.cfi_def_cfa_register 13
 436              		@ sp needed
 437 0060 5DF8047B 		ldr	r7, [sp], #4
 438              	.LCFI19:
 439              		.cfi_restore 7
 440              		.cfi_def_cfa_offset 0
 441 0064 7047     		bx	lr
 442              		.cfi_endproc
 443              	.LFE152:
 445              		.text
 446              	.Letext0:
 447              		.file 2 "d:\\3.tools\\arm_gcc_toolchain\\arm-none-eabi\\include\\machine\\_default_types.h"
 448              		.file 3 "d:\\3.tools\\arm_gcc_toolchain\\arm-none-eabi\\include\\sys\\_stdint.h"
 449              		.file 4 "Middlewares/Third_Party/FatFs/src/integer.h"
 450              		.file 5 "Middlewares/Third_Party/FreeRTOS/Source/include/queue.h"
 451              		.file 6 "Middlewares/Third_Party/FreeRTOS/Source/include/semphr.h"
 452              		.file 7 "Middlewares/Third_Party/FreeRTOS/Source/CMSIS_RTOS/cmsis_os.h"
 453              		.file 8 "Middlewares/Third_Party/FatFs/src/ff.h"
 454              		.file 9 "FATFS/App/fatfs.h"
 455              		.file 10 "Core/Inc/lcd.h"
ARM GAS  C:\Users\jisu8\AppData\Local\Temp\ccKXjsiY.s 			page 11

