ARM GAS  C:\Users\jisu8\AppData\Local\Temp\cc12CyhQ.s 			page 1


   1              		.cpu cortex-m7
   2              		.arch armv7e-m
   3              		.fpu fpv5-sp-d16
   4              		.eabi_attribute 27, 1
   5              		.eabi_attribute 28, 1
   6              		.eabi_attribute 20, 1
   7              		.eabi_attribute 21, 1
   8              		.eabi_attribute 23, 3
   9              		.eabi_attribute 24, 1
  10              		.eabi_attribute 25, 1
  11              		.eabi_attribute 26, 1
  12              		.eabi_attribute 30, 6
  13              		.eabi_attribute 34, 1
  14              		.eabi_attribute 18, 4
  15              		.file	"queue.c"
  16              		.text
  17              	.Ltext0:
  18              		.cfi_sections	.debug_frame
  19              		.global	xQueueRegistry
  20              		.section	.bss.xQueueRegistry,"aw",%nobits
  21              		.align	2
  24              	xQueueRegistry:
  25 0000 00000000 		.space	64
  25      00000000 
  25      00000000 
  25      00000000 
  25      00000000 
  26              		.section	.text.xQueueGenericReset,"ax",%progbits
  27              		.align	1
  28              		.global	xQueueGenericReset
  29              		.syntax unified
  30              		.thumb
  31              		.thumb_func
  33              	xQueueGenericReset:
  34              	.LFB5:
  35              		.file 1 "Middlewares/Third_Party/FreeRTOS/Source/queue.c"
   1:Middlewares/Third_Party/FreeRTOS/Source/queue.c **** /*
   2:Middlewares/Third_Party/FreeRTOS/Source/queue.c ****  * FreeRTOS Kernel V10.2.1
   3:Middlewares/Third_Party/FreeRTOS/Source/queue.c ****  * Copyright (C) 2019 Amazon.com, Inc. or its affiliates.  All Rights Reserved.
   4:Middlewares/Third_Party/FreeRTOS/Source/queue.c ****  *
   5:Middlewares/Third_Party/FreeRTOS/Source/queue.c ****  * Permission is hereby granted, free of charge, to any person obtaining a copy of
   6:Middlewares/Third_Party/FreeRTOS/Source/queue.c ****  * this software and associated documentation files (the "Software"), to deal in
   7:Middlewares/Third_Party/FreeRTOS/Source/queue.c ****  * the Software without restriction, including without limitation the rights to
   8:Middlewares/Third_Party/FreeRTOS/Source/queue.c ****  * use, copy, modify, merge, publish, distribute, sublicense, and/or sell copies of
   9:Middlewares/Third_Party/FreeRTOS/Source/queue.c ****  * the Software, and to permit persons to whom the Software is furnished to do so,
  10:Middlewares/Third_Party/FreeRTOS/Source/queue.c ****  * subject to the following conditions:
  11:Middlewares/Third_Party/FreeRTOS/Source/queue.c ****  *
  12:Middlewares/Third_Party/FreeRTOS/Source/queue.c ****  * The above copyright notice and this permission notice shall be included in all
  13:Middlewares/Third_Party/FreeRTOS/Source/queue.c ****  * copies or substantial portions of the Software.
  14:Middlewares/Third_Party/FreeRTOS/Source/queue.c ****  *
  15:Middlewares/Third_Party/FreeRTOS/Source/queue.c ****  * THE SOFTWARE IS PROVIDED "AS IS", WITHOUT WARRANTY OF ANY KIND, EXPRESS OR
  16:Middlewares/Third_Party/FreeRTOS/Source/queue.c ****  * IMPLIED, INCLUDING BUT NOT LIMITED TO THE WARRANTIES OF MERCHANTABILITY, FITNESS
  17:Middlewares/Third_Party/FreeRTOS/Source/queue.c ****  * FOR A PARTICULAR PURPOSE AND NONINFRINGEMENT. IN NO EVENT SHALL THE AUTHORS OR
  18:Middlewares/Third_Party/FreeRTOS/Source/queue.c ****  * COPYRIGHT HOLDERS BE LIABLE FOR ANY CLAIM, DAMAGES OR OTHER LIABILITY, WHETHER
  19:Middlewares/Third_Party/FreeRTOS/Source/queue.c ****  * IN AN ACTION OF CONTRACT, TORT OR OTHERWISE, ARISING FROM, OUT OF OR IN
  20:Middlewares/Third_Party/FreeRTOS/Source/queue.c ****  * CONNECTION WITH THE SOFTWARE OR THE USE OR OTHER DEALINGS IN THE SOFTWARE.
  21:Middlewares/Third_Party/FreeRTOS/Source/queue.c ****  *
ARM GAS  C:\Users\jisu8\AppData\Local\Temp\cc12CyhQ.s 			page 2


  22:Middlewares/Third_Party/FreeRTOS/Source/queue.c ****  * http://www.FreeRTOS.org
  23:Middlewares/Third_Party/FreeRTOS/Source/queue.c ****  * http://aws.amazon.com/freertos
  24:Middlewares/Third_Party/FreeRTOS/Source/queue.c ****  *
  25:Middlewares/Third_Party/FreeRTOS/Source/queue.c ****  * 1 tab == 4 spaces!
  26:Middlewares/Third_Party/FreeRTOS/Source/queue.c ****  */
  27:Middlewares/Third_Party/FreeRTOS/Source/queue.c **** 
  28:Middlewares/Third_Party/FreeRTOS/Source/queue.c **** #include <stdlib.h>
  29:Middlewares/Third_Party/FreeRTOS/Source/queue.c **** #include <string.h>
  30:Middlewares/Third_Party/FreeRTOS/Source/queue.c **** 
  31:Middlewares/Third_Party/FreeRTOS/Source/queue.c **** /* Defining MPU_WRAPPERS_INCLUDED_FROM_API_FILE prevents task.h from redefining
  32:Middlewares/Third_Party/FreeRTOS/Source/queue.c **** all the API functions to use the MPU wrappers.  That should only be done when
  33:Middlewares/Third_Party/FreeRTOS/Source/queue.c **** task.h is included from an application file. */
  34:Middlewares/Third_Party/FreeRTOS/Source/queue.c **** #define MPU_WRAPPERS_INCLUDED_FROM_API_FILE
  35:Middlewares/Third_Party/FreeRTOS/Source/queue.c **** 
  36:Middlewares/Third_Party/FreeRTOS/Source/queue.c **** #include "FreeRTOS.h"
  37:Middlewares/Third_Party/FreeRTOS/Source/queue.c **** #include "task.h"
  38:Middlewares/Third_Party/FreeRTOS/Source/queue.c **** #include "queue.h"
  39:Middlewares/Third_Party/FreeRTOS/Source/queue.c **** 
  40:Middlewares/Third_Party/FreeRTOS/Source/queue.c **** #if ( configUSE_CO_ROUTINES == 1 )
  41:Middlewares/Third_Party/FreeRTOS/Source/queue.c **** 	#include "croutine.h"
  42:Middlewares/Third_Party/FreeRTOS/Source/queue.c **** #endif
  43:Middlewares/Third_Party/FreeRTOS/Source/queue.c **** 
  44:Middlewares/Third_Party/FreeRTOS/Source/queue.c **** /* Lint e9021, e961 and e750 are suppressed as a MISRA exception justified
  45:Middlewares/Third_Party/FreeRTOS/Source/queue.c **** because the MPU ports require MPU_WRAPPERS_INCLUDED_FROM_API_FILE to be defined
  46:Middlewares/Third_Party/FreeRTOS/Source/queue.c **** for the header files above, but not in this file, in order to generate the
  47:Middlewares/Third_Party/FreeRTOS/Source/queue.c **** correct privileged Vs unprivileged linkage and placement. */
  48:Middlewares/Third_Party/FreeRTOS/Source/queue.c **** #undef MPU_WRAPPERS_INCLUDED_FROM_API_FILE /*lint !e961 !e750 !e9021. */
  49:Middlewares/Third_Party/FreeRTOS/Source/queue.c **** 
  50:Middlewares/Third_Party/FreeRTOS/Source/queue.c **** 
  51:Middlewares/Third_Party/FreeRTOS/Source/queue.c **** /* Constants used with the cRxLock and cTxLock structure members. */
  52:Middlewares/Third_Party/FreeRTOS/Source/queue.c **** #define queueUNLOCKED					( ( int8_t ) -1 )
  53:Middlewares/Third_Party/FreeRTOS/Source/queue.c **** #define queueLOCKED_UNMODIFIED			( ( int8_t ) 0 )
  54:Middlewares/Third_Party/FreeRTOS/Source/queue.c **** 
  55:Middlewares/Third_Party/FreeRTOS/Source/queue.c **** /* When the Queue_t structure is used to represent a base queue its pcHead and
  56:Middlewares/Third_Party/FreeRTOS/Source/queue.c **** pcTail members are used as pointers into the queue storage area.  When the
  57:Middlewares/Third_Party/FreeRTOS/Source/queue.c **** Queue_t structure is used to represent a mutex pcHead and pcTail pointers are
  58:Middlewares/Third_Party/FreeRTOS/Source/queue.c **** not necessary, and the pcHead pointer is set to NULL to indicate that the
  59:Middlewares/Third_Party/FreeRTOS/Source/queue.c **** structure instead holds a pointer to the mutex holder (if any).  Map alternative
  60:Middlewares/Third_Party/FreeRTOS/Source/queue.c **** names to the pcHead and structure member to ensure the readability of the code
  61:Middlewares/Third_Party/FreeRTOS/Source/queue.c **** is maintained.  The QueuePointers_t and SemaphoreData_t types are used to form
  62:Middlewares/Third_Party/FreeRTOS/Source/queue.c **** a union as their usage is mutually exclusive dependent on what the queue is
  63:Middlewares/Third_Party/FreeRTOS/Source/queue.c **** being used for. */
  64:Middlewares/Third_Party/FreeRTOS/Source/queue.c **** #define uxQueueType						pcHead
  65:Middlewares/Third_Party/FreeRTOS/Source/queue.c **** #define queueQUEUE_IS_MUTEX				NULL
  66:Middlewares/Third_Party/FreeRTOS/Source/queue.c **** 
  67:Middlewares/Third_Party/FreeRTOS/Source/queue.c **** typedef struct QueuePointers
  68:Middlewares/Third_Party/FreeRTOS/Source/queue.c **** {
  69:Middlewares/Third_Party/FreeRTOS/Source/queue.c **** 	int8_t *pcTail;					/*< Points to the byte at the end of the queue storage area.  Once more byte i
  70:Middlewares/Third_Party/FreeRTOS/Source/queue.c **** 	int8_t *pcReadFrom;				/*< Points to the last place that a queued item was read from when the stru
  71:Middlewares/Third_Party/FreeRTOS/Source/queue.c **** } QueuePointers_t;
  72:Middlewares/Third_Party/FreeRTOS/Source/queue.c **** 
  73:Middlewares/Third_Party/FreeRTOS/Source/queue.c **** typedef struct SemaphoreData
  74:Middlewares/Third_Party/FreeRTOS/Source/queue.c **** {
  75:Middlewares/Third_Party/FreeRTOS/Source/queue.c **** 	TaskHandle_t xMutexHolder;		 /*< The handle of the task that holds the mutex. */
  76:Middlewares/Third_Party/FreeRTOS/Source/queue.c **** 	UBaseType_t uxRecursiveCallCount;/*< Maintains a count of the number of times a recursive mutex ha
  77:Middlewares/Third_Party/FreeRTOS/Source/queue.c **** } SemaphoreData_t;
  78:Middlewares/Third_Party/FreeRTOS/Source/queue.c **** 
ARM GAS  C:\Users\jisu8\AppData\Local\Temp\cc12CyhQ.s 			page 3


  79:Middlewares/Third_Party/FreeRTOS/Source/queue.c **** /* Semaphores do not actually store or copy data, so have an item size of
  80:Middlewares/Third_Party/FreeRTOS/Source/queue.c **** zero. */
  81:Middlewares/Third_Party/FreeRTOS/Source/queue.c **** #define queueSEMAPHORE_QUEUE_ITEM_LENGTH ( ( UBaseType_t ) 0 )
  82:Middlewares/Third_Party/FreeRTOS/Source/queue.c **** #define queueMUTEX_GIVE_BLOCK_TIME		 ( ( TickType_t ) 0U )
  83:Middlewares/Third_Party/FreeRTOS/Source/queue.c **** 
  84:Middlewares/Third_Party/FreeRTOS/Source/queue.c **** #if( configUSE_PREEMPTION == 0 )
  85:Middlewares/Third_Party/FreeRTOS/Source/queue.c **** 	/* If the cooperative scheduler is being used then a yield should not be
  86:Middlewares/Third_Party/FreeRTOS/Source/queue.c **** 	performed just because a higher priority task has been woken. */
  87:Middlewares/Third_Party/FreeRTOS/Source/queue.c **** 	#define queueYIELD_IF_USING_PREEMPTION()
  88:Middlewares/Third_Party/FreeRTOS/Source/queue.c **** #else
  89:Middlewares/Third_Party/FreeRTOS/Source/queue.c **** 	#define queueYIELD_IF_USING_PREEMPTION() portYIELD_WITHIN_API()
  90:Middlewares/Third_Party/FreeRTOS/Source/queue.c **** #endif
  91:Middlewares/Third_Party/FreeRTOS/Source/queue.c **** 
  92:Middlewares/Third_Party/FreeRTOS/Source/queue.c **** /*
  93:Middlewares/Third_Party/FreeRTOS/Source/queue.c ****  * Definition of the queue used by the scheduler.
  94:Middlewares/Third_Party/FreeRTOS/Source/queue.c ****  * Items are queued by copy, not reference.  See the following link for the
  95:Middlewares/Third_Party/FreeRTOS/Source/queue.c ****  * rationale: https://www.freertos.org/Embedded-RTOS-Queues.html
  96:Middlewares/Third_Party/FreeRTOS/Source/queue.c ****  */
  97:Middlewares/Third_Party/FreeRTOS/Source/queue.c **** typedef struct QueueDefinition 		/* The old naming convention is used to prevent breaking kernel aw
  98:Middlewares/Third_Party/FreeRTOS/Source/queue.c **** {
  99:Middlewares/Third_Party/FreeRTOS/Source/queue.c **** 	int8_t *pcHead;					/*< Points to the beginning of the queue storage area. */
 100:Middlewares/Third_Party/FreeRTOS/Source/queue.c **** 	int8_t *pcWriteTo;				/*< Points to the free next place in the storage area. */
 101:Middlewares/Third_Party/FreeRTOS/Source/queue.c **** 
 102:Middlewares/Third_Party/FreeRTOS/Source/queue.c **** 	union
 103:Middlewares/Third_Party/FreeRTOS/Source/queue.c **** 	{
 104:Middlewares/Third_Party/FreeRTOS/Source/queue.c **** 		QueuePointers_t xQueue;		/*< Data required exclusively when this structure is used as a queue. */
 105:Middlewares/Third_Party/FreeRTOS/Source/queue.c **** 		SemaphoreData_t xSemaphore; /*< Data required exclusively when this structure is used as a semaph
 106:Middlewares/Third_Party/FreeRTOS/Source/queue.c **** 	} u;
 107:Middlewares/Third_Party/FreeRTOS/Source/queue.c **** 
 108:Middlewares/Third_Party/FreeRTOS/Source/queue.c **** 	List_t xTasksWaitingToSend;		/*< List of tasks that are blocked waiting to post onto this queue.  
 109:Middlewares/Third_Party/FreeRTOS/Source/queue.c **** 	List_t xTasksWaitingToReceive;	/*< List of tasks that are blocked waiting to read from this queue.
 110:Middlewares/Third_Party/FreeRTOS/Source/queue.c **** 
 111:Middlewares/Third_Party/FreeRTOS/Source/queue.c **** 	volatile UBaseType_t uxMessagesWaiting;/*< The number of items currently in the queue. */
 112:Middlewares/Third_Party/FreeRTOS/Source/queue.c **** 	UBaseType_t uxLength;			/*< The length of the queue defined as the number of items it will hold, n
 113:Middlewares/Third_Party/FreeRTOS/Source/queue.c **** 	UBaseType_t uxItemSize;			/*< The size of each items that the queue will hold. */
 114:Middlewares/Third_Party/FreeRTOS/Source/queue.c **** 
 115:Middlewares/Third_Party/FreeRTOS/Source/queue.c **** 	volatile int8_t cRxLock;		/*< Stores the number of items received from the queue (removed from the
 116:Middlewares/Third_Party/FreeRTOS/Source/queue.c **** 	volatile int8_t cTxLock;		/*< Stores the number of items transmitted to the queue (added to the qu
 117:Middlewares/Third_Party/FreeRTOS/Source/queue.c **** 
 118:Middlewares/Third_Party/FreeRTOS/Source/queue.c **** 	#if( ( configSUPPORT_STATIC_ALLOCATION == 1 ) && ( configSUPPORT_DYNAMIC_ALLOCATION == 1 ) )
 119:Middlewares/Third_Party/FreeRTOS/Source/queue.c **** 		uint8_t ucStaticallyAllocated;	/*< Set to pdTRUE if the memory used by the queue was statically a
 120:Middlewares/Third_Party/FreeRTOS/Source/queue.c **** 	#endif
 121:Middlewares/Third_Party/FreeRTOS/Source/queue.c **** 
 122:Middlewares/Third_Party/FreeRTOS/Source/queue.c **** 	#if ( configUSE_QUEUE_SETS == 1 )
 123:Middlewares/Third_Party/FreeRTOS/Source/queue.c **** 		struct QueueDefinition *pxQueueSetContainer;
 124:Middlewares/Third_Party/FreeRTOS/Source/queue.c **** 	#endif
 125:Middlewares/Third_Party/FreeRTOS/Source/queue.c **** 
 126:Middlewares/Third_Party/FreeRTOS/Source/queue.c **** 	#if ( configUSE_TRACE_FACILITY == 1 )
 127:Middlewares/Third_Party/FreeRTOS/Source/queue.c **** 		UBaseType_t uxQueueNumber;
 128:Middlewares/Third_Party/FreeRTOS/Source/queue.c **** 		uint8_t ucQueueType;
 129:Middlewares/Third_Party/FreeRTOS/Source/queue.c **** 	#endif
 130:Middlewares/Third_Party/FreeRTOS/Source/queue.c **** 
 131:Middlewares/Third_Party/FreeRTOS/Source/queue.c **** } xQUEUE;
 132:Middlewares/Third_Party/FreeRTOS/Source/queue.c **** 
 133:Middlewares/Third_Party/FreeRTOS/Source/queue.c **** /* The old xQUEUE name is maintained above then typedefed to the new Queue_t
 134:Middlewares/Third_Party/FreeRTOS/Source/queue.c **** name below to enable the use of older kernel aware debuggers. */
 135:Middlewares/Third_Party/FreeRTOS/Source/queue.c **** typedef xQUEUE Queue_t;
ARM GAS  C:\Users\jisu8\AppData\Local\Temp\cc12CyhQ.s 			page 4


 136:Middlewares/Third_Party/FreeRTOS/Source/queue.c **** 
 137:Middlewares/Third_Party/FreeRTOS/Source/queue.c **** /*-----------------------------------------------------------*/
 138:Middlewares/Third_Party/FreeRTOS/Source/queue.c **** 
 139:Middlewares/Third_Party/FreeRTOS/Source/queue.c **** /*
 140:Middlewares/Third_Party/FreeRTOS/Source/queue.c ****  * The queue registry is just a means for kernel aware debuggers to locate
 141:Middlewares/Third_Party/FreeRTOS/Source/queue.c ****  * queue structures.  It has no other purpose so is an optional component.
 142:Middlewares/Third_Party/FreeRTOS/Source/queue.c ****  */
 143:Middlewares/Third_Party/FreeRTOS/Source/queue.c **** #if ( configQUEUE_REGISTRY_SIZE > 0 )
 144:Middlewares/Third_Party/FreeRTOS/Source/queue.c **** 
 145:Middlewares/Third_Party/FreeRTOS/Source/queue.c **** 	/* The type stored within the queue registry array.  This allows a name
 146:Middlewares/Third_Party/FreeRTOS/Source/queue.c **** 	to be assigned to each queue making kernel aware debugging a little
 147:Middlewares/Third_Party/FreeRTOS/Source/queue.c **** 	more user friendly. */
 148:Middlewares/Third_Party/FreeRTOS/Source/queue.c **** 	typedef struct QUEUE_REGISTRY_ITEM
 149:Middlewares/Third_Party/FreeRTOS/Source/queue.c **** 	{
 150:Middlewares/Third_Party/FreeRTOS/Source/queue.c **** 		const char *pcQueueName; /*lint !e971 Unqualified char types are allowed for strings and single c
 151:Middlewares/Third_Party/FreeRTOS/Source/queue.c **** 		QueueHandle_t xHandle;
 152:Middlewares/Third_Party/FreeRTOS/Source/queue.c **** 	} xQueueRegistryItem;
 153:Middlewares/Third_Party/FreeRTOS/Source/queue.c **** 
 154:Middlewares/Third_Party/FreeRTOS/Source/queue.c **** 	/* The old xQueueRegistryItem name is maintained above then typedefed to the
 155:Middlewares/Third_Party/FreeRTOS/Source/queue.c **** 	new xQueueRegistryItem name below to enable the use of older kernel aware
 156:Middlewares/Third_Party/FreeRTOS/Source/queue.c **** 	debuggers. */
 157:Middlewares/Third_Party/FreeRTOS/Source/queue.c **** 	typedef xQueueRegistryItem QueueRegistryItem_t;
 158:Middlewares/Third_Party/FreeRTOS/Source/queue.c **** 
 159:Middlewares/Third_Party/FreeRTOS/Source/queue.c **** 	/* The queue registry is simply an array of QueueRegistryItem_t structures.
 160:Middlewares/Third_Party/FreeRTOS/Source/queue.c **** 	The pcQueueName member of a structure being NULL is indicative of the
 161:Middlewares/Third_Party/FreeRTOS/Source/queue.c **** 	array position being vacant. */
 162:Middlewares/Third_Party/FreeRTOS/Source/queue.c **** 	PRIVILEGED_DATA QueueRegistryItem_t xQueueRegistry[ configQUEUE_REGISTRY_SIZE ];
 163:Middlewares/Third_Party/FreeRTOS/Source/queue.c **** 
 164:Middlewares/Third_Party/FreeRTOS/Source/queue.c **** #endif /* configQUEUE_REGISTRY_SIZE */
 165:Middlewares/Third_Party/FreeRTOS/Source/queue.c **** 
 166:Middlewares/Third_Party/FreeRTOS/Source/queue.c **** /*
 167:Middlewares/Third_Party/FreeRTOS/Source/queue.c ****  * Unlocks a queue locked by a call to prvLockQueue.  Locking a queue does not
 168:Middlewares/Third_Party/FreeRTOS/Source/queue.c ****  * prevent an ISR from adding or removing items to the queue, but does prevent
 169:Middlewares/Third_Party/FreeRTOS/Source/queue.c ****  * an ISR from removing tasks from the queue event lists.  If an ISR finds a
 170:Middlewares/Third_Party/FreeRTOS/Source/queue.c ****  * queue is locked it will instead increment the appropriate queue lock count
 171:Middlewares/Third_Party/FreeRTOS/Source/queue.c ****  * to indicate that a task may require unblocking.  When the queue in unlocked
 172:Middlewares/Third_Party/FreeRTOS/Source/queue.c ****  * these lock counts are inspected, and the appropriate action taken.
 173:Middlewares/Third_Party/FreeRTOS/Source/queue.c ****  */
 174:Middlewares/Third_Party/FreeRTOS/Source/queue.c **** static void prvUnlockQueue( Queue_t * const pxQueue ) PRIVILEGED_FUNCTION;
 175:Middlewares/Third_Party/FreeRTOS/Source/queue.c **** 
 176:Middlewares/Third_Party/FreeRTOS/Source/queue.c **** /*
 177:Middlewares/Third_Party/FreeRTOS/Source/queue.c ****  * Uses a critical section to determine if there is any data in a queue.
 178:Middlewares/Third_Party/FreeRTOS/Source/queue.c ****  *
 179:Middlewares/Third_Party/FreeRTOS/Source/queue.c ****  * @return pdTRUE if the queue contains no items, otherwise pdFALSE.
 180:Middlewares/Third_Party/FreeRTOS/Source/queue.c ****  */
 181:Middlewares/Third_Party/FreeRTOS/Source/queue.c **** static BaseType_t prvIsQueueEmpty( const Queue_t *pxQueue ) PRIVILEGED_FUNCTION;
 182:Middlewares/Third_Party/FreeRTOS/Source/queue.c **** 
 183:Middlewares/Third_Party/FreeRTOS/Source/queue.c **** /*
 184:Middlewares/Third_Party/FreeRTOS/Source/queue.c ****  * Uses a critical section to determine if there is any space in a queue.
 185:Middlewares/Third_Party/FreeRTOS/Source/queue.c ****  *
 186:Middlewares/Third_Party/FreeRTOS/Source/queue.c ****  * @return pdTRUE if there is no space, otherwise pdFALSE;
 187:Middlewares/Third_Party/FreeRTOS/Source/queue.c ****  */
 188:Middlewares/Third_Party/FreeRTOS/Source/queue.c **** static BaseType_t prvIsQueueFull( const Queue_t *pxQueue ) PRIVILEGED_FUNCTION;
 189:Middlewares/Third_Party/FreeRTOS/Source/queue.c **** 
 190:Middlewares/Third_Party/FreeRTOS/Source/queue.c **** /*
 191:Middlewares/Third_Party/FreeRTOS/Source/queue.c ****  * Copies an item into the queue, either at the front of the queue or the
 192:Middlewares/Third_Party/FreeRTOS/Source/queue.c ****  * back of the queue.
ARM GAS  C:\Users\jisu8\AppData\Local\Temp\cc12CyhQ.s 			page 5


 193:Middlewares/Third_Party/FreeRTOS/Source/queue.c ****  */
 194:Middlewares/Third_Party/FreeRTOS/Source/queue.c **** static BaseType_t prvCopyDataToQueue( Queue_t * const pxQueue, const void *pvItemToQueue, const Bas
 195:Middlewares/Third_Party/FreeRTOS/Source/queue.c **** 
 196:Middlewares/Third_Party/FreeRTOS/Source/queue.c **** /*
 197:Middlewares/Third_Party/FreeRTOS/Source/queue.c ****  * Copies an item out of a queue.
 198:Middlewares/Third_Party/FreeRTOS/Source/queue.c ****  */
 199:Middlewares/Third_Party/FreeRTOS/Source/queue.c **** static void prvCopyDataFromQueue( Queue_t * const pxQueue, void * const pvBuffer ) PRIVILEGED_FUNCT
 200:Middlewares/Third_Party/FreeRTOS/Source/queue.c **** 
 201:Middlewares/Third_Party/FreeRTOS/Source/queue.c **** #if ( configUSE_QUEUE_SETS == 1 )
 202:Middlewares/Third_Party/FreeRTOS/Source/queue.c **** 	/*
 203:Middlewares/Third_Party/FreeRTOS/Source/queue.c **** 	 * Checks to see if a queue is a member of a queue set, and if so, notifies
 204:Middlewares/Third_Party/FreeRTOS/Source/queue.c **** 	 * the queue set that the queue contains data.
 205:Middlewares/Third_Party/FreeRTOS/Source/queue.c **** 	 */
 206:Middlewares/Third_Party/FreeRTOS/Source/queue.c **** 	static BaseType_t prvNotifyQueueSetContainer( const Queue_t * const pxQueue, const BaseType_t xCop
 207:Middlewares/Third_Party/FreeRTOS/Source/queue.c **** #endif
 208:Middlewares/Third_Party/FreeRTOS/Source/queue.c **** 
 209:Middlewares/Third_Party/FreeRTOS/Source/queue.c **** /*
 210:Middlewares/Third_Party/FreeRTOS/Source/queue.c ****  * Called after a Queue_t structure has been allocated either statically or
 211:Middlewares/Third_Party/FreeRTOS/Source/queue.c ****  * dynamically to fill in the structure's members.
 212:Middlewares/Third_Party/FreeRTOS/Source/queue.c ****  */
 213:Middlewares/Third_Party/FreeRTOS/Source/queue.c **** static void prvInitialiseNewQueue( const UBaseType_t uxQueueLength, const UBaseType_t uxItemSize, u
 214:Middlewares/Third_Party/FreeRTOS/Source/queue.c **** 
 215:Middlewares/Third_Party/FreeRTOS/Source/queue.c **** /*
 216:Middlewares/Third_Party/FreeRTOS/Source/queue.c ****  * Mutexes are a special type of queue.  When a mutex is created, first the
 217:Middlewares/Third_Party/FreeRTOS/Source/queue.c ****  * queue is created, then prvInitialiseMutex() is called to configure the queue
 218:Middlewares/Third_Party/FreeRTOS/Source/queue.c ****  * as a mutex.
 219:Middlewares/Third_Party/FreeRTOS/Source/queue.c ****  */
 220:Middlewares/Third_Party/FreeRTOS/Source/queue.c **** #if( configUSE_MUTEXES == 1 )
 221:Middlewares/Third_Party/FreeRTOS/Source/queue.c **** 	static void prvInitialiseMutex( Queue_t *pxNewQueue ) PRIVILEGED_FUNCTION;
 222:Middlewares/Third_Party/FreeRTOS/Source/queue.c **** #endif
 223:Middlewares/Third_Party/FreeRTOS/Source/queue.c **** 
 224:Middlewares/Third_Party/FreeRTOS/Source/queue.c **** #if( configUSE_MUTEXES == 1 )
 225:Middlewares/Third_Party/FreeRTOS/Source/queue.c **** 	/*
 226:Middlewares/Third_Party/FreeRTOS/Source/queue.c **** 	 * If a task waiting for a mutex causes the mutex holder to inherit a
 227:Middlewares/Third_Party/FreeRTOS/Source/queue.c **** 	 * priority, but the waiting task times out, then the holder should
 228:Middlewares/Third_Party/FreeRTOS/Source/queue.c **** 	 * disinherit the priority - but only down to the highest priority of any
 229:Middlewares/Third_Party/FreeRTOS/Source/queue.c **** 	 * other tasks that are waiting for the same mutex.  This function returns
 230:Middlewares/Third_Party/FreeRTOS/Source/queue.c **** 	 * that priority.
 231:Middlewares/Third_Party/FreeRTOS/Source/queue.c **** 	 */
 232:Middlewares/Third_Party/FreeRTOS/Source/queue.c **** 	static UBaseType_t prvGetDisinheritPriorityAfterTimeout( const Queue_t * const pxQueue ) PRIVILEGE
 233:Middlewares/Third_Party/FreeRTOS/Source/queue.c **** #endif
 234:Middlewares/Third_Party/FreeRTOS/Source/queue.c **** /*-----------------------------------------------------------*/
 235:Middlewares/Third_Party/FreeRTOS/Source/queue.c **** 
 236:Middlewares/Third_Party/FreeRTOS/Source/queue.c **** /*
 237:Middlewares/Third_Party/FreeRTOS/Source/queue.c ****  * Macro to mark a queue as locked.  Locking a queue prevents an ISR from
 238:Middlewares/Third_Party/FreeRTOS/Source/queue.c ****  * accessing the queue event lists.
 239:Middlewares/Third_Party/FreeRTOS/Source/queue.c ****  */
 240:Middlewares/Third_Party/FreeRTOS/Source/queue.c **** #define prvLockQueue( pxQueue )								\
 241:Middlewares/Third_Party/FreeRTOS/Source/queue.c **** 	taskENTER_CRITICAL();									\
 242:Middlewares/Third_Party/FreeRTOS/Source/queue.c **** 	{														\
 243:Middlewares/Third_Party/FreeRTOS/Source/queue.c **** 		if( ( pxQueue )->cRxLock == queueUNLOCKED )			\
 244:Middlewares/Third_Party/FreeRTOS/Source/queue.c **** 		{													\
 245:Middlewares/Third_Party/FreeRTOS/Source/queue.c **** 			( pxQueue )->cRxLock = queueLOCKED_UNMODIFIED;	\
 246:Middlewares/Third_Party/FreeRTOS/Source/queue.c **** 		}													\
 247:Middlewares/Third_Party/FreeRTOS/Source/queue.c **** 		if( ( pxQueue )->cTxLock == queueUNLOCKED )			\
 248:Middlewares/Third_Party/FreeRTOS/Source/queue.c **** 		{													\
 249:Middlewares/Third_Party/FreeRTOS/Source/queue.c **** 			( pxQueue )->cTxLock = queueLOCKED_UNMODIFIED;	\
ARM GAS  C:\Users\jisu8\AppData\Local\Temp\cc12CyhQ.s 			page 6


 250:Middlewares/Third_Party/FreeRTOS/Source/queue.c **** 		}													\
 251:Middlewares/Third_Party/FreeRTOS/Source/queue.c **** 	}														\
 252:Middlewares/Third_Party/FreeRTOS/Source/queue.c **** 	taskEXIT_CRITICAL()
 253:Middlewares/Third_Party/FreeRTOS/Source/queue.c **** /*-----------------------------------------------------------*/
 254:Middlewares/Third_Party/FreeRTOS/Source/queue.c **** 
 255:Middlewares/Third_Party/FreeRTOS/Source/queue.c **** BaseType_t xQueueGenericReset( QueueHandle_t xQueue, BaseType_t xNewQueue )
 256:Middlewares/Third_Party/FreeRTOS/Source/queue.c **** {
  36              		.loc 1 256 1
  37              		.cfi_startproc
  38              		@ args = 0, pretend = 0, frame = 16
  39              		@ frame_needed = 1, uses_anonymous_args = 0
  40 0000 80B5     		push	{r7, lr}
  41              	.LCFI0:
  42              		.cfi_def_cfa_offset 8
  43              		.cfi_offset 7, -8
  44              		.cfi_offset 14, -4
  45 0002 84B0     		sub	sp, sp, #16
  46              	.LCFI1:
  47              		.cfi_def_cfa_offset 24
  48 0004 00AF     		add	r7, sp, #0
  49              	.LCFI2:
  50              		.cfi_def_cfa_register 7
  51 0006 7860     		str	r0, [r7, #4]
  52 0008 3960     		str	r1, [r7]
 257:Middlewares/Third_Party/FreeRTOS/Source/queue.c **** Queue_t * const pxQueue = xQueue;
  53              		.loc 1 257 17
  54 000a 7B68     		ldr	r3, [r7, #4]
  55 000c FB60     		str	r3, [r7, #12]
 258:Middlewares/Third_Party/FreeRTOS/Source/queue.c **** 
 259:Middlewares/Third_Party/FreeRTOS/Source/queue.c **** 	configASSERT( pxQueue );
  56              		.loc 1 259 2
  57 000e FB68     		ldr	r3, [r7, #12]
  58 0010 002B     		cmp	r3, #0
  59 0012 0CD1     		bne	.L2
  60              	.LBB116:
  61              	.LBB117:
  62              		.file 2 "Middlewares/Third_Party/FreeRTOS/Source/portable/GCC/ARM_CM7/r0p1/portmacro.h"
   1:Middlewares/Third_Party/FreeRTOS/Source/portable/GCC/ARM_CM7/r0p1/portmacro.h **** /*
   2:Middlewares/Third_Party/FreeRTOS/Source/portable/GCC/ARM_CM7/r0p1/portmacro.h ****  * FreeRTOS Kernel V10.2.1
   3:Middlewares/Third_Party/FreeRTOS/Source/portable/GCC/ARM_CM7/r0p1/portmacro.h ****  * Copyright (C) 2019 Amazon.com, Inc. or its affiliates.  All Rights Reserved.
   4:Middlewares/Third_Party/FreeRTOS/Source/portable/GCC/ARM_CM7/r0p1/portmacro.h ****  *
   5:Middlewares/Third_Party/FreeRTOS/Source/portable/GCC/ARM_CM7/r0p1/portmacro.h ****  * Permission is hereby granted, free of charge, to any person obtaining a copy of
   6:Middlewares/Third_Party/FreeRTOS/Source/portable/GCC/ARM_CM7/r0p1/portmacro.h ****  * this software and associated documentation files (the "Software"), to deal in
   7:Middlewares/Third_Party/FreeRTOS/Source/portable/GCC/ARM_CM7/r0p1/portmacro.h ****  * the Software without restriction, including without limitation the rights to
   8:Middlewares/Third_Party/FreeRTOS/Source/portable/GCC/ARM_CM7/r0p1/portmacro.h ****  * use, copy, modify, merge, publish, distribute, sublicense, and/or sell copies of
   9:Middlewares/Third_Party/FreeRTOS/Source/portable/GCC/ARM_CM7/r0p1/portmacro.h ****  * the Software, and to permit persons to whom the Software is furnished to do so,
  10:Middlewares/Third_Party/FreeRTOS/Source/portable/GCC/ARM_CM7/r0p1/portmacro.h ****  * subject to the following conditions:
  11:Middlewares/Third_Party/FreeRTOS/Source/portable/GCC/ARM_CM7/r0p1/portmacro.h ****  *
  12:Middlewares/Third_Party/FreeRTOS/Source/portable/GCC/ARM_CM7/r0p1/portmacro.h ****  * The above copyright notice and this permission notice shall be included in all
  13:Middlewares/Third_Party/FreeRTOS/Source/portable/GCC/ARM_CM7/r0p1/portmacro.h ****  * copies or substantial portions of the Software.
  14:Middlewares/Third_Party/FreeRTOS/Source/portable/GCC/ARM_CM7/r0p1/portmacro.h ****  *
  15:Middlewares/Third_Party/FreeRTOS/Source/portable/GCC/ARM_CM7/r0p1/portmacro.h ****  * THE SOFTWARE IS PROVIDED "AS IS", WITHOUT WARRANTY OF ANY KIND, EXPRESS OR
  16:Middlewares/Third_Party/FreeRTOS/Source/portable/GCC/ARM_CM7/r0p1/portmacro.h ****  * IMPLIED, INCLUDING BUT NOT LIMITED TO THE WARRANTIES OF MERCHANTABILITY, FITNESS
  17:Middlewares/Third_Party/FreeRTOS/Source/portable/GCC/ARM_CM7/r0p1/portmacro.h ****  * FOR A PARTICULAR PURPOSE AND NONINFRINGEMENT. IN NO EVENT SHALL THE AUTHORS OR
  18:Middlewares/Third_Party/FreeRTOS/Source/portable/GCC/ARM_CM7/r0p1/portmacro.h ****  * COPYRIGHT HOLDERS BE LIABLE FOR ANY CLAIM, DAMAGES OR OTHER LIABILITY, WHETHER
  19:Middlewares/Third_Party/FreeRTOS/Source/portable/GCC/ARM_CM7/r0p1/portmacro.h ****  * IN AN ACTION OF CONTRACT, TORT OR OTHERWISE, ARISING FROM, OUT OF OR IN
  20:Middlewares/Third_Party/FreeRTOS/Source/portable/GCC/ARM_CM7/r0p1/portmacro.h ****  * CONNECTION WITH THE SOFTWARE OR THE USE OR OTHER DEALINGS IN THE SOFTWARE.
ARM GAS  C:\Users\jisu8\AppData\Local\Temp\cc12CyhQ.s 			page 7


  21:Middlewares/Third_Party/FreeRTOS/Source/portable/GCC/ARM_CM7/r0p1/portmacro.h ****  *
  22:Middlewares/Third_Party/FreeRTOS/Source/portable/GCC/ARM_CM7/r0p1/portmacro.h ****  * http://www.FreeRTOS.org
  23:Middlewares/Third_Party/FreeRTOS/Source/portable/GCC/ARM_CM7/r0p1/portmacro.h ****  * http://aws.amazon.com/freertos
  24:Middlewares/Third_Party/FreeRTOS/Source/portable/GCC/ARM_CM7/r0p1/portmacro.h ****  *
  25:Middlewares/Third_Party/FreeRTOS/Source/portable/GCC/ARM_CM7/r0p1/portmacro.h ****  * 1 tab == 4 spaces!
  26:Middlewares/Third_Party/FreeRTOS/Source/portable/GCC/ARM_CM7/r0p1/portmacro.h ****  */
  27:Middlewares/Third_Party/FreeRTOS/Source/portable/GCC/ARM_CM7/r0p1/portmacro.h **** 
  28:Middlewares/Third_Party/FreeRTOS/Source/portable/GCC/ARM_CM7/r0p1/portmacro.h **** 
  29:Middlewares/Third_Party/FreeRTOS/Source/portable/GCC/ARM_CM7/r0p1/portmacro.h **** #ifndef PORTMACRO_H
  30:Middlewares/Third_Party/FreeRTOS/Source/portable/GCC/ARM_CM7/r0p1/portmacro.h **** #define PORTMACRO_H
  31:Middlewares/Third_Party/FreeRTOS/Source/portable/GCC/ARM_CM7/r0p1/portmacro.h **** 
  32:Middlewares/Third_Party/FreeRTOS/Source/portable/GCC/ARM_CM7/r0p1/portmacro.h **** #ifdef __cplusplus
  33:Middlewares/Third_Party/FreeRTOS/Source/portable/GCC/ARM_CM7/r0p1/portmacro.h **** extern "C" {
  34:Middlewares/Third_Party/FreeRTOS/Source/portable/GCC/ARM_CM7/r0p1/portmacro.h **** #endif
  35:Middlewares/Third_Party/FreeRTOS/Source/portable/GCC/ARM_CM7/r0p1/portmacro.h **** 
  36:Middlewares/Third_Party/FreeRTOS/Source/portable/GCC/ARM_CM7/r0p1/portmacro.h **** /*-----------------------------------------------------------
  37:Middlewares/Third_Party/FreeRTOS/Source/portable/GCC/ARM_CM7/r0p1/portmacro.h ****  * Port specific definitions.
  38:Middlewares/Third_Party/FreeRTOS/Source/portable/GCC/ARM_CM7/r0p1/portmacro.h ****  *
  39:Middlewares/Third_Party/FreeRTOS/Source/portable/GCC/ARM_CM7/r0p1/portmacro.h ****  * The settings in this file configure FreeRTOS correctly for the
  40:Middlewares/Third_Party/FreeRTOS/Source/portable/GCC/ARM_CM7/r0p1/portmacro.h ****  * given hardware and compiler.
  41:Middlewares/Third_Party/FreeRTOS/Source/portable/GCC/ARM_CM7/r0p1/portmacro.h ****  *
  42:Middlewares/Third_Party/FreeRTOS/Source/portable/GCC/ARM_CM7/r0p1/portmacro.h ****  * These settings should not be altered.
  43:Middlewares/Third_Party/FreeRTOS/Source/portable/GCC/ARM_CM7/r0p1/portmacro.h ****  *-----------------------------------------------------------
  44:Middlewares/Third_Party/FreeRTOS/Source/portable/GCC/ARM_CM7/r0p1/portmacro.h ****  */
  45:Middlewares/Third_Party/FreeRTOS/Source/portable/GCC/ARM_CM7/r0p1/portmacro.h **** 
  46:Middlewares/Third_Party/FreeRTOS/Source/portable/GCC/ARM_CM7/r0p1/portmacro.h **** /* Type definitions. */
  47:Middlewares/Third_Party/FreeRTOS/Source/portable/GCC/ARM_CM7/r0p1/portmacro.h **** #define portCHAR		char
  48:Middlewares/Third_Party/FreeRTOS/Source/portable/GCC/ARM_CM7/r0p1/portmacro.h **** #define portFLOAT		float
  49:Middlewares/Third_Party/FreeRTOS/Source/portable/GCC/ARM_CM7/r0p1/portmacro.h **** #define portDOUBLE		double
  50:Middlewares/Third_Party/FreeRTOS/Source/portable/GCC/ARM_CM7/r0p1/portmacro.h **** #define portLONG		long
  51:Middlewares/Third_Party/FreeRTOS/Source/portable/GCC/ARM_CM7/r0p1/portmacro.h **** #define portSHORT		short
  52:Middlewares/Third_Party/FreeRTOS/Source/portable/GCC/ARM_CM7/r0p1/portmacro.h **** #define portSTACK_TYPE	uint32_t
  53:Middlewares/Third_Party/FreeRTOS/Source/portable/GCC/ARM_CM7/r0p1/portmacro.h **** #define portBASE_TYPE	long
  54:Middlewares/Third_Party/FreeRTOS/Source/portable/GCC/ARM_CM7/r0p1/portmacro.h **** 
  55:Middlewares/Third_Party/FreeRTOS/Source/portable/GCC/ARM_CM7/r0p1/portmacro.h **** typedef portSTACK_TYPE StackType_t;
  56:Middlewares/Third_Party/FreeRTOS/Source/portable/GCC/ARM_CM7/r0p1/portmacro.h **** typedef long BaseType_t;
  57:Middlewares/Third_Party/FreeRTOS/Source/portable/GCC/ARM_CM7/r0p1/portmacro.h **** typedef unsigned long UBaseType_t;
  58:Middlewares/Third_Party/FreeRTOS/Source/portable/GCC/ARM_CM7/r0p1/portmacro.h **** 
  59:Middlewares/Third_Party/FreeRTOS/Source/portable/GCC/ARM_CM7/r0p1/portmacro.h **** #if( configUSE_16_BIT_TICKS == 1 )
  60:Middlewares/Third_Party/FreeRTOS/Source/portable/GCC/ARM_CM7/r0p1/portmacro.h **** 	typedef uint16_t TickType_t;
  61:Middlewares/Third_Party/FreeRTOS/Source/portable/GCC/ARM_CM7/r0p1/portmacro.h **** 	#define portMAX_DELAY ( TickType_t ) 0xffff
  62:Middlewares/Third_Party/FreeRTOS/Source/portable/GCC/ARM_CM7/r0p1/portmacro.h **** #else
  63:Middlewares/Third_Party/FreeRTOS/Source/portable/GCC/ARM_CM7/r0p1/portmacro.h **** 	typedef uint32_t TickType_t;
  64:Middlewares/Third_Party/FreeRTOS/Source/portable/GCC/ARM_CM7/r0p1/portmacro.h **** 	#define portMAX_DELAY ( TickType_t ) 0xffffffffUL
  65:Middlewares/Third_Party/FreeRTOS/Source/portable/GCC/ARM_CM7/r0p1/portmacro.h **** 
  66:Middlewares/Third_Party/FreeRTOS/Source/portable/GCC/ARM_CM7/r0p1/portmacro.h **** 	/* 32-bit tick type on a 32-bit architecture, so reads of the tick count do
  67:Middlewares/Third_Party/FreeRTOS/Source/portable/GCC/ARM_CM7/r0p1/portmacro.h **** 	not need to be guarded with a critical section. */
  68:Middlewares/Third_Party/FreeRTOS/Source/portable/GCC/ARM_CM7/r0p1/portmacro.h **** 	#define portTICK_TYPE_IS_ATOMIC 1
  69:Middlewares/Third_Party/FreeRTOS/Source/portable/GCC/ARM_CM7/r0p1/portmacro.h **** #endif
  70:Middlewares/Third_Party/FreeRTOS/Source/portable/GCC/ARM_CM7/r0p1/portmacro.h **** /*-----------------------------------------------------------*/
  71:Middlewares/Third_Party/FreeRTOS/Source/portable/GCC/ARM_CM7/r0p1/portmacro.h **** 
  72:Middlewares/Third_Party/FreeRTOS/Source/portable/GCC/ARM_CM7/r0p1/portmacro.h **** /* Architecture specifics. */
  73:Middlewares/Third_Party/FreeRTOS/Source/portable/GCC/ARM_CM7/r0p1/portmacro.h **** #define portSTACK_GROWTH			( -1 )
  74:Middlewares/Third_Party/FreeRTOS/Source/portable/GCC/ARM_CM7/r0p1/portmacro.h **** #define portTICK_PERIOD_MS			( ( TickType_t ) 1000 / configTICK_RATE_HZ )
  75:Middlewares/Third_Party/FreeRTOS/Source/portable/GCC/ARM_CM7/r0p1/portmacro.h **** #define portBYTE_ALIGNMENT			8
  76:Middlewares/Third_Party/FreeRTOS/Source/portable/GCC/ARM_CM7/r0p1/portmacro.h **** /*-----------------------------------------------------------*/
  77:Middlewares/Third_Party/FreeRTOS/Source/portable/GCC/ARM_CM7/r0p1/portmacro.h **** 
ARM GAS  C:\Users\jisu8\AppData\Local\Temp\cc12CyhQ.s 			page 8


  78:Middlewares/Third_Party/FreeRTOS/Source/portable/GCC/ARM_CM7/r0p1/portmacro.h **** /* Scheduler utilities. */
  79:Middlewares/Third_Party/FreeRTOS/Source/portable/GCC/ARM_CM7/r0p1/portmacro.h **** #define portYIELD() 															\
  80:Middlewares/Third_Party/FreeRTOS/Source/portable/GCC/ARM_CM7/r0p1/portmacro.h **** {																				\
  81:Middlewares/Third_Party/FreeRTOS/Source/portable/GCC/ARM_CM7/r0p1/portmacro.h **** 	/* Set a PendSV to request a context switch. */								\
  82:Middlewares/Third_Party/FreeRTOS/Source/portable/GCC/ARM_CM7/r0p1/portmacro.h **** 	portNVIC_INT_CTRL_REG = portNVIC_PENDSVSET_BIT;								\
  83:Middlewares/Third_Party/FreeRTOS/Source/portable/GCC/ARM_CM7/r0p1/portmacro.h **** 																				\
  84:Middlewares/Third_Party/FreeRTOS/Source/portable/GCC/ARM_CM7/r0p1/portmacro.h **** 	/* Barriers are normally not required but do ensure the code is completely	\
  85:Middlewares/Third_Party/FreeRTOS/Source/portable/GCC/ARM_CM7/r0p1/portmacro.h **** 	within the specified behaviour for the architecture. */						\
  86:Middlewares/Third_Party/FreeRTOS/Source/portable/GCC/ARM_CM7/r0p1/portmacro.h **** 	__asm volatile( "dsb" ::: "memory" );										\
  87:Middlewares/Third_Party/FreeRTOS/Source/portable/GCC/ARM_CM7/r0p1/portmacro.h **** 	__asm volatile( "isb" );													\
  88:Middlewares/Third_Party/FreeRTOS/Source/portable/GCC/ARM_CM7/r0p1/portmacro.h **** }
  89:Middlewares/Third_Party/FreeRTOS/Source/portable/GCC/ARM_CM7/r0p1/portmacro.h **** 
  90:Middlewares/Third_Party/FreeRTOS/Source/portable/GCC/ARM_CM7/r0p1/portmacro.h **** #define portNVIC_INT_CTRL_REG		( * ( ( volatile uint32_t * ) 0xe000ed04 ) )
  91:Middlewares/Third_Party/FreeRTOS/Source/portable/GCC/ARM_CM7/r0p1/portmacro.h **** #define portNVIC_PENDSVSET_BIT		( 1UL << 28UL )
  92:Middlewares/Third_Party/FreeRTOS/Source/portable/GCC/ARM_CM7/r0p1/portmacro.h **** #define portEND_SWITCHING_ISR( xSwitchRequired ) if( xSwitchRequired != pdFALSE ) portYIELD()
  93:Middlewares/Third_Party/FreeRTOS/Source/portable/GCC/ARM_CM7/r0p1/portmacro.h **** #define portYIELD_FROM_ISR( x ) portEND_SWITCHING_ISR( x )
  94:Middlewares/Third_Party/FreeRTOS/Source/portable/GCC/ARM_CM7/r0p1/portmacro.h **** /*-----------------------------------------------------------*/
  95:Middlewares/Third_Party/FreeRTOS/Source/portable/GCC/ARM_CM7/r0p1/portmacro.h **** 
  96:Middlewares/Third_Party/FreeRTOS/Source/portable/GCC/ARM_CM7/r0p1/portmacro.h **** /* Critical section management. */
  97:Middlewares/Third_Party/FreeRTOS/Source/portable/GCC/ARM_CM7/r0p1/portmacro.h **** extern void vPortEnterCritical( void );
  98:Middlewares/Third_Party/FreeRTOS/Source/portable/GCC/ARM_CM7/r0p1/portmacro.h **** extern void vPortExitCritical( void );
  99:Middlewares/Third_Party/FreeRTOS/Source/portable/GCC/ARM_CM7/r0p1/portmacro.h **** #define portSET_INTERRUPT_MASK_FROM_ISR()		ulPortRaiseBASEPRI()
 100:Middlewares/Third_Party/FreeRTOS/Source/portable/GCC/ARM_CM7/r0p1/portmacro.h **** #define portCLEAR_INTERRUPT_MASK_FROM_ISR(x)	vPortSetBASEPRI(x)
 101:Middlewares/Third_Party/FreeRTOS/Source/portable/GCC/ARM_CM7/r0p1/portmacro.h **** #define portDISABLE_INTERRUPTS()				vPortRaiseBASEPRI()
 102:Middlewares/Third_Party/FreeRTOS/Source/portable/GCC/ARM_CM7/r0p1/portmacro.h **** #define portENABLE_INTERRUPTS()					vPortSetBASEPRI(0)
 103:Middlewares/Third_Party/FreeRTOS/Source/portable/GCC/ARM_CM7/r0p1/portmacro.h **** #define portENTER_CRITICAL()					vPortEnterCritical()
 104:Middlewares/Third_Party/FreeRTOS/Source/portable/GCC/ARM_CM7/r0p1/portmacro.h **** #define portEXIT_CRITICAL()						vPortExitCritical()
 105:Middlewares/Third_Party/FreeRTOS/Source/portable/GCC/ARM_CM7/r0p1/portmacro.h **** 
 106:Middlewares/Third_Party/FreeRTOS/Source/portable/GCC/ARM_CM7/r0p1/portmacro.h **** /*-----------------------------------------------------------*/
 107:Middlewares/Third_Party/FreeRTOS/Source/portable/GCC/ARM_CM7/r0p1/portmacro.h **** 
 108:Middlewares/Third_Party/FreeRTOS/Source/portable/GCC/ARM_CM7/r0p1/portmacro.h **** /* Task function macros as described on the FreeRTOS.org WEB site.  These are
 109:Middlewares/Third_Party/FreeRTOS/Source/portable/GCC/ARM_CM7/r0p1/portmacro.h **** not necessary for to use this port.  They are defined so the common demo files
 110:Middlewares/Third_Party/FreeRTOS/Source/portable/GCC/ARM_CM7/r0p1/portmacro.h **** (which build with all the ports) will build. */
 111:Middlewares/Third_Party/FreeRTOS/Source/portable/GCC/ARM_CM7/r0p1/portmacro.h **** #define portTASK_FUNCTION_PROTO( vFunction, pvParameters ) void vFunction( void *pvParameters )
 112:Middlewares/Third_Party/FreeRTOS/Source/portable/GCC/ARM_CM7/r0p1/portmacro.h **** #define portTASK_FUNCTION( vFunction, pvParameters ) void vFunction( void *pvParameters )
 113:Middlewares/Third_Party/FreeRTOS/Source/portable/GCC/ARM_CM7/r0p1/portmacro.h **** /*-----------------------------------------------------------*/
 114:Middlewares/Third_Party/FreeRTOS/Source/portable/GCC/ARM_CM7/r0p1/portmacro.h **** 
 115:Middlewares/Third_Party/FreeRTOS/Source/portable/GCC/ARM_CM7/r0p1/portmacro.h **** /* Tickless idle/low power functionality. */
 116:Middlewares/Third_Party/FreeRTOS/Source/portable/GCC/ARM_CM7/r0p1/portmacro.h **** #ifndef portSUPPRESS_TICKS_AND_SLEEP
 117:Middlewares/Third_Party/FreeRTOS/Source/portable/GCC/ARM_CM7/r0p1/portmacro.h **** 	extern void vPortSuppressTicksAndSleep( TickType_t xExpectedIdleTime );
 118:Middlewares/Third_Party/FreeRTOS/Source/portable/GCC/ARM_CM7/r0p1/portmacro.h **** 	#define portSUPPRESS_TICKS_AND_SLEEP( xExpectedIdleTime ) vPortSuppressTicksAndSleep( xExpectedIdl
 119:Middlewares/Third_Party/FreeRTOS/Source/portable/GCC/ARM_CM7/r0p1/portmacro.h **** #endif
 120:Middlewares/Third_Party/FreeRTOS/Source/portable/GCC/ARM_CM7/r0p1/portmacro.h **** /*-----------------------------------------------------------*/
 121:Middlewares/Third_Party/FreeRTOS/Source/portable/GCC/ARM_CM7/r0p1/portmacro.h **** 
 122:Middlewares/Third_Party/FreeRTOS/Source/portable/GCC/ARM_CM7/r0p1/portmacro.h **** /* Architecture specific optimisations. */
 123:Middlewares/Third_Party/FreeRTOS/Source/portable/GCC/ARM_CM7/r0p1/portmacro.h **** #ifndef configUSE_PORT_OPTIMISED_TASK_SELECTION
 124:Middlewares/Third_Party/FreeRTOS/Source/portable/GCC/ARM_CM7/r0p1/portmacro.h **** 	#define configUSE_PORT_OPTIMISED_TASK_SELECTION 1
 125:Middlewares/Third_Party/FreeRTOS/Source/portable/GCC/ARM_CM7/r0p1/portmacro.h **** #endif
 126:Middlewares/Third_Party/FreeRTOS/Source/portable/GCC/ARM_CM7/r0p1/portmacro.h **** 
 127:Middlewares/Third_Party/FreeRTOS/Source/portable/GCC/ARM_CM7/r0p1/portmacro.h **** #if configUSE_PORT_OPTIMISED_TASK_SELECTION == 1
 128:Middlewares/Third_Party/FreeRTOS/Source/portable/GCC/ARM_CM7/r0p1/portmacro.h **** 
 129:Middlewares/Third_Party/FreeRTOS/Source/portable/GCC/ARM_CM7/r0p1/portmacro.h **** 	/* Generic helper function. */
 130:Middlewares/Third_Party/FreeRTOS/Source/portable/GCC/ARM_CM7/r0p1/portmacro.h **** 	__attribute__( ( always_inline ) ) static inline uint8_t ucPortCountLeadingZeros( uint32_t ulBitma
 131:Middlewares/Third_Party/FreeRTOS/Source/portable/GCC/ARM_CM7/r0p1/portmacro.h **** 	{
 132:Middlewares/Third_Party/FreeRTOS/Source/portable/GCC/ARM_CM7/r0p1/portmacro.h **** 	uint8_t ucReturn;
 133:Middlewares/Third_Party/FreeRTOS/Source/portable/GCC/ARM_CM7/r0p1/portmacro.h **** 
 134:Middlewares/Third_Party/FreeRTOS/Source/portable/GCC/ARM_CM7/r0p1/portmacro.h **** 		__asm volatile ( "clz %0, %1" : "=r" ( ucReturn ) : "r" ( ulBitmap ) : "memory" );
ARM GAS  C:\Users\jisu8\AppData\Local\Temp\cc12CyhQ.s 			page 9


 135:Middlewares/Third_Party/FreeRTOS/Source/portable/GCC/ARM_CM7/r0p1/portmacro.h **** 		return ucReturn;
 136:Middlewares/Third_Party/FreeRTOS/Source/portable/GCC/ARM_CM7/r0p1/portmacro.h **** 	}
 137:Middlewares/Third_Party/FreeRTOS/Source/portable/GCC/ARM_CM7/r0p1/portmacro.h **** 
 138:Middlewares/Third_Party/FreeRTOS/Source/portable/GCC/ARM_CM7/r0p1/portmacro.h **** 	/* Check the configuration. */
 139:Middlewares/Third_Party/FreeRTOS/Source/portable/GCC/ARM_CM7/r0p1/portmacro.h **** 	#if( configMAX_PRIORITIES > 32 )
 140:Middlewares/Third_Party/FreeRTOS/Source/portable/GCC/ARM_CM7/r0p1/portmacro.h **** 		#error configUSE_PORT_OPTIMISED_TASK_SELECTION can only be set to 1 when configMAX_PRIORITIES is 
 141:Middlewares/Third_Party/FreeRTOS/Source/portable/GCC/ARM_CM7/r0p1/portmacro.h **** 	#endif
 142:Middlewares/Third_Party/FreeRTOS/Source/portable/GCC/ARM_CM7/r0p1/portmacro.h **** 
 143:Middlewares/Third_Party/FreeRTOS/Source/portable/GCC/ARM_CM7/r0p1/portmacro.h **** 	/* Store/clear the ready priorities in a bit map. */
 144:Middlewares/Third_Party/FreeRTOS/Source/portable/GCC/ARM_CM7/r0p1/portmacro.h **** 	#define portRECORD_READY_PRIORITY( uxPriority, uxReadyPriorities ) ( uxReadyPriorities ) |= ( 1UL 
 145:Middlewares/Third_Party/FreeRTOS/Source/portable/GCC/ARM_CM7/r0p1/portmacro.h **** 	#define portRESET_READY_PRIORITY( uxPriority, uxReadyPriorities ) ( uxReadyPriorities ) &= ~( 1UL 
 146:Middlewares/Third_Party/FreeRTOS/Source/portable/GCC/ARM_CM7/r0p1/portmacro.h **** 
 147:Middlewares/Third_Party/FreeRTOS/Source/portable/GCC/ARM_CM7/r0p1/portmacro.h **** 	/*-----------------------------------------------------------*/
 148:Middlewares/Third_Party/FreeRTOS/Source/portable/GCC/ARM_CM7/r0p1/portmacro.h **** 
 149:Middlewares/Third_Party/FreeRTOS/Source/portable/GCC/ARM_CM7/r0p1/portmacro.h **** 	#define portGET_HIGHEST_PRIORITY( uxTopPriority, uxReadyPriorities ) uxTopPriority = ( 31UL - ( ui
 150:Middlewares/Third_Party/FreeRTOS/Source/portable/GCC/ARM_CM7/r0p1/portmacro.h **** 
 151:Middlewares/Third_Party/FreeRTOS/Source/portable/GCC/ARM_CM7/r0p1/portmacro.h **** #endif /* configUSE_PORT_OPTIMISED_TASK_SELECTION */
 152:Middlewares/Third_Party/FreeRTOS/Source/portable/GCC/ARM_CM7/r0p1/portmacro.h **** 
 153:Middlewares/Third_Party/FreeRTOS/Source/portable/GCC/ARM_CM7/r0p1/portmacro.h **** /*-----------------------------------------------------------*/
 154:Middlewares/Third_Party/FreeRTOS/Source/portable/GCC/ARM_CM7/r0p1/portmacro.h **** 
 155:Middlewares/Third_Party/FreeRTOS/Source/portable/GCC/ARM_CM7/r0p1/portmacro.h **** #ifdef configASSERT
 156:Middlewares/Third_Party/FreeRTOS/Source/portable/GCC/ARM_CM7/r0p1/portmacro.h **** 	void vPortValidateInterruptPriority( void );
 157:Middlewares/Third_Party/FreeRTOS/Source/portable/GCC/ARM_CM7/r0p1/portmacro.h **** 	#define portASSERT_IF_INTERRUPT_PRIORITY_INVALID() 	vPortValidateInterruptPriority()
 158:Middlewares/Third_Party/FreeRTOS/Source/portable/GCC/ARM_CM7/r0p1/portmacro.h **** #endif
 159:Middlewares/Third_Party/FreeRTOS/Source/portable/GCC/ARM_CM7/r0p1/portmacro.h **** 
 160:Middlewares/Third_Party/FreeRTOS/Source/portable/GCC/ARM_CM7/r0p1/portmacro.h **** /* portNOP() is not required by this port. */
 161:Middlewares/Third_Party/FreeRTOS/Source/portable/GCC/ARM_CM7/r0p1/portmacro.h **** #define portNOP()
 162:Middlewares/Third_Party/FreeRTOS/Source/portable/GCC/ARM_CM7/r0p1/portmacro.h **** 
 163:Middlewares/Third_Party/FreeRTOS/Source/portable/GCC/ARM_CM7/r0p1/portmacro.h **** #define portINLINE	__inline
 164:Middlewares/Third_Party/FreeRTOS/Source/portable/GCC/ARM_CM7/r0p1/portmacro.h **** 
 165:Middlewares/Third_Party/FreeRTOS/Source/portable/GCC/ARM_CM7/r0p1/portmacro.h **** #ifndef portFORCE_INLINE
 166:Middlewares/Third_Party/FreeRTOS/Source/portable/GCC/ARM_CM7/r0p1/portmacro.h **** 	#define portFORCE_INLINE inline __attribute__(( always_inline))
 167:Middlewares/Third_Party/FreeRTOS/Source/portable/GCC/ARM_CM7/r0p1/portmacro.h **** #endif
 168:Middlewares/Third_Party/FreeRTOS/Source/portable/GCC/ARM_CM7/r0p1/portmacro.h **** 
 169:Middlewares/Third_Party/FreeRTOS/Source/portable/GCC/ARM_CM7/r0p1/portmacro.h **** portFORCE_INLINE static BaseType_t xPortIsInsideInterrupt( void )
 170:Middlewares/Third_Party/FreeRTOS/Source/portable/GCC/ARM_CM7/r0p1/portmacro.h **** {
 171:Middlewares/Third_Party/FreeRTOS/Source/portable/GCC/ARM_CM7/r0p1/portmacro.h **** uint32_t ulCurrentInterrupt;
 172:Middlewares/Third_Party/FreeRTOS/Source/portable/GCC/ARM_CM7/r0p1/portmacro.h **** BaseType_t xReturn;
 173:Middlewares/Third_Party/FreeRTOS/Source/portable/GCC/ARM_CM7/r0p1/portmacro.h **** 
 174:Middlewares/Third_Party/FreeRTOS/Source/portable/GCC/ARM_CM7/r0p1/portmacro.h **** 	/* Obtain the number of the currently executing interrupt. */
 175:Middlewares/Third_Party/FreeRTOS/Source/portable/GCC/ARM_CM7/r0p1/portmacro.h **** 	__asm volatile( "mrs %0, ipsr" : "=r"( ulCurrentInterrupt ) :: "memory" );
 176:Middlewares/Third_Party/FreeRTOS/Source/portable/GCC/ARM_CM7/r0p1/portmacro.h **** 
 177:Middlewares/Third_Party/FreeRTOS/Source/portable/GCC/ARM_CM7/r0p1/portmacro.h **** 	if( ulCurrentInterrupt == 0 )
 178:Middlewares/Third_Party/FreeRTOS/Source/portable/GCC/ARM_CM7/r0p1/portmacro.h **** 	{
 179:Middlewares/Third_Party/FreeRTOS/Source/portable/GCC/ARM_CM7/r0p1/portmacro.h **** 		xReturn = pdFALSE;
 180:Middlewares/Third_Party/FreeRTOS/Source/portable/GCC/ARM_CM7/r0p1/portmacro.h **** 	}
 181:Middlewares/Third_Party/FreeRTOS/Source/portable/GCC/ARM_CM7/r0p1/portmacro.h **** 	else
 182:Middlewares/Third_Party/FreeRTOS/Source/portable/GCC/ARM_CM7/r0p1/portmacro.h **** 	{
 183:Middlewares/Third_Party/FreeRTOS/Source/portable/GCC/ARM_CM7/r0p1/portmacro.h **** 		xReturn = pdTRUE;
 184:Middlewares/Third_Party/FreeRTOS/Source/portable/GCC/ARM_CM7/r0p1/portmacro.h **** 	}
 185:Middlewares/Third_Party/FreeRTOS/Source/portable/GCC/ARM_CM7/r0p1/portmacro.h **** 
 186:Middlewares/Third_Party/FreeRTOS/Source/portable/GCC/ARM_CM7/r0p1/portmacro.h **** 	return xReturn;
 187:Middlewares/Third_Party/FreeRTOS/Source/portable/GCC/ARM_CM7/r0p1/portmacro.h **** }
 188:Middlewares/Third_Party/FreeRTOS/Source/portable/GCC/ARM_CM7/r0p1/portmacro.h **** 
 189:Middlewares/Third_Party/FreeRTOS/Source/portable/GCC/ARM_CM7/r0p1/portmacro.h **** /*-----------------------------------------------------------*/
 190:Middlewares/Third_Party/FreeRTOS/Source/portable/GCC/ARM_CM7/r0p1/portmacro.h **** 
 191:Middlewares/Third_Party/FreeRTOS/Source/portable/GCC/ARM_CM7/r0p1/portmacro.h **** portFORCE_INLINE static void vPortRaiseBASEPRI( void )
ARM GAS  C:\Users\jisu8\AppData\Local\Temp\cc12CyhQ.s 			page 10


 192:Middlewares/Third_Party/FreeRTOS/Source/portable/GCC/ARM_CM7/r0p1/portmacro.h **** {
 193:Middlewares/Third_Party/FreeRTOS/Source/portable/GCC/ARM_CM7/r0p1/portmacro.h **** uint32_t ulNewBASEPRI;
 194:Middlewares/Third_Party/FreeRTOS/Source/portable/GCC/ARM_CM7/r0p1/portmacro.h **** 
 195:Middlewares/Third_Party/FreeRTOS/Source/portable/GCC/ARM_CM7/r0p1/portmacro.h **** 	__asm volatile
  63              		.loc 2 195 2
  64              		.syntax unified
  65              	@ 195 "Middlewares/Third_Party/FreeRTOS/Source/portable/GCC/ARM_CM7/r0p1/portmacro.h" 1
  66 0014 4FF05003 			mov r3, #80												
  67 0018 72B6     		cpsid i													
  68 001a 83F31188 		msr basepri, r3											
  69 001e BFF36F8F 		isb														
  70 0022 BFF34F8F 		dsb														
  71 0026 62B6     		cpsie i													
  72              	
  73              	@ 0 "" 2
  74              		.thumb
  75              		.syntax unified
  76 0028 BB60     		str	r3, [r7, #8]
 196:Middlewares/Third_Party/FreeRTOS/Source/portable/GCC/ARM_CM7/r0p1/portmacro.h **** 	(
 197:Middlewares/Third_Party/FreeRTOS/Source/portable/GCC/ARM_CM7/r0p1/portmacro.h **** 		"	mov %0, %1												\n"	\
 198:Middlewares/Third_Party/FreeRTOS/Source/portable/GCC/ARM_CM7/r0p1/portmacro.h **** 		"	cpsid i													\n" \
 199:Middlewares/Third_Party/FreeRTOS/Source/portable/GCC/ARM_CM7/r0p1/portmacro.h **** 		"	msr basepri, %0											\n" \
 200:Middlewares/Third_Party/FreeRTOS/Source/portable/GCC/ARM_CM7/r0p1/portmacro.h **** 		"	isb														\n" \
 201:Middlewares/Third_Party/FreeRTOS/Source/portable/GCC/ARM_CM7/r0p1/portmacro.h **** 		"	dsb														\n" \
 202:Middlewares/Third_Party/FreeRTOS/Source/portable/GCC/ARM_CM7/r0p1/portmacro.h **** 		"	cpsie i													\n" \
 203:Middlewares/Third_Party/FreeRTOS/Source/portable/GCC/ARM_CM7/r0p1/portmacro.h **** 		:"=r" (ulNewBASEPRI) : "i" ( configMAX_SYSCALL_INTERRUPT_PRIORITY ) : "memory"
 204:Middlewares/Third_Party/FreeRTOS/Source/portable/GCC/ARM_CM7/r0p1/portmacro.h **** 	);
 205:Middlewares/Third_Party/FreeRTOS/Source/portable/GCC/ARM_CM7/r0p1/portmacro.h **** }
  77              		.loc 2 205 1
  78 002a 00BF     		nop
  79              	.L3:
  80              	.LBE117:
  81              	.LBE116:
  82              		.loc 1 259 2 discriminator 1
  83 002c FEE7     		b	.L3
  84              	.L2:
 260:Middlewares/Third_Party/FreeRTOS/Source/queue.c **** 
 261:Middlewares/Third_Party/FreeRTOS/Source/queue.c **** 	taskENTER_CRITICAL();
  85              		.loc 1 261 2
  86 002e FFF7FEFF 		bl	vPortEnterCritical
 262:Middlewares/Third_Party/FreeRTOS/Source/queue.c **** 	{
 263:Middlewares/Third_Party/FreeRTOS/Source/queue.c **** 		pxQueue->u.xQueue.pcTail = pxQueue->pcHead + ( pxQueue->uxLength * pxQueue->uxItemSize ); /*lint 
  87              		.loc 1 263 37
  88 0032 FB68     		ldr	r3, [r7, #12]
  89 0034 1A68     		ldr	r2, [r3]
  90              		.loc 1 263 57
  91 0036 FB68     		ldr	r3, [r7, #12]
  92 0038 DB6B     		ldr	r3, [r3, #60]
  93              		.loc 1 263 77
  94 003a F968     		ldr	r1, [r7, #12]
  95 003c 096C     		ldr	r1, [r1, #64]
  96              		.loc 1 263 68
  97 003e 01FB03F3 		mul	r3, r1, r3
  98              		.loc 1 263 46
  99 0042 1A44     		add	r2, r2, r3
 100              		.loc 1 263 28
 101 0044 FB68     		ldr	r3, [r7, #12]
ARM GAS  C:\Users\jisu8\AppData\Local\Temp\cc12CyhQ.s 			page 11


 102 0046 9A60     		str	r2, [r3, #8]
 264:Middlewares/Third_Party/FreeRTOS/Source/queue.c **** 		pxQueue->uxMessagesWaiting = ( UBaseType_t ) 0U;
 103              		.loc 1 264 30
 104 0048 FB68     		ldr	r3, [r7, #12]
 105 004a 0022     		movs	r2, #0
 106 004c 9A63     		str	r2, [r3, #56]
 265:Middlewares/Third_Party/FreeRTOS/Source/queue.c **** 		pxQueue->pcWriteTo = pxQueue->pcHead;
 107              		.loc 1 265 31
 108 004e FB68     		ldr	r3, [r7, #12]
 109 0050 1A68     		ldr	r2, [r3]
 110              		.loc 1 265 22
 111 0052 FB68     		ldr	r3, [r7, #12]
 112 0054 5A60     		str	r2, [r3, #4]
 266:Middlewares/Third_Party/FreeRTOS/Source/queue.c **** 		pxQueue->u.xQueue.pcReadFrom = pxQueue->pcHead + ( ( pxQueue->uxLength - 1U ) * pxQueue->uxItemSi
 113              		.loc 1 266 41
 114 0056 FB68     		ldr	r3, [r7, #12]
 115 0058 1A68     		ldr	r2, [r3]
 116              		.loc 1 266 63
 117 005a FB68     		ldr	r3, [r7, #12]
 118 005c DB6B     		ldr	r3, [r3, #60]
 119              		.loc 1 266 74
 120 005e 013B     		subs	r3, r3, #1
 121              		.loc 1 266 90
 122 0060 F968     		ldr	r1, [r7, #12]
 123 0062 096C     		ldr	r1, [r1, #64]
 124              		.loc 1 266 81
 125 0064 01FB03F3 		mul	r3, r1, r3
 126              		.loc 1 266 50
 127 0068 1A44     		add	r2, r2, r3
 128              		.loc 1 266 32
 129 006a FB68     		ldr	r3, [r7, #12]
 130 006c DA60     		str	r2, [r3, #12]
 267:Middlewares/Third_Party/FreeRTOS/Source/queue.c **** 		pxQueue->cRxLock = queueUNLOCKED;
 131              		.loc 1 267 20
 132 006e FB68     		ldr	r3, [r7, #12]
 133 0070 FF22     		movs	r2, #255
 134 0072 83F84420 		strb	r2, [r3, #68]
 268:Middlewares/Third_Party/FreeRTOS/Source/queue.c **** 		pxQueue->cTxLock = queueUNLOCKED;
 135              		.loc 1 268 20
 136 0076 FB68     		ldr	r3, [r7, #12]
 137 0078 FF22     		movs	r2, #255
 138 007a 83F84520 		strb	r2, [r3, #69]
 269:Middlewares/Third_Party/FreeRTOS/Source/queue.c **** 
 270:Middlewares/Third_Party/FreeRTOS/Source/queue.c **** 		if( xNewQueue == pdFALSE )
 139              		.loc 1 270 5
 140 007e 3B68     		ldr	r3, [r7]
 141 0080 002B     		cmp	r3, #0
 142 0082 14D1     		bne	.L4
 271:Middlewares/Third_Party/FreeRTOS/Source/queue.c **** 		{
 272:Middlewares/Third_Party/FreeRTOS/Source/queue.c **** 			/* If there are tasks blocked waiting to read from the queue, then
 273:Middlewares/Third_Party/FreeRTOS/Source/queue.c **** 			the tasks will remain blocked as after this function exits the queue
 274:Middlewares/Third_Party/FreeRTOS/Source/queue.c **** 			will still be empty.  If there are tasks blocked waiting to write to
 275:Middlewares/Third_Party/FreeRTOS/Source/queue.c **** 			the queue, then one should be unblocked as after this function exits
 276:Middlewares/Third_Party/FreeRTOS/Source/queue.c **** 			it will be possible to write to it. */
 277:Middlewares/Third_Party/FreeRTOS/Source/queue.c **** 			if( listLIST_IS_EMPTY( &( pxQueue->xTasksWaitingToSend ) ) == pdFALSE )
 143              		.loc 1 277 8
 144 0084 FB68     		ldr	r3, [r7, #12]
ARM GAS  C:\Users\jisu8\AppData\Local\Temp\cc12CyhQ.s 			page 12


 145 0086 1B69     		ldr	r3, [r3, #16]
 146              		.loc 1 277 6
 147 0088 002B     		cmp	r3, #0
 148 008a 1AD0     		beq	.L5
 278:Middlewares/Third_Party/FreeRTOS/Source/queue.c **** 			{
 279:Middlewares/Third_Party/FreeRTOS/Source/queue.c **** 				if( xTaskRemoveFromEventList( &( pxQueue->xTasksWaitingToSend ) ) != pdFALSE )
 149              		.loc 1 279 35
 150 008c FB68     		ldr	r3, [r7, #12]
 151 008e 1033     		adds	r3, r3, #16
 152              		.loc 1 279 9
 153 0090 1846     		mov	r0, r3
 154 0092 FFF7FEFF 		bl	xTaskRemoveFromEventList
 155 0096 0346     		mov	r3, r0
 156              		.loc 1 279 7
 157 0098 002B     		cmp	r3, #0
 158 009a 12D0     		beq	.L5
 280:Middlewares/Third_Party/FreeRTOS/Source/queue.c **** 				{
 281:Middlewares/Third_Party/FreeRTOS/Source/queue.c **** 					queueYIELD_IF_USING_PREEMPTION();
 159              		.loc 1 281 6
 160 009c 0C4B     		ldr	r3, .L7
 161 009e 4FF08052 		mov	r2, #268435456
 162 00a2 1A60     		str	r2, [r3]
 163              		.syntax unified
 164              	@ 281 "Middlewares/Third_Party/FreeRTOS/Source/queue.c" 1
 165 00a4 BFF34F8F 		dsb
 166              	@ 0 "" 2
 167              	@ 281 "Middlewares/Third_Party/FreeRTOS/Source/queue.c" 1
 168 00a8 BFF36F8F 		isb
 169              	@ 0 "" 2
 170              		.thumb
 171              		.syntax unified
 172 00ac 09E0     		b	.L5
 173              	.L4:
 282:Middlewares/Third_Party/FreeRTOS/Source/queue.c **** 				}
 283:Middlewares/Third_Party/FreeRTOS/Source/queue.c **** 				else
 284:Middlewares/Third_Party/FreeRTOS/Source/queue.c **** 				{
 285:Middlewares/Third_Party/FreeRTOS/Source/queue.c **** 					mtCOVERAGE_TEST_MARKER();
 286:Middlewares/Third_Party/FreeRTOS/Source/queue.c **** 				}
 287:Middlewares/Third_Party/FreeRTOS/Source/queue.c **** 			}
 288:Middlewares/Third_Party/FreeRTOS/Source/queue.c **** 			else
 289:Middlewares/Third_Party/FreeRTOS/Source/queue.c **** 			{
 290:Middlewares/Third_Party/FreeRTOS/Source/queue.c **** 				mtCOVERAGE_TEST_MARKER();
 291:Middlewares/Third_Party/FreeRTOS/Source/queue.c **** 			}
 292:Middlewares/Third_Party/FreeRTOS/Source/queue.c **** 		}
 293:Middlewares/Third_Party/FreeRTOS/Source/queue.c **** 		else
 294:Middlewares/Third_Party/FreeRTOS/Source/queue.c **** 		{
 295:Middlewares/Third_Party/FreeRTOS/Source/queue.c **** 			/* Ensure the event queues start in the correct state. */
 296:Middlewares/Third_Party/FreeRTOS/Source/queue.c **** 			vListInitialise( &( pxQueue->xTasksWaitingToSend ) );
 174              		.loc 1 296 4
 175 00ae FB68     		ldr	r3, [r7, #12]
 176 00b0 1033     		adds	r3, r3, #16
 177 00b2 1846     		mov	r0, r3
 178 00b4 FFF7FEFF 		bl	vListInitialise
 297:Middlewares/Third_Party/FreeRTOS/Source/queue.c **** 			vListInitialise( &( pxQueue->xTasksWaitingToReceive ) );
 179              		.loc 1 297 4
 180 00b8 FB68     		ldr	r3, [r7, #12]
 181 00ba 2433     		adds	r3, r3, #36
ARM GAS  C:\Users\jisu8\AppData\Local\Temp\cc12CyhQ.s 			page 13


 182 00bc 1846     		mov	r0, r3
 183 00be FFF7FEFF 		bl	vListInitialise
 184              	.L5:
 298:Middlewares/Third_Party/FreeRTOS/Source/queue.c **** 		}
 299:Middlewares/Third_Party/FreeRTOS/Source/queue.c **** 	}
 300:Middlewares/Third_Party/FreeRTOS/Source/queue.c **** 	taskEXIT_CRITICAL();
 185              		.loc 1 300 2
 186 00c2 FFF7FEFF 		bl	vPortExitCritical
 301:Middlewares/Third_Party/FreeRTOS/Source/queue.c **** 
 302:Middlewares/Third_Party/FreeRTOS/Source/queue.c **** 	/* A value is returned for calling semantic consistency with previous
 303:Middlewares/Third_Party/FreeRTOS/Source/queue.c **** 	versions. */
 304:Middlewares/Third_Party/FreeRTOS/Source/queue.c **** 	return pdPASS;
 187              		.loc 1 304 9
 188 00c6 0123     		movs	r3, #1
 305:Middlewares/Third_Party/FreeRTOS/Source/queue.c **** }
 189              		.loc 1 305 1
 190 00c8 1846     		mov	r0, r3
 191 00ca 1037     		adds	r7, r7, #16
 192              	.LCFI3:
 193              		.cfi_def_cfa_offset 8
 194 00cc BD46     		mov	sp, r7
 195              	.LCFI4:
 196              		.cfi_def_cfa_register 13
 197              		@ sp needed
 198 00ce 80BD     		pop	{r7, pc}
 199              	.L8:
 200              		.align	2
 201              	.L7:
 202 00d0 04ED00E0 		.word	-536810236
 203              		.cfi_endproc
 204              	.LFE5:
 206              		.section	.text.xQueueGenericCreateStatic,"ax",%progbits
 207              		.align	1
 208              		.global	xQueueGenericCreateStatic
 209              		.syntax unified
 210              		.thumb
 211              		.thumb_func
 213              	xQueueGenericCreateStatic:
 214              	.LFB6:
 306:Middlewares/Third_Party/FreeRTOS/Source/queue.c **** /*-----------------------------------------------------------*/
 307:Middlewares/Third_Party/FreeRTOS/Source/queue.c **** 
 308:Middlewares/Third_Party/FreeRTOS/Source/queue.c **** #if( configSUPPORT_STATIC_ALLOCATION == 1 )
 309:Middlewares/Third_Party/FreeRTOS/Source/queue.c **** 
 310:Middlewares/Third_Party/FreeRTOS/Source/queue.c **** 	QueueHandle_t xQueueGenericCreateStatic( const UBaseType_t uxQueueLength, const UBaseType_t uxItem
 311:Middlewares/Third_Party/FreeRTOS/Source/queue.c **** 	{
 215              		.loc 1 311 2
 216              		.cfi_startproc
 217              		@ args = 4, pretend = 0, frame = 48
 218              		@ frame_needed = 1, uses_anonymous_args = 0
 219 0000 80B5     		push	{r7, lr}
 220              	.LCFI5:
 221              		.cfi_def_cfa_offset 8
 222              		.cfi_offset 7, -8
 223              		.cfi_offset 14, -4
 224 0002 8EB0     		sub	sp, sp, #56
 225              	.LCFI6:
 226              		.cfi_def_cfa_offset 64
ARM GAS  C:\Users\jisu8\AppData\Local\Temp\cc12CyhQ.s 			page 14


 227 0004 02AF     		add	r7, sp, #8
 228              	.LCFI7:
 229              		.cfi_def_cfa 7, 56
 230 0006 F860     		str	r0, [r7, #12]
 231 0008 B960     		str	r1, [r7, #8]
 232 000a 7A60     		str	r2, [r7, #4]
 233 000c 3B60     		str	r3, [r7]
 312:Middlewares/Third_Party/FreeRTOS/Source/queue.c **** 	Queue_t *pxNewQueue;
 313:Middlewares/Third_Party/FreeRTOS/Source/queue.c **** 
 314:Middlewares/Third_Party/FreeRTOS/Source/queue.c **** 		configASSERT( uxQueueLength > ( UBaseType_t ) 0 );
 234              		.loc 1 314 3
 235 000e FB68     		ldr	r3, [r7, #12]
 236 0010 002B     		cmp	r3, #0
 237 0012 0CD1     		bne	.L10
 238              	.LBB118:
 239              	.LBB119:
 195:Middlewares/Third_Party/FreeRTOS/Source/portable/GCC/ARM_CM7/r0p1/portmacro.h **** 	(
 240              		.loc 2 195 2
 241              		.syntax unified
 242              	@ 195 "Middlewares/Third_Party/FreeRTOS/Source/portable/GCC/ARM_CM7/r0p1/portmacro.h" 1
 243 0014 4FF05003 			mov r3, #80												
 244 0018 72B6     		cpsid i													
 245 001a 83F31188 		msr basepri, r3											
 246 001e BFF36F8F 		isb														
 247 0022 BFF34F8F 		dsb														
 248 0026 62B6     		cpsie i													
 249              	
 250              	@ 0 "" 2
 251              		.thumb
 252              		.syntax unified
 253 0028 BB62     		str	r3, [r7, #40]
 254              		.loc 2 205 1
 255 002a 00BF     		nop
 256              	.L11:
 257              	.LBE119:
 258              	.LBE118:
 259              		.loc 1 314 3 discriminator 1
 260 002c FEE7     		b	.L11
 261              	.L10:
 315:Middlewares/Third_Party/FreeRTOS/Source/queue.c **** 
 316:Middlewares/Third_Party/FreeRTOS/Source/queue.c **** 		/* The StaticQueue_t structure and the queue storage area must be
 317:Middlewares/Third_Party/FreeRTOS/Source/queue.c **** 		supplied. */
 318:Middlewares/Third_Party/FreeRTOS/Source/queue.c **** 		configASSERT( pxStaticQueue != NULL );
 262              		.loc 1 318 3
 263 002e 3B68     		ldr	r3, [r7]
 264 0030 002B     		cmp	r3, #0
 265 0032 0CD1     		bne	.L12
 266              	.LBB120:
 267              	.LBB121:
 195:Middlewares/Third_Party/FreeRTOS/Source/portable/GCC/ARM_CM7/r0p1/portmacro.h **** 	(
 268              		.loc 2 195 2
 269              		.syntax unified
 270              	@ 195 "Middlewares/Third_Party/FreeRTOS/Source/portable/GCC/ARM_CM7/r0p1/portmacro.h" 1
 271 0034 4FF05003 			mov r3, #80												
 272 0038 72B6     		cpsid i													
 273 003a 83F31188 		msr basepri, r3											
 274 003e BFF36F8F 		isb														
ARM GAS  C:\Users\jisu8\AppData\Local\Temp\cc12CyhQ.s 			page 15


 275 0042 BFF34F8F 		dsb														
 276 0046 62B6     		cpsie i													
 277              	
 278              	@ 0 "" 2
 279              		.thumb
 280              		.syntax unified
 281 0048 7B62     		str	r3, [r7, #36]
 282              		.loc 2 205 1
 283 004a 00BF     		nop
 284              	.L13:
 285              	.LBE121:
 286              	.LBE120:
 287              		.loc 1 318 3 discriminator 2
 288 004c FEE7     		b	.L13
 289              	.L12:
 319:Middlewares/Third_Party/FreeRTOS/Source/queue.c **** 
 320:Middlewares/Third_Party/FreeRTOS/Source/queue.c **** 		/* A queue storage area should be provided if the item size is not 0, and
 321:Middlewares/Third_Party/FreeRTOS/Source/queue.c **** 		should not be provided if the item size is 0. */
 322:Middlewares/Third_Party/FreeRTOS/Source/queue.c **** 		configASSERT( !( ( pucQueueStorage != NULL ) && ( uxItemSize == 0 ) ) );
 290              		.loc 1 322 3
 291 004e 7B68     		ldr	r3, [r7, #4]
 292 0050 002B     		cmp	r3, #0
 293 0052 02D0     		beq	.L14
 294              		.loc 1 322 3 is_stmt 0 discriminator 2
 295 0054 BB68     		ldr	r3, [r7, #8]
 296 0056 002B     		cmp	r3, #0
 297 0058 01D0     		beq	.L15
 298              	.L14:
 299              		.loc 1 322 3 discriminator 3
 300 005a 0123     		movs	r3, #1
 301 005c 00E0     		b	.L16
 302              	.L15:
 303              		.loc 1 322 3 discriminator 4
 304 005e 0023     		movs	r3, #0
 305              	.L16:
 306              		.loc 1 322 3 discriminator 6
 307 0060 002B     		cmp	r3, #0
 308 0062 0CD1     		bne	.L17
 309              	.LBB122:
 310              	.LBB123:
 195:Middlewares/Third_Party/FreeRTOS/Source/portable/GCC/ARM_CM7/r0p1/portmacro.h **** 	(
 311              		.loc 2 195 2 is_stmt 1
 312              		.syntax unified
 313              	@ 195 "Middlewares/Third_Party/FreeRTOS/Source/portable/GCC/ARM_CM7/r0p1/portmacro.h" 1
 314 0064 4FF05003 			mov r3, #80												
 315 0068 72B6     		cpsid i													
 316 006a 83F31188 		msr basepri, r3											
 317 006e BFF36F8F 		isb														
 318 0072 BFF34F8F 		dsb														
 319 0076 62B6     		cpsie i													
 320              	
 321              	@ 0 "" 2
 322              		.thumb
 323              		.syntax unified
 324 0078 3B62     		str	r3, [r7, #32]
 325              		.loc 2 205 1
 326 007a 00BF     		nop
ARM GAS  C:\Users\jisu8\AppData\Local\Temp\cc12CyhQ.s 			page 16


 327              	.L18:
 328              	.LBE123:
 329              	.LBE122:
 330              		.loc 1 322 3 discriminator 3
 331 007c FEE7     		b	.L18
 332              	.L17:
 323:Middlewares/Third_Party/FreeRTOS/Source/queue.c **** 		configASSERT( !( ( pucQueueStorage == NULL ) && ( uxItemSize != 0 ) ) );
 333              		.loc 1 323 3
 334 007e 7B68     		ldr	r3, [r7, #4]
 335 0080 002B     		cmp	r3, #0
 336 0082 02D1     		bne	.L19
 337              		.loc 1 323 3 is_stmt 0 discriminator 2
 338 0084 BB68     		ldr	r3, [r7, #8]
 339 0086 002B     		cmp	r3, #0
 340 0088 01D1     		bne	.L20
 341              	.L19:
 342              		.loc 1 323 3 discriminator 3
 343 008a 0123     		movs	r3, #1
 344 008c 00E0     		b	.L21
 345              	.L20:
 346              		.loc 1 323 3 discriminator 4
 347 008e 0023     		movs	r3, #0
 348              	.L21:
 349              		.loc 1 323 3 discriminator 6
 350 0090 002B     		cmp	r3, #0
 351 0092 0CD1     		bne	.L22
 352              	.LBB124:
 353              	.LBB125:
 195:Middlewares/Third_Party/FreeRTOS/Source/portable/GCC/ARM_CM7/r0p1/portmacro.h **** 	(
 354              		.loc 2 195 2 is_stmt 1
 355              		.syntax unified
 356              	@ 195 "Middlewares/Third_Party/FreeRTOS/Source/portable/GCC/ARM_CM7/r0p1/portmacro.h" 1
 357 0094 4FF05003 			mov r3, #80												
 358 0098 72B6     		cpsid i													
 359 009a 83F31188 		msr basepri, r3											
 360 009e BFF36F8F 		isb														
 361 00a2 BFF34F8F 		dsb														
 362 00a6 62B6     		cpsie i													
 363              	
 364              	@ 0 "" 2
 365              		.thumb
 366              		.syntax unified
 367 00a8 FB61     		str	r3, [r7, #28]
 368              		.loc 2 205 1
 369 00aa 00BF     		nop
 370              	.L23:
 371              	.LBE125:
 372              	.LBE124:
 373              		.loc 1 323 3 discriminator 4
 374 00ac FEE7     		b	.L23
 375              	.L22:
 376              	.LBB126:
 324:Middlewares/Third_Party/FreeRTOS/Source/queue.c **** 
 325:Middlewares/Third_Party/FreeRTOS/Source/queue.c **** 		#if( configASSERT_DEFINED == 1 )
 326:Middlewares/Third_Party/FreeRTOS/Source/queue.c **** 		{
 327:Middlewares/Third_Party/FreeRTOS/Source/queue.c **** 			/* Sanity check that the size of the structure used to declare a
 328:Middlewares/Third_Party/FreeRTOS/Source/queue.c **** 			variable of type StaticQueue_t or StaticSemaphore_t equals the size of
ARM GAS  C:\Users\jisu8\AppData\Local\Temp\cc12CyhQ.s 			page 17


 329:Middlewares/Third_Party/FreeRTOS/Source/queue.c **** 			the real queue and semaphore structures. */
 330:Middlewares/Third_Party/FreeRTOS/Source/queue.c **** 			volatile size_t xSize = sizeof( StaticQueue_t );
 377              		.loc 1 330 20
 378 00ae 4823     		movs	r3, #72
 379 00b0 7B61     		str	r3, [r7, #20]
 331:Middlewares/Third_Party/FreeRTOS/Source/queue.c **** 			configASSERT( xSize == sizeof( Queue_t ) );
 380              		.loc 1 331 4
 381 00b2 7B69     		ldr	r3, [r7, #20]
 382 00b4 482B     		cmp	r3, #72
 383 00b6 0CD0     		beq	.L24
 384              	.LBB127:
 385              	.LBB128:
 195:Middlewares/Third_Party/FreeRTOS/Source/portable/GCC/ARM_CM7/r0p1/portmacro.h **** 	(
 386              		.loc 2 195 2
 387              		.syntax unified
 388              	@ 195 "Middlewares/Third_Party/FreeRTOS/Source/portable/GCC/ARM_CM7/r0p1/portmacro.h" 1
 389 00b8 4FF05003 			mov r3, #80												
 390 00bc 72B6     		cpsid i													
 391 00be 83F31188 		msr basepri, r3											
 392 00c2 BFF36F8F 		isb														
 393 00c6 BFF34F8F 		dsb														
 394 00ca 62B6     		cpsie i													
 395              	
 396              	@ 0 "" 2
 397              		.thumb
 398              		.syntax unified
 399 00cc BB61     		str	r3, [r7, #24]
 400              		.loc 2 205 1
 401 00ce 00BF     		nop
 402              	.L25:
 403              	.LBE128:
 404              	.LBE127:
 405              		.loc 1 331 4 discriminator 5
 406 00d0 FEE7     		b	.L25
 407              	.L24:
 332:Middlewares/Third_Party/FreeRTOS/Source/queue.c **** 			( void ) xSize; /* Keeps lint quiet when configASSERT() is not defined. */
 408              		.loc 1 332 4
 409 00d2 7B69     		ldr	r3, [r7, #20]
 410              	.LBE126:
 333:Middlewares/Third_Party/FreeRTOS/Source/queue.c **** 		}
 334:Middlewares/Third_Party/FreeRTOS/Source/queue.c **** 		#endif /* configASSERT_DEFINED */
 335:Middlewares/Third_Party/FreeRTOS/Source/queue.c **** 
 336:Middlewares/Third_Party/FreeRTOS/Source/queue.c **** 		/* The address of a statically allocated queue was passed in, use it.
 337:Middlewares/Third_Party/FreeRTOS/Source/queue.c **** 		The address of a statically allocated storage area was also passed in
 338:Middlewares/Third_Party/FreeRTOS/Source/queue.c **** 		but is already set. */
 339:Middlewares/Third_Party/FreeRTOS/Source/queue.c **** 		pxNewQueue = ( Queue_t * ) pxStaticQueue; /*lint !e740 !e9087 Unusual cast is ok as the structure
 411              		.loc 1 339 14
 412 00d4 3B68     		ldr	r3, [r7]
 413 00d6 FB62     		str	r3, [r7, #44]
 340:Middlewares/Third_Party/FreeRTOS/Source/queue.c **** 
 341:Middlewares/Third_Party/FreeRTOS/Source/queue.c **** 		if( pxNewQueue != NULL )
 414              		.loc 1 341 5
 415 00d8 FB6A     		ldr	r3, [r7, #44]
 416 00da 002B     		cmp	r3, #0
 417 00dc 0DD0     		beq	.L26
 342:Middlewares/Third_Party/FreeRTOS/Source/queue.c **** 		{
 343:Middlewares/Third_Party/FreeRTOS/Source/queue.c **** 			#if( configSUPPORT_DYNAMIC_ALLOCATION == 1 )
ARM GAS  C:\Users\jisu8\AppData\Local\Temp\cc12CyhQ.s 			page 18


 344:Middlewares/Third_Party/FreeRTOS/Source/queue.c **** 			{
 345:Middlewares/Third_Party/FreeRTOS/Source/queue.c **** 				/* Queues can be allocated wither statically or dynamically, so
 346:Middlewares/Third_Party/FreeRTOS/Source/queue.c **** 				note this queue was allocated statically in case the queue is
 347:Middlewares/Third_Party/FreeRTOS/Source/queue.c **** 				later deleted. */
 348:Middlewares/Third_Party/FreeRTOS/Source/queue.c **** 				pxNewQueue->ucStaticallyAllocated = pdTRUE;
 418              		.loc 1 348 39
 419 00de FB6A     		ldr	r3, [r7, #44]
 420 00e0 0122     		movs	r2, #1
 421 00e2 83F84620 		strb	r2, [r3, #70]
 349:Middlewares/Third_Party/FreeRTOS/Source/queue.c **** 			}
 350:Middlewares/Third_Party/FreeRTOS/Source/queue.c **** 			#endif /* configSUPPORT_DYNAMIC_ALLOCATION */
 351:Middlewares/Third_Party/FreeRTOS/Source/queue.c **** 
 352:Middlewares/Third_Party/FreeRTOS/Source/queue.c **** 			prvInitialiseNewQueue( uxQueueLength, uxItemSize, pucQueueStorage, ucQueueType, pxNewQueue );
 422              		.loc 1 352 4
 423 00e6 97F83820 		ldrb	r2, [r7, #56]	@ zero_extendqisi2
 424 00ea FB6A     		ldr	r3, [r7, #44]
 425 00ec 0093     		str	r3, [sp]
 426 00ee 1346     		mov	r3, r2
 427 00f0 7A68     		ldr	r2, [r7, #4]
 428 00f2 B968     		ldr	r1, [r7, #8]
 429 00f4 F868     		ldr	r0, [r7, #12]
 430 00f6 FFF7FEFF 		bl	prvInitialiseNewQueue
 431              	.L26:
 353:Middlewares/Third_Party/FreeRTOS/Source/queue.c **** 		}
 354:Middlewares/Third_Party/FreeRTOS/Source/queue.c **** 		else
 355:Middlewares/Third_Party/FreeRTOS/Source/queue.c **** 		{
 356:Middlewares/Third_Party/FreeRTOS/Source/queue.c **** 			traceQUEUE_CREATE_FAILED( ucQueueType );
 357:Middlewares/Third_Party/FreeRTOS/Source/queue.c **** 			mtCOVERAGE_TEST_MARKER();
 358:Middlewares/Third_Party/FreeRTOS/Source/queue.c **** 		}
 359:Middlewares/Third_Party/FreeRTOS/Source/queue.c **** 
 360:Middlewares/Third_Party/FreeRTOS/Source/queue.c **** 		return pxNewQueue;
 432              		.loc 1 360 10
 433 00fa FB6A     		ldr	r3, [r7, #44]
 361:Middlewares/Third_Party/FreeRTOS/Source/queue.c **** 	}
 434              		.loc 1 361 2
 435 00fc 1846     		mov	r0, r3
 436 00fe 3037     		adds	r7, r7, #48
 437              	.LCFI8:
 438              		.cfi_def_cfa_offset 8
 439 0100 BD46     		mov	sp, r7
 440              	.LCFI9:
 441              		.cfi_def_cfa_register 13
 442              		@ sp needed
 443 0102 80BD     		pop	{r7, pc}
 444              		.cfi_endproc
 445              	.LFE6:
 447              		.section	.text.xQueueGenericCreate,"ax",%progbits
 448              		.align	1
 449              		.global	xQueueGenericCreate
 450              		.syntax unified
 451              		.thumb
 452              		.thumb_func
 454              	xQueueGenericCreate:
 455              	.LFB7:
 362:Middlewares/Third_Party/FreeRTOS/Source/queue.c **** 
 363:Middlewares/Third_Party/FreeRTOS/Source/queue.c **** #endif /* configSUPPORT_STATIC_ALLOCATION */
 364:Middlewares/Third_Party/FreeRTOS/Source/queue.c **** /*-----------------------------------------------------------*/
ARM GAS  C:\Users\jisu8\AppData\Local\Temp\cc12CyhQ.s 			page 19


 365:Middlewares/Third_Party/FreeRTOS/Source/queue.c **** 
 366:Middlewares/Third_Party/FreeRTOS/Source/queue.c **** #if( configSUPPORT_DYNAMIC_ALLOCATION == 1 )
 367:Middlewares/Third_Party/FreeRTOS/Source/queue.c **** 
 368:Middlewares/Third_Party/FreeRTOS/Source/queue.c **** 	QueueHandle_t xQueueGenericCreate( const UBaseType_t uxQueueLength, const UBaseType_t uxItemSize, 
 369:Middlewares/Third_Party/FreeRTOS/Source/queue.c **** 	{
 456              		.loc 1 369 2
 457              		.cfi_startproc
 458              		@ args = 0, pretend = 0, frame = 32
 459              		@ frame_needed = 1, uses_anonymous_args = 0
 460 0000 80B5     		push	{r7, lr}
 461              	.LCFI10:
 462              		.cfi_def_cfa_offset 8
 463              		.cfi_offset 7, -8
 464              		.cfi_offset 14, -4
 465 0002 8AB0     		sub	sp, sp, #40
 466              	.LCFI11:
 467              		.cfi_def_cfa_offset 48
 468 0004 02AF     		add	r7, sp, #8
 469              	.LCFI12:
 470              		.cfi_def_cfa 7, 40
 471 0006 F860     		str	r0, [r7, #12]
 472 0008 B960     		str	r1, [r7, #8]
 473 000a 1346     		mov	r3, r2
 474 000c FB71     		strb	r3, [r7, #7]
 370:Middlewares/Third_Party/FreeRTOS/Source/queue.c **** 	Queue_t *pxNewQueue;
 371:Middlewares/Third_Party/FreeRTOS/Source/queue.c **** 	size_t xQueueSizeInBytes;
 372:Middlewares/Third_Party/FreeRTOS/Source/queue.c **** 	uint8_t *pucQueueStorage;
 373:Middlewares/Third_Party/FreeRTOS/Source/queue.c **** 
 374:Middlewares/Third_Party/FreeRTOS/Source/queue.c **** 		configASSERT( uxQueueLength > ( UBaseType_t ) 0 );
 475              		.loc 1 374 3
 476 000e FB68     		ldr	r3, [r7, #12]
 477 0010 002B     		cmp	r3, #0
 478 0012 0CD1     		bne	.L29
 479              	.LBB129:
 480              	.LBB130:
 195:Middlewares/Third_Party/FreeRTOS/Source/portable/GCC/ARM_CM7/r0p1/portmacro.h **** 	(
 481              		.loc 2 195 2
 482              		.syntax unified
 483              	@ 195 "Middlewares/Third_Party/FreeRTOS/Source/portable/GCC/ARM_CM7/r0p1/portmacro.h" 1
 484 0014 4FF05003 			mov r3, #80												
 485 0018 72B6     		cpsid i													
 486 001a 83F31188 		msr basepri, r3											
 487 001e BFF36F8F 		isb														
 488 0022 BFF34F8F 		dsb														
 489 0026 62B6     		cpsie i													
 490              	
 491              	@ 0 "" 2
 492              		.thumb
 493              		.syntax unified
 494 0028 3B61     		str	r3, [r7, #16]
 495              		.loc 2 205 1
 496 002a 00BF     		nop
 497              	.L30:
 498              	.LBE130:
 499              	.LBE129:
 500              		.loc 1 374 3 discriminator 1
 501 002c FEE7     		b	.L30
ARM GAS  C:\Users\jisu8\AppData\Local\Temp\cc12CyhQ.s 			page 20


 502              	.L29:
 375:Middlewares/Third_Party/FreeRTOS/Source/queue.c **** 
 376:Middlewares/Third_Party/FreeRTOS/Source/queue.c **** 		if( uxItemSize == ( UBaseType_t ) 0 )
 503              		.loc 1 376 5
 504 002e BB68     		ldr	r3, [r7, #8]
 505 0030 002B     		cmp	r3, #0
 506 0032 02D1     		bne	.L31
 377:Middlewares/Third_Party/FreeRTOS/Source/queue.c **** 		{
 378:Middlewares/Third_Party/FreeRTOS/Source/queue.c **** 			/* There is not going to be a queue storage area. */
 379:Middlewares/Third_Party/FreeRTOS/Source/queue.c **** 			xQueueSizeInBytes = ( size_t ) 0;
 507              		.loc 1 379 22
 508 0034 0023     		movs	r3, #0
 509 0036 FB61     		str	r3, [r7, #28]
 510 0038 04E0     		b	.L32
 511              	.L31:
 380:Middlewares/Third_Party/FreeRTOS/Source/queue.c **** 		}
 381:Middlewares/Third_Party/FreeRTOS/Source/queue.c **** 		else
 382:Middlewares/Third_Party/FreeRTOS/Source/queue.c **** 		{
 383:Middlewares/Third_Party/FreeRTOS/Source/queue.c **** 			/* Allocate enough space to hold the maximum number of items that
 384:Middlewares/Third_Party/FreeRTOS/Source/queue.c **** 			can be in the queue at any time. */
 385:Middlewares/Third_Party/FreeRTOS/Source/queue.c **** 			xQueueSizeInBytes = ( size_t ) ( uxQueueLength * uxItemSize ); /*lint !e961 MISRA exception as t
 512              		.loc 1 385 22
 513 003a FB68     		ldr	r3, [r7, #12]
 514 003c BA68     		ldr	r2, [r7, #8]
 515 003e 02FB03F3 		mul	r3, r2, r3
 516 0042 FB61     		str	r3, [r7, #28]
 517              	.L32:
 386:Middlewares/Third_Party/FreeRTOS/Source/queue.c **** 		}
 387:Middlewares/Third_Party/FreeRTOS/Source/queue.c **** 
 388:Middlewares/Third_Party/FreeRTOS/Source/queue.c **** 		/* Allocate the queue and storage area.  Justification for MISRA
 389:Middlewares/Third_Party/FreeRTOS/Source/queue.c **** 		deviation as follows:  pvPortMalloc() always ensures returned memory
 390:Middlewares/Third_Party/FreeRTOS/Source/queue.c **** 		blocks are aligned per the requirements of the MCU stack.  In this case
 391:Middlewares/Third_Party/FreeRTOS/Source/queue.c **** 		pvPortMalloc() must return a pointer that is guaranteed to meet the
 392:Middlewares/Third_Party/FreeRTOS/Source/queue.c **** 		alignment requirements of the Queue_t structure - which in this case
 393:Middlewares/Third_Party/FreeRTOS/Source/queue.c **** 		is an int8_t *.  Therefore, whenever the stack alignment requirements
 394:Middlewares/Third_Party/FreeRTOS/Source/queue.c **** 		are greater than or equal to the pointer to char requirements the cast
 395:Middlewares/Third_Party/FreeRTOS/Source/queue.c **** 		is safe.  In other cases alignment requirements are not strict (one or
 396:Middlewares/Third_Party/FreeRTOS/Source/queue.c **** 		two bytes). */
 397:Middlewares/Third_Party/FreeRTOS/Source/queue.c **** 		pxNewQueue = ( Queue_t * ) pvPortMalloc( sizeof( Queue_t ) + xQueueSizeInBytes ); /*lint !e9087 !
 518              		.loc 1 397 30
 519 0044 FB69     		ldr	r3, [r7, #28]
 520 0046 4833     		adds	r3, r3, #72
 521 0048 1846     		mov	r0, r3
 522 004a FFF7FEFF 		bl	pvPortMalloc
 523 004e B861     		str	r0, [r7, #24]
 398:Middlewares/Third_Party/FreeRTOS/Source/queue.c **** 
 399:Middlewares/Third_Party/FreeRTOS/Source/queue.c **** 		if( pxNewQueue != NULL )
 524              		.loc 1 399 5
 525 0050 BB69     		ldr	r3, [r7, #24]
 526 0052 002B     		cmp	r3, #0
 527 0054 11D0     		beq	.L33
 400:Middlewares/Third_Party/FreeRTOS/Source/queue.c **** 		{
 401:Middlewares/Third_Party/FreeRTOS/Source/queue.c **** 			/* Jump past the queue structure to find the location of the queue
 402:Middlewares/Third_Party/FreeRTOS/Source/queue.c **** 			storage area. */
 403:Middlewares/Third_Party/FreeRTOS/Source/queue.c **** 			pucQueueStorage = ( uint8_t * ) pxNewQueue;
 528              		.loc 1 403 20
 529 0056 BB69     		ldr	r3, [r7, #24]
ARM GAS  C:\Users\jisu8\AppData\Local\Temp\cc12CyhQ.s 			page 21


 530 0058 7B61     		str	r3, [r7, #20]
 404:Middlewares/Third_Party/FreeRTOS/Source/queue.c **** 			pucQueueStorage += sizeof( Queue_t ); /*lint !e9016 Pointer arithmetic allowed on char types, es
 531              		.loc 1 404 20
 532 005a 7B69     		ldr	r3, [r7, #20]
 533 005c 4833     		adds	r3, r3, #72
 534 005e 7B61     		str	r3, [r7, #20]
 405:Middlewares/Third_Party/FreeRTOS/Source/queue.c **** 
 406:Middlewares/Third_Party/FreeRTOS/Source/queue.c **** 			#if( configSUPPORT_STATIC_ALLOCATION == 1 )
 407:Middlewares/Third_Party/FreeRTOS/Source/queue.c **** 			{
 408:Middlewares/Third_Party/FreeRTOS/Source/queue.c **** 				/* Queues can be created either statically or dynamically, so
 409:Middlewares/Third_Party/FreeRTOS/Source/queue.c **** 				note this task was created dynamically in case it is later
 410:Middlewares/Third_Party/FreeRTOS/Source/queue.c **** 				deleted. */
 411:Middlewares/Third_Party/FreeRTOS/Source/queue.c **** 				pxNewQueue->ucStaticallyAllocated = pdFALSE;
 535              		.loc 1 411 39
 536 0060 BB69     		ldr	r3, [r7, #24]
 537 0062 0022     		movs	r2, #0
 538 0064 83F84620 		strb	r2, [r3, #70]
 412:Middlewares/Third_Party/FreeRTOS/Source/queue.c **** 			}
 413:Middlewares/Third_Party/FreeRTOS/Source/queue.c **** 			#endif /* configSUPPORT_STATIC_ALLOCATION */
 414:Middlewares/Third_Party/FreeRTOS/Source/queue.c **** 
 415:Middlewares/Third_Party/FreeRTOS/Source/queue.c **** 			prvInitialiseNewQueue( uxQueueLength, uxItemSize, pucQueueStorage, ucQueueType, pxNewQueue );
 539              		.loc 1 415 4
 540 0068 FA79     		ldrb	r2, [r7, #7]	@ zero_extendqisi2
 541 006a BB69     		ldr	r3, [r7, #24]
 542 006c 0093     		str	r3, [sp]
 543 006e 1346     		mov	r3, r2
 544 0070 7A69     		ldr	r2, [r7, #20]
 545 0072 B968     		ldr	r1, [r7, #8]
 546 0074 F868     		ldr	r0, [r7, #12]
 547 0076 FFF7FEFF 		bl	prvInitialiseNewQueue
 548              	.L33:
 416:Middlewares/Third_Party/FreeRTOS/Source/queue.c **** 		}
 417:Middlewares/Third_Party/FreeRTOS/Source/queue.c **** 		else
 418:Middlewares/Third_Party/FreeRTOS/Source/queue.c **** 		{
 419:Middlewares/Third_Party/FreeRTOS/Source/queue.c **** 			traceQUEUE_CREATE_FAILED( ucQueueType );
 420:Middlewares/Third_Party/FreeRTOS/Source/queue.c **** 			mtCOVERAGE_TEST_MARKER();
 421:Middlewares/Third_Party/FreeRTOS/Source/queue.c **** 		}
 422:Middlewares/Third_Party/FreeRTOS/Source/queue.c **** 
 423:Middlewares/Third_Party/FreeRTOS/Source/queue.c **** 		return pxNewQueue;
 549              		.loc 1 423 10
 550 007a BB69     		ldr	r3, [r7, #24]
 424:Middlewares/Third_Party/FreeRTOS/Source/queue.c **** 	}
 551              		.loc 1 424 2
 552 007c 1846     		mov	r0, r3
 553 007e 2037     		adds	r7, r7, #32
 554              	.LCFI13:
 555              		.cfi_def_cfa_offset 8
 556 0080 BD46     		mov	sp, r7
 557              	.LCFI14:
 558              		.cfi_def_cfa_register 13
 559              		@ sp needed
 560 0082 80BD     		pop	{r7, pc}
 561              		.cfi_endproc
 562              	.LFE7:
 564              		.section	.text.prvInitialiseNewQueue,"ax",%progbits
 565              		.align	1
 566              		.syntax unified
ARM GAS  C:\Users\jisu8\AppData\Local\Temp\cc12CyhQ.s 			page 22


 567              		.thumb
 568              		.thumb_func
 570              	prvInitialiseNewQueue:
 571              	.LFB8:
 425:Middlewares/Third_Party/FreeRTOS/Source/queue.c **** 
 426:Middlewares/Third_Party/FreeRTOS/Source/queue.c **** #endif /* configSUPPORT_STATIC_ALLOCATION */
 427:Middlewares/Third_Party/FreeRTOS/Source/queue.c **** /*-----------------------------------------------------------*/
 428:Middlewares/Third_Party/FreeRTOS/Source/queue.c **** 
 429:Middlewares/Third_Party/FreeRTOS/Source/queue.c **** static void prvInitialiseNewQueue( const UBaseType_t uxQueueLength, const UBaseType_t uxItemSize, u
 430:Middlewares/Third_Party/FreeRTOS/Source/queue.c **** {
 572              		.loc 1 430 1
 573              		.cfi_startproc
 574              		@ args = 4, pretend = 0, frame = 16
 575              		@ frame_needed = 1, uses_anonymous_args = 0
 576 0000 80B5     		push	{r7, lr}
 577              	.LCFI15:
 578              		.cfi_def_cfa_offset 8
 579              		.cfi_offset 7, -8
 580              		.cfi_offset 14, -4
 581 0002 84B0     		sub	sp, sp, #16
 582              	.LCFI16:
 583              		.cfi_def_cfa_offset 24
 584 0004 00AF     		add	r7, sp, #0
 585              	.LCFI17:
 586              		.cfi_def_cfa_register 7
 587 0006 F860     		str	r0, [r7, #12]
 588 0008 B960     		str	r1, [r7, #8]
 589 000a 7A60     		str	r2, [r7, #4]
 590 000c FB70     		strb	r3, [r7, #3]
 431:Middlewares/Third_Party/FreeRTOS/Source/queue.c **** 	/* Remove compiler warnings about unused parameters should
 432:Middlewares/Third_Party/FreeRTOS/Source/queue.c **** 	configUSE_TRACE_FACILITY not be set to 1. */
 433:Middlewares/Third_Party/FreeRTOS/Source/queue.c **** 	( void ) ucQueueType;
 434:Middlewares/Third_Party/FreeRTOS/Source/queue.c **** 
 435:Middlewares/Third_Party/FreeRTOS/Source/queue.c **** 	if( uxItemSize == ( UBaseType_t ) 0 )
 591              		.loc 1 435 4
 592 000e BB68     		ldr	r3, [r7, #8]
 593 0010 002B     		cmp	r3, #0
 594 0012 03D1     		bne	.L36
 436:Middlewares/Third_Party/FreeRTOS/Source/queue.c **** 	{
 437:Middlewares/Third_Party/FreeRTOS/Source/queue.c **** 		/* No RAM was allocated for the queue storage area, but PC head cannot
 438:Middlewares/Third_Party/FreeRTOS/Source/queue.c **** 		be set to NULL because NULL is used as a key to say the queue is used as
 439:Middlewares/Third_Party/FreeRTOS/Source/queue.c **** 		a mutex.  Therefore just set pcHead to point to the queue as a benign
 440:Middlewares/Third_Party/FreeRTOS/Source/queue.c **** 		value that is known to be within the memory map. */
 441:Middlewares/Third_Party/FreeRTOS/Source/queue.c **** 		pxNewQueue->pcHead = ( int8_t * ) pxNewQueue;
 595              		.loc 1 441 22
 596 0014 BB69     		ldr	r3, [r7, #24]
 597 0016 BA69     		ldr	r2, [r7, #24]
 598 0018 1A60     		str	r2, [r3]
 599 001a 02E0     		b	.L37
 600              	.L36:
 442:Middlewares/Third_Party/FreeRTOS/Source/queue.c **** 	}
 443:Middlewares/Third_Party/FreeRTOS/Source/queue.c **** 	else
 444:Middlewares/Third_Party/FreeRTOS/Source/queue.c **** 	{
 445:Middlewares/Third_Party/FreeRTOS/Source/queue.c **** 		/* Set the head to the start of the queue storage area. */
 446:Middlewares/Third_Party/FreeRTOS/Source/queue.c **** 		pxNewQueue->pcHead = ( int8_t * ) pucQueueStorage;
 601              		.loc 1 446 22
 602 001c BB69     		ldr	r3, [r7, #24]
ARM GAS  C:\Users\jisu8\AppData\Local\Temp\cc12CyhQ.s 			page 23


 603 001e 7A68     		ldr	r2, [r7, #4]
 604 0020 1A60     		str	r2, [r3]
 605              	.L37:
 447:Middlewares/Third_Party/FreeRTOS/Source/queue.c **** 	}
 448:Middlewares/Third_Party/FreeRTOS/Source/queue.c **** 
 449:Middlewares/Third_Party/FreeRTOS/Source/queue.c **** 	/* Initialise the queue members as described where the queue type is
 450:Middlewares/Third_Party/FreeRTOS/Source/queue.c **** 	defined. */
 451:Middlewares/Third_Party/FreeRTOS/Source/queue.c **** 	pxNewQueue->uxLength = uxQueueLength;
 606              		.loc 1 451 23
 607 0022 BB69     		ldr	r3, [r7, #24]
 608 0024 FA68     		ldr	r2, [r7, #12]
 609 0026 DA63     		str	r2, [r3, #60]
 452:Middlewares/Third_Party/FreeRTOS/Source/queue.c **** 	pxNewQueue->uxItemSize = uxItemSize;
 610              		.loc 1 452 25
 611 0028 BB69     		ldr	r3, [r7, #24]
 612 002a BA68     		ldr	r2, [r7, #8]
 613 002c 1A64     		str	r2, [r3, #64]
 453:Middlewares/Third_Party/FreeRTOS/Source/queue.c **** 	( void ) xQueueGenericReset( pxNewQueue, pdTRUE );
 614              		.loc 1 453 11
 615 002e 0121     		movs	r1, #1
 616 0030 B869     		ldr	r0, [r7, #24]
 617 0032 FFF7FEFF 		bl	xQueueGenericReset
 454:Middlewares/Third_Party/FreeRTOS/Source/queue.c **** 
 455:Middlewares/Third_Party/FreeRTOS/Source/queue.c **** 	#if ( configUSE_TRACE_FACILITY == 1 )
 456:Middlewares/Third_Party/FreeRTOS/Source/queue.c **** 	{
 457:Middlewares/Third_Party/FreeRTOS/Source/queue.c **** 		pxNewQueue->ucQueueType = ucQueueType;
 458:Middlewares/Third_Party/FreeRTOS/Source/queue.c **** 	}
 459:Middlewares/Third_Party/FreeRTOS/Source/queue.c **** 	#endif /* configUSE_TRACE_FACILITY */
 460:Middlewares/Third_Party/FreeRTOS/Source/queue.c **** 
 461:Middlewares/Third_Party/FreeRTOS/Source/queue.c **** 	#if( configUSE_QUEUE_SETS == 1 )
 462:Middlewares/Third_Party/FreeRTOS/Source/queue.c **** 	{
 463:Middlewares/Third_Party/FreeRTOS/Source/queue.c **** 		pxNewQueue->pxQueueSetContainer = NULL;
 464:Middlewares/Third_Party/FreeRTOS/Source/queue.c **** 	}
 465:Middlewares/Third_Party/FreeRTOS/Source/queue.c **** 	#endif /* configUSE_QUEUE_SETS */
 466:Middlewares/Third_Party/FreeRTOS/Source/queue.c **** 
 467:Middlewares/Third_Party/FreeRTOS/Source/queue.c **** 	traceQUEUE_CREATE( pxNewQueue );
 468:Middlewares/Third_Party/FreeRTOS/Source/queue.c **** }
 618              		.loc 1 468 1
 619 0036 00BF     		nop
 620 0038 1037     		adds	r7, r7, #16
 621              	.LCFI18:
 622              		.cfi_def_cfa_offset 8
 623 003a BD46     		mov	sp, r7
 624              	.LCFI19:
 625              		.cfi_def_cfa_register 13
 626              		@ sp needed
 627 003c 80BD     		pop	{r7, pc}
 628              		.cfi_endproc
 629              	.LFE8:
 631              		.section	.text.prvInitialiseMutex,"ax",%progbits
 632              		.align	1
 633              		.syntax unified
 634              		.thumb
 635              		.thumb_func
 637              	prvInitialiseMutex:
 638              	.LFB9:
 469:Middlewares/Third_Party/FreeRTOS/Source/queue.c **** /*-----------------------------------------------------------*/
ARM GAS  C:\Users\jisu8\AppData\Local\Temp\cc12CyhQ.s 			page 24


 470:Middlewares/Third_Party/FreeRTOS/Source/queue.c **** 
 471:Middlewares/Third_Party/FreeRTOS/Source/queue.c **** #if( configUSE_MUTEXES == 1 )
 472:Middlewares/Third_Party/FreeRTOS/Source/queue.c **** 
 473:Middlewares/Third_Party/FreeRTOS/Source/queue.c **** 	static void prvInitialiseMutex( Queue_t *pxNewQueue )
 474:Middlewares/Third_Party/FreeRTOS/Source/queue.c **** 	{
 639              		.loc 1 474 2
 640              		.cfi_startproc
 641              		@ args = 0, pretend = 0, frame = 8
 642              		@ frame_needed = 1, uses_anonymous_args = 0
 643 0000 80B5     		push	{r7, lr}
 644              	.LCFI20:
 645              		.cfi_def_cfa_offset 8
 646              		.cfi_offset 7, -8
 647              		.cfi_offset 14, -4
 648 0002 82B0     		sub	sp, sp, #8
 649              	.LCFI21:
 650              		.cfi_def_cfa_offset 16
 651 0004 00AF     		add	r7, sp, #0
 652              	.LCFI22:
 653              		.cfi_def_cfa_register 7
 654 0006 7860     		str	r0, [r7, #4]
 475:Middlewares/Third_Party/FreeRTOS/Source/queue.c **** 		if( pxNewQueue != NULL )
 655              		.loc 1 475 5
 656 0008 7B68     		ldr	r3, [r7, #4]
 657 000a 002B     		cmp	r3, #0
 658 000c 0ED0     		beq	.L40
 476:Middlewares/Third_Party/FreeRTOS/Source/queue.c **** 		{
 477:Middlewares/Third_Party/FreeRTOS/Source/queue.c **** 			/* The queue create function will set all the queue structure members
 478:Middlewares/Third_Party/FreeRTOS/Source/queue.c **** 			correctly for a generic queue, but this function is creating a
 479:Middlewares/Third_Party/FreeRTOS/Source/queue.c **** 			mutex.  Overwrite those members that need to be set differently -
 480:Middlewares/Third_Party/FreeRTOS/Source/queue.c **** 			in particular the information required for priority inheritance. */
 481:Middlewares/Third_Party/FreeRTOS/Source/queue.c **** 			pxNewQueue->u.xSemaphore.xMutexHolder = NULL;
 659              		.loc 1 481 42
 660 000e 7B68     		ldr	r3, [r7, #4]
 661 0010 0022     		movs	r2, #0
 662 0012 9A60     		str	r2, [r3, #8]
 482:Middlewares/Third_Party/FreeRTOS/Source/queue.c **** 			pxNewQueue->uxQueueType = queueQUEUE_IS_MUTEX;
 663              		.loc 1 482 28
 664 0014 7B68     		ldr	r3, [r7, #4]
 665 0016 0022     		movs	r2, #0
 666 0018 1A60     		str	r2, [r3]
 483:Middlewares/Third_Party/FreeRTOS/Source/queue.c **** 
 484:Middlewares/Third_Party/FreeRTOS/Source/queue.c **** 			/* In case this is a recursive mutex. */
 485:Middlewares/Third_Party/FreeRTOS/Source/queue.c **** 			pxNewQueue->u.xSemaphore.uxRecursiveCallCount = 0;
 667              		.loc 1 485 50
 668 001a 7B68     		ldr	r3, [r7, #4]
 669 001c 0022     		movs	r2, #0
 670 001e DA60     		str	r2, [r3, #12]
 486:Middlewares/Third_Party/FreeRTOS/Source/queue.c **** 
 487:Middlewares/Third_Party/FreeRTOS/Source/queue.c **** 			traceCREATE_MUTEX( pxNewQueue );
 488:Middlewares/Third_Party/FreeRTOS/Source/queue.c **** 
 489:Middlewares/Third_Party/FreeRTOS/Source/queue.c **** 			/* Start with the semaphore in the expected state. */
 490:Middlewares/Third_Party/FreeRTOS/Source/queue.c **** 			( void ) xQueueGenericSend( pxNewQueue, NULL, ( TickType_t ) 0U, queueSEND_TO_BACK );
 671              		.loc 1 490 13
 672 0020 0023     		movs	r3, #0
 673 0022 0022     		movs	r2, #0
 674 0024 0021     		movs	r1, #0
ARM GAS  C:\Users\jisu8\AppData\Local\Temp\cc12CyhQ.s 			page 25


 675 0026 7868     		ldr	r0, [r7, #4]
 676 0028 FFF7FEFF 		bl	xQueueGenericSend
 677              	.L40:
 491:Middlewares/Third_Party/FreeRTOS/Source/queue.c **** 		}
 492:Middlewares/Third_Party/FreeRTOS/Source/queue.c **** 		else
 493:Middlewares/Third_Party/FreeRTOS/Source/queue.c **** 		{
 494:Middlewares/Third_Party/FreeRTOS/Source/queue.c **** 			traceCREATE_MUTEX_FAILED();
 495:Middlewares/Third_Party/FreeRTOS/Source/queue.c **** 		}
 496:Middlewares/Third_Party/FreeRTOS/Source/queue.c **** 	}
 678              		.loc 1 496 2
 679 002c 00BF     		nop
 680 002e 0837     		adds	r7, r7, #8
 681              	.LCFI23:
 682              		.cfi_def_cfa_offset 8
 683 0030 BD46     		mov	sp, r7
 684              	.LCFI24:
 685              		.cfi_def_cfa_register 13
 686              		@ sp needed
 687 0032 80BD     		pop	{r7, pc}
 688              		.cfi_endproc
 689              	.LFE9:
 691              		.section	.text.xQueueCreateMutex,"ax",%progbits
 692              		.align	1
 693              		.global	xQueueCreateMutex
 694              		.syntax unified
 695              		.thumb
 696              		.thumb_func
 698              	xQueueCreateMutex:
 699              	.LFB10:
 497:Middlewares/Third_Party/FreeRTOS/Source/queue.c **** 
 498:Middlewares/Third_Party/FreeRTOS/Source/queue.c **** #endif /* configUSE_MUTEXES */
 499:Middlewares/Third_Party/FreeRTOS/Source/queue.c **** /*-----------------------------------------------------------*/
 500:Middlewares/Third_Party/FreeRTOS/Source/queue.c **** 
 501:Middlewares/Third_Party/FreeRTOS/Source/queue.c **** #if( ( configUSE_MUTEXES == 1 ) && ( configSUPPORT_DYNAMIC_ALLOCATION == 1 ) )
 502:Middlewares/Third_Party/FreeRTOS/Source/queue.c **** 
 503:Middlewares/Third_Party/FreeRTOS/Source/queue.c **** 	QueueHandle_t xQueueCreateMutex( const uint8_t ucQueueType )
 504:Middlewares/Third_Party/FreeRTOS/Source/queue.c **** 	{
 700              		.loc 1 504 2
 701              		.cfi_startproc
 702              		@ args = 0, pretend = 0, frame = 24
 703              		@ frame_needed = 1, uses_anonymous_args = 0
 704 0000 80B5     		push	{r7, lr}
 705              	.LCFI25:
 706              		.cfi_def_cfa_offset 8
 707              		.cfi_offset 7, -8
 708              		.cfi_offset 14, -4
 709 0002 86B0     		sub	sp, sp, #24
 710              	.LCFI26:
 711              		.cfi_def_cfa_offset 32
 712 0004 00AF     		add	r7, sp, #0
 713              	.LCFI27:
 714              		.cfi_def_cfa_register 7
 715 0006 0346     		mov	r3, r0
 716 0008 FB71     		strb	r3, [r7, #7]
 505:Middlewares/Third_Party/FreeRTOS/Source/queue.c **** 	QueueHandle_t xNewQueue;
 506:Middlewares/Third_Party/FreeRTOS/Source/queue.c **** 	const UBaseType_t uxMutexLength = ( UBaseType_t ) 1, uxMutexSize = ( UBaseType_t ) 0;
 717              		.loc 1 506 20
ARM GAS  C:\Users\jisu8\AppData\Local\Temp\cc12CyhQ.s 			page 26


 718 000a 0123     		movs	r3, #1
 719 000c 7B61     		str	r3, [r7, #20]
 720              		.loc 1 506 55
 721 000e 0023     		movs	r3, #0
 722 0010 3B61     		str	r3, [r7, #16]
 507:Middlewares/Third_Party/FreeRTOS/Source/queue.c **** 
 508:Middlewares/Third_Party/FreeRTOS/Source/queue.c **** 		xNewQueue = xQueueGenericCreate( uxMutexLength, uxMutexSize, ucQueueType );
 723              		.loc 1 508 15
 724 0012 FB79     		ldrb	r3, [r7, #7]	@ zero_extendqisi2
 725 0014 1A46     		mov	r2, r3
 726 0016 3969     		ldr	r1, [r7, #16]
 727 0018 7869     		ldr	r0, [r7, #20]
 728 001a FFF7FEFF 		bl	xQueueGenericCreate
 729 001e F860     		str	r0, [r7, #12]
 509:Middlewares/Third_Party/FreeRTOS/Source/queue.c **** 		prvInitialiseMutex( ( Queue_t * ) xNewQueue );
 730              		.loc 1 509 3
 731 0020 F868     		ldr	r0, [r7, #12]
 732 0022 FFF7FEFF 		bl	prvInitialiseMutex
 510:Middlewares/Third_Party/FreeRTOS/Source/queue.c **** 
 511:Middlewares/Third_Party/FreeRTOS/Source/queue.c **** 		return xNewQueue;
 733              		.loc 1 511 10
 734 0026 FB68     		ldr	r3, [r7, #12]
 512:Middlewares/Third_Party/FreeRTOS/Source/queue.c **** 	}
 735              		.loc 1 512 2
 736 0028 1846     		mov	r0, r3
 737 002a 1837     		adds	r7, r7, #24
 738              	.LCFI28:
 739              		.cfi_def_cfa_offset 8
 740 002c BD46     		mov	sp, r7
 741              	.LCFI29:
 742              		.cfi_def_cfa_register 13
 743              		@ sp needed
 744 002e 80BD     		pop	{r7, pc}
 745              		.cfi_endproc
 746              	.LFE10:
 748              		.section	.text.xQueueCreateMutexStatic,"ax",%progbits
 749              		.align	1
 750              		.global	xQueueCreateMutexStatic
 751              		.syntax unified
 752              		.thumb
 753              		.thumb_func
 755              	xQueueCreateMutexStatic:
 756              	.LFB11:
 513:Middlewares/Third_Party/FreeRTOS/Source/queue.c **** 
 514:Middlewares/Third_Party/FreeRTOS/Source/queue.c **** #endif /* configUSE_MUTEXES */
 515:Middlewares/Third_Party/FreeRTOS/Source/queue.c **** /*-----------------------------------------------------------*/
 516:Middlewares/Third_Party/FreeRTOS/Source/queue.c **** 
 517:Middlewares/Third_Party/FreeRTOS/Source/queue.c **** #if( ( configUSE_MUTEXES == 1 ) && ( configSUPPORT_STATIC_ALLOCATION == 1 ) )
 518:Middlewares/Third_Party/FreeRTOS/Source/queue.c **** 
 519:Middlewares/Third_Party/FreeRTOS/Source/queue.c **** 	QueueHandle_t xQueueCreateMutexStatic( const uint8_t ucQueueType, StaticQueue_t *pxStaticQueue )
 520:Middlewares/Third_Party/FreeRTOS/Source/queue.c **** 	{
 757              		.loc 1 520 2
 758              		.cfi_startproc
 759              		@ args = 0, pretend = 0, frame = 24
 760              		@ frame_needed = 1, uses_anonymous_args = 0
 761 0000 80B5     		push	{r7, lr}
 762              	.LCFI30:
ARM GAS  C:\Users\jisu8\AppData\Local\Temp\cc12CyhQ.s 			page 27


 763              		.cfi_def_cfa_offset 8
 764              		.cfi_offset 7, -8
 765              		.cfi_offset 14, -4
 766 0002 88B0     		sub	sp, sp, #32
 767              	.LCFI31:
 768              		.cfi_def_cfa_offset 40
 769 0004 02AF     		add	r7, sp, #8
 770              	.LCFI32:
 771              		.cfi_def_cfa 7, 32
 772 0006 0346     		mov	r3, r0
 773 0008 3960     		str	r1, [r7]
 774 000a FB71     		strb	r3, [r7, #7]
 521:Middlewares/Third_Party/FreeRTOS/Source/queue.c **** 	QueueHandle_t xNewQueue;
 522:Middlewares/Third_Party/FreeRTOS/Source/queue.c **** 	const UBaseType_t uxMutexLength = ( UBaseType_t ) 1, uxMutexSize = ( UBaseType_t ) 0;
 775              		.loc 1 522 20
 776 000c 0123     		movs	r3, #1
 777 000e 7B61     		str	r3, [r7, #20]
 778              		.loc 1 522 55
 779 0010 0023     		movs	r3, #0
 780 0012 3B61     		str	r3, [r7, #16]
 523:Middlewares/Third_Party/FreeRTOS/Source/queue.c **** 
 524:Middlewares/Third_Party/FreeRTOS/Source/queue.c **** 		/* Prevent compiler warnings about unused parameters if
 525:Middlewares/Third_Party/FreeRTOS/Source/queue.c **** 		configUSE_TRACE_FACILITY does not equal 1. */
 526:Middlewares/Third_Party/FreeRTOS/Source/queue.c **** 		( void ) ucQueueType;
 527:Middlewares/Third_Party/FreeRTOS/Source/queue.c **** 
 528:Middlewares/Third_Party/FreeRTOS/Source/queue.c **** 		xNewQueue = xQueueGenericCreateStatic( uxMutexLength, uxMutexSize, NULL, pxStaticQueue, ucQueueTy
 781              		.loc 1 528 15
 782 0014 FB79     		ldrb	r3, [r7, #7]	@ zero_extendqisi2
 783 0016 0093     		str	r3, [sp]
 784 0018 3B68     		ldr	r3, [r7]
 785 001a 0022     		movs	r2, #0
 786 001c 3969     		ldr	r1, [r7, #16]
 787 001e 7869     		ldr	r0, [r7, #20]
 788 0020 FFF7FEFF 		bl	xQueueGenericCreateStatic
 789 0024 F860     		str	r0, [r7, #12]
 529:Middlewares/Third_Party/FreeRTOS/Source/queue.c **** 		prvInitialiseMutex( ( Queue_t * ) xNewQueue );
 790              		.loc 1 529 3
 791 0026 F868     		ldr	r0, [r7, #12]
 792 0028 FFF7FEFF 		bl	prvInitialiseMutex
 530:Middlewares/Third_Party/FreeRTOS/Source/queue.c **** 
 531:Middlewares/Third_Party/FreeRTOS/Source/queue.c **** 		return xNewQueue;
 793              		.loc 1 531 10
 794 002c FB68     		ldr	r3, [r7, #12]
 532:Middlewares/Third_Party/FreeRTOS/Source/queue.c **** 	}
 795              		.loc 1 532 2
 796 002e 1846     		mov	r0, r3
 797 0030 1837     		adds	r7, r7, #24
 798              	.LCFI33:
 799              		.cfi_def_cfa_offset 8
 800 0032 BD46     		mov	sp, r7
 801              	.LCFI34:
 802              		.cfi_def_cfa_register 13
 803              		@ sp needed
 804 0034 80BD     		pop	{r7, pc}
 805              		.cfi_endproc
 806              	.LFE11:
 808              		.section	.text.xQueueGiveMutexRecursive,"ax",%progbits
ARM GAS  C:\Users\jisu8\AppData\Local\Temp\cc12CyhQ.s 			page 28


 809              		.align	1
 810              		.global	xQueueGiveMutexRecursive
 811              		.syntax unified
 812              		.thumb
 813              		.thumb_func
 815              	xQueueGiveMutexRecursive:
 816              	.LFB12:
 533:Middlewares/Third_Party/FreeRTOS/Source/queue.c **** 
 534:Middlewares/Third_Party/FreeRTOS/Source/queue.c **** #endif /* configUSE_MUTEXES */
 535:Middlewares/Third_Party/FreeRTOS/Source/queue.c **** /*-----------------------------------------------------------*/
 536:Middlewares/Third_Party/FreeRTOS/Source/queue.c **** 
 537:Middlewares/Third_Party/FreeRTOS/Source/queue.c **** #if ( ( configUSE_MUTEXES == 1 ) && ( INCLUDE_xSemaphoreGetMutexHolder == 1 ) )
 538:Middlewares/Third_Party/FreeRTOS/Source/queue.c **** 
 539:Middlewares/Third_Party/FreeRTOS/Source/queue.c **** 	TaskHandle_t xQueueGetMutexHolder( QueueHandle_t xSemaphore )
 540:Middlewares/Third_Party/FreeRTOS/Source/queue.c **** 	{
 541:Middlewares/Third_Party/FreeRTOS/Source/queue.c **** 	TaskHandle_t pxReturn;
 542:Middlewares/Third_Party/FreeRTOS/Source/queue.c **** 	Queue_t * const pxSemaphore = ( Queue_t * ) xSemaphore;
 543:Middlewares/Third_Party/FreeRTOS/Source/queue.c **** 
 544:Middlewares/Third_Party/FreeRTOS/Source/queue.c **** 		/* This function is called by xSemaphoreGetMutexHolder(), and should not
 545:Middlewares/Third_Party/FreeRTOS/Source/queue.c **** 		be called directly.  Note:  This is a good way of determining if the
 546:Middlewares/Third_Party/FreeRTOS/Source/queue.c **** 		calling task is the mutex holder, but not a good way of determining the
 547:Middlewares/Third_Party/FreeRTOS/Source/queue.c **** 		identity of the mutex holder, as the holder may change between the
 548:Middlewares/Third_Party/FreeRTOS/Source/queue.c **** 		following critical section exiting and the function returning. */
 549:Middlewares/Third_Party/FreeRTOS/Source/queue.c **** 		taskENTER_CRITICAL();
 550:Middlewares/Third_Party/FreeRTOS/Source/queue.c **** 		{
 551:Middlewares/Third_Party/FreeRTOS/Source/queue.c **** 			if( pxSemaphore->uxQueueType == queueQUEUE_IS_MUTEX )
 552:Middlewares/Third_Party/FreeRTOS/Source/queue.c **** 			{
 553:Middlewares/Third_Party/FreeRTOS/Source/queue.c **** 				pxReturn = pxSemaphore->u.xSemaphore.xMutexHolder;
 554:Middlewares/Third_Party/FreeRTOS/Source/queue.c **** 			}
 555:Middlewares/Third_Party/FreeRTOS/Source/queue.c **** 			else
 556:Middlewares/Third_Party/FreeRTOS/Source/queue.c **** 			{
 557:Middlewares/Third_Party/FreeRTOS/Source/queue.c **** 				pxReturn = NULL;
 558:Middlewares/Third_Party/FreeRTOS/Source/queue.c **** 			}
 559:Middlewares/Third_Party/FreeRTOS/Source/queue.c **** 		}
 560:Middlewares/Third_Party/FreeRTOS/Source/queue.c **** 		taskEXIT_CRITICAL();
 561:Middlewares/Third_Party/FreeRTOS/Source/queue.c **** 
 562:Middlewares/Third_Party/FreeRTOS/Source/queue.c **** 		return pxReturn;
 563:Middlewares/Third_Party/FreeRTOS/Source/queue.c **** 	} /*lint !e818 xSemaphore cannot be a pointer to const because it is a typedef. */
 564:Middlewares/Third_Party/FreeRTOS/Source/queue.c **** 
 565:Middlewares/Third_Party/FreeRTOS/Source/queue.c **** #endif
 566:Middlewares/Third_Party/FreeRTOS/Source/queue.c **** /*-----------------------------------------------------------*/
 567:Middlewares/Third_Party/FreeRTOS/Source/queue.c **** 
 568:Middlewares/Third_Party/FreeRTOS/Source/queue.c **** #if ( ( configUSE_MUTEXES == 1 ) && ( INCLUDE_xSemaphoreGetMutexHolder == 1 ) )
 569:Middlewares/Third_Party/FreeRTOS/Source/queue.c **** 
 570:Middlewares/Third_Party/FreeRTOS/Source/queue.c **** 	TaskHandle_t xQueueGetMutexHolderFromISR( QueueHandle_t xSemaphore )
 571:Middlewares/Third_Party/FreeRTOS/Source/queue.c **** 	{
 572:Middlewares/Third_Party/FreeRTOS/Source/queue.c **** 	TaskHandle_t pxReturn;
 573:Middlewares/Third_Party/FreeRTOS/Source/queue.c **** 
 574:Middlewares/Third_Party/FreeRTOS/Source/queue.c **** 		configASSERT( xSemaphore );
 575:Middlewares/Third_Party/FreeRTOS/Source/queue.c **** 
 576:Middlewares/Third_Party/FreeRTOS/Source/queue.c **** 		/* Mutexes cannot be used in interrupt service routines, so the mutex
 577:Middlewares/Third_Party/FreeRTOS/Source/queue.c **** 		holder should not change in an ISR, and therefore a critical section is
 578:Middlewares/Third_Party/FreeRTOS/Source/queue.c **** 		not required here. */
 579:Middlewares/Third_Party/FreeRTOS/Source/queue.c **** 		if( ( ( Queue_t * ) xSemaphore )->uxQueueType == queueQUEUE_IS_MUTEX )
 580:Middlewares/Third_Party/FreeRTOS/Source/queue.c **** 		{
 581:Middlewares/Third_Party/FreeRTOS/Source/queue.c **** 			pxReturn = ( ( Queue_t * ) xSemaphore )->u.xSemaphore.xMutexHolder;
 582:Middlewares/Third_Party/FreeRTOS/Source/queue.c **** 		}
ARM GAS  C:\Users\jisu8\AppData\Local\Temp\cc12CyhQ.s 			page 29


 583:Middlewares/Third_Party/FreeRTOS/Source/queue.c **** 		else
 584:Middlewares/Third_Party/FreeRTOS/Source/queue.c **** 		{
 585:Middlewares/Third_Party/FreeRTOS/Source/queue.c **** 			pxReturn = NULL;
 586:Middlewares/Third_Party/FreeRTOS/Source/queue.c **** 		}
 587:Middlewares/Third_Party/FreeRTOS/Source/queue.c **** 
 588:Middlewares/Third_Party/FreeRTOS/Source/queue.c **** 		return pxReturn;
 589:Middlewares/Third_Party/FreeRTOS/Source/queue.c **** 	} /*lint !e818 xSemaphore cannot be a pointer to const because it is a typedef. */
 590:Middlewares/Third_Party/FreeRTOS/Source/queue.c **** 
 591:Middlewares/Third_Party/FreeRTOS/Source/queue.c **** #endif
 592:Middlewares/Third_Party/FreeRTOS/Source/queue.c **** /*-----------------------------------------------------------*/
 593:Middlewares/Third_Party/FreeRTOS/Source/queue.c **** 
 594:Middlewares/Third_Party/FreeRTOS/Source/queue.c **** #if ( configUSE_RECURSIVE_MUTEXES == 1 )
 595:Middlewares/Third_Party/FreeRTOS/Source/queue.c **** 
 596:Middlewares/Third_Party/FreeRTOS/Source/queue.c **** 	BaseType_t xQueueGiveMutexRecursive( QueueHandle_t xMutex )
 597:Middlewares/Third_Party/FreeRTOS/Source/queue.c **** 	{
 817              		.loc 1 597 2
 818              		.cfi_startproc
 819              		@ args = 0, pretend = 0, frame = 24
 820              		@ frame_needed = 1, uses_anonymous_args = 0
 821 0000 90B5     		push	{r4, r7, lr}
 822              	.LCFI35:
 823              		.cfi_def_cfa_offset 12
 824              		.cfi_offset 4, -12
 825              		.cfi_offset 7, -8
 826              		.cfi_offset 14, -4
 827 0002 87B0     		sub	sp, sp, #28
 828              	.LCFI36:
 829              		.cfi_def_cfa_offset 40
 830 0004 00AF     		add	r7, sp, #0
 831              	.LCFI37:
 832              		.cfi_def_cfa_register 7
 833 0006 7860     		str	r0, [r7, #4]
 598:Middlewares/Third_Party/FreeRTOS/Source/queue.c **** 	BaseType_t xReturn;
 599:Middlewares/Third_Party/FreeRTOS/Source/queue.c **** 	Queue_t * const pxMutex = ( Queue_t * ) xMutex;
 834              		.loc 1 599 18
 835 0008 7B68     		ldr	r3, [r7, #4]
 836 000a 3B61     		str	r3, [r7, #16]
 600:Middlewares/Third_Party/FreeRTOS/Source/queue.c **** 
 601:Middlewares/Third_Party/FreeRTOS/Source/queue.c **** 		configASSERT( pxMutex );
 837              		.loc 1 601 3
 838 000c 3B69     		ldr	r3, [r7, #16]
 839 000e 002B     		cmp	r3, #0
 840 0010 0CD1     		bne	.L46
 841              	.LBB131:
 842              	.LBB132:
 195:Middlewares/Third_Party/FreeRTOS/Source/portable/GCC/ARM_CM7/r0p1/portmacro.h **** 	(
 843              		.loc 2 195 2
 844              		.syntax unified
 845              	@ 195 "Middlewares/Third_Party/FreeRTOS/Source/portable/GCC/ARM_CM7/r0p1/portmacro.h" 1
 846 0012 4FF05003 			mov r3, #80												
 847 0016 72B6     		cpsid i													
 848 0018 83F31188 		msr basepri, r3											
 849 001c BFF36F8F 		isb														
 850 0020 BFF34F8F 		dsb														
 851 0024 62B6     		cpsie i													
 852              	
 853              	@ 0 "" 2
ARM GAS  C:\Users\jisu8\AppData\Local\Temp\cc12CyhQ.s 			page 30


 854              		.thumb
 855              		.syntax unified
 856 0026 FB60     		str	r3, [r7, #12]
 857              		.loc 2 205 1
 858 0028 00BF     		nop
 859              	.L47:
 860              	.LBE132:
 861              	.LBE131:
 862              		.loc 1 601 3 discriminator 1
 863 002a FEE7     		b	.L47
 864              	.L46:
 602:Middlewares/Third_Party/FreeRTOS/Source/queue.c **** 
 603:Middlewares/Third_Party/FreeRTOS/Source/queue.c **** 		/* If this is the task that holds the mutex then xMutexHolder will not
 604:Middlewares/Third_Party/FreeRTOS/Source/queue.c **** 		change outside of this task.  If this task does not hold the mutex then
 605:Middlewares/Third_Party/FreeRTOS/Source/queue.c **** 		pxMutexHolder can never coincidentally equal the tasks handle, and as
 606:Middlewares/Third_Party/FreeRTOS/Source/queue.c **** 		this is the only condition we are interested in it does not matter if
 607:Middlewares/Third_Party/FreeRTOS/Source/queue.c **** 		pxMutexHolder is accessed simultaneously by another task.  Therefore no
 608:Middlewares/Third_Party/FreeRTOS/Source/queue.c **** 		mutual exclusion is required to test the pxMutexHolder variable. */
 609:Middlewares/Third_Party/FreeRTOS/Source/queue.c **** 		if( pxMutex->u.xSemaphore.xMutexHolder == xTaskGetCurrentTaskHandle() )
 865              		.loc 1 609 28
 866 002c 3B69     		ldr	r3, [r7, #16]
 867 002e 9C68     		ldr	r4, [r3, #8]
 868              		.loc 1 609 45
 869 0030 FFF7FEFF 		bl	xTaskGetCurrentTaskHandle
 870 0034 0346     		mov	r3, r0
 871              		.loc 1 609 5
 872 0036 9C42     		cmp	r4, r3
 873 0038 11D1     		bne	.L48
 610:Middlewares/Third_Party/FreeRTOS/Source/queue.c **** 		{
 611:Middlewares/Third_Party/FreeRTOS/Source/queue.c **** 			traceGIVE_MUTEX_RECURSIVE( pxMutex );
 612:Middlewares/Third_Party/FreeRTOS/Source/queue.c **** 
 613:Middlewares/Third_Party/FreeRTOS/Source/queue.c **** 			/* uxRecursiveCallCount cannot be zero if xMutexHolder is equal to
 614:Middlewares/Third_Party/FreeRTOS/Source/queue.c **** 			the task handle, therefore no underflow check is required.  Also,
 615:Middlewares/Third_Party/FreeRTOS/Source/queue.c **** 			uxRecursiveCallCount is only modified by the mutex holder, and as
 616:Middlewares/Third_Party/FreeRTOS/Source/queue.c **** 			there can only be one, no mutual exclusion is required to modify the
 617:Middlewares/Third_Party/FreeRTOS/Source/queue.c **** 			uxRecursiveCallCount member. */
 618:Middlewares/Third_Party/FreeRTOS/Source/queue.c **** 			( pxMutex->u.xSemaphore.uxRecursiveCallCount )--;
 874              		.loc 1 618 27
 875 003a 3B69     		ldr	r3, [r7, #16]
 876 003c DB68     		ldr	r3, [r3, #12]
 877              		.loc 1 618 50
 878 003e 5A1E     		subs	r2, r3, #1
 879 0040 3B69     		ldr	r3, [r7, #16]
 880 0042 DA60     		str	r2, [r3, #12]
 619:Middlewares/Third_Party/FreeRTOS/Source/queue.c **** 
 620:Middlewares/Third_Party/FreeRTOS/Source/queue.c **** 			/* Has the recursive call count unwound to 0? */
 621:Middlewares/Third_Party/FreeRTOS/Source/queue.c **** 			if( pxMutex->u.xSemaphore.uxRecursiveCallCount == ( UBaseType_t ) 0 )
 881              		.loc 1 621 29
 882 0044 3B69     		ldr	r3, [r7, #16]
 883 0046 DB68     		ldr	r3, [r3, #12]
 884              		.loc 1 621 6
 885 0048 002B     		cmp	r3, #0
 886 004a 05D1     		bne	.L49
 622:Middlewares/Third_Party/FreeRTOS/Source/queue.c **** 			{
 623:Middlewares/Third_Party/FreeRTOS/Source/queue.c **** 				/* Return the mutex.  This will automatically unblock any other
 624:Middlewares/Third_Party/FreeRTOS/Source/queue.c **** 				task that might be waiting to access the mutex. */
 625:Middlewares/Third_Party/FreeRTOS/Source/queue.c **** 				( void ) xQueueGenericSend( pxMutex, NULL, queueMUTEX_GIVE_BLOCK_TIME, queueSEND_TO_BACK );
ARM GAS  C:\Users\jisu8\AppData\Local\Temp\cc12CyhQ.s 			page 31


 887              		.loc 1 625 14
 888 004c 0023     		movs	r3, #0
 889 004e 0022     		movs	r2, #0
 890 0050 0021     		movs	r1, #0
 891 0052 3869     		ldr	r0, [r7, #16]
 892 0054 FFF7FEFF 		bl	xQueueGenericSend
 893              	.L49:
 626:Middlewares/Third_Party/FreeRTOS/Source/queue.c **** 			}
 627:Middlewares/Third_Party/FreeRTOS/Source/queue.c **** 			else
 628:Middlewares/Third_Party/FreeRTOS/Source/queue.c **** 			{
 629:Middlewares/Third_Party/FreeRTOS/Source/queue.c **** 				mtCOVERAGE_TEST_MARKER();
 630:Middlewares/Third_Party/FreeRTOS/Source/queue.c **** 			}
 631:Middlewares/Third_Party/FreeRTOS/Source/queue.c **** 
 632:Middlewares/Third_Party/FreeRTOS/Source/queue.c **** 			xReturn = pdPASS;
 894              		.loc 1 632 12
 895 0058 0123     		movs	r3, #1
 896 005a 7B61     		str	r3, [r7, #20]
 897 005c 01E0     		b	.L50
 898              	.L48:
 633:Middlewares/Third_Party/FreeRTOS/Source/queue.c **** 		}
 634:Middlewares/Third_Party/FreeRTOS/Source/queue.c **** 		else
 635:Middlewares/Third_Party/FreeRTOS/Source/queue.c **** 		{
 636:Middlewares/Third_Party/FreeRTOS/Source/queue.c **** 			/* The mutex cannot be given because the calling task is not the
 637:Middlewares/Third_Party/FreeRTOS/Source/queue.c **** 			holder. */
 638:Middlewares/Third_Party/FreeRTOS/Source/queue.c **** 			xReturn = pdFAIL;
 899              		.loc 1 638 12
 900 005e 0023     		movs	r3, #0
 901 0060 7B61     		str	r3, [r7, #20]
 902              	.L50:
 639:Middlewares/Third_Party/FreeRTOS/Source/queue.c **** 
 640:Middlewares/Third_Party/FreeRTOS/Source/queue.c **** 			traceGIVE_MUTEX_RECURSIVE_FAILED( pxMutex );
 641:Middlewares/Third_Party/FreeRTOS/Source/queue.c **** 		}
 642:Middlewares/Third_Party/FreeRTOS/Source/queue.c **** 
 643:Middlewares/Third_Party/FreeRTOS/Source/queue.c **** 		return xReturn;
 903              		.loc 1 643 10
 904 0062 7B69     		ldr	r3, [r7, #20]
 644:Middlewares/Third_Party/FreeRTOS/Source/queue.c **** 	}
 905              		.loc 1 644 2
 906 0064 1846     		mov	r0, r3
 907 0066 1C37     		adds	r7, r7, #28
 908              	.LCFI38:
 909              		.cfi_def_cfa_offset 12
 910 0068 BD46     		mov	sp, r7
 911              	.LCFI39:
 912              		.cfi_def_cfa_register 13
 913              		@ sp needed
 914 006a 90BD     		pop	{r4, r7, pc}
 915              		.cfi_endproc
 916              	.LFE12:
 918              		.section	.text.xQueueTakeMutexRecursive,"ax",%progbits
 919              		.align	1
 920              		.global	xQueueTakeMutexRecursive
 921              		.syntax unified
 922              		.thumb
 923              		.thumb_func
 925              	xQueueTakeMutexRecursive:
 926              	.LFB13:
ARM GAS  C:\Users\jisu8\AppData\Local\Temp\cc12CyhQ.s 			page 32


 645:Middlewares/Third_Party/FreeRTOS/Source/queue.c **** 
 646:Middlewares/Third_Party/FreeRTOS/Source/queue.c **** #endif /* configUSE_RECURSIVE_MUTEXES */
 647:Middlewares/Third_Party/FreeRTOS/Source/queue.c **** /*-----------------------------------------------------------*/
 648:Middlewares/Third_Party/FreeRTOS/Source/queue.c **** 
 649:Middlewares/Third_Party/FreeRTOS/Source/queue.c **** #if ( configUSE_RECURSIVE_MUTEXES == 1 )
 650:Middlewares/Third_Party/FreeRTOS/Source/queue.c **** 
 651:Middlewares/Third_Party/FreeRTOS/Source/queue.c **** 	BaseType_t xQueueTakeMutexRecursive( QueueHandle_t xMutex, TickType_t xTicksToWait )
 652:Middlewares/Third_Party/FreeRTOS/Source/queue.c **** 	{
 927              		.loc 1 652 2
 928              		.cfi_startproc
 929              		@ args = 0, pretend = 0, frame = 24
 930              		@ frame_needed = 1, uses_anonymous_args = 0
 931 0000 90B5     		push	{r4, r7, lr}
 932              	.LCFI40:
 933              		.cfi_def_cfa_offset 12
 934              		.cfi_offset 4, -12
 935              		.cfi_offset 7, -8
 936              		.cfi_offset 14, -4
 937 0002 87B0     		sub	sp, sp, #28
 938              	.LCFI41:
 939              		.cfi_def_cfa_offset 40
 940 0004 00AF     		add	r7, sp, #0
 941              	.LCFI42:
 942              		.cfi_def_cfa_register 7
 943 0006 7860     		str	r0, [r7, #4]
 944 0008 3960     		str	r1, [r7]
 653:Middlewares/Third_Party/FreeRTOS/Source/queue.c **** 	BaseType_t xReturn;
 654:Middlewares/Third_Party/FreeRTOS/Source/queue.c **** 	Queue_t * const pxMutex = ( Queue_t * ) xMutex;
 945              		.loc 1 654 18
 946 000a 7B68     		ldr	r3, [r7, #4]
 947 000c 3B61     		str	r3, [r7, #16]
 655:Middlewares/Third_Party/FreeRTOS/Source/queue.c **** 
 656:Middlewares/Third_Party/FreeRTOS/Source/queue.c **** 		configASSERT( pxMutex );
 948              		.loc 1 656 3
 949 000e 3B69     		ldr	r3, [r7, #16]
 950 0010 002B     		cmp	r3, #0
 951 0012 0CD1     		bne	.L53
 952              	.LBB133:
 953              	.LBB134:
 195:Middlewares/Third_Party/FreeRTOS/Source/portable/GCC/ARM_CM7/r0p1/portmacro.h **** 	(
 954              		.loc 2 195 2
 955              		.syntax unified
 956              	@ 195 "Middlewares/Third_Party/FreeRTOS/Source/portable/GCC/ARM_CM7/r0p1/portmacro.h" 1
 957 0014 4FF05003 			mov r3, #80												
 958 0018 72B6     		cpsid i													
 959 001a 83F31188 		msr basepri, r3											
 960 001e BFF36F8F 		isb														
 961 0022 BFF34F8F 		dsb														
 962 0026 62B6     		cpsie i													
 963              	
 964              	@ 0 "" 2
 965              		.thumb
 966              		.syntax unified
 967 0028 FB60     		str	r3, [r7, #12]
 968              		.loc 2 205 1
 969 002a 00BF     		nop
 970              	.L54:
ARM GAS  C:\Users\jisu8\AppData\Local\Temp\cc12CyhQ.s 			page 33


 971              	.LBE134:
 972              	.LBE133:
 973              		.loc 1 656 3 discriminator 1
 974 002c FEE7     		b	.L54
 975              	.L53:
 657:Middlewares/Third_Party/FreeRTOS/Source/queue.c **** 
 658:Middlewares/Third_Party/FreeRTOS/Source/queue.c **** 		/* Comments regarding mutual exclusion as per those within
 659:Middlewares/Third_Party/FreeRTOS/Source/queue.c **** 		xQueueGiveMutexRecursive(). */
 660:Middlewares/Third_Party/FreeRTOS/Source/queue.c **** 
 661:Middlewares/Third_Party/FreeRTOS/Source/queue.c **** 		traceTAKE_MUTEX_RECURSIVE( pxMutex );
 662:Middlewares/Third_Party/FreeRTOS/Source/queue.c **** 
 663:Middlewares/Third_Party/FreeRTOS/Source/queue.c **** 		if( pxMutex->u.xSemaphore.xMutexHolder == xTaskGetCurrentTaskHandle() )
 976              		.loc 1 663 28
 977 002e 3B69     		ldr	r3, [r7, #16]
 978 0030 9C68     		ldr	r4, [r3, #8]
 979              		.loc 1 663 45
 980 0032 FFF7FEFF 		bl	xTaskGetCurrentTaskHandle
 981 0036 0346     		mov	r3, r0
 982              		.loc 1 663 5
 983 0038 9C42     		cmp	r4, r3
 984 003a 07D1     		bne	.L55
 664:Middlewares/Third_Party/FreeRTOS/Source/queue.c **** 		{
 665:Middlewares/Third_Party/FreeRTOS/Source/queue.c **** 			( pxMutex->u.xSemaphore.uxRecursiveCallCount )++;
 985              		.loc 1 665 27
 986 003c 3B69     		ldr	r3, [r7, #16]
 987 003e DB68     		ldr	r3, [r3, #12]
 988              		.loc 1 665 50
 989 0040 5A1C     		adds	r2, r3, #1
 990 0042 3B69     		ldr	r3, [r7, #16]
 991 0044 DA60     		str	r2, [r3, #12]
 666:Middlewares/Third_Party/FreeRTOS/Source/queue.c **** 			xReturn = pdPASS;
 992              		.loc 1 666 12
 993 0046 0123     		movs	r3, #1
 994 0048 7B61     		str	r3, [r7, #20]
 995 004a 0CE0     		b	.L56
 996              	.L55:
 667:Middlewares/Third_Party/FreeRTOS/Source/queue.c **** 		}
 668:Middlewares/Third_Party/FreeRTOS/Source/queue.c **** 		else
 669:Middlewares/Third_Party/FreeRTOS/Source/queue.c **** 		{
 670:Middlewares/Third_Party/FreeRTOS/Source/queue.c **** 			xReturn = xQueueSemaphoreTake( pxMutex, xTicksToWait );
 997              		.loc 1 670 14
 998 004c 3968     		ldr	r1, [r7]
 999 004e 3869     		ldr	r0, [r7, #16]
 1000 0050 FFF7FEFF 		bl	xQueueSemaphoreTake
 1001 0054 7861     		str	r0, [r7, #20]
 671:Middlewares/Third_Party/FreeRTOS/Source/queue.c **** 
 672:Middlewares/Third_Party/FreeRTOS/Source/queue.c **** 			/* pdPASS will only be returned if the mutex was successfully
 673:Middlewares/Third_Party/FreeRTOS/Source/queue.c **** 			obtained.  The calling task may have entered the Blocked state
 674:Middlewares/Third_Party/FreeRTOS/Source/queue.c **** 			before reaching here. */
 675:Middlewares/Third_Party/FreeRTOS/Source/queue.c **** 			if( xReturn != pdFAIL )
 1002              		.loc 1 675 6
 1003 0056 7B69     		ldr	r3, [r7, #20]
 1004 0058 002B     		cmp	r3, #0
 1005 005a 04D0     		beq	.L56
 676:Middlewares/Third_Party/FreeRTOS/Source/queue.c **** 			{
 677:Middlewares/Third_Party/FreeRTOS/Source/queue.c **** 				( pxMutex->u.xSemaphore.uxRecursiveCallCount )++;
 1006              		.loc 1 677 28
ARM GAS  C:\Users\jisu8\AppData\Local\Temp\cc12CyhQ.s 			page 34


 1007 005c 3B69     		ldr	r3, [r7, #16]
 1008 005e DB68     		ldr	r3, [r3, #12]
 1009              		.loc 1 677 51
 1010 0060 5A1C     		adds	r2, r3, #1
 1011 0062 3B69     		ldr	r3, [r7, #16]
 1012 0064 DA60     		str	r2, [r3, #12]
 1013              	.L56:
 678:Middlewares/Third_Party/FreeRTOS/Source/queue.c **** 			}
 679:Middlewares/Third_Party/FreeRTOS/Source/queue.c **** 			else
 680:Middlewares/Third_Party/FreeRTOS/Source/queue.c **** 			{
 681:Middlewares/Third_Party/FreeRTOS/Source/queue.c **** 				traceTAKE_MUTEX_RECURSIVE_FAILED( pxMutex );
 682:Middlewares/Third_Party/FreeRTOS/Source/queue.c **** 			}
 683:Middlewares/Third_Party/FreeRTOS/Source/queue.c **** 		}
 684:Middlewares/Third_Party/FreeRTOS/Source/queue.c **** 
 685:Middlewares/Third_Party/FreeRTOS/Source/queue.c **** 		return xReturn;
 1014              		.loc 1 685 10
 1015 0066 7B69     		ldr	r3, [r7, #20]
 686:Middlewares/Third_Party/FreeRTOS/Source/queue.c **** 	}
 1016              		.loc 1 686 2
 1017 0068 1846     		mov	r0, r3
 1018 006a 1C37     		adds	r7, r7, #28
 1019              	.LCFI43:
 1020              		.cfi_def_cfa_offset 12
 1021 006c BD46     		mov	sp, r7
 1022              	.LCFI44:
 1023              		.cfi_def_cfa_register 13
 1024              		@ sp needed
 1025 006e 90BD     		pop	{r4, r7, pc}
 1026              		.cfi_endproc
 1027              	.LFE13:
 1029              		.section	.text.xQueueCreateCountingSemaphoreStatic,"ax",%progbits
 1030              		.align	1
 1031              		.global	xQueueCreateCountingSemaphoreStatic
 1032              		.syntax unified
 1033              		.thumb
 1034              		.thumb_func
 1036              	xQueueCreateCountingSemaphoreStatic:
 1037              	.LFB14:
 687:Middlewares/Third_Party/FreeRTOS/Source/queue.c **** 
 688:Middlewares/Third_Party/FreeRTOS/Source/queue.c **** #endif /* configUSE_RECURSIVE_MUTEXES */
 689:Middlewares/Third_Party/FreeRTOS/Source/queue.c **** /*-----------------------------------------------------------*/
 690:Middlewares/Third_Party/FreeRTOS/Source/queue.c **** 
 691:Middlewares/Third_Party/FreeRTOS/Source/queue.c **** #if( ( configUSE_COUNTING_SEMAPHORES == 1 ) && ( configSUPPORT_STATIC_ALLOCATION == 1 ) )
 692:Middlewares/Third_Party/FreeRTOS/Source/queue.c **** 
 693:Middlewares/Third_Party/FreeRTOS/Source/queue.c **** 	QueueHandle_t xQueueCreateCountingSemaphoreStatic( const UBaseType_t uxMaxCount, const UBaseType_t
 694:Middlewares/Third_Party/FreeRTOS/Source/queue.c **** 	{
 1038              		.loc 1 694 2
 1039              		.cfi_startproc
 1040              		@ args = 0, pretend = 0, frame = 32
 1041              		@ frame_needed = 1, uses_anonymous_args = 0
 1042 0000 80B5     		push	{r7, lr}
 1043              	.LCFI45:
 1044              		.cfi_def_cfa_offset 8
 1045              		.cfi_offset 7, -8
 1046              		.cfi_offset 14, -4
 1047 0002 8AB0     		sub	sp, sp, #40
 1048              	.LCFI46:
ARM GAS  C:\Users\jisu8\AppData\Local\Temp\cc12CyhQ.s 			page 35


 1049              		.cfi_def_cfa_offset 48
 1050 0004 02AF     		add	r7, sp, #8
 1051              	.LCFI47:
 1052              		.cfi_def_cfa 7, 40
 1053 0006 F860     		str	r0, [r7, #12]
 1054 0008 B960     		str	r1, [r7, #8]
 1055 000a 7A60     		str	r2, [r7, #4]
 695:Middlewares/Third_Party/FreeRTOS/Source/queue.c **** 	QueueHandle_t xHandle;
 696:Middlewares/Third_Party/FreeRTOS/Source/queue.c **** 
 697:Middlewares/Third_Party/FreeRTOS/Source/queue.c **** 		configASSERT( uxMaxCount != 0 );
 1056              		.loc 1 697 3
 1057 000c FB68     		ldr	r3, [r7, #12]
 1058 000e 002B     		cmp	r3, #0
 1059 0010 0CD1     		bne	.L59
 1060              	.LBB135:
 1061              	.LBB136:
 195:Middlewares/Third_Party/FreeRTOS/Source/portable/GCC/ARM_CM7/r0p1/portmacro.h **** 	(
 1062              		.loc 2 195 2
 1063              		.syntax unified
 1064              	@ 195 "Middlewares/Third_Party/FreeRTOS/Source/portable/GCC/ARM_CM7/r0p1/portmacro.h" 1
 1065 0012 4FF05003 			mov r3, #80												
 1066 0016 72B6     		cpsid i													
 1067 0018 83F31188 		msr basepri, r3											
 1068 001c BFF36F8F 		isb														
 1069 0020 BFF34F8F 		dsb														
 1070 0024 62B6     		cpsie i													
 1071              	
 1072              	@ 0 "" 2
 1073              		.thumb
 1074              		.syntax unified
 1075 0026 BB61     		str	r3, [r7, #24]
 1076              		.loc 2 205 1
 1077 0028 00BF     		nop
 1078              	.L60:
 1079              	.LBE136:
 1080              	.LBE135:
 1081              		.loc 1 697 3 discriminator 1
 1082 002a FEE7     		b	.L60
 1083              	.L59:
 698:Middlewares/Third_Party/FreeRTOS/Source/queue.c **** 		configASSERT( uxInitialCount <= uxMaxCount );
 1084              		.loc 1 698 3
 1085 002c BA68     		ldr	r2, [r7, #8]
 1086 002e FB68     		ldr	r3, [r7, #12]
 1087 0030 9A42     		cmp	r2, r3
 1088 0032 0CD9     		bls	.L61
 1089              	.LBB137:
 1090              	.LBB138:
 195:Middlewares/Third_Party/FreeRTOS/Source/portable/GCC/ARM_CM7/r0p1/portmacro.h **** 	(
 1091              		.loc 2 195 2
 1092              		.syntax unified
 1093              	@ 195 "Middlewares/Third_Party/FreeRTOS/Source/portable/GCC/ARM_CM7/r0p1/portmacro.h" 1
 1094 0034 4FF05003 			mov r3, #80												
 1095 0038 72B6     		cpsid i													
 1096 003a 83F31188 		msr basepri, r3											
 1097 003e BFF36F8F 		isb														
 1098 0042 BFF34F8F 		dsb														
 1099 0046 62B6     		cpsie i													
ARM GAS  C:\Users\jisu8\AppData\Local\Temp\cc12CyhQ.s 			page 36


 1100              	
 1101              	@ 0 "" 2
 1102              		.thumb
 1103              		.syntax unified
 1104 0048 7B61     		str	r3, [r7, #20]
 1105              		.loc 2 205 1
 1106 004a 00BF     		nop
 1107              	.L62:
 1108              	.LBE138:
 1109              	.LBE137:
 1110              		.loc 1 698 3 discriminator 2
 1111 004c FEE7     		b	.L62
 1112              	.L61:
 699:Middlewares/Third_Party/FreeRTOS/Source/queue.c **** 
 700:Middlewares/Third_Party/FreeRTOS/Source/queue.c **** 		xHandle = xQueueGenericCreateStatic( uxMaxCount, queueSEMAPHORE_QUEUE_ITEM_LENGTH, NULL, pxStatic
 1113              		.loc 1 700 13
 1114 004e 0223     		movs	r3, #2
 1115 0050 0093     		str	r3, [sp]
 1116 0052 7B68     		ldr	r3, [r7, #4]
 1117 0054 0022     		movs	r2, #0
 1118 0056 0021     		movs	r1, #0
 1119 0058 F868     		ldr	r0, [r7, #12]
 1120 005a FFF7FEFF 		bl	xQueueGenericCreateStatic
 1121 005e F861     		str	r0, [r7, #28]
 701:Middlewares/Third_Party/FreeRTOS/Source/queue.c **** 
 702:Middlewares/Third_Party/FreeRTOS/Source/queue.c **** 		if( xHandle != NULL )
 1122              		.loc 1 702 5
 1123 0060 FB69     		ldr	r3, [r7, #28]
 1124 0062 002B     		cmp	r3, #0
 1125 0064 02D0     		beq	.L63
 703:Middlewares/Third_Party/FreeRTOS/Source/queue.c **** 		{
 704:Middlewares/Third_Party/FreeRTOS/Source/queue.c **** 			( ( Queue_t * ) xHandle )->uxMessagesWaiting = uxInitialCount;
 1126              		.loc 1 704 49
 1127 0066 FB69     		ldr	r3, [r7, #28]
 1128 0068 BA68     		ldr	r2, [r7, #8]
 1129 006a 9A63     		str	r2, [r3, #56]
 1130              	.L63:
 705:Middlewares/Third_Party/FreeRTOS/Source/queue.c **** 
 706:Middlewares/Third_Party/FreeRTOS/Source/queue.c **** 			traceCREATE_COUNTING_SEMAPHORE();
 707:Middlewares/Third_Party/FreeRTOS/Source/queue.c **** 		}
 708:Middlewares/Third_Party/FreeRTOS/Source/queue.c **** 		else
 709:Middlewares/Third_Party/FreeRTOS/Source/queue.c **** 		{
 710:Middlewares/Third_Party/FreeRTOS/Source/queue.c **** 			traceCREATE_COUNTING_SEMAPHORE_FAILED();
 711:Middlewares/Third_Party/FreeRTOS/Source/queue.c **** 		}
 712:Middlewares/Third_Party/FreeRTOS/Source/queue.c **** 
 713:Middlewares/Third_Party/FreeRTOS/Source/queue.c **** 		return xHandle;
 1131              		.loc 1 713 10
 1132 006c FB69     		ldr	r3, [r7, #28]
 714:Middlewares/Third_Party/FreeRTOS/Source/queue.c **** 	}
 1133              		.loc 1 714 2
 1134 006e 1846     		mov	r0, r3
 1135 0070 2037     		adds	r7, r7, #32
 1136              	.LCFI48:
 1137              		.cfi_def_cfa_offset 8
 1138 0072 BD46     		mov	sp, r7
 1139              	.LCFI49:
 1140              		.cfi_def_cfa_register 13
ARM GAS  C:\Users\jisu8\AppData\Local\Temp\cc12CyhQ.s 			page 37


 1141              		@ sp needed
 1142 0074 80BD     		pop	{r7, pc}
 1143              		.cfi_endproc
 1144              	.LFE14:
 1146              		.section	.text.xQueueCreateCountingSemaphore,"ax",%progbits
 1147              		.align	1
 1148              		.global	xQueueCreateCountingSemaphore
 1149              		.syntax unified
 1150              		.thumb
 1151              		.thumb_func
 1153              	xQueueCreateCountingSemaphore:
 1154              	.LFB15:
 715:Middlewares/Third_Party/FreeRTOS/Source/queue.c **** 
 716:Middlewares/Third_Party/FreeRTOS/Source/queue.c **** #endif /* ( ( configUSE_COUNTING_SEMAPHORES == 1 ) && ( configSUPPORT_DYNAMIC_ALLOCATION == 1 ) ) *
 717:Middlewares/Third_Party/FreeRTOS/Source/queue.c **** /*-----------------------------------------------------------*/
 718:Middlewares/Third_Party/FreeRTOS/Source/queue.c **** 
 719:Middlewares/Third_Party/FreeRTOS/Source/queue.c **** #if( ( configUSE_COUNTING_SEMAPHORES == 1 ) && ( configSUPPORT_DYNAMIC_ALLOCATION == 1 ) )
 720:Middlewares/Third_Party/FreeRTOS/Source/queue.c **** 
 721:Middlewares/Third_Party/FreeRTOS/Source/queue.c **** 	QueueHandle_t xQueueCreateCountingSemaphore( const UBaseType_t uxMaxCount, const UBaseType_t uxIni
 722:Middlewares/Third_Party/FreeRTOS/Source/queue.c **** 	{
 1155              		.loc 1 722 2
 1156              		.cfi_startproc
 1157              		@ args = 0, pretend = 0, frame = 24
 1158              		@ frame_needed = 1, uses_anonymous_args = 0
 1159 0000 80B5     		push	{r7, lr}
 1160              	.LCFI50:
 1161              		.cfi_def_cfa_offset 8
 1162              		.cfi_offset 7, -8
 1163              		.cfi_offset 14, -4
 1164 0002 86B0     		sub	sp, sp, #24
 1165              	.LCFI51:
 1166              		.cfi_def_cfa_offset 32
 1167 0004 00AF     		add	r7, sp, #0
 1168              	.LCFI52:
 1169              		.cfi_def_cfa_register 7
 1170 0006 7860     		str	r0, [r7, #4]
 1171 0008 3960     		str	r1, [r7]
 723:Middlewares/Third_Party/FreeRTOS/Source/queue.c **** 	QueueHandle_t xHandle;
 724:Middlewares/Third_Party/FreeRTOS/Source/queue.c **** 
 725:Middlewares/Third_Party/FreeRTOS/Source/queue.c **** 		configASSERT( uxMaxCount != 0 );
 1172              		.loc 1 725 3
 1173 000a 7B68     		ldr	r3, [r7, #4]
 1174 000c 002B     		cmp	r3, #0
 1175 000e 0CD1     		bne	.L66
 1176              	.LBB139:
 1177              	.LBB140:
 195:Middlewares/Third_Party/FreeRTOS/Source/portable/GCC/ARM_CM7/r0p1/portmacro.h **** 	(
 1178              		.loc 2 195 2
 1179              		.syntax unified
 1180              	@ 195 "Middlewares/Third_Party/FreeRTOS/Source/portable/GCC/ARM_CM7/r0p1/portmacro.h" 1
 1181 0010 4FF05003 			mov r3, #80												
 1182 0014 72B6     		cpsid i													
 1183 0016 83F31188 		msr basepri, r3											
 1184 001a BFF36F8F 		isb														
 1185 001e BFF34F8F 		dsb														
 1186 0022 62B6     		cpsie i													
 1187              	
ARM GAS  C:\Users\jisu8\AppData\Local\Temp\cc12CyhQ.s 			page 38


 1188              	@ 0 "" 2
 1189              		.thumb
 1190              		.syntax unified
 1191 0024 3B61     		str	r3, [r7, #16]
 1192              		.loc 2 205 1
 1193 0026 00BF     		nop
 1194              	.L67:
 1195              	.LBE140:
 1196              	.LBE139:
 1197              		.loc 1 725 3 discriminator 1
 1198 0028 FEE7     		b	.L67
 1199              	.L66:
 726:Middlewares/Third_Party/FreeRTOS/Source/queue.c **** 		configASSERT( uxInitialCount <= uxMaxCount );
 1200              		.loc 1 726 3
 1201 002a 3A68     		ldr	r2, [r7]
 1202 002c 7B68     		ldr	r3, [r7, #4]
 1203 002e 9A42     		cmp	r2, r3
 1204 0030 0CD9     		bls	.L68
 1205              	.LBB141:
 1206              	.LBB142:
 195:Middlewares/Third_Party/FreeRTOS/Source/portable/GCC/ARM_CM7/r0p1/portmacro.h **** 	(
 1207              		.loc 2 195 2
 1208              		.syntax unified
 1209              	@ 195 "Middlewares/Third_Party/FreeRTOS/Source/portable/GCC/ARM_CM7/r0p1/portmacro.h" 1
 1210 0032 4FF05003 			mov r3, #80												
 1211 0036 72B6     		cpsid i													
 1212 0038 83F31188 		msr basepri, r3											
 1213 003c BFF36F8F 		isb														
 1214 0040 BFF34F8F 		dsb														
 1215 0044 62B6     		cpsie i													
 1216              	
 1217              	@ 0 "" 2
 1218              		.thumb
 1219              		.syntax unified
 1220 0046 FB60     		str	r3, [r7, #12]
 1221              		.loc 2 205 1
 1222 0048 00BF     		nop
 1223              	.L69:
 1224              	.LBE142:
 1225              	.LBE141:
 1226              		.loc 1 726 3 discriminator 2
 1227 004a FEE7     		b	.L69
 1228              	.L68:
 727:Middlewares/Third_Party/FreeRTOS/Source/queue.c **** 
 728:Middlewares/Third_Party/FreeRTOS/Source/queue.c **** 		xHandle = xQueueGenericCreate( uxMaxCount, queueSEMAPHORE_QUEUE_ITEM_LENGTH, queueQUEUE_TYPE_COUN
 1229              		.loc 1 728 13
 1230 004c 0222     		movs	r2, #2
 1231 004e 0021     		movs	r1, #0
 1232 0050 7868     		ldr	r0, [r7, #4]
 1233 0052 FFF7FEFF 		bl	xQueueGenericCreate
 1234 0056 7861     		str	r0, [r7, #20]
 729:Middlewares/Third_Party/FreeRTOS/Source/queue.c **** 
 730:Middlewares/Third_Party/FreeRTOS/Source/queue.c **** 		if( xHandle != NULL )
 1235              		.loc 1 730 5
 1236 0058 7B69     		ldr	r3, [r7, #20]
 1237 005a 002B     		cmp	r3, #0
 1238 005c 02D0     		beq	.L70
ARM GAS  C:\Users\jisu8\AppData\Local\Temp\cc12CyhQ.s 			page 39


 731:Middlewares/Third_Party/FreeRTOS/Source/queue.c **** 		{
 732:Middlewares/Third_Party/FreeRTOS/Source/queue.c **** 			( ( Queue_t * ) xHandle )->uxMessagesWaiting = uxInitialCount;
 1239              		.loc 1 732 49
 1240 005e 7B69     		ldr	r3, [r7, #20]
 1241 0060 3A68     		ldr	r2, [r7]
 1242 0062 9A63     		str	r2, [r3, #56]
 1243              	.L70:
 733:Middlewares/Third_Party/FreeRTOS/Source/queue.c **** 
 734:Middlewares/Third_Party/FreeRTOS/Source/queue.c **** 			traceCREATE_COUNTING_SEMAPHORE();
 735:Middlewares/Third_Party/FreeRTOS/Source/queue.c **** 		}
 736:Middlewares/Third_Party/FreeRTOS/Source/queue.c **** 		else
 737:Middlewares/Third_Party/FreeRTOS/Source/queue.c **** 		{
 738:Middlewares/Third_Party/FreeRTOS/Source/queue.c **** 			traceCREATE_COUNTING_SEMAPHORE_FAILED();
 739:Middlewares/Third_Party/FreeRTOS/Source/queue.c **** 		}
 740:Middlewares/Third_Party/FreeRTOS/Source/queue.c **** 
 741:Middlewares/Third_Party/FreeRTOS/Source/queue.c **** 		return xHandle;
 1244              		.loc 1 741 10
 1245 0064 7B69     		ldr	r3, [r7, #20]
 742:Middlewares/Third_Party/FreeRTOS/Source/queue.c **** 	}
 1246              		.loc 1 742 2
 1247 0066 1846     		mov	r0, r3
 1248 0068 1837     		adds	r7, r7, #24
 1249              	.LCFI53:
 1250              		.cfi_def_cfa_offset 8
 1251 006a BD46     		mov	sp, r7
 1252              	.LCFI54:
 1253              		.cfi_def_cfa_register 13
 1254              		@ sp needed
 1255 006c 80BD     		pop	{r7, pc}
 1256              		.cfi_endproc
 1257              	.LFE15:
 1259              		.section	.text.xQueueGenericSend,"ax",%progbits
 1260              		.align	1
 1261              		.global	xQueueGenericSend
 1262              		.syntax unified
 1263              		.thumb
 1264              		.thumb_func
 1266              	xQueueGenericSend:
 1267              	.LFB16:
 743:Middlewares/Third_Party/FreeRTOS/Source/queue.c **** 
 744:Middlewares/Third_Party/FreeRTOS/Source/queue.c **** #endif /* ( ( configUSE_COUNTING_SEMAPHORES == 1 ) && ( configSUPPORT_DYNAMIC_ALLOCATION == 1 ) ) *
 745:Middlewares/Third_Party/FreeRTOS/Source/queue.c **** /*-----------------------------------------------------------*/
 746:Middlewares/Third_Party/FreeRTOS/Source/queue.c **** 
 747:Middlewares/Third_Party/FreeRTOS/Source/queue.c **** BaseType_t xQueueGenericSend( QueueHandle_t xQueue, const void * const pvItemToQueue, TickType_t xT
 748:Middlewares/Third_Party/FreeRTOS/Source/queue.c **** {
 1268              		.loc 1 748 1
 1269              		.cfi_startproc
 1270              		@ args = 0, pretend = 0, frame = 56
 1271              		@ frame_needed = 1, uses_anonymous_args = 0
 1272 0000 80B5     		push	{r7, lr}
 1273              	.LCFI55:
 1274              		.cfi_def_cfa_offset 8
 1275              		.cfi_offset 7, -8
 1276              		.cfi_offset 14, -4
 1277 0002 8EB0     		sub	sp, sp, #56
 1278              	.LCFI56:
 1279              		.cfi_def_cfa_offset 64
ARM GAS  C:\Users\jisu8\AppData\Local\Temp\cc12CyhQ.s 			page 40


 1280 0004 00AF     		add	r7, sp, #0
 1281              	.LCFI57:
 1282              		.cfi_def_cfa_register 7
 1283 0006 F860     		str	r0, [r7, #12]
 1284 0008 B960     		str	r1, [r7, #8]
 1285 000a 7A60     		str	r2, [r7, #4]
 1286 000c 3B60     		str	r3, [r7]
 749:Middlewares/Third_Party/FreeRTOS/Source/queue.c **** BaseType_t xEntryTimeSet = pdFALSE, xYieldRequired;
 1287              		.loc 1 749 12
 1288 000e 0023     		movs	r3, #0
 1289 0010 7B63     		str	r3, [r7, #52]
 750:Middlewares/Third_Party/FreeRTOS/Source/queue.c **** TimeOut_t xTimeOut;
 751:Middlewares/Third_Party/FreeRTOS/Source/queue.c **** Queue_t * const pxQueue = xQueue;
 1290              		.loc 1 751 17
 1291 0012 FB68     		ldr	r3, [r7, #12]
 1292 0014 3B63     		str	r3, [r7, #48]
 752:Middlewares/Third_Party/FreeRTOS/Source/queue.c **** 
 753:Middlewares/Third_Party/FreeRTOS/Source/queue.c **** 	configASSERT( pxQueue );
 1293              		.loc 1 753 2
 1294 0016 3B6B     		ldr	r3, [r7, #48]
 1295 0018 002B     		cmp	r3, #0
 1296 001a 0CD1     		bne	.L73
 1297              	.LBB143:
 1298              	.LBB144:
 195:Middlewares/Third_Party/FreeRTOS/Source/portable/GCC/ARM_CM7/r0p1/portmacro.h **** 	(
 1299              		.loc 2 195 2
 1300              		.syntax unified
 1301              	@ 195 "Middlewares/Third_Party/FreeRTOS/Source/portable/GCC/ARM_CM7/r0p1/portmacro.h" 1
 1302 001c 4FF05003 			mov r3, #80												
 1303 0020 72B6     		cpsid i													
 1304 0022 83F31188 		msr basepri, r3											
 1305 0026 BFF36F8F 		isb														
 1306 002a BFF34F8F 		dsb														
 1307 002e 62B6     		cpsie i													
 1308              	
 1309              	@ 0 "" 2
 1310              		.thumb
 1311              		.syntax unified
 1312 0030 BB62     		str	r3, [r7, #40]
 1313              		.loc 2 205 1
 1314 0032 00BF     		nop
 1315              	.L74:
 1316              	.LBE144:
 1317              	.LBE143:
 1318              		.loc 1 753 2 discriminator 1
 1319 0034 FEE7     		b	.L74
 1320              	.L73:
 754:Middlewares/Third_Party/FreeRTOS/Source/queue.c **** 	configASSERT( !( ( pvItemToQueue == NULL ) && ( pxQueue->uxItemSize != ( UBaseType_t ) 0U ) ) );
 1321              		.loc 1 754 2
 1322 0036 BB68     		ldr	r3, [r7, #8]
 1323 0038 002B     		cmp	r3, #0
 1324 003a 03D1     		bne	.L75
 1325              		.loc 1 754 2 is_stmt 0 discriminator 2
 1326 003c 3B6B     		ldr	r3, [r7, #48]
 1327 003e 1B6C     		ldr	r3, [r3, #64]
 1328 0040 002B     		cmp	r3, #0
 1329 0042 01D1     		bne	.L76
ARM GAS  C:\Users\jisu8\AppData\Local\Temp\cc12CyhQ.s 			page 41


 1330              	.L75:
 1331              		.loc 1 754 2 discriminator 3
 1332 0044 0123     		movs	r3, #1
 1333 0046 00E0     		b	.L77
 1334              	.L76:
 1335              		.loc 1 754 2 discriminator 4
 1336 0048 0023     		movs	r3, #0
 1337              	.L77:
 1338              		.loc 1 754 2 discriminator 6
 1339 004a 002B     		cmp	r3, #0
 1340 004c 0CD1     		bne	.L78
 1341              	.LBB145:
 1342              	.LBB146:
 195:Middlewares/Third_Party/FreeRTOS/Source/portable/GCC/ARM_CM7/r0p1/portmacro.h **** 	(
 1343              		.loc 2 195 2 is_stmt 1
 1344              		.syntax unified
 1345              	@ 195 "Middlewares/Third_Party/FreeRTOS/Source/portable/GCC/ARM_CM7/r0p1/portmacro.h" 1
 1346 004e 4FF05003 			mov r3, #80												
 1347 0052 72B6     		cpsid i													
 1348 0054 83F31188 		msr basepri, r3											
 1349 0058 BFF36F8F 		isb														
 1350 005c BFF34F8F 		dsb														
 1351 0060 62B6     		cpsie i													
 1352              	
 1353              	@ 0 "" 2
 1354              		.thumb
 1355              		.syntax unified
 1356 0062 7B62     		str	r3, [r7, #36]
 1357              		.loc 2 205 1
 1358 0064 00BF     		nop
 1359              	.L79:
 1360              	.LBE146:
 1361              	.LBE145:
 1362              		.loc 1 754 2 discriminator 2
 1363 0066 FEE7     		b	.L79
 1364              	.L78:
 755:Middlewares/Third_Party/FreeRTOS/Source/queue.c **** 	configASSERT( !( ( xCopyPosition == queueOVERWRITE ) && ( pxQueue->uxLength != 1 ) ) );
 1365              		.loc 1 755 2
 1366 0068 3B68     		ldr	r3, [r7]
 1367 006a 022B     		cmp	r3, #2
 1368 006c 03D1     		bne	.L80
 1369              		.loc 1 755 2 is_stmt 0 discriminator 2
 1370 006e 3B6B     		ldr	r3, [r7, #48]
 1371 0070 DB6B     		ldr	r3, [r3, #60]
 1372 0072 012B     		cmp	r3, #1
 1373 0074 01D1     		bne	.L81
 1374              	.L80:
 1375              		.loc 1 755 2 discriminator 3
 1376 0076 0123     		movs	r3, #1
 1377 0078 00E0     		b	.L82
 1378              	.L81:
 1379              		.loc 1 755 2 discriminator 4
 1380 007a 0023     		movs	r3, #0
 1381              	.L82:
 1382              		.loc 1 755 2 discriminator 6
 1383 007c 002B     		cmp	r3, #0
 1384 007e 0CD1     		bne	.L83
ARM GAS  C:\Users\jisu8\AppData\Local\Temp\cc12CyhQ.s 			page 42


 1385              	.LBB147:
 1386              	.LBB148:
 195:Middlewares/Third_Party/FreeRTOS/Source/portable/GCC/ARM_CM7/r0p1/portmacro.h **** 	(
 1387              		.loc 2 195 2 is_stmt 1
 1388              		.syntax unified
 1389              	@ 195 "Middlewares/Third_Party/FreeRTOS/Source/portable/GCC/ARM_CM7/r0p1/portmacro.h" 1
 1390 0080 4FF05003 			mov r3, #80												
 1391 0084 72B6     		cpsid i													
 1392 0086 83F31188 		msr basepri, r3											
 1393 008a BFF36F8F 		isb														
 1394 008e BFF34F8F 		dsb														
 1395 0092 62B6     		cpsie i													
 1396              	
 1397              	@ 0 "" 2
 1398              		.thumb
 1399              		.syntax unified
 1400 0094 3B62     		str	r3, [r7, #32]
 1401              		.loc 2 205 1
 1402 0096 00BF     		nop
 1403              	.L84:
 1404              	.LBE148:
 1405              	.LBE147:
 1406              		.loc 1 755 2 discriminator 3
 1407 0098 FEE7     		b	.L84
 1408              	.L83:
 756:Middlewares/Third_Party/FreeRTOS/Source/queue.c **** 	#if ( ( INCLUDE_xTaskGetSchedulerState == 1 ) || ( configUSE_TIMERS == 1 ) )
 757:Middlewares/Third_Party/FreeRTOS/Source/queue.c **** 	{
 758:Middlewares/Third_Party/FreeRTOS/Source/queue.c **** 		configASSERT( !( ( xTaskGetSchedulerState() == taskSCHEDULER_SUSPENDED ) && ( xTicksToWait != 0 )
 1409              		.loc 1 758 3
 1410 009a FFF7FEFF 		bl	xTaskGetSchedulerState
 1411 009e 0346     		mov	r3, r0
 1412 00a0 002B     		cmp	r3, #0
 1413 00a2 02D1     		bne	.L85
 1414              		.loc 1 758 3 is_stmt 0 discriminator 2
 1415 00a4 7B68     		ldr	r3, [r7, #4]
 1416 00a6 002B     		cmp	r3, #0
 1417 00a8 01D1     		bne	.L86
 1418              	.L85:
 1419              		.loc 1 758 3 discriminator 3
 1420 00aa 0123     		movs	r3, #1
 1421 00ac 00E0     		b	.L87
 1422              	.L86:
 1423              		.loc 1 758 3 discriminator 4
 1424 00ae 0023     		movs	r3, #0
 1425              	.L87:
 1426              		.loc 1 758 3 discriminator 6
 1427 00b0 002B     		cmp	r3, #0
 1428 00b2 0CD1     		bne	.L88
 1429              	.LBB149:
 1430              	.LBB150:
 195:Middlewares/Third_Party/FreeRTOS/Source/portable/GCC/ARM_CM7/r0p1/portmacro.h **** 	(
 1431              		.loc 2 195 2 is_stmt 1
 1432              		.syntax unified
 1433              	@ 195 "Middlewares/Third_Party/FreeRTOS/Source/portable/GCC/ARM_CM7/r0p1/portmacro.h" 1
 1434 00b4 4FF05003 			mov r3, #80												
 1435 00b8 72B6     		cpsid i													
 1436 00ba 83F31188 		msr basepri, r3											
ARM GAS  C:\Users\jisu8\AppData\Local\Temp\cc12CyhQ.s 			page 43


 1437 00be BFF36F8F 		isb														
 1438 00c2 BFF34F8F 		dsb														
 1439 00c6 62B6     		cpsie i													
 1440              	
 1441              	@ 0 "" 2
 1442              		.thumb
 1443              		.syntax unified
 1444 00c8 FB61     		str	r3, [r7, #28]
 1445              		.loc 2 205 1
 1446 00ca 00BF     		nop
 1447              	.L89:
 1448              	.LBE150:
 1449              	.LBE149:
 1450              		.loc 1 758 3 discriminator 4
 1451 00cc FEE7     		b	.L89
 1452              	.L88:
 759:Middlewares/Third_Party/FreeRTOS/Source/queue.c **** 	}
 760:Middlewares/Third_Party/FreeRTOS/Source/queue.c **** 	#endif
 761:Middlewares/Third_Party/FreeRTOS/Source/queue.c **** 
 762:Middlewares/Third_Party/FreeRTOS/Source/queue.c **** 
 763:Middlewares/Third_Party/FreeRTOS/Source/queue.c **** 	/*lint -save -e904 This function relaxes the coding standard somewhat to
 764:Middlewares/Third_Party/FreeRTOS/Source/queue.c **** 	allow return statements within the function itself.  This is done in the
 765:Middlewares/Third_Party/FreeRTOS/Source/queue.c **** 	interest of execution time efficiency. */
 766:Middlewares/Third_Party/FreeRTOS/Source/queue.c **** 	for( ;; )
 767:Middlewares/Third_Party/FreeRTOS/Source/queue.c **** 	{
 768:Middlewares/Third_Party/FreeRTOS/Source/queue.c **** 		taskENTER_CRITICAL();
 1453              		.loc 1 768 3
 1454 00ce FFF7FEFF 		bl	vPortEnterCritical
 769:Middlewares/Third_Party/FreeRTOS/Source/queue.c **** 		{
 770:Middlewares/Third_Party/FreeRTOS/Source/queue.c **** 			/* Is there room on the queue now?  The running task must be the
 771:Middlewares/Third_Party/FreeRTOS/Source/queue.c **** 			highest priority task wanting to access the queue.  If the head item
 772:Middlewares/Third_Party/FreeRTOS/Source/queue.c **** 			in the queue is to be overwritten then it does not matter if the
 773:Middlewares/Third_Party/FreeRTOS/Source/queue.c **** 			queue is full. */
 774:Middlewares/Third_Party/FreeRTOS/Source/queue.c **** 			if( ( pxQueue->uxMessagesWaiting < pxQueue->uxLength ) || ( xCopyPosition == queueOVERWRITE ) )
 1455              		.loc 1 774 17
 1456 00d2 3B6B     		ldr	r3, [r7, #48]
 1457 00d4 9A6B     		ldr	r2, [r3, #56]
 1458              		.loc 1 774 46
 1459 00d6 3B6B     		ldr	r3, [r7, #48]
 1460 00d8 DB6B     		ldr	r3, [r3, #60]
 1461              		.loc 1 774 6
 1462 00da 9A42     		cmp	r2, r3
 1463 00dc 02D3     		bcc	.L90
 1464              		.loc 1 774 59 discriminator 1
 1465 00de 3B68     		ldr	r3, [r7]
 1466 00e0 022B     		cmp	r3, #2
 1467 00e2 29D1     		bne	.L91
 1468              	.L90:
 775:Middlewares/Third_Party/FreeRTOS/Source/queue.c **** 			{
 776:Middlewares/Third_Party/FreeRTOS/Source/queue.c **** 				traceQUEUE_SEND( pxQueue );
 777:Middlewares/Third_Party/FreeRTOS/Source/queue.c **** 
 778:Middlewares/Third_Party/FreeRTOS/Source/queue.c **** 				#if ( configUSE_QUEUE_SETS == 1 )
 779:Middlewares/Third_Party/FreeRTOS/Source/queue.c **** 				{
 780:Middlewares/Third_Party/FreeRTOS/Source/queue.c **** 				UBaseType_t uxPreviousMessagesWaiting = pxQueue->uxMessagesWaiting;
 781:Middlewares/Third_Party/FreeRTOS/Source/queue.c **** 
 782:Middlewares/Third_Party/FreeRTOS/Source/queue.c **** 					xYieldRequired = prvCopyDataToQueue( pxQueue, pvItemToQueue, xCopyPosition );
 783:Middlewares/Third_Party/FreeRTOS/Source/queue.c **** 
ARM GAS  C:\Users\jisu8\AppData\Local\Temp\cc12CyhQ.s 			page 44


 784:Middlewares/Third_Party/FreeRTOS/Source/queue.c **** 					if( pxQueue->pxQueueSetContainer != NULL )
 785:Middlewares/Third_Party/FreeRTOS/Source/queue.c **** 					{
 786:Middlewares/Third_Party/FreeRTOS/Source/queue.c **** 						if( ( xCopyPosition == queueOVERWRITE ) && ( uxPreviousMessagesWaiting != ( UBaseType_t ) 0 )
 787:Middlewares/Third_Party/FreeRTOS/Source/queue.c **** 						{
 788:Middlewares/Third_Party/FreeRTOS/Source/queue.c **** 							/* Do not notify the queue set as an existing item
 789:Middlewares/Third_Party/FreeRTOS/Source/queue.c **** 							was overwritten in the queue so the number of items
 790:Middlewares/Third_Party/FreeRTOS/Source/queue.c **** 							in the queue has not changed. */
 791:Middlewares/Third_Party/FreeRTOS/Source/queue.c **** 							mtCOVERAGE_TEST_MARKER();
 792:Middlewares/Third_Party/FreeRTOS/Source/queue.c **** 						}
 793:Middlewares/Third_Party/FreeRTOS/Source/queue.c **** 						else if( prvNotifyQueueSetContainer( pxQueue, xCopyPosition ) != pdFALSE )
 794:Middlewares/Third_Party/FreeRTOS/Source/queue.c **** 						{
 795:Middlewares/Third_Party/FreeRTOS/Source/queue.c **** 							/* The queue is a member of a queue set, and posting
 796:Middlewares/Third_Party/FreeRTOS/Source/queue.c **** 							to the queue set caused a higher priority task to
 797:Middlewares/Third_Party/FreeRTOS/Source/queue.c **** 							unblock. A context switch is required. */
 798:Middlewares/Third_Party/FreeRTOS/Source/queue.c **** 							queueYIELD_IF_USING_PREEMPTION();
 799:Middlewares/Third_Party/FreeRTOS/Source/queue.c **** 						}
 800:Middlewares/Third_Party/FreeRTOS/Source/queue.c **** 						else
 801:Middlewares/Third_Party/FreeRTOS/Source/queue.c **** 						{
 802:Middlewares/Third_Party/FreeRTOS/Source/queue.c **** 							mtCOVERAGE_TEST_MARKER();
 803:Middlewares/Third_Party/FreeRTOS/Source/queue.c **** 						}
 804:Middlewares/Third_Party/FreeRTOS/Source/queue.c **** 					}
 805:Middlewares/Third_Party/FreeRTOS/Source/queue.c **** 					else
 806:Middlewares/Third_Party/FreeRTOS/Source/queue.c **** 					{
 807:Middlewares/Third_Party/FreeRTOS/Source/queue.c **** 						/* If there was a task waiting for data to arrive on the
 808:Middlewares/Third_Party/FreeRTOS/Source/queue.c **** 						queue then unblock it now. */
 809:Middlewares/Third_Party/FreeRTOS/Source/queue.c **** 						if( listLIST_IS_EMPTY( &( pxQueue->xTasksWaitingToReceive ) ) == pdFALSE )
 810:Middlewares/Third_Party/FreeRTOS/Source/queue.c **** 						{
 811:Middlewares/Third_Party/FreeRTOS/Source/queue.c **** 							if( xTaskRemoveFromEventList( &( pxQueue->xTasksWaitingToReceive ) ) != pdFALSE )
 812:Middlewares/Third_Party/FreeRTOS/Source/queue.c **** 							{
 813:Middlewares/Third_Party/FreeRTOS/Source/queue.c **** 								/* The unblocked task has a priority higher than
 814:Middlewares/Third_Party/FreeRTOS/Source/queue.c **** 								our own so yield immediately.  Yes it is ok to
 815:Middlewares/Third_Party/FreeRTOS/Source/queue.c **** 								do this from within the critical section - the
 816:Middlewares/Third_Party/FreeRTOS/Source/queue.c **** 								kernel takes care of that. */
 817:Middlewares/Third_Party/FreeRTOS/Source/queue.c **** 								queueYIELD_IF_USING_PREEMPTION();
 818:Middlewares/Third_Party/FreeRTOS/Source/queue.c **** 							}
 819:Middlewares/Third_Party/FreeRTOS/Source/queue.c **** 							else
 820:Middlewares/Third_Party/FreeRTOS/Source/queue.c **** 							{
 821:Middlewares/Third_Party/FreeRTOS/Source/queue.c **** 								mtCOVERAGE_TEST_MARKER();
 822:Middlewares/Third_Party/FreeRTOS/Source/queue.c **** 							}
 823:Middlewares/Third_Party/FreeRTOS/Source/queue.c **** 						}
 824:Middlewares/Third_Party/FreeRTOS/Source/queue.c **** 						else if( xYieldRequired != pdFALSE )
 825:Middlewares/Third_Party/FreeRTOS/Source/queue.c **** 						{
 826:Middlewares/Third_Party/FreeRTOS/Source/queue.c **** 							/* This path is a special case that will only get
 827:Middlewares/Third_Party/FreeRTOS/Source/queue.c **** 							executed if the task was holding multiple mutexes
 828:Middlewares/Third_Party/FreeRTOS/Source/queue.c **** 							and the mutexes were given back in an order that is
 829:Middlewares/Third_Party/FreeRTOS/Source/queue.c **** 							different to that in which they were taken. */
 830:Middlewares/Third_Party/FreeRTOS/Source/queue.c **** 							queueYIELD_IF_USING_PREEMPTION();
 831:Middlewares/Third_Party/FreeRTOS/Source/queue.c **** 						}
 832:Middlewares/Third_Party/FreeRTOS/Source/queue.c **** 						else
 833:Middlewares/Third_Party/FreeRTOS/Source/queue.c **** 						{
 834:Middlewares/Third_Party/FreeRTOS/Source/queue.c **** 							mtCOVERAGE_TEST_MARKER();
 835:Middlewares/Third_Party/FreeRTOS/Source/queue.c **** 						}
 836:Middlewares/Third_Party/FreeRTOS/Source/queue.c **** 					}
 837:Middlewares/Third_Party/FreeRTOS/Source/queue.c **** 				}
 838:Middlewares/Third_Party/FreeRTOS/Source/queue.c **** 				#else /* configUSE_QUEUE_SETS */
 839:Middlewares/Third_Party/FreeRTOS/Source/queue.c **** 				{
 840:Middlewares/Third_Party/FreeRTOS/Source/queue.c **** 					xYieldRequired = prvCopyDataToQueue( pxQueue, pvItemToQueue, xCopyPosition );
ARM GAS  C:\Users\jisu8\AppData\Local\Temp\cc12CyhQ.s 			page 45


 1469              		.loc 1 840 23
 1470 00e4 3A68     		ldr	r2, [r7]
 1471 00e6 B968     		ldr	r1, [r7, #8]
 1472 00e8 386B     		ldr	r0, [r7, #48]
 1473 00ea FFF7FEFF 		bl	prvCopyDataToQueue
 1474 00ee F862     		str	r0, [r7, #44]
 841:Middlewares/Third_Party/FreeRTOS/Source/queue.c **** 
 842:Middlewares/Third_Party/FreeRTOS/Source/queue.c **** 					/* If there was a task waiting for data to arrive on the
 843:Middlewares/Third_Party/FreeRTOS/Source/queue.c **** 					queue then unblock it now. */
 844:Middlewares/Third_Party/FreeRTOS/Source/queue.c **** 					if( listLIST_IS_EMPTY( &( pxQueue->xTasksWaitingToReceive ) ) == pdFALSE )
 1475              		.loc 1 844 10
 1476 00f0 3B6B     		ldr	r3, [r7, #48]
 1477 00f2 5B6A     		ldr	r3, [r3, #36]
 1478              		.loc 1 844 8
 1479 00f4 002B     		cmp	r3, #0
 1480 00f6 10D0     		beq	.L92
 845:Middlewares/Third_Party/FreeRTOS/Source/queue.c **** 					{
 846:Middlewares/Third_Party/FreeRTOS/Source/queue.c **** 						if( xTaskRemoveFromEventList( &( pxQueue->xTasksWaitingToReceive ) ) != pdFALSE )
 1481              		.loc 1 846 37
 1482 00f8 3B6B     		ldr	r3, [r7, #48]
 1483 00fa 2433     		adds	r3, r3, #36
 1484              		.loc 1 846 11
 1485 00fc 1846     		mov	r0, r3
 1486 00fe FFF7FEFF 		bl	xTaskRemoveFromEventList
 1487 0102 0346     		mov	r3, r0
 1488              		.loc 1 846 9
 1489 0104 002B     		cmp	r3, #0
 1490 0106 13D0     		beq	.L93
 847:Middlewares/Third_Party/FreeRTOS/Source/queue.c **** 						{
 848:Middlewares/Third_Party/FreeRTOS/Source/queue.c **** 							/* The unblocked task has a priority higher than
 849:Middlewares/Third_Party/FreeRTOS/Source/queue.c **** 							our own so yield immediately.  Yes it is ok to do
 850:Middlewares/Third_Party/FreeRTOS/Source/queue.c **** 							this from within the critical section - the kernel
 851:Middlewares/Third_Party/FreeRTOS/Source/queue.c **** 							takes care of that. */
 852:Middlewares/Third_Party/FreeRTOS/Source/queue.c **** 							queueYIELD_IF_USING_PREEMPTION();
 1491              		.loc 1 852 8
 1492 0108 3F4B     		ldr	r3, .L103
 1493 010a 4FF08052 		mov	r2, #268435456
 1494 010e 1A60     		str	r2, [r3]
 1495              		.syntax unified
 1496              	@ 852 "Middlewares/Third_Party/FreeRTOS/Source/queue.c" 1
 1497 0110 BFF34F8F 		dsb
 1498              	@ 0 "" 2
 1499              	@ 852 "Middlewares/Third_Party/FreeRTOS/Source/queue.c" 1
 1500 0114 BFF36F8F 		isb
 1501              	@ 0 "" 2
 1502              		.thumb
 1503              		.syntax unified
 1504 0118 0AE0     		b	.L93
 1505              	.L92:
 853:Middlewares/Third_Party/FreeRTOS/Source/queue.c **** 						}
 854:Middlewares/Third_Party/FreeRTOS/Source/queue.c **** 						else
 855:Middlewares/Third_Party/FreeRTOS/Source/queue.c **** 						{
 856:Middlewares/Third_Party/FreeRTOS/Source/queue.c **** 							mtCOVERAGE_TEST_MARKER();
 857:Middlewares/Third_Party/FreeRTOS/Source/queue.c **** 						}
 858:Middlewares/Third_Party/FreeRTOS/Source/queue.c **** 					}
 859:Middlewares/Third_Party/FreeRTOS/Source/queue.c **** 					else if( xYieldRequired != pdFALSE )
 1506              		.loc 1 859 13
ARM GAS  C:\Users\jisu8\AppData\Local\Temp\cc12CyhQ.s 			page 46


 1507 011a FB6A     		ldr	r3, [r7, #44]
 1508 011c 002B     		cmp	r3, #0
 1509 011e 07D0     		beq	.L93
 860:Middlewares/Third_Party/FreeRTOS/Source/queue.c **** 					{
 861:Middlewares/Third_Party/FreeRTOS/Source/queue.c **** 						/* This path is a special case that will only get
 862:Middlewares/Third_Party/FreeRTOS/Source/queue.c **** 						executed if the task was holding multiple mutexes and
 863:Middlewares/Third_Party/FreeRTOS/Source/queue.c **** 						the mutexes were given back in an order that is
 864:Middlewares/Third_Party/FreeRTOS/Source/queue.c **** 						different to that in which they were taken. */
 865:Middlewares/Third_Party/FreeRTOS/Source/queue.c **** 						queueYIELD_IF_USING_PREEMPTION();
 1510              		.loc 1 865 7
 1511 0120 394B     		ldr	r3, .L103
 1512 0122 4FF08052 		mov	r2, #268435456
 1513 0126 1A60     		str	r2, [r3]
 1514              		.syntax unified
 1515              	@ 865 "Middlewares/Third_Party/FreeRTOS/Source/queue.c" 1
 1516 0128 BFF34F8F 		dsb
 1517              	@ 0 "" 2
 1518              	@ 865 "Middlewares/Third_Party/FreeRTOS/Source/queue.c" 1
 1519 012c BFF36F8F 		isb
 1520              	@ 0 "" 2
 1521              		.thumb
 1522              		.syntax unified
 1523              	.L93:
 866:Middlewares/Third_Party/FreeRTOS/Source/queue.c **** 					}
 867:Middlewares/Third_Party/FreeRTOS/Source/queue.c **** 					else
 868:Middlewares/Third_Party/FreeRTOS/Source/queue.c **** 					{
 869:Middlewares/Third_Party/FreeRTOS/Source/queue.c **** 						mtCOVERAGE_TEST_MARKER();
 870:Middlewares/Third_Party/FreeRTOS/Source/queue.c **** 					}
 871:Middlewares/Third_Party/FreeRTOS/Source/queue.c **** 				}
 872:Middlewares/Third_Party/FreeRTOS/Source/queue.c **** 				#endif /* configUSE_QUEUE_SETS */
 873:Middlewares/Third_Party/FreeRTOS/Source/queue.c **** 
 874:Middlewares/Third_Party/FreeRTOS/Source/queue.c **** 				taskEXIT_CRITICAL();
 1524              		.loc 1 874 5
 1525 0130 FFF7FEFF 		bl	vPortExitCritical
 875:Middlewares/Third_Party/FreeRTOS/Source/queue.c **** 				return pdPASS;
 1526              		.loc 1 875 12
 1527 0134 0123     		movs	r3, #1
 1528 0136 63E0     		b	.L102
 1529              	.L91:
 876:Middlewares/Third_Party/FreeRTOS/Source/queue.c **** 			}
 877:Middlewares/Third_Party/FreeRTOS/Source/queue.c **** 			else
 878:Middlewares/Third_Party/FreeRTOS/Source/queue.c **** 			{
 879:Middlewares/Third_Party/FreeRTOS/Source/queue.c **** 				if( xTicksToWait == ( TickType_t ) 0 )
 1530              		.loc 1 879 22
 1531 0138 7B68     		ldr	r3, [r7, #4]
 1532              		.loc 1 879 7
 1533 013a 002B     		cmp	r3, #0
 1534 013c 03D1     		bne	.L95
 880:Middlewares/Third_Party/FreeRTOS/Source/queue.c **** 				{
 881:Middlewares/Third_Party/FreeRTOS/Source/queue.c **** 					/* The queue was full and no block time is specified (or
 882:Middlewares/Third_Party/FreeRTOS/Source/queue.c **** 					the block time has expired) so leave now. */
 883:Middlewares/Third_Party/FreeRTOS/Source/queue.c **** 					taskEXIT_CRITICAL();
 1535              		.loc 1 883 6
 1536 013e FFF7FEFF 		bl	vPortExitCritical
 884:Middlewares/Third_Party/FreeRTOS/Source/queue.c **** 
 885:Middlewares/Third_Party/FreeRTOS/Source/queue.c **** 					/* Return to the original privilege level before exiting
 886:Middlewares/Third_Party/FreeRTOS/Source/queue.c **** 					the function. */
ARM GAS  C:\Users\jisu8\AppData\Local\Temp\cc12CyhQ.s 			page 47


 887:Middlewares/Third_Party/FreeRTOS/Source/queue.c **** 					traceQUEUE_SEND_FAILED( pxQueue );
 888:Middlewares/Third_Party/FreeRTOS/Source/queue.c **** 					return errQUEUE_FULL;
 1537              		.loc 1 888 13
 1538 0142 0023     		movs	r3, #0
 1539 0144 5CE0     		b	.L102
 1540              	.L95:
 889:Middlewares/Third_Party/FreeRTOS/Source/queue.c **** 				}
 890:Middlewares/Third_Party/FreeRTOS/Source/queue.c **** 				else if( xEntryTimeSet == pdFALSE )
 1541              		.loc 1 890 12
 1542 0146 7B6B     		ldr	r3, [r7, #52]
 1543 0148 002B     		cmp	r3, #0
 1544 014a 06D1     		bne	.L96
 891:Middlewares/Third_Party/FreeRTOS/Source/queue.c **** 				{
 892:Middlewares/Third_Party/FreeRTOS/Source/queue.c **** 					/* The queue was full and a block time was specified so
 893:Middlewares/Third_Party/FreeRTOS/Source/queue.c **** 					configure the timeout structure. */
 894:Middlewares/Third_Party/FreeRTOS/Source/queue.c **** 					vTaskInternalSetTimeOutState( &xTimeOut );
 1545              		.loc 1 894 6
 1546 014c 07F11403 		add	r3, r7, #20
 1547 0150 1846     		mov	r0, r3
 1548 0152 FFF7FEFF 		bl	vTaskInternalSetTimeOutState
 895:Middlewares/Third_Party/FreeRTOS/Source/queue.c **** 					xEntryTimeSet = pdTRUE;
 1549              		.loc 1 895 20
 1550 0156 0123     		movs	r3, #1
 1551 0158 7B63     		str	r3, [r7, #52]
 1552              	.L96:
 896:Middlewares/Third_Party/FreeRTOS/Source/queue.c **** 				}
 897:Middlewares/Third_Party/FreeRTOS/Source/queue.c **** 				else
 898:Middlewares/Third_Party/FreeRTOS/Source/queue.c **** 				{
 899:Middlewares/Third_Party/FreeRTOS/Source/queue.c **** 					/* Entry time was already set. */
 900:Middlewares/Third_Party/FreeRTOS/Source/queue.c **** 					mtCOVERAGE_TEST_MARKER();
 901:Middlewares/Third_Party/FreeRTOS/Source/queue.c **** 				}
 902:Middlewares/Third_Party/FreeRTOS/Source/queue.c **** 			}
 903:Middlewares/Third_Party/FreeRTOS/Source/queue.c **** 		}
 904:Middlewares/Third_Party/FreeRTOS/Source/queue.c **** 		taskEXIT_CRITICAL();
 1553              		.loc 1 904 3
 1554 015a FFF7FEFF 		bl	vPortExitCritical
 905:Middlewares/Third_Party/FreeRTOS/Source/queue.c **** 
 906:Middlewares/Third_Party/FreeRTOS/Source/queue.c **** 		/* Interrupts and other tasks can send to and receive from the queue
 907:Middlewares/Third_Party/FreeRTOS/Source/queue.c **** 		now the critical section has been exited. */
 908:Middlewares/Third_Party/FreeRTOS/Source/queue.c **** 
 909:Middlewares/Third_Party/FreeRTOS/Source/queue.c **** 		vTaskSuspendAll();
 1555              		.loc 1 909 3
 1556 015e FFF7FEFF 		bl	vTaskSuspendAll
 910:Middlewares/Third_Party/FreeRTOS/Source/queue.c **** 		prvLockQueue( pxQueue );
 1557              		.loc 1 910 3
 1558 0162 FFF7FEFF 		bl	vPortEnterCritical
 1559 0166 3B6B     		ldr	r3, [r7, #48]
 1560 0168 93F84430 		ldrb	r3, [r3, #68]
 1561 016c 5BB2     		sxtb	r3, r3
 1562 016e B3F1FF3F 		cmp	r3, #-1
 1563 0172 03D1     		bne	.L97
 1564              		.loc 1 910 3 is_stmt 0 discriminator 1
 1565 0174 3B6B     		ldr	r3, [r7, #48]
 1566 0176 0022     		movs	r2, #0
 1567 0178 83F84420 		strb	r2, [r3, #68]
 1568              	.L97:
 1569              		.loc 1 910 3 discriminator 3
ARM GAS  C:\Users\jisu8\AppData\Local\Temp\cc12CyhQ.s 			page 48


 1570 017c 3B6B     		ldr	r3, [r7, #48]
 1571 017e 93F84530 		ldrb	r3, [r3, #69]
 1572 0182 5BB2     		sxtb	r3, r3
 1573 0184 B3F1FF3F 		cmp	r3, #-1
 1574 0188 03D1     		bne	.L98
 1575              		.loc 1 910 3 discriminator 4
 1576 018a 3B6B     		ldr	r3, [r7, #48]
 1577 018c 0022     		movs	r2, #0
 1578 018e 83F84520 		strb	r2, [r3, #69]
 1579              	.L98:
 1580              		.loc 1 910 3 discriminator 6
 1581 0192 FFF7FEFF 		bl	vPortExitCritical
 911:Middlewares/Third_Party/FreeRTOS/Source/queue.c **** 
 912:Middlewares/Third_Party/FreeRTOS/Source/queue.c **** 		/* Update the timeout state to see if it has expired yet. */
 913:Middlewares/Third_Party/FreeRTOS/Source/queue.c **** 		if( xTaskCheckForTimeOut( &xTimeOut, &xTicksToWait ) == pdFALSE )
 1582              		.loc 1 913 7 is_stmt 1 discriminator 6
 1583 0196 3A1D     		adds	r2, r7, #4
 1584 0198 07F11403 		add	r3, r7, #20
 1585 019c 1146     		mov	r1, r2
 1586 019e 1846     		mov	r0, r3
 1587 01a0 FFF7FEFF 		bl	xTaskCheckForTimeOut
 1588 01a4 0346     		mov	r3, r0
 1589              		.loc 1 913 5 discriminator 6
 1590 01a6 002B     		cmp	r3, #0
 1591 01a8 24D1     		bne	.L99
 914:Middlewares/Third_Party/FreeRTOS/Source/queue.c **** 		{
 915:Middlewares/Third_Party/FreeRTOS/Source/queue.c **** 			if( prvIsQueueFull( pxQueue ) != pdFALSE )
 1592              		.loc 1 915 8
 1593 01aa 386B     		ldr	r0, [r7, #48]
 1594 01ac FFF7FEFF 		bl	prvIsQueueFull
 1595 01b0 0346     		mov	r3, r0
 1596              		.loc 1 915 6
 1597 01b2 002B     		cmp	r3, #0
 1598 01b4 18D0     		beq	.L100
 916:Middlewares/Third_Party/FreeRTOS/Source/queue.c **** 			{
 917:Middlewares/Third_Party/FreeRTOS/Source/queue.c **** 				traceBLOCKING_ON_QUEUE_SEND( pxQueue );
 918:Middlewares/Third_Party/FreeRTOS/Source/queue.c **** 				vTaskPlaceOnEventList( &( pxQueue->xTasksWaitingToSend ), xTicksToWait );
 1599              		.loc 1 918 5
 1600 01b6 3B6B     		ldr	r3, [r7, #48]
 1601 01b8 1033     		adds	r3, r3, #16
 1602 01ba 7A68     		ldr	r2, [r7, #4]
 1603 01bc 1146     		mov	r1, r2
 1604 01be 1846     		mov	r0, r3
 1605 01c0 FFF7FEFF 		bl	vTaskPlaceOnEventList
 919:Middlewares/Third_Party/FreeRTOS/Source/queue.c **** 
 920:Middlewares/Third_Party/FreeRTOS/Source/queue.c **** 				/* Unlocking the queue means queue events can effect the
 921:Middlewares/Third_Party/FreeRTOS/Source/queue.c **** 				event list.  It is possible that interrupts occurring now
 922:Middlewares/Third_Party/FreeRTOS/Source/queue.c **** 				remove this task from the event list again - but as the
 923:Middlewares/Third_Party/FreeRTOS/Source/queue.c **** 				scheduler is suspended the task will go onto the pending
 924:Middlewares/Third_Party/FreeRTOS/Source/queue.c **** 				ready last instead of the actual ready list. */
 925:Middlewares/Third_Party/FreeRTOS/Source/queue.c **** 				prvUnlockQueue( pxQueue );
 1606              		.loc 1 925 5
 1607 01c4 386B     		ldr	r0, [r7, #48]
 1608 01c6 FFF7FEFF 		bl	prvUnlockQueue
 926:Middlewares/Third_Party/FreeRTOS/Source/queue.c **** 
 927:Middlewares/Third_Party/FreeRTOS/Source/queue.c **** 				/* Resuming the scheduler will move tasks from the pending
 928:Middlewares/Third_Party/FreeRTOS/Source/queue.c **** 				ready list into the ready list - so it is feasible that this
ARM GAS  C:\Users\jisu8\AppData\Local\Temp\cc12CyhQ.s 			page 49


 929:Middlewares/Third_Party/FreeRTOS/Source/queue.c **** 				task is already in a ready list before it yields - in which
 930:Middlewares/Third_Party/FreeRTOS/Source/queue.c **** 				case the yield will not cause a context switch unless there
 931:Middlewares/Third_Party/FreeRTOS/Source/queue.c **** 				is also a higher priority task in the pending ready list. */
 932:Middlewares/Third_Party/FreeRTOS/Source/queue.c **** 				if( xTaskResumeAll() == pdFALSE )
 1609              		.loc 1 932 9
 1610 01ca FFF7FEFF 		bl	xTaskResumeAll
 1611 01ce 0346     		mov	r3, r0
 1612              		.loc 1 932 7
 1613 01d0 002B     		cmp	r3, #0
 1614 01d2 7FF47CAF 		bne	.L88
 933:Middlewares/Third_Party/FreeRTOS/Source/queue.c **** 				{
 934:Middlewares/Third_Party/FreeRTOS/Source/queue.c **** 					portYIELD_WITHIN_API();
 1615              		.loc 1 934 6
 1616 01d6 0C4B     		ldr	r3, .L103
 1617 01d8 4FF08052 		mov	r2, #268435456
 1618 01dc 1A60     		str	r2, [r3]
 1619              		.syntax unified
 1620              	@ 934 "Middlewares/Third_Party/FreeRTOS/Source/queue.c" 1
 1621 01de BFF34F8F 		dsb
 1622              	@ 0 "" 2
 1623              	@ 934 "Middlewares/Third_Party/FreeRTOS/Source/queue.c" 1
 1624 01e2 BFF36F8F 		isb
 1625              	@ 0 "" 2
 1626              		.thumb
 1627              		.syntax unified
 1628 01e6 72E7     		b	.L88
 1629              	.L100:
 935:Middlewares/Third_Party/FreeRTOS/Source/queue.c **** 				}
 936:Middlewares/Third_Party/FreeRTOS/Source/queue.c **** 			}
 937:Middlewares/Third_Party/FreeRTOS/Source/queue.c **** 			else
 938:Middlewares/Third_Party/FreeRTOS/Source/queue.c **** 			{
 939:Middlewares/Third_Party/FreeRTOS/Source/queue.c **** 				/* Try again. */
 940:Middlewares/Third_Party/FreeRTOS/Source/queue.c **** 				prvUnlockQueue( pxQueue );
 1630              		.loc 1 940 5
 1631 01e8 386B     		ldr	r0, [r7, #48]
 1632 01ea FFF7FEFF 		bl	prvUnlockQueue
 941:Middlewares/Third_Party/FreeRTOS/Source/queue.c **** 				( void ) xTaskResumeAll();
 1633              		.loc 1 941 14
 1634 01ee FFF7FEFF 		bl	xTaskResumeAll
 1635 01f2 6CE7     		b	.L88
 1636              	.L99:
 942:Middlewares/Third_Party/FreeRTOS/Source/queue.c **** 			}
 943:Middlewares/Third_Party/FreeRTOS/Source/queue.c **** 		}
 944:Middlewares/Third_Party/FreeRTOS/Source/queue.c **** 		else
 945:Middlewares/Third_Party/FreeRTOS/Source/queue.c **** 		{
 946:Middlewares/Third_Party/FreeRTOS/Source/queue.c **** 			/* The timeout has expired. */
 947:Middlewares/Third_Party/FreeRTOS/Source/queue.c **** 			prvUnlockQueue( pxQueue );
 1637              		.loc 1 947 4
 1638 01f4 386B     		ldr	r0, [r7, #48]
 1639 01f6 FFF7FEFF 		bl	prvUnlockQueue
 948:Middlewares/Third_Party/FreeRTOS/Source/queue.c **** 			( void ) xTaskResumeAll();
 1640              		.loc 1 948 13
 1641 01fa FFF7FEFF 		bl	xTaskResumeAll
 949:Middlewares/Third_Party/FreeRTOS/Source/queue.c **** 
 950:Middlewares/Third_Party/FreeRTOS/Source/queue.c **** 			traceQUEUE_SEND_FAILED( pxQueue );
 951:Middlewares/Third_Party/FreeRTOS/Source/queue.c **** 			return errQUEUE_FULL;
 1642              		.loc 1 951 11
ARM GAS  C:\Users\jisu8\AppData\Local\Temp\cc12CyhQ.s 			page 50


 1643 01fe 0023     		movs	r3, #0
 1644              	.L102:
 952:Middlewares/Third_Party/FreeRTOS/Source/queue.c **** 		}
 953:Middlewares/Third_Party/FreeRTOS/Source/queue.c **** 	} /*lint -restore */
 954:Middlewares/Third_Party/FreeRTOS/Source/queue.c **** }
 1645              		.loc 1 954 1 discriminator 7
 1646 0200 1846     		mov	r0, r3
 1647 0202 3837     		adds	r7, r7, #56
 1648              	.LCFI58:
 1649              		.cfi_def_cfa_offset 8
 1650 0204 BD46     		mov	sp, r7
 1651              	.LCFI59:
 1652              		.cfi_def_cfa_register 13
 1653              		@ sp needed
 1654 0206 80BD     		pop	{r7, pc}
 1655              	.L104:
 1656              		.align	2
 1657              	.L103:
 1658 0208 04ED00E0 		.word	-536810236
 1659              		.cfi_endproc
 1660              	.LFE16:
 1662              		.section	.text.xQueueGenericSendFromISR,"ax",%progbits
 1663              		.align	1
 1664              		.global	xQueueGenericSendFromISR
 1665              		.syntax unified
 1666              		.thumb
 1667              		.thumb_func
 1669              	xQueueGenericSendFromISR:
 1670              	.LFB17:
 955:Middlewares/Third_Party/FreeRTOS/Source/queue.c **** /*-----------------------------------------------------------*/
 956:Middlewares/Third_Party/FreeRTOS/Source/queue.c **** 
 957:Middlewares/Third_Party/FreeRTOS/Source/queue.c **** BaseType_t xQueueGenericSendFromISR( QueueHandle_t xQueue, const void * const pvItemToQueue, BaseTy
 958:Middlewares/Third_Party/FreeRTOS/Source/queue.c **** {
 1671              		.loc 1 958 1
 1672              		.cfi_startproc
 1673              		@ args = 0, pretend = 0, frame = 56
 1674              		@ frame_needed = 1, uses_anonymous_args = 0
 1675 0000 80B5     		push	{r7, lr}
 1676              	.LCFI60:
 1677              		.cfi_def_cfa_offset 8
 1678              		.cfi_offset 7, -8
 1679              		.cfi_offset 14, -4
 1680 0002 8EB0     		sub	sp, sp, #56
 1681              	.LCFI61:
 1682              		.cfi_def_cfa_offset 64
 1683 0004 00AF     		add	r7, sp, #0
 1684              	.LCFI62:
 1685              		.cfi_def_cfa_register 7
 1686 0006 F860     		str	r0, [r7, #12]
 1687 0008 B960     		str	r1, [r7, #8]
 1688 000a 7A60     		str	r2, [r7, #4]
 1689 000c 3B60     		str	r3, [r7]
 959:Middlewares/Third_Party/FreeRTOS/Source/queue.c **** BaseType_t xReturn;
 960:Middlewares/Third_Party/FreeRTOS/Source/queue.c **** UBaseType_t uxSavedInterruptStatus;
 961:Middlewares/Third_Party/FreeRTOS/Source/queue.c **** Queue_t * const pxQueue = xQueue;
 1690              		.loc 1 961 17
 1691 000e FB68     		ldr	r3, [r7, #12]
ARM GAS  C:\Users\jisu8\AppData\Local\Temp\cc12CyhQ.s 			page 51


 1692 0010 3B63     		str	r3, [r7, #48]
 962:Middlewares/Third_Party/FreeRTOS/Source/queue.c **** 
 963:Middlewares/Third_Party/FreeRTOS/Source/queue.c **** 	configASSERT( pxQueue );
 1693              		.loc 1 963 2
 1694 0012 3B6B     		ldr	r3, [r7, #48]
 1695 0014 002B     		cmp	r3, #0
 1696 0016 0CD1     		bne	.L106
 1697              	.LBB151:
 1698              	.LBB152:
 195:Middlewares/Third_Party/FreeRTOS/Source/portable/GCC/ARM_CM7/r0p1/portmacro.h **** 	(
 1699              		.loc 2 195 2
 1700              		.syntax unified
 1701              	@ 195 "Middlewares/Third_Party/FreeRTOS/Source/portable/GCC/ARM_CM7/r0p1/portmacro.h" 1
 1702 0018 4FF05003 			mov r3, #80												
 1703 001c 72B6     		cpsid i													
 1704 001e 83F31188 		msr basepri, r3											
 1705 0022 BFF36F8F 		isb														
 1706 0026 BFF34F8F 		dsb														
 1707 002a 62B6     		cpsie i													
 1708              	
 1709              	@ 0 "" 2
 1710              		.thumb
 1711              		.syntax unified
 1712 002c 7B62     		str	r3, [r7, #36]
 1713              		.loc 2 205 1
 1714 002e 00BF     		nop
 1715              	.L107:
 1716              	.LBE152:
 1717              	.LBE151:
 1718              		.loc 1 963 2 discriminator 1
 1719 0030 FEE7     		b	.L107
 1720              	.L106:
 964:Middlewares/Third_Party/FreeRTOS/Source/queue.c **** 	configASSERT( !( ( pvItemToQueue == NULL ) && ( pxQueue->uxItemSize != ( UBaseType_t ) 0U ) ) );
 1721              		.loc 1 964 2
 1722 0032 BB68     		ldr	r3, [r7, #8]
 1723 0034 002B     		cmp	r3, #0
 1724 0036 03D1     		bne	.L108
 1725              		.loc 1 964 2 is_stmt 0 discriminator 2
 1726 0038 3B6B     		ldr	r3, [r7, #48]
 1727 003a 1B6C     		ldr	r3, [r3, #64]
 1728 003c 002B     		cmp	r3, #0
 1729 003e 01D1     		bne	.L109
 1730              	.L108:
 1731              		.loc 1 964 2 discriminator 3
 1732 0040 0123     		movs	r3, #1
 1733 0042 00E0     		b	.L110
 1734              	.L109:
 1735              		.loc 1 964 2 discriminator 4
 1736 0044 0023     		movs	r3, #0
 1737              	.L110:
 1738              		.loc 1 964 2 discriminator 6
 1739 0046 002B     		cmp	r3, #0
 1740 0048 0CD1     		bne	.L111
 1741              	.LBB153:
 1742              	.LBB154:
 195:Middlewares/Third_Party/FreeRTOS/Source/portable/GCC/ARM_CM7/r0p1/portmacro.h **** 	(
 1743              		.loc 2 195 2 is_stmt 1
ARM GAS  C:\Users\jisu8\AppData\Local\Temp\cc12CyhQ.s 			page 52


 1744              		.syntax unified
 1745              	@ 195 "Middlewares/Third_Party/FreeRTOS/Source/portable/GCC/ARM_CM7/r0p1/portmacro.h" 1
 1746 004a 4FF05003 			mov r3, #80												
 1747 004e 72B6     		cpsid i													
 1748 0050 83F31188 		msr basepri, r3											
 1749 0054 BFF36F8F 		isb														
 1750 0058 BFF34F8F 		dsb														
 1751 005c 62B6     		cpsie i													
 1752              	
 1753              	@ 0 "" 2
 1754              		.thumb
 1755              		.syntax unified
 1756 005e 3B62     		str	r3, [r7, #32]
 1757              		.loc 2 205 1
 1758 0060 00BF     		nop
 1759              	.L112:
 1760              	.LBE154:
 1761              	.LBE153:
 1762              		.loc 1 964 2 discriminator 2
 1763 0062 FEE7     		b	.L112
 1764              	.L111:
 965:Middlewares/Third_Party/FreeRTOS/Source/queue.c **** 	configASSERT( !( ( xCopyPosition == queueOVERWRITE ) && ( pxQueue->uxLength != 1 ) ) );
 1765              		.loc 1 965 2
 1766 0064 3B68     		ldr	r3, [r7]
 1767 0066 022B     		cmp	r3, #2
 1768 0068 03D1     		bne	.L113
 1769              		.loc 1 965 2 is_stmt 0 discriminator 2
 1770 006a 3B6B     		ldr	r3, [r7, #48]
 1771 006c DB6B     		ldr	r3, [r3, #60]
 1772 006e 012B     		cmp	r3, #1
 1773 0070 01D1     		bne	.L114
 1774              	.L113:
 1775              		.loc 1 965 2 discriminator 3
 1776 0072 0123     		movs	r3, #1
 1777 0074 00E0     		b	.L115
 1778              	.L114:
 1779              		.loc 1 965 2 discriminator 4
 1780 0076 0023     		movs	r3, #0
 1781              	.L115:
 1782              		.loc 1 965 2 discriminator 6
 1783 0078 002B     		cmp	r3, #0
 1784 007a 0CD1     		bne	.L116
 1785              	.LBB155:
 1786              	.LBB156:
 195:Middlewares/Third_Party/FreeRTOS/Source/portable/GCC/ARM_CM7/r0p1/portmacro.h **** 	(
 1787              		.loc 2 195 2 is_stmt 1
 1788              		.syntax unified
 1789              	@ 195 "Middlewares/Third_Party/FreeRTOS/Source/portable/GCC/ARM_CM7/r0p1/portmacro.h" 1
 1790 007c 4FF05003 			mov r3, #80												
 1791 0080 72B6     		cpsid i													
 1792 0082 83F31188 		msr basepri, r3											
 1793 0086 BFF36F8F 		isb														
 1794 008a BFF34F8F 		dsb														
 1795 008e 62B6     		cpsie i													
 1796              	
 1797              	@ 0 "" 2
 1798              		.thumb
ARM GAS  C:\Users\jisu8\AppData\Local\Temp\cc12CyhQ.s 			page 53


 1799              		.syntax unified
 1800 0090 FB61     		str	r3, [r7, #28]
 1801              		.loc 2 205 1
 1802 0092 00BF     		nop
 1803              	.L117:
 1804              	.LBE156:
 1805              	.LBE155:
 1806              		.loc 1 965 2 discriminator 3
 1807 0094 FEE7     		b	.L117
 1808              	.L116:
 966:Middlewares/Third_Party/FreeRTOS/Source/queue.c **** 
 967:Middlewares/Third_Party/FreeRTOS/Source/queue.c **** 	/* RTOS ports that support interrupt nesting have the concept of a maximum
 968:Middlewares/Third_Party/FreeRTOS/Source/queue.c **** 	system call (or maximum API call) interrupt priority.  Interrupts that are
 969:Middlewares/Third_Party/FreeRTOS/Source/queue.c **** 	above the maximum system call priority are kept permanently enabled, even
 970:Middlewares/Third_Party/FreeRTOS/Source/queue.c **** 	when the RTOS kernel is in a critical section, but cannot make any calls to
 971:Middlewares/Third_Party/FreeRTOS/Source/queue.c **** 	FreeRTOS API functions.  If configASSERT() is defined in FreeRTOSConfig.h
 972:Middlewares/Third_Party/FreeRTOS/Source/queue.c **** 	then portASSERT_IF_INTERRUPT_PRIORITY_INVALID() will result in an assertion
 973:Middlewares/Third_Party/FreeRTOS/Source/queue.c **** 	failure if a FreeRTOS API function is called from an interrupt that has been
 974:Middlewares/Third_Party/FreeRTOS/Source/queue.c **** 	assigned a priority above the configured maximum system call priority.
 975:Middlewares/Third_Party/FreeRTOS/Source/queue.c **** 	Only FreeRTOS functions that end in FromISR can be called from interrupts
 976:Middlewares/Third_Party/FreeRTOS/Source/queue.c **** 	that have been assigned a priority at or (logically) below the maximum
 977:Middlewares/Third_Party/FreeRTOS/Source/queue.c **** 	system call	interrupt priority.  FreeRTOS maintains a separate interrupt
 978:Middlewares/Third_Party/FreeRTOS/Source/queue.c **** 	safe API to ensure interrupt entry is as fast and as simple as possible.
 979:Middlewares/Third_Party/FreeRTOS/Source/queue.c **** 	More information (albeit Cortex-M specific) is provided on the following
 980:Middlewares/Third_Party/FreeRTOS/Source/queue.c **** 	link: http://www.freertos.org/RTOS-Cortex-M3-M4.html */
 981:Middlewares/Third_Party/FreeRTOS/Source/queue.c **** 	portASSERT_IF_INTERRUPT_PRIORITY_INVALID();
 1809              		.loc 1 981 2
 1810 0096 FFF7FEFF 		bl	vPortValidateInterruptPriority
 1811              	.LBB157:
 1812              	.LBB158:
 206:Middlewares/Third_Party/FreeRTOS/Source/portable/GCC/ARM_CM7/r0p1/portmacro.h **** 
 207:Middlewares/Third_Party/FreeRTOS/Source/portable/GCC/ARM_CM7/r0p1/portmacro.h **** /*-----------------------------------------------------------*/
 208:Middlewares/Third_Party/FreeRTOS/Source/portable/GCC/ARM_CM7/r0p1/portmacro.h **** 
 209:Middlewares/Third_Party/FreeRTOS/Source/portable/GCC/ARM_CM7/r0p1/portmacro.h **** portFORCE_INLINE static uint32_t ulPortRaiseBASEPRI( void )
 210:Middlewares/Third_Party/FreeRTOS/Source/portable/GCC/ARM_CM7/r0p1/portmacro.h **** {
 211:Middlewares/Third_Party/FreeRTOS/Source/portable/GCC/ARM_CM7/r0p1/portmacro.h **** uint32_t ulOriginalBASEPRI, ulNewBASEPRI;
 212:Middlewares/Third_Party/FreeRTOS/Source/portable/GCC/ARM_CM7/r0p1/portmacro.h **** 
 213:Middlewares/Third_Party/FreeRTOS/Source/portable/GCC/ARM_CM7/r0p1/portmacro.h **** 	__asm volatile
 1813              		.loc 2 213 2
 1814              		.syntax unified
 1815              	@ 213 "Middlewares/Third_Party/FreeRTOS/Source/portable/GCC/ARM_CM7/r0p1/portmacro.h" 1
 1816 009a EFF31182 			mrs r2, basepri											
 1817 009e 4FF05003 		mov r3, #80												
 1818 00a2 72B6     		cpsid i													
 1819 00a4 83F31188 		msr basepri, r3											
 1820 00a8 BFF36F8F 		isb														
 1821 00ac BFF34F8F 		dsb														
 1822 00b0 62B6     		cpsie i													
 1823              	
 1824              	@ 0 "" 2
 1825              		.thumb
 1826              		.syntax unified
 1827 00b2 BA61     		str	r2, [r7, #24]
 1828 00b4 7B61     		str	r3, [r7, #20]
 214:Middlewares/Third_Party/FreeRTOS/Source/portable/GCC/ARM_CM7/r0p1/portmacro.h **** 	(
 215:Middlewares/Third_Party/FreeRTOS/Source/portable/GCC/ARM_CM7/r0p1/portmacro.h **** 		"	mrs %0, basepri											\n" \
 216:Middlewares/Third_Party/FreeRTOS/Source/portable/GCC/ARM_CM7/r0p1/portmacro.h **** 		"	mov %1, %2												\n"	\
ARM GAS  C:\Users\jisu8\AppData\Local\Temp\cc12CyhQ.s 			page 54


 217:Middlewares/Third_Party/FreeRTOS/Source/portable/GCC/ARM_CM7/r0p1/portmacro.h **** 		"	cpsid i													\n" \
 218:Middlewares/Third_Party/FreeRTOS/Source/portable/GCC/ARM_CM7/r0p1/portmacro.h **** 		"	msr basepri, %1											\n" \
 219:Middlewares/Third_Party/FreeRTOS/Source/portable/GCC/ARM_CM7/r0p1/portmacro.h **** 		"	isb														\n" \
 220:Middlewares/Third_Party/FreeRTOS/Source/portable/GCC/ARM_CM7/r0p1/portmacro.h **** 		"	dsb														\n" \
 221:Middlewares/Third_Party/FreeRTOS/Source/portable/GCC/ARM_CM7/r0p1/portmacro.h **** 		"	cpsie i													\n" \
 222:Middlewares/Third_Party/FreeRTOS/Source/portable/GCC/ARM_CM7/r0p1/portmacro.h **** 		:"=r" (ulOriginalBASEPRI), "=r" (ulNewBASEPRI) : "i" ( configMAX_SYSCALL_INTERRUPT_PRIORITY ) : "
 223:Middlewares/Third_Party/FreeRTOS/Source/portable/GCC/ARM_CM7/r0p1/portmacro.h **** 	);
 224:Middlewares/Third_Party/FreeRTOS/Source/portable/GCC/ARM_CM7/r0p1/portmacro.h **** 
 225:Middlewares/Third_Party/FreeRTOS/Source/portable/GCC/ARM_CM7/r0p1/portmacro.h **** 	/* This return will not be reached but is necessary to prevent compiler
 226:Middlewares/Third_Party/FreeRTOS/Source/portable/GCC/ARM_CM7/r0p1/portmacro.h **** 	warnings. */
 227:Middlewares/Third_Party/FreeRTOS/Source/portable/GCC/ARM_CM7/r0p1/portmacro.h **** 	return ulOriginalBASEPRI;
 1829              		.loc 2 227 9
 1830 00b6 BB69     		ldr	r3, [r7, #24]
 1831              	.LBE158:
 1832              	.LBE157:
 982:Middlewares/Third_Party/FreeRTOS/Source/queue.c **** 
 983:Middlewares/Third_Party/FreeRTOS/Source/queue.c **** 	/* Similar to xQueueGenericSend, except without blocking if there is no room
 984:Middlewares/Third_Party/FreeRTOS/Source/queue.c **** 	in the queue.  Also don't directly wake a task that was blocked on a queue
 985:Middlewares/Third_Party/FreeRTOS/Source/queue.c **** 	read, instead return a flag to say whether a context switch is required or
 986:Middlewares/Third_Party/FreeRTOS/Source/queue.c **** 	not (i.e. has a task with a higher priority than us been woken by this
 987:Middlewares/Third_Party/FreeRTOS/Source/queue.c **** 	post). */
 988:Middlewares/Third_Party/FreeRTOS/Source/queue.c **** 	uxSavedInterruptStatus = portSET_INTERRUPT_MASK_FROM_ISR();
 1833              		.loc 1 988 27
 1834 00b8 FB62     		str	r3, [r7, #44]
 989:Middlewares/Third_Party/FreeRTOS/Source/queue.c **** 	{
 990:Middlewares/Third_Party/FreeRTOS/Source/queue.c **** 		if( ( pxQueue->uxMessagesWaiting < pxQueue->uxLength ) || ( xCopyPosition == queueOVERWRITE ) )
 1835              		.loc 1 990 16
 1836 00ba 3B6B     		ldr	r3, [r7, #48]
 1837 00bc 9A6B     		ldr	r2, [r3, #56]
 1838              		.loc 1 990 45
 1839 00be 3B6B     		ldr	r3, [r7, #48]
 1840 00c0 DB6B     		ldr	r3, [r3, #60]
 1841              		.loc 1 990 5
 1842 00c2 9A42     		cmp	r2, r3
 1843 00c4 02D3     		bcc	.L119
 1844              		.loc 1 990 58 discriminator 1
 1845 00c6 3B68     		ldr	r3, [r7]
 1846 00c8 022B     		cmp	r3, #2
 1847 00ca 2CD1     		bne	.L120
 1848              	.L119:
 1849              	.LBB159:
 991:Middlewares/Third_Party/FreeRTOS/Source/queue.c **** 		{
 992:Middlewares/Third_Party/FreeRTOS/Source/queue.c **** 			const int8_t cTxLock = pxQueue->cTxLock;
 1850              		.loc 1 992 17
 1851 00cc 3B6B     		ldr	r3, [r7, #48]
 1852 00ce 93F84530 		ldrb	r3, [r3, #69]
 1853 00d2 87F82B30 		strb	r3, [r7, #43]
 993:Middlewares/Third_Party/FreeRTOS/Source/queue.c **** 
 994:Middlewares/Third_Party/FreeRTOS/Source/queue.c **** 			traceQUEUE_SEND_FROM_ISR( pxQueue );
 995:Middlewares/Third_Party/FreeRTOS/Source/queue.c **** 
 996:Middlewares/Third_Party/FreeRTOS/Source/queue.c **** 			/* Semaphores use xQueueGiveFromISR(), so pxQueue will not be a
 997:Middlewares/Third_Party/FreeRTOS/Source/queue.c **** 			semaphore or mutex.  That means prvCopyDataToQueue() cannot result
 998:Middlewares/Third_Party/FreeRTOS/Source/queue.c **** 			in a task disinheriting a priority and prvCopyDataToQueue() can be
 999:Middlewares/Third_Party/FreeRTOS/Source/queue.c **** 			called here even though the disinherit function does not check if
1000:Middlewares/Third_Party/FreeRTOS/Source/queue.c **** 			the scheduler is suspended before accessing the ready lists. */
1001:Middlewares/Third_Party/FreeRTOS/Source/queue.c **** 			( void ) prvCopyDataToQueue( pxQueue, pvItemToQueue, xCopyPosition );
 1854              		.loc 1 1001 13
ARM GAS  C:\Users\jisu8\AppData\Local\Temp\cc12CyhQ.s 			page 55


 1855 00d6 3A68     		ldr	r2, [r7]
 1856 00d8 B968     		ldr	r1, [r7, #8]
 1857 00da 386B     		ldr	r0, [r7, #48]
 1858 00dc FFF7FEFF 		bl	prvCopyDataToQueue
1002:Middlewares/Third_Party/FreeRTOS/Source/queue.c **** 
1003:Middlewares/Third_Party/FreeRTOS/Source/queue.c **** 			/* The event list is not altered if the queue is locked.  This will
1004:Middlewares/Third_Party/FreeRTOS/Source/queue.c **** 			be done when the queue is unlocked later. */
1005:Middlewares/Third_Party/FreeRTOS/Source/queue.c **** 			if( cTxLock == queueUNLOCKED )
 1859              		.loc 1 1005 6
 1860 00e0 97F92B30 		ldrsb	r3, [r7, #43]
 1861 00e4 B3F1FF3F 		cmp	r3, #-1
 1862 00e8 12D1     		bne	.L121
1006:Middlewares/Third_Party/FreeRTOS/Source/queue.c **** 			{
1007:Middlewares/Third_Party/FreeRTOS/Source/queue.c **** 				#if ( configUSE_QUEUE_SETS == 1 )
1008:Middlewares/Third_Party/FreeRTOS/Source/queue.c **** 				{
1009:Middlewares/Third_Party/FreeRTOS/Source/queue.c **** 					if( pxQueue->pxQueueSetContainer != NULL )
1010:Middlewares/Third_Party/FreeRTOS/Source/queue.c **** 					{
1011:Middlewares/Third_Party/FreeRTOS/Source/queue.c **** 						if( prvNotifyQueueSetContainer( pxQueue, xCopyPosition ) != pdFALSE )
1012:Middlewares/Third_Party/FreeRTOS/Source/queue.c **** 						{
1013:Middlewares/Third_Party/FreeRTOS/Source/queue.c **** 							/* The queue is a member of a queue set, and posting
1014:Middlewares/Third_Party/FreeRTOS/Source/queue.c **** 							to the queue set caused a higher priority task to
1015:Middlewares/Third_Party/FreeRTOS/Source/queue.c **** 							unblock.  A context switch is required. */
1016:Middlewares/Third_Party/FreeRTOS/Source/queue.c **** 							if( pxHigherPriorityTaskWoken != NULL )
1017:Middlewares/Third_Party/FreeRTOS/Source/queue.c **** 							{
1018:Middlewares/Third_Party/FreeRTOS/Source/queue.c **** 								*pxHigherPriorityTaskWoken = pdTRUE;
1019:Middlewares/Third_Party/FreeRTOS/Source/queue.c **** 							}
1020:Middlewares/Third_Party/FreeRTOS/Source/queue.c **** 							else
1021:Middlewares/Third_Party/FreeRTOS/Source/queue.c **** 							{
1022:Middlewares/Third_Party/FreeRTOS/Source/queue.c **** 								mtCOVERAGE_TEST_MARKER();
1023:Middlewares/Third_Party/FreeRTOS/Source/queue.c **** 							}
1024:Middlewares/Third_Party/FreeRTOS/Source/queue.c **** 						}
1025:Middlewares/Third_Party/FreeRTOS/Source/queue.c **** 						else
1026:Middlewares/Third_Party/FreeRTOS/Source/queue.c **** 						{
1027:Middlewares/Third_Party/FreeRTOS/Source/queue.c **** 							mtCOVERAGE_TEST_MARKER();
1028:Middlewares/Third_Party/FreeRTOS/Source/queue.c **** 						}
1029:Middlewares/Third_Party/FreeRTOS/Source/queue.c **** 					}
1030:Middlewares/Third_Party/FreeRTOS/Source/queue.c **** 					else
1031:Middlewares/Third_Party/FreeRTOS/Source/queue.c **** 					{
1032:Middlewares/Third_Party/FreeRTOS/Source/queue.c **** 						if( listLIST_IS_EMPTY( &( pxQueue->xTasksWaitingToReceive ) ) == pdFALSE )
1033:Middlewares/Third_Party/FreeRTOS/Source/queue.c **** 						{
1034:Middlewares/Third_Party/FreeRTOS/Source/queue.c **** 							if( xTaskRemoveFromEventList( &( pxQueue->xTasksWaitingToReceive ) ) != pdFALSE )
1035:Middlewares/Third_Party/FreeRTOS/Source/queue.c **** 							{
1036:Middlewares/Third_Party/FreeRTOS/Source/queue.c **** 								/* The task waiting has a higher priority so
1037:Middlewares/Third_Party/FreeRTOS/Source/queue.c **** 								record that a context switch is required. */
1038:Middlewares/Third_Party/FreeRTOS/Source/queue.c **** 								if( pxHigherPriorityTaskWoken != NULL )
1039:Middlewares/Third_Party/FreeRTOS/Source/queue.c **** 								{
1040:Middlewares/Third_Party/FreeRTOS/Source/queue.c **** 									*pxHigherPriorityTaskWoken = pdTRUE;
1041:Middlewares/Third_Party/FreeRTOS/Source/queue.c **** 								}
1042:Middlewares/Third_Party/FreeRTOS/Source/queue.c **** 								else
1043:Middlewares/Third_Party/FreeRTOS/Source/queue.c **** 								{
1044:Middlewares/Third_Party/FreeRTOS/Source/queue.c **** 									mtCOVERAGE_TEST_MARKER();
1045:Middlewares/Third_Party/FreeRTOS/Source/queue.c **** 								}
1046:Middlewares/Third_Party/FreeRTOS/Source/queue.c **** 							}
1047:Middlewares/Third_Party/FreeRTOS/Source/queue.c **** 							else
1048:Middlewares/Third_Party/FreeRTOS/Source/queue.c **** 							{
1049:Middlewares/Third_Party/FreeRTOS/Source/queue.c **** 								mtCOVERAGE_TEST_MARKER();
1050:Middlewares/Third_Party/FreeRTOS/Source/queue.c **** 							}
ARM GAS  C:\Users\jisu8\AppData\Local\Temp\cc12CyhQ.s 			page 56


1051:Middlewares/Third_Party/FreeRTOS/Source/queue.c **** 						}
1052:Middlewares/Third_Party/FreeRTOS/Source/queue.c **** 						else
1053:Middlewares/Third_Party/FreeRTOS/Source/queue.c **** 						{
1054:Middlewares/Third_Party/FreeRTOS/Source/queue.c **** 							mtCOVERAGE_TEST_MARKER();
1055:Middlewares/Third_Party/FreeRTOS/Source/queue.c **** 						}
1056:Middlewares/Third_Party/FreeRTOS/Source/queue.c **** 					}
1057:Middlewares/Third_Party/FreeRTOS/Source/queue.c **** 				}
1058:Middlewares/Third_Party/FreeRTOS/Source/queue.c **** 				#else /* configUSE_QUEUE_SETS */
1059:Middlewares/Third_Party/FreeRTOS/Source/queue.c **** 				{
1060:Middlewares/Third_Party/FreeRTOS/Source/queue.c **** 					if( listLIST_IS_EMPTY( &( pxQueue->xTasksWaitingToReceive ) ) == pdFALSE )
 1863              		.loc 1 1060 10
 1864 00ea 3B6B     		ldr	r3, [r7, #48]
 1865 00ec 5B6A     		ldr	r3, [r3, #36]
 1866              		.loc 1 1060 8
 1867 00ee 002B     		cmp	r3, #0
 1868 00f0 16D0     		beq	.L122
1061:Middlewares/Third_Party/FreeRTOS/Source/queue.c **** 					{
1062:Middlewares/Third_Party/FreeRTOS/Source/queue.c **** 						if( xTaskRemoveFromEventList( &( pxQueue->xTasksWaitingToReceive ) ) != pdFALSE )
 1869              		.loc 1 1062 37
 1870 00f2 3B6B     		ldr	r3, [r7, #48]
 1871 00f4 2433     		adds	r3, r3, #36
 1872              		.loc 1 1062 11
 1873 00f6 1846     		mov	r0, r3
 1874 00f8 FFF7FEFF 		bl	xTaskRemoveFromEventList
 1875 00fc 0346     		mov	r3, r0
 1876              		.loc 1 1062 9
 1877 00fe 002B     		cmp	r3, #0
 1878 0100 0ED0     		beq	.L122
1063:Middlewares/Third_Party/FreeRTOS/Source/queue.c **** 						{
1064:Middlewares/Third_Party/FreeRTOS/Source/queue.c **** 							/* The task waiting has a higher priority so record that a
1065:Middlewares/Third_Party/FreeRTOS/Source/queue.c **** 							context	switch is required. */
1066:Middlewares/Third_Party/FreeRTOS/Source/queue.c **** 							if( pxHigherPriorityTaskWoken != NULL )
 1879              		.loc 1 1066 10
 1880 0102 7B68     		ldr	r3, [r7, #4]
 1881 0104 002B     		cmp	r3, #0
 1882 0106 0BD0     		beq	.L122
1067:Middlewares/Third_Party/FreeRTOS/Source/queue.c **** 							{
1068:Middlewares/Third_Party/FreeRTOS/Source/queue.c **** 								*pxHigherPriorityTaskWoken = pdTRUE;
 1883              		.loc 1 1068 36
 1884 0108 7B68     		ldr	r3, [r7, #4]
 1885 010a 0122     		movs	r2, #1
 1886 010c 1A60     		str	r2, [r3]
 1887 010e 07E0     		b	.L122
 1888              	.L121:
1069:Middlewares/Third_Party/FreeRTOS/Source/queue.c **** 							}
1070:Middlewares/Third_Party/FreeRTOS/Source/queue.c **** 							else
1071:Middlewares/Third_Party/FreeRTOS/Source/queue.c **** 							{
1072:Middlewares/Third_Party/FreeRTOS/Source/queue.c **** 								mtCOVERAGE_TEST_MARKER();
1073:Middlewares/Third_Party/FreeRTOS/Source/queue.c **** 							}
1074:Middlewares/Third_Party/FreeRTOS/Source/queue.c **** 						}
1075:Middlewares/Third_Party/FreeRTOS/Source/queue.c **** 						else
1076:Middlewares/Third_Party/FreeRTOS/Source/queue.c **** 						{
1077:Middlewares/Third_Party/FreeRTOS/Source/queue.c **** 							mtCOVERAGE_TEST_MARKER();
1078:Middlewares/Third_Party/FreeRTOS/Source/queue.c **** 						}
1079:Middlewares/Third_Party/FreeRTOS/Source/queue.c **** 					}
1080:Middlewares/Third_Party/FreeRTOS/Source/queue.c **** 					else
1081:Middlewares/Third_Party/FreeRTOS/Source/queue.c **** 					{
ARM GAS  C:\Users\jisu8\AppData\Local\Temp\cc12CyhQ.s 			page 57


1082:Middlewares/Third_Party/FreeRTOS/Source/queue.c **** 						mtCOVERAGE_TEST_MARKER();
1083:Middlewares/Third_Party/FreeRTOS/Source/queue.c **** 					}
1084:Middlewares/Third_Party/FreeRTOS/Source/queue.c **** 				}
1085:Middlewares/Third_Party/FreeRTOS/Source/queue.c **** 				#endif /* configUSE_QUEUE_SETS */
1086:Middlewares/Third_Party/FreeRTOS/Source/queue.c **** 			}
1087:Middlewares/Third_Party/FreeRTOS/Source/queue.c **** 			else
1088:Middlewares/Third_Party/FreeRTOS/Source/queue.c **** 			{
1089:Middlewares/Third_Party/FreeRTOS/Source/queue.c **** 				/* Increment the lock count so the task that unlocks the queue
1090:Middlewares/Third_Party/FreeRTOS/Source/queue.c **** 				knows that data was posted while it was locked. */
1091:Middlewares/Third_Party/FreeRTOS/Source/queue.c **** 				pxQueue->cTxLock = ( int8_t ) ( cTxLock + 1 );
 1889              		.loc 1 1091 45
 1890 0110 97F82B30 		ldrb	r3, [r7, #43]	@ zero_extendqisi2
 1891 0114 0133     		adds	r3, r3, #1
 1892 0116 DBB2     		uxtb	r3, r3
 1893              		.loc 1 1091 24
 1894 0118 5AB2     		sxtb	r2, r3
 1895              		.loc 1 1091 22
 1896 011a 3B6B     		ldr	r3, [r7, #48]
 1897 011c 83F84520 		strb	r2, [r3, #69]
 1898              	.L122:
1092:Middlewares/Third_Party/FreeRTOS/Source/queue.c **** 			}
1093:Middlewares/Third_Party/FreeRTOS/Source/queue.c **** 
1094:Middlewares/Third_Party/FreeRTOS/Source/queue.c **** 			xReturn = pdPASS;
 1899              		.loc 1 1094 12
 1900 0120 0123     		movs	r3, #1
 1901 0122 7B63     		str	r3, [r7, #52]
 1902              	.LBE159:
 991:Middlewares/Third_Party/FreeRTOS/Source/queue.c **** 			const int8_t cTxLock = pxQueue->cTxLock;
 1903              		.loc 1 991 3
 1904 0124 01E0     		b	.L123
 1905              	.L120:
1095:Middlewares/Third_Party/FreeRTOS/Source/queue.c **** 		}
1096:Middlewares/Third_Party/FreeRTOS/Source/queue.c **** 		else
1097:Middlewares/Third_Party/FreeRTOS/Source/queue.c **** 		{
1098:Middlewares/Third_Party/FreeRTOS/Source/queue.c **** 			traceQUEUE_SEND_FROM_ISR_FAILED( pxQueue );
1099:Middlewares/Third_Party/FreeRTOS/Source/queue.c **** 			xReturn = errQUEUE_FULL;
 1906              		.loc 1 1099 12
 1907 0126 0023     		movs	r3, #0
 1908 0128 7B63     		str	r3, [r7, #52]
 1909              	.L123:
 1910 012a FB6A     		ldr	r3, [r7, #44]
 1911 012c 3B61     		str	r3, [r7, #16]
 1912              	.LBB160:
 1913              	.LBB161:
 228:Middlewares/Third_Party/FreeRTOS/Source/portable/GCC/ARM_CM7/r0p1/portmacro.h **** }
 229:Middlewares/Third_Party/FreeRTOS/Source/portable/GCC/ARM_CM7/r0p1/portmacro.h **** /*-----------------------------------------------------------*/
 230:Middlewares/Third_Party/FreeRTOS/Source/portable/GCC/ARM_CM7/r0p1/portmacro.h **** 
 231:Middlewares/Third_Party/FreeRTOS/Source/portable/GCC/ARM_CM7/r0p1/portmacro.h **** portFORCE_INLINE static void vPortSetBASEPRI( uint32_t ulNewMaskValue )
 232:Middlewares/Third_Party/FreeRTOS/Source/portable/GCC/ARM_CM7/r0p1/portmacro.h **** {
 233:Middlewares/Third_Party/FreeRTOS/Source/portable/GCC/ARM_CM7/r0p1/portmacro.h **** 	__asm volatile
 1914              		.loc 2 233 2
 1915 012e 3B69     		ldr	r3, [r7, #16]
 1916              		.syntax unified
 1917              	@ 233 "Middlewares/Third_Party/FreeRTOS/Source/portable/GCC/ARM_CM7/r0p1/portmacro.h" 1
 1918 0130 83F31188 			msr basepri, r3	
 1919              	@ 0 "" 2
 234:Middlewares/Third_Party/FreeRTOS/Source/portable/GCC/ARM_CM7/r0p1/portmacro.h **** 	(
ARM GAS  C:\Users\jisu8\AppData\Local\Temp\cc12CyhQ.s 			page 58


 235:Middlewares/Third_Party/FreeRTOS/Source/portable/GCC/ARM_CM7/r0p1/portmacro.h **** 		"	msr basepri, %0	" :: "r" ( ulNewMaskValue ) : "memory"
 236:Middlewares/Third_Party/FreeRTOS/Source/portable/GCC/ARM_CM7/r0p1/portmacro.h **** 	);
 237:Middlewares/Third_Party/FreeRTOS/Source/portable/GCC/ARM_CM7/r0p1/portmacro.h **** }
 1920              		.loc 2 237 1
 1921              		.thumb
 1922              		.syntax unified
 1923 0134 00BF     		nop
 1924              	.LBE161:
 1925              	.LBE160:
1100:Middlewares/Third_Party/FreeRTOS/Source/queue.c **** 		}
1101:Middlewares/Third_Party/FreeRTOS/Source/queue.c **** 	}
1102:Middlewares/Third_Party/FreeRTOS/Source/queue.c **** 	portCLEAR_INTERRUPT_MASK_FROM_ISR( uxSavedInterruptStatus );
1103:Middlewares/Third_Party/FreeRTOS/Source/queue.c **** 
1104:Middlewares/Third_Party/FreeRTOS/Source/queue.c **** 	return xReturn;
 1926              		.loc 1 1104 9
 1927 0136 7B6B     		ldr	r3, [r7, #52]
1105:Middlewares/Third_Party/FreeRTOS/Source/queue.c **** }
 1928              		.loc 1 1105 1
 1929 0138 1846     		mov	r0, r3
 1930 013a 3837     		adds	r7, r7, #56
 1931              	.LCFI63:
 1932              		.cfi_def_cfa_offset 8
 1933 013c BD46     		mov	sp, r7
 1934              	.LCFI64:
 1935              		.cfi_def_cfa_register 13
 1936              		@ sp needed
 1937 013e 80BD     		pop	{r7, pc}
 1938              		.cfi_endproc
 1939              	.LFE17:
 1941              		.section	.text.xQueueGiveFromISR,"ax",%progbits
 1942              		.align	1
 1943              		.global	xQueueGiveFromISR
 1944              		.syntax unified
 1945              		.thumb
 1946              		.thumb_func
 1948              	xQueueGiveFromISR:
 1949              	.LFB18:
1106:Middlewares/Third_Party/FreeRTOS/Source/queue.c **** /*-----------------------------------------------------------*/
1107:Middlewares/Third_Party/FreeRTOS/Source/queue.c **** 
1108:Middlewares/Third_Party/FreeRTOS/Source/queue.c **** BaseType_t xQueueGiveFromISR( QueueHandle_t xQueue, BaseType_t * const pxHigherPriorityTaskWoken )
1109:Middlewares/Third_Party/FreeRTOS/Source/queue.c **** {
 1950              		.loc 1 1109 1
 1951              		.cfi_startproc
 1952              		@ args = 0, pretend = 0, frame = 56
 1953              		@ frame_needed = 1, uses_anonymous_args = 0
 1954 0000 80B5     		push	{r7, lr}
 1955              	.LCFI65:
 1956              		.cfi_def_cfa_offset 8
 1957              		.cfi_offset 7, -8
 1958              		.cfi_offset 14, -4
 1959 0002 8EB0     		sub	sp, sp, #56
 1960              	.LCFI66:
 1961              		.cfi_def_cfa_offset 64
 1962 0004 00AF     		add	r7, sp, #0
 1963              	.LCFI67:
 1964              		.cfi_def_cfa_register 7
 1965 0006 7860     		str	r0, [r7, #4]
ARM GAS  C:\Users\jisu8\AppData\Local\Temp\cc12CyhQ.s 			page 59


 1966 0008 3960     		str	r1, [r7]
1110:Middlewares/Third_Party/FreeRTOS/Source/queue.c **** BaseType_t xReturn;
1111:Middlewares/Third_Party/FreeRTOS/Source/queue.c **** UBaseType_t uxSavedInterruptStatus;
1112:Middlewares/Third_Party/FreeRTOS/Source/queue.c **** Queue_t * const pxQueue = xQueue;
 1967              		.loc 1 1112 17
 1968 000a 7B68     		ldr	r3, [r7, #4]
 1969 000c 3B63     		str	r3, [r7, #48]
1113:Middlewares/Third_Party/FreeRTOS/Source/queue.c **** 
1114:Middlewares/Third_Party/FreeRTOS/Source/queue.c **** 	/* Similar to xQueueGenericSendFromISR() but used with semaphores where the
1115:Middlewares/Third_Party/FreeRTOS/Source/queue.c **** 	item size is 0.  Don't directly wake a task that was blocked on a queue
1116:Middlewares/Third_Party/FreeRTOS/Source/queue.c **** 	read, instead return a flag to say whether a context switch is required or
1117:Middlewares/Third_Party/FreeRTOS/Source/queue.c **** 	not (i.e. has a task with a higher priority than us been woken by this
1118:Middlewares/Third_Party/FreeRTOS/Source/queue.c **** 	post). */
1119:Middlewares/Third_Party/FreeRTOS/Source/queue.c **** 
1120:Middlewares/Third_Party/FreeRTOS/Source/queue.c **** 	configASSERT( pxQueue );
 1970              		.loc 1 1120 2
 1971 000e 3B6B     		ldr	r3, [r7, #48]
 1972 0010 002B     		cmp	r3, #0
 1973 0012 0CD1     		bne	.L126
 1974              	.LBB162:
 1975              	.LBB163:
 195:Middlewares/Third_Party/FreeRTOS/Source/portable/GCC/ARM_CM7/r0p1/portmacro.h **** 	(
 1976              		.loc 2 195 2
 1977              		.syntax unified
 1978              	@ 195 "Middlewares/Third_Party/FreeRTOS/Source/portable/GCC/ARM_CM7/r0p1/portmacro.h" 1
 1979 0014 4FF05003 			mov r3, #80												
 1980 0018 72B6     		cpsid i													
 1981 001a 83F31188 		msr basepri, r3											
 1982 001e BFF36F8F 		isb														
 1983 0022 BFF34F8F 		dsb														
 1984 0026 62B6     		cpsie i													
 1985              	
 1986              	@ 0 "" 2
 1987              		.thumb
 1988              		.syntax unified
 1989 0028 3B62     		str	r3, [r7, #32]
 205:Middlewares/Third_Party/FreeRTOS/Source/portable/GCC/ARM_CM7/r0p1/portmacro.h **** 
 1990              		.loc 2 205 1
 1991 002a 00BF     		nop
 1992              	.L127:
 1993              	.LBE163:
 1994              	.LBE162:
 1995              		.loc 1 1120 2 discriminator 1
 1996 002c FEE7     		b	.L127
 1997              	.L126:
1121:Middlewares/Third_Party/FreeRTOS/Source/queue.c **** 
1122:Middlewares/Third_Party/FreeRTOS/Source/queue.c **** 	/* xQueueGenericSendFromISR() should be used instead of xQueueGiveFromISR()
1123:Middlewares/Third_Party/FreeRTOS/Source/queue.c **** 	if the item size is not 0. */
1124:Middlewares/Third_Party/FreeRTOS/Source/queue.c **** 	configASSERT( pxQueue->uxItemSize == 0 );
 1998              		.loc 1 1124 2
 1999 002e 3B6B     		ldr	r3, [r7, #48]
 2000 0030 1B6C     		ldr	r3, [r3, #64]
 2001 0032 002B     		cmp	r3, #0
 2002 0034 0CD0     		beq	.L128
 2003              	.LBB164:
 2004              	.LBB165:
 195:Middlewares/Third_Party/FreeRTOS/Source/portable/GCC/ARM_CM7/r0p1/portmacro.h **** 	(
ARM GAS  C:\Users\jisu8\AppData\Local\Temp\cc12CyhQ.s 			page 60


 2005              		.loc 2 195 2
 2006              		.syntax unified
 2007              	@ 195 "Middlewares/Third_Party/FreeRTOS/Source/portable/GCC/ARM_CM7/r0p1/portmacro.h" 1
 2008 0036 4FF05003 			mov r3, #80												
 2009 003a 72B6     		cpsid i													
 2010 003c 83F31188 		msr basepri, r3											
 2011 0040 BFF36F8F 		isb														
 2012 0044 BFF34F8F 		dsb														
 2013 0048 62B6     		cpsie i													
 2014              	
 2015              	@ 0 "" 2
 2016              		.thumb
 2017              		.syntax unified
 2018 004a FB61     		str	r3, [r7, #28]
 205:Middlewares/Third_Party/FreeRTOS/Source/portable/GCC/ARM_CM7/r0p1/portmacro.h **** 
 2019              		.loc 2 205 1
 2020 004c 00BF     		nop
 2021              	.L129:
 2022              	.LBE165:
 2023              	.LBE164:
 2024              		.loc 1 1124 2 discriminator 2
 2025 004e FEE7     		b	.L129
 2026              	.L128:
1125:Middlewares/Third_Party/FreeRTOS/Source/queue.c **** 
1126:Middlewares/Third_Party/FreeRTOS/Source/queue.c **** 	/* Normally a mutex would not be given from an interrupt, especially if
1127:Middlewares/Third_Party/FreeRTOS/Source/queue.c **** 	there is a mutex holder, as priority inheritance makes no sense for an
1128:Middlewares/Third_Party/FreeRTOS/Source/queue.c **** 	interrupts, only tasks. */
1129:Middlewares/Third_Party/FreeRTOS/Source/queue.c **** 	configASSERT( !( ( pxQueue->uxQueueType == queueQUEUE_IS_MUTEX ) && ( pxQueue->u.xSemaphore.xMutex
 2027              		.loc 1 1129 2
 2028 0050 3B6B     		ldr	r3, [r7, #48]
 2029 0052 1B68     		ldr	r3, [r3]
 2030 0054 002B     		cmp	r3, #0
 2031 0056 03D1     		bne	.L130
 2032              		.loc 1 1129 2 is_stmt 0 discriminator 2
 2033 0058 3B6B     		ldr	r3, [r7, #48]
 2034 005a 9B68     		ldr	r3, [r3, #8]
 2035 005c 002B     		cmp	r3, #0
 2036 005e 01D1     		bne	.L131
 2037              	.L130:
 2038              		.loc 1 1129 2 discriminator 3
 2039 0060 0123     		movs	r3, #1
 2040 0062 00E0     		b	.L132
 2041              	.L131:
 2042              		.loc 1 1129 2 discriminator 4
 2043 0064 0023     		movs	r3, #0
 2044              	.L132:
 2045              		.loc 1 1129 2 discriminator 6
 2046 0066 002B     		cmp	r3, #0
 2047 0068 0CD1     		bne	.L133
 2048              	.LBB166:
 2049              	.LBB167:
 195:Middlewares/Third_Party/FreeRTOS/Source/portable/GCC/ARM_CM7/r0p1/portmacro.h **** 	(
 2050              		.loc 2 195 2 is_stmt 1
 2051              		.syntax unified
 2052              	@ 195 "Middlewares/Third_Party/FreeRTOS/Source/portable/GCC/ARM_CM7/r0p1/portmacro.h" 1
 2053 006a 4FF05003 			mov r3, #80												
 2054 006e 72B6     		cpsid i													
ARM GAS  C:\Users\jisu8\AppData\Local\Temp\cc12CyhQ.s 			page 61


 2055 0070 83F31188 		msr basepri, r3											
 2056 0074 BFF36F8F 		isb														
 2057 0078 BFF34F8F 		dsb														
 2058 007c 62B6     		cpsie i													
 2059              	
 2060              	@ 0 "" 2
 2061              		.thumb
 2062              		.syntax unified
 2063 007e BB61     		str	r3, [r7, #24]
 205:Middlewares/Third_Party/FreeRTOS/Source/portable/GCC/ARM_CM7/r0p1/portmacro.h **** 
 2064              		.loc 2 205 1
 2065 0080 00BF     		nop
 2066              	.L134:
 2067              	.LBE167:
 2068              	.LBE166:
 2069              		.loc 1 1129 2 discriminator 3
 2070 0082 FEE7     		b	.L134
 2071              	.L133:
1130:Middlewares/Third_Party/FreeRTOS/Source/queue.c **** 
1131:Middlewares/Third_Party/FreeRTOS/Source/queue.c **** 	/* RTOS ports that support interrupt nesting have the concept of a maximum
1132:Middlewares/Third_Party/FreeRTOS/Source/queue.c **** 	system call (or maximum API call) interrupt priority.  Interrupts that are
1133:Middlewares/Third_Party/FreeRTOS/Source/queue.c **** 	above the maximum system call priority are kept permanently enabled, even
1134:Middlewares/Third_Party/FreeRTOS/Source/queue.c **** 	when the RTOS kernel is in a critical section, but cannot make any calls to
1135:Middlewares/Third_Party/FreeRTOS/Source/queue.c **** 	FreeRTOS API functions.  If configASSERT() is defined in FreeRTOSConfig.h
1136:Middlewares/Third_Party/FreeRTOS/Source/queue.c **** 	then portASSERT_IF_INTERRUPT_PRIORITY_INVALID() will result in an assertion
1137:Middlewares/Third_Party/FreeRTOS/Source/queue.c **** 	failure if a FreeRTOS API function is called from an interrupt that has been
1138:Middlewares/Third_Party/FreeRTOS/Source/queue.c **** 	assigned a priority above the configured maximum system call priority.
1139:Middlewares/Third_Party/FreeRTOS/Source/queue.c **** 	Only FreeRTOS functions that end in FromISR can be called from interrupts
1140:Middlewares/Third_Party/FreeRTOS/Source/queue.c **** 	that have been assigned a priority at or (logically) below the maximum
1141:Middlewares/Third_Party/FreeRTOS/Source/queue.c **** 	system call	interrupt priority.  FreeRTOS maintains a separate interrupt
1142:Middlewares/Third_Party/FreeRTOS/Source/queue.c **** 	safe API to ensure interrupt entry is as fast and as simple as possible.
1143:Middlewares/Third_Party/FreeRTOS/Source/queue.c **** 	More information (albeit Cortex-M specific) is provided on the following
1144:Middlewares/Third_Party/FreeRTOS/Source/queue.c **** 	link: http://www.freertos.org/RTOS-Cortex-M3-M4.html */
1145:Middlewares/Third_Party/FreeRTOS/Source/queue.c **** 	portASSERT_IF_INTERRUPT_PRIORITY_INVALID();
 2072              		.loc 1 1145 2
 2073 0084 FFF7FEFF 		bl	vPortValidateInterruptPriority
 2074              	.LBB168:
 2075              	.LBB169:
 213:Middlewares/Third_Party/FreeRTOS/Source/portable/GCC/ARM_CM7/r0p1/portmacro.h **** 	(
 2076              		.loc 2 213 2
 2077              		.syntax unified
 2078              	@ 213 "Middlewares/Third_Party/FreeRTOS/Source/portable/GCC/ARM_CM7/r0p1/portmacro.h" 1
 2079 0088 EFF31182 			mrs r2, basepri											
 2080 008c 4FF05003 		mov r3, #80												
 2081 0090 72B6     		cpsid i													
 2082 0092 83F31188 		msr basepri, r3											
 2083 0096 BFF36F8F 		isb														
 2084 009a BFF34F8F 		dsb														
 2085 009e 62B6     		cpsie i													
 2086              	
 2087              	@ 0 "" 2
 2088              		.thumb
 2089              		.syntax unified
 2090 00a0 7A61     		str	r2, [r7, #20]
 2091 00a2 3B61     		str	r3, [r7, #16]
 227:Middlewares/Third_Party/FreeRTOS/Source/portable/GCC/ARM_CM7/r0p1/portmacro.h **** }
 2092              		.loc 2 227 9
ARM GAS  C:\Users\jisu8\AppData\Local\Temp\cc12CyhQ.s 			page 62


 2093 00a4 7B69     		ldr	r3, [r7, #20]
 2094              	.LBE169:
 2095              	.LBE168:
1146:Middlewares/Third_Party/FreeRTOS/Source/queue.c **** 
1147:Middlewares/Third_Party/FreeRTOS/Source/queue.c **** 	uxSavedInterruptStatus = portSET_INTERRUPT_MASK_FROM_ISR();
 2096              		.loc 1 1147 27
 2097 00a6 FB62     		str	r3, [r7, #44]
 2098              	.LBB170:
1148:Middlewares/Third_Party/FreeRTOS/Source/queue.c **** 	{
1149:Middlewares/Third_Party/FreeRTOS/Source/queue.c **** 		const UBaseType_t uxMessagesWaiting = pxQueue->uxMessagesWaiting;
 2099              		.loc 1 1149 21
 2100 00a8 3B6B     		ldr	r3, [r7, #48]
 2101 00aa 9B6B     		ldr	r3, [r3, #56]
 2102 00ac BB62     		str	r3, [r7, #40]
1150:Middlewares/Third_Party/FreeRTOS/Source/queue.c **** 
1151:Middlewares/Third_Party/FreeRTOS/Source/queue.c **** 		/* When the queue is used to implement a semaphore no data is ever
1152:Middlewares/Third_Party/FreeRTOS/Source/queue.c **** 		moved through the queue but it is still valid to see if the queue 'has
1153:Middlewares/Third_Party/FreeRTOS/Source/queue.c **** 		space'. */
1154:Middlewares/Third_Party/FreeRTOS/Source/queue.c **** 		if( uxMessagesWaiting < pxQueue->uxLength )
 2103              		.loc 1 1154 34
 2104 00ae 3B6B     		ldr	r3, [r7, #48]
 2105 00b0 DB6B     		ldr	r3, [r3, #60]
 2106              		.loc 1 1154 5
 2107 00b2 BA6A     		ldr	r2, [r7, #40]
 2108 00b4 9A42     		cmp	r2, r3
 2109 00b6 2BD2     		bcs	.L136
 2110              	.LBB171:
1155:Middlewares/Third_Party/FreeRTOS/Source/queue.c **** 		{
1156:Middlewares/Third_Party/FreeRTOS/Source/queue.c **** 			const int8_t cTxLock = pxQueue->cTxLock;
 2111              		.loc 1 1156 17
 2112 00b8 3B6B     		ldr	r3, [r7, #48]
 2113 00ba 93F84530 		ldrb	r3, [r3, #69]
 2114 00be 87F82730 		strb	r3, [r7, #39]
1157:Middlewares/Third_Party/FreeRTOS/Source/queue.c **** 
1158:Middlewares/Third_Party/FreeRTOS/Source/queue.c **** 			traceQUEUE_SEND_FROM_ISR( pxQueue );
1159:Middlewares/Third_Party/FreeRTOS/Source/queue.c **** 
1160:Middlewares/Third_Party/FreeRTOS/Source/queue.c **** 			/* A task can only have an inherited priority if it is a mutex
1161:Middlewares/Third_Party/FreeRTOS/Source/queue.c **** 			holder - and if there is a mutex holder then the mutex cannot be
1162:Middlewares/Third_Party/FreeRTOS/Source/queue.c **** 			given from an ISR.  As this is the ISR version of the function it
1163:Middlewares/Third_Party/FreeRTOS/Source/queue.c **** 			can be assumed there is no mutex holder and no need to determine if
1164:Middlewares/Third_Party/FreeRTOS/Source/queue.c **** 			priority disinheritance is needed.  Simply increase the count of
1165:Middlewares/Third_Party/FreeRTOS/Source/queue.c **** 			messages (semaphores) available. */
1166:Middlewares/Third_Party/FreeRTOS/Source/queue.c **** 			pxQueue->uxMessagesWaiting = uxMessagesWaiting + ( UBaseType_t ) 1;
 2115              		.loc 1 1166 51
 2116 00c2 BB6A     		ldr	r3, [r7, #40]
 2117 00c4 5A1C     		adds	r2, r3, #1
 2118              		.loc 1 1166 31
 2119 00c6 3B6B     		ldr	r3, [r7, #48]
 2120 00c8 9A63     		str	r2, [r3, #56]
1167:Middlewares/Third_Party/FreeRTOS/Source/queue.c **** 
1168:Middlewares/Third_Party/FreeRTOS/Source/queue.c **** 			/* The event list is not altered if the queue is locked.  This will
1169:Middlewares/Third_Party/FreeRTOS/Source/queue.c **** 			be done when the queue is unlocked later. */
1170:Middlewares/Third_Party/FreeRTOS/Source/queue.c **** 			if( cTxLock == queueUNLOCKED )
 2121              		.loc 1 1170 6
 2122 00ca 97F92730 		ldrsb	r3, [r7, #39]
 2123 00ce B3F1FF3F 		cmp	r3, #-1
 2124 00d2 12D1     		bne	.L137
ARM GAS  C:\Users\jisu8\AppData\Local\Temp\cc12CyhQ.s 			page 63


1171:Middlewares/Third_Party/FreeRTOS/Source/queue.c **** 			{
1172:Middlewares/Third_Party/FreeRTOS/Source/queue.c **** 				#if ( configUSE_QUEUE_SETS == 1 )
1173:Middlewares/Third_Party/FreeRTOS/Source/queue.c **** 				{
1174:Middlewares/Third_Party/FreeRTOS/Source/queue.c **** 					if( pxQueue->pxQueueSetContainer != NULL )
1175:Middlewares/Third_Party/FreeRTOS/Source/queue.c **** 					{
1176:Middlewares/Third_Party/FreeRTOS/Source/queue.c **** 						if( prvNotifyQueueSetContainer( pxQueue, queueSEND_TO_BACK ) != pdFALSE )
1177:Middlewares/Third_Party/FreeRTOS/Source/queue.c **** 						{
1178:Middlewares/Third_Party/FreeRTOS/Source/queue.c **** 							/* The semaphore is a member of a queue set, and
1179:Middlewares/Third_Party/FreeRTOS/Source/queue.c **** 							posting	to the queue set caused a higher priority
1180:Middlewares/Third_Party/FreeRTOS/Source/queue.c **** 							task to	unblock.  A context switch is required. */
1181:Middlewares/Third_Party/FreeRTOS/Source/queue.c **** 							if( pxHigherPriorityTaskWoken != NULL )
1182:Middlewares/Third_Party/FreeRTOS/Source/queue.c **** 							{
1183:Middlewares/Third_Party/FreeRTOS/Source/queue.c **** 								*pxHigherPriorityTaskWoken = pdTRUE;
1184:Middlewares/Third_Party/FreeRTOS/Source/queue.c **** 							}
1185:Middlewares/Third_Party/FreeRTOS/Source/queue.c **** 							else
1186:Middlewares/Third_Party/FreeRTOS/Source/queue.c **** 							{
1187:Middlewares/Third_Party/FreeRTOS/Source/queue.c **** 								mtCOVERAGE_TEST_MARKER();
1188:Middlewares/Third_Party/FreeRTOS/Source/queue.c **** 							}
1189:Middlewares/Third_Party/FreeRTOS/Source/queue.c **** 						}
1190:Middlewares/Third_Party/FreeRTOS/Source/queue.c **** 						else
1191:Middlewares/Third_Party/FreeRTOS/Source/queue.c **** 						{
1192:Middlewares/Third_Party/FreeRTOS/Source/queue.c **** 							mtCOVERAGE_TEST_MARKER();
1193:Middlewares/Third_Party/FreeRTOS/Source/queue.c **** 						}
1194:Middlewares/Third_Party/FreeRTOS/Source/queue.c **** 					}
1195:Middlewares/Third_Party/FreeRTOS/Source/queue.c **** 					else
1196:Middlewares/Third_Party/FreeRTOS/Source/queue.c **** 					{
1197:Middlewares/Third_Party/FreeRTOS/Source/queue.c **** 						if( listLIST_IS_EMPTY( &( pxQueue->xTasksWaitingToReceive ) ) == pdFALSE )
1198:Middlewares/Third_Party/FreeRTOS/Source/queue.c **** 						{
1199:Middlewares/Third_Party/FreeRTOS/Source/queue.c **** 							if( xTaskRemoveFromEventList( &( pxQueue->xTasksWaitingToReceive ) ) != pdFALSE )
1200:Middlewares/Third_Party/FreeRTOS/Source/queue.c **** 							{
1201:Middlewares/Third_Party/FreeRTOS/Source/queue.c **** 								/* The task waiting has a higher priority so
1202:Middlewares/Third_Party/FreeRTOS/Source/queue.c **** 								record that a context switch is required. */
1203:Middlewares/Third_Party/FreeRTOS/Source/queue.c **** 								if( pxHigherPriorityTaskWoken != NULL )
1204:Middlewares/Third_Party/FreeRTOS/Source/queue.c **** 								{
1205:Middlewares/Third_Party/FreeRTOS/Source/queue.c **** 									*pxHigherPriorityTaskWoken = pdTRUE;
1206:Middlewares/Third_Party/FreeRTOS/Source/queue.c **** 								}
1207:Middlewares/Third_Party/FreeRTOS/Source/queue.c **** 								else
1208:Middlewares/Third_Party/FreeRTOS/Source/queue.c **** 								{
1209:Middlewares/Third_Party/FreeRTOS/Source/queue.c **** 									mtCOVERAGE_TEST_MARKER();
1210:Middlewares/Third_Party/FreeRTOS/Source/queue.c **** 								}
1211:Middlewares/Third_Party/FreeRTOS/Source/queue.c **** 							}
1212:Middlewares/Third_Party/FreeRTOS/Source/queue.c **** 							else
1213:Middlewares/Third_Party/FreeRTOS/Source/queue.c **** 							{
1214:Middlewares/Third_Party/FreeRTOS/Source/queue.c **** 								mtCOVERAGE_TEST_MARKER();
1215:Middlewares/Third_Party/FreeRTOS/Source/queue.c **** 							}
1216:Middlewares/Third_Party/FreeRTOS/Source/queue.c **** 						}
1217:Middlewares/Third_Party/FreeRTOS/Source/queue.c **** 						else
1218:Middlewares/Third_Party/FreeRTOS/Source/queue.c **** 						{
1219:Middlewares/Third_Party/FreeRTOS/Source/queue.c **** 							mtCOVERAGE_TEST_MARKER();
1220:Middlewares/Third_Party/FreeRTOS/Source/queue.c **** 						}
1221:Middlewares/Third_Party/FreeRTOS/Source/queue.c **** 					}
1222:Middlewares/Third_Party/FreeRTOS/Source/queue.c **** 				}
1223:Middlewares/Third_Party/FreeRTOS/Source/queue.c **** 				#else /* configUSE_QUEUE_SETS */
1224:Middlewares/Third_Party/FreeRTOS/Source/queue.c **** 				{
1225:Middlewares/Third_Party/FreeRTOS/Source/queue.c **** 					if( listLIST_IS_EMPTY( &( pxQueue->xTasksWaitingToReceive ) ) == pdFALSE )
 2125              		.loc 1 1225 10
 2126 00d4 3B6B     		ldr	r3, [r7, #48]
ARM GAS  C:\Users\jisu8\AppData\Local\Temp\cc12CyhQ.s 			page 64


 2127 00d6 5B6A     		ldr	r3, [r3, #36]
 2128              		.loc 1 1225 8
 2129 00d8 002B     		cmp	r3, #0
 2130 00da 16D0     		beq	.L138
1226:Middlewares/Third_Party/FreeRTOS/Source/queue.c **** 					{
1227:Middlewares/Third_Party/FreeRTOS/Source/queue.c **** 						if( xTaskRemoveFromEventList( &( pxQueue->xTasksWaitingToReceive ) ) != pdFALSE )
 2131              		.loc 1 1227 37
 2132 00dc 3B6B     		ldr	r3, [r7, #48]
 2133 00de 2433     		adds	r3, r3, #36
 2134              		.loc 1 1227 11
 2135 00e0 1846     		mov	r0, r3
 2136 00e2 FFF7FEFF 		bl	xTaskRemoveFromEventList
 2137 00e6 0346     		mov	r3, r0
 2138              		.loc 1 1227 9
 2139 00e8 002B     		cmp	r3, #0
 2140 00ea 0ED0     		beq	.L138
1228:Middlewares/Third_Party/FreeRTOS/Source/queue.c **** 						{
1229:Middlewares/Third_Party/FreeRTOS/Source/queue.c **** 							/* The task waiting has a higher priority so record that a
1230:Middlewares/Third_Party/FreeRTOS/Source/queue.c **** 							context	switch is required. */
1231:Middlewares/Third_Party/FreeRTOS/Source/queue.c **** 							if( pxHigherPriorityTaskWoken != NULL )
 2141              		.loc 1 1231 10
 2142 00ec 3B68     		ldr	r3, [r7]
 2143 00ee 002B     		cmp	r3, #0
 2144 00f0 0BD0     		beq	.L138
1232:Middlewares/Third_Party/FreeRTOS/Source/queue.c **** 							{
1233:Middlewares/Third_Party/FreeRTOS/Source/queue.c **** 								*pxHigherPriorityTaskWoken = pdTRUE;
 2145              		.loc 1 1233 36
 2146 00f2 3B68     		ldr	r3, [r7]
 2147 00f4 0122     		movs	r2, #1
 2148 00f6 1A60     		str	r2, [r3]
 2149 00f8 07E0     		b	.L138
 2150              	.L137:
1234:Middlewares/Third_Party/FreeRTOS/Source/queue.c **** 							}
1235:Middlewares/Third_Party/FreeRTOS/Source/queue.c **** 							else
1236:Middlewares/Third_Party/FreeRTOS/Source/queue.c **** 							{
1237:Middlewares/Third_Party/FreeRTOS/Source/queue.c **** 								mtCOVERAGE_TEST_MARKER();
1238:Middlewares/Third_Party/FreeRTOS/Source/queue.c **** 							}
1239:Middlewares/Third_Party/FreeRTOS/Source/queue.c **** 						}
1240:Middlewares/Third_Party/FreeRTOS/Source/queue.c **** 						else
1241:Middlewares/Third_Party/FreeRTOS/Source/queue.c **** 						{
1242:Middlewares/Third_Party/FreeRTOS/Source/queue.c **** 							mtCOVERAGE_TEST_MARKER();
1243:Middlewares/Third_Party/FreeRTOS/Source/queue.c **** 						}
1244:Middlewares/Third_Party/FreeRTOS/Source/queue.c **** 					}
1245:Middlewares/Third_Party/FreeRTOS/Source/queue.c **** 					else
1246:Middlewares/Third_Party/FreeRTOS/Source/queue.c **** 					{
1247:Middlewares/Third_Party/FreeRTOS/Source/queue.c **** 						mtCOVERAGE_TEST_MARKER();
1248:Middlewares/Third_Party/FreeRTOS/Source/queue.c **** 					}
1249:Middlewares/Third_Party/FreeRTOS/Source/queue.c **** 				}
1250:Middlewares/Third_Party/FreeRTOS/Source/queue.c **** 				#endif /* configUSE_QUEUE_SETS */
1251:Middlewares/Third_Party/FreeRTOS/Source/queue.c **** 			}
1252:Middlewares/Third_Party/FreeRTOS/Source/queue.c **** 			else
1253:Middlewares/Third_Party/FreeRTOS/Source/queue.c **** 			{
1254:Middlewares/Third_Party/FreeRTOS/Source/queue.c **** 				/* Increment the lock count so the task that unlocks the queue
1255:Middlewares/Third_Party/FreeRTOS/Source/queue.c **** 				knows that data was posted while it was locked. */
1256:Middlewares/Third_Party/FreeRTOS/Source/queue.c **** 				pxQueue->cTxLock = ( int8_t ) ( cTxLock + 1 );
 2151              		.loc 1 1256 45
 2152 00fa 97F82730 		ldrb	r3, [r7, #39]	@ zero_extendqisi2
ARM GAS  C:\Users\jisu8\AppData\Local\Temp\cc12CyhQ.s 			page 65


 2153 00fe 0133     		adds	r3, r3, #1
 2154 0100 DBB2     		uxtb	r3, r3
 2155              		.loc 1 1256 24
 2156 0102 5AB2     		sxtb	r2, r3
 2157              		.loc 1 1256 22
 2158 0104 3B6B     		ldr	r3, [r7, #48]
 2159 0106 83F84520 		strb	r2, [r3, #69]
 2160              	.L138:
1257:Middlewares/Third_Party/FreeRTOS/Source/queue.c **** 			}
1258:Middlewares/Third_Party/FreeRTOS/Source/queue.c **** 
1259:Middlewares/Third_Party/FreeRTOS/Source/queue.c **** 			xReturn = pdPASS;
 2161              		.loc 1 1259 12
 2162 010a 0123     		movs	r3, #1
 2163 010c 7B63     		str	r3, [r7, #52]
 2164              	.LBE171:
 2165 010e 01E0     		b	.L139
 2166              	.L136:
1260:Middlewares/Third_Party/FreeRTOS/Source/queue.c **** 		}
1261:Middlewares/Third_Party/FreeRTOS/Source/queue.c **** 		else
1262:Middlewares/Third_Party/FreeRTOS/Source/queue.c **** 		{
1263:Middlewares/Third_Party/FreeRTOS/Source/queue.c **** 			traceQUEUE_SEND_FROM_ISR_FAILED( pxQueue );
1264:Middlewares/Third_Party/FreeRTOS/Source/queue.c **** 			xReturn = errQUEUE_FULL;
 2167              		.loc 1 1264 12
 2168 0110 0023     		movs	r3, #0
 2169 0112 7B63     		str	r3, [r7, #52]
 2170              	.L139:
 2171 0114 FB6A     		ldr	r3, [r7, #44]
 2172 0116 FB60     		str	r3, [r7, #12]
 2173              	.LBE170:
 2174              	.LBB172:
 2175              	.LBB173:
 233:Middlewares/Third_Party/FreeRTOS/Source/portable/GCC/ARM_CM7/r0p1/portmacro.h **** 	(
 2176              		.loc 2 233 2
 2177 0118 FB68     		ldr	r3, [r7, #12]
 2178              		.syntax unified
 2179              	@ 233 "Middlewares/Third_Party/FreeRTOS/Source/portable/GCC/ARM_CM7/r0p1/portmacro.h" 1
 2180 011a 83F31188 			msr basepri, r3	
 2181              	@ 0 "" 2
 2182              		.loc 2 237 1
 2183              		.thumb
 2184              		.syntax unified
 2185 011e 00BF     		nop
 2186              	.LBE173:
 2187              	.LBE172:
1265:Middlewares/Third_Party/FreeRTOS/Source/queue.c **** 		}
1266:Middlewares/Third_Party/FreeRTOS/Source/queue.c **** 	}
1267:Middlewares/Third_Party/FreeRTOS/Source/queue.c **** 	portCLEAR_INTERRUPT_MASK_FROM_ISR( uxSavedInterruptStatus );
1268:Middlewares/Third_Party/FreeRTOS/Source/queue.c **** 
1269:Middlewares/Third_Party/FreeRTOS/Source/queue.c **** 	return xReturn;
 2188              		.loc 1 1269 9
 2189 0120 7B6B     		ldr	r3, [r7, #52]
1270:Middlewares/Third_Party/FreeRTOS/Source/queue.c **** }
 2190              		.loc 1 1270 1
 2191 0122 1846     		mov	r0, r3
 2192 0124 3837     		adds	r7, r7, #56
 2193              	.LCFI68:
 2194              		.cfi_def_cfa_offset 8
ARM GAS  C:\Users\jisu8\AppData\Local\Temp\cc12CyhQ.s 			page 66


 2195 0126 BD46     		mov	sp, r7
 2196              	.LCFI69:
 2197              		.cfi_def_cfa_register 13
 2198              		@ sp needed
 2199 0128 80BD     		pop	{r7, pc}
 2200              		.cfi_endproc
 2201              	.LFE18:
 2203              		.section	.text.xQueueReceive,"ax",%progbits
 2204              		.align	1
 2205              		.global	xQueueReceive
 2206              		.syntax unified
 2207              		.thumb
 2208              		.thumb_func
 2210              	xQueueReceive:
 2211              	.LFB19:
1271:Middlewares/Third_Party/FreeRTOS/Source/queue.c **** /*-----------------------------------------------------------*/
1272:Middlewares/Third_Party/FreeRTOS/Source/queue.c **** 
1273:Middlewares/Third_Party/FreeRTOS/Source/queue.c **** BaseType_t xQueueReceive( QueueHandle_t xQueue, void * const pvBuffer, TickType_t xTicksToWait )
1274:Middlewares/Third_Party/FreeRTOS/Source/queue.c **** {
 2212              		.loc 1 1274 1
 2213              		.cfi_startproc
 2214              		@ args = 0, pretend = 0, frame = 48
 2215              		@ frame_needed = 1, uses_anonymous_args = 0
 2216 0000 80B5     		push	{r7, lr}
 2217              	.LCFI70:
 2218              		.cfi_def_cfa_offset 8
 2219              		.cfi_offset 7, -8
 2220              		.cfi_offset 14, -4
 2221 0002 8CB0     		sub	sp, sp, #48
 2222              	.LCFI71:
 2223              		.cfi_def_cfa_offset 56
 2224 0004 00AF     		add	r7, sp, #0
 2225              	.LCFI72:
 2226              		.cfi_def_cfa_register 7
 2227 0006 F860     		str	r0, [r7, #12]
 2228 0008 B960     		str	r1, [r7, #8]
 2229 000a 7A60     		str	r2, [r7, #4]
1275:Middlewares/Third_Party/FreeRTOS/Source/queue.c **** BaseType_t xEntryTimeSet = pdFALSE;
 2230              		.loc 1 1275 12
 2231 000c 0023     		movs	r3, #0
 2232 000e FB62     		str	r3, [r7, #44]
1276:Middlewares/Third_Party/FreeRTOS/Source/queue.c **** TimeOut_t xTimeOut;
1277:Middlewares/Third_Party/FreeRTOS/Source/queue.c **** Queue_t * const pxQueue = xQueue;
 2233              		.loc 1 1277 17
 2234 0010 FB68     		ldr	r3, [r7, #12]
 2235 0012 BB62     		str	r3, [r7, #40]
1278:Middlewares/Third_Party/FreeRTOS/Source/queue.c **** 
1279:Middlewares/Third_Party/FreeRTOS/Source/queue.c **** 	/* Check the pointer is not NULL. */
1280:Middlewares/Third_Party/FreeRTOS/Source/queue.c **** 	configASSERT( ( pxQueue ) );
 2236              		.loc 1 1280 2
 2237 0014 BB6A     		ldr	r3, [r7, #40]
 2238 0016 002B     		cmp	r3, #0
 2239 0018 0CD1     		bne	.L142
 2240              	.LBB174:
 2241              	.LBB175:
 195:Middlewares/Third_Party/FreeRTOS/Source/portable/GCC/ARM_CM7/r0p1/portmacro.h **** 	(
 2242              		.loc 2 195 2
ARM GAS  C:\Users\jisu8\AppData\Local\Temp\cc12CyhQ.s 			page 67


 2243              		.syntax unified
 2244              	@ 195 "Middlewares/Third_Party/FreeRTOS/Source/portable/GCC/ARM_CM7/r0p1/portmacro.h" 1
 2245 001a 4FF05003 			mov r3, #80												
 2246 001e 72B6     		cpsid i													
 2247 0020 83F31188 		msr basepri, r3											
 2248 0024 BFF36F8F 		isb														
 2249 0028 BFF34F8F 		dsb														
 2250 002c 62B6     		cpsie i													
 2251              	
 2252              	@ 0 "" 2
 2253              		.thumb
 2254              		.syntax unified
 2255 002e 3B62     		str	r3, [r7, #32]
 205:Middlewares/Third_Party/FreeRTOS/Source/portable/GCC/ARM_CM7/r0p1/portmacro.h **** 
 2256              		.loc 2 205 1
 2257 0030 00BF     		nop
 2258              	.L143:
 2259              	.LBE175:
 2260              	.LBE174:
 2261              		.loc 1 1280 2 discriminator 1
 2262 0032 FEE7     		b	.L143
 2263              	.L142:
1281:Middlewares/Third_Party/FreeRTOS/Source/queue.c **** 
1282:Middlewares/Third_Party/FreeRTOS/Source/queue.c **** 	/* The buffer into which data is received can only be NULL if the data size
1283:Middlewares/Third_Party/FreeRTOS/Source/queue.c **** 	is zero (so no data is copied into the buffer. */
1284:Middlewares/Third_Party/FreeRTOS/Source/queue.c **** 	configASSERT( !( ( ( pvBuffer ) == NULL ) && ( ( pxQueue )->uxItemSize != ( UBaseType_t ) 0U ) ) )
 2264              		.loc 1 1284 2
 2265 0034 BB68     		ldr	r3, [r7, #8]
 2266 0036 002B     		cmp	r3, #0
 2267 0038 03D1     		bne	.L144
 2268              		.loc 1 1284 2 is_stmt 0 discriminator 2
 2269 003a BB6A     		ldr	r3, [r7, #40]
 2270 003c 1B6C     		ldr	r3, [r3, #64]
 2271 003e 002B     		cmp	r3, #0
 2272 0040 01D1     		bne	.L145
 2273              	.L144:
 2274              		.loc 1 1284 2 discriminator 3
 2275 0042 0123     		movs	r3, #1
 2276 0044 00E0     		b	.L146
 2277              	.L145:
 2278              		.loc 1 1284 2 discriminator 4
 2279 0046 0023     		movs	r3, #0
 2280              	.L146:
 2281              		.loc 1 1284 2 discriminator 6
 2282 0048 002B     		cmp	r3, #0
 2283 004a 0CD1     		bne	.L147
 2284              	.LBB176:
 2285              	.LBB177:
 195:Middlewares/Third_Party/FreeRTOS/Source/portable/GCC/ARM_CM7/r0p1/portmacro.h **** 	(
 2286              		.loc 2 195 2 is_stmt 1
 2287              		.syntax unified
 2288              	@ 195 "Middlewares/Third_Party/FreeRTOS/Source/portable/GCC/ARM_CM7/r0p1/portmacro.h" 1
 2289 004c 4FF05003 			mov r3, #80												
 2290 0050 72B6     		cpsid i													
 2291 0052 83F31188 		msr basepri, r3											
 2292 0056 BFF36F8F 		isb														
 2293 005a BFF34F8F 		dsb														
ARM GAS  C:\Users\jisu8\AppData\Local\Temp\cc12CyhQ.s 			page 68


 2294 005e 62B6     		cpsie i													
 2295              	
 2296              	@ 0 "" 2
 2297              		.thumb
 2298              		.syntax unified
 2299 0060 FB61     		str	r3, [r7, #28]
 205:Middlewares/Third_Party/FreeRTOS/Source/portable/GCC/ARM_CM7/r0p1/portmacro.h **** 
 2300              		.loc 2 205 1
 2301 0062 00BF     		nop
 2302              	.L148:
 2303              	.LBE177:
 2304              	.LBE176:
 2305              		.loc 1 1284 2 discriminator 2
 2306 0064 FEE7     		b	.L148
 2307              	.L147:
1285:Middlewares/Third_Party/FreeRTOS/Source/queue.c **** 
1286:Middlewares/Third_Party/FreeRTOS/Source/queue.c **** 	/* Cannot block if the scheduler is suspended. */
1287:Middlewares/Third_Party/FreeRTOS/Source/queue.c **** 	#if ( ( INCLUDE_xTaskGetSchedulerState == 1 ) || ( configUSE_TIMERS == 1 ) )
1288:Middlewares/Third_Party/FreeRTOS/Source/queue.c **** 	{
1289:Middlewares/Third_Party/FreeRTOS/Source/queue.c **** 		configASSERT( !( ( xTaskGetSchedulerState() == taskSCHEDULER_SUSPENDED ) && ( xTicksToWait != 0 )
 2308              		.loc 1 1289 3
 2309 0066 FFF7FEFF 		bl	xTaskGetSchedulerState
 2310 006a 0346     		mov	r3, r0
 2311 006c 002B     		cmp	r3, #0
 2312 006e 02D1     		bne	.L149
 2313              		.loc 1 1289 3 is_stmt 0 discriminator 2
 2314 0070 7B68     		ldr	r3, [r7, #4]
 2315 0072 002B     		cmp	r3, #0
 2316 0074 01D1     		bne	.L150
 2317              	.L149:
 2318              		.loc 1 1289 3 discriminator 3
 2319 0076 0123     		movs	r3, #1
 2320 0078 00E0     		b	.L151
 2321              	.L150:
 2322              		.loc 1 1289 3 discriminator 4
 2323 007a 0023     		movs	r3, #0
 2324              	.L151:
 2325              		.loc 1 1289 3 discriminator 6
 2326 007c 002B     		cmp	r3, #0
 2327 007e 0CD1     		bne	.L152
 2328              	.LBB178:
 2329              	.LBB179:
 195:Middlewares/Third_Party/FreeRTOS/Source/portable/GCC/ARM_CM7/r0p1/portmacro.h **** 	(
 2330              		.loc 2 195 2 is_stmt 1
 2331              		.syntax unified
 2332              	@ 195 "Middlewares/Third_Party/FreeRTOS/Source/portable/GCC/ARM_CM7/r0p1/portmacro.h" 1
 2333 0080 4FF05003 			mov r3, #80												
 2334 0084 72B6     		cpsid i													
 2335 0086 83F31188 		msr basepri, r3											
 2336 008a BFF36F8F 		isb														
 2337 008e BFF34F8F 		dsb														
 2338 0092 62B6     		cpsie i													
 2339              	
 2340              	@ 0 "" 2
 2341              		.thumb
 2342              		.syntax unified
 2343 0094 BB61     		str	r3, [r7, #24]
ARM GAS  C:\Users\jisu8\AppData\Local\Temp\cc12CyhQ.s 			page 69


 205:Middlewares/Third_Party/FreeRTOS/Source/portable/GCC/ARM_CM7/r0p1/portmacro.h **** 
 2344              		.loc 2 205 1
 2345 0096 00BF     		nop
 2346              	.L153:
 2347              	.LBE179:
 2348              	.LBE178:
 2349              		.loc 1 1289 3 discriminator 3
 2350 0098 FEE7     		b	.L153
 2351              	.L152:
1290:Middlewares/Third_Party/FreeRTOS/Source/queue.c **** 	}
1291:Middlewares/Third_Party/FreeRTOS/Source/queue.c **** 	#endif
1292:Middlewares/Third_Party/FreeRTOS/Source/queue.c **** 
1293:Middlewares/Third_Party/FreeRTOS/Source/queue.c **** 
1294:Middlewares/Third_Party/FreeRTOS/Source/queue.c **** 	/*lint -save -e904  This function relaxes the coding standard somewhat to
1295:Middlewares/Third_Party/FreeRTOS/Source/queue.c **** 	allow return statements within the function itself.  This is done in the
1296:Middlewares/Third_Party/FreeRTOS/Source/queue.c **** 	interest of execution time efficiency. */
1297:Middlewares/Third_Party/FreeRTOS/Source/queue.c **** 	for( ;; )
1298:Middlewares/Third_Party/FreeRTOS/Source/queue.c **** 	{
1299:Middlewares/Third_Party/FreeRTOS/Source/queue.c **** 		taskENTER_CRITICAL();
 2352              		.loc 1 1299 3
 2353 009a FFF7FEFF 		bl	vPortEnterCritical
 2354              	.LBB180:
1300:Middlewares/Third_Party/FreeRTOS/Source/queue.c **** 		{
1301:Middlewares/Third_Party/FreeRTOS/Source/queue.c **** 			const UBaseType_t uxMessagesWaiting = pxQueue->uxMessagesWaiting;
 2355              		.loc 1 1301 22
 2356 009e BB6A     		ldr	r3, [r7, #40]
 2357 00a0 9B6B     		ldr	r3, [r3, #56]
 2358 00a2 7B62     		str	r3, [r7, #36]
1302:Middlewares/Third_Party/FreeRTOS/Source/queue.c **** 
1303:Middlewares/Third_Party/FreeRTOS/Source/queue.c **** 			/* Is there data in the queue now?  To be running the calling task
1304:Middlewares/Third_Party/FreeRTOS/Source/queue.c **** 			must be the highest priority task wanting to access the queue. */
1305:Middlewares/Third_Party/FreeRTOS/Source/queue.c **** 			if( uxMessagesWaiting > ( UBaseType_t ) 0 )
 2359              		.loc 1 1305 6
 2360 00a4 7B6A     		ldr	r3, [r7, #36]
 2361 00a6 002B     		cmp	r3, #0
 2362 00a8 1FD0     		beq	.L154
1306:Middlewares/Third_Party/FreeRTOS/Source/queue.c **** 			{
1307:Middlewares/Third_Party/FreeRTOS/Source/queue.c **** 				/* Data available, remove one item. */
1308:Middlewares/Third_Party/FreeRTOS/Source/queue.c **** 				prvCopyDataFromQueue( pxQueue, pvBuffer );
 2363              		.loc 1 1308 5
 2364 00aa B968     		ldr	r1, [r7, #8]
 2365 00ac B86A     		ldr	r0, [r7, #40]
 2366 00ae FFF7FEFF 		bl	prvCopyDataFromQueue
1309:Middlewares/Third_Party/FreeRTOS/Source/queue.c **** 				traceQUEUE_RECEIVE( pxQueue );
1310:Middlewares/Third_Party/FreeRTOS/Source/queue.c **** 				pxQueue->uxMessagesWaiting = uxMessagesWaiting - ( UBaseType_t ) 1;
 2367              		.loc 1 1310 52
 2368 00b2 7B6A     		ldr	r3, [r7, #36]
 2369 00b4 5A1E     		subs	r2, r3, #1
 2370              		.loc 1 1310 32
 2371 00b6 BB6A     		ldr	r3, [r7, #40]
 2372 00b8 9A63     		str	r2, [r3, #56]
1311:Middlewares/Third_Party/FreeRTOS/Source/queue.c **** 
1312:Middlewares/Third_Party/FreeRTOS/Source/queue.c **** 				/* There is now space in the queue, were any tasks waiting to
1313:Middlewares/Third_Party/FreeRTOS/Source/queue.c **** 				post to the queue?  If so, unblock the highest priority waiting
1314:Middlewares/Third_Party/FreeRTOS/Source/queue.c **** 				task. */
1315:Middlewares/Third_Party/FreeRTOS/Source/queue.c **** 				if( listLIST_IS_EMPTY( &( pxQueue->xTasksWaitingToSend ) ) == pdFALSE )
 2373              		.loc 1 1315 9
ARM GAS  C:\Users\jisu8\AppData\Local\Temp\cc12CyhQ.s 			page 70


 2374 00ba BB6A     		ldr	r3, [r7, #40]
 2375 00bc 1B69     		ldr	r3, [r3, #16]
 2376              		.loc 1 1315 7
 2377 00be 002B     		cmp	r3, #0
 2378 00c0 0FD0     		beq	.L155
1316:Middlewares/Third_Party/FreeRTOS/Source/queue.c **** 				{
1317:Middlewares/Third_Party/FreeRTOS/Source/queue.c **** 					if( xTaskRemoveFromEventList( &( pxQueue->xTasksWaitingToSend ) ) != pdFALSE )
 2379              		.loc 1 1317 36
 2380 00c2 BB6A     		ldr	r3, [r7, #40]
 2381 00c4 1033     		adds	r3, r3, #16
 2382              		.loc 1 1317 10
 2383 00c6 1846     		mov	r0, r3
 2384 00c8 FFF7FEFF 		bl	xTaskRemoveFromEventList
 2385 00cc 0346     		mov	r3, r0
 2386              		.loc 1 1317 8
 2387 00ce 002B     		cmp	r3, #0
 2388 00d0 07D0     		beq	.L155
1318:Middlewares/Third_Party/FreeRTOS/Source/queue.c **** 					{
1319:Middlewares/Third_Party/FreeRTOS/Source/queue.c **** 						queueYIELD_IF_USING_PREEMPTION();
 2389              		.loc 1 1319 7
 2390 00d2 3D4B     		ldr	r3, .L165
 2391 00d4 4FF08052 		mov	r2, #268435456
 2392 00d8 1A60     		str	r2, [r3]
 2393              		.syntax unified
 2394              	@ 1319 "Middlewares/Third_Party/FreeRTOS/Source/queue.c" 1
 2395 00da BFF34F8F 		dsb
 2396              	@ 0 "" 2
 2397              	@ 1319 "Middlewares/Third_Party/FreeRTOS/Source/queue.c" 1
 2398 00de BFF36F8F 		isb
 2399              	@ 0 "" 2
 2400              		.thumb
 2401              		.syntax unified
 2402              	.L155:
1320:Middlewares/Third_Party/FreeRTOS/Source/queue.c **** 					}
1321:Middlewares/Third_Party/FreeRTOS/Source/queue.c **** 					else
1322:Middlewares/Third_Party/FreeRTOS/Source/queue.c **** 					{
1323:Middlewares/Third_Party/FreeRTOS/Source/queue.c **** 						mtCOVERAGE_TEST_MARKER();
1324:Middlewares/Third_Party/FreeRTOS/Source/queue.c **** 					}
1325:Middlewares/Third_Party/FreeRTOS/Source/queue.c **** 				}
1326:Middlewares/Third_Party/FreeRTOS/Source/queue.c **** 				else
1327:Middlewares/Third_Party/FreeRTOS/Source/queue.c **** 				{
1328:Middlewares/Third_Party/FreeRTOS/Source/queue.c **** 					mtCOVERAGE_TEST_MARKER();
1329:Middlewares/Third_Party/FreeRTOS/Source/queue.c **** 				}
1330:Middlewares/Third_Party/FreeRTOS/Source/queue.c **** 
1331:Middlewares/Third_Party/FreeRTOS/Source/queue.c **** 				taskEXIT_CRITICAL();
 2403              		.loc 1 1331 5
 2404 00e2 FFF7FEFF 		bl	vPortExitCritical
1332:Middlewares/Third_Party/FreeRTOS/Source/queue.c **** 				return pdPASS;
 2405              		.loc 1 1332 12
 2406 00e6 0123     		movs	r3, #1
 2407 00e8 69E0     		b	.L164
 2408              	.L154:
1333:Middlewares/Third_Party/FreeRTOS/Source/queue.c **** 			}
1334:Middlewares/Third_Party/FreeRTOS/Source/queue.c **** 			else
1335:Middlewares/Third_Party/FreeRTOS/Source/queue.c **** 			{
1336:Middlewares/Third_Party/FreeRTOS/Source/queue.c **** 				if( xTicksToWait == ( TickType_t ) 0 )
 2409              		.loc 1 1336 22
ARM GAS  C:\Users\jisu8\AppData\Local\Temp\cc12CyhQ.s 			page 71


 2410 00ea 7B68     		ldr	r3, [r7, #4]
 2411              		.loc 1 1336 7
 2412 00ec 002B     		cmp	r3, #0
 2413 00ee 03D1     		bne	.L157
1337:Middlewares/Third_Party/FreeRTOS/Source/queue.c **** 				{
1338:Middlewares/Third_Party/FreeRTOS/Source/queue.c **** 					/* The queue was empty and no block time is specified (or
1339:Middlewares/Third_Party/FreeRTOS/Source/queue.c **** 					the block time has expired) so leave now. */
1340:Middlewares/Third_Party/FreeRTOS/Source/queue.c **** 					taskEXIT_CRITICAL();
 2414              		.loc 1 1340 6
 2415 00f0 FFF7FEFF 		bl	vPortExitCritical
1341:Middlewares/Third_Party/FreeRTOS/Source/queue.c **** 					traceQUEUE_RECEIVE_FAILED( pxQueue );
1342:Middlewares/Third_Party/FreeRTOS/Source/queue.c **** 					return errQUEUE_EMPTY;
 2416              		.loc 1 1342 13
 2417 00f4 0023     		movs	r3, #0
 2418 00f6 62E0     		b	.L164
 2419              	.L157:
1343:Middlewares/Third_Party/FreeRTOS/Source/queue.c **** 				}
1344:Middlewares/Third_Party/FreeRTOS/Source/queue.c **** 				else if( xEntryTimeSet == pdFALSE )
 2420              		.loc 1 1344 12
 2421 00f8 FB6A     		ldr	r3, [r7, #44]
 2422 00fa 002B     		cmp	r3, #0
 2423 00fc 06D1     		bne	.L158
1345:Middlewares/Third_Party/FreeRTOS/Source/queue.c **** 				{
1346:Middlewares/Third_Party/FreeRTOS/Source/queue.c **** 					/* The queue was empty and a block time was specified so
1347:Middlewares/Third_Party/FreeRTOS/Source/queue.c **** 					configure the timeout structure. */
1348:Middlewares/Third_Party/FreeRTOS/Source/queue.c **** 					vTaskInternalSetTimeOutState( &xTimeOut );
 2424              		.loc 1 1348 6
 2425 00fe 07F11003 		add	r3, r7, #16
 2426 0102 1846     		mov	r0, r3
 2427 0104 FFF7FEFF 		bl	vTaskInternalSetTimeOutState
1349:Middlewares/Third_Party/FreeRTOS/Source/queue.c **** 					xEntryTimeSet = pdTRUE;
 2428              		.loc 1 1349 20
 2429 0108 0123     		movs	r3, #1
 2430 010a FB62     		str	r3, [r7, #44]
 2431              	.L158:
 2432              	.LBE180:
1350:Middlewares/Third_Party/FreeRTOS/Source/queue.c **** 				}
1351:Middlewares/Third_Party/FreeRTOS/Source/queue.c **** 				else
1352:Middlewares/Third_Party/FreeRTOS/Source/queue.c **** 				{
1353:Middlewares/Third_Party/FreeRTOS/Source/queue.c **** 					/* Entry time was already set. */
1354:Middlewares/Third_Party/FreeRTOS/Source/queue.c **** 					mtCOVERAGE_TEST_MARKER();
1355:Middlewares/Third_Party/FreeRTOS/Source/queue.c **** 				}
1356:Middlewares/Third_Party/FreeRTOS/Source/queue.c **** 			}
1357:Middlewares/Third_Party/FreeRTOS/Source/queue.c **** 		}
