ARM GAS  C:\Users\jisu8\AppData\Local\Temp\cckFtxsR.s 			page 1


   1              		.cpu cortex-m7
   2              		.arch armv7e-m
   3              		.fpu fpv5-sp-d16
   4              		.eabi_attribute 27, 1
   5              		.eabi_attribute 28, 1
   6              		.eabi_attribute 20, 1
   7              		.eabi_attribute 21, 1
   8              		.eabi_attribute 23, 3
   9              		.eabi_attribute 24, 1
  10              		.eabi_attribute 25, 1
  11              		.eabi_attribute 26, 1
  12              		.eabi_attribute 30, 6
  13              		.eabi_attribute 34, 1
  14              		.eabi_attribute 18, 4
  15              		.file	"stm32f7xx_hal_tim.c"
  16              		.text
  17              	.Ltext0:
  18              		.cfi_sections	.debug_frame
  19              		.section	.text.HAL_TIM_Base_Init,"ax",%progbits
  20              		.align	1
  21              		.global	HAL_TIM_Base_Init
  22              		.syntax unified
  23              		.thumb
  24              		.thumb_func
  26              	HAL_TIM_Base_Init:
  27              	.LFB141:
  28              		.file 1 "Drivers/STM32F7xx_HAL_Driver/Src/stm32f7xx_hal_tim.c"
   1:Drivers/STM32F7xx_HAL_Driver/Src/stm32f7xx_hal_tim.c **** /**
   2:Drivers/STM32F7xx_HAL_Driver/Src/stm32f7xx_hal_tim.c ****   ******************************************************************************
   3:Drivers/STM32F7xx_HAL_Driver/Src/stm32f7xx_hal_tim.c ****   * @file    stm32f7xx_hal_tim.c
   4:Drivers/STM32F7xx_HAL_Driver/Src/stm32f7xx_hal_tim.c ****   * @author  MCD Application Team
   5:Drivers/STM32F7xx_HAL_Driver/Src/stm32f7xx_hal_tim.c ****   * @brief   TIM HAL module driver.
   6:Drivers/STM32F7xx_HAL_Driver/Src/stm32f7xx_hal_tim.c ****   *          This file provides firmware functions to manage the following
   7:Drivers/STM32F7xx_HAL_Driver/Src/stm32f7xx_hal_tim.c ****   *          functionalities of the Timer (TIM) peripheral:
   8:Drivers/STM32F7xx_HAL_Driver/Src/stm32f7xx_hal_tim.c ****   *           + TIM Time Base Initialization
   9:Drivers/STM32F7xx_HAL_Driver/Src/stm32f7xx_hal_tim.c ****   *           + TIM Time Base Start
  10:Drivers/STM32F7xx_HAL_Driver/Src/stm32f7xx_hal_tim.c ****   *           + TIM Time Base Start Interruption
  11:Drivers/STM32F7xx_HAL_Driver/Src/stm32f7xx_hal_tim.c ****   *           + TIM Time Base Start DMA
  12:Drivers/STM32F7xx_HAL_Driver/Src/stm32f7xx_hal_tim.c ****   *           + TIM Output Compare/PWM Initialization
  13:Drivers/STM32F7xx_HAL_Driver/Src/stm32f7xx_hal_tim.c ****   *           + TIM Output Compare/PWM Channel Configuration
  14:Drivers/STM32F7xx_HAL_Driver/Src/stm32f7xx_hal_tim.c ****   *           + TIM Output Compare/PWM  Start
  15:Drivers/STM32F7xx_HAL_Driver/Src/stm32f7xx_hal_tim.c ****   *           + TIM Output Compare/PWM  Start Interruption
  16:Drivers/STM32F7xx_HAL_Driver/Src/stm32f7xx_hal_tim.c ****   *           + TIM Output Compare/PWM Start DMA
  17:Drivers/STM32F7xx_HAL_Driver/Src/stm32f7xx_hal_tim.c ****   *           + TIM Input Capture Initialization
  18:Drivers/STM32F7xx_HAL_Driver/Src/stm32f7xx_hal_tim.c ****   *           + TIM Input Capture Channel Configuration
  19:Drivers/STM32F7xx_HAL_Driver/Src/stm32f7xx_hal_tim.c ****   *           + TIM Input Capture Start
  20:Drivers/STM32F7xx_HAL_Driver/Src/stm32f7xx_hal_tim.c ****   *           + TIM Input Capture Start Interruption
  21:Drivers/STM32F7xx_HAL_Driver/Src/stm32f7xx_hal_tim.c ****   *           + TIM Input Capture Start DMA
  22:Drivers/STM32F7xx_HAL_Driver/Src/stm32f7xx_hal_tim.c ****   *           + TIM One Pulse Initialization
  23:Drivers/STM32F7xx_HAL_Driver/Src/stm32f7xx_hal_tim.c ****   *           + TIM One Pulse Channel Configuration
  24:Drivers/STM32F7xx_HAL_Driver/Src/stm32f7xx_hal_tim.c ****   *           + TIM One Pulse Start
  25:Drivers/STM32F7xx_HAL_Driver/Src/stm32f7xx_hal_tim.c ****   *           + TIM Encoder Interface Initialization
  26:Drivers/STM32F7xx_HAL_Driver/Src/stm32f7xx_hal_tim.c ****   *           + TIM Encoder Interface Start
  27:Drivers/STM32F7xx_HAL_Driver/Src/stm32f7xx_hal_tim.c ****   *           + TIM Encoder Interface Start Interruption
  28:Drivers/STM32F7xx_HAL_Driver/Src/stm32f7xx_hal_tim.c ****   *           + TIM Encoder Interface Start DMA
  29:Drivers/STM32F7xx_HAL_Driver/Src/stm32f7xx_hal_tim.c ****   *           + Commutation Event configuration with Interruption and DMA
  30:Drivers/STM32F7xx_HAL_Driver/Src/stm32f7xx_hal_tim.c ****   *           + TIM OCRef clear configuration
ARM GAS  C:\Users\jisu8\AppData\Local\Temp\cckFtxsR.s 			page 2


  31:Drivers/STM32F7xx_HAL_Driver/Src/stm32f7xx_hal_tim.c ****   *           + TIM External Clock configuration
  32:Drivers/STM32F7xx_HAL_Driver/Src/stm32f7xx_hal_tim.c ****   ******************************************************************************
  33:Drivers/STM32F7xx_HAL_Driver/Src/stm32f7xx_hal_tim.c ****   * @attention
  34:Drivers/STM32F7xx_HAL_Driver/Src/stm32f7xx_hal_tim.c ****   *
  35:Drivers/STM32F7xx_HAL_Driver/Src/stm32f7xx_hal_tim.c ****   * Copyright (c) 2017 STMicroelectronics.
  36:Drivers/STM32F7xx_HAL_Driver/Src/stm32f7xx_hal_tim.c ****   * All rights reserved.
  37:Drivers/STM32F7xx_HAL_Driver/Src/stm32f7xx_hal_tim.c ****   *
  38:Drivers/STM32F7xx_HAL_Driver/Src/stm32f7xx_hal_tim.c ****   * This software is licensed under terms that can be found in the LICENSE file
  39:Drivers/STM32F7xx_HAL_Driver/Src/stm32f7xx_hal_tim.c ****   * in the root directory of this software component.
  40:Drivers/STM32F7xx_HAL_Driver/Src/stm32f7xx_hal_tim.c ****   * If no LICENSE file comes with this software, it is provided AS-IS.
  41:Drivers/STM32F7xx_HAL_Driver/Src/stm32f7xx_hal_tim.c ****   *
  42:Drivers/STM32F7xx_HAL_Driver/Src/stm32f7xx_hal_tim.c ****   ******************************************************************************
  43:Drivers/STM32F7xx_HAL_Driver/Src/stm32f7xx_hal_tim.c ****   @verbatim
  44:Drivers/STM32F7xx_HAL_Driver/Src/stm32f7xx_hal_tim.c ****   ==============================================================================
  45:Drivers/STM32F7xx_HAL_Driver/Src/stm32f7xx_hal_tim.c ****                       ##### TIMER Generic features #####
  46:Drivers/STM32F7xx_HAL_Driver/Src/stm32f7xx_hal_tim.c ****   ==============================================================================
  47:Drivers/STM32F7xx_HAL_Driver/Src/stm32f7xx_hal_tim.c ****   [..] The Timer features include:
  48:Drivers/STM32F7xx_HAL_Driver/Src/stm32f7xx_hal_tim.c ****        (#) 16-bit up, down, up/down auto-reload counter.
  49:Drivers/STM32F7xx_HAL_Driver/Src/stm32f7xx_hal_tim.c ****        (#) 16-bit programmable prescaler allowing dividing (also on the fly) the
  50:Drivers/STM32F7xx_HAL_Driver/Src/stm32f7xx_hal_tim.c ****            counter clock frequency either by any factor between 1 and 65536.
  51:Drivers/STM32F7xx_HAL_Driver/Src/stm32f7xx_hal_tim.c ****        (#) Up to 4 independent channels for:
  52:Drivers/STM32F7xx_HAL_Driver/Src/stm32f7xx_hal_tim.c ****            (++) Input Capture
  53:Drivers/STM32F7xx_HAL_Driver/Src/stm32f7xx_hal_tim.c ****            (++) Output Compare
  54:Drivers/STM32F7xx_HAL_Driver/Src/stm32f7xx_hal_tim.c ****            (++) PWM generation (Edge and Center-aligned Mode)
  55:Drivers/STM32F7xx_HAL_Driver/Src/stm32f7xx_hal_tim.c ****            (++) One-pulse mode output
  56:Drivers/STM32F7xx_HAL_Driver/Src/stm32f7xx_hal_tim.c ****        (#) Synchronization circuit to control the timer with external signals and to interconnect
  57:Drivers/STM32F7xx_HAL_Driver/Src/stm32f7xx_hal_tim.c ****             several timers together.
  58:Drivers/STM32F7xx_HAL_Driver/Src/stm32f7xx_hal_tim.c ****        (#) Supports incremental encoder for positioning purposes
  59:Drivers/STM32F7xx_HAL_Driver/Src/stm32f7xx_hal_tim.c **** 
  60:Drivers/STM32F7xx_HAL_Driver/Src/stm32f7xx_hal_tim.c ****             ##### How to use this driver #####
  61:Drivers/STM32F7xx_HAL_Driver/Src/stm32f7xx_hal_tim.c ****   ==============================================================================
  62:Drivers/STM32F7xx_HAL_Driver/Src/stm32f7xx_hal_tim.c ****     [..]
  63:Drivers/STM32F7xx_HAL_Driver/Src/stm32f7xx_hal_tim.c ****      (#) Initialize the TIM low level resources by implementing the following functions
  64:Drivers/STM32F7xx_HAL_Driver/Src/stm32f7xx_hal_tim.c ****          depending on the selected feature:
  65:Drivers/STM32F7xx_HAL_Driver/Src/stm32f7xx_hal_tim.c ****            (++) Time Base : HAL_TIM_Base_MspInit()
  66:Drivers/STM32F7xx_HAL_Driver/Src/stm32f7xx_hal_tim.c ****            (++) Input Capture : HAL_TIM_IC_MspInit()
  67:Drivers/STM32F7xx_HAL_Driver/Src/stm32f7xx_hal_tim.c ****            (++) Output Compare : HAL_TIM_OC_MspInit()
  68:Drivers/STM32F7xx_HAL_Driver/Src/stm32f7xx_hal_tim.c ****            (++) PWM generation : HAL_TIM_PWM_MspInit()
  69:Drivers/STM32F7xx_HAL_Driver/Src/stm32f7xx_hal_tim.c ****            (++) One-pulse mode output : HAL_TIM_OnePulse_MspInit()
  70:Drivers/STM32F7xx_HAL_Driver/Src/stm32f7xx_hal_tim.c ****            (++) Encoder mode output : HAL_TIM_Encoder_MspInit()
  71:Drivers/STM32F7xx_HAL_Driver/Src/stm32f7xx_hal_tim.c **** 
  72:Drivers/STM32F7xx_HAL_Driver/Src/stm32f7xx_hal_tim.c ****      (#) Initialize the TIM low level resources :
  73:Drivers/STM32F7xx_HAL_Driver/Src/stm32f7xx_hal_tim.c ****         (##) Enable the TIM interface clock using __HAL_RCC_TIMx_CLK_ENABLE();
  74:Drivers/STM32F7xx_HAL_Driver/Src/stm32f7xx_hal_tim.c ****         (##) TIM pins configuration
  75:Drivers/STM32F7xx_HAL_Driver/Src/stm32f7xx_hal_tim.c ****             (+++) Enable the clock for the TIM GPIOs using the following function:
  76:Drivers/STM32F7xx_HAL_Driver/Src/stm32f7xx_hal_tim.c ****              __HAL_RCC_GPIOx_CLK_ENABLE();
  77:Drivers/STM32F7xx_HAL_Driver/Src/stm32f7xx_hal_tim.c ****             (+++) Configure these TIM pins in Alternate function mode using HAL_GPIO_Init();
  78:Drivers/STM32F7xx_HAL_Driver/Src/stm32f7xx_hal_tim.c **** 
  79:Drivers/STM32F7xx_HAL_Driver/Src/stm32f7xx_hal_tim.c ****      (#) The external Clock can be configured, if needed (the default clock is the
  80:Drivers/STM32F7xx_HAL_Driver/Src/stm32f7xx_hal_tim.c ****          internal clock from the APBx), using the following function:
  81:Drivers/STM32F7xx_HAL_Driver/Src/stm32f7xx_hal_tim.c ****          HAL_TIM_ConfigClockSource, the clock configuration should be done before
  82:Drivers/STM32F7xx_HAL_Driver/Src/stm32f7xx_hal_tim.c ****          any start function.
  83:Drivers/STM32F7xx_HAL_Driver/Src/stm32f7xx_hal_tim.c **** 
  84:Drivers/STM32F7xx_HAL_Driver/Src/stm32f7xx_hal_tim.c ****      (#) Configure the TIM in the desired functioning mode using one of the
  85:Drivers/STM32F7xx_HAL_Driver/Src/stm32f7xx_hal_tim.c ****        Initialization function of this driver:
  86:Drivers/STM32F7xx_HAL_Driver/Src/stm32f7xx_hal_tim.c ****        (++) HAL_TIM_Base_Init: to use the Timer to generate a simple time base
  87:Drivers/STM32F7xx_HAL_Driver/Src/stm32f7xx_hal_tim.c ****        (++) HAL_TIM_OC_Init and HAL_TIM_OC_ConfigChannel: to use the Timer to generate an
ARM GAS  C:\Users\jisu8\AppData\Local\Temp\cckFtxsR.s 			page 3


  88:Drivers/STM32F7xx_HAL_Driver/Src/stm32f7xx_hal_tim.c ****             Output Compare signal.
  89:Drivers/STM32F7xx_HAL_Driver/Src/stm32f7xx_hal_tim.c ****        (++) HAL_TIM_PWM_Init and HAL_TIM_PWM_ConfigChannel: to use the Timer to generate a
  90:Drivers/STM32F7xx_HAL_Driver/Src/stm32f7xx_hal_tim.c ****             PWM signal.
  91:Drivers/STM32F7xx_HAL_Driver/Src/stm32f7xx_hal_tim.c ****        (++) HAL_TIM_IC_Init and HAL_TIM_IC_ConfigChannel: to use the Timer to measure an
  92:Drivers/STM32F7xx_HAL_Driver/Src/stm32f7xx_hal_tim.c ****             external signal.
  93:Drivers/STM32F7xx_HAL_Driver/Src/stm32f7xx_hal_tim.c ****        (++) HAL_TIM_OnePulse_Init and HAL_TIM_OnePulse_ConfigChannel: to use the Timer
  94:Drivers/STM32F7xx_HAL_Driver/Src/stm32f7xx_hal_tim.c ****             in One Pulse Mode.
  95:Drivers/STM32F7xx_HAL_Driver/Src/stm32f7xx_hal_tim.c ****        (++) HAL_TIM_Encoder_Init: to use the Timer Encoder Interface.
  96:Drivers/STM32F7xx_HAL_Driver/Src/stm32f7xx_hal_tim.c **** 
  97:Drivers/STM32F7xx_HAL_Driver/Src/stm32f7xx_hal_tim.c ****      (#) Activate the TIM peripheral using one of the start functions depending from the feature us
  98:Drivers/STM32F7xx_HAL_Driver/Src/stm32f7xx_hal_tim.c ****            (++) Time Base : HAL_TIM_Base_Start(), HAL_TIM_Base_Start_DMA(), HAL_TIM_Base_Start_IT()
  99:Drivers/STM32F7xx_HAL_Driver/Src/stm32f7xx_hal_tim.c ****            (++) Input Capture :  HAL_TIM_IC_Start(), HAL_TIM_IC_Start_DMA(), HAL_TIM_IC_Start_IT()
 100:Drivers/STM32F7xx_HAL_Driver/Src/stm32f7xx_hal_tim.c ****            (++) Output Compare : HAL_TIM_OC_Start(), HAL_TIM_OC_Start_DMA(), HAL_TIM_OC_Start_IT()
 101:Drivers/STM32F7xx_HAL_Driver/Src/stm32f7xx_hal_tim.c ****            (++) PWM generation : HAL_TIM_PWM_Start(), HAL_TIM_PWM_Start_DMA(), HAL_TIM_PWM_Start_IT
 102:Drivers/STM32F7xx_HAL_Driver/Src/stm32f7xx_hal_tim.c ****            (++) One-pulse mode output : HAL_TIM_OnePulse_Start(), HAL_TIM_OnePulse_Start_IT()
 103:Drivers/STM32F7xx_HAL_Driver/Src/stm32f7xx_hal_tim.c ****            (++) Encoder mode output : HAL_TIM_Encoder_Start(), HAL_TIM_Encoder_Start_DMA(), HAL_TIM
 104:Drivers/STM32F7xx_HAL_Driver/Src/stm32f7xx_hal_tim.c **** 
 105:Drivers/STM32F7xx_HAL_Driver/Src/stm32f7xx_hal_tim.c ****      (#) The DMA Burst is managed with the two following functions:
 106:Drivers/STM32F7xx_HAL_Driver/Src/stm32f7xx_hal_tim.c ****          HAL_TIM_DMABurst_WriteStart()
 107:Drivers/STM32F7xx_HAL_Driver/Src/stm32f7xx_hal_tim.c ****          HAL_TIM_DMABurst_ReadStart()
 108:Drivers/STM32F7xx_HAL_Driver/Src/stm32f7xx_hal_tim.c **** 
 109:Drivers/STM32F7xx_HAL_Driver/Src/stm32f7xx_hal_tim.c ****     *** Callback registration ***
 110:Drivers/STM32F7xx_HAL_Driver/Src/stm32f7xx_hal_tim.c ****   =============================================
 111:Drivers/STM32F7xx_HAL_Driver/Src/stm32f7xx_hal_tim.c **** 
 112:Drivers/STM32F7xx_HAL_Driver/Src/stm32f7xx_hal_tim.c ****   [..]
 113:Drivers/STM32F7xx_HAL_Driver/Src/stm32f7xx_hal_tim.c ****   The compilation define  USE_HAL_TIM_REGISTER_CALLBACKS when set to 1
 114:Drivers/STM32F7xx_HAL_Driver/Src/stm32f7xx_hal_tim.c ****   allows the user to configure dynamically the driver callbacks.
 115:Drivers/STM32F7xx_HAL_Driver/Src/stm32f7xx_hal_tim.c **** 
 116:Drivers/STM32F7xx_HAL_Driver/Src/stm32f7xx_hal_tim.c ****   [..]
 117:Drivers/STM32F7xx_HAL_Driver/Src/stm32f7xx_hal_tim.c ****   Use Function HAL_TIM_RegisterCallback() to register a callback.
 118:Drivers/STM32F7xx_HAL_Driver/Src/stm32f7xx_hal_tim.c ****   HAL_TIM_RegisterCallback() takes as parameters the HAL peripheral handle,
 119:Drivers/STM32F7xx_HAL_Driver/Src/stm32f7xx_hal_tim.c ****   the Callback ID and a pointer to the user callback function.
 120:Drivers/STM32F7xx_HAL_Driver/Src/stm32f7xx_hal_tim.c **** 
 121:Drivers/STM32F7xx_HAL_Driver/Src/stm32f7xx_hal_tim.c ****   [..]
 122:Drivers/STM32F7xx_HAL_Driver/Src/stm32f7xx_hal_tim.c ****   Use function HAL_TIM_UnRegisterCallback() to reset a callback to the default
 123:Drivers/STM32F7xx_HAL_Driver/Src/stm32f7xx_hal_tim.c ****   weak function.
 124:Drivers/STM32F7xx_HAL_Driver/Src/stm32f7xx_hal_tim.c ****   HAL_TIM_UnRegisterCallback takes as parameters the HAL peripheral handle,
 125:Drivers/STM32F7xx_HAL_Driver/Src/stm32f7xx_hal_tim.c ****   and the Callback ID.
 126:Drivers/STM32F7xx_HAL_Driver/Src/stm32f7xx_hal_tim.c **** 
 127:Drivers/STM32F7xx_HAL_Driver/Src/stm32f7xx_hal_tim.c ****   [..]
 128:Drivers/STM32F7xx_HAL_Driver/Src/stm32f7xx_hal_tim.c ****   These functions allow to register/unregister following callbacks:
 129:Drivers/STM32F7xx_HAL_Driver/Src/stm32f7xx_hal_tim.c ****     (+) Base_MspInitCallback              : TIM Base Msp Init Callback.
 130:Drivers/STM32F7xx_HAL_Driver/Src/stm32f7xx_hal_tim.c ****     (+) Base_MspDeInitCallback            : TIM Base Msp DeInit Callback.
 131:Drivers/STM32F7xx_HAL_Driver/Src/stm32f7xx_hal_tim.c ****     (+) IC_MspInitCallback                : TIM IC Msp Init Callback.
 132:Drivers/STM32F7xx_HAL_Driver/Src/stm32f7xx_hal_tim.c ****     (+) IC_MspDeInitCallback              : TIM IC Msp DeInit Callback.
 133:Drivers/STM32F7xx_HAL_Driver/Src/stm32f7xx_hal_tim.c ****     (+) OC_MspInitCallback                : TIM OC Msp Init Callback.
 134:Drivers/STM32F7xx_HAL_Driver/Src/stm32f7xx_hal_tim.c ****     (+) OC_MspDeInitCallback              : TIM OC Msp DeInit Callback.
 135:Drivers/STM32F7xx_HAL_Driver/Src/stm32f7xx_hal_tim.c ****     (+) PWM_MspInitCallback               : TIM PWM Msp Init Callback.
 136:Drivers/STM32F7xx_HAL_Driver/Src/stm32f7xx_hal_tim.c ****     (+) PWM_MspDeInitCallback             : TIM PWM Msp DeInit Callback.
 137:Drivers/STM32F7xx_HAL_Driver/Src/stm32f7xx_hal_tim.c ****     (+) OnePulse_MspInitCallback          : TIM One Pulse Msp Init Callback.
 138:Drivers/STM32F7xx_HAL_Driver/Src/stm32f7xx_hal_tim.c ****     (+) OnePulse_MspDeInitCallback        : TIM One Pulse Msp DeInit Callback.
 139:Drivers/STM32F7xx_HAL_Driver/Src/stm32f7xx_hal_tim.c ****     (+) Encoder_MspInitCallback           : TIM Encoder Msp Init Callback.
 140:Drivers/STM32F7xx_HAL_Driver/Src/stm32f7xx_hal_tim.c ****     (+) Encoder_MspDeInitCallback         : TIM Encoder Msp DeInit Callback.
 141:Drivers/STM32F7xx_HAL_Driver/Src/stm32f7xx_hal_tim.c ****     (+) HallSensor_MspInitCallback        : TIM Hall Sensor Msp Init Callback.
 142:Drivers/STM32F7xx_HAL_Driver/Src/stm32f7xx_hal_tim.c ****     (+) HallSensor_MspDeInitCallback      : TIM Hall Sensor Msp DeInit Callback.
 143:Drivers/STM32F7xx_HAL_Driver/Src/stm32f7xx_hal_tim.c ****     (+) PeriodElapsedCallback             : TIM Period Elapsed Callback.
 144:Drivers/STM32F7xx_HAL_Driver/Src/stm32f7xx_hal_tim.c ****     (+) PeriodElapsedHalfCpltCallback     : TIM Period Elapsed half complete Callback.
ARM GAS  C:\Users\jisu8\AppData\Local\Temp\cckFtxsR.s 			page 4


 145:Drivers/STM32F7xx_HAL_Driver/Src/stm32f7xx_hal_tim.c ****     (+) TriggerCallback                   : TIM Trigger Callback.
 146:Drivers/STM32F7xx_HAL_Driver/Src/stm32f7xx_hal_tim.c ****     (+) TriggerHalfCpltCallback           : TIM Trigger half complete Callback.
 147:Drivers/STM32F7xx_HAL_Driver/Src/stm32f7xx_hal_tim.c ****     (+) IC_CaptureCallback                : TIM Input Capture Callback.
 148:Drivers/STM32F7xx_HAL_Driver/Src/stm32f7xx_hal_tim.c ****     (+) IC_CaptureHalfCpltCallback        : TIM Input Capture half complete Callback.
 149:Drivers/STM32F7xx_HAL_Driver/Src/stm32f7xx_hal_tim.c ****     (+) OC_DelayElapsedCallback           : TIM Output Compare Delay Elapsed Callback.
 150:Drivers/STM32F7xx_HAL_Driver/Src/stm32f7xx_hal_tim.c ****     (+) PWM_PulseFinishedCallback         : TIM PWM Pulse Finished Callback.
 151:Drivers/STM32F7xx_HAL_Driver/Src/stm32f7xx_hal_tim.c ****     (+) PWM_PulseFinishedHalfCpltCallback : TIM PWM Pulse Finished half complete Callback.
 152:Drivers/STM32F7xx_HAL_Driver/Src/stm32f7xx_hal_tim.c ****     (+) ErrorCallback                     : TIM Error Callback.
 153:Drivers/STM32F7xx_HAL_Driver/Src/stm32f7xx_hal_tim.c ****     (+) CommutationCallback               : TIM Commutation Callback.
 154:Drivers/STM32F7xx_HAL_Driver/Src/stm32f7xx_hal_tim.c ****     (+) CommutationHalfCpltCallback       : TIM Commutation half complete Callback.
 155:Drivers/STM32F7xx_HAL_Driver/Src/stm32f7xx_hal_tim.c ****     (+) BreakCallback                     : TIM Break Callback.
 156:Drivers/STM32F7xx_HAL_Driver/Src/stm32f7xx_hal_tim.c ****     (+) Break2Callback                    : TIM Break2 Callback.
 157:Drivers/STM32F7xx_HAL_Driver/Src/stm32f7xx_hal_tim.c **** 
 158:Drivers/STM32F7xx_HAL_Driver/Src/stm32f7xx_hal_tim.c ****   [..]
 159:Drivers/STM32F7xx_HAL_Driver/Src/stm32f7xx_hal_tim.c **** By default, after the Init and when the state is HAL_TIM_STATE_RESET
 160:Drivers/STM32F7xx_HAL_Driver/Src/stm32f7xx_hal_tim.c **** all interrupt callbacks are set to the corresponding weak functions:
 161:Drivers/STM32F7xx_HAL_Driver/Src/stm32f7xx_hal_tim.c ****   examples HAL_TIM_TriggerCallback(), HAL_TIM_ErrorCallback().
 162:Drivers/STM32F7xx_HAL_Driver/Src/stm32f7xx_hal_tim.c **** 
 163:Drivers/STM32F7xx_HAL_Driver/Src/stm32f7xx_hal_tim.c ****   [..]
 164:Drivers/STM32F7xx_HAL_Driver/Src/stm32f7xx_hal_tim.c ****   Exception done for MspInit and MspDeInit functions that are reset to the legacy weak
 165:Drivers/STM32F7xx_HAL_Driver/Src/stm32f7xx_hal_tim.c ****   functionalities in the Init / DeInit only when these callbacks are null
 166:Drivers/STM32F7xx_HAL_Driver/Src/stm32f7xx_hal_tim.c ****   (not registered beforehand). If not, MspInit or MspDeInit are not null, the Init / DeInit
 167:Drivers/STM32F7xx_HAL_Driver/Src/stm32f7xx_hal_tim.c ****     keep and use the user MspInit / MspDeInit callbacks(registered beforehand)
 168:Drivers/STM32F7xx_HAL_Driver/Src/stm32f7xx_hal_tim.c **** 
 169:Drivers/STM32F7xx_HAL_Driver/Src/stm32f7xx_hal_tim.c ****   [..]
 170:Drivers/STM32F7xx_HAL_Driver/Src/stm32f7xx_hal_tim.c ****     Callbacks can be registered / unregistered in HAL_TIM_STATE_READY state only.
 171:Drivers/STM32F7xx_HAL_Driver/Src/stm32f7xx_hal_tim.c ****     Exception done MspInit / MspDeInit that can be registered / unregistered
 172:Drivers/STM32F7xx_HAL_Driver/Src/stm32f7xx_hal_tim.c ****     in HAL_TIM_STATE_READY or HAL_TIM_STATE_RESET state,
 173:Drivers/STM32F7xx_HAL_Driver/Src/stm32f7xx_hal_tim.c ****     thus registered(user) MspInit / DeInit callbacks can be used during the Init / DeInit.
 174:Drivers/STM32F7xx_HAL_Driver/Src/stm32f7xx_hal_tim.c ****   In that case first register the MspInit/MspDeInit user callbacks
 175:Drivers/STM32F7xx_HAL_Driver/Src/stm32f7xx_hal_tim.c ****       using HAL_TIM_RegisterCallback() before calling DeInit or Init function.
 176:Drivers/STM32F7xx_HAL_Driver/Src/stm32f7xx_hal_tim.c **** 
 177:Drivers/STM32F7xx_HAL_Driver/Src/stm32f7xx_hal_tim.c ****   [..]
 178:Drivers/STM32F7xx_HAL_Driver/Src/stm32f7xx_hal_tim.c ****       When The compilation define USE_HAL_TIM_REGISTER_CALLBACKS is set to 0 or
 179:Drivers/STM32F7xx_HAL_Driver/Src/stm32f7xx_hal_tim.c ****       not defined, the callback registration feature is not available and all callbacks
 180:Drivers/STM32F7xx_HAL_Driver/Src/stm32f7xx_hal_tim.c ****       are set to the corresponding weak functions.
 181:Drivers/STM32F7xx_HAL_Driver/Src/stm32f7xx_hal_tim.c **** 
 182:Drivers/STM32F7xx_HAL_Driver/Src/stm32f7xx_hal_tim.c ****   @endverbatim
 183:Drivers/STM32F7xx_HAL_Driver/Src/stm32f7xx_hal_tim.c ****   ******************************************************************************
 184:Drivers/STM32F7xx_HAL_Driver/Src/stm32f7xx_hal_tim.c ****   */
 185:Drivers/STM32F7xx_HAL_Driver/Src/stm32f7xx_hal_tim.c **** 
 186:Drivers/STM32F7xx_HAL_Driver/Src/stm32f7xx_hal_tim.c **** /* Includes ------------------------------------------------------------------*/
 187:Drivers/STM32F7xx_HAL_Driver/Src/stm32f7xx_hal_tim.c **** #include "stm32f7xx_hal.h"
 188:Drivers/STM32F7xx_HAL_Driver/Src/stm32f7xx_hal_tim.c **** 
 189:Drivers/STM32F7xx_HAL_Driver/Src/stm32f7xx_hal_tim.c **** /** @addtogroup STM32F7xx_HAL_Driver
 190:Drivers/STM32F7xx_HAL_Driver/Src/stm32f7xx_hal_tim.c ****   * @{
 191:Drivers/STM32F7xx_HAL_Driver/Src/stm32f7xx_hal_tim.c ****   */
 192:Drivers/STM32F7xx_HAL_Driver/Src/stm32f7xx_hal_tim.c **** 
 193:Drivers/STM32F7xx_HAL_Driver/Src/stm32f7xx_hal_tim.c **** /** @defgroup TIM TIM
 194:Drivers/STM32F7xx_HAL_Driver/Src/stm32f7xx_hal_tim.c ****   * @brief TIM HAL module driver
 195:Drivers/STM32F7xx_HAL_Driver/Src/stm32f7xx_hal_tim.c ****   * @{
 196:Drivers/STM32F7xx_HAL_Driver/Src/stm32f7xx_hal_tim.c ****   */
 197:Drivers/STM32F7xx_HAL_Driver/Src/stm32f7xx_hal_tim.c **** 
 198:Drivers/STM32F7xx_HAL_Driver/Src/stm32f7xx_hal_tim.c **** #ifdef HAL_TIM_MODULE_ENABLED
 199:Drivers/STM32F7xx_HAL_Driver/Src/stm32f7xx_hal_tim.c **** 
 200:Drivers/STM32F7xx_HAL_Driver/Src/stm32f7xx_hal_tim.c **** /* Private typedef -----------------------------------------------------------*/
 201:Drivers/STM32F7xx_HAL_Driver/Src/stm32f7xx_hal_tim.c **** /* Private define ------------------------------------------------------------*/
ARM GAS  C:\Users\jisu8\AppData\Local\Temp\cckFtxsR.s 			page 5


 202:Drivers/STM32F7xx_HAL_Driver/Src/stm32f7xx_hal_tim.c **** /* Private macros ------------------------------------------------------------*/
 203:Drivers/STM32F7xx_HAL_Driver/Src/stm32f7xx_hal_tim.c **** /* Private variables ---------------------------------------------------------*/
 204:Drivers/STM32F7xx_HAL_Driver/Src/stm32f7xx_hal_tim.c **** /* Private function prototypes -----------------------------------------------*/
 205:Drivers/STM32F7xx_HAL_Driver/Src/stm32f7xx_hal_tim.c **** /** @addtogroup TIM_Private_Functions
 206:Drivers/STM32F7xx_HAL_Driver/Src/stm32f7xx_hal_tim.c ****   * @{
 207:Drivers/STM32F7xx_HAL_Driver/Src/stm32f7xx_hal_tim.c ****   */
 208:Drivers/STM32F7xx_HAL_Driver/Src/stm32f7xx_hal_tim.c **** static void TIM_OC1_SetConfig(TIM_TypeDef *TIMx, const TIM_OC_InitTypeDef *OC_Config);
 209:Drivers/STM32F7xx_HAL_Driver/Src/stm32f7xx_hal_tim.c **** static void TIM_OC3_SetConfig(TIM_TypeDef *TIMx, const TIM_OC_InitTypeDef *OC_Config);
 210:Drivers/STM32F7xx_HAL_Driver/Src/stm32f7xx_hal_tim.c **** static void TIM_OC4_SetConfig(TIM_TypeDef *TIMx, const TIM_OC_InitTypeDef *OC_Config);
 211:Drivers/STM32F7xx_HAL_Driver/Src/stm32f7xx_hal_tim.c **** static void TIM_OC5_SetConfig(TIM_TypeDef *TIMx, const TIM_OC_InitTypeDef *OC_Config);
 212:Drivers/STM32F7xx_HAL_Driver/Src/stm32f7xx_hal_tim.c **** static void TIM_OC6_SetConfig(TIM_TypeDef *TIMx, const TIM_OC_InitTypeDef *OC_Config);
 213:Drivers/STM32F7xx_HAL_Driver/Src/stm32f7xx_hal_tim.c **** static void TIM_TI1_ConfigInputStage(TIM_TypeDef *TIMx, uint32_t TIM_ICPolarity, uint32_t TIM_ICFil
 214:Drivers/STM32F7xx_HAL_Driver/Src/stm32f7xx_hal_tim.c **** static void TIM_TI2_SetConfig(TIM_TypeDef *TIMx, uint32_t TIM_ICPolarity, uint32_t TIM_ICSelection,
 215:Drivers/STM32F7xx_HAL_Driver/Src/stm32f7xx_hal_tim.c ****                               uint32_t TIM_ICFilter);
 216:Drivers/STM32F7xx_HAL_Driver/Src/stm32f7xx_hal_tim.c **** static void TIM_TI2_ConfigInputStage(TIM_TypeDef *TIMx, uint32_t TIM_ICPolarity, uint32_t TIM_ICFil
 217:Drivers/STM32F7xx_HAL_Driver/Src/stm32f7xx_hal_tim.c **** static void TIM_TI3_SetConfig(TIM_TypeDef *TIMx, uint32_t TIM_ICPolarity, uint32_t TIM_ICSelection,
 218:Drivers/STM32F7xx_HAL_Driver/Src/stm32f7xx_hal_tim.c ****                               uint32_t TIM_ICFilter);
 219:Drivers/STM32F7xx_HAL_Driver/Src/stm32f7xx_hal_tim.c **** static void TIM_TI4_SetConfig(TIM_TypeDef *TIMx, uint32_t TIM_ICPolarity, uint32_t TIM_ICSelection,
 220:Drivers/STM32F7xx_HAL_Driver/Src/stm32f7xx_hal_tim.c ****                               uint32_t TIM_ICFilter);
 221:Drivers/STM32F7xx_HAL_Driver/Src/stm32f7xx_hal_tim.c **** static void TIM_ITRx_SetConfig(TIM_TypeDef *TIMx, uint32_t InputTriggerSource);
 222:Drivers/STM32F7xx_HAL_Driver/Src/stm32f7xx_hal_tim.c **** static void TIM_DMAPeriodElapsedCplt(DMA_HandleTypeDef *hdma);
 223:Drivers/STM32F7xx_HAL_Driver/Src/stm32f7xx_hal_tim.c **** static void TIM_DMAPeriodElapsedHalfCplt(DMA_HandleTypeDef *hdma);
 224:Drivers/STM32F7xx_HAL_Driver/Src/stm32f7xx_hal_tim.c **** static void TIM_DMADelayPulseCplt(DMA_HandleTypeDef *hdma);
 225:Drivers/STM32F7xx_HAL_Driver/Src/stm32f7xx_hal_tim.c **** static void TIM_DMATriggerCplt(DMA_HandleTypeDef *hdma);
 226:Drivers/STM32F7xx_HAL_Driver/Src/stm32f7xx_hal_tim.c **** static void TIM_DMATriggerHalfCplt(DMA_HandleTypeDef *hdma);
 227:Drivers/STM32F7xx_HAL_Driver/Src/stm32f7xx_hal_tim.c **** static HAL_StatusTypeDef TIM_SlaveTimer_SetConfig(TIM_HandleTypeDef *htim,
 228:Drivers/STM32F7xx_HAL_Driver/Src/stm32f7xx_hal_tim.c ****                                                   const TIM_SlaveConfigTypeDef *sSlaveConfig);
 229:Drivers/STM32F7xx_HAL_Driver/Src/stm32f7xx_hal_tim.c **** /**
 230:Drivers/STM32F7xx_HAL_Driver/Src/stm32f7xx_hal_tim.c ****   * @}
 231:Drivers/STM32F7xx_HAL_Driver/Src/stm32f7xx_hal_tim.c ****   */
 232:Drivers/STM32F7xx_HAL_Driver/Src/stm32f7xx_hal_tim.c **** /* Exported functions --------------------------------------------------------*/
 233:Drivers/STM32F7xx_HAL_Driver/Src/stm32f7xx_hal_tim.c **** 
 234:Drivers/STM32F7xx_HAL_Driver/Src/stm32f7xx_hal_tim.c **** /** @defgroup TIM_Exported_Functions TIM Exported Functions
 235:Drivers/STM32F7xx_HAL_Driver/Src/stm32f7xx_hal_tim.c ****   * @{
 236:Drivers/STM32F7xx_HAL_Driver/Src/stm32f7xx_hal_tim.c ****   */
 237:Drivers/STM32F7xx_HAL_Driver/Src/stm32f7xx_hal_tim.c **** 
 238:Drivers/STM32F7xx_HAL_Driver/Src/stm32f7xx_hal_tim.c **** /** @defgroup TIM_Exported_Functions_Group1 TIM Time Base functions
 239:Drivers/STM32F7xx_HAL_Driver/Src/stm32f7xx_hal_tim.c ****   *  @brief    Time Base functions
 240:Drivers/STM32F7xx_HAL_Driver/Src/stm32f7xx_hal_tim.c ****   *
 241:Drivers/STM32F7xx_HAL_Driver/Src/stm32f7xx_hal_tim.c **** @verbatim
 242:Drivers/STM32F7xx_HAL_Driver/Src/stm32f7xx_hal_tim.c ****   ==============================================================================
 243:Drivers/STM32F7xx_HAL_Driver/Src/stm32f7xx_hal_tim.c ****               ##### Time Base functions #####
 244:Drivers/STM32F7xx_HAL_Driver/Src/stm32f7xx_hal_tim.c ****   ==============================================================================
 245:Drivers/STM32F7xx_HAL_Driver/Src/stm32f7xx_hal_tim.c ****   [..]
 246:Drivers/STM32F7xx_HAL_Driver/Src/stm32f7xx_hal_tim.c ****     This section provides functions allowing to:
 247:Drivers/STM32F7xx_HAL_Driver/Src/stm32f7xx_hal_tim.c ****     (+) Initialize and configure the TIM base.
 248:Drivers/STM32F7xx_HAL_Driver/Src/stm32f7xx_hal_tim.c ****     (+) De-initialize the TIM base.
 249:Drivers/STM32F7xx_HAL_Driver/Src/stm32f7xx_hal_tim.c ****     (+) Start the Time Base.
 250:Drivers/STM32F7xx_HAL_Driver/Src/stm32f7xx_hal_tim.c ****     (+) Stop the Time Base.
 251:Drivers/STM32F7xx_HAL_Driver/Src/stm32f7xx_hal_tim.c ****     (+) Start the Time Base and enable interrupt.
 252:Drivers/STM32F7xx_HAL_Driver/Src/stm32f7xx_hal_tim.c ****     (+) Stop the Time Base and disable interrupt.
 253:Drivers/STM32F7xx_HAL_Driver/Src/stm32f7xx_hal_tim.c ****     (+) Start the Time Base and enable DMA transfer.
 254:Drivers/STM32F7xx_HAL_Driver/Src/stm32f7xx_hal_tim.c ****     (+) Stop the Time Base and disable DMA transfer.
 255:Drivers/STM32F7xx_HAL_Driver/Src/stm32f7xx_hal_tim.c **** 
 256:Drivers/STM32F7xx_HAL_Driver/Src/stm32f7xx_hal_tim.c **** @endverbatim
 257:Drivers/STM32F7xx_HAL_Driver/Src/stm32f7xx_hal_tim.c ****   * @{
 258:Drivers/STM32F7xx_HAL_Driver/Src/stm32f7xx_hal_tim.c ****   */
ARM GAS  C:\Users\jisu8\AppData\Local\Temp\cckFtxsR.s 			page 6


 259:Drivers/STM32F7xx_HAL_Driver/Src/stm32f7xx_hal_tim.c **** /**
 260:Drivers/STM32F7xx_HAL_Driver/Src/stm32f7xx_hal_tim.c ****   * @brief  Initializes the TIM Time base Unit according to the specified
 261:Drivers/STM32F7xx_HAL_Driver/Src/stm32f7xx_hal_tim.c ****   *         parameters in the TIM_HandleTypeDef and initialize the associated handle.
 262:Drivers/STM32F7xx_HAL_Driver/Src/stm32f7xx_hal_tim.c ****   * @note   Switching from Center Aligned counter mode to Edge counter mode (or reverse)
 263:Drivers/STM32F7xx_HAL_Driver/Src/stm32f7xx_hal_tim.c ****   *         requires a timer reset to avoid unexpected direction
 264:Drivers/STM32F7xx_HAL_Driver/Src/stm32f7xx_hal_tim.c ****   *         due to DIR bit readonly in center aligned mode.
 265:Drivers/STM32F7xx_HAL_Driver/Src/stm32f7xx_hal_tim.c ****   *         Ex: call @ref HAL_TIM_Base_DeInit() before HAL_TIM_Base_Init()
 266:Drivers/STM32F7xx_HAL_Driver/Src/stm32f7xx_hal_tim.c ****   * @param  htim TIM Base handle
 267:Drivers/STM32F7xx_HAL_Driver/Src/stm32f7xx_hal_tim.c ****   * @retval HAL status
 268:Drivers/STM32F7xx_HAL_Driver/Src/stm32f7xx_hal_tim.c ****   */
 269:Drivers/STM32F7xx_HAL_Driver/Src/stm32f7xx_hal_tim.c **** HAL_StatusTypeDef HAL_TIM_Base_Init(TIM_HandleTypeDef *htim)
 270:Drivers/STM32F7xx_HAL_Driver/Src/stm32f7xx_hal_tim.c **** {
  29              		.loc 1 270 1
  30              		.cfi_startproc
  31              		@ args = 0, pretend = 0, frame = 8
  32              		@ frame_needed = 1, uses_anonymous_args = 0
  33 0000 80B5     		push	{r7, lr}
  34              	.LCFI0:
  35              		.cfi_def_cfa_offset 8
  36              		.cfi_offset 7, -8
  37              		.cfi_offset 14, -4
  38 0002 82B0     		sub	sp, sp, #8
  39              	.LCFI1:
  40              		.cfi_def_cfa_offset 16
  41 0004 00AF     		add	r7, sp, #0
  42              	.LCFI2:
  43              		.cfi_def_cfa_register 7
  44 0006 7860     		str	r0, [r7, #4]
 271:Drivers/STM32F7xx_HAL_Driver/Src/stm32f7xx_hal_tim.c ****   /* Check the TIM handle allocation */
 272:Drivers/STM32F7xx_HAL_Driver/Src/stm32f7xx_hal_tim.c ****   if (htim == NULL)
  45              		.loc 1 272 6
  46 0008 7B68     		ldr	r3, [r7, #4]
  47 000a 002B     		cmp	r3, #0
  48 000c 01D1     		bne	.L2
 273:Drivers/STM32F7xx_HAL_Driver/Src/stm32f7xx_hal_tim.c ****   {
 274:Drivers/STM32F7xx_HAL_Driver/Src/stm32f7xx_hal_tim.c ****     return HAL_ERROR;
  49              		.loc 1 274 12
  50 000e 0123     		movs	r3, #1
  51 0010 49E0     		b	.L3
  52              	.L2:
 275:Drivers/STM32F7xx_HAL_Driver/Src/stm32f7xx_hal_tim.c ****   }
 276:Drivers/STM32F7xx_HAL_Driver/Src/stm32f7xx_hal_tim.c **** 
 277:Drivers/STM32F7xx_HAL_Driver/Src/stm32f7xx_hal_tim.c ****   /* Check the parameters */
 278:Drivers/STM32F7xx_HAL_Driver/Src/stm32f7xx_hal_tim.c ****   assert_param(IS_TIM_INSTANCE(htim->Instance));
 279:Drivers/STM32F7xx_HAL_Driver/Src/stm32f7xx_hal_tim.c ****   assert_param(IS_TIM_COUNTER_MODE(htim->Init.CounterMode));
 280:Drivers/STM32F7xx_HAL_Driver/Src/stm32f7xx_hal_tim.c ****   assert_param(IS_TIM_CLOCKDIVISION_DIV(htim->Init.ClockDivision));
 281:Drivers/STM32F7xx_HAL_Driver/Src/stm32f7xx_hal_tim.c ****   assert_param(IS_TIM_PERIOD(htim, htim->Init.Period));
 282:Drivers/STM32F7xx_HAL_Driver/Src/stm32f7xx_hal_tim.c ****   assert_param(IS_TIM_AUTORELOAD_PRELOAD(htim->Init.AutoReloadPreload));
 283:Drivers/STM32F7xx_HAL_Driver/Src/stm32f7xx_hal_tim.c **** 
 284:Drivers/STM32F7xx_HAL_Driver/Src/stm32f7xx_hal_tim.c ****   if (htim->State == HAL_TIM_STATE_RESET)
  53              		.loc 1 284 11
  54 0012 7B68     		ldr	r3, [r7, #4]
  55 0014 93F83D30 		ldrb	r3, [r3, #61]
  56 0018 DBB2     		uxtb	r3, r3
  57              		.loc 1 284 6
  58 001a 002B     		cmp	r3, #0
  59 001c 06D1     		bne	.L4
ARM GAS  C:\Users\jisu8\AppData\Local\Temp\cckFtxsR.s 			page 7


 285:Drivers/STM32F7xx_HAL_Driver/Src/stm32f7xx_hal_tim.c ****   {
 286:Drivers/STM32F7xx_HAL_Driver/Src/stm32f7xx_hal_tim.c ****     /* Allocate lock resource and initialize it */
 287:Drivers/STM32F7xx_HAL_Driver/Src/stm32f7xx_hal_tim.c ****     htim->Lock = HAL_UNLOCKED;
  60              		.loc 1 287 16
  61 001e 7B68     		ldr	r3, [r7, #4]
  62 0020 0022     		movs	r2, #0
  63 0022 83F83C20 		strb	r2, [r3, #60]
 288:Drivers/STM32F7xx_HAL_Driver/Src/stm32f7xx_hal_tim.c **** 
 289:Drivers/STM32F7xx_HAL_Driver/Src/stm32f7xx_hal_tim.c **** #if (USE_HAL_TIM_REGISTER_CALLBACKS == 1)
 290:Drivers/STM32F7xx_HAL_Driver/Src/stm32f7xx_hal_tim.c ****     /* Reset interrupt callbacks to legacy weak callbacks */
 291:Drivers/STM32F7xx_HAL_Driver/Src/stm32f7xx_hal_tim.c ****     TIM_ResetCallback(htim);
 292:Drivers/STM32F7xx_HAL_Driver/Src/stm32f7xx_hal_tim.c **** 
 293:Drivers/STM32F7xx_HAL_Driver/Src/stm32f7xx_hal_tim.c ****     if (htim->Base_MspInitCallback == NULL)
 294:Drivers/STM32F7xx_HAL_Driver/Src/stm32f7xx_hal_tim.c ****     {
 295:Drivers/STM32F7xx_HAL_Driver/Src/stm32f7xx_hal_tim.c ****       htim->Base_MspInitCallback = HAL_TIM_Base_MspInit;
 296:Drivers/STM32F7xx_HAL_Driver/Src/stm32f7xx_hal_tim.c ****     }
 297:Drivers/STM32F7xx_HAL_Driver/Src/stm32f7xx_hal_tim.c ****     /* Init the low level hardware : GPIO, CLOCK, NVIC */
 298:Drivers/STM32F7xx_HAL_Driver/Src/stm32f7xx_hal_tim.c ****     htim->Base_MspInitCallback(htim);
 299:Drivers/STM32F7xx_HAL_Driver/Src/stm32f7xx_hal_tim.c **** #else
 300:Drivers/STM32F7xx_HAL_Driver/Src/stm32f7xx_hal_tim.c ****     /* Init the low level hardware : GPIO, CLOCK, NVIC */
 301:Drivers/STM32F7xx_HAL_Driver/Src/stm32f7xx_hal_tim.c ****     HAL_TIM_Base_MspInit(htim);
  64              		.loc 1 301 5
  65 0026 7868     		ldr	r0, [r7, #4]
  66 0028 FFF7FEFF 		bl	HAL_TIM_Base_MspInit
  67              	.L4:
 302:Drivers/STM32F7xx_HAL_Driver/Src/stm32f7xx_hal_tim.c **** #endif /* USE_HAL_TIM_REGISTER_CALLBACKS */
 303:Drivers/STM32F7xx_HAL_Driver/Src/stm32f7xx_hal_tim.c ****   }
 304:Drivers/STM32F7xx_HAL_Driver/Src/stm32f7xx_hal_tim.c **** 
 305:Drivers/STM32F7xx_HAL_Driver/Src/stm32f7xx_hal_tim.c ****   /* Set the TIM state */
 306:Drivers/STM32F7xx_HAL_Driver/Src/stm32f7xx_hal_tim.c ****   htim->State = HAL_TIM_STATE_BUSY;
  68              		.loc 1 306 15
  69 002c 7B68     		ldr	r3, [r7, #4]
  70 002e 0222     		movs	r2, #2
  71 0030 83F83D20 		strb	r2, [r3, #61]
 307:Drivers/STM32F7xx_HAL_Driver/Src/stm32f7xx_hal_tim.c **** 
 308:Drivers/STM32F7xx_HAL_Driver/Src/stm32f7xx_hal_tim.c ****   /* Set the Time Base configuration */
 309:Drivers/STM32F7xx_HAL_Driver/Src/stm32f7xx_hal_tim.c ****   TIM_Base_SetConfig(htim->Instance, &htim->Init);
  72              		.loc 1 309 3
  73 0034 7B68     		ldr	r3, [r7, #4]
  74 0036 1A68     		ldr	r2, [r3]
  75              		.loc 1 309 38
  76 0038 7B68     		ldr	r3, [r7, #4]
  77 003a 0433     		adds	r3, r3, #4
  78              		.loc 1 309 3
  79 003c 1946     		mov	r1, r3
  80 003e 1046     		mov	r0, r2
  81 0040 FFF7FEFF 		bl	TIM_Base_SetConfig
 310:Drivers/STM32F7xx_HAL_Driver/Src/stm32f7xx_hal_tim.c **** 
 311:Drivers/STM32F7xx_HAL_Driver/Src/stm32f7xx_hal_tim.c ****   /* Initialize the DMA burst operation state */
 312:Drivers/STM32F7xx_HAL_Driver/Src/stm32f7xx_hal_tim.c ****   htim->DMABurstState = HAL_DMA_BURST_STATE_READY;
  82              		.loc 1 312 23
  83 0044 7B68     		ldr	r3, [r7, #4]
  84 0046 0122     		movs	r2, #1
  85 0048 83F84820 		strb	r2, [r3, #72]
 313:Drivers/STM32F7xx_HAL_Driver/Src/stm32f7xx_hal_tim.c **** 
 314:Drivers/STM32F7xx_HAL_Driver/Src/stm32f7xx_hal_tim.c ****   /* Initialize the TIM channels state */
 315:Drivers/STM32F7xx_HAL_Driver/Src/stm32f7xx_hal_tim.c ****   TIM_CHANNEL_STATE_SET_ALL(htim, HAL_TIM_CHANNEL_STATE_READY);
ARM GAS  C:\Users\jisu8\AppData\Local\Temp\cckFtxsR.s 			page 8


  86              		.loc 1 315 3
  87 004c 7B68     		ldr	r3, [r7, #4]
  88 004e 0122     		movs	r2, #1
  89 0050 83F83E20 		strb	r2, [r3, #62]
  90 0054 7B68     		ldr	r3, [r7, #4]
  91 0056 0122     		movs	r2, #1
  92 0058 83F83F20 		strb	r2, [r3, #63]
  93 005c 7B68     		ldr	r3, [r7, #4]
  94 005e 0122     		movs	r2, #1
  95 0060 83F84020 		strb	r2, [r3, #64]
  96 0064 7B68     		ldr	r3, [r7, #4]
  97 0066 0122     		movs	r2, #1
  98 0068 83F84120 		strb	r2, [r3, #65]
  99 006c 7B68     		ldr	r3, [r7, #4]
 100 006e 0122     		movs	r2, #1
 101 0070 83F84220 		strb	r2, [r3, #66]
 102 0074 7B68     		ldr	r3, [r7, #4]
 103 0076 0122     		movs	r2, #1
 104 0078 83F84320 		strb	r2, [r3, #67]
 316:Drivers/STM32F7xx_HAL_Driver/Src/stm32f7xx_hal_tim.c ****   TIM_CHANNEL_N_STATE_SET_ALL(htim, HAL_TIM_CHANNEL_STATE_READY);
 105              		.loc 1 316 3
 106 007c 7B68     		ldr	r3, [r7, #4]
 107 007e 0122     		movs	r2, #1
 108 0080 83F84420 		strb	r2, [r3, #68]
 109 0084 7B68     		ldr	r3, [r7, #4]
 110 0086 0122     		movs	r2, #1
 111 0088 83F84520 		strb	r2, [r3, #69]
 112 008c 7B68     		ldr	r3, [r7, #4]
 113 008e 0122     		movs	r2, #1
 114 0090 83F84620 		strb	r2, [r3, #70]
 115 0094 7B68     		ldr	r3, [r7, #4]
 116 0096 0122     		movs	r2, #1
 117 0098 83F84720 		strb	r2, [r3, #71]
 317:Drivers/STM32F7xx_HAL_Driver/Src/stm32f7xx_hal_tim.c **** 
 318:Drivers/STM32F7xx_HAL_Driver/Src/stm32f7xx_hal_tim.c ****   /* Initialize the TIM state*/
 319:Drivers/STM32F7xx_HAL_Driver/Src/stm32f7xx_hal_tim.c ****   htim->State = HAL_TIM_STATE_READY;
 118              		.loc 1 319 15
 119 009c 7B68     		ldr	r3, [r7, #4]
 120 009e 0122     		movs	r2, #1
 121 00a0 83F83D20 		strb	r2, [r3, #61]
 320:Drivers/STM32F7xx_HAL_Driver/Src/stm32f7xx_hal_tim.c **** 
 321:Drivers/STM32F7xx_HAL_Driver/Src/stm32f7xx_hal_tim.c ****   return HAL_OK;
 122              		.loc 1 321 10
 123 00a4 0023     		movs	r3, #0
 124              	.L3:
 322:Drivers/STM32F7xx_HAL_Driver/Src/stm32f7xx_hal_tim.c **** }
 125              		.loc 1 322 1
 126 00a6 1846     		mov	r0, r3
 127 00a8 0837     		adds	r7, r7, #8
 128              	.LCFI3:
 129              		.cfi_def_cfa_offset 8
 130 00aa BD46     		mov	sp, r7
 131              	.LCFI4:
 132              		.cfi_def_cfa_register 13
 133              		@ sp needed
 134 00ac 80BD     		pop	{r7, pc}
 135              		.cfi_endproc
ARM GAS  C:\Users\jisu8\AppData\Local\Temp\cckFtxsR.s 			page 9


 136              	.LFE141:
 138              		.section	.text.HAL_TIM_Base_DeInit,"ax",%progbits
 139              		.align	1
 140              		.global	HAL_TIM_Base_DeInit
 141              		.syntax unified
 142              		.thumb
 143              		.thumb_func
 145              	HAL_TIM_Base_DeInit:
 146              	.LFB142:
 323:Drivers/STM32F7xx_HAL_Driver/Src/stm32f7xx_hal_tim.c **** 
 324:Drivers/STM32F7xx_HAL_Driver/Src/stm32f7xx_hal_tim.c **** /**
 325:Drivers/STM32F7xx_HAL_Driver/Src/stm32f7xx_hal_tim.c ****   * @brief  DeInitializes the TIM Base peripheral
 326:Drivers/STM32F7xx_HAL_Driver/Src/stm32f7xx_hal_tim.c ****   * @param  htim TIM Base handle
 327:Drivers/STM32F7xx_HAL_Driver/Src/stm32f7xx_hal_tim.c ****   * @retval HAL status
 328:Drivers/STM32F7xx_HAL_Driver/Src/stm32f7xx_hal_tim.c ****   */
 329:Drivers/STM32F7xx_HAL_Driver/Src/stm32f7xx_hal_tim.c **** HAL_StatusTypeDef HAL_TIM_Base_DeInit(TIM_HandleTypeDef *htim)
 330:Drivers/STM32F7xx_HAL_Driver/Src/stm32f7xx_hal_tim.c **** {
 147              		.loc 1 330 1
 148              		.cfi_startproc
 149              		@ args = 0, pretend = 0, frame = 8
 150              		@ frame_needed = 1, uses_anonymous_args = 0
 151 0000 80B5     		push	{r7, lr}
 152              	.LCFI5:
 153              		.cfi_def_cfa_offset 8
 154              		.cfi_offset 7, -8
 155              		.cfi_offset 14, -4
 156 0002 82B0     		sub	sp, sp, #8
 157              	.LCFI6:
 158              		.cfi_def_cfa_offset 16
 159 0004 00AF     		add	r7, sp, #0
 160              	.LCFI7:
 161              		.cfi_def_cfa_register 7
 162 0006 7860     		str	r0, [r7, #4]
 331:Drivers/STM32F7xx_HAL_Driver/Src/stm32f7xx_hal_tim.c ****   /* Check the parameters */
 332:Drivers/STM32F7xx_HAL_Driver/Src/stm32f7xx_hal_tim.c ****   assert_param(IS_TIM_INSTANCE(htim->Instance));
 333:Drivers/STM32F7xx_HAL_Driver/Src/stm32f7xx_hal_tim.c **** 
 334:Drivers/STM32F7xx_HAL_Driver/Src/stm32f7xx_hal_tim.c ****   htim->State = HAL_TIM_STATE_BUSY;
 163              		.loc 1 334 15
 164 0008 7B68     		ldr	r3, [r7, #4]
 165 000a 0222     		movs	r2, #2
 166 000c 83F83D20 		strb	r2, [r3, #61]
 335:Drivers/STM32F7xx_HAL_Driver/Src/stm32f7xx_hal_tim.c **** 
 336:Drivers/STM32F7xx_HAL_Driver/Src/stm32f7xx_hal_tim.c ****   /* Disable the TIM Peripheral Clock */
 337:Drivers/STM32F7xx_HAL_Driver/Src/stm32f7xx_hal_tim.c ****   __HAL_TIM_DISABLE(htim);
 167              		.loc 1 337 3
 168 0010 7B68     		ldr	r3, [r7, #4]
 169 0012 1B68     		ldr	r3, [r3]
 170 0014 1A6A     		ldr	r2, [r3, #32]
 171 0016 41F21113 		movw	r3, #4369
 172 001a 1340     		ands	r3, r3, r2
 173 001c 002B     		cmp	r3, #0
 174 001e 0FD1     		bne	.L6
 175              		.loc 1 337 3 is_stmt 0 discriminator 1
 176 0020 7B68     		ldr	r3, [r7, #4]
 177 0022 1B68     		ldr	r3, [r3]
 178 0024 1A6A     		ldr	r2, [r3, #32]
 179 0026 40F24443 		movw	r3, #1092
ARM GAS  C:\Users\jisu8\AppData\Local\Temp\cckFtxsR.s 			page 10


 180 002a 1340     		ands	r3, r3, r2
 181 002c 002B     		cmp	r3, #0
 182 002e 07D1     		bne	.L6
 183              		.loc 1 337 3 discriminator 2
 184 0030 7B68     		ldr	r3, [r7, #4]
 185 0032 1B68     		ldr	r3, [r3]
 186 0034 1A68     		ldr	r2, [r3]
 187 0036 7B68     		ldr	r3, [r7, #4]
 188 0038 1B68     		ldr	r3, [r3]
 189 003a 22F00102 		bic	r2, r2, #1
 190 003e 1A60     		str	r2, [r3]
 191              	.L6:
 338:Drivers/STM32F7xx_HAL_Driver/Src/stm32f7xx_hal_tim.c **** 
 339:Drivers/STM32F7xx_HAL_Driver/Src/stm32f7xx_hal_tim.c **** #if (USE_HAL_TIM_REGISTER_CALLBACKS == 1)
 340:Drivers/STM32F7xx_HAL_Driver/Src/stm32f7xx_hal_tim.c ****   if (htim->Base_MspDeInitCallback == NULL)
 341:Drivers/STM32F7xx_HAL_Driver/Src/stm32f7xx_hal_tim.c ****   {
 342:Drivers/STM32F7xx_HAL_Driver/Src/stm32f7xx_hal_tim.c ****     htim->Base_MspDeInitCallback = HAL_TIM_Base_MspDeInit;
 343:Drivers/STM32F7xx_HAL_Driver/Src/stm32f7xx_hal_tim.c ****   }
 344:Drivers/STM32F7xx_HAL_Driver/Src/stm32f7xx_hal_tim.c ****   /* DeInit the low level hardware */
 345:Drivers/STM32F7xx_HAL_Driver/Src/stm32f7xx_hal_tim.c ****   htim->Base_MspDeInitCallback(htim);
 346:Drivers/STM32F7xx_HAL_Driver/Src/stm32f7xx_hal_tim.c **** #else
 347:Drivers/STM32F7xx_HAL_Driver/Src/stm32f7xx_hal_tim.c ****   /* DeInit the low level hardware: GPIO, CLOCK, NVIC */
 348:Drivers/STM32F7xx_HAL_Driver/Src/stm32f7xx_hal_tim.c ****   HAL_TIM_Base_MspDeInit(htim);
 192              		.loc 1 348 3 is_stmt 1
 193 0040 7868     		ldr	r0, [r7, #4]
 194 0042 FFF7FEFF 		bl	HAL_TIM_Base_MspDeInit
 349:Drivers/STM32F7xx_HAL_Driver/Src/stm32f7xx_hal_tim.c **** #endif /* USE_HAL_TIM_REGISTER_CALLBACKS */
 350:Drivers/STM32F7xx_HAL_Driver/Src/stm32f7xx_hal_tim.c **** 
 351:Drivers/STM32F7xx_HAL_Driver/Src/stm32f7xx_hal_tim.c ****   /* Change the DMA burst operation state */
 352:Drivers/STM32F7xx_HAL_Driver/Src/stm32f7xx_hal_tim.c ****   htim->DMABurstState = HAL_DMA_BURST_STATE_RESET;
 195              		.loc 1 352 23
 196 0046 7B68     		ldr	r3, [r7, #4]
 197 0048 0022     		movs	r2, #0
 198 004a 83F84820 		strb	r2, [r3, #72]
 353:Drivers/STM32F7xx_HAL_Driver/Src/stm32f7xx_hal_tim.c **** 
 354:Drivers/STM32F7xx_HAL_Driver/Src/stm32f7xx_hal_tim.c ****   /* Change the TIM channels state */
 355:Drivers/STM32F7xx_HAL_Driver/Src/stm32f7xx_hal_tim.c ****   TIM_CHANNEL_STATE_SET_ALL(htim, HAL_TIM_CHANNEL_STATE_RESET);
 199              		.loc 1 355 3
 200 004e 7B68     		ldr	r3, [r7, #4]
 201 0050 0022     		movs	r2, #0
 202 0052 83F83E20 		strb	r2, [r3, #62]
 203 0056 7B68     		ldr	r3, [r7, #4]
 204 0058 0022     		movs	r2, #0
 205 005a 83F83F20 		strb	r2, [r3, #63]
 206 005e 7B68     		ldr	r3, [r7, #4]
 207 0060 0022     		movs	r2, #0
 208 0062 83F84020 		strb	r2, [r3, #64]
 209 0066 7B68     		ldr	r3, [r7, #4]
 210 0068 0022     		movs	r2, #0
 211 006a 83F84120 		strb	r2, [r3, #65]
 212 006e 7B68     		ldr	r3, [r7, #4]
 213 0070 0022     		movs	r2, #0
 214 0072 83F84220 		strb	r2, [r3, #66]
 215 0076 7B68     		ldr	r3, [r7, #4]
 216 0078 0022     		movs	r2, #0
 217 007a 83F84320 		strb	r2, [r3, #67]
 356:Drivers/STM32F7xx_HAL_Driver/Src/stm32f7xx_hal_tim.c ****   TIM_CHANNEL_N_STATE_SET_ALL(htim, HAL_TIM_CHANNEL_STATE_RESET);
ARM GAS  C:\Users\jisu8\AppData\Local\Temp\cckFtxsR.s 			page 11


 218              		.loc 1 356 3
 219 007e 7B68     		ldr	r3, [r7, #4]
 220 0080 0022     		movs	r2, #0
 221 0082 83F84420 		strb	r2, [r3, #68]
 222 0086 7B68     		ldr	r3, [r7, #4]
 223 0088 0022     		movs	r2, #0
 224 008a 83F84520 		strb	r2, [r3, #69]
 225 008e 7B68     		ldr	r3, [r7, #4]
 226 0090 0022     		movs	r2, #0
 227 0092 83F84620 		strb	r2, [r3, #70]
 228 0096 7B68     		ldr	r3, [r7, #4]
 229 0098 0022     		movs	r2, #0
 230 009a 83F84720 		strb	r2, [r3, #71]
 357:Drivers/STM32F7xx_HAL_Driver/Src/stm32f7xx_hal_tim.c **** 
 358:Drivers/STM32F7xx_HAL_Driver/Src/stm32f7xx_hal_tim.c ****   /* Change TIM state */
 359:Drivers/STM32F7xx_HAL_Driver/Src/stm32f7xx_hal_tim.c ****   htim->State = HAL_TIM_STATE_RESET;
 231              		.loc 1 359 15
 232 009e 7B68     		ldr	r3, [r7, #4]
 233 00a0 0022     		movs	r2, #0
 234 00a2 83F83D20 		strb	r2, [r3, #61]
 360:Drivers/STM32F7xx_HAL_Driver/Src/stm32f7xx_hal_tim.c **** 
 361:Drivers/STM32F7xx_HAL_Driver/Src/stm32f7xx_hal_tim.c ****   /* Release Lock */
 362:Drivers/STM32F7xx_HAL_Driver/Src/stm32f7xx_hal_tim.c ****   __HAL_UNLOCK(htim);
 235              		.loc 1 362 3
 236 00a6 7B68     		ldr	r3, [r7, #4]
 237 00a8 0022     		movs	r2, #0
 238 00aa 83F83C20 		strb	r2, [r3, #60]
 363:Drivers/STM32F7xx_HAL_Driver/Src/stm32f7xx_hal_tim.c **** 
 364:Drivers/STM32F7xx_HAL_Driver/Src/stm32f7xx_hal_tim.c ****   return HAL_OK;
 239              		.loc 1 364 10
 240 00ae 0023     		movs	r3, #0
 365:Drivers/STM32F7xx_HAL_Driver/Src/stm32f7xx_hal_tim.c **** }
 241              		.loc 1 365 1
 242 00b0 1846     		mov	r0, r3
 243 00b2 0837     		adds	r7, r7, #8
 244              	.LCFI8:
 245              		.cfi_def_cfa_offset 8
 246 00b4 BD46     		mov	sp, r7
 247              	.LCFI9:
 248              		.cfi_def_cfa_register 13
 249              		@ sp needed
 250 00b6 80BD     		pop	{r7, pc}
 251              		.cfi_endproc
 252              	.LFE142:
 254              		.section	.text.HAL_TIM_Base_MspInit,"ax",%progbits
 255              		.align	1
 256              		.weak	HAL_TIM_Base_MspInit
 257              		.syntax unified
 258              		.thumb
 259              		.thumb_func
 261              	HAL_TIM_Base_MspInit:
 262              	.LFB143:
 366:Drivers/STM32F7xx_HAL_Driver/Src/stm32f7xx_hal_tim.c **** 
 367:Drivers/STM32F7xx_HAL_Driver/Src/stm32f7xx_hal_tim.c **** /**
 368:Drivers/STM32F7xx_HAL_Driver/Src/stm32f7xx_hal_tim.c ****   * @brief  Initializes the TIM Base MSP.
 369:Drivers/STM32F7xx_HAL_Driver/Src/stm32f7xx_hal_tim.c ****   * @param  htim TIM Base handle
 370:Drivers/STM32F7xx_HAL_Driver/Src/stm32f7xx_hal_tim.c ****   * @retval None
ARM GAS  C:\Users\jisu8\AppData\Local\Temp\cckFtxsR.s 			page 12


 371:Drivers/STM32F7xx_HAL_Driver/Src/stm32f7xx_hal_tim.c ****   */
 372:Drivers/STM32F7xx_HAL_Driver/Src/stm32f7xx_hal_tim.c **** __weak void HAL_TIM_Base_MspInit(TIM_HandleTypeDef *htim)
 373:Drivers/STM32F7xx_HAL_Driver/Src/stm32f7xx_hal_tim.c **** {
 263              		.loc 1 373 1
 264              		.cfi_startproc
 265              		@ args = 0, pretend = 0, frame = 8
 266              		@ frame_needed = 1, uses_anonymous_args = 0
 267              		@ link register save eliminated.
 268 0000 80B4     		push	{r7}
 269              	.LCFI10:
 270              		.cfi_def_cfa_offset 4
 271              		.cfi_offset 7, -4
 272 0002 83B0     		sub	sp, sp, #12
 273              	.LCFI11:
 274              		.cfi_def_cfa_offset 16
 275 0004 00AF     		add	r7, sp, #0
 276              	.LCFI12:
 277              		.cfi_def_cfa_register 7
 278 0006 7860     		str	r0, [r7, #4]
 374:Drivers/STM32F7xx_HAL_Driver/Src/stm32f7xx_hal_tim.c ****   /* Prevent unused argument(s) compilation warning */
 375:Drivers/STM32F7xx_HAL_Driver/Src/stm32f7xx_hal_tim.c ****   UNUSED(htim);
 376:Drivers/STM32F7xx_HAL_Driver/Src/stm32f7xx_hal_tim.c **** 
 377:Drivers/STM32F7xx_HAL_Driver/Src/stm32f7xx_hal_tim.c ****   /* NOTE : This function should not be modified, when the callback is needed,
 378:Drivers/STM32F7xx_HAL_Driver/Src/stm32f7xx_hal_tim.c ****             the HAL_TIM_Base_MspInit could be implemented in the user file
 379:Drivers/STM32F7xx_HAL_Driver/Src/stm32f7xx_hal_tim.c ****    */
 380:Drivers/STM32F7xx_HAL_Driver/Src/stm32f7xx_hal_tim.c **** }
 279              		.loc 1 380 1
 280 0008 00BF     		nop
 281 000a 0C37     		adds	r7, r7, #12
 282              	.LCFI13:
 283              		.cfi_def_cfa_offset 4
 284 000c BD46     		mov	sp, r7
 285              	.LCFI14:
 286              		.cfi_def_cfa_register 13
 287              		@ sp needed
 288 000e 5DF8047B 		ldr	r7, [sp], #4
 289              	.LCFI15:
 290              		.cfi_restore 7
 291              		.cfi_def_cfa_offset 0
 292 0012 7047     		bx	lr
 293              		.cfi_endproc
 294              	.LFE143:
 296              		.section	.text.HAL_TIM_Base_MspDeInit,"ax",%progbits
 297              		.align	1
 298              		.weak	HAL_TIM_Base_MspDeInit
 299              		.syntax unified
 300              		.thumb
 301              		.thumb_func
 303              	HAL_TIM_Base_MspDeInit:
 304              	.LFB144:
 381:Drivers/STM32F7xx_HAL_Driver/Src/stm32f7xx_hal_tim.c **** 
 382:Drivers/STM32F7xx_HAL_Driver/Src/stm32f7xx_hal_tim.c **** /**
 383:Drivers/STM32F7xx_HAL_Driver/Src/stm32f7xx_hal_tim.c ****   * @brief  DeInitializes TIM Base MSP.
 384:Drivers/STM32F7xx_HAL_Driver/Src/stm32f7xx_hal_tim.c ****   * @param  htim TIM Base handle
 385:Drivers/STM32F7xx_HAL_Driver/Src/stm32f7xx_hal_tim.c ****   * @retval None
 386:Drivers/STM32F7xx_HAL_Driver/Src/stm32f7xx_hal_tim.c ****   */
 387:Drivers/STM32F7xx_HAL_Driver/Src/stm32f7xx_hal_tim.c **** __weak void HAL_TIM_Base_MspDeInit(TIM_HandleTypeDef *htim)
ARM GAS  C:\Users\jisu8\AppData\Local\Temp\cckFtxsR.s 			page 13


 388:Drivers/STM32F7xx_HAL_Driver/Src/stm32f7xx_hal_tim.c **** {
 305              		.loc 1 388 1
 306              		.cfi_startproc
 307              		@ args = 0, pretend = 0, frame = 8
 308              		@ frame_needed = 1, uses_anonymous_args = 0
 309              		@ link register save eliminated.
 310 0000 80B4     		push	{r7}
 311              	.LCFI16:
 312              		.cfi_def_cfa_offset 4
 313              		.cfi_offset 7, -4
 314 0002 83B0     		sub	sp, sp, #12
 315              	.LCFI17:
 316              		.cfi_def_cfa_offset 16
 317 0004 00AF     		add	r7, sp, #0
 318              	.LCFI18:
 319              		.cfi_def_cfa_register 7
 320 0006 7860     		str	r0, [r7, #4]
 389:Drivers/STM32F7xx_HAL_Driver/Src/stm32f7xx_hal_tim.c ****   /* Prevent unused argument(s) compilation warning */
 390:Drivers/STM32F7xx_HAL_Driver/Src/stm32f7xx_hal_tim.c ****   UNUSED(htim);
 391:Drivers/STM32F7xx_HAL_Driver/Src/stm32f7xx_hal_tim.c **** 
 392:Drivers/STM32F7xx_HAL_Driver/Src/stm32f7xx_hal_tim.c ****   /* NOTE : This function should not be modified, when the callback is needed,
 393:Drivers/STM32F7xx_HAL_Driver/Src/stm32f7xx_hal_tim.c ****             the HAL_TIM_Base_MspDeInit could be implemented in the user file
 394:Drivers/STM32F7xx_HAL_Driver/Src/stm32f7xx_hal_tim.c ****    */
 395:Drivers/STM32F7xx_HAL_Driver/Src/stm32f7xx_hal_tim.c **** }
 321              		.loc 1 395 1
 322 0008 00BF     		nop
 323 000a 0C37     		adds	r7, r7, #12
 324              	.LCFI19:
 325              		.cfi_def_cfa_offset 4
 326 000c BD46     		mov	sp, r7
 327              	.LCFI20:
 328              		.cfi_def_cfa_register 13
 329              		@ sp needed
 330 000e 5DF8047B 		ldr	r7, [sp], #4
 331              	.LCFI21:
 332              		.cfi_restore 7
 333              		.cfi_def_cfa_offset 0
 334 0012 7047     		bx	lr
 335              		.cfi_endproc
 336              	.LFE144:
 338              		.section	.text.HAL_TIM_Base_Start,"ax",%progbits
 339              		.align	1
 340              		.global	HAL_TIM_Base_Start
 341              		.syntax unified
 342              		.thumb
 343              		.thumb_func
 345              	HAL_TIM_Base_Start:
 346              	.LFB145:
 396:Drivers/STM32F7xx_HAL_Driver/Src/stm32f7xx_hal_tim.c **** 
 397:Drivers/STM32F7xx_HAL_Driver/Src/stm32f7xx_hal_tim.c **** 
 398:Drivers/STM32F7xx_HAL_Driver/Src/stm32f7xx_hal_tim.c **** /**
 399:Drivers/STM32F7xx_HAL_Driver/Src/stm32f7xx_hal_tim.c ****   * @brief  Starts the TIM Base generation.
 400:Drivers/STM32F7xx_HAL_Driver/Src/stm32f7xx_hal_tim.c ****   * @param  htim TIM Base handle
 401:Drivers/STM32F7xx_HAL_Driver/Src/stm32f7xx_hal_tim.c ****   * @retval HAL status
 402:Drivers/STM32F7xx_HAL_Driver/Src/stm32f7xx_hal_tim.c ****   */
 403:Drivers/STM32F7xx_HAL_Driver/Src/stm32f7xx_hal_tim.c **** HAL_StatusTypeDef HAL_TIM_Base_Start(TIM_HandleTypeDef *htim)
 404:Drivers/STM32F7xx_HAL_Driver/Src/stm32f7xx_hal_tim.c **** {
ARM GAS  C:\Users\jisu8\AppData\Local\Temp\cckFtxsR.s 			page 14


 347              		.loc 1 404 1
 348              		.cfi_startproc
 349              		@ args = 0, pretend = 0, frame = 16
 350              		@ frame_needed = 1, uses_anonymous_args = 0
 351              		@ link register save eliminated.
 352 0000 80B4     		push	{r7}
 353              	.LCFI22:
 354              		.cfi_def_cfa_offset 4
 355              		.cfi_offset 7, -4
 356 0002 85B0     		sub	sp, sp, #20
 357              	.LCFI23:
 358              		.cfi_def_cfa_offset 24
 359 0004 00AF     		add	r7, sp, #0
 360              	.LCFI24:
 361              		.cfi_def_cfa_register 7
 362 0006 7860     		str	r0, [r7, #4]
 405:Drivers/STM32F7xx_HAL_Driver/Src/stm32f7xx_hal_tim.c ****   uint32_t tmpsmcr;
 406:Drivers/STM32F7xx_HAL_Driver/Src/stm32f7xx_hal_tim.c **** 
 407:Drivers/STM32F7xx_HAL_Driver/Src/stm32f7xx_hal_tim.c ****   /* Check the parameters */
 408:Drivers/STM32F7xx_HAL_Driver/Src/stm32f7xx_hal_tim.c ****   assert_param(IS_TIM_INSTANCE(htim->Instance));
 409:Drivers/STM32F7xx_HAL_Driver/Src/stm32f7xx_hal_tim.c **** 
 410:Drivers/STM32F7xx_HAL_Driver/Src/stm32f7xx_hal_tim.c ****   /* Check the TIM state */
 411:Drivers/STM32F7xx_HAL_Driver/Src/stm32f7xx_hal_tim.c ****   if (htim->State != HAL_TIM_STATE_READY)
 363              		.loc 1 411 11
 364 0008 7B68     		ldr	r3, [r7, #4]
 365 000a 93F83D30 		ldrb	r3, [r3, #61]
 366 000e DBB2     		uxtb	r3, r3
 367              		.loc 1 411 6
 368 0010 012B     		cmp	r3, #1
 369 0012 01D0     		beq	.L11
 412:Drivers/STM32F7xx_HAL_Driver/Src/stm32f7xx_hal_tim.c ****   {
 413:Drivers/STM32F7xx_HAL_Driver/Src/stm32f7xx_hal_tim.c ****     return HAL_ERROR;
 370              		.loc 1 413 12
 371 0014 0123     		movs	r3, #1
 372 0016 4CE0     		b	.L12
 373              	.L11:
 414:Drivers/STM32F7xx_HAL_Driver/Src/stm32f7xx_hal_tim.c ****   }
 415:Drivers/STM32F7xx_HAL_Driver/Src/stm32f7xx_hal_tim.c **** 
 416:Drivers/STM32F7xx_HAL_Driver/Src/stm32f7xx_hal_tim.c ****   /* Set the TIM state */
 417:Drivers/STM32F7xx_HAL_Driver/Src/stm32f7xx_hal_tim.c ****   htim->State = HAL_TIM_STATE_BUSY;
 374              		.loc 1 417 15
 375 0018 7B68     		ldr	r3, [r7, #4]
 376 001a 0222     		movs	r2, #2
 377 001c 83F83D20 		strb	r2, [r3, #61]
 418:Drivers/STM32F7xx_HAL_Driver/Src/stm32f7xx_hal_tim.c **** 
 419:Drivers/STM32F7xx_HAL_Driver/Src/stm32f7xx_hal_tim.c ****   /* Enable the Peripheral, except in trigger mode where enable is automatically done with trigger 
 420:Drivers/STM32F7xx_HAL_Driver/Src/stm32f7xx_hal_tim.c ****   if (IS_TIM_SLAVE_INSTANCE(htim->Instance))
 378              		.loc 1 420 7
 379 0020 7B68     		ldr	r3, [r7, #4]
 380 0022 1B68     		ldr	r3, [r3]
 381              		.loc 1 420 6
 382 0024 264A     		ldr	r2, .L18
 383 0026 9342     		cmp	r3, r2
 384 0028 22D0     		beq	.L13
 385              		.loc 1 420 7 discriminator 1
 386 002a 7B68     		ldr	r3, [r7, #4]
 387 002c 1B68     		ldr	r3, [r3]
ARM GAS  C:\Users\jisu8\AppData\Local\Temp\cckFtxsR.s 			page 15


 388 002e B3F1804F 		cmp	r3, #1073741824
 389 0032 1DD0     		beq	.L13
 390              		.loc 1 420 7 is_stmt 0 discriminator 2
 391 0034 7B68     		ldr	r3, [r7, #4]
 392 0036 1B68     		ldr	r3, [r3]
 393 0038 224A     		ldr	r2, .L18+4
 394 003a 9342     		cmp	r3, r2
 395 003c 18D0     		beq	.L13
 396              		.loc 1 420 7 discriminator 3
 397 003e 7B68     		ldr	r3, [r7, #4]
 398 0040 1B68     		ldr	r3, [r3]
 399 0042 214A     		ldr	r2, .L18+8
 400 0044 9342     		cmp	r3, r2
 401 0046 13D0     		beq	.L13
 402              		.loc 1 420 7 discriminator 4
 403 0048 7B68     		ldr	r3, [r7, #4]
 404 004a 1B68     		ldr	r3, [r3]
 405 004c 1F4A     		ldr	r2, .L18+12
 406 004e 9342     		cmp	r3, r2
 407 0050 0ED0     		beq	.L13
 408              		.loc 1 420 7 discriminator 5
 409 0052 7B68     		ldr	r3, [r7, #4]
 410 0054 1B68     		ldr	r3, [r3]
 411 0056 1E4A     		ldr	r2, .L18+16
 412 0058 9342     		cmp	r3, r2
 413 005a 09D0     		beq	.L13
 414              		.loc 1 420 7 discriminator 6
 415 005c 7B68     		ldr	r3, [r7, #4]
 416 005e 1B68     		ldr	r3, [r3]
 417 0060 1C4A     		ldr	r2, .L18+20
 418 0062 9342     		cmp	r3, r2
 419 0064 04D0     		beq	.L13
 420              		.loc 1 420 7 discriminator 7
 421 0066 7B68     		ldr	r3, [r7, #4]
 422 0068 1B68     		ldr	r3, [r3]
 423 006a 1B4A     		ldr	r2, .L18+24
 424 006c 9342     		cmp	r3, r2
 425 006e 15D1     		bne	.L14
 426              	.L13:
 421:Drivers/STM32F7xx_HAL_Driver/Src/stm32f7xx_hal_tim.c ****   {
 422:Drivers/STM32F7xx_HAL_Driver/Src/stm32f7xx_hal_tim.c ****     tmpsmcr = htim->Instance->SMCR & TIM_SMCR_SMS;
 427              		.loc 1 422 19 is_stmt 1
 428 0070 7B68     		ldr	r3, [r7, #4]
 429 0072 1B68     		ldr	r3, [r3]
 430              		.loc 1 422 29
 431 0074 9A68     		ldr	r2, [r3, #8]
 432              		.loc 1 422 13
 433 0076 194B     		ldr	r3, .L18+28
 434 0078 1340     		ands	r3, r3, r2
 435 007a FB60     		str	r3, [r7, #12]
 423:Drivers/STM32F7xx_HAL_Driver/Src/stm32f7xx_hal_tim.c ****     if (!IS_TIM_SLAVEMODE_TRIGGER_ENABLED(tmpsmcr))
 436              		.loc 1 423 8
 437 007c FB68     		ldr	r3, [r7, #12]
 438 007e 062B     		cmp	r3, #6
 439 0080 15D0     		beq	.L17
 440              		.loc 1 423 9 discriminator 1
 441 0082 FB68     		ldr	r3, [r7, #12]
ARM GAS  C:\Users\jisu8\AppData\Local\Temp\cckFtxsR.s 			page 16


 442 0084 B3F5803F 		cmp	r3, #65536
 443 0088 11D0     		beq	.L17
 424:Drivers/STM32F7xx_HAL_Driver/Src/stm32f7xx_hal_tim.c ****     {
 425:Drivers/STM32F7xx_HAL_Driver/Src/stm32f7xx_hal_tim.c ****       __HAL_TIM_ENABLE(htim);
 444              		.loc 1 425 7
 445 008a 7B68     		ldr	r3, [r7, #4]
 446 008c 1B68     		ldr	r3, [r3]
 447 008e 1A68     		ldr	r2, [r3]
 448 0090 7B68     		ldr	r3, [r7, #4]
 449 0092 1B68     		ldr	r3, [r3]
 450 0094 42F00102 		orr	r2, r2, #1
 451 0098 1A60     		str	r2, [r3]
 423:Drivers/STM32F7xx_HAL_Driver/Src/stm32f7xx_hal_tim.c ****     if (!IS_TIM_SLAVEMODE_TRIGGER_ENABLED(tmpsmcr))
 452              		.loc 1 423 8
 453 009a 08E0     		b	.L17
 454              	.L14:
 426:Drivers/STM32F7xx_HAL_Driver/Src/stm32f7xx_hal_tim.c ****     }
 427:Drivers/STM32F7xx_HAL_Driver/Src/stm32f7xx_hal_tim.c ****   }
 428:Drivers/STM32F7xx_HAL_Driver/Src/stm32f7xx_hal_tim.c ****   else
 429:Drivers/STM32F7xx_HAL_Driver/Src/stm32f7xx_hal_tim.c ****   {
 430:Drivers/STM32F7xx_HAL_Driver/Src/stm32f7xx_hal_tim.c ****     __HAL_TIM_ENABLE(htim);
 455              		.loc 1 430 5
 456 009c 7B68     		ldr	r3, [r7, #4]
 457 009e 1B68     		ldr	r3, [r3]
 458 00a0 1A68     		ldr	r2, [r3]
 459 00a2 7B68     		ldr	r3, [r7, #4]
 460 00a4 1B68     		ldr	r3, [r3]
 461 00a6 42F00102 		orr	r2, r2, #1
 462 00aa 1A60     		str	r2, [r3]
 463 00ac 00E0     		b	.L16
 464              	.L17:
 423:Drivers/STM32F7xx_HAL_Driver/Src/stm32f7xx_hal_tim.c ****     {
 465              		.loc 1 423 8
 466 00ae 00BF     		nop
 467              	.L16:
 431:Drivers/STM32F7xx_HAL_Driver/Src/stm32f7xx_hal_tim.c ****   }
 432:Drivers/STM32F7xx_HAL_Driver/Src/stm32f7xx_hal_tim.c **** 
 433:Drivers/STM32F7xx_HAL_Driver/Src/stm32f7xx_hal_tim.c ****   /* Return function status */
 434:Drivers/STM32F7xx_HAL_Driver/Src/stm32f7xx_hal_tim.c ****   return HAL_OK;
 468              		.loc 1 434 10
 469 00b0 0023     		movs	r3, #0
 470              	.L12:
 435:Drivers/STM32F7xx_HAL_Driver/Src/stm32f7xx_hal_tim.c **** }
 471              		.loc 1 435 1
 472 00b2 1846     		mov	r0, r3
 473 00b4 1437     		adds	r7, r7, #20
 474              	.LCFI25:
 475              		.cfi_def_cfa_offset 4
 476 00b6 BD46     		mov	sp, r7
 477              	.LCFI26:
 478              		.cfi_def_cfa_register 13
 479              		@ sp needed
 480 00b8 5DF8047B 		ldr	r7, [sp], #4
 481              	.LCFI27:
 482              		.cfi_restore 7
 483              		.cfi_def_cfa_offset 0
 484 00bc 7047     		bx	lr
ARM GAS  C:\Users\jisu8\AppData\Local\Temp\cckFtxsR.s 			page 17


 485              	.L19:
 486 00be 00BF     		.align	2
 487              	.L18:
 488 00c0 00000140 		.word	1073807360
 489 00c4 00040040 		.word	1073742848
 490 00c8 00080040 		.word	1073743872
 491 00cc 000C0040 		.word	1073744896
 492 00d0 00040140 		.word	1073808384
 493 00d4 00400140 		.word	1073823744
 494 00d8 00180040 		.word	1073747968
 495 00dc 07000100 		.word	65543
 496              		.cfi_endproc
 497              	.LFE145:
 499              		.section	.text.HAL_TIM_Base_Stop,"ax",%progbits
 500              		.align	1
 501              		.global	HAL_TIM_Base_Stop
 502              		.syntax unified
 503              		.thumb
 504              		.thumb_func
 506              	HAL_TIM_Base_Stop:
 507              	.LFB146:
 436:Drivers/STM32F7xx_HAL_Driver/Src/stm32f7xx_hal_tim.c **** 
 437:Drivers/STM32F7xx_HAL_Driver/Src/stm32f7xx_hal_tim.c **** /**
 438:Drivers/STM32F7xx_HAL_Driver/Src/stm32f7xx_hal_tim.c ****   * @brief  Stops the TIM Base generation.
 439:Drivers/STM32F7xx_HAL_Driver/Src/stm32f7xx_hal_tim.c ****   * @param  htim TIM Base handle
 440:Drivers/STM32F7xx_HAL_Driver/Src/stm32f7xx_hal_tim.c ****   * @retval HAL status
 441:Drivers/STM32F7xx_HAL_Driver/Src/stm32f7xx_hal_tim.c ****   */
 442:Drivers/STM32F7xx_HAL_Driver/Src/stm32f7xx_hal_tim.c **** HAL_StatusTypeDef HAL_TIM_Base_Stop(TIM_HandleTypeDef *htim)
 443:Drivers/STM32F7xx_HAL_Driver/Src/stm32f7xx_hal_tim.c **** {
 508              		.loc 1 443 1
 509              		.cfi_startproc
 510              		@ args = 0, pretend = 0, frame = 8
 511              		@ frame_needed = 1, uses_anonymous_args = 0
 512              		@ link register save eliminated.
 513 0000 80B4     		push	{r7}
 514              	.LCFI28:
 515              		.cfi_def_cfa_offset 4
 516              		.cfi_offset 7, -4
 517 0002 83B0     		sub	sp, sp, #12
 518              	.LCFI29:
 519              		.cfi_def_cfa_offset 16
 520 0004 00AF     		add	r7, sp, #0
 521              	.LCFI30:
 522              		.cfi_def_cfa_register 7
 523 0006 7860     		str	r0, [r7, #4]
 444:Drivers/STM32F7xx_HAL_Driver/Src/stm32f7xx_hal_tim.c ****   /* Check the parameters */
 445:Drivers/STM32F7xx_HAL_Driver/Src/stm32f7xx_hal_tim.c ****   assert_param(IS_TIM_INSTANCE(htim->Instance));
 446:Drivers/STM32F7xx_HAL_Driver/Src/stm32f7xx_hal_tim.c **** 
 447:Drivers/STM32F7xx_HAL_Driver/Src/stm32f7xx_hal_tim.c ****   /* Disable the Peripheral */
 448:Drivers/STM32F7xx_HAL_Driver/Src/stm32f7xx_hal_tim.c ****   __HAL_TIM_DISABLE(htim);
 524              		.loc 1 448 3
 525 0008 7B68     		ldr	r3, [r7, #4]
 526 000a 1B68     		ldr	r3, [r3]
 527 000c 1A6A     		ldr	r2, [r3, #32]
 528 000e 41F21113 		movw	r3, #4369
 529 0012 1340     		ands	r3, r3, r2
 530 0014 002B     		cmp	r3, #0
ARM GAS  C:\Users\jisu8\AppData\Local\Temp\cckFtxsR.s 			page 18


 531 0016 0FD1     		bne	.L21
 532              		.loc 1 448 3 is_stmt 0 discriminator 1
 533 0018 7B68     		ldr	r3, [r7, #4]
 534 001a 1B68     		ldr	r3, [r3]
 535 001c 1A6A     		ldr	r2, [r3, #32]
 536 001e 40F24443 		movw	r3, #1092
 537 0022 1340     		ands	r3, r3, r2
 538 0024 002B     		cmp	r3, #0
 539 0026 07D1     		bne	.L21
 540              		.loc 1 448 3 discriminator 2
 541 0028 7B68     		ldr	r3, [r7, #4]
 542 002a 1B68     		ldr	r3, [r3]
 543 002c 1A68     		ldr	r2, [r3]
 544 002e 7B68     		ldr	r3, [r7, #4]
 545 0030 1B68     		ldr	r3, [r3]
 546 0032 22F00102 		bic	r2, r2, #1
 547 0036 1A60     		str	r2, [r3]
 548              	.L21:
 449:Drivers/STM32F7xx_HAL_Driver/Src/stm32f7xx_hal_tim.c **** 
 450:Drivers/STM32F7xx_HAL_Driver/Src/stm32f7xx_hal_tim.c ****   /* Set the TIM state */
 451:Drivers/STM32F7xx_HAL_Driver/Src/stm32f7xx_hal_tim.c ****   htim->State = HAL_TIM_STATE_READY;
 549              		.loc 1 451 15 is_stmt 1
 550 0038 7B68     		ldr	r3, [r7, #4]
 551 003a 0122     		movs	r2, #1
 552 003c 83F83D20 		strb	r2, [r3, #61]
 452:Drivers/STM32F7xx_HAL_Driver/Src/stm32f7xx_hal_tim.c **** 
 453:Drivers/STM32F7xx_HAL_Driver/Src/stm32f7xx_hal_tim.c ****   /* Return function status */
 454:Drivers/STM32F7xx_HAL_Driver/Src/stm32f7xx_hal_tim.c ****   return HAL_OK;
 553              		.loc 1 454 10
 554 0040 0023     		movs	r3, #0
 455:Drivers/STM32F7xx_HAL_Driver/Src/stm32f7xx_hal_tim.c **** }
 555              		.loc 1 455 1
 556 0042 1846     		mov	r0, r3
 557 0044 0C37     		adds	r7, r7, #12
 558              	.LCFI31:
 559              		.cfi_def_cfa_offset 4
 560 0046 BD46     		mov	sp, r7
 561              	.LCFI32:
 562              		.cfi_def_cfa_register 13
 563              		@ sp needed
 564 0048 5DF8047B 		ldr	r7, [sp], #4
 565              	.LCFI33:
 566              		.cfi_restore 7
 567              		.cfi_def_cfa_offset 0
 568 004c 7047     		bx	lr
 569              		.cfi_endproc
 570              	.LFE146:
 572              		.section	.text.HAL_TIM_Base_Start_IT,"ax",%progbits
 573              		.align	1
 574              		.global	HAL_TIM_Base_Start_IT
 575              		.syntax unified
 576              		.thumb
 577              		.thumb_func
 579              	HAL_TIM_Base_Start_IT:
 580              	.LFB147:
 456:Drivers/STM32F7xx_HAL_Driver/Src/stm32f7xx_hal_tim.c **** 
 457:Drivers/STM32F7xx_HAL_Driver/Src/stm32f7xx_hal_tim.c **** /**
ARM GAS  C:\Users\jisu8\AppData\Local\Temp\cckFtxsR.s 			page 19


 458:Drivers/STM32F7xx_HAL_Driver/Src/stm32f7xx_hal_tim.c ****   * @brief  Starts the TIM Base generation in interrupt mode.
 459:Drivers/STM32F7xx_HAL_Driver/Src/stm32f7xx_hal_tim.c ****   * @param  htim TIM Base handle
 460:Drivers/STM32F7xx_HAL_Driver/Src/stm32f7xx_hal_tim.c ****   * @retval HAL status
 461:Drivers/STM32F7xx_HAL_Driver/Src/stm32f7xx_hal_tim.c ****   */
 462:Drivers/STM32F7xx_HAL_Driver/Src/stm32f7xx_hal_tim.c **** HAL_StatusTypeDef HAL_TIM_Base_Start_IT(TIM_HandleTypeDef *htim)
 463:Drivers/STM32F7xx_HAL_Driver/Src/stm32f7xx_hal_tim.c **** {
 581              		.loc 1 463 1
 582              		.cfi_startproc
 583              		@ args = 0, pretend = 0, frame = 16
 584              		@ frame_needed = 1, uses_anonymous_args = 0
 585              		@ link register save eliminated.
 586 0000 80B4     		push	{r7}
 587              	.LCFI34:
 588              		.cfi_def_cfa_offset 4
 589              		.cfi_offset 7, -4
 590 0002 85B0     		sub	sp, sp, #20
 591              	.LCFI35:
 592              		.cfi_def_cfa_offset 24
 593 0004 00AF     		add	r7, sp, #0
 594              	.LCFI36:
 595              		.cfi_def_cfa_register 7
 596 0006 7860     		str	r0, [r7, #4]
 464:Drivers/STM32F7xx_HAL_Driver/Src/stm32f7xx_hal_tim.c ****   uint32_t tmpsmcr;
 465:Drivers/STM32F7xx_HAL_Driver/Src/stm32f7xx_hal_tim.c **** 
 466:Drivers/STM32F7xx_HAL_Driver/Src/stm32f7xx_hal_tim.c ****   /* Check the parameters */
 467:Drivers/STM32F7xx_HAL_Driver/Src/stm32f7xx_hal_tim.c ****   assert_param(IS_TIM_INSTANCE(htim->Instance));
 468:Drivers/STM32F7xx_HAL_Driver/Src/stm32f7xx_hal_tim.c **** 
 469:Drivers/STM32F7xx_HAL_Driver/Src/stm32f7xx_hal_tim.c ****   /* Check the TIM state */
 470:Drivers/STM32F7xx_HAL_Driver/Src/stm32f7xx_hal_tim.c ****   if (htim->State != HAL_TIM_STATE_READY)
 597              		.loc 1 470 11
 598 0008 7B68     		ldr	r3, [r7, #4]
 599 000a 93F83D30 		ldrb	r3, [r3, #61]
 600 000e DBB2     		uxtb	r3, r3
 601              		.loc 1 470 6
 602 0010 012B     		cmp	r3, #1
 603 0012 01D0     		beq	.L24
 471:Drivers/STM32F7xx_HAL_Driver/Src/stm32f7xx_hal_tim.c ****   {
 472:Drivers/STM32F7xx_HAL_Driver/Src/stm32f7xx_hal_tim.c ****     return HAL_ERROR;
 604              		.loc 1 472 12
 605 0014 0123     		movs	r3, #1
 606 0016 54E0     		b	.L25
 607              	.L24:
 473:Drivers/STM32F7xx_HAL_Driver/Src/stm32f7xx_hal_tim.c ****   }
 474:Drivers/STM32F7xx_HAL_Driver/Src/stm32f7xx_hal_tim.c **** 
 475:Drivers/STM32F7xx_HAL_Driver/Src/stm32f7xx_hal_tim.c ****   /* Set the TIM state */
 476:Drivers/STM32F7xx_HAL_Driver/Src/stm32f7xx_hal_tim.c ****   htim->State = HAL_TIM_STATE_BUSY;
 608              		.loc 1 476 15
 609 0018 7B68     		ldr	r3, [r7, #4]
 610 001a 0222     		movs	r2, #2
 611 001c 83F83D20 		strb	r2, [r3, #61]
 477:Drivers/STM32F7xx_HAL_Driver/Src/stm32f7xx_hal_tim.c **** 
 478:Drivers/STM32F7xx_HAL_Driver/Src/stm32f7xx_hal_tim.c ****   /* Enable the TIM Update interrupt */
 479:Drivers/STM32F7xx_HAL_Driver/Src/stm32f7xx_hal_tim.c ****   __HAL_TIM_ENABLE_IT(htim, TIM_IT_UPDATE);
 612              		.loc 1 479 3
 613 0020 7B68     		ldr	r3, [r7, #4]
 614 0022 1B68     		ldr	r3, [r3]
 615 0024 DA68     		ldr	r2, [r3, #12]
ARM GAS  C:\Users\jisu8\AppData\Local\Temp\cckFtxsR.s 			page 20


 616 0026 7B68     		ldr	r3, [r7, #4]
 617 0028 1B68     		ldr	r3, [r3]
 618 002a 42F00102 		orr	r2, r2, #1
 619 002e DA60     		str	r2, [r3, #12]
 480:Drivers/STM32F7xx_HAL_Driver/Src/stm32f7xx_hal_tim.c **** 
 481:Drivers/STM32F7xx_HAL_Driver/Src/stm32f7xx_hal_tim.c ****   /* Enable the Peripheral, except in trigger mode where enable is automatically done with trigger 
 482:Drivers/STM32F7xx_HAL_Driver/Src/stm32f7xx_hal_tim.c ****   if (IS_TIM_SLAVE_INSTANCE(htim->Instance))
 620              		.loc 1 482 7
 621 0030 7B68     		ldr	r3, [r7, #4]
 622 0032 1B68     		ldr	r3, [r3]
 623              		.loc 1 482 6
 624 0034 264A     		ldr	r2, .L31
 625 0036 9342     		cmp	r3, r2
 626 0038 22D0     		beq	.L26
 627              		.loc 1 482 7 discriminator 1
 628 003a 7B68     		ldr	r3, [r7, #4]
 629 003c 1B68     		ldr	r3, [r3]
 630 003e B3F1804F 		cmp	r3, #1073741824
 631 0042 1DD0     		beq	.L26
 632              		.loc 1 482 7 is_stmt 0 discriminator 2
 633 0044 7B68     		ldr	r3, [r7, #4]
 634 0046 1B68     		ldr	r3, [r3]
 635 0048 224A     		ldr	r2, .L31+4
 636 004a 9342     		cmp	r3, r2
 637 004c 18D0     		beq	.L26
 638              		.loc 1 482 7 discriminator 3
 639 004e 7B68     		ldr	r3, [r7, #4]
 640 0050 1B68     		ldr	r3, [r3]
 641 0052 214A     		ldr	r2, .L31+8
 642 0054 9342     		cmp	r3, r2
 643 0056 13D0     		beq	.L26
 644              		.loc 1 482 7 discriminator 4
 645 0058 7B68     		ldr	r3, [r7, #4]
 646 005a 1B68     		ldr	r3, [r3]
 647 005c 1F4A     		ldr	r2, .L31+12
 648 005e 9342     		cmp	r3, r2
 649 0060 0ED0     		beq	.L26
 650              		.loc 1 482 7 discriminator 5
 651 0062 7B68     		ldr	r3, [r7, #4]
 652 0064 1B68     		ldr	r3, [r3]
 653 0066 1E4A     		ldr	r2, .L31+16
 654 0068 9342     		cmp	r3, r2
 655 006a 09D0     		beq	.L26
 656              		.loc 1 482 7 discriminator 6
 657 006c 7B68     		ldr	r3, [r7, #4]
 658 006e 1B68     		ldr	r3, [r3]
 659 0070 1C4A     		ldr	r2, .L31+20
 660 0072 9342     		cmp	r3, r2
 661 0074 04D0     		beq	.L26
 662              		.loc 1 482 7 discriminator 7
 663 0076 7B68     		ldr	r3, [r7, #4]
 664 0078 1B68     		ldr	r3, [r3]
 665 007a 1B4A     		ldr	r2, .L31+24
 666 007c 9342     		cmp	r3, r2
 667 007e 15D1     		bne	.L27
 668              	.L26:
 483:Drivers/STM32F7xx_HAL_Driver/Src/stm32f7xx_hal_tim.c ****   {
ARM GAS  C:\Users\jisu8\AppData\Local\Temp\cckFtxsR.s 			page 21


 484:Drivers/STM32F7xx_HAL_Driver/Src/stm32f7xx_hal_tim.c ****     tmpsmcr = htim->Instance->SMCR & TIM_SMCR_SMS;
 669              		.loc 1 484 19 is_stmt 1
 670 0080 7B68     		ldr	r3, [r7, #4]
 671 0082 1B68     		ldr	r3, [r3]
 672              		.loc 1 484 29
 673 0084 9A68     		ldr	r2, [r3, #8]
 674              		.loc 1 484 13
 675 0086 194B     		ldr	r3, .L31+28
 676 0088 1340     		ands	r3, r3, r2
 677 008a FB60     		str	r3, [r7, #12]
 485:Drivers/STM32F7xx_HAL_Driver/Src/stm32f7xx_hal_tim.c ****     if (!IS_TIM_SLAVEMODE_TRIGGER_ENABLED(tmpsmcr))
 678              		.loc 1 485 8
 679 008c FB68     		ldr	r3, [r7, #12]
 680 008e 062B     		cmp	r3, #6
 681 0090 15D0     		beq	.L30
 682              		.loc 1 485 9 discriminator 1
 683 0092 FB68     		ldr	r3, [r7, #12]
 684 0094 B3F5803F 		cmp	r3, #65536
 685 0098 11D0     		beq	.L30
 486:Drivers/STM32F7xx_HAL_Driver/Src/stm32f7xx_hal_tim.c ****     {
 487:Drivers/STM32F7xx_HAL_Driver/Src/stm32f7xx_hal_tim.c ****       __HAL_TIM_ENABLE(htim);
 686              		.loc 1 487 7
 687 009a 7B68     		ldr	r3, [r7, #4]
 688 009c 1B68     		ldr	r3, [r3]
 689 009e 1A68     		ldr	r2, [r3]
 690 00a0 7B68     		ldr	r3, [r7, #4]
 691 00a2 1B68     		ldr	r3, [r3]
 692 00a4 42F00102 		orr	r2, r2, #1
 693 00a8 1A60     		str	r2, [r3]
 485:Drivers/STM32F7xx_HAL_Driver/Src/stm32f7xx_hal_tim.c ****     if (!IS_TIM_SLAVEMODE_TRIGGER_ENABLED(tmpsmcr))
 694              		.loc 1 485 8
 695 00aa 08E0     		b	.L30
 696              	.L27:
 488:Drivers/STM32F7xx_HAL_Driver/Src/stm32f7xx_hal_tim.c ****     }
 489:Drivers/STM32F7xx_HAL_Driver/Src/stm32f7xx_hal_tim.c ****   }
 490:Drivers/STM32F7xx_HAL_Driver/Src/stm32f7xx_hal_tim.c ****   else
 491:Drivers/STM32F7xx_HAL_Driver/Src/stm32f7xx_hal_tim.c ****   {
 492:Drivers/STM32F7xx_HAL_Driver/Src/stm32f7xx_hal_tim.c ****     __HAL_TIM_ENABLE(htim);
 697              		.loc 1 492 5
 698 00ac 7B68     		ldr	r3, [r7, #4]
 699 00ae 1B68     		ldr	r3, [r3]
 700 00b0 1A68     		ldr	r2, [r3]
 701 00b2 7B68     		ldr	r3, [r7, #4]
 702 00b4 1B68     		ldr	r3, [r3]
 703 00b6 42F00102 		orr	r2, r2, #1
 704 00ba 1A60     		str	r2, [r3]
 705 00bc 00E0     		b	.L29
 706              	.L30:
 485:Drivers/STM32F7xx_HAL_Driver/Src/stm32f7xx_hal_tim.c ****     {
 707              		.loc 1 485 8
 708 00be 00BF     		nop
 709              	.L29:
 493:Drivers/STM32F7xx_HAL_Driver/Src/stm32f7xx_hal_tim.c ****   }
 494:Drivers/STM32F7xx_HAL_Driver/Src/stm32f7xx_hal_tim.c **** 
 495:Drivers/STM32F7xx_HAL_Driver/Src/stm32f7xx_hal_tim.c ****   /* Return function status */
 496:Drivers/STM32F7xx_HAL_Driver/Src/stm32f7xx_hal_tim.c ****   return HAL_OK;
 710              		.loc 1 496 10
ARM GAS  C:\Users\jisu8\AppData\Local\Temp\cckFtxsR.s 			page 22


 711 00c0 0023     		movs	r3, #0
 712              	.L25:
 497:Drivers/STM32F7xx_HAL_Driver/Src/stm32f7xx_hal_tim.c **** }
 713              		.loc 1 497 1
 714 00c2 1846     		mov	r0, r3
 715 00c4 1437     		adds	r7, r7, #20
 716              	.LCFI37:
 717              		.cfi_def_cfa_offset 4
 718 00c6 BD46     		mov	sp, r7
 719              	.LCFI38:
 720              		.cfi_def_cfa_register 13
 721              		@ sp needed
 722 00c8 5DF8047B 		ldr	r7, [sp], #4
 723              	.LCFI39:
 724              		.cfi_restore 7
 725              		.cfi_def_cfa_offset 0
 726 00cc 7047     		bx	lr
 727              	.L32:
 728 00ce 00BF     		.align	2
 729              	.L31:
 730 00d0 00000140 		.word	1073807360
 731 00d4 00040040 		.word	1073742848
 732 00d8 00080040 		.word	1073743872
 733 00dc 000C0040 		.word	1073744896
 734 00e0 00040140 		.word	1073808384
 735 00e4 00400140 		.word	1073823744
 736 00e8 00180040 		.word	1073747968
 737 00ec 07000100 		.word	65543
 738              		.cfi_endproc
 739              	.LFE147:
 741              		.section	.text.HAL_TIM_Base_Stop_IT,"ax",%progbits
 742              		.align	1
 743              		.global	HAL_TIM_Base_Stop_IT
 744              		.syntax unified
 745              		.thumb
 746              		.thumb_func
 748              	HAL_TIM_Base_Stop_IT:
 749              	.LFB148:
 498:Drivers/STM32F7xx_HAL_Driver/Src/stm32f7xx_hal_tim.c **** 
 499:Drivers/STM32F7xx_HAL_Driver/Src/stm32f7xx_hal_tim.c **** /**
 500:Drivers/STM32F7xx_HAL_Driver/Src/stm32f7xx_hal_tim.c ****   * @brief  Stops the TIM Base generation in interrupt mode.
 501:Drivers/STM32F7xx_HAL_Driver/Src/stm32f7xx_hal_tim.c ****   * @param  htim TIM Base handle
 502:Drivers/STM32F7xx_HAL_Driver/Src/stm32f7xx_hal_tim.c ****   * @retval HAL status
 503:Drivers/STM32F7xx_HAL_Driver/Src/stm32f7xx_hal_tim.c ****   */
 504:Drivers/STM32F7xx_HAL_Driver/Src/stm32f7xx_hal_tim.c **** HAL_StatusTypeDef HAL_TIM_Base_Stop_IT(TIM_HandleTypeDef *htim)
 505:Drivers/STM32F7xx_HAL_Driver/Src/stm32f7xx_hal_tim.c **** {
 750              		.loc 1 505 1
 751              		.cfi_startproc
 752              		@ args = 0, pretend = 0, frame = 8
 753              		@ frame_needed = 1, uses_anonymous_args = 0
 754              		@ link register save eliminated.
 755 0000 80B4     		push	{r7}
 756              	.LCFI40:
 757              		.cfi_def_cfa_offset 4
 758              		.cfi_offset 7, -4
 759 0002 83B0     		sub	sp, sp, #12
 760              	.LCFI41:
ARM GAS  C:\Users\jisu8\AppData\Local\Temp\cckFtxsR.s 			page 23


 761              		.cfi_def_cfa_offset 16
 762 0004 00AF     		add	r7, sp, #0
 763              	.LCFI42:
 764              		.cfi_def_cfa_register 7
 765 0006 7860     		str	r0, [r7, #4]
 506:Drivers/STM32F7xx_HAL_Driver/Src/stm32f7xx_hal_tim.c ****   /* Check the parameters */
 507:Drivers/STM32F7xx_HAL_Driver/Src/stm32f7xx_hal_tim.c ****   assert_param(IS_TIM_INSTANCE(htim->Instance));
 508:Drivers/STM32F7xx_HAL_Driver/Src/stm32f7xx_hal_tim.c **** 
 509:Drivers/STM32F7xx_HAL_Driver/Src/stm32f7xx_hal_tim.c ****   /* Disable the TIM Update interrupt */
 510:Drivers/STM32F7xx_HAL_Driver/Src/stm32f7xx_hal_tim.c ****   __HAL_TIM_DISABLE_IT(htim, TIM_IT_UPDATE);
 766              		.loc 1 510 3
 767 0008 7B68     		ldr	r3, [r7, #4]
 768 000a 1B68     		ldr	r3, [r3]
 769 000c DA68     		ldr	r2, [r3, #12]
 770 000e 7B68     		ldr	r3, [r7, #4]
 771 0010 1B68     		ldr	r3, [r3]
 772 0012 22F00102 		bic	r2, r2, #1
 773 0016 DA60     		str	r2, [r3, #12]
 511:Drivers/STM32F7xx_HAL_Driver/Src/stm32f7xx_hal_tim.c **** 
 512:Drivers/STM32F7xx_HAL_Driver/Src/stm32f7xx_hal_tim.c ****   /* Disable the Peripheral */
 513:Drivers/STM32F7xx_HAL_Driver/Src/stm32f7xx_hal_tim.c ****   __HAL_TIM_DISABLE(htim);
 774              		.loc 1 513 3
 775 0018 7B68     		ldr	r3, [r7, #4]
 776 001a 1B68     		ldr	r3, [r3]
 777 001c 1A6A     		ldr	r2, [r3, #32]
 778 001e 41F21113 		movw	r3, #4369
 779 0022 1340     		ands	r3, r3, r2
 780 0024 002B     		cmp	r3, #0
 781 0026 0FD1     		bne	.L34
 782              		.loc 1 513 3 is_stmt 0 discriminator 1
 783 0028 7B68     		ldr	r3, [r7, #4]
 784 002a 1B68     		ldr	r3, [r3]
 785 002c 1A6A     		ldr	r2, [r3, #32]
 786 002e 40F24443 		movw	r3, #1092
 787 0032 1340     		ands	r3, r3, r2
 788 0034 002B     		cmp	r3, #0
 789 0036 07D1     		bne	.L34
 790              		.loc 1 513 3 discriminator 2
 791 0038 7B68     		ldr	r3, [r7, #4]
 792 003a 1B68     		ldr	r3, [r3]
 793 003c 1A68     		ldr	r2, [r3]
 794 003e 7B68     		ldr	r3, [r7, #4]
 795 0040 1B68     		ldr	r3, [r3]
 796 0042 22F00102 		bic	r2, r2, #1
 797 0046 1A60     		str	r2, [r3]
 798              	.L34:
 514:Drivers/STM32F7xx_HAL_Driver/Src/stm32f7xx_hal_tim.c **** 
 515:Drivers/STM32F7xx_HAL_Driver/Src/stm32f7xx_hal_tim.c ****   /* Set the TIM state */
 516:Drivers/STM32F7xx_HAL_Driver/Src/stm32f7xx_hal_tim.c ****   htim->State = HAL_TIM_STATE_READY;
 799              		.loc 1 516 15 is_stmt 1
 800 0048 7B68     		ldr	r3, [r7, #4]
 801 004a 0122     		movs	r2, #1
 802 004c 83F83D20 		strb	r2, [r3, #61]
 517:Drivers/STM32F7xx_HAL_Driver/Src/stm32f7xx_hal_tim.c **** 
 518:Drivers/STM32F7xx_HAL_Driver/Src/stm32f7xx_hal_tim.c ****   /* Return function status */
 519:Drivers/STM32F7xx_HAL_Driver/Src/stm32f7xx_hal_tim.c ****   return HAL_OK;
 803              		.loc 1 519 10
ARM GAS  C:\Users\jisu8\AppData\Local\Temp\cckFtxsR.s 			page 24


 804 0050 0023     		movs	r3, #0
 520:Drivers/STM32F7xx_HAL_Driver/Src/stm32f7xx_hal_tim.c **** }
 805              		.loc 1 520 1
 806 0052 1846     		mov	r0, r3
 807 0054 0C37     		adds	r7, r7, #12
 808              	.LCFI43:
 809              		.cfi_def_cfa_offset 4
 810 0056 BD46     		mov	sp, r7
 811              	.LCFI44:
 812              		.cfi_def_cfa_register 13
 813              		@ sp needed
 814 0058 5DF8047B 		ldr	r7, [sp], #4
 815              	.LCFI45:
 816              		.cfi_restore 7
 817              		.cfi_def_cfa_offset 0
 818 005c 7047     		bx	lr
 819              		.cfi_endproc
 820              	.LFE148:
 822              		.section	.text.HAL_TIM_Base_Start_DMA,"ax",%progbits
 823              		.align	1
 824              		.global	HAL_TIM_Base_Start_DMA
 825              		.syntax unified
 826              		.thumb
 827              		.thumb_func
 829              	HAL_TIM_Base_Start_DMA:
 830              	.LFB149:
 521:Drivers/STM32F7xx_HAL_Driver/Src/stm32f7xx_hal_tim.c **** 
 522:Drivers/STM32F7xx_HAL_Driver/Src/stm32f7xx_hal_tim.c **** /**
 523:Drivers/STM32F7xx_HAL_Driver/Src/stm32f7xx_hal_tim.c ****   * @brief  Starts the TIM Base generation in DMA mode.
 524:Drivers/STM32F7xx_HAL_Driver/Src/stm32f7xx_hal_tim.c ****   * @param  htim TIM Base handle
 525:Drivers/STM32F7xx_HAL_Driver/Src/stm32f7xx_hal_tim.c ****   * @param  pData The source Buffer address.
 526:Drivers/STM32F7xx_HAL_Driver/Src/stm32f7xx_hal_tim.c ****   * @param  Length The length of data to be transferred from memory to peripheral.
 527:Drivers/STM32F7xx_HAL_Driver/Src/stm32f7xx_hal_tim.c ****   * @retval HAL status
 528:Drivers/STM32F7xx_HAL_Driver/Src/stm32f7xx_hal_tim.c ****   */
 529:Drivers/STM32F7xx_HAL_Driver/Src/stm32f7xx_hal_tim.c **** HAL_StatusTypeDef HAL_TIM_Base_Start_DMA(TIM_HandleTypeDef *htim, const uint32_t *pData, uint16_t L
 530:Drivers/STM32F7xx_HAL_Driver/Src/stm32f7xx_hal_tim.c **** {
 831              		.loc 1 530 1
 832              		.cfi_startproc
 833              		@ args = 0, pretend = 0, frame = 24
 834              		@ frame_needed = 1, uses_anonymous_args = 0
 835 0000 80B5     		push	{r7, lr}
 836              	.LCFI46:
 837              		.cfi_def_cfa_offset 8
 838              		.cfi_offset 7, -8
 839              		.cfi_offset 14, -4
 840 0002 86B0     		sub	sp, sp, #24
 841              	.LCFI47:
 842              		.cfi_def_cfa_offset 32
 843 0004 00AF     		add	r7, sp, #0
 844              	.LCFI48:
 845              		.cfi_def_cfa_register 7
 846 0006 F860     		str	r0, [r7, #12]
 847 0008 B960     		str	r1, [r7, #8]
 848 000a 1346     		mov	r3, r2
 849 000c FB80     		strh	r3, [r7, #6]	@ movhi
 531:Drivers/STM32F7xx_HAL_Driver/Src/stm32f7xx_hal_tim.c ****   uint32_t tmpsmcr;
 532:Drivers/STM32F7xx_HAL_Driver/Src/stm32f7xx_hal_tim.c **** 
ARM GAS  C:\Users\jisu8\AppData\Local\Temp\cckFtxsR.s 			page 25


 533:Drivers/STM32F7xx_HAL_Driver/Src/stm32f7xx_hal_tim.c ****   /* Check the parameters */
 534:Drivers/STM32F7xx_HAL_Driver/Src/stm32f7xx_hal_tim.c ****   assert_param(IS_TIM_DMA_INSTANCE(htim->Instance));
 535:Drivers/STM32F7xx_HAL_Driver/Src/stm32f7xx_hal_tim.c **** 
 536:Drivers/STM32F7xx_HAL_Driver/Src/stm32f7xx_hal_tim.c ****   /* Set the TIM state */
 537:Drivers/STM32F7xx_HAL_Driver/Src/stm32f7xx_hal_tim.c ****   if (htim->State == HAL_TIM_STATE_BUSY)
 850              		.loc 1 537 11
 851 000e FB68     		ldr	r3, [r7, #12]
 852 0010 93F83D30 		ldrb	r3, [r3, #61]
 853 0014 DBB2     		uxtb	r3, r3
 854              		.loc 1 537 6
 855 0016 022B     		cmp	r3, #2
 856 0018 01D1     		bne	.L37
 538:Drivers/STM32F7xx_HAL_Driver/Src/stm32f7xx_hal_tim.c ****   {
 539:Drivers/STM32F7xx_HAL_Driver/Src/stm32f7xx_hal_tim.c ****     return HAL_BUSY;
 857              		.loc 1 539 12
 858 001a 0223     		movs	r3, #2
 859 001c 80E0     		b	.L38
 860              	.L37:
 540:Drivers/STM32F7xx_HAL_Driver/Src/stm32f7xx_hal_tim.c ****   }
 541:Drivers/STM32F7xx_HAL_Driver/Src/stm32f7xx_hal_tim.c ****   else if (htim->State == HAL_TIM_STATE_READY)
 861              		.loc 1 541 16
 862 001e FB68     		ldr	r3, [r7, #12]
 863 0020 93F83D30 		ldrb	r3, [r3, #61]
 864 0024 DBB2     		uxtb	r3, r3
 865              		.loc 1 541 11
 866 0026 012B     		cmp	r3, #1
 867 0028 25D1     		bne	.L39
 542:Drivers/STM32F7xx_HAL_Driver/Src/stm32f7xx_hal_tim.c ****   {
 543:Drivers/STM32F7xx_HAL_Driver/Src/stm32f7xx_hal_tim.c ****     if ((pData == NULL) || (Length == 0U))
 868              		.loc 1 543 8
 869 002a BB68     		ldr	r3, [r7, #8]
 870 002c 002B     		cmp	r3, #0
 871 002e 02D0     		beq	.L40
 872              		.loc 1 543 25 discriminator 1
 873 0030 FB88     		ldrh	r3, [r7, #6]
 874 0032 002B     		cmp	r3, #0
 875 0034 01D1     		bne	.L41
 876              	.L40:
 544:Drivers/STM32F7xx_HAL_Driver/Src/stm32f7xx_hal_tim.c ****     {
 545:Drivers/STM32F7xx_HAL_Driver/Src/stm32f7xx_hal_tim.c ****       return HAL_ERROR;
 877              		.loc 1 545 14
 878 0036 0123     		movs	r3, #1
 879 0038 72E0     		b	.L38
 880              	.L41:
 546:Drivers/STM32F7xx_HAL_Driver/Src/stm32f7xx_hal_tim.c ****     }
 547:Drivers/STM32F7xx_HAL_Driver/Src/stm32f7xx_hal_tim.c ****     else
 548:Drivers/STM32F7xx_HAL_Driver/Src/stm32f7xx_hal_tim.c ****     {
 549:Drivers/STM32F7xx_HAL_Driver/Src/stm32f7xx_hal_tim.c ****       htim->State = HAL_TIM_STATE_BUSY;
 881              		.loc 1 549 19
 882 003a FB68     		ldr	r3, [r7, #12]
 883 003c 0222     		movs	r2, #2
 884 003e 83F83D20 		strb	r2, [r3, #61]
 550:Drivers/STM32F7xx_HAL_Driver/Src/stm32f7xx_hal_tim.c ****     }
 551:Drivers/STM32F7xx_HAL_Driver/Src/stm32f7xx_hal_tim.c ****   }
 552:Drivers/STM32F7xx_HAL_Driver/Src/stm32f7xx_hal_tim.c ****   else
 553:Drivers/STM32F7xx_HAL_Driver/Src/stm32f7xx_hal_tim.c ****   {
 554:Drivers/STM32F7xx_HAL_Driver/Src/stm32f7xx_hal_tim.c ****     return HAL_ERROR;
ARM GAS  C:\Users\jisu8\AppData\Local\Temp\cckFtxsR.s 			page 26


 555:Drivers/STM32F7xx_HAL_Driver/Src/stm32f7xx_hal_tim.c ****   }
 556:Drivers/STM32F7xx_HAL_Driver/Src/stm32f7xx_hal_tim.c **** 
 557:Drivers/STM32F7xx_HAL_Driver/Src/stm32f7xx_hal_tim.c ****   /* Set the DMA Period elapsed callbacks */
 558:Drivers/STM32F7xx_HAL_Driver/Src/stm32f7xx_hal_tim.c ****   htim->hdma[TIM_DMA_ID_UPDATE]->XferCpltCallback = TIM_DMAPeriodElapsedCplt;
 885              		.loc 1 558 13
 886 0042 FB68     		ldr	r3, [r7, #12]
 887 0044 1B6A     		ldr	r3, [r3, #32]
 888              		.loc 1 558 51
 889 0046 384A     		ldr	r2, .L50
 890 0048 DA63     		str	r2, [r3, #60]
 559:Drivers/STM32F7xx_HAL_Driver/Src/stm32f7xx_hal_tim.c ****   htim->hdma[TIM_DMA_ID_UPDATE]->XferHalfCpltCallback = TIM_DMAPeriodElapsedHalfCplt;
 891              		.loc 1 559 13
 892 004a FB68     		ldr	r3, [r7, #12]
 893 004c 1B6A     		ldr	r3, [r3, #32]
 894              		.loc 1 559 55
 895 004e 374A     		ldr	r2, .L50+4
 896 0050 1A64     		str	r2, [r3, #64]
 560:Drivers/STM32F7xx_HAL_Driver/Src/stm32f7xx_hal_tim.c **** 
 561:Drivers/STM32F7xx_HAL_Driver/Src/stm32f7xx_hal_tim.c ****   /* Set the DMA error callback */
 562:Drivers/STM32F7xx_HAL_Driver/Src/stm32f7xx_hal_tim.c ****   htim->hdma[TIM_DMA_ID_UPDATE]->XferErrorCallback = TIM_DMAError ;
 897              		.loc 1 562 13
 898 0052 FB68     		ldr	r3, [r7, #12]
 899 0054 1B6A     		ldr	r3, [r3, #32]
 900              		.loc 1 562 52
 901 0056 364A     		ldr	r2, .L50+8
 902 0058 DA64     		str	r2, [r3, #76]
 563:Drivers/STM32F7xx_HAL_Driver/Src/stm32f7xx_hal_tim.c **** 
 564:Drivers/STM32F7xx_HAL_Driver/Src/stm32f7xx_hal_tim.c ****   /* Enable the DMA stream */
 565:Drivers/STM32F7xx_HAL_Driver/Src/stm32f7xx_hal_tim.c ****   if (HAL_DMA_Start_IT(htim->hdma[TIM_DMA_ID_UPDATE], (uint32_t)pData, (uint32_t)&htim->Instance->A
 903              		.loc 1 565 7
 904 005a FB68     		ldr	r3, [r7, #12]
 905 005c 186A     		ldr	r0, [r3, #32]
 906 005e B968     		ldr	r1, [r7, #8]
 907              		.loc 1 565 87
 908 0060 FB68     		ldr	r3, [r7, #12]
 909 0062 1B68     		ldr	r3, [r3]
 910              		.loc 1 565 82
 911 0064 2C33     		adds	r3, r3, #44
 912              		.loc 1 565 7
 913 0066 1A46     		mov	r2, r3
 914 0068 FB88     		ldrh	r3, [r7, #6]
 915 006a FFF7FEFF 		bl	HAL_DMA_Start_IT
 916 006e 0346     		mov	r3, r0
 917              		.loc 1 565 6
 918 0070 002B     		cmp	r3, #0
 919 0072 04D0     		beq	.L43
 920 0074 01E0     		b	.L48
 921              	.L39:
 554:Drivers/STM32F7xx_HAL_Driver/Src/stm32f7xx_hal_tim.c ****   }
 922              		.loc 1 554 12
 923 0076 0123     		movs	r3, #1
 924 0078 52E0     		b	.L38
 925              	.L48:
 566:Drivers/STM32F7xx_HAL_Driver/Src/stm32f7xx_hal_tim.c ****                        Length) != HAL_OK)
 567:Drivers/STM32F7xx_HAL_Driver/Src/stm32f7xx_hal_tim.c ****   {
 568:Drivers/STM32F7xx_HAL_Driver/Src/stm32f7xx_hal_tim.c ****     /* Return error status */
 569:Drivers/STM32F7xx_HAL_Driver/Src/stm32f7xx_hal_tim.c ****     return HAL_ERROR;
ARM GAS  C:\Users\jisu8\AppData\Local\Temp\cckFtxsR.s 			page 27


 926              		.loc 1 569 12
 927 007a 0123     		movs	r3, #1
 928 007c 50E0     		b	.L38
 929              	.L43:
 570:Drivers/STM32F7xx_HAL_Driver/Src/stm32f7xx_hal_tim.c ****   }
 571:Drivers/STM32F7xx_HAL_Driver/Src/stm32f7xx_hal_tim.c **** 
 572:Drivers/STM32F7xx_HAL_Driver/Src/stm32f7xx_hal_tim.c ****   /* Enable the TIM Update DMA request */
 573:Drivers/STM32F7xx_HAL_Driver/Src/stm32f7xx_hal_tim.c ****   __HAL_TIM_ENABLE_DMA(htim, TIM_DMA_UPDATE);
 930              		.loc 1 573 3
 931 007e FB68     		ldr	r3, [r7, #12]
 932 0080 1B68     		ldr	r3, [r3]
 933 0082 DA68     		ldr	r2, [r3, #12]
 934 0084 FB68     		ldr	r3, [r7, #12]
 935 0086 1B68     		ldr	r3, [r3]
 936 0088 42F48072 		orr	r2, r2, #256
 937 008c DA60     		str	r2, [r3, #12]
 574:Drivers/STM32F7xx_HAL_Driver/Src/stm32f7xx_hal_tim.c **** 
 575:Drivers/STM32F7xx_HAL_Driver/Src/stm32f7xx_hal_tim.c ****   /* Enable the Peripheral, except in trigger mode where enable is automatically done with trigger 
 576:Drivers/STM32F7xx_HAL_Driver/Src/stm32f7xx_hal_tim.c ****   if (IS_TIM_SLAVE_INSTANCE(htim->Instance))
 938              		.loc 1 576 7
 939 008e FB68     		ldr	r3, [r7, #12]
 940 0090 1B68     		ldr	r3, [r3]
 941              		.loc 1 576 6
 942 0092 284A     		ldr	r2, .L50+12
 943 0094 9342     		cmp	r3, r2
 944 0096 22D0     		beq	.L44
 945              		.loc 1 576 7 discriminator 1
 946 0098 FB68     		ldr	r3, [r7, #12]
 947 009a 1B68     		ldr	r3, [r3]
 948 009c B3F1804F 		cmp	r3, #1073741824
 949 00a0 1DD0     		beq	.L44
 950              		.loc 1 576 7 is_stmt 0 discriminator 2
 951 00a2 FB68     		ldr	r3, [r7, #12]
 952 00a4 1B68     		ldr	r3, [r3]
 953 00a6 244A     		ldr	r2, .L50+16
 954 00a8 9342     		cmp	r3, r2
 955 00aa 18D0     		beq	.L44
 956              		.loc 1 576 7 discriminator 3
 957 00ac FB68     		ldr	r3, [r7, #12]
 958 00ae 1B68     		ldr	r3, [r3]
 959 00b0 224A     		ldr	r2, .L50+20
 960 00b2 9342     		cmp	r3, r2
 961 00b4 13D0     		beq	.L44
 962              		.loc 1 576 7 discriminator 4
 963 00b6 FB68     		ldr	r3, [r7, #12]
 964 00b8 1B68     		ldr	r3, [r3]
 965 00ba 214A     		ldr	r2, .L50+24
 966 00bc 9342     		cmp	r3, r2
 967 00be 0ED0     		beq	.L44
 968              		.loc 1 576 7 discriminator 5
 969 00c0 FB68     		ldr	r3, [r7, #12]
 970 00c2 1B68     		ldr	r3, [r3]
 971 00c4 1F4A     		ldr	r2, .L50+28
 972 00c6 9342     		cmp	r3, r2
 973 00c8 09D0     		beq	.L44
 974              		.loc 1 576 7 discriminator 6
 975 00ca FB68     		ldr	r3, [r7, #12]
ARM GAS  C:\Users\jisu8\AppData\Local\Temp\cckFtxsR.s 			page 28


 976 00cc 1B68     		ldr	r3, [r3]
 977 00ce 1E4A     		ldr	r2, .L50+32
 978 00d0 9342     		cmp	r3, r2
 979 00d2 04D0     		beq	.L44
 980              		.loc 1 576 7 discriminator 7
 981 00d4 FB68     		ldr	r3, [r7, #12]
 982 00d6 1B68     		ldr	r3, [r3]
 983 00d8 1C4A     		ldr	r2, .L50+36
 984 00da 9342     		cmp	r3, r2
 985 00dc 15D1     		bne	.L45
 986              	.L44:
 577:Drivers/STM32F7xx_HAL_Driver/Src/stm32f7xx_hal_tim.c ****   {
 578:Drivers/STM32F7xx_HAL_Driver/Src/stm32f7xx_hal_tim.c ****     tmpsmcr = htim->Instance->SMCR & TIM_SMCR_SMS;
 987              		.loc 1 578 19 is_stmt 1
 988 00de FB68     		ldr	r3, [r7, #12]
 989 00e0 1B68     		ldr	r3, [r3]
 990              		.loc 1 578 29
 991 00e2 9A68     		ldr	r2, [r3, #8]
 992              		.loc 1 578 13
 993 00e4 1A4B     		ldr	r3, .L50+40
 994 00e6 1340     		ands	r3, r3, r2
 995 00e8 7B61     		str	r3, [r7, #20]
 579:Drivers/STM32F7xx_HAL_Driver/Src/stm32f7xx_hal_tim.c ****     if (!IS_TIM_SLAVEMODE_TRIGGER_ENABLED(tmpsmcr))
 996              		.loc 1 579 8
 997 00ea 7B69     		ldr	r3, [r7, #20]
 998 00ec 062B     		cmp	r3, #6
 999 00ee 15D0     		beq	.L49
 1000              		.loc 1 579 9 discriminator 1
 1001 00f0 7B69     		ldr	r3, [r7, #20]
 1002 00f2 B3F5803F 		cmp	r3, #65536
 1003 00f6 11D0     		beq	.L49
 580:Drivers/STM32F7xx_HAL_Driver/Src/stm32f7xx_hal_tim.c ****     {
 581:Drivers/STM32F7xx_HAL_Driver/Src/stm32f7xx_hal_tim.c ****       __HAL_TIM_ENABLE(htim);
 1004              		.loc 1 581 7
 1005 00f8 FB68     		ldr	r3, [r7, #12]
 1006 00fa 1B68     		ldr	r3, [r3]
 1007 00fc 1A68     		ldr	r2, [r3]
 1008 00fe FB68     		ldr	r3, [r7, #12]
 1009 0100 1B68     		ldr	r3, [r3]
 1010 0102 42F00102 		orr	r2, r2, #1
 1011 0106 1A60     		str	r2, [r3]
 579:Drivers/STM32F7xx_HAL_Driver/Src/stm32f7xx_hal_tim.c ****     if (!IS_TIM_SLAVEMODE_TRIGGER_ENABLED(tmpsmcr))
 1012              		.loc 1 579 8
 1013 0108 08E0     		b	.L49
 1014              	.L45:
 582:Drivers/STM32F7xx_HAL_Driver/Src/stm32f7xx_hal_tim.c ****     }
 583:Drivers/STM32F7xx_HAL_Driver/Src/stm32f7xx_hal_tim.c ****   }
 584:Drivers/STM32F7xx_HAL_Driver/Src/stm32f7xx_hal_tim.c ****   else
 585:Drivers/STM32F7xx_HAL_Driver/Src/stm32f7xx_hal_tim.c ****   {
 586:Drivers/STM32F7xx_HAL_Driver/Src/stm32f7xx_hal_tim.c ****     __HAL_TIM_ENABLE(htim);
 1015              		.loc 1 586 5
 1016 010a FB68     		ldr	r3, [r7, #12]
 1017 010c 1B68     		ldr	r3, [r3]
 1018 010e 1A68     		ldr	r2, [r3]
 1019 0110 FB68     		ldr	r3, [r7, #12]
 1020 0112 1B68     		ldr	r3, [r3]
 1021 0114 42F00102 		orr	r2, r2, #1
ARM GAS  C:\Users\jisu8\AppData\Local\Temp\cckFtxsR.s 			page 29


 1022 0118 1A60     		str	r2, [r3]
 1023 011a 00E0     		b	.L47
 1024              	.L49:
 579:Drivers/STM32F7xx_HAL_Driver/Src/stm32f7xx_hal_tim.c ****     {
 1025              		.loc 1 579 8
 1026 011c 00BF     		nop
 1027              	.L47:
 587:Drivers/STM32F7xx_HAL_Driver/Src/stm32f7xx_hal_tim.c ****   }
 588:Drivers/STM32F7xx_HAL_Driver/Src/stm32f7xx_hal_tim.c **** 
 589:Drivers/STM32F7xx_HAL_Driver/Src/stm32f7xx_hal_tim.c ****   /* Return function status */
 590:Drivers/STM32F7xx_HAL_Driver/Src/stm32f7xx_hal_tim.c ****   return HAL_OK;
 1028              		.loc 1 590 10
 1029 011e 0023     		movs	r3, #0
 1030              	.L38:
 591:Drivers/STM32F7xx_HAL_Driver/Src/stm32f7xx_hal_tim.c **** }
 1031              		.loc 1 591 1
 1032 0120 1846     		mov	r0, r3
 1033 0122 1837     		adds	r7, r7, #24
 1034              	.LCFI49:
 1035              		.cfi_def_cfa_offset 8
 1036 0124 BD46     		mov	sp, r7
 1037              	.LCFI50:
 1038              		.cfi_def_cfa_register 13
 1039              		@ sp needed
 1040 0126 80BD     		pop	{r7, pc}
 1041              	.L51:
 1042              		.align	2
 1043              	.L50:
 1044 0128 00000000 		.word	TIM_DMAPeriodElapsedCplt
 1045 012c 00000000 		.word	TIM_DMAPeriodElapsedHalfCplt
 1046 0130 00000000 		.word	TIM_DMAError
 1047 0134 00000140 		.word	1073807360
 1048 0138 00040040 		.word	1073742848
 1049 013c 00080040 		.word	1073743872
 1050 0140 000C0040 		.word	1073744896
 1051 0144 00040140 		.word	1073808384
 1052 0148 00400140 		.word	1073823744
 1053 014c 00180040 		.word	1073747968
 1054 0150 07000100 		.word	65543
 1055              		.cfi_endproc
 1056              	.LFE149:
 1058              		.section	.text.HAL_TIM_Base_Stop_DMA,"ax",%progbits
 1059              		.align	1
 1060              		.global	HAL_TIM_Base_Stop_DMA
 1061              		.syntax unified
 1062              		.thumb
 1063              		.thumb_func
 1065              	HAL_TIM_Base_Stop_DMA:
 1066              	.LFB150:
 592:Drivers/STM32F7xx_HAL_Driver/Src/stm32f7xx_hal_tim.c **** 
 593:Drivers/STM32F7xx_HAL_Driver/Src/stm32f7xx_hal_tim.c **** /**
 594:Drivers/STM32F7xx_HAL_Driver/Src/stm32f7xx_hal_tim.c ****   * @brief  Stops the TIM Base generation in DMA mode.
 595:Drivers/STM32F7xx_HAL_Driver/Src/stm32f7xx_hal_tim.c ****   * @param  htim TIM Base handle
 596:Drivers/STM32F7xx_HAL_Driver/Src/stm32f7xx_hal_tim.c ****   * @retval HAL status
 597:Drivers/STM32F7xx_HAL_Driver/Src/stm32f7xx_hal_tim.c ****   */
 598:Drivers/STM32F7xx_HAL_Driver/Src/stm32f7xx_hal_tim.c **** HAL_StatusTypeDef HAL_TIM_Base_Stop_DMA(TIM_HandleTypeDef *htim)
 599:Drivers/STM32F7xx_HAL_Driver/Src/stm32f7xx_hal_tim.c **** {
ARM GAS  C:\Users\jisu8\AppData\Local\Temp\cckFtxsR.s 			page 30


 1067              		.loc 1 599 1
 1068              		.cfi_startproc
 1069              		@ args = 0, pretend = 0, frame = 8
 1070              		@ frame_needed = 1, uses_anonymous_args = 0
 1071 0000 80B5     		push	{r7, lr}
 1072              	.LCFI51:
 1073              		.cfi_def_cfa_offset 8
 1074              		.cfi_offset 7, -8
 1075              		.cfi_offset 14, -4
 1076 0002 82B0     		sub	sp, sp, #8
 1077              	.LCFI52:
 1078              		.cfi_def_cfa_offset 16
 1079 0004 00AF     		add	r7, sp, #0
 1080              	.LCFI53:
 1081              		.cfi_def_cfa_register 7
 1082 0006 7860     		str	r0, [r7, #4]
 600:Drivers/STM32F7xx_HAL_Driver/Src/stm32f7xx_hal_tim.c ****   /* Check the parameters */
 601:Drivers/STM32F7xx_HAL_Driver/Src/stm32f7xx_hal_tim.c ****   assert_param(IS_TIM_DMA_INSTANCE(htim->Instance));
 602:Drivers/STM32F7xx_HAL_Driver/Src/stm32f7xx_hal_tim.c **** 
 603:Drivers/STM32F7xx_HAL_Driver/Src/stm32f7xx_hal_tim.c ****   /* Disable the TIM Update DMA request */
 604:Drivers/STM32F7xx_HAL_Driver/Src/stm32f7xx_hal_tim.c ****   __HAL_TIM_DISABLE_DMA(htim, TIM_DMA_UPDATE);
 1083              		.loc 1 604 3
 1084 0008 7B68     		ldr	r3, [r7, #4]
 1085 000a 1B68     		ldr	r3, [r3]
 1086 000c DA68     		ldr	r2, [r3, #12]
 1087 000e 7B68     		ldr	r3, [r7, #4]
 1088 0010 1B68     		ldr	r3, [r3]
 1089 0012 22F48072 		bic	r2, r2, #256
 1090 0016 DA60     		str	r2, [r3, #12]
 605:Drivers/STM32F7xx_HAL_Driver/Src/stm32f7xx_hal_tim.c **** 
 606:Drivers/STM32F7xx_HAL_Driver/Src/stm32f7xx_hal_tim.c ****   (void)HAL_DMA_Abort_IT(htim->hdma[TIM_DMA_ID_UPDATE]);
 1091              		.loc 1 606 9
 1092 0018 7B68     		ldr	r3, [r7, #4]
 1093 001a 1B6A     		ldr	r3, [r3, #32]
 1094 001c 1846     		mov	r0, r3
 1095 001e FFF7FEFF 		bl	HAL_DMA_Abort_IT
 607:Drivers/STM32F7xx_HAL_Driver/Src/stm32f7xx_hal_tim.c **** 
 608:Drivers/STM32F7xx_HAL_Driver/Src/stm32f7xx_hal_tim.c ****   /* Disable the Peripheral */
 609:Drivers/STM32F7xx_HAL_Driver/Src/stm32f7xx_hal_tim.c ****   __HAL_TIM_DISABLE(htim);
 1096              		.loc 1 609 3
 1097 0022 7B68     		ldr	r3, [r7, #4]
 1098 0024 1B68     		ldr	r3, [r3]
 1099 0026 1A6A     		ldr	r2, [r3, #32]
 1100 0028 41F21113 		movw	r3, #4369
 1101 002c 1340     		ands	r3, r3, r2
 1102 002e 002B     		cmp	r3, #0
 1103 0030 0FD1     		bne	.L53
 1104              		.loc 1 609 3 is_stmt 0 discriminator 1
 1105 0032 7B68     		ldr	r3, [r7, #4]
 1106 0034 1B68     		ldr	r3, [r3]
 1107 0036 1A6A     		ldr	r2, [r3, #32]
 1108 0038 40F24443 		movw	r3, #1092
 1109 003c 1340     		ands	r3, r3, r2
 1110 003e 002B     		cmp	r3, #0
 1111 0040 07D1     		bne	.L53
 1112              		.loc 1 609 3 discriminator 2
 1113 0042 7B68     		ldr	r3, [r7, #4]
ARM GAS  C:\Users\jisu8\AppData\Local\Temp\cckFtxsR.s 			page 31


 1114 0044 1B68     		ldr	r3, [r3]
 1115 0046 1A68     		ldr	r2, [r3]
 1116 0048 7B68     		ldr	r3, [r7, #4]
 1117 004a 1B68     		ldr	r3, [r3]
 1118 004c 22F00102 		bic	r2, r2, #1
 1119 0050 1A60     		str	r2, [r3]
 1120              	.L53:
 610:Drivers/STM32F7xx_HAL_Driver/Src/stm32f7xx_hal_tim.c **** 
 611:Drivers/STM32F7xx_HAL_Driver/Src/stm32f7xx_hal_tim.c ****   /* Set the TIM state */
 612:Drivers/STM32F7xx_HAL_Driver/Src/stm32f7xx_hal_tim.c ****   htim->State = HAL_TIM_STATE_READY;
 1121              		.loc 1 612 15 is_stmt 1
 1122 0052 7B68     		ldr	r3, [r7, #4]
 1123 0054 0122     		movs	r2, #1
 1124 0056 83F83D20 		strb	r2, [r3, #61]
 613:Drivers/STM32F7xx_HAL_Driver/Src/stm32f7xx_hal_tim.c **** 
 614:Drivers/STM32F7xx_HAL_Driver/Src/stm32f7xx_hal_tim.c ****   /* Return function status */
 615:Drivers/STM32F7xx_HAL_Driver/Src/stm32f7xx_hal_tim.c ****   return HAL_OK;
 1125              		.loc 1 615 10
 1126 005a 0023     		movs	r3, #0
 616:Drivers/STM32F7xx_HAL_Driver/Src/stm32f7xx_hal_tim.c **** }
 1127              		.loc 1 616 1
 1128 005c 1846     		mov	r0, r3
 1129 005e 0837     		adds	r7, r7, #8
 1130              	.LCFI54:
 1131              		.cfi_def_cfa_offset 8
 1132 0060 BD46     		mov	sp, r7
 1133              	.LCFI55:
 1134              		.cfi_def_cfa_register 13
 1135              		@ sp needed
 1136 0062 80BD     		pop	{r7, pc}
 1137              		.cfi_endproc
 1138              	.LFE150:
 1140              		.section	.text.HAL_TIM_OC_Init,"ax",%progbits
 1141              		.align	1
 1142              		.global	HAL_TIM_OC_Init
 1143              		.syntax unified
 1144              		.thumb
 1145              		.thumb_func
 1147              	HAL_TIM_OC_Init:
 1148              	.LFB151:
 617:Drivers/STM32F7xx_HAL_Driver/Src/stm32f7xx_hal_tim.c **** 
 618:Drivers/STM32F7xx_HAL_Driver/Src/stm32f7xx_hal_tim.c **** /**
 619:Drivers/STM32F7xx_HAL_Driver/Src/stm32f7xx_hal_tim.c ****   * @}
 620:Drivers/STM32F7xx_HAL_Driver/Src/stm32f7xx_hal_tim.c ****   */
 621:Drivers/STM32F7xx_HAL_Driver/Src/stm32f7xx_hal_tim.c **** 
 622:Drivers/STM32F7xx_HAL_Driver/Src/stm32f7xx_hal_tim.c **** /** @defgroup TIM_Exported_Functions_Group2 TIM Output Compare functions
 623:Drivers/STM32F7xx_HAL_Driver/Src/stm32f7xx_hal_tim.c ****   *  @brief    TIM Output Compare functions
 624:Drivers/STM32F7xx_HAL_Driver/Src/stm32f7xx_hal_tim.c ****   *
 625:Drivers/STM32F7xx_HAL_Driver/Src/stm32f7xx_hal_tim.c **** @verbatim
 626:Drivers/STM32F7xx_HAL_Driver/Src/stm32f7xx_hal_tim.c ****   ==============================================================================
 627:Drivers/STM32F7xx_HAL_Driver/Src/stm32f7xx_hal_tim.c ****                   ##### TIM Output Compare functions #####
 628:Drivers/STM32F7xx_HAL_Driver/Src/stm32f7xx_hal_tim.c ****   ==============================================================================
 629:Drivers/STM32F7xx_HAL_Driver/Src/stm32f7xx_hal_tim.c ****   [..]
 630:Drivers/STM32F7xx_HAL_Driver/Src/stm32f7xx_hal_tim.c ****     This section provides functions allowing to:
 631:Drivers/STM32F7xx_HAL_Driver/Src/stm32f7xx_hal_tim.c ****     (+) Initialize and configure the TIM Output Compare.
 632:Drivers/STM32F7xx_HAL_Driver/Src/stm32f7xx_hal_tim.c ****     (+) De-initialize the TIM Output Compare.
 633:Drivers/STM32F7xx_HAL_Driver/Src/stm32f7xx_hal_tim.c ****     (+) Start the TIM Output Compare.
ARM GAS  C:\Users\jisu8\AppData\Local\Temp\cckFtxsR.s 			page 32


 634:Drivers/STM32F7xx_HAL_Driver/Src/stm32f7xx_hal_tim.c ****     (+) Stop the TIM Output Compare.
 635:Drivers/STM32F7xx_HAL_Driver/Src/stm32f7xx_hal_tim.c ****     (+) Start the TIM Output Compare and enable interrupt.
 636:Drivers/STM32F7xx_HAL_Driver/Src/stm32f7xx_hal_tim.c ****     (+) Stop the TIM Output Compare and disable interrupt.
 637:Drivers/STM32F7xx_HAL_Driver/Src/stm32f7xx_hal_tim.c ****     (+) Start the TIM Output Compare and enable DMA transfer.
 638:Drivers/STM32F7xx_HAL_Driver/Src/stm32f7xx_hal_tim.c ****     (+) Stop the TIM Output Compare and disable DMA transfer.
 639:Drivers/STM32F7xx_HAL_Driver/Src/stm32f7xx_hal_tim.c **** 
 640:Drivers/STM32F7xx_HAL_Driver/Src/stm32f7xx_hal_tim.c **** @endverbatim
 641:Drivers/STM32F7xx_HAL_Driver/Src/stm32f7xx_hal_tim.c ****   * @{
 642:Drivers/STM32F7xx_HAL_Driver/Src/stm32f7xx_hal_tim.c ****   */
 643:Drivers/STM32F7xx_HAL_Driver/Src/stm32f7xx_hal_tim.c **** /**
 644:Drivers/STM32F7xx_HAL_Driver/Src/stm32f7xx_hal_tim.c ****   * @brief  Initializes the TIM Output Compare according to the specified
 645:Drivers/STM32F7xx_HAL_Driver/Src/stm32f7xx_hal_tim.c ****   *         parameters in the TIM_HandleTypeDef and initializes the associated handle.
 646:Drivers/STM32F7xx_HAL_Driver/Src/stm32f7xx_hal_tim.c ****   * @note   Switching from Center Aligned counter mode to Edge counter mode (or reverse)
 647:Drivers/STM32F7xx_HAL_Driver/Src/stm32f7xx_hal_tim.c ****   *         requires a timer reset to avoid unexpected direction
 648:Drivers/STM32F7xx_HAL_Driver/Src/stm32f7xx_hal_tim.c ****   *         due to DIR bit readonly in center aligned mode.
 649:Drivers/STM32F7xx_HAL_Driver/Src/stm32f7xx_hal_tim.c ****   *         Ex: call @ref HAL_TIM_OC_DeInit() before HAL_TIM_OC_Init()
 650:Drivers/STM32F7xx_HAL_Driver/Src/stm32f7xx_hal_tim.c ****   * @param  htim TIM Output Compare handle
 651:Drivers/STM32F7xx_HAL_Driver/Src/stm32f7xx_hal_tim.c ****   * @retval HAL status
 652:Drivers/STM32F7xx_HAL_Driver/Src/stm32f7xx_hal_tim.c ****   */
 653:Drivers/STM32F7xx_HAL_Driver/Src/stm32f7xx_hal_tim.c **** HAL_StatusTypeDef HAL_TIM_OC_Init(TIM_HandleTypeDef *htim)
 654:Drivers/STM32F7xx_HAL_Driver/Src/stm32f7xx_hal_tim.c **** {
 1149              		.loc 1 654 1
 1150              		.cfi_startproc
 1151              		@ args = 0, pretend = 0, frame = 8
 1152              		@ frame_needed = 1, uses_anonymous_args = 0
 1153 0000 80B5     		push	{r7, lr}
 1154              	.LCFI56:
 1155              		.cfi_def_cfa_offset 8
 1156              		.cfi_offset 7, -8
 1157              		.cfi_offset 14, -4
 1158 0002 82B0     		sub	sp, sp, #8
 1159              	.LCFI57:
 1160              		.cfi_def_cfa_offset 16
 1161 0004 00AF     		add	r7, sp, #0
 1162              	.LCFI58:
 1163              		.cfi_def_cfa_register 7
 1164 0006 7860     		str	r0, [r7, #4]
 655:Drivers/STM32F7xx_HAL_Driver/Src/stm32f7xx_hal_tim.c ****   /* Check the TIM handle allocation */
 656:Drivers/STM32F7xx_HAL_Driver/Src/stm32f7xx_hal_tim.c ****   if (htim == NULL)
 1165              		.loc 1 656 6
 1166 0008 7B68     		ldr	r3, [r7, #4]
 1167 000a 002B     		cmp	r3, #0
 1168 000c 01D1     		bne	.L56
 657:Drivers/STM32F7xx_HAL_Driver/Src/stm32f7xx_hal_tim.c ****   {
 658:Drivers/STM32F7xx_HAL_Driver/Src/stm32f7xx_hal_tim.c ****     return HAL_ERROR;
 1169              		.loc 1 658 12
 1170 000e 0123     		movs	r3, #1
 1171 0010 49E0     		b	.L57
 1172              	.L56:
 659:Drivers/STM32F7xx_HAL_Driver/Src/stm32f7xx_hal_tim.c ****   }
 660:Drivers/STM32F7xx_HAL_Driver/Src/stm32f7xx_hal_tim.c **** 
 661:Drivers/STM32F7xx_HAL_Driver/Src/stm32f7xx_hal_tim.c ****   /* Check the parameters */
 662:Drivers/STM32F7xx_HAL_Driver/Src/stm32f7xx_hal_tim.c ****   assert_param(IS_TIM_INSTANCE(htim->Instance));
 663:Drivers/STM32F7xx_HAL_Driver/Src/stm32f7xx_hal_tim.c ****   assert_param(IS_TIM_COUNTER_MODE(htim->Init.CounterMode));
 664:Drivers/STM32F7xx_HAL_Driver/Src/stm32f7xx_hal_tim.c ****   assert_param(IS_TIM_CLOCKDIVISION_DIV(htim->Init.ClockDivision));
 665:Drivers/STM32F7xx_HAL_Driver/Src/stm32f7xx_hal_tim.c ****   assert_param(IS_TIM_PERIOD(htim, htim->Init.Period));
 666:Drivers/STM32F7xx_HAL_Driver/Src/stm32f7xx_hal_tim.c ****   assert_param(IS_TIM_AUTORELOAD_PRELOAD(htim->Init.AutoReloadPreload));
ARM GAS  C:\Users\jisu8\AppData\Local\Temp\cckFtxsR.s 			page 33


 667:Drivers/STM32F7xx_HAL_Driver/Src/stm32f7xx_hal_tim.c **** 
 668:Drivers/STM32F7xx_HAL_Driver/Src/stm32f7xx_hal_tim.c ****   if (htim->State == HAL_TIM_STATE_RESET)
 1173              		.loc 1 668 11
 1174 0012 7B68     		ldr	r3, [r7, #4]
 1175 0014 93F83D30 		ldrb	r3, [r3, #61]
 1176 0018 DBB2     		uxtb	r3, r3
 1177              		.loc 1 668 6
 1178 001a 002B     		cmp	r3, #0
 1179 001c 06D1     		bne	.L58
 669:Drivers/STM32F7xx_HAL_Driver/Src/stm32f7xx_hal_tim.c ****   {
 670:Drivers/STM32F7xx_HAL_Driver/Src/stm32f7xx_hal_tim.c ****     /* Allocate lock resource and initialize it */
 671:Drivers/STM32F7xx_HAL_Driver/Src/stm32f7xx_hal_tim.c ****     htim->Lock = HAL_UNLOCKED;
 1180              		.loc 1 671 16
 1181 001e 7B68     		ldr	r3, [r7, #4]
 1182 0020 0022     		movs	r2, #0
 1183 0022 83F83C20 		strb	r2, [r3, #60]
 672:Drivers/STM32F7xx_HAL_Driver/Src/stm32f7xx_hal_tim.c **** 
 673:Drivers/STM32F7xx_HAL_Driver/Src/stm32f7xx_hal_tim.c **** #if (USE_HAL_TIM_REGISTER_CALLBACKS == 1)
 674:Drivers/STM32F7xx_HAL_Driver/Src/stm32f7xx_hal_tim.c ****     /* Reset interrupt callbacks to legacy weak callbacks */
 675:Drivers/STM32F7xx_HAL_Driver/Src/stm32f7xx_hal_tim.c ****     TIM_ResetCallback(htim);
 676:Drivers/STM32F7xx_HAL_Driver/Src/stm32f7xx_hal_tim.c **** 
 677:Drivers/STM32F7xx_HAL_Driver/Src/stm32f7xx_hal_tim.c ****     if (htim->OC_MspInitCallback == NULL)
 678:Drivers/STM32F7xx_HAL_Driver/Src/stm32f7xx_hal_tim.c ****     {
 679:Drivers/STM32F7xx_HAL_Driver/Src/stm32f7xx_hal_tim.c ****       htim->OC_MspInitCallback = HAL_TIM_OC_MspInit;
 680:Drivers/STM32F7xx_HAL_Driver/Src/stm32f7xx_hal_tim.c ****     }
 681:Drivers/STM32F7xx_HAL_Driver/Src/stm32f7xx_hal_tim.c ****     /* Init the low level hardware : GPIO, CLOCK, NVIC */
 682:Drivers/STM32F7xx_HAL_Driver/Src/stm32f7xx_hal_tim.c ****     htim->OC_MspInitCallback(htim);
 683:Drivers/STM32F7xx_HAL_Driver/Src/stm32f7xx_hal_tim.c **** #else
 684:Drivers/STM32F7xx_HAL_Driver/Src/stm32f7xx_hal_tim.c ****     /* Init the low level hardware : GPIO, CLOCK, NVIC and DMA */
 685:Drivers/STM32F7xx_HAL_Driver/Src/stm32f7xx_hal_tim.c ****     HAL_TIM_OC_MspInit(htim);
 1184              		.loc 1 685 5
 1185 0026 7868     		ldr	r0, [r7, #4]
 1186 0028 FFF7FEFF 		bl	HAL_TIM_OC_MspInit
 1187              	.L58:
 686:Drivers/STM32F7xx_HAL_Driver/Src/stm32f7xx_hal_tim.c **** #endif /* USE_HAL_TIM_REGISTER_CALLBACKS */
 687:Drivers/STM32F7xx_HAL_Driver/Src/stm32f7xx_hal_tim.c ****   }
 688:Drivers/STM32F7xx_HAL_Driver/Src/stm32f7xx_hal_tim.c **** 
 689:Drivers/STM32F7xx_HAL_Driver/Src/stm32f7xx_hal_tim.c ****   /* Set the TIM state */
 690:Drivers/STM32F7xx_HAL_Driver/Src/stm32f7xx_hal_tim.c ****   htim->State = HAL_TIM_STATE_BUSY;
 1188              		.loc 1 690 15
 1189 002c 7B68     		ldr	r3, [r7, #4]
 1190 002e 0222     		movs	r2, #2
 1191 0030 83F83D20 		strb	r2, [r3, #61]
 691:Drivers/STM32F7xx_HAL_Driver/Src/stm32f7xx_hal_tim.c **** 
 692:Drivers/STM32F7xx_HAL_Driver/Src/stm32f7xx_hal_tim.c ****   /* Init the base time for the Output Compare */
 693:Drivers/STM32F7xx_HAL_Driver/Src/stm32f7xx_hal_tim.c ****   TIM_Base_SetConfig(htim->Instance,  &htim->Init);
 1192              		.loc 1 693 3
 1193 0034 7B68     		ldr	r3, [r7, #4]
 1194 0036 1A68     		ldr	r2, [r3]
 1195              		.loc 1 693 39
 1196 0038 7B68     		ldr	r3, [r7, #4]
 1197 003a 0433     		adds	r3, r3, #4
 1198              		.loc 1 693 3
 1199 003c 1946     		mov	r1, r3
 1200 003e 1046     		mov	r0, r2
 1201 0040 FFF7FEFF 		bl	TIM_Base_SetConfig
 694:Drivers/STM32F7xx_HAL_Driver/Src/stm32f7xx_hal_tim.c **** 
ARM GAS  C:\Users\jisu8\AppData\Local\Temp\cckFtxsR.s 			page 34


 695:Drivers/STM32F7xx_HAL_Driver/Src/stm32f7xx_hal_tim.c ****   /* Initialize the DMA burst operation state */
 696:Drivers/STM32F7xx_HAL_Driver/Src/stm32f7xx_hal_tim.c ****   htim->DMABurstState = HAL_DMA_BURST_STATE_READY;
 1202              		.loc 1 696 23
 1203 0044 7B68     		ldr	r3, [r7, #4]
 1204 0046 0122     		movs	r2, #1
 1205 0048 83F84820 		strb	r2, [r3, #72]
 697:Drivers/STM32F7xx_HAL_Driver/Src/stm32f7xx_hal_tim.c **** 
 698:Drivers/STM32F7xx_HAL_Driver/Src/stm32f7xx_hal_tim.c ****   /* Initialize the TIM channels state */
 699:Drivers/STM32F7xx_HAL_Driver/Src/stm32f7xx_hal_tim.c ****   TIM_CHANNEL_STATE_SET_ALL(htim, HAL_TIM_CHANNEL_STATE_READY);
 1206              		.loc 1 699 3
 1207 004c 7B68     		ldr	r3, [r7, #4]
 1208 004e 0122     		movs	r2, #1
 1209 0050 83F83E20 		strb	r2, [r3, #62]
 1210 0054 7B68     		ldr	r3, [r7, #4]
 1211 0056 0122     		movs	r2, #1
 1212 0058 83F83F20 		strb	r2, [r3, #63]
 1213 005c 7B68     		ldr	r3, [r7, #4]
 1214 005e 0122     		movs	r2, #1
 1215 0060 83F84020 		strb	r2, [r3, #64]
 1216 0064 7B68     		ldr	r3, [r7, #4]
 1217 0066 0122     		movs	r2, #1
 1218 0068 83F84120 		strb	r2, [r3, #65]
 1219 006c 7B68     		ldr	r3, [r7, #4]
 1220 006e 0122     		movs	r2, #1
 1221 0070 83F84220 		strb	r2, [r3, #66]
 1222 0074 7B68     		ldr	r3, [r7, #4]
 1223 0076 0122     		movs	r2, #1
 1224 0078 83F84320 		strb	r2, [r3, #67]
 700:Drivers/STM32F7xx_HAL_Driver/Src/stm32f7xx_hal_tim.c ****   TIM_CHANNEL_N_STATE_SET_ALL(htim, HAL_TIM_CHANNEL_STATE_READY);
 1225              		.loc 1 700 3
 1226 007c 7B68     		ldr	r3, [r7, #4]
 1227 007e 0122     		movs	r2, #1
 1228 0080 83F84420 		strb	r2, [r3, #68]
 1229 0084 7B68     		ldr	r3, [r7, #4]
 1230 0086 0122     		movs	r2, #1
 1231 0088 83F84520 		strb	r2, [r3, #69]
 1232 008c 7B68     		ldr	r3, [r7, #4]
 1233 008e 0122     		movs	r2, #1
 1234 0090 83F84620 		strb	r2, [r3, #70]
 1235 0094 7B68     		ldr	r3, [r7, #4]
 1236 0096 0122     		movs	r2, #1
 1237 0098 83F84720 		strb	r2, [r3, #71]
 701:Drivers/STM32F7xx_HAL_Driver/Src/stm32f7xx_hal_tim.c **** 
 702:Drivers/STM32F7xx_HAL_Driver/Src/stm32f7xx_hal_tim.c ****   /* Initialize the TIM state*/
 703:Drivers/STM32F7xx_HAL_Driver/Src/stm32f7xx_hal_tim.c ****   htim->State = HAL_TIM_STATE_READY;
 1238              		.loc 1 703 15
 1239 009c 7B68     		ldr	r3, [r7, #4]
 1240 009e 0122     		movs	r2, #1
 1241 00a0 83F83D20 		strb	r2, [r3, #61]
 704:Drivers/STM32F7xx_HAL_Driver/Src/stm32f7xx_hal_tim.c **** 
 705:Drivers/STM32F7xx_HAL_Driver/Src/stm32f7xx_hal_tim.c ****   return HAL_OK;
 1242              		.loc 1 705 10
 1243 00a4 0023     		movs	r3, #0
 1244              	.L57:
 706:Drivers/STM32F7xx_HAL_Driver/Src/stm32f7xx_hal_tim.c **** }
 1245              		.loc 1 706 1
 1246 00a6 1846     		mov	r0, r3
ARM GAS  C:\Users\jisu8\AppData\Local\Temp\cckFtxsR.s 			page 35


 1247 00a8 0837     		adds	r7, r7, #8
 1248              	.LCFI59:
 1249              		.cfi_def_cfa_offset 8
 1250 00aa BD46     		mov	sp, r7
 1251              	.LCFI60:
 1252              		.cfi_def_cfa_register 13
 1253              		@ sp needed
 1254 00ac 80BD     		pop	{r7, pc}
 1255              		.cfi_endproc
 1256              	.LFE151:
 1258              		.section	.text.HAL_TIM_OC_DeInit,"ax",%progbits
 1259              		.align	1
 1260              		.global	HAL_TIM_OC_DeInit
 1261              		.syntax unified
 1262              		.thumb
 1263              		.thumb_func
 1265              	HAL_TIM_OC_DeInit:
 1266              	.LFB152:
 707:Drivers/STM32F7xx_HAL_Driver/Src/stm32f7xx_hal_tim.c **** 
 708:Drivers/STM32F7xx_HAL_Driver/Src/stm32f7xx_hal_tim.c **** /**
 709:Drivers/STM32F7xx_HAL_Driver/Src/stm32f7xx_hal_tim.c ****   * @brief  DeInitializes the TIM peripheral
 710:Drivers/STM32F7xx_HAL_Driver/Src/stm32f7xx_hal_tim.c ****   * @param  htim TIM Output Compare handle
 711:Drivers/STM32F7xx_HAL_Driver/Src/stm32f7xx_hal_tim.c ****   * @retval HAL status
 712:Drivers/STM32F7xx_HAL_Driver/Src/stm32f7xx_hal_tim.c ****   */
 713:Drivers/STM32F7xx_HAL_Driver/Src/stm32f7xx_hal_tim.c **** HAL_StatusTypeDef HAL_TIM_OC_DeInit(TIM_HandleTypeDef *htim)
 714:Drivers/STM32F7xx_HAL_Driver/Src/stm32f7xx_hal_tim.c **** {
 1267              		.loc 1 714 1
 1268              		.cfi_startproc
 1269              		@ args = 0, pretend = 0, frame = 8
 1270              		@ frame_needed = 1, uses_anonymous_args = 0
 1271 0000 80B5     		push	{r7, lr}
 1272              	.LCFI61:
 1273              		.cfi_def_cfa_offset 8
 1274              		.cfi_offset 7, -8
 1275              		.cfi_offset 14, -4
 1276 0002 82B0     		sub	sp, sp, #8
 1277              	.LCFI62:
 1278              		.cfi_def_cfa_offset 16
 1279 0004 00AF     		add	r7, sp, #0
 1280              	.LCFI63:
 1281              		.cfi_def_cfa_register 7
 1282 0006 7860     		str	r0, [r7, #4]
 715:Drivers/STM32F7xx_HAL_Driver/Src/stm32f7xx_hal_tim.c ****   /* Check the parameters */
 716:Drivers/STM32F7xx_HAL_Driver/Src/stm32f7xx_hal_tim.c ****   assert_param(IS_TIM_INSTANCE(htim->Instance));
 717:Drivers/STM32F7xx_HAL_Driver/Src/stm32f7xx_hal_tim.c **** 
 718:Drivers/STM32F7xx_HAL_Driver/Src/stm32f7xx_hal_tim.c ****   htim->State = HAL_TIM_STATE_BUSY;
 1283              		.loc 1 718 15
 1284 0008 7B68     		ldr	r3, [r7, #4]
 1285 000a 0222     		movs	r2, #2
 1286 000c 83F83D20 		strb	r2, [r3, #61]
 719:Drivers/STM32F7xx_HAL_Driver/Src/stm32f7xx_hal_tim.c **** 
 720:Drivers/STM32F7xx_HAL_Driver/Src/stm32f7xx_hal_tim.c ****   /* Disable the TIM Peripheral Clock */
 721:Drivers/STM32F7xx_HAL_Driver/Src/stm32f7xx_hal_tim.c ****   __HAL_TIM_DISABLE(htim);
 1287              		.loc 1 721 3
 1288 0010 7B68     		ldr	r3, [r7, #4]
 1289 0012 1B68     		ldr	r3, [r3]
 1290 0014 1A6A     		ldr	r2, [r3, #32]
ARM GAS  C:\Users\jisu8\AppData\Local\Temp\cckFtxsR.s 			page 36


 1291 0016 41F21113 		movw	r3, #4369
 1292 001a 1340     		ands	r3, r3, r2
 1293 001c 002B     		cmp	r3, #0
 1294 001e 0FD1     		bne	.L60
 1295              		.loc 1 721 3 is_stmt 0 discriminator 1
 1296 0020 7B68     		ldr	r3, [r7, #4]
 1297 0022 1B68     		ldr	r3, [r3]
 1298 0024 1A6A     		ldr	r2, [r3, #32]
 1299 0026 40F24443 		movw	r3, #1092
 1300 002a 1340     		ands	r3, r3, r2
 1301 002c 002B     		cmp	r3, #0
 1302 002e 07D1     		bne	.L60
 1303              		.loc 1 721 3 discriminator 2
 1304 0030 7B68     		ldr	r3, [r7, #4]
 1305 0032 1B68     		ldr	r3, [r3]
 1306 0034 1A68     		ldr	r2, [r3]
 1307 0036 7B68     		ldr	r3, [r7, #4]
 1308 0038 1B68     		ldr	r3, [r3]
 1309 003a 22F00102 		bic	r2, r2, #1
 1310 003e 1A60     		str	r2, [r3]
 1311              	.L60:
 722:Drivers/STM32F7xx_HAL_Driver/Src/stm32f7xx_hal_tim.c **** 
 723:Drivers/STM32F7xx_HAL_Driver/Src/stm32f7xx_hal_tim.c **** #if (USE_HAL_TIM_REGISTER_CALLBACKS == 1)
 724:Drivers/STM32F7xx_HAL_Driver/Src/stm32f7xx_hal_tim.c ****   if (htim->OC_MspDeInitCallback == NULL)
 725:Drivers/STM32F7xx_HAL_Driver/Src/stm32f7xx_hal_tim.c ****   {
 726:Drivers/STM32F7xx_HAL_Driver/Src/stm32f7xx_hal_tim.c ****     htim->OC_MspDeInitCallback = HAL_TIM_OC_MspDeInit;
 727:Drivers/STM32F7xx_HAL_Driver/Src/stm32f7xx_hal_tim.c ****   }
 728:Drivers/STM32F7xx_HAL_Driver/Src/stm32f7xx_hal_tim.c ****   /* DeInit the low level hardware */
 729:Drivers/STM32F7xx_HAL_Driver/Src/stm32f7xx_hal_tim.c ****   htim->OC_MspDeInitCallback(htim);
 730:Drivers/STM32F7xx_HAL_Driver/Src/stm32f7xx_hal_tim.c **** #else
 731:Drivers/STM32F7xx_HAL_Driver/Src/stm32f7xx_hal_tim.c ****   /* DeInit the low level hardware: GPIO, CLOCK, NVIC and DMA */
 732:Drivers/STM32F7xx_HAL_Driver/Src/stm32f7xx_hal_tim.c ****   HAL_TIM_OC_MspDeInit(htim);
 1312              		.loc 1 732 3 is_stmt 1
 1313 0040 7868     		ldr	r0, [r7, #4]
 1314 0042 FFF7FEFF 		bl	HAL_TIM_OC_MspDeInit
 733:Drivers/STM32F7xx_HAL_Driver/Src/stm32f7xx_hal_tim.c **** #endif /* USE_HAL_TIM_REGISTER_CALLBACKS */
 734:Drivers/STM32F7xx_HAL_Driver/Src/stm32f7xx_hal_tim.c **** 
 735:Drivers/STM32F7xx_HAL_Driver/Src/stm32f7xx_hal_tim.c ****   /* Change the DMA burst operation state */
 736:Drivers/STM32F7xx_HAL_Driver/Src/stm32f7xx_hal_tim.c ****   htim->DMABurstState = HAL_DMA_BURST_STATE_RESET;
 1315              		.loc 1 736 23
 1316 0046 7B68     		ldr	r3, [r7, #4]
 1317 0048 0022     		movs	r2, #0
 1318 004a 83F84820 		strb	r2, [r3, #72]
 737:Drivers/STM32F7xx_HAL_Driver/Src/stm32f7xx_hal_tim.c **** 
 738:Drivers/STM32F7xx_HAL_Driver/Src/stm32f7xx_hal_tim.c ****   /* Change the TIM channels state */
 739:Drivers/STM32F7xx_HAL_Driver/Src/stm32f7xx_hal_tim.c ****   TIM_CHANNEL_STATE_SET_ALL(htim, HAL_TIM_CHANNEL_STATE_RESET);
 1319              		.loc 1 739 3
 1320 004e 7B68     		ldr	r3, [r7, #4]
 1321 0050 0022     		movs	r2, #0
 1322 0052 83F83E20 		strb	r2, [r3, #62]
 1323 0056 7B68     		ldr	r3, [r7, #4]
 1324 0058 0022     		movs	r2, #0
 1325 005a 83F83F20 		strb	r2, [r3, #63]
 1326 005e 7B68     		ldr	r3, [r7, #4]
 1327 0060 0022     		movs	r2, #0
 1328 0062 83F84020 		strb	r2, [r3, #64]
 1329 0066 7B68     		ldr	r3, [r7, #4]
ARM GAS  C:\Users\jisu8\AppData\Local\Temp\cckFtxsR.s 			page 37


 1330 0068 0022     		movs	r2, #0
 1331 006a 83F84120 		strb	r2, [r3, #65]
 1332 006e 7B68     		ldr	r3, [r7, #4]
 1333 0070 0022     		movs	r2, #0
 1334 0072 83F84220 		strb	r2, [r3, #66]
 1335 0076 7B68     		ldr	r3, [r7, #4]
 1336 0078 0022     		movs	r2, #0
 1337 007a 83F84320 		strb	r2, [r3, #67]
 740:Drivers/STM32F7xx_HAL_Driver/Src/stm32f7xx_hal_tim.c ****   TIM_CHANNEL_N_STATE_SET_ALL(htim, HAL_TIM_CHANNEL_STATE_RESET);
 1338              		.loc 1 740 3
 1339 007e 7B68     		ldr	r3, [r7, #4]
 1340 0080 0022     		movs	r2, #0
 1341 0082 83F84420 		strb	r2, [r3, #68]
 1342 0086 7B68     		ldr	r3, [r7, #4]
 1343 0088 0022     		movs	r2, #0
 1344 008a 83F84520 		strb	r2, [r3, #69]
 1345 008e 7B68     		ldr	r3, [r7, #4]
 1346 0090 0022     		movs	r2, #0
 1347 0092 83F84620 		strb	r2, [r3, #70]
 1348 0096 7B68     		ldr	r3, [r7, #4]
 1349 0098 0022     		movs	r2, #0
 1350 009a 83F84720 		strb	r2, [r3, #71]
 741:Drivers/STM32F7xx_HAL_Driver/Src/stm32f7xx_hal_tim.c **** 
 742:Drivers/STM32F7xx_HAL_Driver/Src/stm32f7xx_hal_tim.c ****   /* Change TIM state */
 743:Drivers/STM32F7xx_HAL_Driver/Src/stm32f7xx_hal_tim.c ****   htim->State = HAL_TIM_STATE_RESET;
 1351              		.loc 1 743 15
 1352 009e 7B68     		ldr	r3, [r7, #4]
 1353 00a0 0022     		movs	r2, #0
 1354 00a2 83F83D20 		strb	r2, [r3, #61]
 744:Drivers/STM32F7xx_HAL_Driver/Src/stm32f7xx_hal_tim.c **** 
 745:Drivers/STM32F7xx_HAL_Driver/Src/stm32f7xx_hal_tim.c ****   /* Release Lock */
 746:Drivers/STM32F7xx_HAL_Driver/Src/stm32f7xx_hal_tim.c ****   __HAL_UNLOCK(htim);
 1355              		.loc 1 746 3
 1356 00a6 7B68     		ldr	r3, [r7, #4]
 1357 00a8 0022     		movs	r2, #0
 1358 00aa 83F83C20 		strb	r2, [r3, #60]
 747:Drivers/STM32F7xx_HAL_Driver/Src/stm32f7xx_hal_tim.c **** 
 748:Drivers/STM32F7xx_HAL_Driver/Src/stm32f7xx_hal_tim.c ****   return HAL_OK;
 1359              		.loc 1 748 10
 1360 00ae 0023     		movs	r3, #0
 749:Drivers/STM32F7xx_HAL_Driver/Src/stm32f7xx_hal_tim.c **** }
 1361              		.loc 1 749 1
 1362 00b0 1846     		mov	r0, r3
 1363 00b2 0837     		adds	r7, r7, #8
 1364              	.LCFI64:
 1365              		.cfi_def_cfa_offset 8
 1366 00b4 BD46     		mov	sp, r7
 1367              	.LCFI65:
 1368              		.cfi_def_cfa_register 13
 1369              		@ sp needed
 1370 00b6 80BD     		pop	{r7, pc}
 1371              		.cfi_endproc
 1372              	.LFE152:
 1374              		.section	.text.HAL_TIM_OC_MspInit,"ax",%progbits
 1375              		.align	1
 1376              		.weak	HAL_TIM_OC_MspInit
 1377              		.syntax unified
ARM GAS  C:\Users\jisu8\AppData\Local\Temp\cckFtxsR.s 			page 38


 1378              		.thumb
 1379              		.thumb_func
 1381              	HAL_TIM_OC_MspInit:
 1382              	.LFB153:
 750:Drivers/STM32F7xx_HAL_Driver/Src/stm32f7xx_hal_tim.c **** 
 751:Drivers/STM32F7xx_HAL_Driver/Src/stm32f7xx_hal_tim.c **** /**
 752:Drivers/STM32F7xx_HAL_Driver/Src/stm32f7xx_hal_tim.c ****   * @brief  Initializes the TIM Output Compare MSP.
 753:Drivers/STM32F7xx_HAL_Driver/Src/stm32f7xx_hal_tim.c ****   * @param  htim TIM Output Compare handle
 754:Drivers/STM32F7xx_HAL_Driver/Src/stm32f7xx_hal_tim.c ****   * @retval None
 755:Drivers/STM32F7xx_HAL_Driver/Src/stm32f7xx_hal_tim.c ****   */
 756:Drivers/STM32F7xx_HAL_Driver/Src/stm32f7xx_hal_tim.c **** __weak void HAL_TIM_OC_MspInit(TIM_HandleTypeDef *htim)
 757:Drivers/STM32F7xx_HAL_Driver/Src/stm32f7xx_hal_tim.c **** {
 1383              		.loc 1 757 1
 1384              		.cfi_startproc
 1385              		@ args = 0, pretend = 0, frame = 8
 1386              		@ frame_needed = 1, uses_anonymous_args = 0
 1387              		@ link register save eliminated.
 1388 0000 80B4     		push	{r7}
 1389              	.LCFI66:
 1390              		.cfi_def_cfa_offset 4
 1391              		.cfi_offset 7, -4
 1392 0002 83B0     		sub	sp, sp, #12
 1393              	.LCFI67:
 1394              		.cfi_def_cfa_offset 16
 1395 0004 00AF     		add	r7, sp, #0
 1396              	.LCFI68:
 1397              		.cfi_def_cfa_register 7
 1398 0006 7860     		str	r0, [r7, #4]
 758:Drivers/STM32F7xx_HAL_Driver/Src/stm32f7xx_hal_tim.c ****   /* Prevent unused argument(s) compilation warning */
 759:Drivers/STM32F7xx_HAL_Driver/Src/stm32f7xx_hal_tim.c ****   UNUSED(htim);
 760:Drivers/STM32F7xx_HAL_Driver/Src/stm32f7xx_hal_tim.c **** 
 761:Drivers/STM32F7xx_HAL_Driver/Src/stm32f7xx_hal_tim.c ****   /* NOTE : This function should not be modified, when the callback is needed,
 762:Drivers/STM32F7xx_HAL_Driver/Src/stm32f7xx_hal_tim.c ****             the HAL_TIM_OC_MspInit could be implemented in the user file
 763:Drivers/STM32F7xx_HAL_Driver/Src/stm32f7xx_hal_tim.c ****    */
 764:Drivers/STM32F7xx_HAL_Driver/Src/stm32f7xx_hal_tim.c **** }
 1399              		.loc 1 764 1
 1400 0008 00BF     		nop
 1401 000a 0C37     		adds	r7, r7, #12
 1402              	.LCFI69:
 1403              		.cfi_def_cfa_offset 4
 1404 000c BD46     		mov	sp, r7
 1405              	.LCFI70:
 1406              		.cfi_def_cfa_register 13
 1407              		@ sp needed
 1408 000e 5DF8047B 		ldr	r7, [sp], #4
 1409              	.LCFI71:
 1410              		.cfi_restore 7
 1411              		.cfi_def_cfa_offset 0
 1412 0012 7047     		bx	lr
 1413              		.cfi_endproc
 1414              	.LFE153:
 1416              		.section	.text.HAL_TIM_OC_MspDeInit,"ax",%progbits
 1417              		.align	1
 1418              		.weak	HAL_TIM_OC_MspDeInit
 1419              		.syntax unified
 1420              		.thumb
 1421              		.thumb_func
ARM GAS  C:\Users\jisu8\AppData\Local\Temp\cckFtxsR.s 			page 39


 1423              	HAL_TIM_OC_MspDeInit:
 1424              	.LFB154:
 765:Drivers/STM32F7xx_HAL_Driver/Src/stm32f7xx_hal_tim.c **** 
 766:Drivers/STM32F7xx_HAL_Driver/Src/stm32f7xx_hal_tim.c **** /**
 767:Drivers/STM32F7xx_HAL_Driver/Src/stm32f7xx_hal_tim.c ****   * @brief  DeInitializes TIM Output Compare MSP.
 768:Drivers/STM32F7xx_HAL_Driver/Src/stm32f7xx_hal_tim.c ****   * @param  htim TIM Output Compare handle
 769:Drivers/STM32F7xx_HAL_Driver/Src/stm32f7xx_hal_tim.c ****   * @retval None
 770:Drivers/STM32F7xx_HAL_Driver/Src/stm32f7xx_hal_tim.c ****   */
 771:Drivers/STM32F7xx_HAL_Driver/Src/stm32f7xx_hal_tim.c **** __weak void HAL_TIM_OC_MspDeInit(TIM_HandleTypeDef *htim)
 772:Drivers/STM32F7xx_HAL_Driver/Src/stm32f7xx_hal_tim.c **** {
 1425              		.loc 1 772 1
 1426              		.cfi_startproc
 1427              		@ args = 0, pretend = 0, frame = 8
 1428              		@ frame_needed = 1, uses_anonymous_args = 0
 1429              		@ link register save eliminated.
 1430 0000 80B4     		push	{r7}
 1431              	.LCFI72:
 1432              		.cfi_def_cfa_offset 4
 1433              		.cfi_offset 7, -4
 1434 0002 83B0     		sub	sp, sp, #12
 1435              	.LCFI73:
 1436              		.cfi_def_cfa_offset 16
 1437 0004 00AF     		add	r7, sp, #0
 1438              	.LCFI74:
 1439              		.cfi_def_cfa_register 7
 1440 0006 7860     		str	r0, [r7, #4]
 773:Drivers/STM32F7xx_HAL_Driver/Src/stm32f7xx_hal_tim.c ****   /* Prevent unused argument(s) compilation warning */
 774:Drivers/STM32F7xx_HAL_Driver/Src/stm32f7xx_hal_tim.c ****   UNUSED(htim);
 775:Drivers/STM32F7xx_HAL_Driver/Src/stm32f7xx_hal_tim.c **** 
 776:Drivers/STM32F7xx_HAL_Driver/Src/stm32f7xx_hal_tim.c ****   /* NOTE : This function should not be modified, when the callback is needed,
 777:Drivers/STM32F7xx_HAL_Driver/Src/stm32f7xx_hal_tim.c ****             the HAL_TIM_OC_MspDeInit could be implemented in the user file
 778:Drivers/STM32F7xx_HAL_Driver/Src/stm32f7xx_hal_tim.c ****    */
 779:Drivers/STM32F7xx_HAL_Driver/Src/stm32f7xx_hal_tim.c **** }
 1441              		.loc 1 779 1
 1442 0008 00BF     		nop
 1443 000a 0C37     		adds	r7, r7, #12
 1444              	.LCFI75:
 1445              		.cfi_def_cfa_offset 4
 1446 000c BD46     		mov	sp, r7
 1447              	.LCFI76:
 1448              		.cfi_def_cfa_register 13
 1449              		@ sp needed
 1450 000e 5DF8047B 		ldr	r7, [sp], #4
 1451              	.LCFI77:
 1452              		.cfi_restore 7
 1453              		.cfi_def_cfa_offset 0
 1454 0012 7047     		bx	lr
 1455              		.cfi_endproc
 1456              	.LFE154:
 1458              		.section	.text.HAL_TIM_OC_Start,"ax",%progbits
 1459              		.align	1
 1460              		.global	HAL_TIM_OC_Start
 1461              		.syntax unified
 1462              		.thumb
 1463              		.thumb_func
 1465              	HAL_TIM_OC_Start:
 1466              	.LFB155:
ARM GAS  C:\Users\jisu8\AppData\Local\Temp\cckFtxsR.s 			page 40


 780:Drivers/STM32F7xx_HAL_Driver/Src/stm32f7xx_hal_tim.c **** 
 781:Drivers/STM32F7xx_HAL_Driver/Src/stm32f7xx_hal_tim.c **** /**
 782:Drivers/STM32F7xx_HAL_Driver/Src/stm32f7xx_hal_tim.c ****   * @brief  Starts the TIM Output Compare signal generation.
 783:Drivers/STM32F7xx_HAL_Driver/Src/stm32f7xx_hal_tim.c ****   * @param  htim TIM Output Compare handle
 784:Drivers/STM32F7xx_HAL_Driver/Src/stm32f7xx_hal_tim.c ****   * @param  Channel TIM Channel to be enabled
 785:Drivers/STM32F7xx_HAL_Driver/Src/stm32f7xx_hal_tim.c ****   *          This parameter can be one of the following values:
 786:Drivers/STM32F7xx_HAL_Driver/Src/stm32f7xx_hal_tim.c ****   *            @arg TIM_CHANNEL_1: TIM Channel 1 selected
 787:Drivers/STM32F7xx_HAL_Driver/Src/stm32f7xx_hal_tim.c ****   *            @arg TIM_CHANNEL_2: TIM Channel 2 selected
 788:Drivers/STM32F7xx_HAL_Driver/Src/stm32f7xx_hal_tim.c ****   *            @arg TIM_CHANNEL_3: TIM Channel 3 selected
 789:Drivers/STM32F7xx_HAL_Driver/Src/stm32f7xx_hal_tim.c ****   *            @arg TIM_CHANNEL_4: TIM Channel 4 selected
 790:Drivers/STM32F7xx_HAL_Driver/Src/stm32f7xx_hal_tim.c ****   *            @arg TIM_CHANNEL_5: TIM Channel 5 selected
 791:Drivers/STM32F7xx_HAL_Driver/Src/stm32f7xx_hal_tim.c ****   *            @arg TIM_CHANNEL_6: TIM Channel 6 selected
 792:Drivers/STM32F7xx_HAL_Driver/Src/stm32f7xx_hal_tim.c ****   * @retval HAL status
 793:Drivers/STM32F7xx_HAL_Driver/Src/stm32f7xx_hal_tim.c ****   */
 794:Drivers/STM32F7xx_HAL_Driver/Src/stm32f7xx_hal_tim.c **** HAL_StatusTypeDef HAL_TIM_OC_Start(TIM_HandleTypeDef *htim, uint32_t Channel)
 795:Drivers/STM32F7xx_HAL_Driver/Src/stm32f7xx_hal_tim.c **** {
 1467              		.loc 1 795 1
 1468              		.cfi_startproc
 1469              		@ args = 0, pretend = 0, frame = 16
 1470              		@ frame_needed = 1, uses_anonymous_args = 0
 1471 0000 80B5     		push	{r7, lr}
 1472              	.LCFI78:
 1473              		.cfi_def_cfa_offset 8
 1474              		.cfi_offset 7, -8
 1475              		.cfi_offset 14, -4
 1476 0002 84B0     		sub	sp, sp, #16
 1477              	.LCFI79:
 1478              		.cfi_def_cfa_offset 24
 1479 0004 00AF     		add	r7, sp, #0
 1480              	.LCFI80:
 1481              		.cfi_def_cfa_register 7
 1482 0006 7860     		str	r0, [r7, #4]
 1483 0008 3960     		str	r1, [r7]
 796:Drivers/STM32F7xx_HAL_Driver/Src/stm32f7xx_hal_tim.c ****   uint32_t tmpsmcr;
 797:Drivers/STM32F7xx_HAL_Driver/Src/stm32f7xx_hal_tim.c **** 
 798:Drivers/STM32F7xx_HAL_Driver/Src/stm32f7xx_hal_tim.c ****   /* Check the parameters */
 799:Drivers/STM32F7xx_HAL_Driver/Src/stm32f7xx_hal_tim.c ****   assert_param(IS_TIM_CCX_INSTANCE(htim->Instance, Channel));
 800:Drivers/STM32F7xx_HAL_Driver/Src/stm32f7xx_hal_tim.c **** 
 801:Drivers/STM32F7xx_HAL_Driver/Src/stm32f7xx_hal_tim.c ****   /* Check the TIM channel state */
 802:Drivers/STM32F7xx_HAL_Driver/Src/stm32f7xx_hal_tim.c ****   if (TIM_CHANNEL_STATE_GET(htim, Channel) != HAL_TIM_CHANNEL_STATE_READY)
 1484              		.loc 1 802 44
 1485 000a 3B68     		ldr	r3, [r7]
 1486 000c 002B     		cmp	r3, #0
 1487 000e 09D1     		bne	.L65
 1488              		.loc 1 802 7 discriminator 1
 1489 0010 7B68     		ldr	r3, [r7, #4]
 1490 0012 93F83E30 		ldrb	r3, [r3, #62]
 1491 0016 DBB2     		uxtb	r3, r3
 1492              		.loc 1 802 44 discriminator 1
 1493 0018 012B     		cmp	r3, #1
 1494 001a 14BF     		ite	ne
 1495 001c 0123     		movne	r3, #1
 1496 001e 0023     		moveq	r3, #0
 1497 0020 DBB2     		uxtb	r3, r3
 1498 0022 3CE0     		b	.L66
 1499              	.L65:
 1500              		.loc 1 802 44 is_stmt 0 discriminator 2
ARM GAS  C:\Users\jisu8\AppData\Local\Temp\cckFtxsR.s 			page 41


 1501 0024 3B68     		ldr	r3, [r7]
 1502 0026 042B     		cmp	r3, #4
 1503 0028 09D1     		bne	.L67
 1504              		.loc 1 802 7 is_stmt 1 discriminator 4
 1505 002a 7B68     		ldr	r3, [r7, #4]
 1506 002c 93F83F30 		ldrb	r3, [r3, #63]
 1507 0030 DBB2     		uxtb	r3, r3
 1508              		.loc 1 802 44 discriminator 4
 1509 0032 012B     		cmp	r3, #1
 1510 0034 14BF     		ite	ne
 1511 0036 0123     		movne	r3, #1
 1512 0038 0023     		moveq	r3, #0
 1513 003a DBB2     		uxtb	r3, r3
 1514 003c 2FE0     		b	.L66
 1515              	.L67:
 1516              		.loc 1 802 44 is_stmt 0 discriminator 5
 1517 003e 3B68     		ldr	r3, [r7]
 1518 0040 082B     		cmp	r3, #8
 1519 0042 09D1     		bne	.L69
 1520              		.loc 1 802 7 is_stmt 1 discriminator 7
 1521 0044 7B68     		ldr	r3, [r7, #4]
 1522 0046 93F84030 		ldrb	r3, [r3, #64]
 1523 004a DBB2     		uxtb	r3, r3
 1524              		.loc 1 802 44 discriminator 7
 1525 004c 012B     		cmp	r3, #1
 1526 004e 14BF     		ite	ne
 1527 0050 0123     		movne	r3, #1
 1528 0052 0023     		moveq	r3, #0
 1529 0054 DBB2     		uxtb	r3, r3
 1530 0056 22E0     		b	.L66
 1531              	.L69:
 1532              		.loc 1 802 44 is_stmt 0 discriminator 8
 1533 0058 3B68     		ldr	r3, [r7]
 1534 005a 0C2B     		cmp	r3, #12
 1535 005c 09D1     		bne	.L71
 1536              		.loc 1 802 7 is_stmt 1 discriminator 10
 1537 005e 7B68     		ldr	r3, [r7, #4]
 1538 0060 93F84130 		ldrb	r3, [r3, #65]
 1539 0064 DBB2     		uxtb	r3, r3
 1540              		.loc 1 802 44 discriminator 10
 1541 0066 012B     		cmp	r3, #1
 1542 0068 14BF     		ite	ne
 1543 006a 0123     		movne	r3, #1
 1544 006c 0023     		moveq	r3, #0
 1545 006e DBB2     		uxtb	r3, r3
 1546 0070 15E0     		b	.L66
 1547              	.L71:
 1548              		.loc 1 802 44 is_stmt 0 discriminator 11
 1549 0072 3B68     		ldr	r3, [r7]
 1550 0074 102B     		cmp	r3, #16
 1551 0076 09D1     		bne	.L73
 1552              		.loc 1 802 7 is_stmt 1 discriminator 13
 1553 0078 7B68     		ldr	r3, [r7, #4]
 1554 007a 93F84230 		ldrb	r3, [r3, #66]
 1555 007e DBB2     		uxtb	r3, r3
 1556              		.loc 1 802 44 discriminator 13
 1557 0080 012B     		cmp	r3, #1
ARM GAS  C:\Users\jisu8\AppData\Local\Temp\cckFtxsR.s 			page 42


 1558 0082 14BF     		ite	ne
 1559 0084 0123     		movne	r3, #1
 1560 0086 0023     		moveq	r3, #0
 1561 0088 DBB2     		uxtb	r3, r3
 1562 008a 08E0     		b	.L66
 1563              	.L73:
 1564              		.loc 1 802 7 discriminator 14
 1565 008c 7B68     		ldr	r3, [r7, #4]
 1566 008e 93F84330 		ldrb	r3, [r3, #67]
 1567 0092 DBB2     		uxtb	r3, r3
 1568              		.loc 1 802 44 discriminator 14
 1569 0094 012B     		cmp	r3, #1
 1570 0096 14BF     		ite	ne
 1571 0098 0123     		movne	r3, #1
 1572 009a 0023     		moveq	r3, #0
 1573 009c DBB2     		uxtb	r3, r3
 1574              	.L66:
 1575              		.loc 1 802 6 discriminator 20
 1576 009e 002B     		cmp	r3, #0
 1577 00a0 01D0     		beq	.L75
 803:Drivers/STM32F7xx_HAL_Driver/Src/stm32f7xx_hal_tim.c ****   {
 804:Drivers/STM32F7xx_HAL_Driver/Src/stm32f7xx_hal_tim.c ****     return HAL_ERROR;
 1578              		.loc 1 804 12
 1579 00a2 0123     		movs	r3, #1
 1580 00a4 92E0     		b	.L76
 1581              	.L75:
 805:Drivers/STM32F7xx_HAL_Driver/Src/stm32f7xx_hal_tim.c ****   }
 806:Drivers/STM32F7xx_HAL_Driver/Src/stm32f7xx_hal_tim.c **** 
 807:Drivers/STM32F7xx_HAL_Driver/Src/stm32f7xx_hal_tim.c ****   /* Set the TIM channel state */
 808:Drivers/STM32F7xx_HAL_Driver/Src/stm32f7xx_hal_tim.c ****   TIM_CHANNEL_STATE_SET(htim, Channel, HAL_TIM_CHANNEL_STATE_BUSY);
 1582              		.loc 1 808 3
 1583 00a6 3B68     		ldr	r3, [r7]
 1584 00a8 002B     		cmp	r3, #0
 1585 00aa 04D1     		bne	.L77
 1586              		.loc 1 808 3 is_stmt 0 discriminator 1
 1587 00ac 7B68     		ldr	r3, [r7, #4]
 1588 00ae 0222     		movs	r2, #2
 1589 00b0 83F83E20 		strb	r2, [r3, #62]
 1590 00b4 23E0     		b	.L78
 1591              	.L77:
 1592              		.loc 1 808 3 discriminator 2
 1593 00b6 3B68     		ldr	r3, [r7]
 1594 00b8 042B     		cmp	r3, #4
 1595 00ba 04D1     		bne	.L79
 1596              		.loc 1 808 3 discriminator 3
 1597 00bc 7B68     		ldr	r3, [r7, #4]
 1598 00be 0222     		movs	r2, #2
 1599 00c0 83F83F20 		strb	r2, [r3, #63]
 1600 00c4 1BE0     		b	.L78
 1601              	.L79:
 1602              		.loc 1 808 3 discriminator 4
 1603 00c6 3B68     		ldr	r3, [r7]
 1604 00c8 082B     		cmp	r3, #8
 1605 00ca 04D1     		bne	.L81
 1606              		.loc 1 808 3 discriminator 6
 1607 00cc 7B68     		ldr	r3, [r7, #4]
 1608 00ce 0222     		movs	r2, #2
ARM GAS  C:\Users\jisu8\AppData\Local\Temp\cckFtxsR.s 			page 43


 1609 00d0 83F84020 		strb	r2, [r3, #64]
 1610 00d4 13E0     		b	.L78
 1611              	.L81:
 1612              		.loc 1 808 3 discriminator 7
 1613 00d6 3B68     		ldr	r3, [r7]
 1614 00d8 0C2B     		cmp	r3, #12
 1615 00da 04D1     		bne	.L83
 1616              		.loc 1 808 3 discriminator 9
 1617 00dc 7B68     		ldr	r3, [r7, #4]
 1618 00de 0222     		movs	r2, #2
 1619 00e0 83F84120 		strb	r2, [r3, #65]
 1620 00e4 0BE0     		b	.L78
 1621              	.L83:
 1622              		.loc 1 808 3 discriminator 10
 1623 00e6 3B68     		ldr	r3, [r7]
 1624 00e8 102B     		cmp	r3, #16
 1625 00ea 04D1     		bne	.L85
 1626              		.loc 1 808 3 discriminator 12
 1627 00ec 7B68     		ldr	r3, [r7, #4]
 1628 00ee 0222     		movs	r2, #2
 1629 00f0 83F84220 		strb	r2, [r3, #66]
 1630 00f4 03E0     		b	.L78
 1631              	.L85:
 1632              		.loc 1 808 3 discriminator 13
 1633 00f6 7B68     		ldr	r3, [r7, #4]
 1634 00f8 0222     		movs	r2, #2
 1635 00fa 83F84320 		strb	r2, [r3, #67]
 1636              	.L78:
 809:Drivers/STM32F7xx_HAL_Driver/Src/stm32f7xx_hal_tim.c **** 
 810:Drivers/STM32F7xx_HAL_Driver/Src/stm32f7xx_hal_tim.c ****   /* Enable the Output compare channel */
 811:Drivers/STM32F7xx_HAL_Driver/Src/stm32f7xx_hal_tim.c ****   TIM_CCxChannelCmd(htim->Instance, Channel, TIM_CCx_ENABLE);
 1637              		.loc 1 811 3 is_stmt 1
 1638 00fe 7B68     		ldr	r3, [r7, #4]
 1639 0100 1B68     		ldr	r3, [r3]
 1640 0102 0122     		movs	r2, #1
 1641 0104 3968     		ldr	r1, [r7]
 1642 0106 1846     		mov	r0, r3
 1643 0108 FFF7FEFF 		bl	TIM_CCxChannelCmd
 812:Drivers/STM32F7xx_HAL_Driver/Src/stm32f7xx_hal_tim.c **** 
 813:Drivers/STM32F7xx_HAL_Driver/Src/stm32f7xx_hal_tim.c ****   if (IS_TIM_BREAK_INSTANCE(htim->Instance) != RESET)
 1644              		.loc 1 813 7
 1645 010c 7B68     		ldr	r3, [r7, #4]
 1646 010e 1B68     		ldr	r3, [r3]
 1647 0110 304A     		ldr	r2, .L96
 1648 0112 9342     		cmp	r3, r2
 1649 0114 04D0     		beq	.L87
 1650              		.loc 1 813 7 is_stmt 0 discriminator 2
 1651 0116 7B68     		ldr	r3, [r7, #4]
 1652 0118 1B68     		ldr	r3, [r3]
 1653 011a 2F4A     		ldr	r2, .L96+4
 1654 011c 9342     		cmp	r3, r2
 1655 011e 01D1     		bne	.L88
 1656              	.L87:
 1657              		.loc 1 813 7 discriminator 3
 1658 0120 0123     		movs	r3, #1
 1659 0122 00E0     		b	.L89
 1660              	.L88:
ARM GAS  C:\Users\jisu8\AppData\Local\Temp\cckFtxsR.s 			page 44


 1661              		.loc 1 813 7 discriminator 4
 1662 0124 0023     		movs	r3, #0
 1663              	.L89:
 1664              		.loc 1 813 6 is_stmt 1 discriminator 6
 1665 0126 002B     		cmp	r3, #0
 1666 0128 07D0     		beq	.L90
 814:Drivers/STM32F7xx_HAL_Driver/Src/stm32f7xx_hal_tim.c ****   {
 815:Drivers/STM32F7xx_HAL_Driver/Src/stm32f7xx_hal_tim.c ****     /* Enable the main output */
 816:Drivers/STM32F7xx_HAL_Driver/Src/stm32f7xx_hal_tim.c ****     __HAL_TIM_MOE_ENABLE(htim);
 1667              		.loc 1 816 5
 1668 012a 7B68     		ldr	r3, [r7, #4]
 1669 012c 1B68     		ldr	r3, [r3]
 1670 012e 5A6C     		ldr	r2, [r3, #68]
 1671 0130 7B68     		ldr	r3, [r7, #4]
 1672 0132 1B68     		ldr	r3, [r3]
 1673 0134 42F40042 		orr	r2, r2, #32768
 1674 0138 5A64     		str	r2, [r3, #68]
 1675              	.L90:
 817:Drivers/STM32F7xx_HAL_Driver/Src/stm32f7xx_hal_tim.c ****   }
 818:Drivers/STM32F7xx_HAL_Driver/Src/stm32f7xx_hal_tim.c **** 
 819:Drivers/STM32F7xx_HAL_Driver/Src/stm32f7xx_hal_tim.c ****   /* Enable the Peripheral, except in trigger mode where enable is automatically done with trigger 
 820:Drivers/STM32F7xx_HAL_Driver/Src/stm32f7xx_hal_tim.c ****   if (IS_TIM_SLAVE_INSTANCE(htim->Instance))
 1676              		.loc 1 820 7
 1677 013a 7B68     		ldr	r3, [r7, #4]
 1678 013c 1B68     		ldr	r3, [r3]
 1679              		.loc 1 820 6
 1680 013e 254A     		ldr	r2, .L96
 1681 0140 9342     		cmp	r3, r2
 1682 0142 22D0     		beq	.L91
 1683              		.loc 1 820 7 discriminator 1
 1684 0144 7B68     		ldr	r3, [r7, #4]
 1685 0146 1B68     		ldr	r3, [r3]
 1686 0148 B3F1804F 		cmp	r3, #1073741824
 1687 014c 1DD0     		beq	.L91
 1688              		.loc 1 820 7 is_stmt 0 discriminator 2
 1689 014e 7B68     		ldr	r3, [r7, #4]
 1690 0150 1B68     		ldr	r3, [r3]
 1691 0152 224A     		ldr	r2, .L96+8
 1692 0154 9342     		cmp	r3, r2
 1693 0156 18D0     		beq	.L91
 1694              		.loc 1 820 7 discriminator 3
 1695 0158 7B68     		ldr	r3, [r7, #4]
 1696 015a 1B68     		ldr	r3, [r3]
 1697 015c 204A     		ldr	r2, .L96+12
 1698 015e 9342     		cmp	r3, r2
 1699 0160 13D0     		beq	.L91
 1700              		.loc 1 820 7 discriminator 4
 1701 0162 7B68     		ldr	r3, [r7, #4]
 1702 0164 1B68     		ldr	r3, [r3]
 1703 0166 1F4A     		ldr	r2, .L96+16
 1704 0168 9342     		cmp	r3, r2
 1705 016a 0ED0     		beq	.L91
 1706              		.loc 1 820 7 discriminator 5
 1707 016c 7B68     		ldr	r3, [r7, #4]
 1708 016e 1B68     		ldr	r3, [r3]
 1709 0170 194A     		ldr	r2, .L96+4
 1710 0172 9342     		cmp	r3, r2
ARM GAS  C:\Users\jisu8\AppData\Local\Temp\cckFtxsR.s 			page 45


 1711 0174 09D0     		beq	.L91
 1712              		.loc 1 820 7 discriminator 6
 1713 0176 7B68     		ldr	r3, [r7, #4]
 1714 0178 1B68     		ldr	r3, [r3]
 1715 017a 1B4A     		ldr	r2, .L96+20
 1716 017c 9342     		cmp	r3, r2
 1717 017e 04D0     		beq	.L91
 1718              		.loc 1 820 7 discriminator 7
 1719 0180 7B68     		ldr	r3, [r7, #4]
 1720 0182 1B68     		ldr	r3, [r3]
 1721 0184 194A     		ldr	r2, .L96+24
 1722 0186 9342     		cmp	r3, r2
 1723 0188 15D1     		bne	.L92
 1724              	.L91:
 821:Drivers/STM32F7xx_HAL_Driver/Src/stm32f7xx_hal_tim.c ****   {
 822:Drivers/STM32F7xx_HAL_Driver/Src/stm32f7xx_hal_tim.c ****     tmpsmcr = htim->Instance->SMCR & TIM_SMCR_SMS;
 1725              		.loc 1 822 19 is_stmt 1
 1726 018a 7B68     		ldr	r3, [r7, #4]
 1727 018c 1B68     		ldr	r3, [r3]
 1728              		.loc 1 822 29
 1729 018e 9A68     		ldr	r2, [r3, #8]
 1730              		.loc 1 822 13
 1731 0190 174B     		ldr	r3, .L96+28
 1732 0192 1340     		ands	r3, r3, r2
 1733 0194 FB60     		str	r3, [r7, #12]
 823:Drivers/STM32F7xx_HAL_Driver/Src/stm32f7xx_hal_tim.c ****     if (!IS_TIM_SLAVEMODE_TRIGGER_ENABLED(tmpsmcr))
 1734              		.loc 1 823 8
 1735 0196 FB68     		ldr	r3, [r7, #12]
 1736 0198 062B     		cmp	r3, #6
 1737 019a 15D0     		beq	.L95
 1738              		.loc 1 823 9 discriminator 1
 1739 019c FB68     		ldr	r3, [r7, #12]
 1740 019e B3F5803F 		cmp	r3, #65536
 1741 01a2 11D0     		beq	.L95
 824:Drivers/STM32F7xx_HAL_Driver/Src/stm32f7xx_hal_tim.c ****     {
 825:Drivers/STM32F7xx_HAL_Driver/Src/stm32f7xx_hal_tim.c ****       __HAL_TIM_ENABLE(htim);
 1742              		.loc 1 825 7
 1743 01a4 7B68     		ldr	r3, [r7, #4]
 1744 01a6 1B68     		ldr	r3, [r3]
 1745 01a8 1A68     		ldr	r2, [r3]
 1746 01aa 7B68     		ldr	r3, [r7, #4]
 1747 01ac 1B68     		ldr	r3, [r3]
 1748 01ae 42F00102 		orr	r2, r2, #1
 1749 01b2 1A60     		str	r2, [r3]
 823:Drivers/STM32F7xx_HAL_Driver/Src/stm32f7xx_hal_tim.c ****     if (!IS_TIM_SLAVEMODE_TRIGGER_ENABLED(tmpsmcr))
 1750              		.loc 1 823 8
 1751 01b4 08E0     		b	.L95
 1752              	.L92:
 826:Drivers/STM32F7xx_HAL_Driver/Src/stm32f7xx_hal_tim.c ****     }
 827:Drivers/STM32F7xx_HAL_Driver/Src/stm32f7xx_hal_tim.c ****   }
 828:Drivers/STM32F7xx_HAL_Driver/Src/stm32f7xx_hal_tim.c ****   else
 829:Drivers/STM32F7xx_HAL_Driver/Src/stm32f7xx_hal_tim.c ****   {
 830:Drivers/STM32F7xx_HAL_Driver/Src/stm32f7xx_hal_tim.c ****     __HAL_TIM_ENABLE(htim);
 1753              		.loc 1 830 5
 1754 01b6 7B68     		ldr	r3, [r7, #4]
 1755 01b8 1B68     		ldr	r3, [r3]
 1756 01ba 1A68     		ldr	r2, [r3]
ARM GAS  C:\Users\jisu8\AppData\Local\Temp\cckFtxsR.s 			page 46


 1757 01bc 7B68     		ldr	r3, [r7, #4]
 1758 01be 1B68     		ldr	r3, [r3]
 1759 01c0 42F00102 		orr	r2, r2, #1
 1760 01c4 1A60     		str	r2, [r3]
 1761 01c6 00E0     		b	.L94
 1762              	.L95:
 823:Drivers/STM32F7xx_HAL_Driver/Src/stm32f7xx_hal_tim.c ****     {
 1763              		.loc 1 823 8
 1764 01c8 00BF     		nop
 1765              	.L94:
 831:Drivers/STM32F7xx_HAL_Driver/Src/stm32f7xx_hal_tim.c ****   }
 832:Drivers/STM32F7xx_HAL_Driver/Src/stm32f7xx_hal_tim.c **** 
 833:Drivers/STM32F7xx_HAL_Driver/Src/stm32f7xx_hal_tim.c ****   /* Return function status */
 834:Drivers/STM32F7xx_HAL_Driver/Src/stm32f7xx_hal_tim.c ****   return HAL_OK;
 1766              		.loc 1 834 10
 1767 01ca 0023     		movs	r3, #0
 1768              	.L76:
 835:Drivers/STM32F7xx_HAL_Driver/Src/stm32f7xx_hal_tim.c **** }
 1769              		.loc 1 835 1
 1770 01cc 1846     		mov	r0, r3
 1771 01ce 1037     		adds	r7, r7, #16
 1772              	.LCFI81:
 1773              		.cfi_def_cfa_offset 8
 1774 01d0 BD46     		mov	sp, r7
 1775              	.LCFI82:
 1776              		.cfi_def_cfa_register 13
 1777              		@ sp needed
 1778 01d2 80BD     		pop	{r7, pc}
 1779              	.L97:
 1780              		.align	2
 1781              	.L96:
 1782 01d4 00000140 		.word	1073807360
 1783 01d8 00040140 		.word	1073808384
 1784 01dc 00040040 		.word	1073742848
 1785 01e0 00080040 		.word	1073743872
 1786 01e4 000C0040 		.word	1073744896
 1787 01e8 00400140 		.word	1073823744
 1788 01ec 00180040 		.word	1073747968
 1789 01f0 07000100 		.word	65543
 1790              		.cfi_endproc
 1791              	.LFE155:
 1793              		.section	.text.HAL_TIM_OC_Stop,"ax",%progbits
 1794              		.align	1
 1795              		.global	HAL_TIM_OC_Stop
 1796              		.syntax unified
 1797              		.thumb
 1798              		.thumb_func
 1800              	HAL_TIM_OC_Stop:
 1801              	.LFB156:
 836:Drivers/STM32F7xx_HAL_Driver/Src/stm32f7xx_hal_tim.c **** 
 837:Drivers/STM32F7xx_HAL_Driver/Src/stm32f7xx_hal_tim.c **** /**
 838:Drivers/STM32F7xx_HAL_Driver/Src/stm32f7xx_hal_tim.c ****   * @brief  Stops the TIM Output Compare signal generation.
 839:Drivers/STM32F7xx_HAL_Driver/Src/stm32f7xx_hal_tim.c ****   * @param  htim TIM Output Compare handle
 840:Drivers/STM32F7xx_HAL_Driver/Src/stm32f7xx_hal_tim.c ****   * @param  Channel TIM Channel to be disabled
 841:Drivers/STM32F7xx_HAL_Driver/Src/stm32f7xx_hal_tim.c ****   *          This parameter can be one of the following values:
 842:Drivers/STM32F7xx_HAL_Driver/Src/stm32f7xx_hal_tim.c ****   *            @arg TIM_CHANNEL_1: TIM Channel 1 selected
 843:Drivers/STM32F7xx_HAL_Driver/Src/stm32f7xx_hal_tim.c ****   *            @arg TIM_CHANNEL_2: TIM Channel 2 selected
ARM GAS  C:\Users\jisu8\AppData\Local\Temp\cckFtxsR.s 			page 47


 844:Drivers/STM32F7xx_HAL_Driver/Src/stm32f7xx_hal_tim.c ****   *            @arg TIM_CHANNEL_3: TIM Channel 3 selected
 845:Drivers/STM32F7xx_HAL_Driver/Src/stm32f7xx_hal_tim.c ****   *            @arg TIM_CHANNEL_4: TIM Channel 4 selected
 846:Drivers/STM32F7xx_HAL_Driver/Src/stm32f7xx_hal_tim.c ****   *            @arg TIM_CHANNEL_5: TIM Channel 5 selected
 847:Drivers/STM32F7xx_HAL_Driver/Src/stm32f7xx_hal_tim.c ****   *            @arg TIM_CHANNEL_6: TIM Channel 6 selected
 848:Drivers/STM32F7xx_HAL_Driver/Src/stm32f7xx_hal_tim.c ****   * @retval HAL status
 849:Drivers/STM32F7xx_HAL_Driver/Src/stm32f7xx_hal_tim.c ****   */
 850:Drivers/STM32F7xx_HAL_Driver/Src/stm32f7xx_hal_tim.c **** HAL_StatusTypeDef HAL_TIM_OC_Stop(TIM_HandleTypeDef *htim, uint32_t Channel)
 851:Drivers/STM32F7xx_HAL_Driver/Src/stm32f7xx_hal_tim.c **** {
 1802              		.loc 1 851 1
 1803              		.cfi_startproc
 1804              		@ args = 0, pretend = 0, frame = 8
 1805              		@ frame_needed = 1, uses_anonymous_args = 0
 1806 0000 80B5     		push	{r7, lr}
 1807              	.LCFI83:
 1808              		.cfi_def_cfa_offset 8
 1809              		.cfi_offset 7, -8
 1810              		.cfi_offset 14, -4
 1811 0002 82B0     		sub	sp, sp, #8
 1812              	.LCFI84:
 1813              		.cfi_def_cfa_offset 16
 1814 0004 00AF     		add	r7, sp, #0
 1815              	.LCFI85:
 1816              		.cfi_def_cfa_register 7
 1817 0006 7860     		str	r0, [r7, #4]
 1818 0008 3960     		str	r1, [r7]
 852:Drivers/STM32F7xx_HAL_Driver/Src/stm32f7xx_hal_tim.c ****   /* Check the parameters */
 853:Drivers/STM32F7xx_HAL_Driver/Src/stm32f7xx_hal_tim.c ****   assert_param(IS_TIM_CCX_INSTANCE(htim->Instance, Channel));
 854:Drivers/STM32F7xx_HAL_Driver/Src/stm32f7xx_hal_tim.c **** 
 855:Drivers/STM32F7xx_HAL_Driver/Src/stm32f7xx_hal_tim.c ****   /* Disable the Output compare channel */
 856:Drivers/STM32F7xx_HAL_Driver/Src/stm32f7xx_hal_tim.c ****   TIM_CCxChannelCmd(htim->Instance, Channel, TIM_CCx_DISABLE);
 1819              		.loc 1 856 3
 1820 000a 7B68     		ldr	r3, [r7, #4]
 1821 000c 1B68     		ldr	r3, [r3]
 1822 000e 0022     		movs	r2, #0
 1823 0010 3968     		ldr	r1, [r7]
 1824 0012 1846     		mov	r0, r3
 1825 0014 FFF7FEFF 		bl	TIM_CCxChannelCmd
 857:Drivers/STM32F7xx_HAL_Driver/Src/stm32f7xx_hal_tim.c **** 
 858:Drivers/STM32F7xx_HAL_Driver/Src/stm32f7xx_hal_tim.c ****   if (IS_TIM_BREAK_INSTANCE(htim->Instance) != RESET)
 1826              		.loc 1 858 7
 1827 0018 7B68     		ldr	r3, [r7, #4]
 1828 001a 1B68     		ldr	r3, [r3]
 1829 001c 364A     		ldr	r2, .L115
 1830 001e 9342     		cmp	r3, r2
 1831 0020 04D0     		beq	.L99
 1832              		.loc 1 858 7 is_stmt 0 discriminator 2
 1833 0022 7B68     		ldr	r3, [r7, #4]
 1834 0024 1B68     		ldr	r3, [r3]
 1835 0026 354A     		ldr	r2, .L115+4
 1836 0028 9342     		cmp	r3, r2
 1837 002a 01D1     		bne	.L100
 1838              	.L99:
 1839              		.loc 1 858 7 discriminator 3
 1840 002c 0123     		movs	r3, #1
 1841 002e 00E0     		b	.L101
 1842              	.L100:
 1843              		.loc 1 858 7 discriminator 4
ARM GAS  C:\Users\jisu8\AppData\Local\Temp\cckFtxsR.s 			page 48


 1844 0030 0023     		movs	r3, #0
 1845              	.L101:
 1846              		.loc 1 858 6 is_stmt 1 discriminator 6
 1847 0032 002B     		cmp	r3, #0
 1848 0034 17D0     		beq	.L102
 859:Drivers/STM32F7xx_HAL_Driver/Src/stm32f7xx_hal_tim.c ****   {
 860:Drivers/STM32F7xx_HAL_Driver/Src/stm32f7xx_hal_tim.c ****     /* Disable the Main Output */
 861:Drivers/STM32F7xx_HAL_Driver/Src/stm32f7xx_hal_tim.c ****     __HAL_TIM_MOE_DISABLE(htim);
 1849              		.loc 1 861 5
 1850 0036 7B68     		ldr	r3, [r7, #4]
 1851 0038 1B68     		ldr	r3, [r3]
 1852 003a 1A6A     		ldr	r2, [r3, #32]
 1853 003c 41F21113 		movw	r3, #4369
 1854 0040 1340     		ands	r3, r3, r2
 1855 0042 002B     		cmp	r3, #0
 1856 0044 0FD1     		bne	.L102
 1857              		.loc 1 861 5 is_stmt 0 discriminator 1
 1858 0046 7B68     		ldr	r3, [r7, #4]
 1859 0048 1B68     		ldr	r3, [r3]
 1860 004a 1A6A     		ldr	r2, [r3, #32]
 1861 004c 40F24443 		movw	r3, #1092
 1862 0050 1340     		ands	r3, r3, r2
 1863 0052 002B     		cmp	r3, #0
 1864 0054 07D1     		bne	.L102
 1865              		.loc 1 861 5 discriminator 2
 1866 0056 7B68     		ldr	r3, [r7, #4]
 1867 0058 1B68     		ldr	r3, [r3]
 1868 005a 5A6C     		ldr	r2, [r3, #68]
 1869 005c 7B68     		ldr	r3, [r7, #4]
 1870 005e 1B68     		ldr	r3, [r3]
 1871 0060 22F40042 		bic	r2, r2, #32768
 1872 0064 5A64     		str	r2, [r3, #68]
 1873              	.L102:
 862:Drivers/STM32F7xx_HAL_Driver/Src/stm32f7xx_hal_tim.c ****   }
 863:Drivers/STM32F7xx_HAL_Driver/Src/stm32f7xx_hal_tim.c **** 
 864:Drivers/STM32F7xx_HAL_Driver/Src/stm32f7xx_hal_tim.c ****   /* Disable the Peripheral */
 865:Drivers/STM32F7xx_HAL_Driver/Src/stm32f7xx_hal_tim.c ****   __HAL_TIM_DISABLE(htim);
 1874              		.loc 1 865 3 is_stmt 1
 1875 0066 7B68     		ldr	r3, [r7, #4]
 1876 0068 1B68     		ldr	r3, [r3]
 1877 006a 1A6A     		ldr	r2, [r3, #32]
 1878 006c 41F21113 		movw	r3, #4369
 1879 0070 1340     		ands	r3, r3, r2
 1880 0072 002B     		cmp	r3, #0
 1881 0074 0FD1     		bne	.L103
 1882              		.loc 1 865 3 is_stmt 0 discriminator 1
 1883 0076 7B68     		ldr	r3, [r7, #4]
 1884 0078 1B68     		ldr	r3, [r3]
 1885 007a 1A6A     		ldr	r2, [r3, #32]
 1886 007c 40F24443 		movw	r3, #1092
 1887 0080 1340     		ands	r3, r3, r2
 1888 0082 002B     		cmp	r3, #0
 1889 0084 07D1     		bne	.L103
 1890              		.loc 1 865 3 discriminator 2
 1891 0086 7B68     		ldr	r3, [r7, #4]
 1892 0088 1B68     		ldr	r3, [r3]
 1893 008a 1A68     		ldr	r2, [r3]
ARM GAS  C:\Users\jisu8\AppData\Local\Temp\cckFtxsR.s 			page 49


 1894 008c 7B68     		ldr	r3, [r7, #4]
 1895 008e 1B68     		ldr	r3, [r3]
 1896 0090 22F00102 		bic	r2, r2, #1
 1897 0094 1A60     		str	r2, [r3]
 1898              	.L103:
 866:Drivers/STM32F7xx_HAL_Driver/Src/stm32f7xx_hal_tim.c **** 
 867:Drivers/STM32F7xx_HAL_Driver/Src/stm32f7xx_hal_tim.c ****   /* Set the TIM channel state */
 868:Drivers/STM32F7xx_HAL_Driver/Src/stm32f7xx_hal_tim.c ****   TIM_CHANNEL_STATE_SET(htim, Channel, HAL_TIM_CHANNEL_STATE_READY);
 1899              		.loc 1 868 3 is_stmt 1
 1900 0096 3B68     		ldr	r3, [r7]
 1901 0098 002B     		cmp	r3, #0
 1902 009a 04D1     		bne	.L104
 1903              		.loc 1 868 3 is_stmt 0 discriminator 1
 1904 009c 7B68     		ldr	r3, [r7, #4]
 1905 009e 0122     		movs	r2, #1
 1906 00a0 83F83E20 		strb	r2, [r3, #62]
 1907 00a4 23E0     		b	.L105
 1908              	.L104:
 1909              		.loc 1 868 3 discriminator 2
 1910 00a6 3B68     		ldr	r3, [r7]
 1911 00a8 042B     		cmp	r3, #4
 1912 00aa 04D1     		bne	.L106
 1913              		.loc 1 868 3 discriminator 3
 1914 00ac 7B68     		ldr	r3, [r7, #4]
 1915 00ae 0122     		movs	r2, #1
 1916 00b0 83F83F20 		strb	r2, [r3, #63]
 1917 00b4 1BE0     		b	.L105
 1918              	.L106:
 1919              		.loc 1 868 3 discriminator 4
 1920 00b6 3B68     		ldr	r3, [r7]
 1921 00b8 082B     		cmp	r3, #8
 1922 00ba 04D1     		bne	.L108
 1923              		.loc 1 868 3 discriminator 6
 1924 00bc 7B68     		ldr	r3, [r7, #4]
 1925 00be 0122     		movs	r2, #1
 1926 00c0 83F84020 		strb	r2, [r3, #64]
 1927 00c4 13E0     		b	.L105
 1928              	.L108:
 1929              		.loc 1 868 3 discriminator 7
 1930 00c6 3B68     		ldr	r3, [r7]
 1931 00c8 0C2B     		cmp	r3, #12
 1932 00ca 04D1     		bne	.L110
 1933              		.loc 1 868 3 discriminator 9
 1934 00cc 7B68     		ldr	r3, [r7, #4]
 1935 00ce 0122     		movs	r2, #1
 1936 00d0 83F84120 		strb	r2, [r3, #65]
 1937 00d4 0BE0     		b	.L105
 1938              	.L110:
 1939              		.loc 1 868 3 discriminator 10
 1940 00d6 3B68     		ldr	r3, [r7]
 1941 00d8 102B     		cmp	r3, #16
 1942 00da 04D1     		bne	.L112
 1943              		.loc 1 868 3 discriminator 12
 1944 00dc 7B68     		ldr	r3, [r7, #4]
 1945 00de 0122     		movs	r2, #1
 1946 00e0 83F84220 		strb	r2, [r3, #66]
 1947 00e4 03E0     		b	.L105
ARM GAS  C:\Users\jisu8\AppData\Local\Temp\cckFtxsR.s 			page 50


 1948              	.L112:
 1949              		.loc 1 868 3 discriminator 13
 1950 00e6 7B68     		ldr	r3, [r7, #4]
 1951 00e8 0122     		movs	r2, #1
 1952 00ea 83F84320 		strb	r2, [r3, #67]
 1953              	.L105:
 869:Drivers/STM32F7xx_HAL_Driver/Src/stm32f7xx_hal_tim.c **** 
 870:Drivers/STM32F7xx_HAL_Driver/Src/stm32f7xx_hal_tim.c ****   /* Return function status */
 871:Drivers/STM32F7xx_HAL_Driver/Src/stm32f7xx_hal_tim.c ****   return HAL_OK;
 1954              		.loc 1 871 10 is_stmt 1
 1955 00ee 0023     		movs	r3, #0
 872:Drivers/STM32F7xx_HAL_Driver/Src/stm32f7xx_hal_tim.c **** }
 1956              		.loc 1 872 1
 1957 00f0 1846     		mov	r0, r3
 1958 00f2 0837     		adds	r7, r7, #8
 1959              	.LCFI86:
 1960              		.cfi_def_cfa_offset 8
 1961 00f4 BD46     		mov	sp, r7
 1962              	.LCFI87:
 1963              		.cfi_def_cfa_register 13
 1964              		@ sp needed
 1965 00f6 80BD     		pop	{r7, pc}
 1966              	.L116:
 1967              		.align	2
 1968              	.L115:
 1969 00f8 00000140 		.word	1073807360
 1970 00fc 00040140 		.word	1073808384
 1971              		.cfi_endproc
 1972              	.LFE156:
 1974              		.section	.text.HAL_TIM_OC_Start_IT,"ax",%progbits
 1975              		.align	1
 1976              		.global	HAL_TIM_OC_Start_IT
 1977              		.syntax unified
 1978              		.thumb
 1979              		.thumb_func
 1981              	HAL_TIM_OC_Start_IT:
 1982              	.LFB157:
 873:Drivers/STM32F7xx_HAL_Driver/Src/stm32f7xx_hal_tim.c **** 
 874:Drivers/STM32F7xx_HAL_Driver/Src/stm32f7xx_hal_tim.c **** /**
 875:Drivers/STM32F7xx_HAL_Driver/Src/stm32f7xx_hal_tim.c ****   * @brief  Starts the TIM Output Compare signal generation in interrupt mode.
 876:Drivers/STM32F7xx_HAL_Driver/Src/stm32f7xx_hal_tim.c ****   * @param  htim TIM Output Compare handle
 877:Drivers/STM32F7xx_HAL_Driver/Src/stm32f7xx_hal_tim.c ****   * @param  Channel TIM Channel to be enabled
 878:Drivers/STM32F7xx_HAL_Driver/Src/stm32f7xx_hal_tim.c ****   *          This parameter can be one of the following values:
 879:Drivers/STM32F7xx_HAL_Driver/Src/stm32f7xx_hal_tim.c ****   *            @arg TIM_CHANNEL_1: TIM Channel 1 selected
 880:Drivers/STM32F7xx_HAL_Driver/Src/stm32f7xx_hal_tim.c ****   *            @arg TIM_CHANNEL_2: TIM Channel 2 selected
 881:Drivers/STM32F7xx_HAL_Driver/Src/stm32f7xx_hal_tim.c ****   *            @arg TIM_CHANNEL_3: TIM Channel 3 selected
 882:Drivers/STM32F7xx_HAL_Driver/Src/stm32f7xx_hal_tim.c ****   *            @arg TIM_CHANNEL_4: TIM Channel 4 selected
 883:Drivers/STM32F7xx_HAL_Driver/Src/stm32f7xx_hal_tim.c ****   * @retval HAL status
 884:Drivers/STM32F7xx_HAL_Driver/Src/stm32f7xx_hal_tim.c ****   */
 885:Drivers/STM32F7xx_HAL_Driver/Src/stm32f7xx_hal_tim.c **** HAL_StatusTypeDef HAL_TIM_OC_Start_IT(TIM_HandleTypeDef *htim, uint32_t Channel)
 886:Drivers/STM32F7xx_HAL_Driver/Src/stm32f7xx_hal_tim.c **** {
 1983              		.loc 1 886 1
 1984              		.cfi_startproc
 1985              		@ args = 0, pretend = 0, frame = 16
 1986              		@ frame_needed = 1, uses_anonymous_args = 0
 1987 0000 80B5     		push	{r7, lr}
 1988              	.LCFI88:
ARM GAS  C:\Users\jisu8\AppData\Local\Temp\cckFtxsR.s 			page 51


 1989              		.cfi_def_cfa_offset 8
 1990              		.cfi_offset 7, -8
 1991              		.cfi_offset 14, -4
 1992 0002 84B0     		sub	sp, sp, #16
 1993              	.LCFI89:
 1994              		.cfi_def_cfa_offset 24
 1995 0004 00AF     		add	r7, sp, #0
 1996              	.LCFI90:
 1997              		.cfi_def_cfa_register 7
 1998 0006 7860     		str	r0, [r7, #4]
 1999 0008 3960     		str	r1, [r7]
 887:Drivers/STM32F7xx_HAL_Driver/Src/stm32f7xx_hal_tim.c ****   HAL_StatusTypeDef status = HAL_OK;
 2000              		.loc 1 887 21
 2001 000a 0023     		movs	r3, #0
 2002 000c FB73     		strb	r3, [r7, #15]
 888:Drivers/STM32F7xx_HAL_Driver/Src/stm32f7xx_hal_tim.c ****   uint32_t tmpsmcr;
 889:Drivers/STM32F7xx_HAL_Driver/Src/stm32f7xx_hal_tim.c **** 
 890:Drivers/STM32F7xx_HAL_Driver/Src/stm32f7xx_hal_tim.c ****   /* Check the parameters */
 891:Drivers/STM32F7xx_HAL_Driver/Src/stm32f7xx_hal_tim.c ****   assert_param(IS_TIM_CCX_INSTANCE(htim->Instance, Channel));
 892:Drivers/STM32F7xx_HAL_Driver/Src/stm32f7xx_hal_tim.c **** 
 893:Drivers/STM32F7xx_HAL_Driver/Src/stm32f7xx_hal_tim.c ****   /* Check the TIM channel state */
 894:Drivers/STM32F7xx_HAL_Driver/Src/stm32f7xx_hal_tim.c ****   if (TIM_CHANNEL_STATE_GET(htim, Channel) != HAL_TIM_CHANNEL_STATE_READY)
 2003              		.loc 1 894 44
 2004 000e 3B68     		ldr	r3, [r7]
 2005 0010 002B     		cmp	r3, #0
 2006 0012 09D1     		bne	.L118
 2007              		.loc 1 894 7 discriminator 1
 2008 0014 7B68     		ldr	r3, [r7, #4]
 2009 0016 93F83E30 		ldrb	r3, [r3, #62]
 2010 001a DBB2     		uxtb	r3, r3
 2011              		.loc 1 894 44 discriminator 1
 2012 001c 012B     		cmp	r3, #1
 2013 001e 14BF     		ite	ne
 2014 0020 0123     		movne	r3, #1
 2015 0022 0023     		moveq	r3, #0
 2016 0024 DBB2     		uxtb	r3, r3
 2017 0026 3CE0     		b	.L119
 2018              	.L118:
 2019              		.loc 1 894 44 is_stmt 0 discriminator 2
 2020 0028 3B68     		ldr	r3, [r7]
 2021 002a 042B     		cmp	r3, #4
 2022 002c 09D1     		bne	.L120
 2023              		.loc 1 894 7 is_stmt 1 discriminator 4
 2024 002e 7B68     		ldr	r3, [r7, #4]
 2025 0030 93F83F30 		ldrb	r3, [r3, #63]
 2026 0034 DBB2     		uxtb	r3, r3
 2027              		.loc 1 894 44 discriminator 4
 2028 0036 012B     		cmp	r3, #1
 2029 0038 14BF     		ite	ne
 2030 003a 0123     		movne	r3, #1
 2031 003c 0023     		moveq	r3, #0
 2032 003e DBB2     		uxtb	r3, r3
 2033 0040 2FE0     		b	.L119
 2034              	.L120:
 2035              		.loc 1 894 44 is_stmt 0 discriminator 5
 2036 0042 3B68     		ldr	r3, [r7]
 2037 0044 082B     		cmp	r3, #8
ARM GAS  C:\Users\jisu8\AppData\Local\Temp\cckFtxsR.s 			page 52


 2038 0046 09D1     		bne	.L122
 2039              		.loc 1 894 7 is_stmt 1 discriminator 7
 2040 0048 7B68     		ldr	r3, [r7, #4]
 2041 004a 93F84030 		ldrb	r3, [r3, #64]
 2042 004e DBB2     		uxtb	r3, r3
 2043              		.loc 1 894 44 discriminator 7
 2044 0050 012B     		cmp	r3, #1
 2045 0052 14BF     		ite	ne
 2046 0054 0123     		movne	r3, #1
 2047 0056 0023     		moveq	r3, #0
 2048 0058 DBB2     		uxtb	r3, r3
 2049 005a 22E0     		b	.L119
 2050              	.L122:
 2051              		.loc 1 894 44 is_stmt 0 discriminator 8
 2052 005c 3B68     		ldr	r3, [r7]
 2053 005e 0C2B     		cmp	r3, #12
 2054 0060 09D1     		bne	.L124
 2055              		.loc 1 894 7 is_stmt 1 discriminator 10
 2056 0062 7B68     		ldr	r3, [r7, #4]
 2057 0064 93F84130 		ldrb	r3, [r3, #65]
 2058 0068 DBB2     		uxtb	r3, r3
 2059              		.loc 1 894 44 discriminator 10
 2060 006a 012B     		cmp	r3, #1
 2061 006c 14BF     		ite	ne
 2062 006e 0123     		movne	r3, #1
 2063 0070 0023     		moveq	r3, #0
 2064 0072 DBB2     		uxtb	r3, r3
 2065 0074 15E0     		b	.L119
 2066              	.L124:
 2067              		.loc 1 894 44 is_stmt 0 discriminator 11
 2068 0076 3B68     		ldr	r3, [r7]
 2069 0078 102B     		cmp	r3, #16
 2070 007a 09D1     		bne	.L126
 2071              		.loc 1 894 7 is_stmt 1 discriminator 13
 2072 007c 7B68     		ldr	r3, [r7, #4]
 2073 007e 93F84230 		ldrb	r3, [r3, #66]
 2074 0082 DBB2     		uxtb	r3, r3
 2075              		.loc 1 894 44 discriminator 13
 2076 0084 012B     		cmp	r3, #1
 2077 0086 14BF     		ite	ne
 2078 0088 0123     		movne	r3, #1
 2079 008a 0023     		moveq	r3, #0
 2080 008c DBB2     		uxtb	r3, r3
 2081 008e 08E0     		b	.L119
 2082              	.L126:
 2083              		.loc 1 894 7 discriminator 14
 2084 0090 7B68     		ldr	r3, [r7, #4]
 2085 0092 93F84330 		ldrb	r3, [r3, #67]
 2086 0096 DBB2     		uxtb	r3, r3
 2087              		.loc 1 894 44 discriminator 14
 2088 0098 012B     		cmp	r3, #1
 2089 009a 14BF     		ite	ne
 2090 009c 0123     		movne	r3, #1
 2091 009e 0023     		moveq	r3, #0
 2092 00a0 DBB2     		uxtb	r3, r3
 2093              	.L119:
 2094              		.loc 1 894 6 discriminator 20
ARM GAS  C:\Users\jisu8\AppData\Local\Temp\cckFtxsR.s 			page 53


 2095 00a2 002B     		cmp	r3, #0
 2096 00a4 01D0     		beq	.L128
 895:Drivers/STM32F7xx_HAL_Driver/Src/stm32f7xx_hal_tim.c ****   {
 896:Drivers/STM32F7xx_HAL_Driver/Src/stm32f7xx_hal_tim.c ****     return HAL_ERROR;
 2097              		.loc 1 896 12
 2098 00a6 0123     		movs	r3, #1
 2099 00a8 DDE0     		b	.L129
 2100              	.L128:
 897:Drivers/STM32F7xx_HAL_Driver/Src/stm32f7xx_hal_tim.c ****   }
 898:Drivers/STM32F7xx_HAL_Driver/Src/stm32f7xx_hal_tim.c **** 
 899:Drivers/STM32F7xx_HAL_Driver/Src/stm32f7xx_hal_tim.c ****   /* Set the TIM channel state */
 900:Drivers/STM32F7xx_HAL_Driver/Src/stm32f7xx_hal_tim.c ****   TIM_CHANNEL_STATE_SET(htim, Channel, HAL_TIM_CHANNEL_STATE_BUSY);
 2101              		.loc 1 900 3
 2102 00aa 3B68     		ldr	r3, [r7]
 2103 00ac 002B     		cmp	r3, #0
 2104 00ae 04D1     		bne	.L130
 2105              		.loc 1 900 3 is_stmt 0 discriminator 1
 2106 00b0 7B68     		ldr	r3, [r7, #4]
 2107 00b2 0222     		movs	r2, #2
 2108 00b4 83F83E20 		strb	r2, [r3, #62]
 2109 00b8 23E0     		b	.L131
 2110              	.L130:
 2111              		.loc 1 900 3 discriminator 2
 2112 00ba 3B68     		ldr	r3, [r7]
 2113 00bc 042B     		cmp	r3, #4
 2114 00be 04D1     		bne	.L132
 2115              		.loc 1 900 3 discriminator 3
 2116 00c0 7B68     		ldr	r3, [r7, #4]
 2117 00c2 0222     		movs	r2, #2
 2118 00c4 83F83F20 		strb	r2, [r3, #63]
 2119 00c8 1BE0     		b	.L131
 2120              	.L132:
 2121              		.loc 1 900 3 discriminator 4
 2122 00ca 3B68     		ldr	r3, [r7]
 2123 00cc 082B     		cmp	r3, #8
 2124 00ce 04D1     		bne	.L134
 2125              		.loc 1 900 3 discriminator 6
 2126 00d0 7B68     		ldr	r3, [r7, #4]
 2127 00d2 0222     		movs	r2, #2
 2128 00d4 83F84020 		strb	r2, [r3, #64]
 2129 00d8 13E0     		b	.L131
 2130              	.L134:
 2131              		.loc 1 900 3 discriminator 7
 2132 00da 3B68     		ldr	r3, [r7]
 2133 00dc 0C2B     		cmp	r3, #12
 2134 00de 04D1     		bne	.L136
 2135              		.loc 1 900 3 discriminator 9
 2136 00e0 7B68     		ldr	r3, [r7, #4]
 2137 00e2 0222     		movs	r2, #2
 2138 00e4 83F84120 		strb	r2, [r3, #65]
 2139 00e8 0BE0     		b	.L131
 2140              	.L136:
 2141              		.loc 1 900 3 discriminator 10
 2142 00ea 3B68     		ldr	r3, [r7]
 2143 00ec 102B     		cmp	r3, #16
 2144 00ee 04D1     		bne	.L138
 2145              		.loc 1 900 3 discriminator 12
ARM GAS  C:\Users\jisu8\AppData\Local\Temp\cckFtxsR.s 			page 54


 2146 00f0 7B68     		ldr	r3, [r7, #4]
 2147 00f2 0222     		movs	r2, #2
 2148 00f4 83F84220 		strb	r2, [r3, #66]
 2149 00f8 03E0     		b	.L131
 2150              	.L138:
 2151              		.loc 1 900 3 discriminator 13
 2152 00fa 7B68     		ldr	r3, [r7, #4]
 2153 00fc 0222     		movs	r2, #2
 2154 00fe 83F84320 		strb	r2, [r3, #67]
 2155              	.L131:
 901:Drivers/STM32F7xx_HAL_Driver/Src/stm32f7xx_hal_tim.c **** 
 902:Drivers/STM32F7xx_HAL_Driver/Src/stm32f7xx_hal_tim.c ****   switch (Channel)
 2156              		.loc 1 902 3 is_stmt 1
 2157 0102 3B68     		ldr	r3, [r7]
 2158 0104 0C2B     		cmp	r3, #12
 2159 0106 41D8     		bhi	.L140
 2160 0108 01A2     		adr	r2, .L142
 2161 010a 52F823F0 		ldr	pc, [r2, r3, lsl #2]
 2162 010e 00BF     		.p2align 2
 2163              	.L142:
 2164 0110 45010000 		.word	.L145+1
 2165 0114 8D010000 		.word	.L140+1
 2166 0118 8D010000 		.word	.L140+1
 2167 011c 8D010000 		.word	.L140+1
 2168 0120 57010000 		.word	.L144+1
 2169 0124 8D010000 		.word	.L140+1
 2170 0128 8D010000 		.word	.L140+1
 2171 012c 8D010000 		.word	.L140+1
 2172 0130 69010000 		.word	.L143+1
 2173 0134 8D010000 		.word	.L140+1
 2174 0138 8D010000 		.word	.L140+1
 2175 013c 8D010000 		.word	.L140+1
 2176 0140 7B010000 		.word	.L141+1
 2177              		.p2align 1
 2178              	.L145:
 903:Drivers/STM32F7xx_HAL_Driver/Src/stm32f7xx_hal_tim.c ****   {
 904:Drivers/STM32F7xx_HAL_Driver/Src/stm32f7xx_hal_tim.c ****     case TIM_CHANNEL_1:
 905:Drivers/STM32F7xx_HAL_Driver/Src/stm32f7xx_hal_tim.c ****     {
 906:Drivers/STM32F7xx_HAL_Driver/Src/stm32f7xx_hal_tim.c ****       /* Enable the TIM Capture/Compare 1 interrupt */
 907:Drivers/STM32F7xx_HAL_Driver/Src/stm32f7xx_hal_tim.c ****       __HAL_TIM_ENABLE_IT(htim, TIM_IT_CC1);
 2179              		.loc 1 907 7
 2180 0144 7B68     		ldr	r3, [r7, #4]
 2181 0146 1B68     		ldr	r3, [r3]
 2182 0148 DA68     		ldr	r2, [r3, #12]
 2183 014a 7B68     		ldr	r3, [r7, #4]
 2184 014c 1B68     		ldr	r3, [r3]
 2185 014e 42F00202 		orr	r2, r2, #2
 2186 0152 DA60     		str	r2, [r3, #12]
 908:Drivers/STM32F7xx_HAL_Driver/Src/stm32f7xx_hal_tim.c ****       break;
 2187              		.loc 1 908 7
 2188 0154 1DE0     		b	.L146
 2189              	.L144:
 909:Drivers/STM32F7xx_HAL_Driver/Src/stm32f7xx_hal_tim.c ****     }
 910:Drivers/STM32F7xx_HAL_Driver/Src/stm32f7xx_hal_tim.c **** 
 911:Drivers/STM32F7xx_HAL_Driver/Src/stm32f7xx_hal_tim.c ****     case TIM_CHANNEL_2:
 912:Drivers/STM32F7xx_HAL_Driver/Src/stm32f7xx_hal_tim.c ****     {
 913:Drivers/STM32F7xx_HAL_Driver/Src/stm32f7xx_hal_tim.c ****       /* Enable the TIM Capture/Compare 2 interrupt */
ARM GAS  C:\Users\jisu8\AppData\Local\Temp\cckFtxsR.s 			page 55


 914:Drivers/STM32F7xx_HAL_Driver/Src/stm32f7xx_hal_tim.c ****       __HAL_TIM_ENABLE_IT(htim, TIM_IT_CC2);
 2190              		.loc 1 914 7
 2191 0156 7B68     		ldr	r3, [r7, #4]
 2192 0158 1B68     		ldr	r3, [r3]
 2193 015a DA68     		ldr	r2, [r3, #12]
 2194 015c 7B68     		ldr	r3, [r7, #4]
 2195 015e 1B68     		ldr	r3, [r3]
 2196 0160 42F00402 		orr	r2, r2, #4
 2197 0164 DA60     		str	r2, [r3, #12]
 915:Drivers/STM32F7xx_HAL_Driver/Src/stm32f7xx_hal_tim.c ****       break;
 2198              		.loc 1 915 7
 2199 0166 14E0     		b	.L146
 2200              	.L143:
 916:Drivers/STM32F7xx_HAL_Driver/Src/stm32f7xx_hal_tim.c ****     }
 917:Drivers/STM32F7xx_HAL_Driver/Src/stm32f7xx_hal_tim.c **** 
 918:Drivers/STM32F7xx_HAL_Driver/Src/stm32f7xx_hal_tim.c ****     case TIM_CHANNEL_3:
 919:Drivers/STM32F7xx_HAL_Driver/Src/stm32f7xx_hal_tim.c ****     {
 920:Drivers/STM32F7xx_HAL_Driver/Src/stm32f7xx_hal_tim.c ****       /* Enable the TIM Capture/Compare 3 interrupt */
 921:Drivers/STM32F7xx_HAL_Driver/Src/stm32f7xx_hal_tim.c ****       __HAL_TIM_ENABLE_IT(htim, TIM_IT_CC3);
 2201              		.loc 1 921 7
 2202 0168 7B68     		ldr	r3, [r7, #4]
 2203 016a 1B68     		ldr	r3, [r3]
 2204 016c DA68     		ldr	r2, [r3, #12]
 2205 016e 7B68     		ldr	r3, [r7, #4]
 2206 0170 1B68     		ldr	r3, [r3]
 2207 0172 42F00802 		orr	r2, r2, #8
 2208 0176 DA60     		str	r2, [r3, #12]
 922:Drivers/STM32F7xx_HAL_Driver/Src/stm32f7xx_hal_tim.c ****       break;
 2209              		.loc 1 922 7
 2210 0178 0BE0     		b	.L146
 2211              	.L141:
 923:Drivers/STM32F7xx_HAL_Driver/Src/stm32f7xx_hal_tim.c ****     }
 924:Drivers/STM32F7xx_HAL_Driver/Src/stm32f7xx_hal_tim.c **** 
 925:Drivers/STM32F7xx_HAL_Driver/Src/stm32f7xx_hal_tim.c ****     case TIM_CHANNEL_4:
 926:Drivers/STM32F7xx_HAL_Driver/Src/stm32f7xx_hal_tim.c ****     {
 927:Drivers/STM32F7xx_HAL_Driver/Src/stm32f7xx_hal_tim.c ****       /* Enable the TIM Capture/Compare 4 interrupt */
 928:Drivers/STM32F7xx_HAL_Driver/Src/stm32f7xx_hal_tim.c ****       __HAL_TIM_ENABLE_IT(htim, TIM_IT_CC4);
 2212              		.loc 1 928 7
 2213 017a 7B68     		ldr	r3, [r7, #4]
 2214 017c 1B68     		ldr	r3, [r3]
 2215 017e DA68     		ldr	r2, [r3, #12]
 2216 0180 7B68     		ldr	r3, [r7, #4]
 2217 0182 1B68     		ldr	r3, [r3]
 2218 0184 42F01002 		orr	r2, r2, #16
 2219 0188 DA60     		str	r2, [r3, #12]
 929:Drivers/STM32F7xx_HAL_Driver/Src/stm32f7xx_hal_tim.c ****       break;
 2220              		.loc 1 929 7
 2221 018a 02E0     		b	.L146
 2222              	.L140:
 930:Drivers/STM32F7xx_HAL_Driver/Src/stm32f7xx_hal_tim.c ****     }
 931:Drivers/STM32F7xx_HAL_Driver/Src/stm32f7xx_hal_tim.c **** 
 932:Drivers/STM32F7xx_HAL_Driver/Src/stm32f7xx_hal_tim.c ****     default:
 933:Drivers/STM32F7xx_HAL_Driver/Src/stm32f7xx_hal_tim.c ****       status = HAL_ERROR;
 2223              		.loc 1 933 14
 2224 018c 0123     		movs	r3, #1
 2225 018e FB73     		strb	r3, [r7, #15]
 934:Drivers/STM32F7xx_HAL_Driver/Src/stm32f7xx_hal_tim.c ****       break;
ARM GAS  C:\Users\jisu8\AppData\Local\Temp\cckFtxsR.s 			page 56


 2226              		.loc 1 934 7
 2227 0190 00BF     		nop
 2228              	.L146:
 935:Drivers/STM32F7xx_HAL_Driver/Src/stm32f7xx_hal_tim.c ****   }
 936:Drivers/STM32F7xx_HAL_Driver/Src/stm32f7xx_hal_tim.c **** 
 937:Drivers/STM32F7xx_HAL_Driver/Src/stm32f7xx_hal_tim.c ****   if (status == HAL_OK)
 2229              		.loc 1 937 6
 2230 0192 FB7B     		ldrb	r3, [r7, #15]	@ zero_extendqisi2
 2231 0194 002B     		cmp	r3, #0
 2232 0196 65D1     		bne	.L147
 938:Drivers/STM32F7xx_HAL_Driver/Src/stm32f7xx_hal_tim.c ****   {
 939:Drivers/STM32F7xx_HAL_Driver/Src/stm32f7xx_hal_tim.c ****     /* Enable the Output compare channel */
 940:Drivers/STM32F7xx_HAL_Driver/Src/stm32f7xx_hal_tim.c ****     TIM_CCxChannelCmd(htim->Instance, Channel, TIM_CCx_ENABLE);
 2233              		.loc 1 940 5
 2234 0198 7B68     		ldr	r3, [r7, #4]
 2235 019a 1B68     		ldr	r3, [r3]
 2236 019c 0122     		movs	r2, #1
 2237 019e 3968     		ldr	r1, [r7]
 2238 01a0 1846     		mov	r0, r3
 2239 01a2 FFF7FEFF 		bl	TIM_CCxChannelCmd
 941:Drivers/STM32F7xx_HAL_Driver/Src/stm32f7xx_hal_tim.c **** 
 942:Drivers/STM32F7xx_HAL_Driver/Src/stm32f7xx_hal_tim.c ****     if (IS_TIM_BREAK_INSTANCE(htim->Instance) != RESET)
 2240              		.loc 1 942 9
 2241 01a6 7B68     		ldr	r3, [r7, #4]
 2242 01a8 1B68     		ldr	r3, [r3]
 2243 01aa 314A     		ldr	r2, .L156
 2244 01ac 9342     		cmp	r3, r2
 2245 01ae 04D0     		beq	.L148
 2246              		.loc 1 942 9 is_stmt 0 discriminator 2
 2247 01b0 7B68     		ldr	r3, [r7, #4]
 2248 01b2 1B68     		ldr	r3, [r3]
 2249 01b4 2F4A     		ldr	r2, .L156+4
 2250 01b6 9342     		cmp	r3, r2
 2251 01b8 01D1     		bne	.L149
 2252              	.L148:
 2253              		.loc 1 942 9 discriminator 3
 2254 01ba 0123     		movs	r3, #1
 2255 01bc 00E0     		b	.L150
 2256              	.L149:
 2257              		.loc 1 942 9 discriminator 4
 2258 01be 0023     		movs	r3, #0
 2259              	.L150:
 2260              		.loc 1 942 8 is_stmt 1 discriminator 6
 2261 01c0 002B     		cmp	r3, #0
 2262 01c2 07D0     		beq	.L151
 943:Drivers/STM32F7xx_HAL_Driver/Src/stm32f7xx_hal_tim.c ****     {
 944:Drivers/STM32F7xx_HAL_Driver/Src/stm32f7xx_hal_tim.c ****       /* Enable the main output */
 945:Drivers/STM32F7xx_HAL_Driver/Src/stm32f7xx_hal_tim.c ****       __HAL_TIM_MOE_ENABLE(htim);
 2263              		.loc 1 945 7
 2264 01c4 7B68     		ldr	r3, [r7, #4]
 2265 01c6 1B68     		ldr	r3, [r3]
 2266 01c8 5A6C     		ldr	r2, [r3, #68]
 2267 01ca 7B68     		ldr	r3, [r7, #4]
 2268 01cc 1B68     		ldr	r3, [r3]
 2269 01ce 42F40042 		orr	r2, r2, #32768
 2270 01d2 5A64     		str	r2, [r3, #68]
 2271              	.L151:
ARM GAS  C:\Users\jisu8\AppData\Local\Temp\cckFtxsR.s 			page 57


 946:Drivers/STM32F7xx_HAL_Driver/Src/stm32f7xx_hal_tim.c ****     }
 947:Drivers/STM32F7xx_HAL_Driver/Src/stm32f7xx_hal_tim.c **** 
 948:Drivers/STM32F7xx_HAL_Driver/Src/stm32f7xx_hal_tim.c ****     /* Enable the Peripheral, except in trigger mode where enable is automatically done with trigge
 949:Drivers/STM32F7xx_HAL_Driver/Src/stm32f7xx_hal_tim.c ****     if (IS_TIM_SLAVE_INSTANCE(htim->Instance))
 2272              		.loc 1 949 9
 2273 01d4 7B68     		ldr	r3, [r7, #4]
 2274 01d6 1B68     		ldr	r3, [r3]
 2275              		.loc 1 949 8
 2276 01d8 254A     		ldr	r2, .L156
 2277 01da 9342     		cmp	r3, r2
 2278 01dc 22D0     		beq	.L152
 2279              		.loc 1 949 9 discriminator 1
 2280 01de 7B68     		ldr	r3, [r7, #4]
 2281 01e0 1B68     		ldr	r3, [r3]
 2282 01e2 B3F1804F 		cmp	r3, #1073741824
 2283 01e6 1DD0     		beq	.L152
 2284              		.loc 1 949 9 is_stmt 0 discriminator 2
 2285 01e8 7B68     		ldr	r3, [r7, #4]
 2286 01ea 1B68     		ldr	r3, [r3]
 2287 01ec 224A     		ldr	r2, .L156+8
 2288 01ee 9342     		cmp	r3, r2
 2289 01f0 18D0     		beq	.L152
 2290              		.loc 1 949 9 discriminator 3
 2291 01f2 7B68     		ldr	r3, [r7, #4]
 2292 01f4 1B68     		ldr	r3, [r3]
 2293 01f6 214A     		ldr	r2, .L156+12
 2294 01f8 9342     		cmp	r3, r2
 2295 01fa 13D0     		beq	.L152
 2296              		.loc 1 949 9 discriminator 4
 2297 01fc 7B68     		ldr	r3, [r7, #4]
 2298 01fe 1B68     		ldr	r3, [r3]
 2299 0200 1F4A     		ldr	r2, .L156+16
 2300 0202 9342     		cmp	r3, r2
 2301 0204 0ED0     		beq	.L152
 2302              		.loc 1 949 9 discriminator 5
 2303 0206 7B68     		ldr	r3, [r7, #4]
 2304 0208 1B68     		ldr	r3, [r3]
 2305 020a 1A4A     		ldr	r2, .L156+4
 2306 020c 9342     		cmp	r3, r2
 2307 020e 09D0     		beq	.L152
 2308              		.loc 1 949 9 discriminator 6
 2309 0210 7B68     		ldr	r3, [r7, #4]
 2310 0212 1B68     		ldr	r3, [r3]
 2311 0214 1B4A     		ldr	r2, .L156+20
 2312 0216 9342     		cmp	r3, r2
 2313 0218 04D0     		beq	.L152
 2314              		.loc 1 949 9 discriminator 7
 2315 021a 7B68     		ldr	r3, [r7, #4]
 2316 021c 1B68     		ldr	r3, [r3]
 2317 021e 1A4A     		ldr	r2, .L156+24
 2318 0220 9342     		cmp	r3, r2
 2319 0222 15D1     		bne	.L153
 2320              	.L152:
 950:Drivers/STM32F7xx_HAL_Driver/Src/stm32f7xx_hal_tim.c ****     {
 951:Drivers/STM32F7xx_HAL_Driver/Src/stm32f7xx_hal_tim.c ****       tmpsmcr = htim->Instance->SMCR & TIM_SMCR_SMS;
 2321              		.loc 1 951 21 is_stmt 1
 2322 0224 7B68     		ldr	r3, [r7, #4]
ARM GAS  C:\Users\jisu8\AppData\Local\Temp\cckFtxsR.s 			page 58


 2323 0226 1B68     		ldr	r3, [r3]
 2324              		.loc 1 951 31
 2325 0228 9A68     		ldr	r2, [r3, #8]
 2326              		.loc 1 951 15
 2327 022a 184B     		ldr	r3, .L156+28
 2328 022c 1340     		ands	r3, r3, r2
 2329 022e BB60     		str	r3, [r7, #8]
 952:Drivers/STM32F7xx_HAL_Driver/Src/stm32f7xx_hal_tim.c ****       if (!IS_TIM_SLAVEMODE_TRIGGER_ENABLED(tmpsmcr))
 2330              		.loc 1 952 10
 2331 0230 BB68     		ldr	r3, [r7, #8]
 2332 0232 062B     		cmp	r3, #6
 2333 0234 15D0     		beq	.L155
 2334              		.loc 1 952 11 discriminator 1
 2335 0236 BB68     		ldr	r3, [r7, #8]
 2336 0238 B3F5803F 		cmp	r3, #65536
 2337 023c 11D0     		beq	.L155
 953:Drivers/STM32F7xx_HAL_Driver/Src/stm32f7xx_hal_tim.c ****       {
 954:Drivers/STM32F7xx_HAL_Driver/Src/stm32f7xx_hal_tim.c ****         __HAL_TIM_ENABLE(htim);
 2338              		.loc 1 954 9
 2339 023e 7B68     		ldr	r3, [r7, #4]
 2340 0240 1B68     		ldr	r3, [r3]
 2341 0242 1A68     		ldr	r2, [r3]
 2342 0244 7B68     		ldr	r3, [r7, #4]
 2343 0246 1B68     		ldr	r3, [r3]
 2344 0248 42F00102 		orr	r2, r2, #1
 2345 024c 1A60     		str	r2, [r3]
 952:Drivers/STM32F7xx_HAL_Driver/Src/stm32f7xx_hal_tim.c ****       if (!IS_TIM_SLAVEMODE_TRIGGER_ENABLED(tmpsmcr))
 2346              		.loc 1 952 10
 2347 024e 08E0     		b	.L155
 2348              	.L153:
 955:Drivers/STM32F7xx_HAL_Driver/Src/stm32f7xx_hal_tim.c ****       }
 956:Drivers/STM32F7xx_HAL_Driver/Src/stm32f7xx_hal_tim.c ****     }
 957:Drivers/STM32F7xx_HAL_Driver/Src/stm32f7xx_hal_tim.c ****     else
 958:Drivers/STM32F7xx_HAL_Driver/Src/stm32f7xx_hal_tim.c ****     {
 959:Drivers/STM32F7xx_HAL_Driver/Src/stm32f7xx_hal_tim.c ****       __HAL_TIM_ENABLE(htim);
 2349              		.loc 1 959 7
 2350 0250 7B68     		ldr	r3, [r7, #4]
 2351 0252 1B68     		ldr	r3, [r3]
 2352 0254 1A68     		ldr	r2, [r3]
 2353 0256 7B68     		ldr	r3, [r7, #4]
 2354 0258 1B68     		ldr	r3, [r3]
 2355 025a 42F00102 		orr	r2, r2, #1
 2356 025e 1A60     		str	r2, [r3]
 2357 0260 00E0     		b	.L147
 2358              	.L155:
 952:Drivers/STM32F7xx_HAL_Driver/Src/stm32f7xx_hal_tim.c ****       {
 2359              		.loc 1 952 10
 2360 0262 00BF     		nop
 2361              	.L147:
 960:Drivers/STM32F7xx_HAL_Driver/Src/stm32f7xx_hal_tim.c ****     }
 961:Drivers/STM32F7xx_HAL_Driver/Src/stm32f7xx_hal_tim.c ****   }
 962:Drivers/STM32F7xx_HAL_Driver/Src/stm32f7xx_hal_tim.c **** 
 963:Drivers/STM32F7xx_HAL_Driver/Src/stm32f7xx_hal_tim.c ****   /* Return function status */
 964:Drivers/STM32F7xx_HAL_Driver/Src/stm32f7xx_hal_tim.c ****   return status;
 2362              		.loc 1 964 10
 2363 0264 FB7B     		ldrb	r3, [r7, #15]	@ zero_extendqisi2
 2364              	.L129:
ARM GAS  C:\Users\jisu8\AppData\Local\Temp\cckFtxsR.s 			page 59


 965:Drivers/STM32F7xx_HAL_Driver/Src/stm32f7xx_hal_tim.c **** }
 2365              		.loc 1 965 1
 2366 0266 1846     		mov	r0, r3
 2367 0268 1037     		adds	r7, r7, #16
 2368              	.LCFI91:
 2369              		.cfi_def_cfa_offset 8
 2370 026a BD46     		mov	sp, r7
 2371              	.LCFI92:
 2372              		.cfi_def_cfa_register 13
 2373              		@ sp needed
 2374 026c 80BD     		pop	{r7, pc}
 2375              	.L157:
 2376 026e 00BF     		.align	2
 2377              	.L156:
 2378 0270 00000140 		.word	1073807360
 2379 0274 00040140 		.word	1073808384
 2380 0278 00040040 		.word	1073742848
 2381 027c 00080040 		.word	1073743872
 2382 0280 000C0040 		.word	1073744896
 2383 0284 00400140 		.word	1073823744
 2384 0288 00180040 		.word	1073747968
 2385 028c 07000100 		.word	65543
 2386              		.cfi_endproc
 2387              	.LFE157:
 2389              		.section	.text.HAL_TIM_OC_Stop_IT,"ax",%progbits
 2390              		.align	1
 2391              		.global	HAL_TIM_OC_Stop_IT
 2392              		.syntax unified
 2393              		.thumb
 2394              		.thumb_func
 2396              	HAL_TIM_OC_Stop_IT:
 2397              	.LFB158:
 966:Drivers/STM32F7xx_HAL_Driver/Src/stm32f7xx_hal_tim.c **** 
 967:Drivers/STM32F7xx_HAL_Driver/Src/stm32f7xx_hal_tim.c **** /**
 968:Drivers/STM32F7xx_HAL_Driver/Src/stm32f7xx_hal_tim.c ****   * @brief  Stops the TIM Output Compare signal generation in interrupt mode.
 969:Drivers/STM32F7xx_HAL_Driver/Src/stm32f7xx_hal_tim.c ****   * @param  htim TIM Output Compare handle
 970:Drivers/STM32F7xx_HAL_Driver/Src/stm32f7xx_hal_tim.c ****   * @param  Channel TIM Channel to be disabled
 971:Drivers/STM32F7xx_HAL_Driver/Src/stm32f7xx_hal_tim.c ****   *          This parameter can be one of the following values:
 972:Drivers/STM32F7xx_HAL_Driver/Src/stm32f7xx_hal_tim.c ****   *            @arg TIM_CHANNEL_1: TIM Channel 1 selected
 973:Drivers/STM32F7xx_HAL_Driver/Src/stm32f7xx_hal_tim.c ****   *            @arg TIM_CHANNEL_2: TIM Channel 2 selected
 974:Drivers/STM32F7xx_HAL_Driver/Src/stm32f7xx_hal_tim.c ****   *            @arg TIM_CHANNEL_3: TIM Channel 3 selected
 975:Drivers/STM32F7xx_HAL_Driver/Src/stm32f7xx_hal_tim.c ****   *            @arg TIM_CHANNEL_4: TIM Channel 4 selected
 976:Drivers/STM32F7xx_HAL_Driver/Src/stm32f7xx_hal_tim.c ****   * @retval HAL status
 977:Drivers/STM32F7xx_HAL_Driver/Src/stm32f7xx_hal_tim.c ****   */
 978:Drivers/STM32F7xx_HAL_Driver/Src/stm32f7xx_hal_tim.c **** HAL_StatusTypeDef HAL_TIM_OC_Stop_IT(TIM_HandleTypeDef *htim, uint32_t Channel)
 979:Drivers/STM32F7xx_HAL_Driver/Src/stm32f7xx_hal_tim.c **** {
 2398              		.loc 1 979 1
 2399              		.cfi_startproc
 2400              		@ args = 0, pretend = 0, frame = 16
 2401              		@ frame_needed = 1, uses_anonymous_args = 0
 2402 0000 80B5     		push	{r7, lr}
 2403              	.LCFI93:
 2404              		.cfi_def_cfa_offset 8
 2405              		.cfi_offset 7, -8
 2406              		.cfi_offset 14, -4
 2407 0002 84B0     		sub	sp, sp, #16
 2408              	.LCFI94:
ARM GAS  C:\Users\jisu8\AppData\Local\Temp\cckFtxsR.s 			page 60


 2409              		.cfi_def_cfa_offset 24
 2410 0004 00AF     		add	r7, sp, #0
 2411              	.LCFI95:
 2412              		.cfi_def_cfa_register 7
 2413 0006 7860     		str	r0, [r7, #4]
 2414 0008 3960     		str	r1, [r7]
 980:Drivers/STM32F7xx_HAL_Driver/Src/stm32f7xx_hal_tim.c ****   HAL_StatusTypeDef status = HAL_OK;
 2415              		.loc 1 980 21
 2416 000a 0023     		movs	r3, #0
 2417 000c FB73     		strb	r3, [r7, #15]
 981:Drivers/STM32F7xx_HAL_Driver/Src/stm32f7xx_hal_tim.c **** 
 982:Drivers/STM32F7xx_HAL_Driver/Src/stm32f7xx_hal_tim.c ****   /* Check the parameters */
 983:Drivers/STM32F7xx_HAL_Driver/Src/stm32f7xx_hal_tim.c ****   assert_param(IS_TIM_CCX_INSTANCE(htim->Instance, Channel));
 984:Drivers/STM32F7xx_HAL_Driver/Src/stm32f7xx_hal_tim.c **** 
 985:Drivers/STM32F7xx_HAL_Driver/Src/stm32f7xx_hal_tim.c ****   switch (Channel)
 2418              		.loc 1 985 3
 2419 000e 3B68     		ldr	r3, [r7]
 2420 0010 0C2B     		cmp	r3, #12
 2421 0012 41D8     		bhi	.L159
 2422 0014 01A2     		adr	r2, .L161
 2423 0016 52F823F0 		ldr	pc, [r2, r3, lsl #2]
 2424 001a 00BF     		.p2align 2
 2425              	.L161:
 2426 001c 51000000 		.word	.L164+1
 2427 0020 99000000 		.word	.L159+1
 2428 0024 99000000 		.word	.L159+1
 2429 0028 99000000 		.word	.L159+1
 2430 002c 63000000 		.word	.L163+1
 2431 0030 99000000 		.word	.L159+1
 2432 0034 99000000 		.word	.L159+1
 2433 0038 99000000 		.word	.L159+1
 2434 003c 75000000 		.word	.L162+1
 2435 0040 99000000 		.word	.L159+1
 2436 0044 99000000 		.word	.L159+1
 2437 0048 99000000 		.word	.L159+1
 2438 004c 87000000 		.word	.L160+1
 2439              		.p2align 1
 2440              	.L164:
 986:Drivers/STM32F7xx_HAL_Driver/Src/stm32f7xx_hal_tim.c ****   {
 987:Drivers/STM32F7xx_HAL_Driver/Src/stm32f7xx_hal_tim.c ****     case TIM_CHANNEL_1:
 988:Drivers/STM32F7xx_HAL_Driver/Src/stm32f7xx_hal_tim.c ****     {
 989:Drivers/STM32F7xx_HAL_Driver/Src/stm32f7xx_hal_tim.c ****       /* Disable the TIM Capture/Compare 1 interrupt */
 990:Drivers/STM32F7xx_HAL_Driver/Src/stm32f7xx_hal_tim.c ****       __HAL_TIM_DISABLE_IT(htim, TIM_IT_CC1);
 2441              		.loc 1 990 7
 2442 0050 7B68     		ldr	r3, [r7, #4]
 2443 0052 1B68     		ldr	r3, [r3]
 2444 0054 DA68     		ldr	r2, [r3, #12]
 2445 0056 7B68     		ldr	r3, [r7, #4]
 2446 0058 1B68     		ldr	r3, [r3]
 2447 005a 22F00202 		bic	r2, r2, #2
 2448 005e DA60     		str	r2, [r3, #12]
 991:Drivers/STM32F7xx_HAL_Driver/Src/stm32f7xx_hal_tim.c ****       break;
 2449              		.loc 1 991 7
 2450 0060 1DE0     		b	.L165
 2451              	.L163:
 992:Drivers/STM32F7xx_HAL_Driver/Src/stm32f7xx_hal_tim.c ****     }
 993:Drivers/STM32F7xx_HAL_Driver/Src/stm32f7xx_hal_tim.c **** 
ARM GAS  C:\Users\jisu8\AppData\Local\Temp\cckFtxsR.s 			page 61


 994:Drivers/STM32F7xx_HAL_Driver/Src/stm32f7xx_hal_tim.c ****     case TIM_CHANNEL_2:
 995:Drivers/STM32F7xx_HAL_Driver/Src/stm32f7xx_hal_tim.c ****     {
 996:Drivers/STM32F7xx_HAL_Driver/Src/stm32f7xx_hal_tim.c ****       /* Disable the TIM Capture/Compare 2 interrupt */
 997:Drivers/STM32F7xx_HAL_Driver/Src/stm32f7xx_hal_tim.c ****       __HAL_TIM_DISABLE_IT(htim, TIM_IT_CC2);
 2452              		.loc 1 997 7
 2453 0062 7B68     		ldr	r3, [r7, #4]
 2454 0064 1B68     		ldr	r3, [r3]
 2455 0066 DA68     		ldr	r2, [r3, #12]
 2456 0068 7B68     		ldr	r3, [r7, #4]
 2457 006a 1B68     		ldr	r3, [r3]
 2458 006c 22F00402 		bic	r2, r2, #4
 2459 0070 DA60     		str	r2, [r3, #12]
 998:Drivers/STM32F7xx_HAL_Driver/Src/stm32f7xx_hal_tim.c ****       break;
 2460              		.loc 1 998 7
 2461 0072 14E0     		b	.L165
 2462              	.L162:
 999:Drivers/STM32F7xx_HAL_Driver/Src/stm32f7xx_hal_tim.c ****     }
1000:Drivers/STM32F7xx_HAL_Driver/Src/stm32f7xx_hal_tim.c **** 
1001:Drivers/STM32F7xx_HAL_Driver/Src/stm32f7xx_hal_tim.c ****     case TIM_CHANNEL_3:
1002:Drivers/STM32F7xx_HAL_Driver/Src/stm32f7xx_hal_tim.c ****     {
1003:Drivers/STM32F7xx_HAL_Driver/Src/stm32f7xx_hal_tim.c ****       /* Disable the TIM Capture/Compare 3 interrupt */
1004:Drivers/STM32F7xx_HAL_Driver/Src/stm32f7xx_hal_tim.c ****       __HAL_TIM_DISABLE_IT(htim, TIM_IT_CC3);
 2463              		.loc 1 1004 7
 2464 0074 7B68     		ldr	r3, [r7, #4]
 2465 0076 1B68     		ldr	r3, [r3]
 2466 0078 DA68     		ldr	r2, [r3, #12]
 2467 007a 7B68     		ldr	r3, [r7, #4]
 2468 007c 1B68     		ldr	r3, [r3]
 2469 007e 22F00802 		bic	r2, r2, #8
 2470 0082 DA60     		str	r2, [r3, #12]
1005:Drivers/STM32F7xx_HAL_Driver/Src/stm32f7xx_hal_tim.c ****       break;
 2471              		.loc 1 1005 7
 2472 0084 0BE0     		b	.L165
 2473              	.L160:
1006:Drivers/STM32F7xx_HAL_Driver/Src/stm32f7xx_hal_tim.c ****     }
1007:Drivers/STM32F7xx_HAL_Driver/Src/stm32f7xx_hal_tim.c **** 
1008:Drivers/STM32F7xx_HAL_Driver/Src/stm32f7xx_hal_tim.c ****     case TIM_CHANNEL_4:
1009:Drivers/STM32F7xx_HAL_Driver/Src/stm32f7xx_hal_tim.c ****     {
1010:Drivers/STM32F7xx_HAL_Driver/Src/stm32f7xx_hal_tim.c ****       /* Disable the TIM Capture/Compare 4 interrupt */
1011:Drivers/STM32F7xx_HAL_Driver/Src/stm32f7xx_hal_tim.c ****       __HAL_TIM_DISABLE_IT(htim, TIM_IT_CC4);
 2474              		.loc 1 1011 7
 2475 0086 7B68     		ldr	r3, [r7, #4]
 2476 0088 1B68     		ldr	r3, [r3]
 2477 008a DA68     		ldr	r2, [r3, #12]
 2478 008c 7B68     		ldr	r3, [r7, #4]
 2479 008e 1B68     		ldr	r3, [r3]
 2480 0090 22F01002 		bic	r2, r2, #16
 2481 0094 DA60     		str	r2, [r3, #12]
1012:Drivers/STM32F7xx_HAL_Driver/Src/stm32f7xx_hal_tim.c ****       break;
 2482              		.loc 1 1012 7
 2483 0096 02E0     		b	.L165
 2484              	.L159:
1013:Drivers/STM32F7xx_HAL_Driver/Src/stm32f7xx_hal_tim.c ****     }
1014:Drivers/STM32F7xx_HAL_Driver/Src/stm32f7xx_hal_tim.c **** 
1015:Drivers/STM32F7xx_HAL_Driver/Src/stm32f7xx_hal_tim.c ****     default:
1016:Drivers/STM32F7xx_HAL_Driver/Src/stm32f7xx_hal_tim.c ****       status = HAL_ERROR;
 2485              		.loc 1 1016 14
ARM GAS  C:\Users\jisu8\AppData\Local\Temp\cckFtxsR.s 			page 62


 2486 0098 0123     		movs	r3, #1
 2487 009a FB73     		strb	r3, [r7, #15]
1017:Drivers/STM32F7xx_HAL_Driver/Src/stm32f7xx_hal_tim.c ****       break;
 2488              		.loc 1 1017 7
 2489 009c 00BF     		nop
 2490              	.L165:
1018:Drivers/STM32F7xx_HAL_Driver/Src/stm32f7xx_hal_tim.c ****   }
1019:Drivers/STM32F7xx_HAL_Driver/Src/stm32f7xx_hal_tim.c **** 
1020:Drivers/STM32F7xx_HAL_Driver/Src/stm32f7xx_hal_tim.c ****   if (status == HAL_OK)
 2491              		.loc 1 1020 6
 2492 009e FB7B     		ldrb	r3, [r7, #15]	@ zero_extendqisi2
 2493 00a0 002B     		cmp	r3, #0
 2494 00a2 71D1     		bne	.L166
1021:Drivers/STM32F7xx_HAL_Driver/Src/stm32f7xx_hal_tim.c ****   {
1022:Drivers/STM32F7xx_HAL_Driver/Src/stm32f7xx_hal_tim.c ****     /* Disable the Output compare channel */
1023:Drivers/STM32F7xx_HAL_Driver/Src/stm32f7xx_hal_tim.c ****     TIM_CCxChannelCmd(htim->Instance, Channel, TIM_CCx_DISABLE);
 2495              		.loc 1 1023 5
 2496 00a4 7B68     		ldr	r3, [r7, #4]
 2497 00a6 1B68     		ldr	r3, [r3]
 2498 00a8 0022     		movs	r2, #0
 2499 00aa 3968     		ldr	r1, [r7]
 2500 00ac 1846     		mov	r0, r3
 2501 00ae FFF7FEFF 		bl	TIM_CCxChannelCmd
1024:Drivers/STM32F7xx_HAL_Driver/Src/stm32f7xx_hal_tim.c **** 
1025:Drivers/STM32F7xx_HAL_Driver/Src/stm32f7xx_hal_tim.c ****     if (IS_TIM_BREAK_INSTANCE(htim->Instance) != RESET)
 2502              		.loc 1 1025 9
 2503 00b2 7B68     		ldr	r3, [r7, #4]
 2504 00b4 1B68     		ldr	r3, [r3]
 2505 00b6 374A     		ldr	r2, .L182
 2506 00b8 9342     		cmp	r3, r2
 2507 00ba 04D0     		beq	.L167
 2508              		.loc 1 1025 9 is_stmt 0 discriminator 2
 2509 00bc 7B68     		ldr	r3, [r7, #4]
 2510 00be 1B68     		ldr	r3, [r3]
 2511 00c0 354A     		ldr	r2, .L182+4
 2512 00c2 9342     		cmp	r3, r2
 2513 00c4 01D1     		bne	.L168
 2514              	.L167:
 2515              		.loc 1 1025 9 discriminator 3
 2516 00c6 0123     		movs	r3, #1
 2517 00c8 00E0     		b	.L169
 2518              	.L168:
 2519              		.loc 1 1025 9 discriminator 4
 2520 00ca 0023     		movs	r3, #0
 2521              	.L169:
 2522              		.loc 1 1025 8 is_stmt 1 discriminator 6
 2523 00cc 002B     		cmp	r3, #0
 2524 00ce 17D0     		beq	.L170
1026:Drivers/STM32F7xx_HAL_Driver/Src/stm32f7xx_hal_tim.c ****     {
1027:Drivers/STM32F7xx_HAL_Driver/Src/stm32f7xx_hal_tim.c ****       /* Disable the Main Output */
1028:Drivers/STM32F7xx_HAL_Driver/Src/stm32f7xx_hal_tim.c ****       __HAL_TIM_MOE_DISABLE(htim);
 2525              		.loc 1 1028 7
 2526 00d0 7B68     		ldr	r3, [r7, #4]
 2527 00d2 1B68     		ldr	r3, [r3]
 2528 00d4 1A6A     		ldr	r2, [r3, #32]
 2529 00d6 41F21113 		movw	r3, #4369
 2530 00da 1340     		ands	r3, r3, r2
ARM GAS  C:\Users\jisu8\AppData\Local\Temp\cckFtxsR.s 			page 63


 2531 00dc 002B     		cmp	r3, #0
 2532 00de 0FD1     		bne	.L170
 2533              		.loc 1 1028 7 is_stmt 0 discriminator 1
 2534 00e0 7B68     		ldr	r3, [r7, #4]
 2535 00e2 1B68     		ldr	r3, [r3]
 2536 00e4 1A6A     		ldr	r2, [r3, #32]
 2537 00e6 40F24443 		movw	r3, #1092
 2538 00ea 1340     		ands	r3, r3, r2
 2539 00ec 002B     		cmp	r3, #0
 2540 00ee 07D1     		bne	.L170
 2541              		.loc 1 1028 7 discriminator 2
 2542 00f0 7B68     		ldr	r3, [r7, #4]
 2543 00f2 1B68     		ldr	r3, [r3]
 2544 00f4 5A6C     		ldr	r2, [r3, #68]
 2545 00f6 7B68     		ldr	r3, [r7, #4]
 2546 00f8 1B68     		ldr	r3, [r3]
 2547 00fa 22F40042 		bic	r2, r2, #32768
 2548 00fe 5A64     		str	r2, [r3, #68]
 2549              	.L170:
1029:Drivers/STM32F7xx_HAL_Driver/Src/stm32f7xx_hal_tim.c ****     }
1030:Drivers/STM32F7xx_HAL_Driver/Src/stm32f7xx_hal_tim.c **** 
1031:Drivers/STM32F7xx_HAL_Driver/Src/stm32f7xx_hal_tim.c ****     /* Disable the Peripheral */
1032:Drivers/STM32F7xx_HAL_Driver/Src/stm32f7xx_hal_tim.c ****     __HAL_TIM_DISABLE(htim);
 2550              		.loc 1 1032 5 is_stmt 1
 2551 0100 7B68     		ldr	r3, [r7, #4]
 2552 0102 1B68     		ldr	r3, [r3]
 2553 0104 1A6A     		ldr	r2, [r3, #32]
 2554 0106 41F21113 		movw	r3, #4369
 2555 010a 1340     		ands	r3, r3, r2
 2556 010c 002B     		cmp	r3, #0
 2557 010e 0FD1     		bne	.L171
 2558              		.loc 1 1032 5 is_stmt 0 discriminator 1
 2559 0110 7B68     		ldr	r3, [r7, #4]
 2560 0112 1B68     		ldr	r3, [r3]
 2561 0114 1A6A     		ldr	r2, [r3, #32]
 2562 0116 40F24443 		movw	r3, #1092
 2563 011a 1340     		ands	r3, r3, r2
 2564 011c 002B     		cmp	r3, #0
 2565 011e 07D1     		bne	.L171
 2566              		.loc 1 1032 5 discriminator 2
 2567 0120 7B68     		ldr	r3, [r7, #4]
 2568 0122 1B68     		ldr	r3, [r3]
 2569 0124 1A68     		ldr	r2, [r3]
 2570 0126 7B68     		ldr	r3, [r7, #4]
 2571 0128 1B68     		ldr	r3, [r3]
 2572 012a 22F00102 		bic	r2, r2, #1
 2573 012e 1A60     		str	r2, [r3]
 2574              	.L171:
1033:Drivers/STM32F7xx_HAL_Driver/Src/stm32f7xx_hal_tim.c **** 
1034:Drivers/STM32F7xx_HAL_Driver/Src/stm32f7xx_hal_tim.c ****     /* Set the TIM channel state */
1035:Drivers/STM32F7xx_HAL_Driver/Src/stm32f7xx_hal_tim.c ****     TIM_CHANNEL_STATE_SET(htim, Channel, HAL_TIM_CHANNEL_STATE_READY);
 2575              		.loc 1 1035 5 is_stmt 1
 2576 0130 3B68     		ldr	r3, [r7]
 2577 0132 002B     		cmp	r3, #0
 2578 0134 04D1     		bne	.L172
 2579              		.loc 1 1035 5 is_stmt 0 discriminator 1
 2580 0136 7B68     		ldr	r3, [r7, #4]
ARM GAS  C:\Users\jisu8\AppData\Local\Temp\cckFtxsR.s 			page 64


 2581 0138 0122     		movs	r2, #1
 2582 013a 83F83E20 		strb	r2, [r3, #62]
 2583 013e 23E0     		b	.L166
 2584              	.L172:
 2585              		.loc 1 1035 5 discriminator 2
 2586 0140 3B68     		ldr	r3, [r7]
 2587 0142 042B     		cmp	r3, #4
 2588 0144 04D1     		bne	.L173
 2589              		.loc 1 1035 5 discriminator 3
 2590 0146 7B68     		ldr	r3, [r7, #4]
 2591 0148 0122     		movs	r2, #1
 2592 014a 83F83F20 		strb	r2, [r3, #63]
 2593 014e 1BE0     		b	.L166
 2594              	.L173:
 2595              		.loc 1 1035 5 discriminator 4
 2596 0150 3B68     		ldr	r3, [r7]
 2597 0152 082B     		cmp	r3, #8
 2598 0154 04D1     		bne	.L175
 2599              		.loc 1 1035 5 discriminator 6
 2600 0156 7B68     		ldr	r3, [r7, #4]
 2601 0158 0122     		movs	r2, #1
 2602 015a 83F84020 		strb	r2, [r3, #64]
 2603 015e 13E0     		b	.L166
 2604              	.L175:
 2605              		.loc 1 1035 5 discriminator 7
 2606 0160 3B68     		ldr	r3, [r7]
 2607 0162 0C2B     		cmp	r3, #12
 2608 0164 04D1     		bne	.L177
 2609              		.loc 1 1035 5 discriminator 9
 2610 0166 7B68     		ldr	r3, [r7, #4]
 2611 0168 0122     		movs	r2, #1
 2612 016a 83F84120 		strb	r2, [r3, #65]
 2613 016e 0BE0     		b	.L166
 2614              	.L177:
 2615              		.loc 1 1035 5 discriminator 10
 2616 0170 3B68     		ldr	r3, [r7]
 2617 0172 102B     		cmp	r3, #16
 2618 0174 04D1     		bne	.L179
 2619              		.loc 1 1035 5 discriminator 12
 2620 0176 7B68     		ldr	r3, [r7, #4]
 2621 0178 0122     		movs	r2, #1
 2622 017a 83F84220 		strb	r2, [r3, #66]
 2623 017e 03E0     		b	.L166
 2624              	.L179:
 2625              		.loc 1 1035 5 discriminator 13
 2626 0180 7B68     		ldr	r3, [r7, #4]
 2627 0182 0122     		movs	r2, #1
 2628 0184 83F84320 		strb	r2, [r3, #67]
 2629              	.L166:
1036:Drivers/STM32F7xx_HAL_Driver/Src/stm32f7xx_hal_tim.c ****   }
1037:Drivers/STM32F7xx_HAL_Driver/Src/stm32f7xx_hal_tim.c **** 
1038:Drivers/STM32F7xx_HAL_Driver/Src/stm32f7xx_hal_tim.c ****   /* Return function status */
1039:Drivers/STM32F7xx_HAL_Driver/Src/stm32f7xx_hal_tim.c ****   return status;
 2630              		.loc 1 1039 10 is_stmt 1
 2631 0188 FB7B     		ldrb	r3, [r7, #15]	@ zero_extendqisi2
1040:Drivers/STM32F7xx_HAL_Driver/Src/stm32f7xx_hal_tim.c **** }
 2632              		.loc 1 1040 1
ARM GAS  C:\Users\jisu8\AppData\Local\Temp\cckFtxsR.s 			page 65


 2633 018a 1846     		mov	r0, r3
 2634 018c 1037     		adds	r7, r7, #16
 2635              	.LCFI96:
 2636              		.cfi_def_cfa_offset 8
 2637 018e BD46     		mov	sp, r7
 2638              	.LCFI97:
 2639              		.cfi_def_cfa_register 13
 2640              		@ sp needed
 2641 0190 80BD     		pop	{r7, pc}
 2642              	.L183:
 2643 0192 00BF     		.align	2
 2644              	.L182:
 2645 0194 00000140 		.word	1073807360
 2646 0198 00040140 		.word	1073808384
 2647              		.cfi_endproc
 2648              	.LFE158:
 2650              		.section	.text.HAL_TIM_OC_Start_DMA,"ax",%progbits
 2651              		.align	1
 2652              		.global	HAL_TIM_OC_Start_DMA
 2653              		.syntax unified
 2654              		.thumb
 2655              		.thumb_func
 2657              	HAL_TIM_OC_Start_DMA:
 2658              	.LFB159:
1041:Drivers/STM32F7xx_HAL_Driver/Src/stm32f7xx_hal_tim.c **** 
1042:Drivers/STM32F7xx_HAL_Driver/Src/stm32f7xx_hal_tim.c **** /**
1043:Drivers/STM32F7xx_HAL_Driver/Src/stm32f7xx_hal_tim.c ****   * @brief  Starts the TIM Output Compare signal generation in DMA mode.
1044:Drivers/STM32F7xx_HAL_Driver/Src/stm32f7xx_hal_tim.c ****   * @param  htim TIM Output Compare handle
1045:Drivers/STM32F7xx_HAL_Driver/Src/stm32f7xx_hal_tim.c ****   * @param  Channel TIM Channel to be enabled
1046:Drivers/STM32F7xx_HAL_Driver/Src/stm32f7xx_hal_tim.c ****   *          This parameter can be one of the following values:
1047:Drivers/STM32F7xx_HAL_Driver/Src/stm32f7xx_hal_tim.c ****   *            @arg TIM_CHANNEL_1: TIM Channel 1 selected
1048:Drivers/STM32F7xx_HAL_Driver/Src/stm32f7xx_hal_tim.c ****   *            @arg TIM_CHANNEL_2: TIM Channel 2 selected
1049:Drivers/STM32F7xx_HAL_Driver/Src/stm32f7xx_hal_tim.c ****   *            @arg TIM_CHANNEL_3: TIM Channel 3 selected
1050:Drivers/STM32F7xx_HAL_Driver/Src/stm32f7xx_hal_tim.c ****   *            @arg TIM_CHANNEL_4: TIM Channel 4 selected
1051:Drivers/STM32F7xx_HAL_Driver/Src/stm32f7xx_hal_tim.c ****   * @param  pData The source Buffer address.
1052:Drivers/STM32F7xx_HAL_Driver/Src/stm32f7xx_hal_tim.c ****   * @param  Length The length of data to be transferred from memory to TIM peripheral
1053:Drivers/STM32F7xx_HAL_Driver/Src/stm32f7xx_hal_tim.c ****   * @retval HAL status
1054:Drivers/STM32F7xx_HAL_Driver/Src/stm32f7xx_hal_tim.c ****   */
1055:Drivers/STM32F7xx_HAL_Driver/Src/stm32f7xx_hal_tim.c **** HAL_StatusTypeDef HAL_TIM_OC_Start_DMA(TIM_HandleTypeDef *htim, uint32_t Channel, const uint32_t *p
1056:Drivers/STM32F7xx_HAL_Driver/Src/stm32f7xx_hal_tim.c ****                                        uint16_t Length)
1057:Drivers/STM32F7xx_HAL_Driver/Src/stm32f7xx_hal_tim.c **** {
 2659              		.loc 1 1057 1
 2660              		.cfi_startproc
 2661              		@ args = 0, pretend = 0, frame = 24
 2662              		@ frame_needed = 1, uses_anonymous_args = 0
 2663 0000 80B5     		push	{r7, lr}
 2664              	.LCFI98:
 2665              		.cfi_def_cfa_offset 8
 2666              		.cfi_offset 7, -8
 2667              		.cfi_offset 14, -4
 2668 0002 86B0     		sub	sp, sp, #24
 2669              	.LCFI99:
 2670              		.cfi_def_cfa_offset 32
 2671 0004 00AF     		add	r7, sp, #0
 2672              	.LCFI100:
 2673              		.cfi_def_cfa_register 7
 2674 0006 F860     		str	r0, [r7, #12]
ARM GAS  C:\Users\jisu8\AppData\Local\Temp\cckFtxsR.s 			page 66


 2675 0008 B960     		str	r1, [r7, #8]
 2676 000a 7A60     		str	r2, [r7, #4]
 2677 000c 7B80     		strh	r3, [r7, #2]	@ movhi
1058:Drivers/STM32F7xx_HAL_Driver/Src/stm32f7xx_hal_tim.c ****   HAL_StatusTypeDef status = HAL_OK;
 2678              		.loc 1 1058 21
 2679 000e 0023     		movs	r3, #0
 2680 0010 FB75     		strb	r3, [r7, #23]
1059:Drivers/STM32F7xx_HAL_Driver/Src/stm32f7xx_hal_tim.c ****   uint32_t tmpsmcr;
1060:Drivers/STM32F7xx_HAL_Driver/Src/stm32f7xx_hal_tim.c **** 
1061:Drivers/STM32F7xx_HAL_Driver/Src/stm32f7xx_hal_tim.c ****   /* Check the parameters */
1062:Drivers/STM32F7xx_HAL_Driver/Src/stm32f7xx_hal_tim.c ****   assert_param(IS_TIM_CCX_INSTANCE(htim->Instance, Channel));
1063:Drivers/STM32F7xx_HAL_Driver/Src/stm32f7xx_hal_tim.c **** 
1064:Drivers/STM32F7xx_HAL_Driver/Src/stm32f7xx_hal_tim.c ****   /* Set the TIM channel state */
1065:Drivers/STM32F7xx_HAL_Driver/Src/stm32f7xx_hal_tim.c ****   if (TIM_CHANNEL_STATE_GET(htim, Channel) == HAL_TIM_CHANNEL_STATE_BUSY)
 2681              		.loc 1 1065 44
 2682 0012 BB68     		ldr	r3, [r7, #8]
 2683 0014 002B     		cmp	r3, #0
 2684 0016 09D1     		bne	.L185
 2685              		.loc 1 1065 7 discriminator 1
 2686 0018 FB68     		ldr	r3, [r7, #12]
 2687 001a 93F83E30 		ldrb	r3, [r3, #62]
 2688 001e DBB2     		uxtb	r3, r3
 2689              		.loc 1 1065 44 discriminator 1
 2690 0020 022B     		cmp	r3, #2
 2691 0022 0CBF     		ite	eq
 2692 0024 0123     		moveq	r3, #1
 2693 0026 0023     		movne	r3, #0
 2694 0028 DBB2     		uxtb	r3, r3
 2695 002a 3CE0     		b	.L186
 2696              	.L185:
 2697              		.loc 1 1065 44 is_stmt 0 discriminator 2
 2698 002c BB68     		ldr	r3, [r7, #8]
 2699 002e 042B     		cmp	r3, #4
 2700 0030 09D1     		bne	.L187
 2701              		.loc 1 1065 7 is_stmt 1 discriminator 4
 2702 0032 FB68     		ldr	r3, [r7, #12]
 2703 0034 93F83F30 		ldrb	r3, [r3, #63]
 2704 0038 DBB2     		uxtb	r3, r3
 2705              		.loc 1 1065 44 discriminator 4
 2706 003a 022B     		cmp	r3, #2
 2707 003c 0CBF     		ite	eq
 2708 003e 0123     		moveq	r3, #1
 2709 0040 0023     		movne	r3, #0
 2710 0042 DBB2     		uxtb	r3, r3
 2711 0044 2FE0     		b	.L186
 2712              	.L187:
 2713              		.loc 1 1065 44 is_stmt 0 discriminator 5
 2714 0046 BB68     		ldr	r3, [r7, #8]
 2715 0048 082B     		cmp	r3, #8
 2716 004a 09D1     		bne	.L189
 2717              		.loc 1 1065 7 is_stmt 1 discriminator 7
 2718 004c FB68     		ldr	r3, [r7, #12]
 2719 004e 93F84030 		ldrb	r3, [r3, #64]
 2720 0052 DBB2     		uxtb	r3, r3
 2721              		.loc 1 1065 44 discriminator 7
 2722 0054 022B     		cmp	r3, #2
 2723 0056 0CBF     		ite	eq
ARM GAS  C:\Users\jisu8\AppData\Local\Temp\cckFtxsR.s 			page 67


 2724 0058 0123     		moveq	r3, #1
 2725 005a 0023     		movne	r3, #0
 2726 005c DBB2     		uxtb	r3, r3
 2727 005e 22E0     		b	.L186
 2728              	.L189:
 2729              		.loc 1 1065 44 is_stmt 0 discriminator 8
 2730 0060 BB68     		ldr	r3, [r7, #8]
 2731 0062 0C2B     		cmp	r3, #12
 2732 0064 09D1     		bne	.L191
 2733              		.loc 1 1065 7 is_stmt 1 discriminator 10
 2734 0066 FB68     		ldr	r3, [r7, #12]
 2735 0068 93F84130 		ldrb	r3, [r3, #65]
 2736 006c DBB2     		uxtb	r3, r3
 2737              		.loc 1 1065 44 discriminator 10
 2738 006e 022B     		cmp	r3, #2
 2739 0070 0CBF     		ite	eq
 2740 0072 0123     		moveq	r3, #1
 2741 0074 0023     		movne	r3, #0
 2742 0076 DBB2     		uxtb	r3, r3
 2743 0078 15E0     		b	.L186
 2744              	.L191:
 2745              		.loc 1 1065 44 is_stmt 0 discriminator 11
 2746 007a BB68     		ldr	r3, [r7, #8]
 2747 007c 102B     		cmp	r3, #16
 2748 007e 09D1     		bne	.L193
 2749              		.loc 1 1065 7 is_stmt 1 discriminator 13
 2750 0080 FB68     		ldr	r3, [r7, #12]
 2751 0082 93F84230 		ldrb	r3, [r3, #66]
 2752 0086 DBB2     		uxtb	r3, r3
 2753              		.loc 1 1065 44 discriminator 13
 2754 0088 022B     		cmp	r3, #2
 2755 008a 0CBF     		ite	eq
 2756 008c 0123     		moveq	r3, #1
 2757 008e 0023     		movne	r3, #0
 2758 0090 DBB2     		uxtb	r3, r3
 2759 0092 08E0     		b	.L186
 2760              	.L193:
 2761              		.loc 1 1065 7 discriminator 14
 2762 0094 FB68     		ldr	r3, [r7, #12]
 2763 0096 93F84330 		ldrb	r3, [r3, #67]
 2764 009a DBB2     		uxtb	r3, r3
 2765              		.loc 1 1065 44 discriminator 14
 2766 009c 022B     		cmp	r3, #2
 2767 009e 0CBF     		ite	eq
 2768 00a0 0123     		moveq	r3, #1
 2769 00a2 0023     		movne	r3, #0
 2770 00a4 DBB2     		uxtb	r3, r3
 2771              	.L186:
 2772              		.loc 1 1065 6 discriminator 20
 2773 00a6 002B     		cmp	r3, #0
 2774 00a8 01D0     		beq	.L195
1066:Drivers/STM32F7xx_HAL_Driver/Src/stm32f7xx_hal_tim.c ****   {
1067:Drivers/STM32F7xx_HAL_Driver/Src/stm32f7xx_hal_tim.c ****     return HAL_BUSY;
 2775              		.loc 1 1067 12
 2776 00aa 0223     		movs	r3, #2
 2777 00ac A1E1     		b	.L196
 2778              	.L195:
ARM GAS  C:\Users\jisu8\AppData\Local\Temp\cckFtxsR.s 			page 68


1068:Drivers/STM32F7xx_HAL_Driver/Src/stm32f7xx_hal_tim.c ****   }
1069:Drivers/STM32F7xx_HAL_Driver/Src/stm32f7xx_hal_tim.c ****   else if (TIM_CHANNEL_STATE_GET(htim, Channel) == HAL_TIM_CHANNEL_STATE_READY)
 2779              		.loc 1 1069 49
 2780 00ae BB68     		ldr	r3, [r7, #8]
 2781 00b0 002B     		cmp	r3, #0
 2782 00b2 09D1     		bne	.L197
 2783              		.loc 1 1069 12 discriminator 1
 2784 00b4 FB68     		ldr	r3, [r7, #12]
 2785 00b6 93F83E30 		ldrb	r3, [r3, #62]
 2786 00ba DBB2     		uxtb	r3, r3
 2787              		.loc 1 1069 49 discriminator 1
 2788 00bc 012B     		cmp	r3, #1
 2789 00be 0CBF     		ite	eq
 2790 00c0 0123     		moveq	r3, #1
 2791 00c2 0023     		movne	r3, #0
 2792 00c4 DBB2     		uxtb	r3, r3
 2793 00c6 3CE0     		b	.L198
 2794              	.L197:
 2795              		.loc 1 1069 49 is_stmt 0 discriminator 2
 2796 00c8 BB68     		ldr	r3, [r7, #8]
 2797 00ca 042B     		cmp	r3, #4
 2798 00cc 09D1     		bne	.L199
 2799              		.loc 1 1069 12 is_stmt 1 discriminator 4
 2800 00ce FB68     		ldr	r3, [r7, #12]
 2801 00d0 93F83F30 		ldrb	r3, [r3, #63]
 2802 00d4 DBB2     		uxtb	r3, r3
 2803              		.loc 1 1069 49 discriminator 4
 2804 00d6 012B     		cmp	r3, #1
 2805 00d8 0CBF     		ite	eq
 2806 00da 0123     		moveq	r3, #1
 2807 00dc 0023     		movne	r3, #0
 2808 00de DBB2     		uxtb	r3, r3
 2809 00e0 2FE0     		b	.L198
 2810              	.L199:
 2811              		.loc 1 1069 49 is_stmt 0 discriminator 5
 2812 00e2 BB68     		ldr	r3, [r7, #8]
 2813 00e4 082B     		cmp	r3, #8
 2814 00e6 09D1     		bne	.L201
 2815              		.loc 1 1069 12 is_stmt 1 discriminator 7
 2816 00e8 FB68     		ldr	r3, [r7, #12]
 2817 00ea 93F84030 		ldrb	r3, [r3, #64]
 2818 00ee DBB2     		uxtb	r3, r3
 2819              		.loc 1 1069 49 discriminator 7
 2820 00f0 012B     		cmp	r3, #1
 2821 00f2 0CBF     		ite	eq
 2822 00f4 0123     		moveq	r3, #1
 2823 00f6 0023     		movne	r3, #0
 2824 00f8 DBB2     		uxtb	r3, r3
 2825 00fa 22E0     		b	.L198
 2826              	.L201:
 2827              		.loc 1 1069 49 is_stmt 0 discriminator 8
 2828 00fc BB68     		ldr	r3, [r7, #8]
 2829 00fe 0C2B     		cmp	r3, #12
 2830 0100 09D1     		bne	.L203
 2831              		.loc 1 1069 12 is_stmt 1 discriminator 10
 2832 0102 FB68     		ldr	r3, [r7, #12]
 2833 0104 93F84130 		ldrb	r3, [r3, #65]
ARM GAS  C:\Users\jisu8\AppData\Local\Temp\cckFtxsR.s 			page 69


 2834 0108 DBB2     		uxtb	r3, r3
 2835              		.loc 1 1069 49 discriminator 10
 2836 010a 012B     		cmp	r3, #1
 2837 010c 0CBF     		ite	eq
 2838 010e 0123     		moveq	r3, #1
 2839 0110 0023     		movne	r3, #0
 2840 0112 DBB2     		uxtb	r3, r3
 2841 0114 15E0     		b	.L198
 2842              	.L203:
 2843              		.loc 1 1069 49 is_stmt 0 discriminator 11
 2844 0116 BB68     		ldr	r3, [r7, #8]
 2845 0118 102B     		cmp	r3, #16
 2846 011a 09D1     		bne	.L205
 2847              		.loc 1 1069 12 is_stmt 1 discriminator 13
 2848 011c FB68     		ldr	r3, [r7, #12]
 2849 011e 93F84230 		ldrb	r3, [r3, #66]
 2850 0122 DBB2     		uxtb	r3, r3
 2851              		.loc 1 1069 49 discriminator 13
 2852 0124 012B     		cmp	r3, #1
 2853 0126 0CBF     		ite	eq
 2854 0128 0123     		moveq	r3, #1
 2855 012a 0023     		movne	r3, #0
 2856 012c DBB2     		uxtb	r3, r3
 2857 012e 08E0     		b	.L198
 2858              	.L205:
 2859              		.loc 1 1069 12 discriminator 14
 2860 0130 FB68     		ldr	r3, [r7, #12]
 2861 0132 93F84330 		ldrb	r3, [r3, #67]
 2862 0136 DBB2     		uxtb	r3, r3
 2863              		.loc 1 1069 49 discriminator 14
 2864 0138 012B     		cmp	r3, #1
 2865 013a 0CBF     		ite	eq
 2866 013c 0123     		moveq	r3, #1
 2867 013e 0023     		movne	r3, #0
 2868 0140 DBB2     		uxtb	r3, r3
 2869              	.L198:
 2870              		.loc 1 1069 11 discriminator 20
 2871 0142 002B     		cmp	r3, #0
 2872 0144 34D0     		beq	.L207
1070:Drivers/STM32F7xx_HAL_Driver/Src/stm32f7xx_hal_tim.c ****   {
1071:Drivers/STM32F7xx_HAL_Driver/Src/stm32f7xx_hal_tim.c ****     if ((pData == NULL) || (Length == 0U))
 2873              		.loc 1 1071 8
 2874 0146 7B68     		ldr	r3, [r7, #4]
 2875 0148 002B     		cmp	r3, #0
 2876 014a 02D0     		beq	.L208
 2877              		.loc 1 1071 25 discriminator 1
 2878 014c 7B88     		ldrh	r3, [r7, #2]
 2879 014e 002B     		cmp	r3, #0
 2880 0150 01D1     		bne	.L209
 2881              	.L208:
1072:Drivers/STM32F7xx_HAL_Driver/Src/stm32f7xx_hal_tim.c ****     {
1073:Drivers/STM32F7xx_HAL_Driver/Src/stm32f7xx_hal_tim.c ****       return HAL_ERROR;
 2882              		.loc 1 1073 14
 2883 0152 0123     		movs	r3, #1
 2884 0154 4DE1     		b	.L196
 2885              	.L209:
1074:Drivers/STM32F7xx_HAL_Driver/Src/stm32f7xx_hal_tim.c ****     }
ARM GAS  C:\Users\jisu8\AppData\Local\Temp\cckFtxsR.s 			page 70


1075:Drivers/STM32F7xx_HAL_Driver/Src/stm32f7xx_hal_tim.c ****     else
1076:Drivers/STM32F7xx_HAL_Driver/Src/stm32f7xx_hal_tim.c ****     {
1077:Drivers/STM32F7xx_HAL_Driver/Src/stm32f7xx_hal_tim.c ****       TIM_CHANNEL_STATE_SET(htim, Channel, HAL_TIM_CHANNEL_STATE_BUSY);
 2886              		.loc 1 1077 7
 2887 0156 BB68     		ldr	r3, [r7, #8]
 2888 0158 002B     		cmp	r3, #0
 2889 015a 04D1     		bne	.L210
 2890              		.loc 1 1077 7 is_stmt 0 discriminator 1
 2891 015c FB68     		ldr	r3, [r7, #12]
 2892 015e 0222     		movs	r2, #2
 2893 0160 83F83E20 		strb	r2, [r3, #62]
 2894 0164 26E0     		b	.L211
 2895              	.L210:
 2896              		.loc 1 1077 7 discriminator 2
 2897 0166 BB68     		ldr	r3, [r7, #8]
 2898 0168 042B     		cmp	r3, #4
 2899 016a 04D1     		bne	.L212
 2900              		.loc 1 1077 7 discriminator 3
 2901 016c FB68     		ldr	r3, [r7, #12]
 2902 016e 0222     		movs	r2, #2
 2903 0170 83F83F20 		strb	r2, [r3, #63]
 2904 0174 1EE0     		b	.L211
 2905              	.L212:
 2906              		.loc 1 1077 7 discriminator 4
 2907 0176 BB68     		ldr	r3, [r7, #8]
 2908 0178 082B     		cmp	r3, #8
 2909 017a 04D1     		bne	.L214
 2910              		.loc 1 1077 7 discriminator 6
 2911 017c FB68     		ldr	r3, [r7, #12]
 2912 017e 0222     		movs	r2, #2
 2913 0180 83F84020 		strb	r2, [r3, #64]
 2914 0184 16E0     		b	.L211
 2915              	.L214:
 2916              		.loc 1 1077 7 discriminator 7
 2917 0186 BB68     		ldr	r3, [r7, #8]
 2918 0188 0C2B     		cmp	r3, #12
 2919 018a 04D1     		bne	.L216
 2920              		.loc 1 1077 7 discriminator 9
 2921 018c FB68     		ldr	r3, [r7, #12]
 2922 018e 0222     		movs	r2, #2
 2923 0190 83F84120 		strb	r2, [r3, #65]
 2924 0194 0EE0     		b	.L211
 2925              	.L216:
 2926              		.loc 1 1077 7 discriminator 10
 2927 0196 BB68     		ldr	r3, [r7, #8]
 2928 0198 102B     		cmp	r3, #16
 2929 019a 04D1     		bne	.L218
 2930              		.loc 1 1077 7 discriminator 12
 2931 019c FB68     		ldr	r3, [r7, #12]
 2932 019e 0222     		movs	r2, #2
 2933 01a0 83F84220 		strb	r2, [r3, #66]
 2934 01a4 06E0     		b	.L211
 2935              	.L218:
 2936              		.loc 1 1077 7 discriminator 13
 2937 01a6 FB68     		ldr	r3, [r7, #12]
 2938 01a8 0222     		movs	r2, #2
 2939 01aa 83F84320 		strb	r2, [r3, #67]
ARM GAS  C:\Users\jisu8\AppData\Local\Temp\cckFtxsR.s 			page 71


 2940 01ae 01E0     		b	.L211
 2941              	.L207:
1078:Drivers/STM32F7xx_HAL_Driver/Src/stm32f7xx_hal_tim.c ****     }
1079:Drivers/STM32F7xx_HAL_Driver/Src/stm32f7xx_hal_tim.c ****   }
1080:Drivers/STM32F7xx_HAL_Driver/Src/stm32f7xx_hal_tim.c ****   else
1081:Drivers/STM32F7xx_HAL_Driver/Src/stm32f7xx_hal_tim.c ****   {
1082:Drivers/STM32F7xx_HAL_Driver/Src/stm32f7xx_hal_tim.c ****     return HAL_ERROR;
 2942              		.loc 1 1082 12 is_stmt 1
 2943 01b0 0123     		movs	r3, #1
 2944 01b2 1EE1     		b	.L196
 2945              	.L211:
1083:Drivers/STM32F7xx_HAL_Driver/Src/stm32f7xx_hal_tim.c ****   }
1084:Drivers/STM32F7xx_HAL_Driver/Src/stm32f7xx_hal_tim.c **** 
1085:Drivers/STM32F7xx_HAL_Driver/Src/stm32f7xx_hal_tim.c ****   switch (Channel)
 2946              		.loc 1 1085 3
 2947 01b4 BB68     		ldr	r3, [r7, #8]
 2948 01b6 0C2B     		cmp	r3, #12
 2949 01b8 00F2AE80 		bhi	.L220
 2950 01bc 01A2     		adr	r2, .L222
 2951 01be 52F823F0 		ldr	pc, [r2, r3, lsl #2]
 2952 01c2 00BF     		.p2align 2
 2953              	.L222:
 2954 01c4 F9010000 		.word	.L225+1
 2955 01c8 19030000 		.word	.L220+1
 2956 01cc 19030000 		.word	.L220+1
 2957 01d0 19030000 		.word	.L220+1
 2958 01d4 41020000 		.word	.L224+1
 2959 01d8 19030000 		.word	.L220+1
 2960 01dc 19030000 		.word	.L220+1
 2961 01e0 19030000 		.word	.L220+1
 2962 01e4 89020000 		.word	.L223+1
 2963 01e8 19030000 		.word	.L220+1
 2964 01ec 19030000 		.word	.L220+1
 2965 01f0 19030000 		.word	.L220+1
 2966 01f4 D1020000 		.word	.L221+1
 2967              		.p2align 1
 2968              	.L225:
1086:Drivers/STM32F7xx_HAL_Driver/Src/stm32f7xx_hal_tim.c ****   {
1087:Drivers/STM32F7xx_HAL_Driver/Src/stm32f7xx_hal_tim.c ****     case TIM_CHANNEL_1:
1088:Drivers/STM32F7xx_HAL_Driver/Src/stm32f7xx_hal_tim.c ****     {
1089:Drivers/STM32F7xx_HAL_Driver/Src/stm32f7xx_hal_tim.c ****       /* Set the DMA compare callbacks */
1090:Drivers/STM32F7xx_HAL_Driver/Src/stm32f7xx_hal_tim.c ****       htim->hdma[TIM_DMA_ID_CC1]->XferCpltCallback = TIM_DMADelayPulseCplt;
 2969              		.loc 1 1090 17
 2970 01f8 FB68     		ldr	r3, [r7, #12]
 2971 01fa 5B6A     		ldr	r3, [r3, #36]
 2972              		.loc 1 1090 52
 2973 01fc 7F4A     		ldr	r2, .L240
 2974 01fe DA63     		str	r2, [r3, #60]
1091:Drivers/STM32F7xx_HAL_Driver/Src/stm32f7xx_hal_tim.c ****       htim->hdma[TIM_DMA_ID_CC1]->XferHalfCpltCallback = TIM_DMADelayPulseHalfCplt;
 2975              		.loc 1 1091 17
 2976 0200 FB68     		ldr	r3, [r7, #12]
 2977 0202 5B6A     		ldr	r3, [r3, #36]
 2978              		.loc 1 1091 56
 2979 0204 7E4A     		ldr	r2, .L240+4
 2980 0206 1A64     		str	r2, [r3, #64]
1092:Drivers/STM32F7xx_HAL_Driver/Src/stm32f7xx_hal_tim.c **** 
1093:Drivers/STM32F7xx_HAL_Driver/Src/stm32f7xx_hal_tim.c ****       /* Set the DMA error callback */
ARM GAS  C:\Users\jisu8\AppData\Local\Temp\cckFtxsR.s 			page 72


1094:Drivers/STM32F7xx_HAL_Driver/Src/stm32f7xx_hal_tim.c ****       htim->hdma[TIM_DMA_ID_CC1]->XferErrorCallback = TIM_DMAError ;
 2981              		.loc 1 1094 17
 2982 0208 FB68     		ldr	r3, [r7, #12]
 2983 020a 5B6A     		ldr	r3, [r3, #36]
 2984              		.loc 1 1094 53
 2985 020c 7D4A     		ldr	r2, .L240+8
 2986 020e DA64     		str	r2, [r3, #76]
1095:Drivers/STM32F7xx_HAL_Driver/Src/stm32f7xx_hal_tim.c **** 
1096:Drivers/STM32F7xx_HAL_Driver/Src/stm32f7xx_hal_tim.c ****       /* Enable the DMA stream */
1097:Drivers/STM32F7xx_HAL_Driver/Src/stm32f7xx_hal_tim.c ****       if (HAL_DMA_Start_IT(htim->hdma[TIM_DMA_ID_CC1], (uint32_t)pData, (uint32_t)&htim->Instance->
 2987              		.loc 1 1097 11
 2988 0210 FB68     		ldr	r3, [r7, #12]
 2989 0212 586A     		ldr	r0, [r3, #36]
 2990 0214 7968     		ldr	r1, [r7, #4]
 2991              		.loc 1 1097 88
 2992 0216 FB68     		ldr	r3, [r7, #12]
 2993 0218 1B68     		ldr	r3, [r3]
 2994              		.loc 1 1097 83
 2995 021a 3433     		adds	r3, r3, #52
 2996              		.loc 1 1097 11
 2997 021c 1A46     		mov	r2, r3
 2998 021e 7B88     		ldrh	r3, [r7, #2]
 2999 0220 FFF7FEFF 		bl	HAL_DMA_Start_IT
 3000 0224 0346     		mov	r3, r0
 3001              		.loc 1 1097 10
 3002 0226 002B     		cmp	r3, #0
 3003 0228 01D0     		beq	.L226
1098:Drivers/STM32F7xx_HAL_Driver/Src/stm32f7xx_hal_tim.c ****                            Length) != HAL_OK)
1099:Drivers/STM32F7xx_HAL_Driver/Src/stm32f7xx_hal_tim.c ****       {
1100:Drivers/STM32F7xx_HAL_Driver/Src/stm32f7xx_hal_tim.c ****         /* Return error status */
1101:Drivers/STM32F7xx_HAL_Driver/Src/stm32f7xx_hal_tim.c ****         return HAL_ERROR;
 3004              		.loc 1 1101 16
 3005 022a 0123     		movs	r3, #1
 3006 022c E1E0     		b	.L196
 3007              	.L226:
1102:Drivers/STM32F7xx_HAL_Driver/Src/stm32f7xx_hal_tim.c ****       }
1103:Drivers/STM32F7xx_HAL_Driver/Src/stm32f7xx_hal_tim.c **** 
1104:Drivers/STM32F7xx_HAL_Driver/Src/stm32f7xx_hal_tim.c ****       /* Enable the TIM Capture/Compare 1 DMA request */
1105:Drivers/STM32F7xx_HAL_Driver/Src/stm32f7xx_hal_tim.c ****       __HAL_TIM_ENABLE_DMA(htim, TIM_DMA_CC1);
 3008              		.loc 1 1105 7
 3009 022e FB68     		ldr	r3, [r7, #12]
 3010 0230 1B68     		ldr	r3, [r3]
 3011 0232 DA68     		ldr	r2, [r3, #12]
 3012 0234 FB68     		ldr	r3, [r7, #12]
 3013 0236 1B68     		ldr	r3, [r3]
 3014 0238 42F40072 		orr	r2, r2, #512
 3015 023c DA60     		str	r2, [r3, #12]
1106:Drivers/STM32F7xx_HAL_Driver/Src/stm32f7xx_hal_tim.c ****       break;
 3016              		.loc 1 1106 7
 3017 023e 6EE0     		b	.L227
 3018              	.L224:
1107:Drivers/STM32F7xx_HAL_Driver/Src/stm32f7xx_hal_tim.c ****     }
1108:Drivers/STM32F7xx_HAL_Driver/Src/stm32f7xx_hal_tim.c **** 
1109:Drivers/STM32F7xx_HAL_Driver/Src/stm32f7xx_hal_tim.c ****     case TIM_CHANNEL_2:
1110:Drivers/STM32F7xx_HAL_Driver/Src/stm32f7xx_hal_tim.c ****     {
1111:Drivers/STM32F7xx_HAL_Driver/Src/stm32f7xx_hal_tim.c ****       /* Set the DMA compare callbacks */
1112:Drivers/STM32F7xx_HAL_Driver/Src/stm32f7xx_hal_tim.c ****       htim->hdma[TIM_DMA_ID_CC2]->XferCpltCallback = TIM_DMADelayPulseCplt;
ARM GAS  C:\Users\jisu8\AppData\Local\Temp\cckFtxsR.s 			page 73


 3019              		.loc 1 1112 17
 3020 0240 FB68     		ldr	r3, [r7, #12]
 3021 0242 9B6A     		ldr	r3, [r3, #40]
 3022              		.loc 1 1112 52
 3023 0244 6D4A     		ldr	r2, .L240
 3024 0246 DA63     		str	r2, [r3, #60]
1113:Drivers/STM32F7xx_HAL_Driver/Src/stm32f7xx_hal_tim.c ****       htim->hdma[TIM_DMA_ID_CC2]->XferHalfCpltCallback = TIM_DMADelayPulseHalfCplt;
 3025              		.loc 1 1113 17
 3026 0248 FB68     		ldr	r3, [r7, #12]
 3027 024a 9B6A     		ldr	r3, [r3, #40]
 3028              		.loc 1 1113 56
 3029 024c 6C4A     		ldr	r2, .L240+4
 3030 024e 1A64     		str	r2, [r3, #64]
1114:Drivers/STM32F7xx_HAL_Driver/Src/stm32f7xx_hal_tim.c **** 
1115:Drivers/STM32F7xx_HAL_Driver/Src/stm32f7xx_hal_tim.c ****       /* Set the DMA error callback */
1116:Drivers/STM32F7xx_HAL_Driver/Src/stm32f7xx_hal_tim.c ****       htim->hdma[TIM_DMA_ID_CC2]->XferErrorCallback = TIM_DMAError ;
 3031              		.loc 1 1116 17
 3032 0250 FB68     		ldr	r3, [r7, #12]
 3033 0252 9B6A     		ldr	r3, [r3, #40]
 3034              		.loc 1 1116 53
 3035 0254 6B4A     		ldr	r2, .L240+8
 3036 0256 DA64     		str	r2, [r3, #76]
1117:Drivers/STM32F7xx_HAL_Driver/Src/stm32f7xx_hal_tim.c **** 
1118:Drivers/STM32F7xx_HAL_Driver/Src/stm32f7xx_hal_tim.c ****       /* Enable the DMA stream */
1119:Drivers/STM32F7xx_HAL_Driver/Src/stm32f7xx_hal_tim.c ****       if (HAL_DMA_Start_IT(htim->hdma[TIM_DMA_ID_CC2], (uint32_t)pData, (uint32_t)&htim->Instance->
 3037              		.loc 1 1119 11
 3038 0258 FB68     		ldr	r3, [r7, #12]
 3039 025a 986A     		ldr	r0, [r3, #40]
 3040 025c 7968     		ldr	r1, [r7, #4]
 3041              		.loc 1 1119 88
 3042 025e FB68     		ldr	r3, [r7, #12]
 3043 0260 1B68     		ldr	r3, [r3]
 3044              		.loc 1 1119 83
 3045 0262 3833     		adds	r3, r3, #56
 3046              		.loc 1 1119 11
 3047 0264 1A46     		mov	r2, r3
 3048 0266 7B88     		ldrh	r3, [r7, #2]
 3049 0268 FFF7FEFF 		bl	HAL_DMA_Start_IT
 3050 026c 0346     		mov	r3, r0
 3051              		.loc 1 1119 10
 3052 026e 002B     		cmp	r3, #0
 3053 0270 01D0     		beq	.L228
1120:Drivers/STM32F7xx_HAL_Driver/Src/stm32f7xx_hal_tim.c ****                            Length) != HAL_OK)
1121:Drivers/STM32F7xx_HAL_Driver/Src/stm32f7xx_hal_tim.c ****       {
1122:Drivers/STM32F7xx_HAL_Driver/Src/stm32f7xx_hal_tim.c ****         /* Return error status */
1123:Drivers/STM32F7xx_HAL_Driver/Src/stm32f7xx_hal_tim.c ****         return HAL_ERROR;
 3054              		.loc 1 1123 16
 3055 0272 0123     		movs	r3, #1
 3056 0274 BDE0     		b	.L196
 3057              	.L228:
1124:Drivers/STM32F7xx_HAL_Driver/Src/stm32f7xx_hal_tim.c ****       }
1125:Drivers/STM32F7xx_HAL_Driver/Src/stm32f7xx_hal_tim.c **** 
1126:Drivers/STM32F7xx_HAL_Driver/Src/stm32f7xx_hal_tim.c ****       /* Enable the TIM Capture/Compare 2 DMA request */
1127:Drivers/STM32F7xx_HAL_Driver/Src/stm32f7xx_hal_tim.c ****       __HAL_TIM_ENABLE_DMA(htim, TIM_DMA_CC2);
 3058              		.loc 1 1127 7
 3059 0276 FB68     		ldr	r3, [r7, #12]
 3060 0278 1B68     		ldr	r3, [r3]
ARM GAS  C:\Users\jisu8\AppData\Local\Temp\cckFtxsR.s 			page 74


 3061 027a DA68     		ldr	r2, [r3, #12]
 3062 027c FB68     		ldr	r3, [r7, #12]
 3063 027e 1B68     		ldr	r3, [r3]
 3064 0280 42F48062 		orr	r2, r2, #1024
 3065 0284 DA60     		str	r2, [r3, #12]
1128:Drivers/STM32F7xx_HAL_Driver/Src/stm32f7xx_hal_tim.c ****       break;
 3066              		.loc 1 1128 7
 3067 0286 4AE0     		b	.L227
 3068              	.L223:
1129:Drivers/STM32F7xx_HAL_Driver/Src/stm32f7xx_hal_tim.c ****     }
1130:Drivers/STM32F7xx_HAL_Driver/Src/stm32f7xx_hal_tim.c **** 
1131:Drivers/STM32F7xx_HAL_Driver/Src/stm32f7xx_hal_tim.c ****     case TIM_CHANNEL_3:
1132:Drivers/STM32F7xx_HAL_Driver/Src/stm32f7xx_hal_tim.c ****     {
1133:Drivers/STM32F7xx_HAL_Driver/Src/stm32f7xx_hal_tim.c ****       /* Set the DMA compare callbacks */
1134:Drivers/STM32F7xx_HAL_Driver/Src/stm32f7xx_hal_tim.c ****       htim->hdma[TIM_DMA_ID_CC3]->XferCpltCallback = TIM_DMADelayPulseCplt;
 3069              		.loc 1 1134 17
 3070 0288 FB68     		ldr	r3, [r7, #12]
 3071 028a DB6A     		ldr	r3, [r3, #44]
 3072              		.loc 1 1134 52
 3073 028c 5B4A     		ldr	r2, .L240
 3074 028e DA63     		str	r2, [r3, #60]
1135:Drivers/STM32F7xx_HAL_Driver/Src/stm32f7xx_hal_tim.c ****       htim->hdma[TIM_DMA_ID_CC3]->XferHalfCpltCallback = TIM_DMADelayPulseHalfCplt;
 3075              		.loc 1 1135 17
 3076 0290 FB68     		ldr	r3, [r7, #12]
 3077 0292 DB6A     		ldr	r3, [r3, #44]
 3078              		.loc 1 1135 56
 3079 0294 5A4A     		ldr	r2, .L240+4
 3080 0296 1A64     		str	r2, [r3, #64]
1136:Drivers/STM32F7xx_HAL_Driver/Src/stm32f7xx_hal_tim.c **** 
1137:Drivers/STM32F7xx_HAL_Driver/Src/stm32f7xx_hal_tim.c ****       /* Set the DMA error callback */
1138:Drivers/STM32F7xx_HAL_Driver/Src/stm32f7xx_hal_tim.c ****       htim->hdma[TIM_DMA_ID_CC3]->XferErrorCallback = TIM_DMAError ;
 3081              		.loc 1 1138 17
 3082 0298 FB68     		ldr	r3, [r7, #12]
 3083 029a DB6A     		ldr	r3, [r3, #44]
 3084              		.loc 1 1138 53
 3085 029c 594A     		ldr	r2, .L240+8
 3086 029e DA64     		str	r2, [r3, #76]
1139:Drivers/STM32F7xx_HAL_Driver/Src/stm32f7xx_hal_tim.c **** 
1140:Drivers/STM32F7xx_HAL_Driver/Src/stm32f7xx_hal_tim.c ****       /* Enable the DMA stream */
1141:Drivers/STM32F7xx_HAL_Driver/Src/stm32f7xx_hal_tim.c ****       if (HAL_DMA_Start_IT(htim->hdma[TIM_DMA_ID_CC3], (uint32_t)pData, (uint32_t)&htim->Instance->
 3087              		.loc 1 1141 11
 3088 02a0 FB68     		ldr	r3, [r7, #12]
 3089 02a2 D86A     		ldr	r0, [r3, #44]
 3090 02a4 7968     		ldr	r1, [r7, #4]
 3091              		.loc 1 1141 88
 3092 02a6 FB68     		ldr	r3, [r7, #12]
 3093 02a8 1B68     		ldr	r3, [r3]
 3094              		.loc 1 1141 83
 3095 02aa 3C33     		adds	r3, r3, #60
 3096              		.loc 1 1141 11
 3097 02ac 1A46     		mov	r2, r3
 3098 02ae 7B88     		ldrh	r3, [r7, #2]
 3099 02b0 FFF7FEFF 		bl	HAL_DMA_Start_IT
 3100 02b4 0346     		mov	r3, r0
 3101              		.loc 1 1141 10
 3102 02b6 002B     		cmp	r3, #0
 3103 02b8 01D0     		beq	.L229
ARM GAS  C:\Users\jisu8\AppData\Local\Temp\cckFtxsR.s 			page 75


1142:Drivers/STM32F7xx_HAL_Driver/Src/stm32f7xx_hal_tim.c ****                            Length) != HAL_OK)
1143:Drivers/STM32F7xx_HAL_Driver/Src/stm32f7xx_hal_tim.c ****       {
1144:Drivers/STM32F7xx_HAL_Driver/Src/stm32f7xx_hal_tim.c ****         /* Return error status */
1145:Drivers/STM32F7xx_HAL_Driver/Src/stm32f7xx_hal_tim.c ****         return HAL_ERROR;
 3104              		.loc 1 1145 16
 3105 02ba 0123     		movs	r3, #1
 3106 02bc 99E0     		b	.L196
 3107              	.L229:
1146:Drivers/STM32F7xx_HAL_Driver/Src/stm32f7xx_hal_tim.c ****       }
1147:Drivers/STM32F7xx_HAL_Driver/Src/stm32f7xx_hal_tim.c ****       /* Enable the TIM Capture/Compare 3 DMA request */
1148:Drivers/STM32F7xx_HAL_Driver/Src/stm32f7xx_hal_tim.c ****       __HAL_TIM_ENABLE_DMA(htim, TIM_DMA_CC3);
 3108              		.loc 1 1148 7
 3109 02be FB68     		ldr	r3, [r7, #12]
 3110 02c0 1B68     		ldr	r3, [r3]
 3111 02c2 DA68     		ldr	r2, [r3, #12]
 3112 02c4 FB68     		ldr	r3, [r7, #12]
 3113 02c6 1B68     		ldr	r3, [r3]
 3114 02c8 42F40062 		orr	r2, r2, #2048
 3115 02cc DA60     		str	r2, [r3, #12]
1149:Drivers/STM32F7xx_HAL_Driver/Src/stm32f7xx_hal_tim.c ****       break;
 3116              		.loc 1 1149 7
 3117 02ce 26E0     		b	.L227
 3118              	.L221:
1150:Drivers/STM32F7xx_HAL_Driver/Src/stm32f7xx_hal_tim.c ****     }
1151:Drivers/STM32F7xx_HAL_Driver/Src/stm32f7xx_hal_tim.c **** 
1152:Drivers/STM32F7xx_HAL_Driver/Src/stm32f7xx_hal_tim.c ****     case TIM_CHANNEL_4:
1153:Drivers/STM32F7xx_HAL_Driver/Src/stm32f7xx_hal_tim.c ****     {
1154:Drivers/STM32F7xx_HAL_Driver/Src/stm32f7xx_hal_tim.c ****       /* Set the DMA compare callbacks */
1155:Drivers/STM32F7xx_HAL_Driver/Src/stm32f7xx_hal_tim.c ****       htim->hdma[TIM_DMA_ID_CC4]->XferCpltCallback = TIM_DMADelayPulseCplt;
 3119              		.loc 1 1155 17
 3120 02d0 FB68     		ldr	r3, [r7, #12]
 3121 02d2 1B6B     		ldr	r3, [r3, #48]
 3122              		.loc 1 1155 52
 3123 02d4 494A     		ldr	r2, .L240
 3124 02d6 DA63     		str	r2, [r3, #60]
1156:Drivers/STM32F7xx_HAL_Driver/Src/stm32f7xx_hal_tim.c ****       htim->hdma[TIM_DMA_ID_CC4]->XferHalfCpltCallback = TIM_DMADelayPulseHalfCplt;
 3125              		.loc 1 1156 17
 3126 02d8 FB68     		ldr	r3, [r7, #12]
 3127 02da 1B6B     		ldr	r3, [r3, #48]
 3128              		.loc 1 1156 56
 3129 02dc 484A     		ldr	r2, .L240+4
 3130 02de 1A64     		str	r2, [r3, #64]
1157:Drivers/STM32F7xx_HAL_Driver/Src/stm32f7xx_hal_tim.c **** 
1158:Drivers/STM32F7xx_HAL_Driver/Src/stm32f7xx_hal_tim.c ****       /* Set the DMA error callback */
1159:Drivers/STM32F7xx_HAL_Driver/Src/stm32f7xx_hal_tim.c ****       htim->hdma[TIM_DMA_ID_CC4]->XferErrorCallback = TIM_DMAError ;
 3131              		.loc 1 1159 17
 3132 02e0 FB68     		ldr	r3, [r7, #12]
 3133 02e2 1B6B     		ldr	r3, [r3, #48]
 3134              		.loc 1 1159 53
 3135 02e4 474A     		ldr	r2, .L240+8
 3136 02e6 DA64     		str	r2, [r3, #76]
1160:Drivers/STM32F7xx_HAL_Driver/Src/stm32f7xx_hal_tim.c **** 
1161:Drivers/STM32F7xx_HAL_Driver/Src/stm32f7xx_hal_tim.c ****       /* Enable the DMA stream */
1162:Drivers/STM32F7xx_HAL_Driver/Src/stm32f7xx_hal_tim.c ****       if (HAL_DMA_Start_IT(htim->hdma[TIM_DMA_ID_CC4], (uint32_t)pData, (uint32_t)&htim->Instance->
 3137              		.loc 1 1162 11
 3138 02e8 FB68     		ldr	r3, [r7, #12]
 3139 02ea 186B     		ldr	r0, [r3, #48]
ARM GAS  C:\Users\jisu8\AppData\Local\Temp\cckFtxsR.s 			page 76


 3140 02ec 7968     		ldr	r1, [r7, #4]
 3141              		.loc 1 1162 88
 3142 02ee FB68     		ldr	r3, [r7, #12]
 3143 02f0 1B68     		ldr	r3, [r3]
 3144              		.loc 1 1162 83
 3145 02f2 4033     		adds	r3, r3, #64
 3146              		.loc 1 1162 11
 3147 02f4 1A46     		mov	r2, r3
 3148 02f6 7B88     		ldrh	r3, [r7, #2]
 3149 02f8 FFF7FEFF 		bl	HAL_DMA_Start_IT
 3150 02fc 0346     		mov	r3, r0
 3151              		.loc 1 1162 10
 3152 02fe 002B     		cmp	r3, #0
 3153 0300 01D0     		beq	.L230
1163:Drivers/STM32F7xx_HAL_Driver/Src/stm32f7xx_hal_tim.c ****                            Length) != HAL_OK)
1164:Drivers/STM32F7xx_HAL_Driver/Src/stm32f7xx_hal_tim.c ****       {
1165:Drivers/STM32F7xx_HAL_Driver/Src/stm32f7xx_hal_tim.c ****         /* Return error status */
1166:Drivers/STM32F7xx_HAL_Driver/Src/stm32f7xx_hal_tim.c ****         return HAL_ERROR;
 3154              		.loc 1 1166 16
 3155 0302 0123     		movs	r3, #1
 3156 0304 75E0     		b	.L196
 3157              	.L230:
1167:Drivers/STM32F7xx_HAL_Driver/Src/stm32f7xx_hal_tim.c ****       }
1168:Drivers/STM32F7xx_HAL_Driver/Src/stm32f7xx_hal_tim.c ****       /* Enable the TIM Capture/Compare 4 DMA request */
1169:Drivers/STM32F7xx_HAL_Driver/Src/stm32f7xx_hal_tim.c ****       __HAL_TIM_ENABLE_DMA(htim, TIM_DMA_CC4);
 3158              		.loc 1 1169 7
 3159 0306 FB68     		ldr	r3, [r7, #12]
 3160 0308 1B68     		ldr	r3, [r3]
 3161 030a DA68     		ldr	r2, [r3, #12]
 3162 030c FB68     		ldr	r3, [r7, #12]
 3163 030e 1B68     		ldr	r3, [r3]
 3164 0310 42F48052 		orr	r2, r2, #4096
 3165 0314 DA60     		str	r2, [r3, #12]
1170:Drivers/STM32F7xx_HAL_Driver/Src/stm32f7xx_hal_tim.c ****       break;
 3166              		.loc 1 1170 7
 3167 0316 02E0     		b	.L227
 3168              	.L220:
1171:Drivers/STM32F7xx_HAL_Driver/Src/stm32f7xx_hal_tim.c ****     }
1172:Drivers/STM32F7xx_HAL_Driver/Src/stm32f7xx_hal_tim.c **** 
1173:Drivers/STM32F7xx_HAL_Driver/Src/stm32f7xx_hal_tim.c ****     default:
1174:Drivers/STM32F7xx_HAL_Driver/Src/stm32f7xx_hal_tim.c ****       status = HAL_ERROR;
 3169              		.loc 1 1174 14
 3170 0318 0123     		movs	r3, #1
 3171 031a FB75     		strb	r3, [r7, #23]
1175:Drivers/STM32F7xx_HAL_Driver/Src/stm32f7xx_hal_tim.c ****       break;
 3172              		.loc 1 1175 7
 3173 031c 00BF     		nop
 3174              	.L227:
1176:Drivers/STM32F7xx_HAL_Driver/Src/stm32f7xx_hal_tim.c ****   }
1177:Drivers/STM32F7xx_HAL_Driver/Src/stm32f7xx_hal_tim.c **** 
1178:Drivers/STM32F7xx_HAL_Driver/Src/stm32f7xx_hal_tim.c ****   if (status == HAL_OK)
 3175              		.loc 1 1178 6
 3176 031e FB7D     		ldrb	r3, [r7, #23]	@ zero_extendqisi2
 3177 0320 002B     		cmp	r3, #0
 3178 0322 65D1     		bne	.L231
1179:Drivers/STM32F7xx_HAL_Driver/Src/stm32f7xx_hal_tim.c ****   {
1180:Drivers/STM32F7xx_HAL_Driver/Src/stm32f7xx_hal_tim.c ****     /* Enable the Output compare channel */
ARM GAS  C:\Users\jisu8\AppData\Local\Temp\cckFtxsR.s 			page 77


1181:Drivers/STM32F7xx_HAL_Driver/Src/stm32f7xx_hal_tim.c ****     TIM_CCxChannelCmd(htim->Instance, Channel, TIM_CCx_ENABLE);
 3179              		.loc 1 1181 5
 3180 0324 FB68     		ldr	r3, [r7, #12]
 3181 0326 1B68     		ldr	r3, [r3]
 3182 0328 0122     		movs	r2, #1
 3183 032a B968     		ldr	r1, [r7, #8]
 3184 032c 1846     		mov	r0, r3
 3185 032e FFF7FEFF 		bl	TIM_CCxChannelCmd
1182:Drivers/STM32F7xx_HAL_Driver/Src/stm32f7xx_hal_tim.c **** 
1183:Drivers/STM32F7xx_HAL_Driver/Src/stm32f7xx_hal_tim.c ****     if (IS_TIM_BREAK_INSTANCE(htim->Instance) != RESET)
 3186              		.loc 1 1183 9
 3187 0332 FB68     		ldr	r3, [r7, #12]
 3188 0334 1B68     		ldr	r3, [r3]
 3189 0336 344A     		ldr	r2, .L240+12
 3190 0338 9342     		cmp	r3, r2
 3191 033a 04D0     		beq	.L232
 3192              		.loc 1 1183 9 is_stmt 0 discriminator 2
 3193 033c FB68     		ldr	r3, [r7, #12]
 3194 033e 1B68     		ldr	r3, [r3]
 3195 0340 324A     		ldr	r2, .L240+16
 3196 0342 9342     		cmp	r3, r2
 3197 0344 01D1     		bne	.L233
 3198              	.L232:
 3199              		.loc 1 1183 9 discriminator 3
 3200 0346 0123     		movs	r3, #1
 3201 0348 00E0     		b	.L234
 3202              	.L233:
 3203              		.loc 1 1183 9 discriminator 4
 3204 034a 0023     		movs	r3, #0
 3205              	.L234:
 3206              		.loc 1 1183 8 is_stmt 1 discriminator 6
 3207 034c 002B     		cmp	r3, #0
 3208 034e 07D0     		beq	.L235
1184:Drivers/STM32F7xx_HAL_Driver/Src/stm32f7xx_hal_tim.c ****     {
1185:Drivers/STM32F7xx_HAL_Driver/Src/stm32f7xx_hal_tim.c ****       /* Enable the main output */
1186:Drivers/STM32F7xx_HAL_Driver/Src/stm32f7xx_hal_tim.c ****       __HAL_TIM_MOE_ENABLE(htim);
 3209              		.loc 1 1186 7
 3210 0350 FB68     		ldr	r3, [r7, #12]
 3211 0352 1B68     		ldr	r3, [r3]
 3212 0354 5A6C     		ldr	r2, [r3, #68]
 3213 0356 FB68     		ldr	r3, [r7, #12]
 3214 0358 1B68     		ldr	r3, [r3]
 3215 035a 42F40042 		orr	r2, r2, #32768
 3216 035e 5A64     		str	r2, [r3, #68]
 3217              	.L235:
1187:Drivers/STM32F7xx_HAL_Driver/Src/stm32f7xx_hal_tim.c ****     }
1188:Drivers/STM32F7xx_HAL_Driver/Src/stm32f7xx_hal_tim.c **** 
1189:Drivers/STM32F7xx_HAL_Driver/Src/stm32f7xx_hal_tim.c ****     /* Enable the Peripheral, except in trigger mode where enable is automatically done with trigge
1190:Drivers/STM32F7xx_HAL_Driver/Src/stm32f7xx_hal_tim.c ****     if (IS_TIM_SLAVE_INSTANCE(htim->Instance))
 3218              		.loc 1 1190 9
 3219 0360 FB68     		ldr	r3, [r7, #12]
 3220 0362 1B68     		ldr	r3, [r3]
 3221              		.loc 1 1190 8
 3222 0364 284A     		ldr	r2, .L240+12
 3223 0366 9342     		cmp	r3, r2
 3224 0368 22D0     		beq	.L236
 3225              		.loc 1 1190 9 discriminator 1
ARM GAS  C:\Users\jisu8\AppData\Local\Temp\cckFtxsR.s 			page 78


 3226 036a FB68     		ldr	r3, [r7, #12]
 3227 036c 1B68     		ldr	r3, [r3]
 3228 036e B3F1804F 		cmp	r3, #1073741824
 3229 0372 1DD0     		beq	.L236
 3230              		.loc 1 1190 9 is_stmt 0 discriminator 2
 3231 0374 FB68     		ldr	r3, [r7, #12]
 3232 0376 1B68     		ldr	r3, [r3]
 3233 0378 254A     		ldr	r2, .L240+20
 3234 037a 9342     		cmp	r3, r2
 3235 037c 18D0     		beq	.L236
 3236              		.loc 1 1190 9 discriminator 3
 3237 037e FB68     		ldr	r3, [r7, #12]
 3238 0380 1B68     		ldr	r3, [r3]
 3239 0382 244A     		ldr	r2, .L240+24
 3240 0384 9342     		cmp	r3, r2
 3241 0386 13D0     		beq	.L236
 3242              		.loc 1 1190 9 discriminator 4
 3243 0388 FB68     		ldr	r3, [r7, #12]
 3244 038a 1B68     		ldr	r3, [r3]
 3245 038c 224A     		ldr	r2, .L240+28
 3246 038e 9342     		cmp	r3, r2
 3247 0390 0ED0     		beq	.L236
 3248              		.loc 1 1190 9 discriminator 5
 3249 0392 FB68     		ldr	r3, [r7, #12]
 3250 0394 1B68     		ldr	r3, [r3]
 3251 0396 1D4A     		ldr	r2, .L240+16
 3252 0398 9342     		cmp	r3, r2
 3253 039a 09D0     		beq	.L236
 3254              		.loc 1 1190 9 discriminator 6
 3255 039c FB68     		ldr	r3, [r7, #12]
 3256 039e 1B68     		ldr	r3, [r3]
 3257 03a0 1E4A     		ldr	r2, .L240+32
 3258 03a2 9342     		cmp	r3, r2
 3259 03a4 04D0     		beq	.L236
 3260              		.loc 1 1190 9 discriminator 7
 3261 03a6 FB68     		ldr	r3, [r7, #12]
 3262 03a8 1B68     		ldr	r3, [r3]
 3263 03aa 1D4A     		ldr	r2, .L240+36
 3264 03ac 9342     		cmp	r3, r2
 3265 03ae 15D1     		bne	.L237
 3266              	.L236:
1191:Drivers/STM32F7xx_HAL_Driver/Src/stm32f7xx_hal_tim.c ****     {
1192:Drivers/STM32F7xx_HAL_Driver/Src/stm32f7xx_hal_tim.c ****       tmpsmcr = htim->Instance->SMCR & TIM_SMCR_SMS;
 3267              		.loc 1 1192 21 is_stmt 1
 3268 03b0 FB68     		ldr	r3, [r7, #12]
 3269 03b2 1B68     		ldr	r3, [r3]
 3270              		.loc 1 1192 31
 3271 03b4 9A68     		ldr	r2, [r3, #8]
 3272              		.loc 1 1192 15
 3273 03b6 1B4B     		ldr	r3, .L240+40
 3274 03b8 1340     		ands	r3, r3, r2
 3275 03ba 3B61     		str	r3, [r7, #16]
1193:Drivers/STM32F7xx_HAL_Driver/Src/stm32f7xx_hal_tim.c ****       if (!IS_TIM_SLAVEMODE_TRIGGER_ENABLED(tmpsmcr))
 3276              		.loc 1 1193 10
 3277 03bc 3B69     		ldr	r3, [r7, #16]
 3278 03be 062B     		cmp	r3, #6
 3279 03c0 15D0     		beq	.L239
ARM GAS  C:\Users\jisu8\AppData\Local\Temp\cckFtxsR.s 			page 79


 3280              		.loc 1 1193 11 discriminator 1
 3281 03c2 3B69     		ldr	r3, [r7, #16]
 3282 03c4 B3F5803F 		cmp	r3, #65536
 3283 03c8 11D0     		beq	.L239
1194:Drivers/STM32F7xx_HAL_Driver/Src/stm32f7xx_hal_tim.c ****       {
1195:Drivers/STM32F7xx_HAL_Driver/Src/stm32f7xx_hal_tim.c ****         __HAL_TIM_ENABLE(htim);
 3284              		.loc 1 1195 9
 3285 03ca FB68     		ldr	r3, [r7, #12]
 3286 03cc 1B68     		ldr	r3, [r3]
 3287 03ce 1A68     		ldr	r2, [r3]
 3288 03d0 FB68     		ldr	r3, [r7, #12]
 3289 03d2 1B68     		ldr	r3, [r3]
 3290 03d4 42F00102 		orr	r2, r2, #1
 3291 03d8 1A60     		str	r2, [r3]
1193:Drivers/STM32F7xx_HAL_Driver/Src/stm32f7xx_hal_tim.c ****       if (!IS_TIM_SLAVEMODE_TRIGGER_ENABLED(tmpsmcr))
 3292              		.loc 1 1193 10
 3293 03da 08E0     		b	.L239
 3294              	.L237:
1196:Drivers/STM32F7xx_HAL_Driver/Src/stm32f7xx_hal_tim.c ****       }
1197:Drivers/STM32F7xx_HAL_Driver/Src/stm32f7xx_hal_tim.c ****     }
1198:Drivers/STM32F7xx_HAL_Driver/Src/stm32f7xx_hal_tim.c ****     else
1199:Drivers/STM32F7xx_HAL_Driver/Src/stm32f7xx_hal_tim.c ****     {
1200:Drivers/STM32F7xx_HAL_Driver/Src/stm32f7xx_hal_tim.c ****       __HAL_TIM_ENABLE(htim);
 3295              		.loc 1 1200 7
 3296 03dc FB68     		ldr	r3, [r7, #12]
 3297 03de 1B68     		ldr	r3, [r3]
 3298 03e0 1A68     		ldr	r2, [r3]
 3299 03e2 FB68     		ldr	r3, [r7, #12]
 3300 03e4 1B68     		ldr	r3, [r3]
 3301 03e6 42F00102 		orr	r2, r2, #1
 3302 03ea 1A60     		str	r2, [r3]
 3303 03ec 00E0     		b	.L231
 3304              	.L239:
1193:Drivers/STM32F7xx_HAL_Driver/Src/stm32f7xx_hal_tim.c ****       {
 3305              		.loc 1 1193 10
 3306 03ee 00BF     		nop
 3307              	.L231:
1201:Drivers/STM32F7xx_HAL_Driver/Src/stm32f7xx_hal_tim.c ****     }
1202:Drivers/STM32F7xx_HAL_Driver/Src/stm32f7xx_hal_tim.c ****   }
1203:Drivers/STM32F7xx_HAL_Driver/Src/stm32f7xx_hal_tim.c **** 
1204:Drivers/STM32F7xx_HAL_Driver/Src/stm32f7xx_hal_tim.c ****   /* Return function status */
1205:Drivers/STM32F7xx_HAL_Driver/Src/stm32f7xx_hal_tim.c ****   return status;
 3308              		.loc 1 1205 10
 3309 03f0 FB7D     		ldrb	r3, [r7, #23]	@ zero_extendqisi2
 3310              	.L196:
1206:Drivers/STM32F7xx_HAL_Driver/Src/stm32f7xx_hal_tim.c **** }
 3311              		.loc 1 1206 1
 3312 03f2 1846     		mov	r0, r3
 3313 03f4 1837     		adds	r7, r7, #24
 3314              	.LCFI101:
 3315              		.cfi_def_cfa_offset 8
 3316 03f6 BD46     		mov	sp, r7
 3317              	.LCFI102:
 3318              		.cfi_def_cfa_register 13
 3319              		@ sp needed
 3320 03f8 80BD     		pop	{r7, pc}
 3321              	.L241:
ARM GAS  C:\Users\jisu8\AppData\Local\Temp\cckFtxsR.s 			page 80


 3322 03fa 00BF     		.align	2
 3323              	.L240:
 3324 03fc 00000000 		.word	TIM_DMADelayPulseCplt
 3325 0400 00000000 		.word	TIM_DMADelayPulseHalfCplt
 3326 0404 00000000 		.word	TIM_DMAError
 3327 0408 00000140 		.word	1073807360
 3328 040c 00040140 		.word	1073808384
 3329 0410 00040040 		.word	1073742848
 3330 0414 00080040 		.word	1073743872
 3331 0418 000C0040 		.word	1073744896
 3332 041c 00400140 		.word	1073823744
 3333 0420 00180040 		.word	1073747968
 3334 0424 07000100 		.word	65543
 3335              		.cfi_endproc
 3336              	.LFE159:
 3338              		.section	.text.HAL_TIM_OC_Stop_DMA,"ax",%progbits
 3339              		.align	1
 3340              		.global	HAL_TIM_OC_Stop_DMA
 3341              		.syntax unified
 3342              		.thumb
 3343              		.thumb_func
 3345              	HAL_TIM_OC_Stop_DMA:
 3346              	.LFB160:
1207:Drivers/STM32F7xx_HAL_Driver/Src/stm32f7xx_hal_tim.c **** 
1208:Drivers/STM32F7xx_HAL_Driver/Src/stm32f7xx_hal_tim.c **** /**
1209:Drivers/STM32F7xx_HAL_Driver/Src/stm32f7xx_hal_tim.c ****   * @brief  Stops the TIM Output Compare signal generation in DMA mode.
1210:Drivers/STM32F7xx_HAL_Driver/Src/stm32f7xx_hal_tim.c ****   * @param  htim TIM Output Compare handle
1211:Drivers/STM32F7xx_HAL_Driver/Src/stm32f7xx_hal_tim.c ****   * @param  Channel TIM Channel to be disabled
1212:Drivers/STM32F7xx_HAL_Driver/Src/stm32f7xx_hal_tim.c ****   *          This parameter can be one of the following values:
1213:Drivers/STM32F7xx_HAL_Driver/Src/stm32f7xx_hal_tim.c ****   *            @arg TIM_CHANNEL_1: TIM Channel 1 selected
1214:Drivers/STM32F7xx_HAL_Driver/Src/stm32f7xx_hal_tim.c ****   *            @arg TIM_CHANNEL_2: TIM Channel 2 selected
1215:Drivers/STM32F7xx_HAL_Driver/Src/stm32f7xx_hal_tim.c ****   *            @arg TIM_CHANNEL_3: TIM Channel 3 selected
1216:Drivers/STM32F7xx_HAL_Driver/Src/stm32f7xx_hal_tim.c ****   *            @arg TIM_CHANNEL_4: TIM Channel 4 selected
1217:Drivers/STM32F7xx_HAL_Driver/Src/stm32f7xx_hal_tim.c ****   * @retval HAL status
1218:Drivers/STM32F7xx_HAL_Driver/Src/stm32f7xx_hal_tim.c ****   */
1219:Drivers/STM32F7xx_HAL_Driver/Src/stm32f7xx_hal_tim.c **** HAL_StatusTypeDef HAL_TIM_OC_Stop_DMA(TIM_HandleTypeDef *htim, uint32_t Channel)
1220:Drivers/STM32F7xx_HAL_Driver/Src/stm32f7xx_hal_tim.c **** {
 3347              		.loc 1 1220 1
 3348              		.cfi_startproc
 3349              		@ args = 0, pretend = 0, frame = 16
 3350              		@ frame_needed = 1, uses_anonymous_args = 0
 3351 0000 80B5     		push	{r7, lr}
 3352              	.LCFI103:
 3353              		.cfi_def_cfa_offset 8
 3354              		.cfi_offset 7, -8
 3355              		.cfi_offset 14, -4
 3356 0002 84B0     		sub	sp, sp, #16
 3357              	.LCFI104:
 3358              		.cfi_def_cfa_offset 24
 3359 0004 00AF     		add	r7, sp, #0
 3360              	.LCFI105:
 3361              		.cfi_def_cfa_register 7
 3362 0006 7860     		str	r0, [r7, #4]
 3363 0008 3960     		str	r1, [r7]
1221:Drivers/STM32F7xx_HAL_Driver/Src/stm32f7xx_hal_tim.c ****   HAL_StatusTypeDef status = HAL_OK;
 3364              		.loc 1 1221 21
 3365 000a 0023     		movs	r3, #0
ARM GAS  C:\Users\jisu8\AppData\Local\Temp\cckFtxsR.s 			page 81


 3366 000c FB73     		strb	r3, [r7, #15]
1222:Drivers/STM32F7xx_HAL_Driver/Src/stm32f7xx_hal_tim.c **** 
1223:Drivers/STM32F7xx_HAL_Driver/Src/stm32f7xx_hal_tim.c ****   /* Check the parameters */
1224:Drivers/STM32F7xx_HAL_Driver/Src/stm32f7xx_hal_tim.c ****   assert_param(IS_TIM_CCX_INSTANCE(htim->Instance, Channel));
1225:Drivers/STM32F7xx_HAL_Driver/Src/stm32f7xx_hal_tim.c **** 
1226:Drivers/STM32F7xx_HAL_Driver/Src/stm32f7xx_hal_tim.c ****   switch (Channel)
 3367              		.loc 1 1226 3
 3368 000e 3B68     		ldr	r3, [r7]
 3369 0010 0C2B     		cmp	r3, #12
 3370 0012 55D8     		bhi	.L243
 3371 0014 01A2     		adr	r2, .L245
 3372 0016 52F823F0 		ldr	pc, [r2, r3, lsl #2]
 3373 001a 00BF     		.p2align 2
 3374              	.L245:
 3375 001c 51000000 		.word	.L248+1
 3376 0020 C1000000 		.word	.L243+1
 3377 0024 C1000000 		.word	.L243+1
 3378 0028 C1000000 		.word	.L243+1
 3379 002c 6D000000 		.word	.L247+1
 3380 0030 C1000000 		.word	.L243+1
 3381 0034 C1000000 		.word	.L243+1
 3382 0038 C1000000 		.word	.L243+1
 3383 003c 89000000 		.word	.L246+1
 3384 0040 C1000000 		.word	.L243+1
 3385 0044 C1000000 		.word	.L243+1
 3386 0048 C1000000 		.word	.L243+1
 3387 004c A5000000 		.word	.L244+1
 3388              		.p2align 1
 3389              	.L248:
1227:Drivers/STM32F7xx_HAL_Driver/Src/stm32f7xx_hal_tim.c ****   {
1228:Drivers/STM32F7xx_HAL_Driver/Src/stm32f7xx_hal_tim.c ****     case TIM_CHANNEL_1:
1229:Drivers/STM32F7xx_HAL_Driver/Src/stm32f7xx_hal_tim.c ****     {
1230:Drivers/STM32F7xx_HAL_Driver/Src/stm32f7xx_hal_tim.c ****       /* Disable the TIM Capture/Compare 1 DMA request */
1231:Drivers/STM32F7xx_HAL_Driver/Src/stm32f7xx_hal_tim.c ****       __HAL_TIM_DISABLE_DMA(htim, TIM_DMA_CC1);
 3390              		.loc 1 1231 7
 3391 0050 7B68     		ldr	r3, [r7, #4]
 3392 0052 1B68     		ldr	r3, [r3]
 3393 0054 DA68     		ldr	r2, [r3, #12]
 3394 0056 7B68     		ldr	r3, [r7, #4]
 3395 0058 1B68     		ldr	r3, [r3]
 3396 005a 22F40072 		bic	r2, r2, #512
 3397 005e DA60     		str	r2, [r3, #12]
1232:Drivers/STM32F7xx_HAL_Driver/Src/stm32f7xx_hal_tim.c ****       (void)HAL_DMA_Abort_IT(htim->hdma[TIM_DMA_ID_CC1]);
 3398              		.loc 1 1232 13
 3399 0060 7B68     		ldr	r3, [r7, #4]
 3400 0062 5B6A     		ldr	r3, [r3, #36]
 3401 0064 1846     		mov	r0, r3
 3402 0066 FFF7FEFF 		bl	HAL_DMA_Abort_IT
1233:Drivers/STM32F7xx_HAL_Driver/Src/stm32f7xx_hal_tim.c ****       break;
 3403              		.loc 1 1233 7
 3404 006a 2CE0     		b	.L249
 3405              	.L247:
1234:Drivers/STM32F7xx_HAL_Driver/Src/stm32f7xx_hal_tim.c ****     }
1235:Drivers/STM32F7xx_HAL_Driver/Src/stm32f7xx_hal_tim.c **** 
1236:Drivers/STM32F7xx_HAL_Driver/Src/stm32f7xx_hal_tim.c ****     case TIM_CHANNEL_2:
1237:Drivers/STM32F7xx_HAL_Driver/Src/stm32f7xx_hal_tim.c ****     {
1238:Drivers/STM32F7xx_HAL_Driver/Src/stm32f7xx_hal_tim.c ****       /* Disable the TIM Capture/Compare 2 DMA request */
ARM GAS  C:\Users\jisu8\AppData\Local\Temp\cckFtxsR.s 			page 82


1239:Drivers/STM32F7xx_HAL_Driver/Src/stm32f7xx_hal_tim.c ****       __HAL_TIM_DISABLE_DMA(htim, TIM_DMA_CC2);
 3406              		.loc 1 1239 7
 3407 006c 7B68     		ldr	r3, [r7, #4]
 3408 006e 1B68     		ldr	r3, [r3]
 3409 0070 DA68     		ldr	r2, [r3, #12]
 3410 0072 7B68     		ldr	r3, [r7, #4]
 3411 0074 1B68     		ldr	r3, [r3]
 3412 0076 22F48062 		bic	r2, r2, #1024
 3413 007a DA60     		str	r2, [r3, #12]
1240:Drivers/STM32F7xx_HAL_Driver/Src/stm32f7xx_hal_tim.c ****       (void)HAL_DMA_Abort_IT(htim->hdma[TIM_DMA_ID_CC2]);
 3414              		.loc 1 1240 13
 3415 007c 7B68     		ldr	r3, [r7, #4]
 3416 007e 9B6A     		ldr	r3, [r3, #40]
 3417 0080 1846     		mov	r0, r3
