ARM GAS  C:\Users\jisu8\AppData\Local\Temp\cc20AWwL.s 			page 1


   1              		.cpu cortex-m7
   2              		.arch armv7e-m
   3              		.fpu fpv5-sp-d16
   4              		.eabi_attribute 27, 1
   5              		.eabi_attribute 28, 1
   6              		.eabi_attribute 20, 1
   7              		.eabi_attribute 21, 1
   8              		.eabi_attribute 23, 3
   9              		.eabi_attribute 24, 1
  10              		.eabi_attribute 25, 1
  11              		.eabi_attribute 26, 1
  12              		.eabi_attribute 30, 1
  13              		.eabi_attribute 34, 1
  14              		.eabi_attribute 18, 4
  15              		.file	"stm32f7xx_hal_msp.c"
  16              		.text
  17              	.Ltext0:
  18              		.cfi_sections	.debug_frame
  19              		.section	.text.HAL_FMC_MspInit,"ax",%progbits
  20              		.align	1
  21              		.syntax unified
  22              		.thumb
  23              		.thumb_func
  25              	HAL_FMC_MspInit:
  26              	.LFB156:
  27              		.file 1 "Core/Src/stm32f7xx_hal_msp.c"
   1:Core/Src/stm32f7xx_hal_msp.c **** /* USER CODE BEGIN Header */
   2:Core/Src/stm32f7xx_hal_msp.c **** /**
   3:Core/Src/stm32f7xx_hal_msp.c ****   ******************************************************************************
   4:Core/Src/stm32f7xx_hal_msp.c ****   * @file         stm32f7xx_hal_msp.c
   5:Core/Src/stm32f7xx_hal_msp.c ****   * @brief        This file provides code for the MSP Initialization
   6:Core/Src/stm32f7xx_hal_msp.c ****   *               and de-Initialization codes.
   7:Core/Src/stm32f7xx_hal_msp.c ****   ******************************************************************************
   8:Core/Src/stm32f7xx_hal_msp.c ****   * @attention
   9:Core/Src/stm32f7xx_hal_msp.c ****   *
  10:Core/Src/stm32f7xx_hal_msp.c ****   * Copyright (c) 2023 STMicroelectronics.
  11:Core/Src/stm32f7xx_hal_msp.c ****   * All rights reserved.
  12:Core/Src/stm32f7xx_hal_msp.c ****   *
  13:Core/Src/stm32f7xx_hal_msp.c ****   * This software is licensed under terms that can be found in the LICENSE file
  14:Core/Src/stm32f7xx_hal_msp.c ****   * in the root directory of this software component.
  15:Core/Src/stm32f7xx_hal_msp.c ****   * If no LICENSE file comes with this software, it is provided AS-IS.
  16:Core/Src/stm32f7xx_hal_msp.c ****   *
  17:Core/Src/stm32f7xx_hal_msp.c ****   ******************************************************************************
  18:Core/Src/stm32f7xx_hal_msp.c ****   */
  19:Core/Src/stm32f7xx_hal_msp.c **** /* USER CODE END Header */
  20:Core/Src/stm32f7xx_hal_msp.c **** 
  21:Core/Src/stm32f7xx_hal_msp.c **** /* Includes ------------------------------------------------------------------*/
  22:Core/Src/stm32f7xx_hal_msp.c **** #include "main.h"
  23:Core/Src/stm32f7xx_hal_msp.c **** /* USER CODE BEGIN Includes */
  24:Core/Src/stm32f7xx_hal_msp.c **** 
  25:Core/Src/stm32f7xx_hal_msp.c **** /* USER CODE END Includes */
  26:Core/Src/stm32f7xx_hal_msp.c **** extern DMA_HandleTypeDef hdma_sdmmc1_rx;
  27:Core/Src/stm32f7xx_hal_msp.c **** 
  28:Core/Src/stm32f7xx_hal_msp.c **** extern DMA_HandleTypeDef hdma_sdmmc1_tx;
  29:Core/Src/stm32f7xx_hal_msp.c **** 
  30:Core/Src/stm32f7xx_hal_msp.c **** /* Private typedef -----------------------------------------------------------*/
  31:Core/Src/stm32f7xx_hal_msp.c **** /* USER CODE BEGIN TD */
ARM GAS  C:\Users\jisu8\AppData\Local\Temp\cc20AWwL.s 			page 2


  32:Core/Src/stm32f7xx_hal_msp.c **** 
  33:Core/Src/stm32f7xx_hal_msp.c **** /* USER CODE END TD */
  34:Core/Src/stm32f7xx_hal_msp.c **** 
  35:Core/Src/stm32f7xx_hal_msp.c **** /* Private define ------------------------------------------------------------*/
  36:Core/Src/stm32f7xx_hal_msp.c **** /* USER CODE BEGIN Define */
  37:Core/Src/stm32f7xx_hal_msp.c **** 
  38:Core/Src/stm32f7xx_hal_msp.c **** /* USER CODE END Define */
  39:Core/Src/stm32f7xx_hal_msp.c **** 
  40:Core/Src/stm32f7xx_hal_msp.c **** /* Private macro -------------------------------------------------------------*/
  41:Core/Src/stm32f7xx_hal_msp.c **** /* USER CODE BEGIN Macro */
  42:Core/Src/stm32f7xx_hal_msp.c **** 
  43:Core/Src/stm32f7xx_hal_msp.c **** /* USER CODE END Macro */
  44:Core/Src/stm32f7xx_hal_msp.c **** 
  45:Core/Src/stm32f7xx_hal_msp.c **** /* Private variables ---------------------------------------------------------*/
  46:Core/Src/stm32f7xx_hal_msp.c **** /* USER CODE BEGIN PV */
  47:Core/Src/stm32f7xx_hal_msp.c **** 
  48:Core/Src/stm32f7xx_hal_msp.c **** /* USER CODE END PV */
  49:Core/Src/stm32f7xx_hal_msp.c **** 
  50:Core/Src/stm32f7xx_hal_msp.c **** /* Private function prototypes -----------------------------------------------*/
  51:Core/Src/stm32f7xx_hal_msp.c **** /* USER CODE BEGIN PFP */
  52:Core/Src/stm32f7xx_hal_msp.c **** 
  53:Core/Src/stm32f7xx_hal_msp.c **** /* USER CODE END PFP */
  54:Core/Src/stm32f7xx_hal_msp.c **** 
  55:Core/Src/stm32f7xx_hal_msp.c **** /* External functions --------------------------------------------------------*/
  56:Core/Src/stm32f7xx_hal_msp.c **** /* USER CODE BEGIN ExternalFunctions */
  57:Core/Src/stm32f7xx_hal_msp.c **** 
  58:Core/Src/stm32f7xx_hal_msp.c **** /* USER CODE END ExternalFunctions */
  59:Core/Src/stm32f7xx_hal_msp.c **** 
  60:Core/Src/stm32f7xx_hal_msp.c **** /* USER CODE BEGIN 0 */
  61:Core/Src/stm32f7xx_hal_msp.c **** 
  62:Core/Src/stm32f7xx_hal_msp.c **** /* USER CODE END 0 */
  63:Core/Src/stm32f7xx_hal_msp.c **** /**
  64:Core/Src/stm32f7xx_hal_msp.c ****   * Initializes the Global MSP.
  65:Core/Src/stm32f7xx_hal_msp.c ****   */
  66:Core/Src/stm32f7xx_hal_msp.c **** void HAL_MspInit(void)
  67:Core/Src/stm32f7xx_hal_msp.c **** {
  68:Core/Src/stm32f7xx_hal_msp.c ****   /* USER CODE BEGIN MspInit 0 */
  69:Core/Src/stm32f7xx_hal_msp.c **** 
  70:Core/Src/stm32f7xx_hal_msp.c ****   /* USER CODE END MspInit 0 */
  71:Core/Src/stm32f7xx_hal_msp.c **** 
  72:Core/Src/stm32f7xx_hal_msp.c ****   __HAL_RCC_PWR_CLK_ENABLE();
  73:Core/Src/stm32f7xx_hal_msp.c ****   __HAL_RCC_SYSCFG_CLK_ENABLE();
  74:Core/Src/stm32f7xx_hal_msp.c **** 
  75:Core/Src/stm32f7xx_hal_msp.c ****   /* System interrupt init*/
  76:Core/Src/stm32f7xx_hal_msp.c ****   /* PendSV_IRQn interrupt configuration */
  77:Core/Src/stm32f7xx_hal_msp.c ****   HAL_NVIC_SetPriority(PendSV_IRQn, 15, 0);
  78:Core/Src/stm32f7xx_hal_msp.c **** 
  79:Core/Src/stm32f7xx_hal_msp.c ****   /* USER CODE BEGIN MspInit 1 */
  80:Core/Src/stm32f7xx_hal_msp.c **** 
  81:Core/Src/stm32f7xx_hal_msp.c ****   /* USER CODE END MspInit 1 */
  82:Core/Src/stm32f7xx_hal_msp.c **** }
  83:Core/Src/stm32f7xx_hal_msp.c **** 
  84:Core/Src/stm32f7xx_hal_msp.c **** /**
  85:Core/Src/stm32f7xx_hal_msp.c **** * @brief CRC MSP Initialization
  86:Core/Src/stm32f7xx_hal_msp.c **** * This function configures the hardware resources used in this example
  87:Core/Src/stm32f7xx_hal_msp.c **** * @param hcrc: CRC handle pointer
  88:Core/Src/stm32f7xx_hal_msp.c **** * @retval None
ARM GAS  C:\Users\jisu8\AppData\Local\Temp\cc20AWwL.s 			page 3


  89:Core/Src/stm32f7xx_hal_msp.c **** */
  90:Core/Src/stm32f7xx_hal_msp.c **** void HAL_CRC_MspInit(CRC_HandleTypeDef* hcrc)
  91:Core/Src/stm32f7xx_hal_msp.c **** {
  92:Core/Src/stm32f7xx_hal_msp.c ****   if(hcrc->Instance==CRC)
  93:Core/Src/stm32f7xx_hal_msp.c ****   {
  94:Core/Src/stm32f7xx_hal_msp.c ****   /* USER CODE BEGIN CRC_MspInit 0 */
  95:Core/Src/stm32f7xx_hal_msp.c **** 
  96:Core/Src/stm32f7xx_hal_msp.c ****   /* USER CODE END CRC_MspInit 0 */
  97:Core/Src/stm32f7xx_hal_msp.c ****     /* Peripheral clock enable */
  98:Core/Src/stm32f7xx_hal_msp.c ****     __HAL_RCC_CRC_CLK_ENABLE();
  99:Core/Src/stm32f7xx_hal_msp.c ****   /* USER CODE BEGIN CRC_MspInit 1 */
 100:Core/Src/stm32f7xx_hal_msp.c **** 
 101:Core/Src/stm32f7xx_hal_msp.c ****   /* USER CODE END CRC_MspInit 1 */
 102:Core/Src/stm32f7xx_hal_msp.c ****   }
 103:Core/Src/stm32f7xx_hal_msp.c **** 
 104:Core/Src/stm32f7xx_hal_msp.c **** }
 105:Core/Src/stm32f7xx_hal_msp.c **** 
 106:Core/Src/stm32f7xx_hal_msp.c **** /**
 107:Core/Src/stm32f7xx_hal_msp.c **** * @brief CRC MSP De-Initialization
 108:Core/Src/stm32f7xx_hal_msp.c **** * This function freeze the hardware resources used in this example
 109:Core/Src/stm32f7xx_hal_msp.c **** * @param hcrc: CRC handle pointer
 110:Core/Src/stm32f7xx_hal_msp.c **** * @retval None
 111:Core/Src/stm32f7xx_hal_msp.c **** */
 112:Core/Src/stm32f7xx_hal_msp.c **** void HAL_CRC_MspDeInit(CRC_HandleTypeDef* hcrc)
 113:Core/Src/stm32f7xx_hal_msp.c **** {
 114:Core/Src/stm32f7xx_hal_msp.c ****   if(hcrc->Instance==CRC)
 115:Core/Src/stm32f7xx_hal_msp.c ****   {
 116:Core/Src/stm32f7xx_hal_msp.c ****   /* USER CODE BEGIN CRC_MspDeInit 0 */
 117:Core/Src/stm32f7xx_hal_msp.c **** 
 118:Core/Src/stm32f7xx_hal_msp.c ****   /* USER CODE END CRC_MspDeInit 0 */
 119:Core/Src/stm32f7xx_hal_msp.c ****     /* Peripheral clock disable */
 120:Core/Src/stm32f7xx_hal_msp.c ****     __HAL_RCC_CRC_CLK_DISABLE();
 121:Core/Src/stm32f7xx_hal_msp.c ****   /* USER CODE BEGIN CRC_MspDeInit 1 */
 122:Core/Src/stm32f7xx_hal_msp.c **** 
 123:Core/Src/stm32f7xx_hal_msp.c ****   /* USER CODE END CRC_MspDeInit 1 */
 124:Core/Src/stm32f7xx_hal_msp.c ****   }
 125:Core/Src/stm32f7xx_hal_msp.c **** 
 126:Core/Src/stm32f7xx_hal_msp.c **** }
 127:Core/Src/stm32f7xx_hal_msp.c **** 
 128:Core/Src/stm32f7xx_hal_msp.c **** /**
 129:Core/Src/stm32f7xx_hal_msp.c **** * @brief I2C MSP Initialization
 130:Core/Src/stm32f7xx_hal_msp.c **** * This function configures the hardware resources used in this example
 131:Core/Src/stm32f7xx_hal_msp.c **** * @param hi2c: I2C handle pointer
 132:Core/Src/stm32f7xx_hal_msp.c **** * @retval None
 133:Core/Src/stm32f7xx_hal_msp.c **** */
 134:Core/Src/stm32f7xx_hal_msp.c **** void HAL_I2C_MspInit(I2C_HandleTypeDef* hi2c)
 135:Core/Src/stm32f7xx_hal_msp.c **** {
 136:Core/Src/stm32f7xx_hal_msp.c ****   GPIO_InitTypeDef GPIO_InitStruct = {0};
 137:Core/Src/stm32f7xx_hal_msp.c ****   RCC_PeriphCLKInitTypeDef PeriphClkInitStruct = {0};
 138:Core/Src/stm32f7xx_hal_msp.c ****   if(hi2c->Instance==I2C1)
 139:Core/Src/stm32f7xx_hal_msp.c ****   {
 140:Core/Src/stm32f7xx_hal_msp.c ****   /* USER CODE BEGIN I2C1_MspInit 0 */
 141:Core/Src/stm32f7xx_hal_msp.c **** 
 142:Core/Src/stm32f7xx_hal_msp.c ****   /* USER CODE END I2C1_MspInit 0 */
 143:Core/Src/stm32f7xx_hal_msp.c **** 
 144:Core/Src/stm32f7xx_hal_msp.c ****   /** Initializes the peripherals clock
 145:Core/Src/stm32f7xx_hal_msp.c ****   */
ARM GAS  C:\Users\jisu8\AppData\Local\Temp\cc20AWwL.s 			page 4


 146:Core/Src/stm32f7xx_hal_msp.c ****     PeriphClkInitStruct.PeriphClockSelection = RCC_PERIPHCLK_I2C1;
 147:Core/Src/stm32f7xx_hal_msp.c ****     PeriphClkInitStruct.I2c1ClockSelection = RCC_I2C1CLKSOURCE_PCLK1;
 148:Core/Src/stm32f7xx_hal_msp.c ****     if (HAL_RCCEx_PeriphCLKConfig(&PeriphClkInitStruct) != HAL_OK)
 149:Core/Src/stm32f7xx_hal_msp.c ****     {
 150:Core/Src/stm32f7xx_hal_msp.c ****       Error_Handler();
 151:Core/Src/stm32f7xx_hal_msp.c ****     }
 152:Core/Src/stm32f7xx_hal_msp.c **** 
 153:Core/Src/stm32f7xx_hal_msp.c ****     __HAL_RCC_GPIOB_CLK_ENABLE();
 154:Core/Src/stm32f7xx_hal_msp.c ****     /**I2C1 GPIO Configuration
 155:Core/Src/stm32f7xx_hal_msp.c ****     PB8     ------> I2C1_SCL
 156:Core/Src/stm32f7xx_hal_msp.c ****     PB9     ------> I2C1_SDA
 157:Core/Src/stm32f7xx_hal_msp.c ****     */
 158:Core/Src/stm32f7xx_hal_msp.c ****     GPIO_InitStruct.Pin = ARDUINO_SCL_D15_Pin|ARDUINO_SDA_D14_Pin;
 159:Core/Src/stm32f7xx_hal_msp.c ****     GPIO_InitStruct.Mode = GPIO_MODE_AF_OD;
 160:Core/Src/stm32f7xx_hal_msp.c ****     GPIO_InitStruct.Pull = GPIO_PULLUP;
 161:Core/Src/stm32f7xx_hal_msp.c ****     GPIO_InitStruct.Speed = GPIO_SPEED_FREQ_LOW;
 162:Core/Src/stm32f7xx_hal_msp.c ****     GPIO_InitStruct.Alternate = GPIO_AF4_I2C1;
 163:Core/Src/stm32f7xx_hal_msp.c ****     HAL_GPIO_Init(GPIOB, &GPIO_InitStruct);
 164:Core/Src/stm32f7xx_hal_msp.c **** 
 165:Core/Src/stm32f7xx_hal_msp.c ****     /* Peripheral clock enable */
 166:Core/Src/stm32f7xx_hal_msp.c ****     __HAL_RCC_I2C1_CLK_ENABLE();
 167:Core/Src/stm32f7xx_hal_msp.c ****   /* USER CODE BEGIN I2C1_MspInit 1 */
 168:Core/Src/stm32f7xx_hal_msp.c **** 
 169:Core/Src/stm32f7xx_hal_msp.c ****   /* USER CODE END I2C1_MspInit 1 */
 170:Core/Src/stm32f7xx_hal_msp.c ****   }
 171:Core/Src/stm32f7xx_hal_msp.c ****   else if(hi2c->Instance==I2C3)
 172:Core/Src/stm32f7xx_hal_msp.c ****   {
 173:Core/Src/stm32f7xx_hal_msp.c ****   /* USER CODE BEGIN I2C3_MspInit 0 */
 174:Core/Src/stm32f7xx_hal_msp.c **** 
 175:Core/Src/stm32f7xx_hal_msp.c ****   /* USER CODE END I2C3_MspInit 0 */
 176:Core/Src/stm32f7xx_hal_msp.c **** 
 177:Core/Src/stm32f7xx_hal_msp.c ****   /** Initializes the peripherals clock
 178:Core/Src/stm32f7xx_hal_msp.c ****   */
 179:Core/Src/stm32f7xx_hal_msp.c ****     PeriphClkInitStruct.PeriphClockSelection = RCC_PERIPHCLK_I2C3;
 180:Core/Src/stm32f7xx_hal_msp.c ****     PeriphClkInitStruct.I2c3ClockSelection = RCC_I2C3CLKSOURCE_PCLK1;
 181:Core/Src/stm32f7xx_hal_msp.c ****     if (HAL_RCCEx_PeriphCLKConfig(&PeriphClkInitStruct) != HAL_OK)
 182:Core/Src/stm32f7xx_hal_msp.c ****     {
 183:Core/Src/stm32f7xx_hal_msp.c ****       Error_Handler();
 184:Core/Src/stm32f7xx_hal_msp.c ****     }
 185:Core/Src/stm32f7xx_hal_msp.c **** 
 186:Core/Src/stm32f7xx_hal_msp.c ****     __HAL_RCC_GPIOH_CLK_ENABLE();
 187:Core/Src/stm32f7xx_hal_msp.c ****     /**I2C3 GPIO Configuration
 188:Core/Src/stm32f7xx_hal_msp.c ****     PH7     ------> I2C3_SCL
 189:Core/Src/stm32f7xx_hal_msp.c ****     PH8     ------> I2C3_SDA
 190:Core/Src/stm32f7xx_hal_msp.c ****     */
 191:Core/Src/stm32f7xx_hal_msp.c ****     GPIO_InitStruct.Pin = LCD_SCL_Pin|LCD_SDA_Pin;
 192:Core/Src/stm32f7xx_hal_msp.c ****     GPIO_InitStruct.Mode = GPIO_MODE_AF_OD;
 193:Core/Src/stm32f7xx_hal_msp.c ****     GPIO_InitStruct.Pull = GPIO_PULLUP;
 194:Core/Src/stm32f7xx_hal_msp.c ****     GPIO_InitStruct.Speed = GPIO_SPEED_FREQ_VERY_HIGH;
 195:Core/Src/stm32f7xx_hal_msp.c ****     GPIO_InitStruct.Alternate = GPIO_AF4_I2C3;
 196:Core/Src/stm32f7xx_hal_msp.c ****     HAL_GPIO_Init(GPIOH, &GPIO_InitStruct);
 197:Core/Src/stm32f7xx_hal_msp.c **** 
 198:Core/Src/stm32f7xx_hal_msp.c ****     /* Peripheral clock enable */
 199:Core/Src/stm32f7xx_hal_msp.c ****     __HAL_RCC_I2C3_CLK_ENABLE();
 200:Core/Src/stm32f7xx_hal_msp.c ****   /* USER CODE BEGIN I2C3_MspInit 1 */
 201:Core/Src/stm32f7xx_hal_msp.c **** 
 202:Core/Src/stm32f7xx_hal_msp.c ****   /* USER CODE END I2C3_MspInit 1 */
ARM GAS  C:\Users\jisu8\AppData\Local\Temp\cc20AWwL.s 			page 5


 203:Core/Src/stm32f7xx_hal_msp.c ****   }
 204:Core/Src/stm32f7xx_hal_msp.c **** 
 205:Core/Src/stm32f7xx_hal_msp.c **** }
 206:Core/Src/stm32f7xx_hal_msp.c **** 
 207:Core/Src/stm32f7xx_hal_msp.c **** /**
 208:Core/Src/stm32f7xx_hal_msp.c **** * @brief I2C MSP De-Initialization
 209:Core/Src/stm32f7xx_hal_msp.c **** * This function freeze the hardware resources used in this example
 210:Core/Src/stm32f7xx_hal_msp.c **** * @param hi2c: I2C handle pointer
 211:Core/Src/stm32f7xx_hal_msp.c **** * @retval None
 212:Core/Src/stm32f7xx_hal_msp.c **** */
 213:Core/Src/stm32f7xx_hal_msp.c **** void HAL_I2C_MspDeInit(I2C_HandleTypeDef* hi2c)
 214:Core/Src/stm32f7xx_hal_msp.c **** {
 215:Core/Src/stm32f7xx_hal_msp.c ****   if(hi2c->Instance==I2C1)
 216:Core/Src/stm32f7xx_hal_msp.c ****   {
 217:Core/Src/stm32f7xx_hal_msp.c ****   /* USER CODE BEGIN I2C1_MspDeInit 0 */
 218:Core/Src/stm32f7xx_hal_msp.c **** 
 219:Core/Src/stm32f7xx_hal_msp.c ****   /* USER CODE END I2C1_MspDeInit 0 */
 220:Core/Src/stm32f7xx_hal_msp.c ****     /* Peripheral clock disable */
 221:Core/Src/stm32f7xx_hal_msp.c ****     __HAL_RCC_I2C1_CLK_DISABLE();
 222:Core/Src/stm32f7xx_hal_msp.c **** 
 223:Core/Src/stm32f7xx_hal_msp.c ****     /**I2C1 GPIO Configuration
 224:Core/Src/stm32f7xx_hal_msp.c ****     PB8     ------> I2C1_SCL
 225:Core/Src/stm32f7xx_hal_msp.c ****     PB9     ------> I2C1_SDA
 226:Core/Src/stm32f7xx_hal_msp.c ****     */
 227:Core/Src/stm32f7xx_hal_msp.c ****     HAL_GPIO_DeInit(ARDUINO_SCL_D15_GPIO_Port, ARDUINO_SCL_D15_Pin);
 228:Core/Src/stm32f7xx_hal_msp.c **** 
 229:Core/Src/stm32f7xx_hal_msp.c ****     HAL_GPIO_DeInit(ARDUINO_SDA_D14_GPIO_Port, ARDUINO_SDA_D14_Pin);
 230:Core/Src/stm32f7xx_hal_msp.c **** 
 231:Core/Src/stm32f7xx_hal_msp.c ****   /* USER CODE BEGIN I2C1_MspDeInit 1 */
 232:Core/Src/stm32f7xx_hal_msp.c **** 
 233:Core/Src/stm32f7xx_hal_msp.c ****   /* USER CODE END I2C1_MspDeInit 1 */
 234:Core/Src/stm32f7xx_hal_msp.c ****   }
 235:Core/Src/stm32f7xx_hal_msp.c ****   else if(hi2c->Instance==I2C3)
 236:Core/Src/stm32f7xx_hal_msp.c ****   {
 237:Core/Src/stm32f7xx_hal_msp.c ****   /* USER CODE BEGIN I2C3_MspDeInit 0 */
 238:Core/Src/stm32f7xx_hal_msp.c **** 
 239:Core/Src/stm32f7xx_hal_msp.c ****   /* USER CODE END I2C3_MspDeInit 0 */
 240:Core/Src/stm32f7xx_hal_msp.c ****     /* Peripheral clock disable */
 241:Core/Src/stm32f7xx_hal_msp.c ****     __HAL_RCC_I2C3_CLK_DISABLE();
 242:Core/Src/stm32f7xx_hal_msp.c **** 
 243:Core/Src/stm32f7xx_hal_msp.c ****     /**I2C3 GPIO Configuration
 244:Core/Src/stm32f7xx_hal_msp.c ****     PH7     ------> I2C3_SCL
 245:Core/Src/stm32f7xx_hal_msp.c ****     PH8     ------> I2C3_SDA
 246:Core/Src/stm32f7xx_hal_msp.c ****     */
 247:Core/Src/stm32f7xx_hal_msp.c ****     HAL_GPIO_DeInit(LCD_SCL_GPIO_Port, LCD_SCL_Pin);
 248:Core/Src/stm32f7xx_hal_msp.c **** 
 249:Core/Src/stm32f7xx_hal_msp.c ****     HAL_GPIO_DeInit(LCD_SDA_GPIO_Port, LCD_SDA_Pin);
 250:Core/Src/stm32f7xx_hal_msp.c **** 
 251:Core/Src/stm32f7xx_hal_msp.c ****   /* USER CODE BEGIN I2C3_MspDeInit 1 */
 252:Core/Src/stm32f7xx_hal_msp.c **** 
 253:Core/Src/stm32f7xx_hal_msp.c ****   /* USER CODE END I2C3_MspDeInit 1 */
 254:Core/Src/stm32f7xx_hal_msp.c ****   }
 255:Core/Src/stm32f7xx_hal_msp.c **** 
 256:Core/Src/stm32f7xx_hal_msp.c **** }
 257:Core/Src/stm32f7xx_hal_msp.c **** 
 258:Core/Src/stm32f7xx_hal_msp.c **** /**
 259:Core/Src/stm32f7xx_hal_msp.c **** * @brief LTDC MSP Initialization
ARM GAS  C:\Users\jisu8\AppData\Local\Temp\cc20AWwL.s 			page 6


 260:Core/Src/stm32f7xx_hal_msp.c **** * This function configures the hardware resources used in this example
 261:Core/Src/stm32f7xx_hal_msp.c **** * @param hltdc: LTDC handle pointer
 262:Core/Src/stm32f7xx_hal_msp.c **** * @retval None
 263:Core/Src/stm32f7xx_hal_msp.c **** */
 264:Core/Src/stm32f7xx_hal_msp.c **** void HAL_LTDC_MspInit(LTDC_HandleTypeDef* hltdc)
 265:Core/Src/stm32f7xx_hal_msp.c **** {
 266:Core/Src/stm32f7xx_hal_msp.c ****   GPIO_InitTypeDef GPIO_InitStruct = {0};
 267:Core/Src/stm32f7xx_hal_msp.c ****   if(hltdc->Instance==LTDC)
 268:Core/Src/stm32f7xx_hal_msp.c ****   {
 269:Core/Src/stm32f7xx_hal_msp.c ****   /* USER CODE BEGIN LTDC_MspInit 0 */
 270:Core/Src/stm32f7xx_hal_msp.c **** 
 271:Core/Src/stm32f7xx_hal_msp.c ****   /* USER CODE END LTDC_MspInit 0 */
 272:Core/Src/stm32f7xx_hal_msp.c ****     /* Peripheral clock enable */
 273:Core/Src/stm32f7xx_hal_msp.c ****     __HAL_RCC_LTDC_CLK_ENABLE();
 274:Core/Src/stm32f7xx_hal_msp.c **** 
 275:Core/Src/stm32f7xx_hal_msp.c ****     __HAL_RCC_GPIOE_CLK_ENABLE();
 276:Core/Src/stm32f7xx_hal_msp.c ****     __HAL_RCC_GPIOJ_CLK_ENABLE();
 277:Core/Src/stm32f7xx_hal_msp.c ****     __HAL_RCC_GPIOK_CLK_ENABLE();
 278:Core/Src/stm32f7xx_hal_msp.c ****     __HAL_RCC_GPIOG_CLK_ENABLE();
 279:Core/Src/stm32f7xx_hal_msp.c ****     __HAL_RCC_GPIOI_CLK_ENABLE();
 280:Core/Src/stm32f7xx_hal_msp.c ****     /**LTDC GPIO Configuration
 281:Core/Src/stm32f7xx_hal_msp.c ****     PE4     ------> LTDC_B0
 282:Core/Src/stm32f7xx_hal_msp.c ****     PJ13     ------> LTDC_B1
 283:Core/Src/stm32f7xx_hal_msp.c ****     PK7     ------> LTDC_DE
 284:Core/Src/stm32f7xx_hal_msp.c ****     PK6     ------> LTDC_B7
 285:Core/Src/stm32f7xx_hal_msp.c ****     PK5     ------> LTDC_B6
 286:Core/Src/stm32f7xx_hal_msp.c ****     PG12     ------> LTDC_B4
 287:Core/Src/stm32f7xx_hal_msp.c ****     PJ14     ------> LTDC_B2
 288:Core/Src/stm32f7xx_hal_msp.c ****     PI10     ------> LTDC_HSYNC
 289:Core/Src/stm32f7xx_hal_msp.c ****     PK4     ------> LTDC_B5
 290:Core/Src/stm32f7xx_hal_msp.c ****     PJ15     ------> LTDC_B3
 291:Core/Src/stm32f7xx_hal_msp.c ****     PI9     ------> LTDC_VSYNC
 292:Core/Src/stm32f7xx_hal_msp.c ****     PK1     ------> LTDC_G6
 293:Core/Src/stm32f7xx_hal_msp.c ****     PK2     ------> LTDC_G7
 294:Core/Src/stm32f7xx_hal_msp.c ****     PI15     ------> LTDC_R0
 295:Core/Src/stm32f7xx_hal_msp.c ****     PJ11     ------> LTDC_G4
 296:Core/Src/stm32f7xx_hal_msp.c ****     PK0     ------> LTDC_G5
 297:Core/Src/stm32f7xx_hal_msp.c ****     PI14     ------> LTDC_CLK
 298:Core/Src/stm32f7xx_hal_msp.c ****     PJ8     ------> LTDC_G1
 299:Core/Src/stm32f7xx_hal_msp.c ****     PJ10     ------> LTDC_G3
 300:Core/Src/stm32f7xx_hal_msp.c ****     PJ7     ------> LTDC_G0
 301:Core/Src/stm32f7xx_hal_msp.c ****     PJ9     ------> LTDC_G2
 302:Core/Src/stm32f7xx_hal_msp.c ****     PJ6     ------> LTDC_R7
 303:Core/Src/stm32f7xx_hal_msp.c ****     PJ4     ------> LTDC_R5
 304:Core/Src/stm32f7xx_hal_msp.c ****     PJ5     ------> LTDC_R6
 305:Core/Src/stm32f7xx_hal_msp.c ****     PJ3     ------> LTDC_R4
 306:Core/Src/stm32f7xx_hal_msp.c ****     PJ2     ------> LTDC_R3
 307:Core/Src/stm32f7xx_hal_msp.c ****     PJ0     ------> LTDC_R1
 308:Core/Src/stm32f7xx_hal_msp.c ****     PJ1     ------> LTDC_R2
 309:Core/Src/stm32f7xx_hal_msp.c ****     */
 310:Core/Src/stm32f7xx_hal_msp.c ****     GPIO_InitStruct.Pin = LCD_B0_Pin;
 311:Core/Src/stm32f7xx_hal_msp.c ****     GPIO_InitStruct.Mode = GPIO_MODE_AF_PP;
 312:Core/Src/stm32f7xx_hal_msp.c ****     GPIO_InitStruct.Pull = GPIO_NOPULL;
 313:Core/Src/stm32f7xx_hal_msp.c ****     GPIO_InitStruct.Speed = GPIO_SPEED_FREQ_LOW;
 314:Core/Src/stm32f7xx_hal_msp.c ****     GPIO_InitStruct.Alternate = GPIO_AF14_LTDC;
 315:Core/Src/stm32f7xx_hal_msp.c ****     HAL_GPIO_Init(LCD_B0_GPIO_Port, &GPIO_InitStruct);
 316:Core/Src/stm32f7xx_hal_msp.c **** 
ARM GAS  C:\Users\jisu8\AppData\Local\Temp\cc20AWwL.s 			page 7


 317:Core/Src/stm32f7xx_hal_msp.c ****     GPIO_InitStruct.Pin = LCD_B1_Pin|LCD_B2_Pin|LCD_B3_Pin|LCD_G4_Pin
 318:Core/Src/stm32f7xx_hal_msp.c ****                           |LCD_G1_Pin|LCD_G3_Pin|LCD_G0_Pin|LCD_G2_Pin
 319:Core/Src/stm32f7xx_hal_msp.c ****                           |LCD_R7_Pin|LCD_R5_Pin|LCD_R6_Pin|LCD_R4_Pin
 320:Core/Src/stm32f7xx_hal_msp.c ****                           |LCD_R3_Pin|LCD_R1_Pin|LCD_R2_Pin;
 321:Core/Src/stm32f7xx_hal_msp.c ****     GPIO_InitStruct.Mode = GPIO_MODE_AF_PP;
 322:Core/Src/stm32f7xx_hal_msp.c ****     GPIO_InitStruct.Pull = GPIO_NOPULL;
 323:Core/Src/stm32f7xx_hal_msp.c ****     GPIO_InitStruct.Speed = GPIO_SPEED_FREQ_LOW;
 324:Core/Src/stm32f7xx_hal_msp.c ****     GPIO_InitStruct.Alternate = GPIO_AF14_LTDC;
 325:Core/Src/stm32f7xx_hal_msp.c ****     HAL_GPIO_Init(GPIOJ, &GPIO_InitStruct);
 326:Core/Src/stm32f7xx_hal_msp.c **** 
 327:Core/Src/stm32f7xx_hal_msp.c ****     GPIO_InitStruct.Pin = LCD_DE_Pin|LCD_B7_Pin|LCD_B6_Pin|LCD_B5_Pin
 328:Core/Src/stm32f7xx_hal_msp.c ****                           |LCD_G6_Pin|LCD_G7_Pin|LCD_G5_Pin;
 329:Core/Src/stm32f7xx_hal_msp.c ****     GPIO_InitStruct.Mode = GPIO_MODE_AF_PP;
 330:Core/Src/stm32f7xx_hal_msp.c ****     GPIO_InitStruct.Pull = GPIO_NOPULL;
 331:Core/Src/stm32f7xx_hal_msp.c ****     GPIO_InitStruct.Speed = GPIO_SPEED_FREQ_LOW;
 332:Core/Src/stm32f7xx_hal_msp.c ****     GPIO_InitStruct.Alternate = GPIO_AF14_LTDC;
 333:Core/Src/stm32f7xx_hal_msp.c ****     HAL_GPIO_Init(GPIOK, &GPIO_InitStruct);
 334:Core/Src/stm32f7xx_hal_msp.c **** 
 335:Core/Src/stm32f7xx_hal_msp.c ****     GPIO_InitStruct.Pin = LCD_B4_Pin;
 336:Core/Src/stm32f7xx_hal_msp.c ****     GPIO_InitStruct.Mode = GPIO_MODE_AF_PP;
 337:Core/Src/stm32f7xx_hal_msp.c ****     GPIO_InitStruct.Pull = GPIO_NOPULL;
 338:Core/Src/stm32f7xx_hal_msp.c ****     GPIO_InitStruct.Speed = GPIO_SPEED_FREQ_LOW;
 339:Core/Src/stm32f7xx_hal_msp.c ****     GPIO_InitStruct.Alternate = GPIO_AF9_LTDC;
 340:Core/Src/stm32f7xx_hal_msp.c ****     HAL_GPIO_Init(LCD_B4_GPIO_Port, &GPIO_InitStruct);
 341:Core/Src/stm32f7xx_hal_msp.c **** 
 342:Core/Src/stm32f7xx_hal_msp.c ****     GPIO_InitStruct.Pin = LCD_HSYNC_Pin|LCD_VSYNC_Pin|LCD_R0_Pin|LCD_CLK_Pin;
 343:Core/Src/stm32f7xx_hal_msp.c ****     GPIO_InitStruct.Mode = GPIO_MODE_AF_PP;
 344:Core/Src/stm32f7xx_hal_msp.c ****     GPIO_InitStruct.Pull = GPIO_NOPULL;
 345:Core/Src/stm32f7xx_hal_msp.c ****     GPIO_InitStruct.Speed = GPIO_SPEED_FREQ_LOW;
 346:Core/Src/stm32f7xx_hal_msp.c ****     GPIO_InitStruct.Alternate = GPIO_AF14_LTDC;
 347:Core/Src/stm32f7xx_hal_msp.c ****     HAL_GPIO_Init(GPIOI, &GPIO_InitStruct);
 348:Core/Src/stm32f7xx_hal_msp.c **** 
 349:Core/Src/stm32f7xx_hal_msp.c ****     /* LTDC interrupt Init */
 350:Core/Src/stm32f7xx_hal_msp.c ****     HAL_NVIC_SetPriority(LTDC_IRQn, 5, 0);
 351:Core/Src/stm32f7xx_hal_msp.c ****     HAL_NVIC_EnableIRQ(LTDC_IRQn);
 352:Core/Src/stm32f7xx_hal_msp.c ****   /* USER CODE BEGIN LTDC_MspInit 1 */
 353:Core/Src/stm32f7xx_hal_msp.c **** 
 354:Core/Src/stm32f7xx_hal_msp.c ****   /* USER CODE END LTDC_MspInit 1 */
 355:Core/Src/stm32f7xx_hal_msp.c ****   }
 356:Core/Src/stm32f7xx_hal_msp.c **** 
 357:Core/Src/stm32f7xx_hal_msp.c **** }
 358:Core/Src/stm32f7xx_hal_msp.c **** 
 359:Core/Src/stm32f7xx_hal_msp.c **** /**
 360:Core/Src/stm32f7xx_hal_msp.c **** * @brief LTDC MSP De-Initialization
 361:Core/Src/stm32f7xx_hal_msp.c **** * This function freeze the hardware resources used in this example
 362:Core/Src/stm32f7xx_hal_msp.c **** * @param hltdc: LTDC handle pointer
 363:Core/Src/stm32f7xx_hal_msp.c **** * @retval None
 364:Core/Src/stm32f7xx_hal_msp.c **** */
 365:Core/Src/stm32f7xx_hal_msp.c **** void HAL_LTDC_MspDeInit(LTDC_HandleTypeDef* hltdc)
 366:Core/Src/stm32f7xx_hal_msp.c **** {
 367:Core/Src/stm32f7xx_hal_msp.c ****   if(hltdc->Instance==LTDC)
 368:Core/Src/stm32f7xx_hal_msp.c ****   {
 369:Core/Src/stm32f7xx_hal_msp.c ****   /* USER CODE BEGIN LTDC_MspDeInit 0 */
 370:Core/Src/stm32f7xx_hal_msp.c **** 
 371:Core/Src/stm32f7xx_hal_msp.c ****   /* USER CODE END LTDC_MspDeInit 0 */
 372:Core/Src/stm32f7xx_hal_msp.c ****     /* Peripheral clock disable */
 373:Core/Src/stm32f7xx_hal_msp.c ****     __HAL_RCC_LTDC_CLK_DISABLE();
ARM GAS  C:\Users\jisu8\AppData\Local\Temp\cc20AWwL.s 			page 8


 374:Core/Src/stm32f7xx_hal_msp.c **** 
 375:Core/Src/stm32f7xx_hal_msp.c ****     /**LTDC GPIO Configuration
 376:Core/Src/stm32f7xx_hal_msp.c ****     PE4     ------> LTDC_B0
 377:Core/Src/stm32f7xx_hal_msp.c ****     PJ13     ------> LTDC_B1
 378:Core/Src/stm32f7xx_hal_msp.c ****     PK7     ------> LTDC_DE
 379:Core/Src/stm32f7xx_hal_msp.c ****     PK6     ------> LTDC_B7
 380:Core/Src/stm32f7xx_hal_msp.c ****     PK5     ------> LTDC_B6
 381:Core/Src/stm32f7xx_hal_msp.c ****     PG12     ------> LTDC_B4
 382:Core/Src/stm32f7xx_hal_msp.c ****     PJ14     ------> LTDC_B2
 383:Core/Src/stm32f7xx_hal_msp.c ****     PI10     ------> LTDC_HSYNC
 384:Core/Src/stm32f7xx_hal_msp.c ****     PK4     ------> LTDC_B5
 385:Core/Src/stm32f7xx_hal_msp.c ****     PJ15     ------> LTDC_B3
 386:Core/Src/stm32f7xx_hal_msp.c ****     PI9     ------> LTDC_VSYNC
 387:Core/Src/stm32f7xx_hal_msp.c ****     PK1     ------> LTDC_G6
 388:Core/Src/stm32f7xx_hal_msp.c ****     PK2     ------> LTDC_G7
 389:Core/Src/stm32f7xx_hal_msp.c ****     PI15     ------> LTDC_R0
 390:Core/Src/stm32f7xx_hal_msp.c ****     PJ11     ------> LTDC_G4
 391:Core/Src/stm32f7xx_hal_msp.c ****     PK0     ------> LTDC_G5
 392:Core/Src/stm32f7xx_hal_msp.c ****     PI14     ------> LTDC_CLK
 393:Core/Src/stm32f7xx_hal_msp.c ****     PJ8     ------> LTDC_G1
 394:Core/Src/stm32f7xx_hal_msp.c ****     PJ10     ------> LTDC_G3
 395:Core/Src/stm32f7xx_hal_msp.c ****     PJ7     ------> LTDC_G0
 396:Core/Src/stm32f7xx_hal_msp.c ****     PJ9     ------> LTDC_G2
 397:Core/Src/stm32f7xx_hal_msp.c ****     PJ6     ------> LTDC_R7
 398:Core/Src/stm32f7xx_hal_msp.c ****     PJ4     ------> LTDC_R5
 399:Core/Src/stm32f7xx_hal_msp.c ****     PJ5     ------> LTDC_R6
 400:Core/Src/stm32f7xx_hal_msp.c ****     PJ3     ------> LTDC_R4
 401:Core/Src/stm32f7xx_hal_msp.c ****     PJ2     ------> LTDC_R3
 402:Core/Src/stm32f7xx_hal_msp.c ****     PJ0     ------> LTDC_R1
 403:Core/Src/stm32f7xx_hal_msp.c ****     PJ1     ------> LTDC_R2
 404:Core/Src/stm32f7xx_hal_msp.c ****     */
 405:Core/Src/stm32f7xx_hal_msp.c ****     HAL_GPIO_DeInit(LCD_B0_GPIO_Port, LCD_B0_Pin);
 406:Core/Src/stm32f7xx_hal_msp.c **** 
 407:Core/Src/stm32f7xx_hal_msp.c ****     HAL_GPIO_DeInit(GPIOJ, LCD_B1_Pin|LCD_B2_Pin|LCD_B3_Pin|LCD_G4_Pin
 408:Core/Src/stm32f7xx_hal_msp.c ****                           |LCD_G1_Pin|LCD_G3_Pin|LCD_G0_Pin|LCD_G2_Pin
 409:Core/Src/stm32f7xx_hal_msp.c ****                           |LCD_R7_Pin|LCD_R5_Pin|LCD_R6_Pin|LCD_R4_Pin
 410:Core/Src/stm32f7xx_hal_msp.c ****                           |LCD_R3_Pin|LCD_R1_Pin|LCD_R2_Pin);
 411:Core/Src/stm32f7xx_hal_msp.c **** 
 412:Core/Src/stm32f7xx_hal_msp.c ****     HAL_GPIO_DeInit(GPIOK, LCD_DE_Pin|LCD_B7_Pin|LCD_B6_Pin|LCD_B5_Pin
 413:Core/Src/stm32f7xx_hal_msp.c ****                           |LCD_G6_Pin|LCD_G7_Pin|LCD_G5_Pin);
 414:Core/Src/stm32f7xx_hal_msp.c **** 
 415:Core/Src/stm32f7xx_hal_msp.c ****     HAL_GPIO_DeInit(LCD_B4_GPIO_Port, LCD_B4_Pin);
 416:Core/Src/stm32f7xx_hal_msp.c **** 
 417:Core/Src/stm32f7xx_hal_msp.c ****     HAL_GPIO_DeInit(GPIOI, LCD_HSYNC_Pin|LCD_VSYNC_Pin|LCD_R0_Pin|LCD_CLK_Pin);
 418:Core/Src/stm32f7xx_hal_msp.c **** 
 419:Core/Src/stm32f7xx_hal_msp.c ****     /* LTDC interrupt DeInit */
 420:Core/Src/stm32f7xx_hal_msp.c ****     HAL_NVIC_DisableIRQ(LTDC_IRQn);
 421:Core/Src/stm32f7xx_hal_msp.c ****   /* USER CODE BEGIN LTDC_MspDeInit 1 */
 422:Core/Src/stm32f7xx_hal_msp.c **** 
 423:Core/Src/stm32f7xx_hal_msp.c ****   /* USER CODE END LTDC_MspDeInit 1 */
 424:Core/Src/stm32f7xx_hal_msp.c ****   }
 425:Core/Src/stm32f7xx_hal_msp.c **** 
 426:Core/Src/stm32f7xx_hal_msp.c **** }
 427:Core/Src/stm32f7xx_hal_msp.c **** 
 428:Core/Src/stm32f7xx_hal_msp.c **** /**
 429:Core/Src/stm32f7xx_hal_msp.c **** * @brief QSPI MSP Initialization
 430:Core/Src/stm32f7xx_hal_msp.c **** * This function configures the hardware resources used in this example
ARM GAS  C:\Users\jisu8\AppData\Local\Temp\cc20AWwL.s 			page 9


 431:Core/Src/stm32f7xx_hal_msp.c **** * @param hqspi: QSPI handle pointer
 432:Core/Src/stm32f7xx_hal_msp.c **** * @retval None
 433:Core/Src/stm32f7xx_hal_msp.c **** */
 434:Core/Src/stm32f7xx_hal_msp.c **** void HAL_QSPI_MspInit(QSPI_HandleTypeDef* hqspi)
 435:Core/Src/stm32f7xx_hal_msp.c **** {
 436:Core/Src/stm32f7xx_hal_msp.c ****   GPIO_InitTypeDef GPIO_InitStruct = {0};
 437:Core/Src/stm32f7xx_hal_msp.c ****   if(hqspi->Instance==QUADSPI)
 438:Core/Src/stm32f7xx_hal_msp.c ****   {
 439:Core/Src/stm32f7xx_hal_msp.c ****   /* USER CODE BEGIN QUADSPI_MspInit 0 */
 440:Core/Src/stm32f7xx_hal_msp.c **** 
 441:Core/Src/stm32f7xx_hal_msp.c ****   /* USER CODE END QUADSPI_MspInit 0 */
 442:Core/Src/stm32f7xx_hal_msp.c ****     /* Peripheral clock enable */
 443:Core/Src/stm32f7xx_hal_msp.c ****     __HAL_RCC_QSPI_CLK_ENABLE();
 444:Core/Src/stm32f7xx_hal_msp.c **** 
 445:Core/Src/stm32f7xx_hal_msp.c ****     __HAL_RCC_GPIOE_CLK_ENABLE();
 446:Core/Src/stm32f7xx_hal_msp.c ****     __HAL_RCC_GPIOB_CLK_ENABLE();
 447:Core/Src/stm32f7xx_hal_msp.c ****     __HAL_RCC_GPIOD_CLK_ENABLE();
 448:Core/Src/stm32f7xx_hal_msp.c ****     /**QUADSPI GPIO Configuration
 449:Core/Src/stm32f7xx_hal_msp.c ****     PE2     ------> QUADSPI_BK1_IO2
 450:Core/Src/stm32f7xx_hal_msp.c ****     PB6     ------> QUADSPI_BK1_NCS
 451:Core/Src/stm32f7xx_hal_msp.c ****     PB2     ------> QUADSPI_CLK
 452:Core/Src/stm32f7xx_hal_msp.c ****     PD12     ------> QUADSPI_BK1_IO1
 453:Core/Src/stm32f7xx_hal_msp.c ****     PD13     ------> QUADSPI_BK1_IO3
 454:Core/Src/stm32f7xx_hal_msp.c ****     PD11     ------> QUADSPI_BK1_IO0
 455:Core/Src/stm32f7xx_hal_msp.c ****     */
 456:Core/Src/stm32f7xx_hal_msp.c ****     GPIO_InitStruct.Pin = QSPI_D2_Pin;
 457:Core/Src/stm32f7xx_hal_msp.c ****     GPIO_InitStruct.Mode = GPIO_MODE_AF_PP;
 458:Core/Src/stm32f7xx_hal_msp.c ****     GPIO_InitStruct.Pull = GPIO_NOPULL;
 459:Core/Src/stm32f7xx_hal_msp.c ****     GPIO_InitStruct.Speed = GPIO_SPEED_FREQ_VERY_HIGH;
 460:Core/Src/stm32f7xx_hal_msp.c ****     GPIO_InitStruct.Alternate = GPIO_AF9_QUADSPI;
 461:Core/Src/stm32f7xx_hal_msp.c ****     HAL_GPIO_Init(QSPI_D2_GPIO_Port, &GPIO_InitStruct);
 462:Core/Src/stm32f7xx_hal_msp.c **** 
 463:Core/Src/stm32f7xx_hal_msp.c ****     GPIO_InitStruct.Pin = QSPI_NCS_Pin;
 464:Core/Src/stm32f7xx_hal_msp.c ****     GPIO_InitStruct.Mode = GPIO_MODE_AF_PP;
 465:Core/Src/stm32f7xx_hal_msp.c ****     GPIO_InitStruct.Pull = GPIO_NOPULL;
 466:Core/Src/stm32f7xx_hal_msp.c ****     GPIO_InitStruct.Speed = GPIO_SPEED_FREQ_VERY_HIGH;
 467:Core/Src/stm32f7xx_hal_msp.c ****     GPIO_InitStruct.Alternate = GPIO_AF10_QUADSPI;
 468:Core/Src/stm32f7xx_hal_msp.c ****     HAL_GPIO_Init(QSPI_NCS_GPIO_Port, &GPIO_InitStruct);
 469:Core/Src/stm32f7xx_hal_msp.c **** 
 470:Core/Src/stm32f7xx_hal_msp.c ****     GPIO_InitStruct.Pin = GPIO_PIN_2;
 471:Core/Src/stm32f7xx_hal_msp.c ****     GPIO_InitStruct.Mode = GPIO_MODE_AF_PP;
 472:Core/Src/stm32f7xx_hal_msp.c ****     GPIO_InitStruct.Pull = GPIO_NOPULL;
 473:Core/Src/stm32f7xx_hal_msp.c ****     GPIO_InitStruct.Speed = GPIO_SPEED_FREQ_VERY_HIGH;
 474:Core/Src/stm32f7xx_hal_msp.c ****     GPIO_InitStruct.Alternate = GPIO_AF9_QUADSPI;
 475:Core/Src/stm32f7xx_hal_msp.c ****     HAL_GPIO_Init(GPIOB, &GPIO_InitStruct);
 476:Core/Src/stm32f7xx_hal_msp.c **** 
 477:Core/Src/stm32f7xx_hal_msp.c ****     GPIO_InitStruct.Pin = QSPI_D1_Pin|QSPI_D3_Pin|QSPI_D0_Pin;
 478:Core/Src/stm32f7xx_hal_msp.c ****     GPIO_InitStruct.Mode = GPIO_MODE_AF_PP;
 479:Core/Src/stm32f7xx_hal_msp.c ****     GPIO_InitStruct.Pull = GPIO_NOPULL;
 480:Core/Src/stm32f7xx_hal_msp.c ****     GPIO_InitStruct.Speed = GPIO_SPEED_FREQ_VERY_HIGH;
 481:Core/Src/stm32f7xx_hal_msp.c ****     GPIO_InitStruct.Alternate = GPIO_AF9_QUADSPI;
 482:Core/Src/stm32f7xx_hal_msp.c ****     HAL_GPIO_Init(GPIOD, &GPIO_InitStruct);
 483:Core/Src/stm32f7xx_hal_msp.c **** 
 484:Core/Src/stm32f7xx_hal_msp.c ****   /* USER CODE BEGIN QUADSPI_MspInit 1 */
 485:Core/Src/stm32f7xx_hal_msp.c **** 
 486:Core/Src/stm32f7xx_hal_msp.c ****   /* USER CODE END QUADSPI_MspInit 1 */
 487:Core/Src/stm32f7xx_hal_msp.c ****   }
ARM GAS  C:\Users\jisu8\AppData\Local\Temp\cc20AWwL.s 			page 10


 488:Core/Src/stm32f7xx_hal_msp.c **** 
 489:Core/Src/stm32f7xx_hal_msp.c **** }
 490:Core/Src/stm32f7xx_hal_msp.c **** 
 491:Core/Src/stm32f7xx_hal_msp.c **** /**
 492:Core/Src/stm32f7xx_hal_msp.c **** * @brief QSPI MSP De-Initialization
 493:Core/Src/stm32f7xx_hal_msp.c **** * This function freeze the hardware resources used in this example
 494:Core/Src/stm32f7xx_hal_msp.c **** * @param hqspi: QSPI handle pointer
 495:Core/Src/stm32f7xx_hal_msp.c **** * @retval None
 496:Core/Src/stm32f7xx_hal_msp.c **** */
 497:Core/Src/stm32f7xx_hal_msp.c **** void HAL_QSPI_MspDeInit(QSPI_HandleTypeDef* hqspi)
 498:Core/Src/stm32f7xx_hal_msp.c **** {
 499:Core/Src/stm32f7xx_hal_msp.c ****   if(hqspi->Instance==QUADSPI)
 500:Core/Src/stm32f7xx_hal_msp.c ****   {
 501:Core/Src/stm32f7xx_hal_msp.c ****   /* USER CODE BEGIN QUADSPI_MspDeInit 0 */
 502:Core/Src/stm32f7xx_hal_msp.c **** 
 503:Core/Src/stm32f7xx_hal_msp.c ****   /* USER CODE END QUADSPI_MspDeInit 0 */
 504:Core/Src/stm32f7xx_hal_msp.c ****     /* Peripheral clock disable */
 505:Core/Src/stm32f7xx_hal_msp.c ****     __HAL_RCC_QSPI_CLK_DISABLE();
 506:Core/Src/stm32f7xx_hal_msp.c **** 
 507:Core/Src/stm32f7xx_hal_msp.c ****     /**QUADSPI GPIO Configuration
 508:Core/Src/stm32f7xx_hal_msp.c ****     PE2     ------> QUADSPI_BK1_IO2
 509:Core/Src/stm32f7xx_hal_msp.c ****     PB6     ------> QUADSPI_BK1_NCS
 510:Core/Src/stm32f7xx_hal_msp.c ****     PB2     ------> QUADSPI_CLK
 511:Core/Src/stm32f7xx_hal_msp.c ****     PD12     ------> QUADSPI_BK1_IO1
 512:Core/Src/stm32f7xx_hal_msp.c ****     PD13     ------> QUADSPI_BK1_IO3
 513:Core/Src/stm32f7xx_hal_msp.c ****     PD11     ------> QUADSPI_BK1_IO0
 514:Core/Src/stm32f7xx_hal_msp.c ****     */
 515:Core/Src/stm32f7xx_hal_msp.c ****     HAL_GPIO_DeInit(QSPI_D2_GPIO_Port, QSPI_D2_Pin);
 516:Core/Src/stm32f7xx_hal_msp.c **** 
 517:Core/Src/stm32f7xx_hal_msp.c ****     HAL_GPIO_DeInit(GPIOB, QSPI_NCS_Pin|GPIO_PIN_2);
 518:Core/Src/stm32f7xx_hal_msp.c **** 
 519:Core/Src/stm32f7xx_hal_msp.c ****     HAL_GPIO_DeInit(GPIOD, QSPI_D1_Pin|QSPI_D3_Pin|QSPI_D0_Pin);
 520:Core/Src/stm32f7xx_hal_msp.c **** 
 521:Core/Src/stm32f7xx_hal_msp.c ****   /* USER CODE BEGIN QUADSPI_MspDeInit 1 */
 522:Core/Src/stm32f7xx_hal_msp.c **** 
 523:Core/Src/stm32f7xx_hal_msp.c ****   /* USER CODE END QUADSPI_MspDeInit 1 */
 524:Core/Src/stm32f7xx_hal_msp.c ****   }
 525:Core/Src/stm32f7xx_hal_msp.c **** 
 526:Core/Src/stm32f7xx_hal_msp.c **** }
 527:Core/Src/stm32f7xx_hal_msp.c **** 
 528:Core/Src/stm32f7xx_hal_msp.c **** /**
 529:Core/Src/stm32f7xx_hal_msp.c **** * @brief SD MSP Initialization
 530:Core/Src/stm32f7xx_hal_msp.c **** * This function configures the hardware resources used in this example
 531:Core/Src/stm32f7xx_hal_msp.c **** * @param hsd: SD handle pointer
 532:Core/Src/stm32f7xx_hal_msp.c **** * @retval None
 533:Core/Src/stm32f7xx_hal_msp.c **** */
 534:Core/Src/stm32f7xx_hal_msp.c **** void HAL_SD_MspInit(SD_HandleTypeDef* hsd)
 535:Core/Src/stm32f7xx_hal_msp.c **** {
 536:Core/Src/stm32f7xx_hal_msp.c ****   GPIO_InitTypeDef GPIO_InitStruct = {0};
 537:Core/Src/stm32f7xx_hal_msp.c ****   if(hsd->Instance==SDMMC1)
 538:Core/Src/stm32f7xx_hal_msp.c ****   {
 539:Core/Src/stm32f7xx_hal_msp.c ****   /* USER CODE BEGIN SDMMC1_MspInit 0 */
 540:Core/Src/stm32f7xx_hal_msp.c **** 
 541:Core/Src/stm32f7xx_hal_msp.c ****   /* USER CODE END SDMMC1_MspInit 0 */
 542:Core/Src/stm32f7xx_hal_msp.c ****     /* Peripheral clock enable */
 543:Core/Src/stm32f7xx_hal_msp.c ****     __HAL_RCC_SDMMC1_CLK_ENABLE();
 544:Core/Src/stm32f7xx_hal_msp.c **** 
ARM GAS  C:\Users\jisu8\AppData\Local\Temp\cc20AWwL.s 			page 11


 545:Core/Src/stm32f7xx_hal_msp.c ****     __HAL_RCC_GPIOC_CLK_ENABLE();
 546:Core/Src/stm32f7xx_hal_msp.c ****     __HAL_RCC_GPIOD_CLK_ENABLE();
 547:Core/Src/stm32f7xx_hal_msp.c ****     /**SDMMC1 GPIO Configuration
 548:Core/Src/stm32f7xx_hal_msp.c ****     PC12     ------> SDMMC1_CK
 549:Core/Src/stm32f7xx_hal_msp.c ****     PC11     ------> SDMMC1_D3
 550:Core/Src/stm32f7xx_hal_msp.c ****     PC10     ------> SDMMC1_D2
 551:Core/Src/stm32f7xx_hal_msp.c ****     PD2     ------> SDMMC1_CMD
 552:Core/Src/stm32f7xx_hal_msp.c ****     PC9     ------> SDMMC1_D1
 553:Core/Src/stm32f7xx_hal_msp.c ****     PC8     ------> SDMMC1_D0
 554:Core/Src/stm32f7xx_hal_msp.c ****     */
 555:Core/Src/stm32f7xx_hal_msp.c ****     GPIO_InitStruct.Pin = SDMMC_CK_Pin|SDMMC_D3_Pin|SDMMC_D2_Pin|GPIO_PIN_9
 556:Core/Src/stm32f7xx_hal_msp.c ****                           |GPIO_PIN_8;
 557:Core/Src/stm32f7xx_hal_msp.c ****     GPIO_InitStruct.Mode = GPIO_MODE_AF_PP;
 558:Core/Src/stm32f7xx_hal_msp.c ****     GPIO_InitStruct.Pull = GPIO_NOPULL;
 559:Core/Src/stm32f7xx_hal_msp.c ****     GPIO_InitStruct.Speed = GPIO_SPEED_FREQ_VERY_HIGH;
 560:Core/Src/stm32f7xx_hal_msp.c ****     GPIO_InitStruct.Alternate = GPIO_AF12_SDMMC1;
 561:Core/Src/stm32f7xx_hal_msp.c ****     HAL_GPIO_Init(GPIOC, &GPIO_InitStruct);
 562:Core/Src/stm32f7xx_hal_msp.c **** 
 563:Core/Src/stm32f7xx_hal_msp.c ****     GPIO_InitStruct.Pin = SDMMC_CMD_Pin;
 564:Core/Src/stm32f7xx_hal_msp.c ****     GPIO_InitStruct.Mode = GPIO_MODE_AF_PP;
 565:Core/Src/stm32f7xx_hal_msp.c ****     GPIO_InitStruct.Pull = GPIO_NOPULL;
 566:Core/Src/stm32f7xx_hal_msp.c ****     GPIO_InitStruct.Speed = GPIO_SPEED_FREQ_VERY_HIGH;
 567:Core/Src/stm32f7xx_hal_msp.c ****     GPIO_InitStruct.Alternate = GPIO_AF12_SDMMC1;
 568:Core/Src/stm32f7xx_hal_msp.c ****     HAL_GPIO_Init(SDMMC_CMD_GPIO_Port, &GPIO_InitStruct);
 569:Core/Src/stm32f7xx_hal_msp.c **** 
 570:Core/Src/stm32f7xx_hal_msp.c ****     /* SDMMC1 DMA Init */
 571:Core/Src/stm32f7xx_hal_msp.c ****     /* SDMMC1_RX Init */
 572:Core/Src/stm32f7xx_hal_msp.c ****     hdma_sdmmc1_rx.Instance = DMA2_Stream3;
 573:Core/Src/stm32f7xx_hal_msp.c ****     hdma_sdmmc1_rx.Init.Channel = DMA_CHANNEL_4;
 574:Core/Src/stm32f7xx_hal_msp.c ****     hdma_sdmmc1_rx.Init.Direction = DMA_PERIPH_TO_MEMORY;
 575:Core/Src/stm32f7xx_hal_msp.c ****     hdma_sdmmc1_rx.Init.PeriphInc = DMA_PINC_DISABLE;
 576:Core/Src/stm32f7xx_hal_msp.c ****     hdma_sdmmc1_rx.Init.MemInc = DMA_MINC_ENABLE;
 577:Core/Src/stm32f7xx_hal_msp.c ****     hdma_sdmmc1_rx.Init.PeriphDataAlignment = DMA_PDATAALIGN_WORD;
 578:Core/Src/stm32f7xx_hal_msp.c ****     hdma_sdmmc1_rx.Init.MemDataAlignment = DMA_MDATAALIGN_WORD;
 579:Core/Src/stm32f7xx_hal_msp.c ****     hdma_sdmmc1_rx.Init.Mode = DMA_PFCTRL;
 580:Core/Src/stm32f7xx_hal_msp.c ****     hdma_sdmmc1_rx.Init.Priority = DMA_PRIORITY_VERY_HIGH;
 581:Core/Src/stm32f7xx_hal_msp.c ****     hdma_sdmmc1_rx.Init.FIFOMode = DMA_FIFOMODE_ENABLE;
 582:Core/Src/stm32f7xx_hal_msp.c ****     hdma_sdmmc1_rx.Init.FIFOThreshold = DMA_FIFO_THRESHOLD_FULL;
 583:Core/Src/stm32f7xx_hal_msp.c ****     hdma_sdmmc1_rx.Init.MemBurst = DMA_MBURST_INC4;
 584:Core/Src/stm32f7xx_hal_msp.c ****     hdma_sdmmc1_rx.Init.PeriphBurst = DMA_PBURST_INC4;
 585:Core/Src/stm32f7xx_hal_msp.c ****     if (HAL_DMA_Init(&hdma_sdmmc1_rx) != HAL_OK)
 586:Core/Src/stm32f7xx_hal_msp.c ****     {
 587:Core/Src/stm32f7xx_hal_msp.c ****       Error_Handler();
 588:Core/Src/stm32f7xx_hal_msp.c ****     }
 589:Core/Src/stm32f7xx_hal_msp.c **** 
 590:Core/Src/stm32f7xx_hal_msp.c ****     __HAL_LINKDMA(hsd,hdmarx,hdma_sdmmc1_rx);
 591:Core/Src/stm32f7xx_hal_msp.c **** 
 592:Core/Src/stm32f7xx_hal_msp.c ****     /* SDMMC1_TX Init */
 593:Core/Src/stm32f7xx_hal_msp.c ****     hdma_sdmmc1_tx.Instance = DMA2_Stream6;
 594:Core/Src/stm32f7xx_hal_msp.c ****     hdma_sdmmc1_tx.Init.Channel = DMA_CHANNEL_4;
 595:Core/Src/stm32f7xx_hal_msp.c ****     hdma_sdmmc1_tx.Init.Direction = DMA_MEMORY_TO_PERIPH;
 596:Core/Src/stm32f7xx_hal_msp.c ****     hdma_sdmmc1_tx.Init.PeriphInc = DMA_PINC_DISABLE;
 597:Core/Src/stm32f7xx_hal_msp.c ****     hdma_sdmmc1_tx.Init.MemInc = DMA_MINC_ENABLE;
 598:Core/Src/stm32f7xx_hal_msp.c ****     hdma_sdmmc1_tx.Init.PeriphDataAlignment = DMA_PDATAALIGN_WORD;
 599:Core/Src/stm32f7xx_hal_msp.c ****     hdma_sdmmc1_tx.Init.MemDataAlignment = DMA_MDATAALIGN_WORD;
 600:Core/Src/stm32f7xx_hal_msp.c ****     hdma_sdmmc1_tx.Init.Mode = DMA_PFCTRL;
 601:Core/Src/stm32f7xx_hal_msp.c ****     hdma_sdmmc1_tx.Init.Priority = DMA_PRIORITY_VERY_HIGH;
ARM GAS  C:\Users\jisu8\AppData\Local\Temp\cc20AWwL.s 			page 12


 602:Core/Src/stm32f7xx_hal_msp.c ****     hdma_sdmmc1_tx.Init.FIFOMode = DMA_FIFOMODE_ENABLE;
 603:Core/Src/stm32f7xx_hal_msp.c ****     hdma_sdmmc1_tx.Init.FIFOThreshold = DMA_FIFO_THRESHOLD_FULL;
 604:Core/Src/stm32f7xx_hal_msp.c ****     hdma_sdmmc1_tx.Init.MemBurst = DMA_MBURST_INC4;
 605:Core/Src/stm32f7xx_hal_msp.c ****     hdma_sdmmc1_tx.Init.PeriphBurst = DMA_PBURST_INC4;
 606:Core/Src/stm32f7xx_hal_msp.c ****     if (HAL_DMA_Init(&hdma_sdmmc1_tx) != HAL_OK)
 607:Core/Src/stm32f7xx_hal_msp.c ****     {
 608:Core/Src/stm32f7xx_hal_msp.c ****       Error_Handler();
 609:Core/Src/stm32f7xx_hal_msp.c ****     }
 610:Core/Src/stm32f7xx_hal_msp.c **** 
 611:Core/Src/stm32f7xx_hal_msp.c ****     __HAL_LINKDMA(hsd,hdmatx,hdma_sdmmc1_tx);
 612:Core/Src/stm32f7xx_hal_msp.c **** 
 613:Core/Src/stm32f7xx_hal_msp.c ****     /* SDMMC1 interrupt Init */
 614:Core/Src/stm32f7xx_hal_msp.c ****     HAL_NVIC_SetPriority(SDMMC1_IRQn, 5, 0);
 615:Core/Src/stm32f7xx_hal_msp.c ****     HAL_NVIC_EnableIRQ(SDMMC1_IRQn);
 616:Core/Src/stm32f7xx_hal_msp.c ****   /* USER CODE BEGIN SDMMC1_MspInit 1 */
 617:Core/Src/stm32f7xx_hal_msp.c **** 
 618:Core/Src/stm32f7xx_hal_msp.c ****   /* USER CODE END SDMMC1_MspInit 1 */
 619:Core/Src/stm32f7xx_hal_msp.c ****   }
 620:Core/Src/stm32f7xx_hal_msp.c **** 
 621:Core/Src/stm32f7xx_hal_msp.c **** }
 622:Core/Src/stm32f7xx_hal_msp.c **** 
 623:Core/Src/stm32f7xx_hal_msp.c **** /**
 624:Core/Src/stm32f7xx_hal_msp.c **** * @brief SD MSP De-Initialization
 625:Core/Src/stm32f7xx_hal_msp.c **** * This function freeze the hardware resources used in this example
 626:Core/Src/stm32f7xx_hal_msp.c **** * @param hsd: SD handle pointer
 627:Core/Src/stm32f7xx_hal_msp.c **** * @retval None
 628:Core/Src/stm32f7xx_hal_msp.c **** */
 629:Core/Src/stm32f7xx_hal_msp.c **** void HAL_SD_MspDeInit(SD_HandleTypeDef* hsd)
 630:Core/Src/stm32f7xx_hal_msp.c **** {
 631:Core/Src/stm32f7xx_hal_msp.c ****   if(hsd->Instance==SDMMC1)
 632:Core/Src/stm32f7xx_hal_msp.c ****   {
 633:Core/Src/stm32f7xx_hal_msp.c ****   /* USER CODE BEGIN SDMMC1_MspDeInit 0 */
 634:Core/Src/stm32f7xx_hal_msp.c **** 
 635:Core/Src/stm32f7xx_hal_msp.c ****   /* USER CODE END SDMMC1_MspDeInit 0 */
 636:Core/Src/stm32f7xx_hal_msp.c ****     /* Peripheral clock disable */
 637:Core/Src/stm32f7xx_hal_msp.c ****     __HAL_RCC_SDMMC1_CLK_DISABLE();
 638:Core/Src/stm32f7xx_hal_msp.c **** 
 639:Core/Src/stm32f7xx_hal_msp.c ****     /**SDMMC1 GPIO Configuration
 640:Core/Src/stm32f7xx_hal_msp.c ****     PC12     ------> SDMMC1_CK
 641:Core/Src/stm32f7xx_hal_msp.c ****     PC11     ------> SDMMC1_D3
 642:Core/Src/stm32f7xx_hal_msp.c ****     PC10     ------> SDMMC1_D2
 643:Core/Src/stm32f7xx_hal_msp.c ****     PD2     ------> SDMMC1_CMD
 644:Core/Src/stm32f7xx_hal_msp.c ****     PC9     ------> SDMMC1_D1
 645:Core/Src/stm32f7xx_hal_msp.c ****     PC8     ------> SDMMC1_D0
 646:Core/Src/stm32f7xx_hal_msp.c ****     */
 647:Core/Src/stm32f7xx_hal_msp.c ****     HAL_GPIO_DeInit(GPIOC, SDMMC_CK_Pin|SDMMC_D3_Pin|SDMMC_D2_Pin|GPIO_PIN_9
 648:Core/Src/stm32f7xx_hal_msp.c ****                           |GPIO_PIN_8);
 649:Core/Src/stm32f7xx_hal_msp.c **** 
 650:Core/Src/stm32f7xx_hal_msp.c ****     HAL_GPIO_DeInit(SDMMC_CMD_GPIO_Port, SDMMC_CMD_Pin);
 651:Core/Src/stm32f7xx_hal_msp.c **** 
 652:Core/Src/stm32f7xx_hal_msp.c ****     /* SDMMC1 DMA DeInit */
 653:Core/Src/stm32f7xx_hal_msp.c ****     HAL_DMA_DeInit(hsd->hdmarx);
 654:Core/Src/stm32f7xx_hal_msp.c ****     HAL_DMA_DeInit(hsd->hdmatx);
 655:Core/Src/stm32f7xx_hal_msp.c **** 
 656:Core/Src/stm32f7xx_hal_msp.c ****     /* SDMMC1 interrupt DeInit */
 657:Core/Src/stm32f7xx_hal_msp.c ****     HAL_NVIC_DisableIRQ(SDMMC1_IRQn);
 658:Core/Src/stm32f7xx_hal_msp.c ****   /* USER CODE BEGIN SDMMC1_MspDeInit 1 */
ARM GAS  C:\Users\jisu8\AppData\Local\Temp\cc20AWwL.s 			page 13


 659:Core/Src/stm32f7xx_hal_msp.c **** 
 660:Core/Src/stm32f7xx_hal_msp.c ****   /* USER CODE END SDMMC1_MspDeInit 1 */
 661:Core/Src/stm32f7xx_hal_msp.c ****   }
 662:Core/Src/stm32f7xx_hal_msp.c **** 
 663:Core/Src/stm32f7xx_hal_msp.c **** }
 664:Core/Src/stm32f7xx_hal_msp.c **** 
 665:Core/Src/stm32f7xx_hal_msp.c **** /**
 666:Core/Src/stm32f7xx_hal_msp.c **** * @brief SPI MSP Initialization
 667:Core/Src/stm32f7xx_hal_msp.c **** * This function configures the hardware resources used in this example
 668:Core/Src/stm32f7xx_hal_msp.c **** * @param hspi: SPI handle pointer
 669:Core/Src/stm32f7xx_hal_msp.c **** * @retval None
 670:Core/Src/stm32f7xx_hal_msp.c **** */
 671:Core/Src/stm32f7xx_hal_msp.c **** void HAL_SPI_MspInit(SPI_HandleTypeDef* hspi)
 672:Core/Src/stm32f7xx_hal_msp.c **** {
 673:Core/Src/stm32f7xx_hal_msp.c ****   GPIO_InitTypeDef GPIO_InitStruct = {0};
 674:Core/Src/stm32f7xx_hal_msp.c ****   if(hspi->Instance==SPI2)
 675:Core/Src/stm32f7xx_hal_msp.c ****   {
 676:Core/Src/stm32f7xx_hal_msp.c ****   /* USER CODE BEGIN SPI2_MspInit 0 */
 677:Core/Src/stm32f7xx_hal_msp.c **** 
 678:Core/Src/stm32f7xx_hal_msp.c ****   /* USER CODE END SPI2_MspInit 0 */
 679:Core/Src/stm32f7xx_hal_msp.c ****     /* Peripheral clock enable */
 680:Core/Src/stm32f7xx_hal_msp.c ****     __HAL_RCC_SPI2_CLK_ENABLE();
 681:Core/Src/stm32f7xx_hal_msp.c **** 
 682:Core/Src/stm32f7xx_hal_msp.c ****     __HAL_RCC_GPIOI_CLK_ENABLE();
 683:Core/Src/stm32f7xx_hal_msp.c ****     __HAL_RCC_GPIOB_CLK_ENABLE();
 684:Core/Src/stm32f7xx_hal_msp.c ****     /**SPI2 GPIO Configuration
 685:Core/Src/stm32f7xx_hal_msp.c ****     PI1     ------> SPI2_SCK
 686:Core/Src/stm32f7xx_hal_msp.c ****     PB14     ------> SPI2_MISO
 687:Core/Src/stm32f7xx_hal_msp.c ****     PB15     ------> SPI2_MOSI
 688:Core/Src/stm32f7xx_hal_msp.c ****     */
 689:Core/Src/stm32f7xx_hal_msp.c ****     GPIO_InitStruct.Pin = ARDUINO_SCK_D13_Pin;
 690:Core/Src/stm32f7xx_hal_msp.c ****     GPIO_InitStruct.Mode = GPIO_MODE_AF_PP;
 691:Core/Src/stm32f7xx_hal_msp.c ****     GPIO_InitStruct.Pull = GPIO_NOPULL;
 692:Core/Src/stm32f7xx_hal_msp.c ****     GPIO_InitStruct.Speed = GPIO_SPEED_FREQ_LOW;
 693:Core/Src/stm32f7xx_hal_msp.c ****     GPIO_InitStruct.Alternate = GPIO_AF5_SPI2;
 694:Core/Src/stm32f7xx_hal_msp.c ****     HAL_GPIO_Init(ARDUINO_SCK_D13_GPIO_Port, &GPIO_InitStruct);
 695:Core/Src/stm32f7xx_hal_msp.c **** 
 696:Core/Src/stm32f7xx_hal_msp.c ****     GPIO_InitStruct.Pin = ARDUINO_MISO_D12_Pin|ARDUINO_MOSI_PWM_D11_Pin;
 697:Core/Src/stm32f7xx_hal_msp.c ****     GPIO_InitStruct.Mode = GPIO_MODE_AF_PP;
 698:Core/Src/stm32f7xx_hal_msp.c ****     GPIO_InitStruct.Pull = GPIO_NOPULL;
 699:Core/Src/stm32f7xx_hal_msp.c ****     GPIO_InitStruct.Speed = GPIO_SPEED_FREQ_LOW;
 700:Core/Src/stm32f7xx_hal_msp.c ****     GPIO_InitStruct.Alternate = GPIO_AF5_SPI2;
 701:Core/Src/stm32f7xx_hal_msp.c ****     HAL_GPIO_Init(GPIOB, &GPIO_InitStruct);
 702:Core/Src/stm32f7xx_hal_msp.c **** 
 703:Core/Src/stm32f7xx_hal_msp.c ****   /* USER CODE BEGIN SPI2_MspInit 1 */
 704:Core/Src/stm32f7xx_hal_msp.c **** 
 705:Core/Src/stm32f7xx_hal_msp.c ****   /* USER CODE END SPI2_MspInit 1 */
 706:Core/Src/stm32f7xx_hal_msp.c ****   }
 707:Core/Src/stm32f7xx_hal_msp.c **** 
 708:Core/Src/stm32f7xx_hal_msp.c **** }
 709:Core/Src/stm32f7xx_hal_msp.c **** 
 710:Core/Src/stm32f7xx_hal_msp.c **** /**
 711:Core/Src/stm32f7xx_hal_msp.c **** * @brief SPI MSP De-Initialization
 712:Core/Src/stm32f7xx_hal_msp.c **** * This function freeze the hardware resources used in this example
 713:Core/Src/stm32f7xx_hal_msp.c **** * @param hspi: SPI handle pointer
 714:Core/Src/stm32f7xx_hal_msp.c **** * @retval None
 715:Core/Src/stm32f7xx_hal_msp.c **** */
ARM GAS  C:\Users\jisu8\AppData\Local\Temp\cc20AWwL.s 			page 14


 716:Core/Src/stm32f7xx_hal_msp.c **** void HAL_SPI_MspDeInit(SPI_HandleTypeDef* hspi)
 717:Core/Src/stm32f7xx_hal_msp.c **** {
 718:Core/Src/stm32f7xx_hal_msp.c ****   if(hspi->Instance==SPI2)
 719:Core/Src/stm32f7xx_hal_msp.c ****   {
 720:Core/Src/stm32f7xx_hal_msp.c ****   /* USER CODE BEGIN SPI2_MspDeInit 0 */
 721:Core/Src/stm32f7xx_hal_msp.c **** 
 722:Core/Src/stm32f7xx_hal_msp.c ****   /* USER CODE END SPI2_MspDeInit 0 */
 723:Core/Src/stm32f7xx_hal_msp.c ****     /* Peripheral clock disable */
 724:Core/Src/stm32f7xx_hal_msp.c ****     __HAL_RCC_SPI2_CLK_DISABLE();
 725:Core/Src/stm32f7xx_hal_msp.c **** 
 726:Core/Src/stm32f7xx_hal_msp.c ****     /**SPI2 GPIO Configuration
 727:Core/Src/stm32f7xx_hal_msp.c ****     PI1     ------> SPI2_SCK
 728:Core/Src/stm32f7xx_hal_msp.c ****     PB14     ------> SPI2_MISO
 729:Core/Src/stm32f7xx_hal_msp.c ****     PB15     ------> SPI2_MOSI
 730:Core/Src/stm32f7xx_hal_msp.c ****     */
 731:Core/Src/stm32f7xx_hal_msp.c ****     HAL_GPIO_DeInit(ARDUINO_SCK_D13_GPIO_Port, ARDUINO_SCK_D13_Pin);
 732:Core/Src/stm32f7xx_hal_msp.c **** 
 733:Core/Src/stm32f7xx_hal_msp.c ****     HAL_GPIO_DeInit(GPIOB, ARDUINO_MISO_D12_Pin|ARDUINO_MOSI_PWM_D11_Pin);
 734:Core/Src/stm32f7xx_hal_msp.c **** 
 735:Core/Src/stm32f7xx_hal_msp.c ****   /* USER CODE BEGIN SPI2_MspDeInit 1 */
 736:Core/Src/stm32f7xx_hal_msp.c **** 
 737:Core/Src/stm32f7xx_hal_msp.c ****   /* USER CODE END SPI2_MspDeInit 1 */
 738:Core/Src/stm32f7xx_hal_msp.c ****   }
 739:Core/Src/stm32f7xx_hal_msp.c **** 
 740:Core/Src/stm32f7xx_hal_msp.c **** }
 741:Core/Src/stm32f7xx_hal_msp.c **** 
 742:Core/Src/stm32f7xx_hal_msp.c **** /**
 743:Core/Src/stm32f7xx_hal_msp.c **** * @brief UART MSP Initialization
 744:Core/Src/stm32f7xx_hal_msp.c **** * This function configures the hardware resources used in this example
 745:Core/Src/stm32f7xx_hal_msp.c **** * @param huart: UART handle pointer
 746:Core/Src/stm32f7xx_hal_msp.c **** * @retval None
 747:Core/Src/stm32f7xx_hal_msp.c **** */
 748:Core/Src/stm32f7xx_hal_msp.c **** void HAL_UART_MspInit(UART_HandleTypeDef* huart)
 749:Core/Src/stm32f7xx_hal_msp.c **** {
 750:Core/Src/stm32f7xx_hal_msp.c ****   GPIO_InitTypeDef GPIO_InitStruct = {0};
 751:Core/Src/stm32f7xx_hal_msp.c ****   RCC_PeriphCLKInitTypeDef PeriphClkInitStruct = {0};
 752:Core/Src/stm32f7xx_hal_msp.c ****   if(huart->Instance==USART1)
 753:Core/Src/stm32f7xx_hal_msp.c ****   {
 754:Core/Src/stm32f7xx_hal_msp.c ****   /* USER CODE BEGIN USART1_MspInit 0 */
 755:Core/Src/stm32f7xx_hal_msp.c **** 
 756:Core/Src/stm32f7xx_hal_msp.c ****   /* USER CODE END USART1_MspInit 0 */
 757:Core/Src/stm32f7xx_hal_msp.c **** 
 758:Core/Src/stm32f7xx_hal_msp.c ****   /** Initializes the peripherals clock
 759:Core/Src/stm32f7xx_hal_msp.c ****   */
 760:Core/Src/stm32f7xx_hal_msp.c ****     PeriphClkInitStruct.PeriphClockSelection = RCC_PERIPHCLK_USART1;
 761:Core/Src/stm32f7xx_hal_msp.c ****     PeriphClkInitStruct.Usart1ClockSelection = RCC_USART1CLKSOURCE_PCLK2;
 762:Core/Src/stm32f7xx_hal_msp.c ****     if (HAL_RCCEx_PeriphCLKConfig(&PeriphClkInitStruct) != HAL_OK)
 763:Core/Src/stm32f7xx_hal_msp.c ****     {
 764:Core/Src/stm32f7xx_hal_msp.c ****       Error_Handler();
 765:Core/Src/stm32f7xx_hal_msp.c ****     }
 766:Core/Src/stm32f7xx_hal_msp.c **** 
 767:Core/Src/stm32f7xx_hal_msp.c ****     /* Peripheral clock enable */
 768:Core/Src/stm32f7xx_hal_msp.c ****     __HAL_RCC_USART1_CLK_ENABLE();
 769:Core/Src/stm32f7xx_hal_msp.c **** 
 770:Core/Src/stm32f7xx_hal_msp.c ****     __HAL_RCC_GPIOB_CLK_ENABLE();
 771:Core/Src/stm32f7xx_hal_msp.c ****     __HAL_RCC_GPIOA_CLK_ENABLE();
 772:Core/Src/stm32f7xx_hal_msp.c ****     /**USART1 GPIO Configuration
ARM GAS  C:\Users\jisu8\AppData\Local\Temp\cc20AWwL.s 			page 15


 773:Core/Src/stm32f7xx_hal_msp.c ****     PB7     ------> USART1_RX
 774:Core/Src/stm32f7xx_hal_msp.c ****     PA9     ------> USART1_TX
 775:Core/Src/stm32f7xx_hal_msp.c ****     */
 776:Core/Src/stm32f7xx_hal_msp.c ****     GPIO_InitStruct.Pin = VCP_RX_Pin;
 777:Core/Src/stm32f7xx_hal_msp.c ****     GPIO_InitStruct.Mode = GPIO_MODE_AF_PP;
 778:Core/Src/stm32f7xx_hal_msp.c ****     GPIO_InitStruct.Pull = GPIO_NOPULL;
 779:Core/Src/stm32f7xx_hal_msp.c ****     GPIO_InitStruct.Speed = GPIO_SPEED_FREQ_LOW;
 780:Core/Src/stm32f7xx_hal_msp.c ****     GPIO_InitStruct.Alternate = GPIO_AF7_USART1;
 781:Core/Src/stm32f7xx_hal_msp.c ****     HAL_GPIO_Init(VCP_RX_GPIO_Port, &GPIO_InitStruct);
 782:Core/Src/stm32f7xx_hal_msp.c **** 
 783:Core/Src/stm32f7xx_hal_msp.c ****     GPIO_InitStruct.Pin = VCP_TX_Pin;
 784:Core/Src/stm32f7xx_hal_msp.c ****     GPIO_InitStruct.Mode = GPIO_MODE_AF_PP;
 785:Core/Src/stm32f7xx_hal_msp.c ****     GPIO_InitStruct.Pull = GPIO_NOPULL;
 786:Core/Src/stm32f7xx_hal_msp.c ****     GPIO_InitStruct.Speed = GPIO_SPEED_FREQ_LOW;
 787:Core/Src/stm32f7xx_hal_msp.c ****     GPIO_InitStruct.Alternate = GPIO_AF7_USART1;
 788:Core/Src/stm32f7xx_hal_msp.c ****     HAL_GPIO_Init(VCP_TX_GPIO_Port, &GPIO_InitStruct);
 789:Core/Src/stm32f7xx_hal_msp.c **** 
 790:Core/Src/stm32f7xx_hal_msp.c ****   /* USER CODE BEGIN USART1_MspInit 1 */
 791:Core/Src/stm32f7xx_hal_msp.c **** 
 792:Core/Src/stm32f7xx_hal_msp.c ****   /* USER CODE END USART1_MspInit 1 */
 793:Core/Src/stm32f7xx_hal_msp.c ****   }
 794:Core/Src/stm32f7xx_hal_msp.c ****   else if(huart->Instance==USART6)
 795:Core/Src/stm32f7xx_hal_msp.c ****   {
 796:Core/Src/stm32f7xx_hal_msp.c ****   /* USER CODE BEGIN USART6_MspInit 0 */
 797:Core/Src/stm32f7xx_hal_msp.c **** 
 798:Core/Src/stm32f7xx_hal_msp.c ****   /* USER CODE END USART6_MspInit 0 */
 799:Core/Src/stm32f7xx_hal_msp.c **** 
 800:Core/Src/stm32f7xx_hal_msp.c ****   /** Initializes the peripherals clock
 801:Core/Src/stm32f7xx_hal_msp.c ****   */
 802:Core/Src/stm32f7xx_hal_msp.c ****     PeriphClkInitStruct.PeriphClockSelection = RCC_PERIPHCLK_USART6;
 803:Core/Src/stm32f7xx_hal_msp.c ****     PeriphClkInitStruct.Usart6ClockSelection = RCC_USART6CLKSOURCE_PCLK2;
 804:Core/Src/stm32f7xx_hal_msp.c ****     if (HAL_RCCEx_PeriphCLKConfig(&PeriphClkInitStruct) != HAL_OK)
 805:Core/Src/stm32f7xx_hal_msp.c ****     {
 806:Core/Src/stm32f7xx_hal_msp.c ****       Error_Handler();
 807:Core/Src/stm32f7xx_hal_msp.c ****     }
 808:Core/Src/stm32f7xx_hal_msp.c **** 
 809:Core/Src/stm32f7xx_hal_msp.c ****     /* Peripheral clock enable */
 810:Core/Src/stm32f7xx_hal_msp.c ****     __HAL_RCC_USART6_CLK_ENABLE();
 811:Core/Src/stm32f7xx_hal_msp.c **** 
 812:Core/Src/stm32f7xx_hal_msp.c ****     __HAL_RCC_GPIOC_CLK_ENABLE();
 813:Core/Src/stm32f7xx_hal_msp.c ****     /**USART6 GPIO Configuration
 814:Core/Src/stm32f7xx_hal_msp.c ****     PC7     ------> USART6_RX
 815:Core/Src/stm32f7xx_hal_msp.c ****     PC6     ------> USART6_TX
 816:Core/Src/stm32f7xx_hal_msp.c ****     */
 817:Core/Src/stm32f7xx_hal_msp.c ****     GPIO_InitStruct.Pin = ARDUINO_RX_D0_Pin|ARDUINO_TX_D1_Pin;
 818:Core/Src/stm32f7xx_hal_msp.c ****     GPIO_InitStruct.Mode = GPIO_MODE_AF_PP;
 819:Core/Src/stm32f7xx_hal_msp.c ****     GPIO_InitStruct.Pull = GPIO_NOPULL;
 820:Core/Src/stm32f7xx_hal_msp.c ****     GPIO_InitStruct.Speed = GPIO_SPEED_FREQ_VERY_HIGH;
 821:Core/Src/stm32f7xx_hal_msp.c ****     GPIO_InitStruct.Alternate = GPIO_AF8_USART6;
 822:Core/Src/stm32f7xx_hal_msp.c ****     HAL_GPIO_Init(GPIOC, &GPIO_InitStruct);
 823:Core/Src/stm32f7xx_hal_msp.c **** 
 824:Core/Src/stm32f7xx_hal_msp.c ****   /* USER CODE BEGIN USART6_MspInit 1 */
 825:Core/Src/stm32f7xx_hal_msp.c **** 
 826:Core/Src/stm32f7xx_hal_msp.c ****   /* USER CODE END USART6_MspInit 1 */
 827:Core/Src/stm32f7xx_hal_msp.c ****   }
 828:Core/Src/stm32f7xx_hal_msp.c **** 
 829:Core/Src/stm32f7xx_hal_msp.c **** }
ARM GAS  C:\Users\jisu8\AppData\Local\Temp\cc20AWwL.s 			page 16


 830:Core/Src/stm32f7xx_hal_msp.c **** 
 831:Core/Src/stm32f7xx_hal_msp.c **** /**
 832:Core/Src/stm32f7xx_hal_msp.c **** * @brief UART MSP De-Initialization
 833:Core/Src/stm32f7xx_hal_msp.c **** * This function freeze the hardware resources used in this example
 834:Core/Src/stm32f7xx_hal_msp.c **** * @param huart: UART handle pointer
 835:Core/Src/stm32f7xx_hal_msp.c **** * @retval None
 836:Core/Src/stm32f7xx_hal_msp.c **** */
 837:Core/Src/stm32f7xx_hal_msp.c **** void HAL_UART_MspDeInit(UART_HandleTypeDef* huart)
 838:Core/Src/stm32f7xx_hal_msp.c **** {
 839:Core/Src/stm32f7xx_hal_msp.c ****   if(huart->Instance==USART1)
 840:Core/Src/stm32f7xx_hal_msp.c ****   {
 841:Core/Src/stm32f7xx_hal_msp.c ****   /* USER CODE BEGIN USART1_MspDeInit 0 */
 842:Core/Src/stm32f7xx_hal_msp.c **** 
 843:Core/Src/stm32f7xx_hal_msp.c ****   /* USER CODE END USART1_MspDeInit 0 */
 844:Core/Src/stm32f7xx_hal_msp.c ****     /* Peripheral clock disable */
 845:Core/Src/stm32f7xx_hal_msp.c ****     __HAL_RCC_USART1_CLK_DISABLE();
 846:Core/Src/stm32f7xx_hal_msp.c **** 
 847:Core/Src/stm32f7xx_hal_msp.c ****     /**USART1 GPIO Configuration
 848:Core/Src/stm32f7xx_hal_msp.c ****     PB7     ------> USART1_RX
 849:Core/Src/stm32f7xx_hal_msp.c ****     PA9     ------> USART1_TX
 850:Core/Src/stm32f7xx_hal_msp.c ****     */
 851:Core/Src/stm32f7xx_hal_msp.c ****     HAL_GPIO_DeInit(VCP_RX_GPIO_Port, VCP_RX_Pin);
 852:Core/Src/stm32f7xx_hal_msp.c **** 
 853:Core/Src/stm32f7xx_hal_msp.c ****     HAL_GPIO_DeInit(VCP_TX_GPIO_Port, VCP_TX_Pin);
 854:Core/Src/stm32f7xx_hal_msp.c **** 
 855:Core/Src/stm32f7xx_hal_msp.c ****   /* USER CODE BEGIN USART1_MspDeInit 1 */
 856:Core/Src/stm32f7xx_hal_msp.c **** 
 857:Core/Src/stm32f7xx_hal_msp.c ****   /* USER CODE END USART1_MspDeInit 1 */
 858:Core/Src/stm32f7xx_hal_msp.c ****   }
 859:Core/Src/stm32f7xx_hal_msp.c ****   else if(huart->Instance==USART6)
 860:Core/Src/stm32f7xx_hal_msp.c ****   {
 861:Core/Src/stm32f7xx_hal_msp.c ****   /* USER CODE BEGIN USART6_MspDeInit 0 */
 862:Core/Src/stm32f7xx_hal_msp.c **** 
 863:Core/Src/stm32f7xx_hal_msp.c ****   /* USER CODE END USART6_MspDeInit 0 */
 864:Core/Src/stm32f7xx_hal_msp.c ****     /* Peripheral clock disable */
 865:Core/Src/stm32f7xx_hal_msp.c ****     __HAL_RCC_USART6_CLK_DISABLE();
 866:Core/Src/stm32f7xx_hal_msp.c **** 
 867:Core/Src/stm32f7xx_hal_msp.c ****     /**USART6 GPIO Configuration
 868:Core/Src/stm32f7xx_hal_msp.c ****     PC7     ------> USART6_RX
 869:Core/Src/stm32f7xx_hal_msp.c ****     PC6     ------> USART6_TX
 870:Core/Src/stm32f7xx_hal_msp.c ****     */
 871:Core/Src/stm32f7xx_hal_msp.c ****     HAL_GPIO_DeInit(GPIOC, ARDUINO_RX_D0_Pin|ARDUINO_TX_D1_Pin);
 872:Core/Src/stm32f7xx_hal_msp.c **** 
 873:Core/Src/stm32f7xx_hal_msp.c ****   /* USER CODE BEGIN USART6_MspDeInit 1 */
 874:Core/Src/stm32f7xx_hal_msp.c **** 
 875:Core/Src/stm32f7xx_hal_msp.c ****   /* USER CODE END USART6_MspDeInit 1 */
 876:Core/Src/stm32f7xx_hal_msp.c ****   }
 877:Core/Src/stm32f7xx_hal_msp.c **** 
 878:Core/Src/stm32f7xx_hal_msp.c **** }
 879:Core/Src/stm32f7xx_hal_msp.c **** 
 880:Core/Src/stm32f7xx_hal_msp.c **** static uint32_t FMC_Initialized = 0;
 881:Core/Src/stm32f7xx_hal_msp.c **** 
 882:Core/Src/stm32f7xx_hal_msp.c **** static void HAL_FMC_MspInit(void){
  28              		.loc 1 882 34 view -0
  29              		.cfi_startproc
  30              		@ args = 0, pretend = 0, frame = 24
  31              		@ frame_needed = 0, uses_anonymous_args = 0
ARM GAS  C:\Users\jisu8\AppData\Local\Temp\cc20AWwL.s 			page 17


  32 0000 F0B5     		push	{r4, r5, r6, r7, lr}
  33              	.LCFI0:
  34              		.cfi_def_cfa_offset 20
  35              		.cfi_offset 4, -20
  36              		.cfi_offset 5, -16
  37              		.cfi_offset 6, -12
  38              		.cfi_offset 7, -8
  39              		.cfi_offset 14, -4
  40 0002 87B0     		sub	sp, sp, #28
  41              	.LCFI1:
  42              		.cfi_def_cfa_offset 48
 883:Core/Src/stm32f7xx_hal_msp.c ****   /* USER CODE BEGIN FMC_MspInit 0 */
 884:Core/Src/stm32f7xx_hal_msp.c **** 
 885:Core/Src/stm32f7xx_hal_msp.c ****   /* USER CODE END FMC_MspInit 0 */
 886:Core/Src/stm32f7xx_hal_msp.c ****   GPIO_InitTypeDef GPIO_InitStruct ={0};
  43              		.loc 1 886 3 view .LVU1
  44              		.loc 1 886 20 is_stmt 0 view .LVU2
  45 0004 0023     		movs	r3, #0
  46 0006 0193     		str	r3, [sp, #4]
  47 0008 0293     		str	r3, [sp, #8]
  48 000a 0393     		str	r3, [sp, #12]
  49 000c 0493     		str	r3, [sp, #16]
  50 000e 0593     		str	r3, [sp, #20]
 887:Core/Src/stm32f7xx_hal_msp.c ****   if (FMC_Initialized) {
  51              		.loc 1 887 3 is_stmt 1 view .LVU3
  52              		.loc 1 887 7 is_stmt 0 view .LVU4
  53 0010 2A4B     		ldr	r3, .L6
  54 0012 1B68     		ldr	r3, [r3]
  55              		.loc 1 887 6 view .LVU5
  56 0014 0BB1     		cbz	r3, .L5
  57              	.L1:
 888:Core/Src/stm32f7xx_hal_msp.c ****     return;
 889:Core/Src/stm32f7xx_hal_msp.c ****   }
 890:Core/Src/stm32f7xx_hal_msp.c ****   FMC_Initialized = 1;
 891:Core/Src/stm32f7xx_hal_msp.c **** 
 892:Core/Src/stm32f7xx_hal_msp.c ****   /* Peripheral clock enable */
 893:Core/Src/stm32f7xx_hal_msp.c ****   __HAL_RCC_FMC_CLK_ENABLE();
 894:Core/Src/stm32f7xx_hal_msp.c **** 
 895:Core/Src/stm32f7xx_hal_msp.c ****   /** FMC GPIO Configuration
 896:Core/Src/stm32f7xx_hal_msp.c ****   PE1   ------> FMC_NBL1
 897:Core/Src/stm32f7xx_hal_msp.c ****   PE0   ------> FMC_NBL0
 898:Core/Src/stm32f7xx_hal_msp.c ****   PG15   ------> FMC_SDNCAS
 899:Core/Src/stm32f7xx_hal_msp.c ****   PD0   ------> FMC_D2
 900:Core/Src/stm32f7xx_hal_msp.c ****   PD1   ------> FMC_D3
 901:Core/Src/stm32f7xx_hal_msp.c ****   PF0   ------> FMC_A0
 902:Core/Src/stm32f7xx_hal_msp.c ****   PF1   ------> FMC_A1
 903:Core/Src/stm32f7xx_hal_msp.c ****   PF2   ------> FMC_A2
 904:Core/Src/stm32f7xx_hal_msp.c ****   PF3   ------> FMC_A3
 905:Core/Src/stm32f7xx_hal_msp.c ****   PG8   ------> FMC_SDCLK
 906:Core/Src/stm32f7xx_hal_msp.c ****   PF4   ------> FMC_A4
 907:Core/Src/stm32f7xx_hal_msp.c ****   PH5   ------> FMC_SDNWE
 908:Core/Src/stm32f7xx_hal_msp.c ****   PH3   ------> FMC_SDNE0
 909:Core/Src/stm32f7xx_hal_msp.c ****   PF5   ------> FMC_A5
 910:Core/Src/stm32f7xx_hal_msp.c ****   PD15   ------> FMC_D1
 911:Core/Src/stm32f7xx_hal_msp.c ****   PD10   ------> FMC_D15
 912:Core/Src/stm32f7xx_hal_msp.c ****   PC3   ------> FMC_SDCKE0
 913:Core/Src/stm32f7xx_hal_msp.c ****   PD14   ------> FMC_D0
ARM GAS  C:\Users\jisu8\AppData\Local\Temp\cc20AWwL.s 			page 18


 914:Core/Src/stm32f7xx_hal_msp.c ****   PD9   ------> FMC_D14
 915:Core/Src/stm32f7xx_hal_msp.c ****   PD8   ------> FMC_D13
 916:Core/Src/stm32f7xx_hal_msp.c ****   PF12   ------> FMC_A6
 917:Core/Src/stm32f7xx_hal_msp.c ****   PG1   ------> FMC_A11
 918:Core/Src/stm32f7xx_hal_msp.c ****   PF15   ------> FMC_A9
 919:Core/Src/stm32f7xx_hal_msp.c ****   PF13   ------> FMC_A7
 920:Core/Src/stm32f7xx_hal_msp.c ****   PG0   ------> FMC_A10
 921:Core/Src/stm32f7xx_hal_msp.c ****   PE8   ------> FMC_D5
 922:Core/Src/stm32f7xx_hal_msp.c ****   PG5   ------> FMC_BA1
 923:Core/Src/stm32f7xx_hal_msp.c ****   PG4   ------> FMC_BA0
 924:Core/Src/stm32f7xx_hal_msp.c ****   PF14   ------> FMC_A8
 925:Core/Src/stm32f7xx_hal_msp.c ****   PF11   ------> FMC_SDNRAS
 926:Core/Src/stm32f7xx_hal_msp.c ****   PE9   ------> FMC_D6
 927:Core/Src/stm32f7xx_hal_msp.c ****   PE11   ------> FMC_D8
 928:Core/Src/stm32f7xx_hal_msp.c ****   PE14   ------> FMC_D11
 929:Core/Src/stm32f7xx_hal_msp.c ****   PE7   ------> FMC_D4
 930:Core/Src/stm32f7xx_hal_msp.c ****   PE10   ------> FMC_D7
 931:Core/Src/stm32f7xx_hal_msp.c ****   PE12   ------> FMC_D9
 932:Core/Src/stm32f7xx_hal_msp.c ****   PE15   ------> FMC_D12
 933:Core/Src/stm32f7xx_hal_msp.c ****   PE13   ------> FMC_D10
 934:Core/Src/stm32f7xx_hal_msp.c ****   */
 935:Core/Src/stm32f7xx_hal_msp.c ****   GPIO_InitStruct.Pin = FMC_NBL1_Pin|FMC_NBL0_Pin|FMC_D5_Pin|FMC_D6_Pin
 936:Core/Src/stm32f7xx_hal_msp.c ****                           |FMC_D8_Pin|FMC_D11_Pin|FMC_D4_Pin|FMC_D7_Pin
 937:Core/Src/stm32f7xx_hal_msp.c ****                           |FMC_D9_Pin|FMC_D12_Pin|FMC_D10_Pin;
 938:Core/Src/stm32f7xx_hal_msp.c ****   GPIO_InitStruct.Mode = GPIO_MODE_AF_PP;
 939:Core/Src/stm32f7xx_hal_msp.c ****   GPIO_InitStruct.Pull = GPIO_NOPULL;
 940:Core/Src/stm32f7xx_hal_msp.c ****   GPIO_InitStruct.Speed = GPIO_SPEED_FREQ_VERY_HIGH;
 941:Core/Src/stm32f7xx_hal_msp.c ****   GPIO_InitStruct.Alternate = GPIO_AF12_FMC;
 942:Core/Src/stm32f7xx_hal_msp.c ****   HAL_GPIO_Init(GPIOE, &GPIO_InitStruct);
 943:Core/Src/stm32f7xx_hal_msp.c **** 
 944:Core/Src/stm32f7xx_hal_msp.c ****   GPIO_InitStruct.Pin = FMC_SDNCAS_Pin|FMC_SDCLK_Pin|FMC_A11_Pin|FMC_A10_Pin
 945:Core/Src/stm32f7xx_hal_msp.c ****                           |FMC_BA1_Pin|FMC_BA0_Pin;
 946:Core/Src/stm32f7xx_hal_msp.c ****   GPIO_InitStruct.Mode = GPIO_MODE_AF_PP;
 947:Core/Src/stm32f7xx_hal_msp.c ****   GPIO_InitStruct.Pull = GPIO_NOPULL;
 948:Core/Src/stm32f7xx_hal_msp.c ****   GPIO_InitStruct.Speed = GPIO_SPEED_FREQ_VERY_HIGH;
 949:Core/Src/stm32f7xx_hal_msp.c ****   GPIO_InitStruct.Alternate = GPIO_AF12_FMC;
 950:Core/Src/stm32f7xx_hal_msp.c ****   HAL_GPIO_Init(GPIOG, &GPIO_InitStruct);
 951:Core/Src/stm32f7xx_hal_msp.c **** 
 952:Core/Src/stm32f7xx_hal_msp.c ****   GPIO_InitStruct.Pin = FMC_D2_Pin|FMC_D3_Pin|FMC_D1_Pin|FMC_D15_Pin
 953:Core/Src/stm32f7xx_hal_msp.c ****                           |FMC_D0_Pin|FMC_D14_Pin|FMC_D13_Pin;
 954:Core/Src/stm32f7xx_hal_msp.c ****   GPIO_InitStruct.Mode = GPIO_MODE_AF_PP;
 955:Core/Src/stm32f7xx_hal_msp.c ****   GPIO_InitStruct.Pull = GPIO_NOPULL;
 956:Core/Src/stm32f7xx_hal_msp.c ****   GPIO_InitStruct.Speed = GPIO_SPEED_FREQ_VERY_HIGH;
 957:Core/Src/stm32f7xx_hal_msp.c ****   GPIO_InitStruct.Alternate = GPIO_AF12_FMC;
 958:Core/Src/stm32f7xx_hal_msp.c ****   HAL_GPIO_Init(GPIOD, &GPIO_InitStruct);
 959:Core/Src/stm32f7xx_hal_msp.c **** 
 960:Core/Src/stm32f7xx_hal_msp.c ****   GPIO_InitStruct.Pin = FMC_A0_Pin|FMC_A1_Pin|FMC_A2_Pin|FMC_A3_Pin
 961:Core/Src/stm32f7xx_hal_msp.c ****                           |FMC_A4_Pin|FMC_A5_Pin|FMC_A6_Pin|FMC_A9_Pin
 962:Core/Src/stm32f7xx_hal_msp.c ****                           |FMC_A7_Pin|FMC_A8_Pin|FMC_SDNRAS_Pin;
 963:Core/Src/stm32f7xx_hal_msp.c ****   GPIO_InitStruct.Mode = GPIO_MODE_AF_PP;
 964:Core/Src/stm32f7xx_hal_msp.c ****   GPIO_InitStruct.Pull = GPIO_NOPULL;
 965:Core/Src/stm32f7xx_hal_msp.c ****   GPIO_InitStruct.Speed = GPIO_SPEED_FREQ_VERY_HIGH;
 966:Core/Src/stm32f7xx_hal_msp.c ****   GPIO_InitStruct.Alternate = GPIO_AF12_FMC;
 967:Core/Src/stm32f7xx_hal_msp.c ****   HAL_GPIO_Init(GPIOF, &GPIO_InitStruct);
 968:Core/Src/stm32f7xx_hal_msp.c **** 
 969:Core/Src/stm32f7xx_hal_msp.c ****   GPIO_InitStruct.Pin = FMC_SDNME_Pin|FMC_SDNE0_Pin;
 970:Core/Src/stm32f7xx_hal_msp.c ****   GPIO_InitStruct.Mode = GPIO_MODE_AF_PP;
ARM GAS  C:\Users\jisu8\AppData\Local\Temp\cc20AWwL.s 			page 19


 971:Core/Src/stm32f7xx_hal_msp.c ****   GPIO_InitStruct.Pull = GPIO_NOPULL;
 972:Core/Src/stm32f7xx_hal_msp.c ****   GPIO_InitStruct.Speed = GPIO_SPEED_FREQ_VERY_HIGH;
 973:Core/Src/stm32f7xx_hal_msp.c ****   GPIO_InitStruct.Alternate = GPIO_AF12_FMC;
 974:Core/Src/stm32f7xx_hal_msp.c ****   HAL_GPIO_Init(GPIOH, &GPIO_InitStruct);
 975:Core/Src/stm32f7xx_hal_msp.c **** 
 976:Core/Src/stm32f7xx_hal_msp.c ****   GPIO_InitStruct.Pin = FMC_SDCKE0_Pin;
 977:Core/Src/stm32f7xx_hal_msp.c ****   GPIO_InitStruct.Mode = GPIO_MODE_AF_PP;
 978:Core/Src/stm32f7xx_hal_msp.c ****   GPIO_InitStruct.Pull = GPIO_NOPULL;
 979:Core/Src/stm32f7xx_hal_msp.c ****   GPIO_InitStruct.Speed = GPIO_SPEED_FREQ_VERY_HIGH;
 980:Core/Src/stm32f7xx_hal_msp.c ****   GPIO_InitStruct.Alternate = GPIO_AF12_FMC;
 981:Core/Src/stm32f7xx_hal_msp.c ****   HAL_GPIO_Init(FMC_SDCKE0_GPIO_Port, &GPIO_InitStruct);
 982:Core/Src/stm32f7xx_hal_msp.c **** 
 983:Core/Src/stm32f7xx_hal_msp.c ****   /* USER CODE BEGIN FMC_MspInit 1 */
 984:Core/Src/stm32f7xx_hal_msp.c **** 
 985:Core/Src/stm32f7xx_hal_msp.c ****   /* USER CODE END FMC_MspInit 1 */
 986:Core/Src/stm32f7xx_hal_msp.c **** }
  58              		.loc 1 986 1 view .LVU6
  59 0016 07B0     		add	sp, sp, #28
  60              	.LCFI2:
  61              		.cfi_remember_state
  62              		.cfi_def_cfa_offset 20
  63              		@ sp needed
  64 0018 F0BD     		pop	{r4, r5, r6, r7, pc}
  65              	.L5:
  66              	.LCFI3:
  67              		.cfi_restore_state
 890:Core/Src/stm32f7xx_hal_msp.c **** 
  68              		.loc 1 890 3 is_stmt 1 view .LVU7
 890:Core/Src/stm32f7xx_hal_msp.c **** 
  69              		.loc 1 890 19 is_stmt 0 view .LVU8
  70 001a 284B     		ldr	r3, .L6
  71 001c 0122     		movs	r2, #1
  72 001e 1A60     		str	r2, [r3]
 893:Core/Src/stm32f7xx_hal_msp.c **** 
  73              		.loc 1 893 3 is_stmt 1 view .LVU9
  74              	.LBB2:
 893:Core/Src/stm32f7xx_hal_msp.c **** 
  75              		.loc 1 893 3 view .LVU10
 893:Core/Src/stm32f7xx_hal_msp.c **** 
  76              		.loc 1 893 3 view .LVU11
  77 0020 274B     		ldr	r3, .L6+4
  78 0022 9A6B     		ldr	r2, [r3, #56]
  79 0024 42F00102 		orr	r2, r2, #1
  80 0028 9A63     		str	r2, [r3, #56]
 893:Core/Src/stm32f7xx_hal_msp.c **** 
  81              		.loc 1 893 3 view .LVU12
  82 002a 9B6B     		ldr	r3, [r3, #56]
  83 002c 03F00103 		and	r3, r3, #1
  84 0030 0093     		str	r3, [sp]
 893:Core/Src/stm32f7xx_hal_msp.c **** 
  85              		.loc 1 893 3 view .LVU13
  86 0032 009B     		ldr	r3, [sp]
  87              	.LBE2:
 893:Core/Src/stm32f7xx_hal_msp.c **** 
  88              		.loc 1 893 3 view .LVU14
 935:Core/Src/stm32f7xx_hal_msp.c ****                           |FMC_D8_Pin|FMC_D11_Pin|FMC_D4_Pin|FMC_D7_Pin
  89              		.loc 1 935 3 view .LVU15
ARM GAS  C:\Users\jisu8\AppData\Local\Temp\cc20AWwL.s 			page 20


 935:Core/Src/stm32f7xx_hal_msp.c ****                           |FMC_D8_Pin|FMC_D11_Pin|FMC_D4_Pin|FMC_D7_Pin
  90              		.loc 1 935 23 is_stmt 0 view .LVU16
  91 0034 4FF68373 		movw	r3, #65411
  92 0038 0193     		str	r3, [sp, #4]
 938:Core/Src/stm32f7xx_hal_msp.c ****   GPIO_InitStruct.Pull = GPIO_NOPULL;
  93              		.loc 1 938 3 is_stmt 1 view .LVU17
 938:Core/Src/stm32f7xx_hal_msp.c ****   GPIO_InitStruct.Pull = GPIO_NOPULL;
  94              		.loc 1 938 24 is_stmt 0 view .LVU18
  95 003a 0226     		movs	r6, #2
  96 003c 0296     		str	r6, [sp, #8]
 939:Core/Src/stm32f7xx_hal_msp.c ****   GPIO_InitStruct.Speed = GPIO_SPEED_FREQ_VERY_HIGH;
  97              		.loc 1 939 3 is_stmt 1 view .LVU19
 940:Core/Src/stm32f7xx_hal_msp.c ****   GPIO_InitStruct.Alternate = GPIO_AF12_FMC;
  98              		.loc 1 940 3 view .LVU20
 940:Core/Src/stm32f7xx_hal_msp.c ****   GPIO_InitStruct.Alternate = GPIO_AF12_FMC;
  99              		.loc 1 940 25 is_stmt 0 view .LVU21
 100 003e 0325     		movs	r5, #3
 101 0040 0495     		str	r5, [sp, #16]
 941:Core/Src/stm32f7xx_hal_msp.c ****   HAL_GPIO_Init(GPIOE, &GPIO_InitStruct);
 102              		.loc 1 941 3 is_stmt 1 view .LVU22
 941:Core/Src/stm32f7xx_hal_msp.c ****   HAL_GPIO_Init(GPIOE, &GPIO_InitStruct);
 103              		.loc 1 941 29 is_stmt 0 view .LVU23
 104 0042 0C24     		movs	r4, #12
 105 0044 0594     		str	r4, [sp, #20]
 942:Core/Src/stm32f7xx_hal_msp.c **** 
 106              		.loc 1 942 3 is_stmt 1 view .LVU24
 107 0046 01A9     		add	r1, sp, #4
 108 0048 1E48     		ldr	r0, .L6+8
 109 004a FFF7FEFF 		bl	HAL_GPIO_Init
 110              	.LVL0:
 944:Core/Src/stm32f7xx_hal_msp.c ****                           |FMC_BA1_Pin|FMC_BA0_Pin;
 111              		.loc 1 944 3 view .LVU25
 944:Core/Src/stm32f7xx_hal_msp.c ****                           |FMC_BA1_Pin|FMC_BA0_Pin;
 112              		.loc 1 944 23 is_stmt 0 view .LVU26
 113 004e 48F23313 		movw	r3, #33075
 114 0052 0193     		str	r3, [sp, #4]
 946:Core/Src/stm32f7xx_hal_msp.c ****   GPIO_InitStruct.Pull = GPIO_NOPULL;
 115              		.loc 1 946 3 is_stmt 1 view .LVU27
 946:Core/Src/stm32f7xx_hal_msp.c ****   GPIO_InitStruct.Pull = GPIO_NOPULL;
 116              		.loc 1 946 24 is_stmt 0 view .LVU28
 117 0054 0296     		str	r6, [sp, #8]
 947:Core/Src/stm32f7xx_hal_msp.c ****   GPIO_InitStruct.Speed = GPIO_SPEED_FREQ_VERY_HIGH;
 118              		.loc 1 947 3 is_stmt 1 view .LVU29
 947:Core/Src/stm32f7xx_hal_msp.c ****   GPIO_InitStruct.Speed = GPIO_SPEED_FREQ_VERY_HIGH;
 119              		.loc 1 947 24 is_stmt 0 view .LVU30
 120 0056 0027     		movs	r7, #0
 121 0058 0397     		str	r7, [sp, #12]
 948:Core/Src/stm32f7xx_hal_msp.c ****   GPIO_InitStruct.Alternate = GPIO_AF12_FMC;
 122              		.loc 1 948 3 is_stmt 1 view .LVU31
 948:Core/Src/stm32f7xx_hal_msp.c ****   GPIO_InitStruct.Alternate = GPIO_AF12_FMC;
 123              		.loc 1 948 25 is_stmt 0 view .LVU32
 124 005a 0495     		str	r5, [sp, #16]
 949:Core/Src/stm32f7xx_hal_msp.c ****   HAL_GPIO_Init(GPIOG, &GPIO_InitStruct);
 125              		.loc 1 949 3 is_stmt 1 view .LVU33
 949:Core/Src/stm32f7xx_hal_msp.c ****   HAL_GPIO_Init(GPIOG, &GPIO_InitStruct);
 126              		.loc 1 949 29 is_stmt 0 view .LVU34
 127 005c 0594     		str	r4, [sp, #20]
ARM GAS  C:\Users\jisu8\AppData\Local\Temp\cc20AWwL.s 			page 21


 950:Core/Src/stm32f7xx_hal_msp.c **** 
 128              		.loc 1 950 3 is_stmt 1 view .LVU35
 129 005e 01A9     		add	r1, sp, #4
 130 0060 1948     		ldr	r0, .L6+12
 131 0062 FFF7FEFF 		bl	HAL_GPIO_Init
 132              	.LVL1:
 952:Core/Src/stm32f7xx_hal_msp.c ****                           |FMC_D0_Pin|FMC_D14_Pin|FMC_D13_Pin;
 133              		.loc 1 952 3 view .LVU36
 952:Core/Src/stm32f7xx_hal_msp.c ****                           |FMC_D0_Pin|FMC_D14_Pin|FMC_D13_Pin;
 134              		.loc 1 952 23 is_stmt 0 view .LVU37
 135 0066 4CF20373 		movw	r3, #50947
 136 006a 0193     		str	r3, [sp, #4]
 954:Core/Src/stm32f7xx_hal_msp.c ****   GPIO_InitStruct.Pull = GPIO_NOPULL;
 137              		.loc 1 954 3 is_stmt 1 view .LVU38
 954:Core/Src/stm32f7xx_hal_msp.c ****   GPIO_InitStruct.Pull = GPIO_NOPULL;
 138              		.loc 1 954 24 is_stmt 0 view .LVU39
 139 006c 0296     		str	r6, [sp, #8]
 955:Core/Src/stm32f7xx_hal_msp.c ****   GPIO_InitStruct.Speed = GPIO_SPEED_FREQ_VERY_HIGH;
 140              		.loc 1 955 3 is_stmt 1 view .LVU40
 955:Core/Src/stm32f7xx_hal_msp.c ****   GPIO_InitStruct.Speed = GPIO_SPEED_FREQ_VERY_HIGH;
 141              		.loc 1 955 24 is_stmt 0 view .LVU41
 142 006e 0397     		str	r7, [sp, #12]
 956:Core/Src/stm32f7xx_hal_msp.c ****   GPIO_InitStruct.Alternate = GPIO_AF12_FMC;
 143              		.loc 1 956 3 is_stmt 1 view .LVU42
 956:Core/Src/stm32f7xx_hal_msp.c ****   GPIO_InitStruct.Alternate = GPIO_AF12_FMC;
 144              		.loc 1 956 25 is_stmt 0 view .LVU43
 145 0070 0495     		str	r5, [sp, #16]
 957:Core/Src/stm32f7xx_hal_msp.c ****   HAL_GPIO_Init(GPIOD, &GPIO_InitStruct);
 146              		.loc 1 957 3 is_stmt 1 view .LVU44
 957:Core/Src/stm32f7xx_hal_msp.c ****   HAL_GPIO_Init(GPIOD, &GPIO_InitStruct);
 147              		.loc 1 957 29 is_stmt 0 view .LVU45
 148 0072 0594     		str	r4, [sp, #20]
 958:Core/Src/stm32f7xx_hal_msp.c **** 
 149              		.loc 1 958 3 is_stmt 1 view .LVU46
 150 0074 01A9     		add	r1, sp, #4
 151 0076 1548     		ldr	r0, .L6+16
 152 0078 FFF7FEFF 		bl	HAL_GPIO_Init
 153              	.LVL2:
 960:Core/Src/stm32f7xx_hal_msp.c ****                           |FMC_A4_Pin|FMC_A5_Pin|FMC_A6_Pin|FMC_A9_Pin
 154              		.loc 1 960 3 view .LVU47
 960:Core/Src/stm32f7xx_hal_msp.c ****                           |FMC_A4_Pin|FMC_A5_Pin|FMC_A6_Pin|FMC_A9_Pin
 155              		.loc 1 960 23 is_stmt 0 view .LVU48
 156 007c 4FF63F03 		movw	r3, #63551
 157 0080 0193     		str	r3, [sp, #4]
 963:Core/Src/stm32f7xx_hal_msp.c ****   GPIO_InitStruct.Pull = GPIO_NOPULL;
 158              		.loc 1 963 3 is_stmt 1 view .LVU49
 963:Core/Src/stm32f7xx_hal_msp.c ****   GPIO_InitStruct.Pull = GPIO_NOPULL;
 159              		.loc 1 963 24 is_stmt 0 view .LVU50
 160 0082 0296     		str	r6, [sp, #8]
 964:Core/Src/stm32f7xx_hal_msp.c ****   GPIO_InitStruct.Speed = GPIO_SPEED_FREQ_VERY_HIGH;
 161              		.loc 1 964 3 is_stmt 1 view .LVU51
 964:Core/Src/stm32f7xx_hal_msp.c ****   GPIO_InitStruct.Speed = GPIO_SPEED_FREQ_VERY_HIGH;
 162              		.loc 1 964 24 is_stmt 0 view .LVU52
 163 0084 0397     		str	r7, [sp, #12]
 965:Core/Src/stm32f7xx_hal_msp.c ****   GPIO_InitStruct.Alternate = GPIO_AF12_FMC;
 164              		.loc 1 965 3 is_stmt 1 view .LVU53
 965:Core/Src/stm32f7xx_hal_msp.c ****   GPIO_InitStruct.Alternate = GPIO_AF12_FMC;
ARM GAS  C:\Users\jisu8\AppData\Local\Temp\cc20AWwL.s 			page 22


 165              		.loc 1 965 25 is_stmt 0 view .LVU54
 166 0086 0495     		str	r5, [sp, #16]
 966:Core/Src/stm32f7xx_hal_msp.c ****   HAL_GPIO_Init(GPIOF, &GPIO_InitStruct);
 167              		.loc 1 966 3 is_stmt 1 view .LVU55
 966:Core/Src/stm32f7xx_hal_msp.c ****   HAL_GPIO_Init(GPIOF, &GPIO_InitStruct);
 168              		.loc 1 966 29 is_stmt 0 view .LVU56
 169 0088 0594     		str	r4, [sp, #20]
 967:Core/Src/stm32f7xx_hal_msp.c **** 
 170              		.loc 1 967 3 is_stmt 1 view .LVU57
 171 008a 01A9     		add	r1, sp, #4
 172 008c 1048     		ldr	r0, .L6+20
 173 008e FFF7FEFF 		bl	HAL_GPIO_Init
 174              	.LVL3:
 969:Core/Src/stm32f7xx_hal_msp.c ****   GPIO_InitStruct.Mode = GPIO_MODE_AF_PP;
 175              		.loc 1 969 3 view .LVU58
 969:Core/Src/stm32f7xx_hal_msp.c ****   GPIO_InitStruct.Mode = GPIO_MODE_AF_PP;
 176              		.loc 1 969 23 is_stmt 0 view .LVU59
 177 0092 2823     		movs	r3, #40
 178 0094 0193     		str	r3, [sp, #4]
 970:Core/Src/stm32f7xx_hal_msp.c ****   GPIO_InitStruct.Pull = GPIO_NOPULL;
 179              		.loc 1 970 3 is_stmt 1 view .LVU60
 970:Core/Src/stm32f7xx_hal_msp.c ****   GPIO_InitStruct.Pull = GPIO_NOPULL;
 180              		.loc 1 970 24 is_stmt 0 view .LVU61
 181 0096 0296     		str	r6, [sp, #8]
 971:Core/Src/stm32f7xx_hal_msp.c ****   GPIO_InitStruct.Speed = GPIO_SPEED_FREQ_VERY_HIGH;
 182              		.loc 1 971 3 is_stmt 1 view .LVU62
 971:Core/Src/stm32f7xx_hal_msp.c ****   GPIO_InitStruct.Speed = GPIO_SPEED_FREQ_VERY_HIGH;
 183              		.loc 1 971 24 is_stmt 0 view .LVU63
 184 0098 0397     		str	r7, [sp, #12]
 972:Core/Src/stm32f7xx_hal_msp.c ****   GPIO_InitStruct.Alternate = GPIO_AF12_FMC;
 185              		.loc 1 972 3 is_stmt 1 view .LVU64
 972:Core/Src/stm32f7xx_hal_msp.c ****   GPIO_InitStruct.Alternate = GPIO_AF12_FMC;
 186              		.loc 1 972 25 is_stmt 0 view .LVU65
 187 009a 0495     		str	r5, [sp, #16]
 973:Core/Src/stm32f7xx_hal_msp.c ****   HAL_GPIO_Init(GPIOH, &GPIO_InitStruct);
 188              		.loc 1 973 3 is_stmt 1 view .LVU66
 973:Core/Src/stm32f7xx_hal_msp.c ****   HAL_GPIO_Init(GPIOH, &GPIO_InitStruct);
 189              		.loc 1 973 29 is_stmt 0 view .LVU67
 190 009c 0594     		str	r4, [sp, #20]
 974:Core/Src/stm32f7xx_hal_msp.c **** 
 191              		.loc 1 974 3 is_stmt 1 view .LVU68
 192 009e 01A9     		add	r1, sp, #4
 193 00a0 0C48     		ldr	r0, .L6+24
 194 00a2 FFF7FEFF 		bl	HAL_GPIO_Init
 195              	.LVL4:
 976:Core/Src/stm32f7xx_hal_msp.c ****   GPIO_InitStruct.Mode = GPIO_MODE_AF_PP;
 196              		.loc 1 976 3 view .LVU69
 976:Core/Src/stm32f7xx_hal_msp.c ****   GPIO_InitStruct.Mode = GPIO_MODE_AF_PP;
 197              		.loc 1 976 23 is_stmt 0 view .LVU70
 198 00a6 0823     		movs	r3, #8
 199 00a8 0193     		str	r3, [sp, #4]
 977:Core/Src/stm32f7xx_hal_msp.c ****   GPIO_InitStruct.Pull = GPIO_NOPULL;
 200              		.loc 1 977 3 is_stmt 1 view .LVU71
 977:Core/Src/stm32f7xx_hal_msp.c ****   GPIO_InitStruct.Pull = GPIO_NOPULL;
 201              		.loc 1 977 24 is_stmt 0 view .LVU72
 202 00aa 0296     		str	r6, [sp, #8]
 978:Core/Src/stm32f7xx_hal_msp.c ****   GPIO_InitStruct.Speed = GPIO_SPEED_FREQ_VERY_HIGH;
ARM GAS  C:\Users\jisu8\AppData\Local\Temp\cc20AWwL.s 			page 23


 203              		.loc 1 978 3 is_stmt 1 view .LVU73
 978:Core/Src/stm32f7xx_hal_msp.c ****   GPIO_InitStruct.Speed = GPIO_SPEED_FREQ_VERY_HIGH;
 204              		.loc 1 978 24 is_stmt 0 view .LVU74
 205 00ac 0397     		str	r7, [sp, #12]
 979:Core/Src/stm32f7xx_hal_msp.c ****   GPIO_InitStruct.Alternate = GPIO_AF12_FMC;
 206              		.loc 1 979 3 is_stmt 1 view .LVU75
 979:Core/Src/stm32f7xx_hal_msp.c ****   GPIO_InitStruct.Alternate = GPIO_AF12_FMC;
 207              		.loc 1 979 25 is_stmt 0 view .LVU76
 208 00ae 0495     		str	r5, [sp, #16]
 980:Core/Src/stm32f7xx_hal_msp.c ****   HAL_GPIO_Init(FMC_SDCKE0_GPIO_Port, &GPIO_InitStruct);
 209              		.loc 1 980 3 is_stmt 1 view .LVU77
 980:Core/Src/stm32f7xx_hal_msp.c ****   HAL_GPIO_Init(FMC_SDCKE0_GPIO_Port, &GPIO_InitStruct);
 210              		.loc 1 980 29 is_stmt 0 view .LVU78
 211 00b0 0594     		str	r4, [sp, #20]
 981:Core/Src/stm32f7xx_hal_msp.c **** 
 212              		.loc 1 981 3 is_stmt 1 view .LVU79
 213 00b2 01A9     		add	r1, sp, #4
 214 00b4 0848     		ldr	r0, .L6+28
 215 00b6 FFF7FEFF 		bl	HAL_GPIO_Init
 216              	.LVL5:
 217 00ba ACE7     		b	.L1
 218              	.L7:
 219              		.align	2
 220              	.L6:
 221 00bc 00000000 		.word	.LANCHOR0
 222 00c0 00380240 		.word	1073887232
 223 00c4 00100240 		.word	1073876992
 224 00c8 00180240 		.word	1073879040
 225 00cc 000C0240 		.word	1073875968
 226 00d0 00140240 		.word	1073878016
 227 00d4 001C0240 		.word	1073880064
 228 00d8 00080240 		.word	1073874944
 229              		.cfi_endproc
 230              	.LFE156:
 232              		.section	.text.HAL_FMC_MspDeInit,"ax",%progbits
 233              		.align	1
 234              		.syntax unified
 235              		.thumb
 236              		.thumb_func
 238              	HAL_FMC_MspDeInit:
 239              	.LFB158:
 987:Core/Src/stm32f7xx_hal_msp.c **** 
 988:Core/Src/stm32f7xx_hal_msp.c **** void HAL_SDRAM_MspInit(SDRAM_HandleTypeDef* hsdram){
 989:Core/Src/stm32f7xx_hal_msp.c ****   /* USER CODE BEGIN SDRAM_MspInit 0 */
 990:Core/Src/stm32f7xx_hal_msp.c **** 
 991:Core/Src/stm32f7xx_hal_msp.c ****   /* USER CODE END SDRAM_MspInit 0 */
 992:Core/Src/stm32f7xx_hal_msp.c ****   HAL_FMC_MspInit();
 993:Core/Src/stm32f7xx_hal_msp.c ****   /* USER CODE BEGIN SDRAM_MspInit 1 */
 994:Core/Src/stm32f7xx_hal_msp.c **** 
 995:Core/Src/stm32f7xx_hal_msp.c ****   /* USER CODE END SDRAM_MspInit 1 */
 996:Core/Src/stm32f7xx_hal_msp.c **** }
 997:Core/Src/stm32f7xx_hal_msp.c **** 
 998:Core/Src/stm32f7xx_hal_msp.c **** static uint32_t FMC_DeInitialized = 0;
 999:Core/Src/stm32f7xx_hal_msp.c **** 
1000:Core/Src/stm32f7xx_hal_msp.c **** static void HAL_FMC_MspDeInit(void){
 240              		.loc 1 1000 36 view -0
 241              		.cfi_startproc
ARM GAS  C:\Users\jisu8\AppData\Local\Temp\cc20AWwL.s 			page 24


 242              		@ args = 0, pretend = 0, frame = 0
 243              		@ frame_needed = 0, uses_anonymous_args = 0
 244 0000 08B5     		push	{r3, lr}
 245              	.LCFI4:
 246              		.cfi_def_cfa_offset 8
 247              		.cfi_offset 3, -8
 248              		.cfi_offset 14, -4
1001:Core/Src/stm32f7xx_hal_msp.c ****   /* USER CODE BEGIN FMC_MspDeInit 0 */
1002:Core/Src/stm32f7xx_hal_msp.c **** 
1003:Core/Src/stm32f7xx_hal_msp.c ****   /* USER CODE END FMC_MspDeInit 0 */
1004:Core/Src/stm32f7xx_hal_msp.c ****   if (FMC_DeInitialized) {
 249              		.loc 1 1004 3 view .LVU81
 250              		.loc 1 1004 7 is_stmt 0 view .LVU82
 251 0002 144B     		ldr	r3, .L12
 252 0004 1B68     		ldr	r3, [r3]
 253              		.loc 1 1004 6 view .LVU83
 254 0006 03B1     		cbz	r3, .L11
 255              	.L8:
1005:Core/Src/stm32f7xx_hal_msp.c ****     return;
1006:Core/Src/stm32f7xx_hal_msp.c ****   }
1007:Core/Src/stm32f7xx_hal_msp.c ****   FMC_DeInitialized = 1;
1008:Core/Src/stm32f7xx_hal_msp.c ****   /* Peripheral clock enable */
1009:Core/Src/stm32f7xx_hal_msp.c ****   __HAL_RCC_FMC_CLK_DISABLE();
1010:Core/Src/stm32f7xx_hal_msp.c **** 
1011:Core/Src/stm32f7xx_hal_msp.c ****   /** FMC GPIO Configuration
1012:Core/Src/stm32f7xx_hal_msp.c ****   PE1   ------> FMC_NBL1
1013:Core/Src/stm32f7xx_hal_msp.c ****   PE0   ------> FMC_NBL0
1014:Core/Src/stm32f7xx_hal_msp.c ****   PG15   ------> FMC_SDNCAS
1015:Core/Src/stm32f7xx_hal_msp.c ****   PD0   ------> FMC_D2
1016:Core/Src/stm32f7xx_hal_msp.c ****   PD1   ------> FMC_D3
1017:Core/Src/stm32f7xx_hal_msp.c ****   PF0   ------> FMC_A0
1018:Core/Src/stm32f7xx_hal_msp.c ****   PF1   ------> FMC_A1
1019:Core/Src/stm32f7xx_hal_msp.c ****   PF2   ------> FMC_A2
1020:Core/Src/stm32f7xx_hal_msp.c ****   PF3   ------> FMC_A3
1021:Core/Src/stm32f7xx_hal_msp.c ****   PG8   ------> FMC_SDCLK
1022:Core/Src/stm32f7xx_hal_msp.c ****   PF4   ------> FMC_A4
1023:Core/Src/stm32f7xx_hal_msp.c ****   PH5   ------> FMC_SDNWE
1024:Core/Src/stm32f7xx_hal_msp.c ****   PH3   ------> FMC_SDNE0
1025:Core/Src/stm32f7xx_hal_msp.c ****   PF5   ------> FMC_A5
1026:Core/Src/stm32f7xx_hal_msp.c ****   PD15   ------> FMC_D1
1027:Core/Src/stm32f7xx_hal_msp.c ****   PD10   ------> FMC_D15
1028:Core/Src/stm32f7xx_hal_msp.c ****   PC3   ------> FMC_SDCKE0
1029:Core/Src/stm32f7xx_hal_msp.c ****   PD14   ------> FMC_D0
1030:Core/Src/stm32f7xx_hal_msp.c ****   PD9   ------> FMC_D14
1031:Core/Src/stm32f7xx_hal_msp.c ****   PD8   ------> FMC_D13
1032:Core/Src/stm32f7xx_hal_msp.c ****   PF12   ------> FMC_A6
1033:Core/Src/stm32f7xx_hal_msp.c ****   PG1   ------> FMC_A11
1034:Core/Src/stm32f7xx_hal_msp.c ****   PF15   ------> FMC_A9
1035:Core/Src/stm32f7xx_hal_msp.c ****   PF13   ------> FMC_A7
1036:Core/Src/stm32f7xx_hal_msp.c ****   PG0   ------> FMC_A10
1037:Core/Src/stm32f7xx_hal_msp.c ****   PE8   ------> FMC_D5
1038:Core/Src/stm32f7xx_hal_msp.c ****   PG5   ------> FMC_BA1
1039:Core/Src/stm32f7xx_hal_msp.c ****   PG4   ------> FMC_BA0
1040:Core/Src/stm32f7xx_hal_msp.c ****   PF14   ------> FMC_A8
1041:Core/Src/stm32f7xx_hal_msp.c ****   PF11   ------> FMC_SDNRAS
1042:Core/Src/stm32f7xx_hal_msp.c ****   PE9   ------> FMC_D6
1043:Core/Src/stm32f7xx_hal_msp.c ****   PE11   ------> FMC_D8
ARM GAS  C:\Users\jisu8\AppData\Local\Temp\cc20AWwL.s 			page 25


1044:Core/Src/stm32f7xx_hal_msp.c ****   PE14   ------> FMC_D11
1045:Core/Src/stm32f7xx_hal_msp.c ****   PE7   ------> FMC_D4
1046:Core/Src/stm32f7xx_hal_msp.c ****   PE10   ------> FMC_D7
1047:Core/Src/stm32f7xx_hal_msp.c ****   PE12   ------> FMC_D9
1048:Core/Src/stm32f7xx_hal_msp.c ****   PE15   ------> FMC_D12
1049:Core/Src/stm32f7xx_hal_msp.c ****   PE13   ------> FMC_D10
1050:Core/Src/stm32f7xx_hal_msp.c ****   */
1051:Core/Src/stm32f7xx_hal_msp.c ****   HAL_GPIO_DeInit(GPIOE, FMC_NBL1_Pin|FMC_NBL0_Pin|FMC_D5_Pin|FMC_D6_Pin
1052:Core/Src/stm32f7xx_hal_msp.c ****                           |FMC_D8_Pin|FMC_D11_Pin|FMC_D4_Pin|FMC_D7_Pin
1053:Core/Src/stm32f7xx_hal_msp.c ****                           |FMC_D9_Pin|FMC_D12_Pin|FMC_D10_Pin);
1054:Core/Src/stm32f7xx_hal_msp.c **** 
1055:Core/Src/stm32f7xx_hal_msp.c ****   HAL_GPIO_DeInit(GPIOG, FMC_SDNCAS_Pin|FMC_SDCLK_Pin|FMC_A11_Pin|FMC_A10_Pin
1056:Core/Src/stm32f7xx_hal_msp.c ****                           |FMC_BA1_Pin|FMC_BA0_Pin);
1057:Core/Src/stm32f7xx_hal_msp.c **** 
1058:Core/Src/stm32f7xx_hal_msp.c ****   HAL_GPIO_DeInit(GPIOD, FMC_D2_Pin|FMC_D3_Pin|FMC_D1_Pin|FMC_D15_Pin
1059:Core/Src/stm32f7xx_hal_msp.c ****                           |FMC_D0_Pin|FMC_D14_Pin|FMC_D13_Pin);
1060:Core/Src/stm32f7xx_hal_msp.c **** 
1061:Core/Src/stm32f7xx_hal_msp.c ****   HAL_GPIO_DeInit(GPIOF, FMC_A0_Pin|FMC_A1_Pin|FMC_A2_Pin|FMC_A3_Pin
1062:Core/Src/stm32f7xx_hal_msp.c ****                           |FMC_A4_Pin|FMC_A5_Pin|FMC_A6_Pin|FMC_A9_Pin
1063:Core/Src/stm32f7xx_hal_msp.c ****                           |FMC_A7_Pin|FMC_A8_Pin|FMC_SDNRAS_Pin);
1064:Core/Src/stm32f7xx_hal_msp.c **** 
1065:Core/Src/stm32f7xx_hal_msp.c ****   HAL_GPIO_DeInit(GPIOH, FMC_SDNME_Pin|FMC_SDNE0_Pin);
1066:Core/Src/stm32f7xx_hal_msp.c **** 
1067:Core/Src/stm32f7xx_hal_msp.c ****   HAL_GPIO_DeInit(FMC_SDCKE0_GPIO_Port, FMC_SDCKE0_Pin);
1068:Core/Src/stm32f7xx_hal_msp.c **** 
1069:Core/Src/stm32f7xx_hal_msp.c ****   /* USER CODE BEGIN FMC_MspDeInit 1 */
1070:Core/Src/stm32f7xx_hal_msp.c **** 
1071:Core/Src/stm32f7xx_hal_msp.c ****   /* USER CODE END FMC_MspDeInit 1 */
1072:Core/Src/stm32f7xx_hal_msp.c **** }
 256              		.loc 1 1072 1 view .LVU84
 257 0008 08BD     		pop	{r3, pc}
 258              	.L11:
1007:Core/Src/stm32f7xx_hal_msp.c ****   /* Peripheral clock enable */
 259              		.loc 1 1007 3 is_stmt 1 view .LVU85
1007:Core/Src/stm32f7xx_hal_msp.c ****   /* Peripheral clock enable */
 260              		.loc 1 1007 21 is_stmt 0 view .LVU86
 261 000a 124B     		ldr	r3, .L12
 262 000c 0122     		movs	r2, #1
 263 000e 1A60     		str	r2, [r3]
1009:Core/Src/stm32f7xx_hal_msp.c **** 
 264              		.loc 1 1009 3 is_stmt 1 view .LVU87
 265 0010 114A     		ldr	r2, .L12+4
 266 0012 936B     		ldr	r3, [r2, #56]
 267 0014 23F00103 		bic	r3, r3, #1
 268 0018 9363     		str	r3, [r2, #56]
1051:Core/Src/stm32f7xx_hal_msp.c ****                           |FMC_D8_Pin|FMC_D11_Pin|FMC_D4_Pin|FMC_D7_Pin
 269              		.loc 1 1051 3 view .LVU88
 270 001a 4FF68371 		movw	r1, #65411
 271 001e 0F48     		ldr	r0, .L12+8
 272 0020 FFF7FEFF 		bl	HAL_GPIO_DeInit
 273              	.LVL6:
1055:Core/Src/stm32f7xx_hal_msp.c ****                           |FMC_BA1_Pin|FMC_BA0_Pin);
 274              		.loc 1 1055 3 view .LVU89
 275 0024 48F23311 		movw	r1, #33075
 276 0028 0D48     		ldr	r0, .L12+12
 277 002a FFF7FEFF 		bl	HAL_GPIO_DeInit
 278              	.LVL7:
ARM GAS  C:\Users\jisu8\AppData\Local\Temp\cc20AWwL.s 			page 26


1058:Core/Src/stm32f7xx_hal_msp.c ****                           |FMC_D0_Pin|FMC_D14_Pin|FMC_D13_Pin);
 279              		.loc 1 1058 3 view .LVU90
 280 002e 4CF20371 		movw	r1, #50947
 281 0032 0C48     		ldr	r0, .L12+16
 282 0034 FFF7FEFF 		bl	HAL_GPIO_DeInit
 283              	.LVL8:
1061:Core/Src/stm32f7xx_hal_msp.c ****                           |FMC_A4_Pin|FMC_A5_Pin|FMC_A6_Pin|FMC_A9_Pin
 284              		.loc 1 1061 3 view .LVU91
 285 0038 4FF63F01 		movw	r1, #63551
 286 003c 0A48     		ldr	r0, .L12+20
 287 003e FFF7FEFF 		bl	HAL_GPIO_DeInit
 288              	.LVL9:
1065:Core/Src/stm32f7xx_hal_msp.c **** 
 289              		.loc 1 1065 3 view .LVU92
 290 0042 2821     		movs	r1, #40
 291 0044 0948     		ldr	r0, .L12+24
 292 0046 FFF7FEFF 		bl	HAL_GPIO_DeInit
 293              	.LVL10:
1067:Core/Src/stm32f7xx_hal_msp.c **** 
 294              		.loc 1 1067 3 view .LVU93
 295 004a 0821     		movs	r1, #8
 296 004c 0848     		ldr	r0, .L12+28
 297 004e FFF7FEFF 		bl	HAL_GPIO_DeInit
 298              	.LVL11:
 299 0052 D9E7     		b	.L8
 300              	.L13:
 301              		.align	2
 302              	.L12:
 303 0054 00000000 		.word	.LANCHOR1
 304 0058 00380240 		.word	1073887232
 305 005c 00100240 		.word	1073876992
 306 0060 00180240 		.word	1073879040
 307 0064 000C0240 		.word	1073875968
 308 0068 00140240 		.word	1073878016
 309 006c 001C0240 		.word	1073880064
 310 0070 00080240 		.word	1073874944
 311              		.cfi_endproc
 312              	.LFE158:
 314              		.section	.text.HAL_MspInit,"ax",%progbits
 315              		.align	1
 316              		.global	HAL_MspInit
 317              		.syntax unified
 318              		.thumb
 319              		.thumb_func
 321              	HAL_MspInit:
 322              	.LFB141:
  67:Core/Src/stm32f7xx_hal_msp.c ****   /* USER CODE BEGIN MspInit 0 */
 323              		.loc 1 67 1 view -0
 324              		.cfi_startproc
 325              		@ args = 0, pretend = 0, frame = 8
 326              		@ frame_needed = 0, uses_anonymous_args = 0
 327 0000 00B5     		push	{lr}
 328              	.LCFI5:
 329              		.cfi_def_cfa_offset 4
 330              		.cfi_offset 14, -4
 331 0002 83B0     		sub	sp, sp, #12
 332              	.LCFI6:
ARM GAS  C:\Users\jisu8\AppData\Local\Temp\cc20AWwL.s 			page 27


 333              		.cfi_def_cfa_offset 16
  72:Core/Src/stm32f7xx_hal_msp.c ****   __HAL_RCC_SYSCFG_CLK_ENABLE();
 334              		.loc 1 72 3 view .LVU95
 335              	.LBB3:
  72:Core/Src/stm32f7xx_hal_msp.c ****   __HAL_RCC_SYSCFG_CLK_ENABLE();
 336              		.loc 1 72 3 view .LVU96
  72:Core/Src/stm32f7xx_hal_msp.c ****   __HAL_RCC_SYSCFG_CLK_ENABLE();
 337              		.loc 1 72 3 view .LVU97
 338 0004 0D4B     		ldr	r3, .L16
 339 0006 1A6C     		ldr	r2, [r3, #64]
 340 0008 42F08052 		orr	r2, r2, #268435456
 341 000c 1A64     		str	r2, [r3, #64]
  72:Core/Src/stm32f7xx_hal_msp.c ****   __HAL_RCC_SYSCFG_CLK_ENABLE();
 342              		.loc 1 72 3 view .LVU98
 343 000e 1A6C     		ldr	r2, [r3, #64]
 344 0010 02F08052 		and	r2, r2, #268435456
 345 0014 0092     		str	r2, [sp]
  72:Core/Src/stm32f7xx_hal_msp.c ****   __HAL_RCC_SYSCFG_CLK_ENABLE();
 346              		.loc 1 72 3 view .LVU99
 347 0016 009A     		ldr	r2, [sp]
 348              	.LBE3:
  72:Core/Src/stm32f7xx_hal_msp.c ****   __HAL_RCC_SYSCFG_CLK_ENABLE();
 349              		.loc 1 72 3 view .LVU100
  73:Core/Src/stm32f7xx_hal_msp.c **** 
 350              		.loc 1 73 3 view .LVU101
 351              	.LBB4:
  73:Core/Src/stm32f7xx_hal_msp.c **** 
 352              		.loc 1 73 3 view .LVU102
  73:Core/Src/stm32f7xx_hal_msp.c **** 
 353              		.loc 1 73 3 view .LVU103
 354 0018 5A6C     		ldr	r2, [r3, #68]
 355 001a 42F48042 		orr	r2, r2, #16384
 356 001e 5A64     		str	r2, [r3, #68]
  73:Core/Src/stm32f7xx_hal_msp.c **** 
 357              		.loc 1 73 3 view .LVU104
 358 0020 5B6C     		ldr	r3, [r3, #68]
 359 0022 03F48043 		and	r3, r3, #16384
 360 0026 0193     		str	r3, [sp, #4]
  73:Core/Src/stm32f7xx_hal_msp.c **** 
 361              		.loc 1 73 3 view .LVU105
 362 0028 019B     		ldr	r3, [sp, #4]
 363              	.LBE4:
  73:Core/Src/stm32f7xx_hal_msp.c **** 
 364              		.loc 1 73 3 view .LVU106
  77:Core/Src/stm32f7xx_hal_msp.c **** 
 365              		.loc 1 77 3 view .LVU107
 366 002a 0022     		movs	r2, #0
 367 002c 0F21     		movs	r1, #15
 368 002e 6FF00100 		mvn	r0, #1
 369 0032 FFF7FEFF 		bl	HAL_NVIC_SetPriority
 370              	.LVL12:
  82:Core/Src/stm32f7xx_hal_msp.c **** 
 371              		.loc 1 82 1 is_stmt 0 view .LVU108
 372 0036 03B0     		add	sp, sp, #12
 373              	.LCFI7:
 374              		.cfi_def_cfa_offset 4
 375              		@ sp needed
ARM GAS  C:\Users\jisu8\AppData\Local\Temp\cc20AWwL.s 			page 28


 376 0038 5DF804FB 		ldr	pc, [sp], #4
 377              	.L17:
 378              		.align	2
 379              	.L16:
 380 003c 00380240 		.word	1073887232
 381              		.cfi_endproc
 382              	.LFE141:
 384              		.section	.text.HAL_CRC_MspInit,"ax",%progbits
 385              		.align	1
 386              		.global	HAL_CRC_MspInit
 387              		.syntax unified
 388              		.thumb
 389              		.thumb_func
 391              	HAL_CRC_MspInit:
 392              	.LVL13:
 393              	.LFB142:
  91:Core/Src/stm32f7xx_hal_msp.c ****   if(hcrc->Instance==CRC)
 394              		.loc 1 91 1 is_stmt 1 view -0
 395              		.cfi_startproc
 396              		@ args = 0, pretend = 0, frame = 8
 397              		@ frame_needed = 0, uses_anonymous_args = 0
 398              		@ link register save eliminated.
  92:Core/Src/stm32f7xx_hal_msp.c ****   {
 399              		.loc 1 92 3 view .LVU110
  92:Core/Src/stm32f7xx_hal_msp.c ****   {
 400              		.loc 1 92 10 is_stmt 0 view .LVU111
 401 0000 0268     		ldr	r2, [r0]
  92:Core/Src/stm32f7xx_hal_msp.c ****   {
 402              		.loc 1 92 5 view .LVU112
 403 0002 094B     		ldr	r3, .L25
 404 0004 9A42     		cmp	r2, r3
 405 0006 00D0     		beq	.L24
 406 0008 7047     		bx	lr
 407              	.L24:
  91:Core/Src/stm32f7xx_hal_msp.c ****   if(hcrc->Instance==CRC)
 408              		.loc 1 91 1 view .LVU113
 409 000a 82B0     		sub	sp, sp, #8
 410              	.LCFI8:
 411              		.cfi_def_cfa_offset 8
  98:Core/Src/stm32f7xx_hal_msp.c ****   /* USER CODE BEGIN CRC_MspInit 1 */
 412              		.loc 1 98 5 is_stmt 1 view .LVU114
 413              	.LBB5:
  98:Core/Src/stm32f7xx_hal_msp.c ****   /* USER CODE BEGIN CRC_MspInit 1 */
 414              		.loc 1 98 5 view .LVU115
  98:Core/Src/stm32f7xx_hal_msp.c ****   /* USER CODE BEGIN CRC_MspInit 1 */
 415              		.loc 1 98 5 view .LVU116
 416 000c 03F50063 		add	r3, r3, #2048
 417 0010 1A6B     		ldr	r2, [r3, #48]
 418 0012 42F48052 		orr	r2, r2, #4096
 419 0016 1A63     		str	r2, [r3, #48]
  98:Core/Src/stm32f7xx_hal_msp.c ****   /* USER CODE BEGIN CRC_MspInit 1 */
 420              		.loc 1 98 5 view .LVU117
 421 0018 1B6B     		ldr	r3, [r3, #48]
 422 001a 03F48053 		and	r3, r3, #4096
 423 001e 0193     		str	r3, [sp, #4]
  98:Core/Src/stm32f7xx_hal_msp.c ****   /* USER CODE BEGIN CRC_MspInit 1 */
 424              		.loc 1 98 5 view .LVU118
ARM GAS  C:\Users\jisu8\AppData\Local\Temp\cc20AWwL.s 			page 29


 425 0020 019B     		ldr	r3, [sp, #4]
 426              	.LBE5:
  98:Core/Src/stm32f7xx_hal_msp.c ****   /* USER CODE BEGIN CRC_MspInit 1 */
 427              		.loc 1 98 5 view .LVU119
 104:Core/Src/stm32f7xx_hal_msp.c **** 
 428              		.loc 1 104 1 is_stmt 0 view .LVU120
 429 0022 02B0     		add	sp, sp, #8
 430              	.LCFI9:
 431              		.cfi_def_cfa_offset 0
 432              		@ sp needed
 433 0024 7047     		bx	lr
 434              	.L26:
 435 0026 00BF     		.align	2
 436              	.L25:
 437 0028 00300240 		.word	1073885184
 438              		.cfi_endproc
 439              	.LFE142:
 441              		.section	.text.HAL_CRC_MspDeInit,"ax",%progbits
 442              		.align	1
 443              		.global	HAL_CRC_MspDeInit
 444              		.syntax unified
 445              		.thumb
 446              		.thumb_func
 448              	HAL_CRC_MspDeInit:
 449              	.LVL14:
 450              	.LFB143:
 113:Core/Src/stm32f7xx_hal_msp.c ****   if(hcrc->Instance==CRC)
 451              		.loc 1 113 1 is_stmt 1 view -0
 452              		.cfi_startproc
 453              		@ args = 0, pretend = 0, frame = 0
 454              		@ frame_needed = 0, uses_anonymous_args = 0
 455              		@ link register save eliminated.
 114:Core/Src/stm32f7xx_hal_msp.c ****   {
 456              		.loc 1 114 3 view .LVU122
 114:Core/Src/stm32f7xx_hal_msp.c ****   {
 457              		.loc 1 114 10 is_stmt 0 view .LVU123
 458 0000 0268     		ldr	r2, [r0]
 114:Core/Src/stm32f7xx_hal_msp.c ****   {
 459              		.loc 1 114 5 view .LVU124
 460 0002 054B     		ldr	r3, .L30
 461 0004 9A42     		cmp	r2, r3
 462 0006 00D0     		beq	.L29
 463              	.L27:
 126:Core/Src/stm32f7xx_hal_msp.c **** 
 464              		.loc 1 126 1 view .LVU125
 465 0008 7047     		bx	lr
 466              	.L29:
 120:Core/Src/stm32f7xx_hal_msp.c ****   /* USER CODE BEGIN CRC_MspDeInit 1 */
 467              		.loc 1 120 5 is_stmt 1 view .LVU126
 468 000a 044A     		ldr	r2, .L30+4
 469 000c 136B     		ldr	r3, [r2, #48]
 470 000e 23F48053 		bic	r3, r3, #4096
 471 0012 1363     		str	r3, [r2, #48]
 126:Core/Src/stm32f7xx_hal_msp.c **** 
 472              		.loc 1 126 1 is_stmt 0 view .LVU127
 473 0014 F8E7     		b	.L27
 474              	.L31:
ARM GAS  C:\Users\jisu8\AppData\Local\Temp\cc20AWwL.s 			page 30


 475 0016 00BF     		.align	2
 476              	.L30:
 477 0018 00300240 		.word	1073885184
 478 001c 00380240 		.word	1073887232
 479              		.cfi_endproc
 480              	.LFE143:
 482              		.section	.text.HAL_I2C_MspInit,"ax",%progbits
 483              		.align	1
 484              		.global	HAL_I2C_MspInit
 485              		.syntax unified
 486              		.thumb
 487              		.thumb_func
 489              	HAL_I2C_MspInit:
 490              	.LVL15:
 491              	.LFB144:
 135:Core/Src/stm32f7xx_hal_msp.c ****   GPIO_InitTypeDef GPIO_InitStruct = {0};
 492              		.loc 1 135 1 is_stmt 1 view -0
 493              		.cfi_startproc
 494              		@ args = 0, pretend = 0, frame = 168
 495              		@ frame_needed = 0, uses_anonymous_args = 0
 135:Core/Src/stm32f7xx_hal_msp.c ****   GPIO_InitTypeDef GPIO_InitStruct = {0};
 496              		.loc 1 135 1 is_stmt 0 view .LVU129
 497 0000 10B5     		push	{r4, lr}
 498              	.LCFI10:
 499              		.cfi_def_cfa_offset 8
 500              		.cfi_offset 4, -8
 501              		.cfi_offset 14, -4
 502 0002 AAB0     		sub	sp, sp, #168
 503              	.LCFI11:
 504              		.cfi_def_cfa_offset 176
 505 0004 0446     		mov	r4, r0
 136:Core/Src/stm32f7xx_hal_msp.c ****   RCC_PeriphCLKInitTypeDef PeriphClkInitStruct = {0};
 506              		.loc 1 136 3 is_stmt 1 view .LVU130
 136:Core/Src/stm32f7xx_hal_msp.c ****   RCC_PeriphCLKInitTypeDef PeriphClkInitStruct = {0};
 507              		.loc 1 136 20 is_stmt 0 view .LVU131
 508 0006 0021     		movs	r1, #0
 509 0008 2591     		str	r1, [sp, #148]
 510 000a 2691     		str	r1, [sp, #152]
 511 000c 2791     		str	r1, [sp, #156]
 512 000e 2891     		str	r1, [sp, #160]
 513 0010 2991     		str	r1, [sp, #164]
 137:Core/Src/stm32f7xx_hal_msp.c ****   if(hi2c->Instance==I2C1)
 514              		.loc 1 137 3 is_stmt 1 view .LVU132
 137:Core/Src/stm32f7xx_hal_msp.c ****   if(hi2c->Instance==I2C1)
 515              		.loc 1 137 28 is_stmt 0 view .LVU133
 516 0012 8422     		movs	r2, #132
 517 0014 04A8     		add	r0, sp, #16
 518              	.LVL16:
 137:Core/Src/stm32f7xx_hal_msp.c ****   if(hi2c->Instance==I2C1)
 519              		.loc 1 137 28 view .LVU134
 520 0016 FFF7FEFF 		bl	memset
 521              	.LVL17:
 138:Core/Src/stm32f7xx_hal_msp.c ****   {
 522              		.loc 1 138 3 is_stmt 1 view .LVU135
 138:Core/Src/stm32f7xx_hal_msp.c ****   {
 523              		.loc 1 138 10 is_stmt 0 view .LVU136
 524 001a 2368     		ldr	r3, [r4]
ARM GAS  C:\Users\jisu8\AppData\Local\Temp\cc20AWwL.s 			page 31


 138:Core/Src/stm32f7xx_hal_msp.c ****   {
 525              		.loc 1 138 5 view .LVU137
 526 001c 304A     		ldr	r2, .L42
 527 001e 9342     		cmp	r3, r2
 528 0020 04D0     		beq	.L38
 171:Core/Src/stm32f7xx_hal_msp.c ****   {
 529              		.loc 1 171 8 is_stmt 1 view .LVU138
 171:Core/Src/stm32f7xx_hal_msp.c ****   {
 530              		.loc 1 171 10 is_stmt 0 view .LVU139
 531 0022 304A     		ldr	r2, .L42+4
 532 0024 9342     		cmp	r3, r2
 533 0026 2ED0     		beq	.L39
 534              	.LVL18:
 535              	.L32:
 205:Core/Src/stm32f7xx_hal_msp.c **** 
 536              		.loc 1 205 1 view .LVU140
 537 0028 2AB0     		add	sp, sp, #168
 538              	.LCFI12:
 539              		.cfi_remember_state
 540              		.cfi_def_cfa_offset 8
 541              		@ sp needed
 542 002a 10BD     		pop	{r4, pc}
 543              	.LVL19:
 544              	.L38:
 545              	.LCFI13:
 546              		.cfi_restore_state
 146:Core/Src/stm32f7xx_hal_msp.c ****     PeriphClkInitStruct.I2c1ClockSelection = RCC_I2C1CLKSOURCE_PCLK1;
 547              		.loc 1 146 5 is_stmt 1 view .LVU141
 146:Core/Src/stm32f7xx_hal_msp.c ****     PeriphClkInitStruct.I2c1ClockSelection = RCC_I2C1CLKSOURCE_PCLK1;
 548              		.loc 1 146 46 is_stmt 0 view .LVU142
 549 002c 4FF48043 		mov	r3, #16384
 550 0030 0493     		str	r3, [sp, #16]
 147:Core/Src/stm32f7xx_hal_msp.c ****     if (HAL_RCCEx_PeriphCLKConfig(&PeriphClkInitStruct) != HAL_OK)
 551              		.loc 1 147 5 is_stmt 1 view .LVU143
 148:Core/Src/stm32f7xx_hal_msp.c ****     {
 552              		.loc 1 148 5 view .LVU144
 148:Core/Src/stm32f7xx_hal_msp.c ****     {
 553              		.loc 1 148 9 is_stmt 0 view .LVU145
 554 0032 04A8     		add	r0, sp, #16
 555 0034 FFF7FEFF 		bl	HAL_RCCEx_PeriphCLKConfig
 556              	.LVL20:
 148:Core/Src/stm32f7xx_hal_msp.c ****     {
 557              		.loc 1 148 8 view .LVU146
 558 0038 10BB     		cbnz	r0, .L40
 559              	.L34:
 153:Core/Src/stm32f7xx_hal_msp.c ****     /**I2C1 GPIO Configuration
 560              		.loc 1 153 5 is_stmt 1 view .LVU147
 561              	.LBB6:
 153:Core/Src/stm32f7xx_hal_msp.c ****     /**I2C1 GPIO Configuration
 562              		.loc 1 153 5 view .LVU148
 153:Core/Src/stm32f7xx_hal_msp.c ****     /**I2C1 GPIO Configuration
 563              		.loc 1 153 5 view .LVU149
 564 003a 2B4C     		ldr	r4, .L42+8
 565              	.LVL21:
 153:Core/Src/stm32f7xx_hal_msp.c ****     /**I2C1 GPIO Configuration
 566              		.loc 1 153 5 is_stmt 0 view .LVU150
 567 003c 236B     		ldr	r3, [r4, #48]
ARM GAS  C:\Users\jisu8\AppData\Local\Temp\cc20AWwL.s 			page 32


 568 003e 43F00203 		orr	r3, r3, #2
 569 0042 2363     		str	r3, [r4, #48]
 153:Core/Src/stm32f7xx_hal_msp.c ****     /**I2C1 GPIO Configuration
 570              		.loc 1 153 5 is_stmt 1 view .LVU151
 571 0044 236B     		ldr	r3, [r4, #48]
 572 0046 03F00203 		and	r3, r3, #2
 573 004a 0093     		str	r3, [sp]
 153:Core/Src/stm32f7xx_hal_msp.c ****     /**I2C1 GPIO Configuration
 574              		.loc 1 153 5 view .LVU152
 575 004c 009B     		ldr	r3, [sp]
 576              	.LBE6:
 153:Core/Src/stm32f7xx_hal_msp.c ****     /**I2C1 GPIO Configuration
 577              		.loc 1 153 5 view .LVU153
 158:Core/Src/stm32f7xx_hal_msp.c ****     GPIO_InitStruct.Mode = GPIO_MODE_AF_OD;
 578              		.loc 1 158 5 view .LVU154
 158:Core/Src/stm32f7xx_hal_msp.c ****     GPIO_InitStruct.Mode = GPIO_MODE_AF_OD;
 579              		.loc 1 158 25 is_stmt 0 view .LVU155
 580 004e 4FF44073 		mov	r3, #768
 581 0052 2593     		str	r3, [sp, #148]
 159:Core/Src/stm32f7xx_hal_msp.c ****     GPIO_InitStruct.Pull = GPIO_PULLUP;
 582              		.loc 1 159 5 is_stmt 1 view .LVU156
 159:Core/Src/stm32f7xx_hal_msp.c ****     GPIO_InitStruct.Pull = GPIO_PULLUP;
 583              		.loc 1 159 26 is_stmt 0 view .LVU157
 584 0054 1223     		movs	r3, #18
 585 0056 2693     		str	r3, [sp, #152]
 160:Core/Src/stm32f7xx_hal_msp.c ****     GPIO_InitStruct.Speed = GPIO_SPEED_FREQ_LOW;
 586              		.loc 1 160 5 is_stmt 1 view .LVU158
 160:Core/Src/stm32f7xx_hal_msp.c ****     GPIO_InitStruct.Speed = GPIO_SPEED_FREQ_LOW;
 587              		.loc 1 160 26 is_stmt 0 view .LVU159
 588 0058 0123     		movs	r3, #1
 589 005a 2793     		str	r3, [sp, #156]
 161:Core/Src/stm32f7xx_hal_msp.c ****     GPIO_InitStruct.Alternate = GPIO_AF4_I2C1;
 590              		.loc 1 161 5 is_stmt 1 view .LVU160
 161:Core/Src/stm32f7xx_hal_msp.c ****     GPIO_InitStruct.Alternate = GPIO_AF4_I2C1;
 591              		.loc 1 161 27 is_stmt 0 view .LVU161
 592 005c 0023     		movs	r3, #0
 593 005e 2893     		str	r3, [sp, #160]
 162:Core/Src/stm32f7xx_hal_msp.c ****     HAL_GPIO_Init(GPIOB, &GPIO_InitStruct);
 594              		.loc 1 162 5 is_stmt 1 view .LVU162
 162:Core/Src/stm32f7xx_hal_msp.c ****     HAL_GPIO_Init(GPIOB, &GPIO_InitStruct);
 595              		.loc 1 162 31 is_stmt 0 view .LVU163
 596 0060 0423     		movs	r3, #4
 597 0062 2993     		str	r3, [sp, #164]
 163:Core/Src/stm32f7xx_hal_msp.c **** 
 598              		.loc 1 163 5 is_stmt 1 view .LVU164
 599 0064 25A9     		add	r1, sp, #148
 600 0066 2148     		ldr	r0, .L42+12
 601 0068 FFF7FEFF 		bl	HAL_GPIO_Init
 602              	.LVL22:
 166:Core/Src/stm32f7xx_hal_msp.c ****   /* USER CODE BEGIN I2C1_MspInit 1 */
 603              		.loc 1 166 5 view .LVU165
 604              	.LBB7:
 166:Core/Src/stm32f7xx_hal_msp.c ****   /* USER CODE BEGIN I2C1_MspInit 1 */
 605              		.loc 1 166 5 view .LVU166
 166:Core/Src/stm32f7xx_hal_msp.c ****   /* USER CODE BEGIN I2C1_MspInit 1 */
 606              		.loc 1 166 5 view .LVU167
 607 006c 236C     		ldr	r3, [r4, #64]
ARM GAS  C:\Users\jisu8\AppData\Local\Temp\cc20AWwL.s 			page 33


 608 006e 43F40013 		orr	r3, r3, #2097152
 609 0072 2364     		str	r3, [r4, #64]
 166:Core/Src/stm32f7xx_hal_msp.c ****   /* USER CODE BEGIN I2C1_MspInit 1 */
 610              		.loc 1 166 5 view .LVU168
 611 0074 236C     		ldr	r3, [r4, #64]
 612 0076 03F40013 		and	r3, r3, #2097152
 613 007a 0193     		str	r3, [sp, #4]
 166:Core/Src/stm32f7xx_hal_msp.c ****   /* USER CODE BEGIN I2C1_MspInit 1 */
 614              		.loc 1 166 5 view .LVU169
 615 007c 019B     		ldr	r3, [sp, #4]
 616              	.LBE7:
 166:Core/Src/stm32f7xx_hal_msp.c ****   /* USER CODE BEGIN I2C1_MspInit 1 */
 617              		.loc 1 166 5 view .LVU170
 618 007e D3E7     		b	.L32
 619              	.LVL23:
 620              	.L40:
 150:Core/Src/stm32f7xx_hal_msp.c ****     }
 621              		.loc 1 150 7 view .LVU171
 622 0080 FFF7FEFF 		bl	Error_Handler
 623              	.LVL24:
 624 0084 D9E7     		b	.L34
 625              	.L39:
 179:Core/Src/stm32f7xx_hal_msp.c ****     PeriphClkInitStruct.I2c3ClockSelection = RCC_I2C3CLKSOURCE_PCLK1;
 626              		.loc 1 179 5 view .LVU172
 179:Core/Src/stm32f7xx_hal_msp.c ****     PeriphClkInitStruct.I2c3ClockSelection = RCC_I2C3CLKSOURCE_PCLK1;
 627              		.loc 1 179 46 is_stmt 0 view .LVU173
 628 0086 4FF48033 		mov	r3, #65536
 629 008a 0493     		str	r3, [sp, #16]
 180:Core/Src/stm32f7xx_hal_msp.c ****     if (HAL_RCCEx_PeriphCLKConfig(&PeriphClkInitStruct) != HAL_OK)
 630              		.loc 1 180 5 is_stmt 1 view .LVU174
 181:Core/Src/stm32f7xx_hal_msp.c ****     {
 631              		.loc 1 181 5 view .LVU175
 181:Core/Src/stm32f7xx_hal_msp.c ****     {
 632              		.loc 1 181 9 is_stmt 0 view .LVU176
 633 008c 04A8     		add	r0, sp, #16
 634 008e FFF7FEFF 		bl	HAL_RCCEx_PeriphCLKConfig
 635              	.LVL25:
 181:Core/Src/stm32f7xx_hal_msp.c ****     {
 636              		.loc 1 181 8 view .LVU177
 637 0092 10BB     		cbnz	r0, .L41
 638              	.L36:
 186:Core/Src/stm32f7xx_hal_msp.c ****     /**I2C3 GPIO Configuration
 639              		.loc 1 186 5 is_stmt 1 view .LVU178
 640              	.LBB8:
 186:Core/Src/stm32f7xx_hal_msp.c ****     /**I2C3 GPIO Configuration
 641              		.loc 1 186 5 view .LVU179
 186:Core/Src/stm32f7xx_hal_msp.c ****     /**I2C3 GPIO Configuration
 642              		.loc 1 186 5 view .LVU180
 643 0094 144C     		ldr	r4, .L42+8
 644              	.LVL26:
 186:Core/Src/stm32f7xx_hal_msp.c ****     /**I2C3 GPIO Configuration
 645              		.loc 1 186 5 is_stmt 0 view .LVU181
 646 0096 236B     		ldr	r3, [r4, #48]
 647 0098 43F08003 		orr	r3, r3, #128
 648 009c 2363     		str	r3, [r4, #48]
 186:Core/Src/stm32f7xx_hal_msp.c ****     /**I2C3 GPIO Configuration
 649              		.loc 1 186 5 is_stmt 1 view .LVU182
ARM GAS  C:\Users\jisu8\AppData\Local\Temp\cc20AWwL.s 			page 34


 650 009e 236B     		ldr	r3, [r4, #48]
 651 00a0 03F08003 		and	r3, r3, #128
 652 00a4 0293     		str	r3, [sp, #8]
 186:Core/Src/stm32f7xx_hal_msp.c ****     /**I2C3 GPIO Configuration
 653              		.loc 1 186 5 view .LVU183
 654 00a6 029B     		ldr	r3, [sp, #8]
 655              	.LBE8:
 186:Core/Src/stm32f7xx_hal_msp.c ****     /**I2C3 GPIO Configuration
 656              		.loc 1 186 5 view .LVU184
 191:Core/Src/stm32f7xx_hal_msp.c ****     GPIO_InitStruct.Mode = GPIO_MODE_AF_OD;
 657              		.loc 1 191 5 view .LVU185
 191:Core/Src/stm32f7xx_hal_msp.c ****     GPIO_InitStruct.Mode = GPIO_MODE_AF_OD;
 658              		.loc 1 191 25 is_stmt 0 view .LVU186
 659 00a8 4FF4C073 		mov	r3, #384
 660 00ac 2593     		str	r3, [sp, #148]
 192:Core/Src/stm32f7xx_hal_msp.c ****     GPIO_InitStruct.Pull = GPIO_PULLUP;
 661              		.loc 1 192 5 is_stmt 1 view .LVU187
 192:Core/Src/stm32f7xx_hal_msp.c ****     GPIO_InitStruct.Pull = GPIO_PULLUP;
 662              		.loc 1 192 26 is_stmt 0 view .LVU188
 663 00ae 1223     		movs	r3, #18
 664 00b0 2693     		str	r3, [sp, #152]
 193:Core/Src/stm32f7xx_hal_msp.c ****     GPIO_InitStruct.Speed = GPIO_SPEED_FREQ_VERY_HIGH;
 665              		.loc 1 193 5 is_stmt 1 view .LVU189
 193:Core/Src/stm32f7xx_hal_msp.c ****     GPIO_InitStruct.Speed = GPIO_SPEED_FREQ_VERY_HIGH;
 666              		.loc 1 193 26 is_stmt 0 view .LVU190
 667 00b2 0123     		movs	r3, #1
 668 00b4 2793     		str	r3, [sp, #156]
 194:Core/Src/stm32f7xx_hal_msp.c ****     GPIO_InitStruct.Alternate = GPIO_AF4_I2C3;
 669              		.loc 1 194 5 is_stmt 1 view .LVU191
 194:Core/Src/stm32f7xx_hal_msp.c ****     GPIO_InitStruct.Alternate = GPIO_AF4_I2C3;
 670              		.loc 1 194 27 is_stmt 0 view .LVU192
 671 00b6 0323     		movs	r3, #3
 672 00b8 2893     		str	r3, [sp, #160]
 195:Core/Src/stm32f7xx_hal_msp.c ****     HAL_GPIO_Init(GPIOH, &GPIO_InitStruct);
 673              		.loc 1 195 5 is_stmt 1 view .LVU193
 195:Core/Src/stm32f7xx_hal_msp.c ****     HAL_GPIO_Init(GPIOH, &GPIO_InitStruct);
 674              		.loc 1 195 31 is_stmt 0 view .LVU194
 675 00ba 0423     		movs	r3, #4
 676 00bc 2993     		str	r3, [sp, #164]
 196:Core/Src/stm32f7xx_hal_msp.c **** 
 677              		.loc 1 196 5 is_stmt 1 view .LVU195
 678 00be 25A9     		add	r1, sp, #148
 679 00c0 0B48     		ldr	r0, .L42+16
 680 00c2 FFF7FEFF 		bl	HAL_GPIO_Init
 681              	.LVL27:
 199:Core/Src/stm32f7xx_hal_msp.c ****   /* USER CODE BEGIN I2C3_MspInit 1 */
 682              		.loc 1 199 5 view .LVU196
 683              	.LBB9:
 199:Core/Src/stm32f7xx_hal_msp.c ****   /* USER CODE BEGIN I2C3_MspInit 1 */
 684              		.loc 1 199 5 view .LVU197
 199:Core/Src/stm32f7xx_hal_msp.c ****   /* USER CODE BEGIN I2C3_MspInit 1 */
 685              		.loc 1 199 5 view .LVU198
 686 00c6 236C     		ldr	r3, [r4, #64]
 687 00c8 43F40003 		orr	r3, r3, #8388608
 688 00cc 2364     		str	r3, [r4, #64]
 199:Core/Src/stm32f7xx_hal_msp.c ****   /* USER CODE BEGIN I2C3_MspInit 1 */
 689              		.loc 1 199 5 view .LVU199
ARM GAS  C:\Users\jisu8\AppData\Local\Temp\cc20AWwL.s 			page 35


 690 00ce 236C     		ldr	r3, [r4, #64]
 691 00d0 03F40003 		and	r3, r3, #8388608
 692 00d4 0393     		str	r3, [sp, #12]
 199:Core/Src/stm32f7xx_hal_msp.c ****   /* USER CODE BEGIN I2C3_MspInit 1 */
 693              		.loc 1 199 5 view .LVU200
 694 00d6 039B     		ldr	r3, [sp, #12]
 695              	.LBE9:
 199:Core/Src/stm32f7xx_hal_msp.c ****   /* USER CODE BEGIN I2C3_MspInit 1 */
 696              		.loc 1 199 5 view .LVU201
 205:Core/Src/stm32f7xx_hal_msp.c **** 
 697              		.loc 1 205 1 is_stmt 0 view .LVU202
 698 00d8 A6E7     		b	.L32
 699              	.LVL28:
 700              	.L41:
 183:Core/Src/stm32f7xx_hal_msp.c ****     }
 701              		.loc 1 183 7 is_stmt 1 view .LVU203
 702 00da FFF7FEFF 		bl	Error_Handler
 703              	.LVL29:
 704 00de D9E7     		b	.L36
 705              	.L43:
 706              		.align	2
 707              	.L42:
 708 00e0 00540040 		.word	1073763328
 709 00e4 005C0040 		.word	1073765376
 710 00e8 00380240 		.word	1073887232
 711 00ec 00040240 		.word	1073873920
 712 00f0 001C0240 		.word	1073880064
 713              		.cfi_endproc
 714              	.LFE144:
 716              		.section	.text.HAL_I2C_MspDeInit,"ax",%progbits
 717              		.align	1
 718              		.global	HAL_I2C_MspDeInit
 719              		.syntax unified
 720              		.thumb
 721              		.thumb_func
 723              	HAL_I2C_MspDeInit:
 724              	.LVL30:
 725              	.LFB145:
 214:Core/Src/stm32f7xx_hal_msp.c ****   if(hi2c->Instance==I2C1)
 726              		.loc 1 214 1 view -0
 727              		.cfi_startproc
 728              		@ args = 0, pretend = 0, frame = 0
 729              		@ frame_needed = 0, uses_anonymous_args = 0
 214:Core/Src/stm32f7xx_hal_msp.c ****   if(hi2c->Instance==I2C1)
 730              		.loc 1 214 1 is_stmt 0 view .LVU205
 731 0000 10B5     		push	{r4, lr}
 732              	.LCFI14:
 733              		.cfi_def_cfa_offset 8
 734              		.cfi_offset 4, -8
 735              		.cfi_offset 14, -4
 215:Core/Src/stm32f7xx_hal_msp.c ****   {
 736              		.loc 1 215 3 is_stmt 1 view .LVU206
 215:Core/Src/stm32f7xx_hal_msp.c ****   {
 737              		.loc 1 215 10 is_stmt 0 view .LVU207
 738 0002 0368     		ldr	r3, [r0]
 215:Core/Src/stm32f7xx_hal_msp.c ****   {
 739              		.loc 1 215 5 view .LVU208
ARM GAS  C:\Users\jisu8\AppData\Local\Temp\cc20AWwL.s 			page 36


 740 0004 144A     		ldr	r2, .L50
 741 0006 9342     		cmp	r3, r2
 742 0008 03D0     		beq	.L48
 235:Core/Src/stm32f7xx_hal_msp.c ****   {
 743              		.loc 1 235 8 is_stmt 1 view .LVU209
 235:Core/Src/stm32f7xx_hal_msp.c ****   {
 744              		.loc 1 235 10 is_stmt 0 view .LVU210
 745 000a 144A     		ldr	r2, .L50+4
 746 000c 9342     		cmp	r3, r2
 747 000e 12D0     		beq	.L49
 748              	.LVL31:
 749              	.L44:
 256:Core/Src/stm32f7xx_hal_msp.c **** 
 750              		.loc 1 256 1 view .LVU211
 751 0010 10BD     		pop	{r4, pc}
 752              	.LVL32:
 753              	.L48:
 221:Core/Src/stm32f7xx_hal_msp.c **** 
 754              		.loc 1 221 5 is_stmt 1 view .LVU212
 755 0012 02F5F232 		add	r2, r2, #123904
 756 0016 136C     		ldr	r3, [r2, #64]
 757 0018 23F40013 		bic	r3, r3, #2097152
 758 001c 1364     		str	r3, [r2, #64]
 227:Core/Src/stm32f7xx_hal_msp.c **** 
 759              		.loc 1 227 5 view .LVU213
 760 001e 104C     		ldr	r4, .L50+8
 761 0020 4FF48071 		mov	r1, #256
 762 0024 2046     		mov	r0, r4
 763              	.LVL33:
 227:Core/Src/stm32f7xx_hal_msp.c **** 
 764              		.loc 1 227 5 is_stmt 0 view .LVU214
 765 0026 FFF7FEFF 		bl	HAL_GPIO_DeInit
 766              	.LVL34:
 229:Core/Src/stm32f7xx_hal_msp.c **** 
 767              		.loc 1 229 5 is_stmt 1 view .LVU215
 768 002a 4FF40071 		mov	r1, #512
 769 002e 2046     		mov	r0, r4
 770 0030 FFF7FEFF 		bl	HAL_GPIO_DeInit
 771              	.LVL35:
 772 0034 ECE7     		b	.L44
 773              	.LVL36:
 774              	.L49:
 241:Core/Src/stm32f7xx_hal_msp.c **** 
 775              		.loc 1 241 5 view .LVU216
 776 0036 02F5EE32 		add	r2, r2, #121856
 777 003a 136C     		ldr	r3, [r2, #64]
 778 003c 23F40003 		bic	r3, r3, #8388608
 779 0040 1364     		str	r3, [r2, #64]
 247:Core/Src/stm32f7xx_hal_msp.c **** 
 780              		.loc 1 247 5 view .LVU217
 781 0042 084C     		ldr	r4, .L50+12
 782 0044 8021     		movs	r1, #128
 783 0046 2046     		mov	r0, r4
 784              	.LVL37:
 247:Core/Src/stm32f7xx_hal_msp.c **** 
 785              		.loc 1 247 5 is_stmt 0 view .LVU218
 786 0048 FFF7FEFF 		bl	HAL_GPIO_DeInit
ARM GAS  C:\Users\jisu8\AppData\Local\Temp\cc20AWwL.s 			page 37


 787              	.LVL38:
 249:Core/Src/stm32f7xx_hal_msp.c **** 
 788              		.loc 1 249 5 is_stmt 1 view .LVU219
 789 004c 4FF48071 		mov	r1, #256
 790 0050 2046     		mov	r0, r4
 791 0052 FFF7FEFF 		bl	HAL_GPIO_DeInit
 792              	.LVL39:
 256:Core/Src/stm32f7xx_hal_msp.c **** 
 793              		.loc 1 256 1 is_stmt 0 view .LVU220
 794 0056 DBE7     		b	.L44
 795              	.L51:
 796              		.align	2
 797              	.L50:
 798 0058 00540040 		.word	1073763328
 799 005c 005C0040 		.word	1073765376
 800 0060 00040240 		.word	1073873920
 801 0064 001C0240 		.word	1073880064
 802              		.cfi_endproc
 803              	.LFE145:
 805              		.section	.text.HAL_LTDC_MspInit,"ax",%progbits
 806              		.align	1
 807              		.global	HAL_LTDC_MspInit
 808              		.syntax unified
 809              		.thumb
 810              		.thumb_func
 812              	HAL_LTDC_MspInit:
 813              	.LVL40:
 814              	.LFB146:
 265:Core/Src/stm32f7xx_hal_msp.c ****   GPIO_InitTypeDef GPIO_InitStruct = {0};
 815              		.loc 1 265 1 is_stmt 1 view -0
 816              		.cfi_startproc
 817              		@ args = 0, pretend = 0, frame = 48
 818              		@ frame_needed = 0, uses_anonymous_args = 0
 265:Core/Src/stm32f7xx_hal_msp.c ****   GPIO_InitTypeDef GPIO_InitStruct = {0};
 819              		.loc 1 265 1 is_stmt 0 view .LVU222
 820 0000 70B5     		push	{r4, r5, r6, lr}
 821              	.LCFI15:
 822              		.cfi_def_cfa_offset 16
 823              		.cfi_offset 4, -16
 824              		.cfi_offset 5, -12
 825              		.cfi_offset 6, -8
 826              		.cfi_offset 14, -4
 827 0002 8CB0     		sub	sp, sp, #48
 828              	.LCFI16:
 829              		.cfi_def_cfa_offset 64
 266:Core/Src/stm32f7xx_hal_msp.c ****   if(hltdc->Instance==LTDC)
 830              		.loc 1 266 3 is_stmt 1 view .LVU223
 266:Core/Src/stm32f7xx_hal_msp.c ****   if(hltdc->Instance==LTDC)
 831              		.loc 1 266 20 is_stmt 0 view .LVU224
 832 0004 0023     		movs	r3, #0
 833 0006 0793     		str	r3, [sp, #28]
 834 0008 0893     		str	r3, [sp, #32]
 835 000a 0993     		str	r3, [sp, #36]
 836 000c 0A93     		str	r3, [sp, #40]
 837 000e 0B93     		str	r3, [sp, #44]
 267:Core/Src/stm32f7xx_hal_msp.c ****   {
 838              		.loc 1 267 3 is_stmt 1 view .LVU225
ARM GAS  C:\Users\jisu8\AppData\Local\Temp\cc20AWwL.s 			page 38


 267:Core/Src/stm32f7xx_hal_msp.c ****   {
 839              		.loc 1 267 11 is_stmt 0 view .LVU226
 840 0010 0268     		ldr	r2, [r0]
 267:Core/Src/stm32f7xx_hal_msp.c ****   {
 841              		.loc 1 267 5 view .LVU227
 842 0012 3E4B     		ldr	r3, .L56
 843 0014 9A42     		cmp	r2, r3
 844 0016 01D0     		beq	.L55
 845              	.LVL41:
 846              	.L52:
 357:Core/Src/stm32f7xx_hal_msp.c **** 
 847              		.loc 1 357 1 view .LVU228
 848 0018 0CB0     		add	sp, sp, #48
 849              	.LCFI17:
 850              		.cfi_remember_state
 851              		.cfi_def_cfa_offset 16
 852              		@ sp needed
 853 001a 70BD     		pop	{r4, r5, r6, pc}
 854              	.LVL42:
 855              	.L55:
 856              	.LCFI18:
 857              		.cfi_restore_state
 273:Core/Src/stm32f7xx_hal_msp.c **** 
 858              		.loc 1 273 5 is_stmt 1 view .LVU229
 859              	.LBB10:
 273:Core/Src/stm32f7xx_hal_msp.c **** 
 860              		.loc 1 273 5 view .LVU230
 273:Core/Src/stm32f7xx_hal_msp.c **** 
 861              		.loc 1 273 5 view .LVU231
 862 001c 03F55043 		add	r3, r3, #53248
 863 0020 5A6C     		ldr	r2, [r3, #68]
 864 0022 42F08062 		orr	r2, r2, #67108864
 865 0026 5A64     		str	r2, [r3, #68]
 273:Core/Src/stm32f7xx_hal_msp.c **** 
 866              		.loc 1 273 5 view .LVU232
 867 0028 5A6C     		ldr	r2, [r3, #68]
 868 002a 02F08062 		and	r2, r2, #67108864
 869 002e 0192     		str	r2, [sp, #4]
 273:Core/Src/stm32f7xx_hal_msp.c **** 
 870              		.loc 1 273 5 view .LVU233
 871 0030 019A     		ldr	r2, [sp, #4]
 872              	.LBE10:
 273:Core/Src/stm32f7xx_hal_msp.c **** 
 873              		.loc 1 273 5 view .LVU234
 275:Core/Src/stm32f7xx_hal_msp.c ****     __HAL_RCC_GPIOJ_CLK_ENABLE();
 874              		.loc 1 275 5 view .LVU235
 875              	.LBB11:
 275:Core/Src/stm32f7xx_hal_msp.c ****     __HAL_RCC_GPIOJ_CLK_ENABLE();
 876              		.loc 1 275 5 view .LVU236
 275:Core/Src/stm32f7xx_hal_msp.c ****     __HAL_RCC_GPIOJ_CLK_ENABLE();
 877              		.loc 1 275 5 view .LVU237
 878 0032 1A6B     		ldr	r2, [r3, #48]
 879 0034 42F01002 		orr	r2, r2, #16
 880 0038 1A63     		str	r2, [r3, #48]
 275:Core/Src/stm32f7xx_hal_msp.c ****     __HAL_RCC_GPIOJ_CLK_ENABLE();
 881              		.loc 1 275 5 view .LVU238
 882 003a 1A6B     		ldr	r2, [r3, #48]
ARM GAS  C:\Users\jisu8\AppData\Local\Temp\cc20AWwL.s 			page 39


 883 003c 02F01002 		and	r2, r2, #16
 884 0040 0292     		str	r2, [sp, #8]
 275:Core/Src/stm32f7xx_hal_msp.c ****     __HAL_RCC_GPIOJ_CLK_ENABLE();
 885              		.loc 1 275 5 view .LVU239
 886 0042 029A     		ldr	r2, [sp, #8]
 887              	.LBE11:
 275:Core/Src/stm32f7xx_hal_msp.c ****     __HAL_RCC_GPIOJ_CLK_ENABLE();
 888              		.loc 1 275 5 view .LVU240
 276:Core/Src/stm32f7xx_hal_msp.c ****     __HAL_RCC_GPIOK_CLK_ENABLE();
 889              		.loc 1 276 5 view .LVU241
 890              	.LBB12:
 276:Core/Src/stm32f7xx_hal_msp.c ****     __HAL_RCC_GPIOK_CLK_ENABLE();
 891              		.loc 1 276 5 view .LVU242
 276:Core/Src/stm32f7xx_hal_msp.c ****     __HAL_RCC_GPIOK_CLK_ENABLE();
 892              		.loc 1 276 5 view .LVU243
 893 0044 1A6B     		ldr	r2, [r3, #48]
 894 0046 42F40072 		orr	r2, r2, #512
 895 004a 1A63     		str	r2, [r3, #48]
 276:Core/Src/stm32f7xx_hal_msp.c ****     __HAL_RCC_GPIOK_CLK_ENABLE();
 896              		.loc 1 276 5 view .LVU244
 897 004c 1A6B     		ldr	r2, [r3, #48]
 898 004e 02F40072 		and	r2, r2, #512
 899 0052 0392     		str	r2, [sp, #12]
 276:Core/Src/stm32f7xx_hal_msp.c ****     __HAL_RCC_GPIOK_CLK_ENABLE();
 900              		.loc 1 276 5 view .LVU245
 901 0054 039A     		ldr	r2, [sp, #12]
 902              	.LBE12:
 276:Core/Src/stm32f7xx_hal_msp.c ****     __HAL_RCC_GPIOK_CLK_ENABLE();
 903              		.loc 1 276 5 view .LVU246
 277:Core/Src/stm32f7xx_hal_msp.c ****     __HAL_RCC_GPIOG_CLK_ENABLE();
 904              		.loc 1 277 5 view .LVU247
 905              	.LBB13:
 277:Core/Src/stm32f7xx_hal_msp.c ****     __HAL_RCC_GPIOG_CLK_ENABLE();
 906              		.loc 1 277 5 view .LVU248
 277:Core/Src/stm32f7xx_hal_msp.c ****     __HAL_RCC_GPIOG_CLK_ENABLE();
 907              		.loc 1 277 5 view .LVU249
 908 0056 1A6B     		ldr	r2, [r3, #48]
 909 0058 42F48062 		orr	r2, r2, #1024
 910 005c 1A63     		str	r2, [r3, #48]
 277:Core/Src/stm32f7xx_hal_msp.c ****     __HAL_RCC_GPIOG_CLK_ENABLE();
 911              		.loc 1 277 5 view .LVU250
 912 005e 1A6B     		ldr	r2, [r3, #48]
 913 0060 02F48062 		and	r2, r2, #1024
 914 0064 0492     		str	r2, [sp, #16]
 277:Core/Src/stm32f7xx_hal_msp.c ****     __HAL_RCC_GPIOG_CLK_ENABLE();
 915              		.loc 1 277 5 view .LVU251
 916 0066 049A     		ldr	r2, [sp, #16]
 917              	.LBE13:
 277:Core/Src/stm32f7xx_hal_msp.c ****     __HAL_RCC_GPIOG_CLK_ENABLE();
 918              		.loc 1 277 5 view .LVU252
 278:Core/Src/stm32f7xx_hal_msp.c ****     __HAL_RCC_GPIOI_CLK_ENABLE();
 919              		.loc 1 278 5 view .LVU253
 920              	.LBB14:
 278:Core/Src/stm32f7xx_hal_msp.c ****     __HAL_RCC_GPIOI_CLK_ENABLE();
 921              		.loc 1 278 5 view .LVU254
 278:Core/Src/stm32f7xx_hal_msp.c ****     __HAL_RCC_GPIOI_CLK_ENABLE();
 922              		.loc 1 278 5 view .LVU255
ARM GAS  C:\Users\jisu8\AppData\Local\Temp\cc20AWwL.s 			page 40


 923 0068 1A6B     		ldr	r2, [r3, #48]
 924 006a 42F04002 		orr	r2, r2, #64
 925 006e 1A63     		str	r2, [r3, #48]
 278:Core/Src/stm32f7xx_hal_msp.c ****     __HAL_RCC_GPIOI_CLK_ENABLE();
 926              		.loc 1 278 5 view .LVU256
 927 0070 1A6B     		ldr	r2, [r3, #48]
 928 0072 02F04002 		and	r2, r2, #64
 929 0076 0592     		str	r2, [sp, #20]
 278:Core/Src/stm32f7xx_hal_msp.c ****     __HAL_RCC_GPIOI_CLK_ENABLE();
 930              		.loc 1 278 5 view .LVU257
 931 0078 059A     		ldr	r2, [sp, #20]
 932              	.LBE14:
 278:Core/Src/stm32f7xx_hal_msp.c ****     __HAL_RCC_GPIOI_CLK_ENABLE();
 933              		.loc 1 278 5 view .LVU258
 279:Core/Src/stm32f7xx_hal_msp.c ****     /**LTDC GPIO Configuration
 934              		.loc 1 279 5 view .LVU259
 935              	.LBB15:
 279:Core/Src/stm32f7xx_hal_msp.c ****     /**LTDC GPIO Configuration
 936              		.loc 1 279 5 view .LVU260
 279:Core/Src/stm32f7xx_hal_msp.c ****     /**LTDC GPIO Configuration
 937              		.loc 1 279 5 view .LVU261
 938 007a 1A6B     		ldr	r2, [r3, #48]
 939 007c 42F48072 		orr	r2, r2, #256
 940 0080 1A63     		str	r2, [r3, #48]
 279:Core/Src/stm32f7xx_hal_msp.c ****     /**LTDC GPIO Configuration
 941              		.loc 1 279 5 view .LVU262
 942 0082 1B6B     		ldr	r3, [r3, #48]
 943 0084 03F48073 		and	r3, r3, #256
 944 0088 0693     		str	r3, [sp, #24]
 279:Core/Src/stm32f7xx_hal_msp.c ****     /**LTDC GPIO Configuration
 945              		.loc 1 279 5 view .LVU263
 946 008a 069B     		ldr	r3, [sp, #24]
 947              	.LBE15:
 279:Core/Src/stm32f7xx_hal_msp.c ****     /**LTDC GPIO Configuration
 948              		.loc 1 279 5 view .LVU264
 310:Core/Src/stm32f7xx_hal_msp.c ****     GPIO_InitStruct.Mode = GPIO_MODE_AF_PP;
 949              		.loc 1 310 5 view .LVU265
 310:Core/Src/stm32f7xx_hal_msp.c ****     GPIO_InitStruct.Mode = GPIO_MODE_AF_PP;
 950              		.loc 1 310 25 is_stmt 0 view .LVU266
 951 008c 1023     		movs	r3, #16
 952 008e 0793     		str	r3, [sp, #28]
 311:Core/Src/stm32f7xx_hal_msp.c ****     GPIO_InitStruct.Pull = GPIO_NOPULL;
 953              		.loc 1 311 5 is_stmt 1 view .LVU267
 311:Core/Src/stm32f7xx_hal_msp.c ****     GPIO_InitStruct.Pull = GPIO_NOPULL;
 954              		.loc 1 311 26 is_stmt 0 view .LVU268
 955 0090 0225     		movs	r5, #2
 956 0092 0895     		str	r5, [sp, #32]
 312:Core/Src/stm32f7xx_hal_msp.c ****     GPIO_InitStruct.Speed = GPIO_SPEED_FREQ_LOW;
 957              		.loc 1 312 5 is_stmt 1 view .LVU269
 313:Core/Src/stm32f7xx_hal_msp.c ****     GPIO_InitStruct.Alternate = GPIO_AF14_LTDC;
 958              		.loc 1 313 5 view .LVU270
 314:Core/Src/stm32f7xx_hal_msp.c ****     HAL_GPIO_Init(LCD_B0_GPIO_Port, &GPIO_InitStruct);
 959              		.loc 1 314 5 view .LVU271
 314:Core/Src/stm32f7xx_hal_msp.c ****     HAL_GPIO_Init(LCD_B0_GPIO_Port, &GPIO_InitStruct);
 960              		.loc 1 314 31 is_stmt 0 view .LVU272
 961 0094 0E26     		movs	r6, #14
 962 0096 0B96     		str	r6, [sp, #44]
ARM GAS  C:\Users\jisu8\AppData\Local\Temp\cc20AWwL.s 			page 41


 315:Core/Src/stm32f7xx_hal_msp.c **** 
 963              		.loc 1 315 5 is_stmt 1 view .LVU273
 964 0098 07A9     		add	r1, sp, #28
 965 009a 1D48     		ldr	r0, .L56+4
 966              	.LVL43:
 315:Core/Src/stm32f7xx_hal_msp.c **** 
 967              		.loc 1 315 5 is_stmt 0 view .LVU274
 968 009c FFF7FEFF 		bl	HAL_GPIO_Init
 969              	.LVL44:
 317:Core/Src/stm32f7xx_hal_msp.c ****                           |LCD_G1_Pin|LCD_G3_Pin|LCD_G0_Pin|LCD_G2_Pin
 970              		.loc 1 317 5 is_stmt 1 view .LVU275
 317:Core/Src/stm32f7xx_hal_msp.c ****                           |LCD_G1_Pin|LCD_G3_Pin|LCD_G0_Pin|LCD_G2_Pin
 971              		.loc 1 317 25 is_stmt 0 view .LVU276
 972 00a0 4EF6FF73 		movw	r3, #61439
 973 00a4 0793     		str	r3, [sp, #28]
 321:Core/Src/stm32f7xx_hal_msp.c ****     GPIO_InitStruct.Pull = GPIO_NOPULL;
 974              		.loc 1 321 5 is_stmt 1 view .LVU277
 321:Core/Src/stm32f7xx_hal_msp.c ****     GPIO_InitStruct.Pull = GPIO_NOPULL;
 975              		.loc 1 321 26 is_stmt 0 view .LVU278
 976 00a6 0895     		str	r5, [sp, #32]
 322:Core/Src/stm32f7xx_hal_msp.c ****     GPIO_InitStruct.Speed = GPIO_SPEED_FREQ_LOW;
 977              		.loc 1 322 5 is_stmt 1 view .LVU279
 322:Core/Src/stm32f7xx_hal_msp.c ****     GPIO_InitStruct.Speed = GPIO_SPEED_FREQ_LOW;
 978              		.loc 1 322 26 is_stmt 0 view .LVU280
 979 00a8 0024     		movs	r4, #0
 980 00aa 0994     		str	r4, [sp, #36]
 323:Core/Src/stm32f7xx_hal_msp.c ****     GPIO_InitStruct.Alternate = GPIO_AF14_LTDC;
 981              		.loc 1 323 5 is_stmt 1 view .LVU281
 323:Core/Src/stm32f7xx_hal_msp.c ****     GPIO_InitStruct.Alternate = GPIO_AF14_LTDC;
 982              		.loc 1 323 27 is_stmt 0 view .LVU282
 983 00ac 0A94     		str	r4, [sp, #40]
 324:Core/Src/stm32f7xx_hal_msp.c ****     HAL_GPIO_Init(GPIOJ, &GPIO_InitStruct);
 984              		.loc 1 324 5 is_stmt 1 view .LVU283
 324:Core/Src/stm32f7xx_hal_msp.c ****     HAL_GPIO_Init(GPIOJ, &GPIO_InitStruct);
 985              		.loc 1 324 31 is_stmt 0 view .LVU284
 986 00ae 0B96     		str	r6, [sp, #44]
 325:Core/Src/stm32f7xx_hal_msp.c **** 
 987              		.loc 1 325 5 is_stmt 1 view .LVU285
 988 00b0 07A9     		add	r1, sp, #28
 989 00b2 1848     		ldr	r0, .L56+8
 990 00b4 FFF7FEFF 		bl	HAL_GPIO_Init
 991              	.LVL45:
 327:Core/Src/stm32f7xx_hal_msp.c ****                           |LCD_G6_Pin|LCD_G7_Pin|LCD_G5_Pin;
 992              		.loc 1 327 5 view .LVU286
 327:Core/Src/stm32f7xx_hal_msp.c ****                           |LCD_G6_Pin|LCD_G7_Pin|LCD_G5_Pin;
 993              		.loc 1 327 25 is_stmt 0 view .LVU287
 994 00b8 F723     		movs	r3, #247
 995 00ba 0793     		str	r3, [sp, #28]
 329:Core/Src/stm32f7xx_hal_msp.c ****     GPIO_InitStruct.Pull = GPIO_NOPULL;
 996              		.loc 1 329 5 is_stmt 1 view .LVU288
 329:Core/Src/stm32f7xx_hal_msp.c ****     GPIO_InitStruct.Pull = GPIO_NOPULL;
 997              		.loc 1 329 26 is_stmt 0 view .LVU289
 998 00bc 0895     		str	r5, [sp, #32]
 330:Core/Src/stm32f7xx_hal_msp.c ****     GPIO_InitStruct.Speed = GPIO_SPEED_FREQ_LOW;
 999              		.loc 1 330 5 is_stmt 1 view .LVU290
 330:Core/Src/stm32f7xx_hal_msp.c ****     GPIO_InitStruct.Speed = GPIO_SPEED_FREQ_LOW;
 1000              		.loc 1 330 26 is_stmt 0 view .LVU291
ARM GAS  C:\Users\jisu8\AppData\Local\Temp\cc20AWwL.s 			page 42


 1001 00be 0994     		str	r4, [sp, #36]
 331:Core/Src/stm32f7xx_hal_msp.c ****     GPIO_InitStruct.Alternate = GPIO_AF14_LTDC;
 1002              		.loc 1 331 5 is_stmt 1 view .LVU292
 331:Core/Src/stm32f7xx_hal_msp.c ****     GPIO_InitStruct.Alternate = GPIO_AF14_LTDC;
 1003              		.loc 1 331 27 is_stmt 0 view .LVU293
 1004 00c0 0A94     		str	r4, [sp, #40]
 332:Core/Src/stm32f7xx_hal_msp.c ****     HAL_GPIO_Init(GPIOK, &GPIO_InitStruct);
 1005              		.loc 1 332 5 is_stmt 1 view .LVU294
 332:Core/Src/stm32f7xx_hal_msp.c ****     HAL_GPIO_Init(GPIOK, &GPIO_InitStruct);
 1006              		.loc 1 332 31 is_stmt 0 view .LVU295
 1007 00c2 0B96     		str	r6, [sp, #44]
 333:Core/Src/stm32f7xx_hal_msp.c **** 
 1008              		.loc 1 333 5 is_stmt 1 view .LVU296
 1009 00c4 07A9     		add	r1, sp, #28
 1010 00c6 1448     		ldr	r0, .L56+12
 1011 00c8 FFF7FEFF 		bl	HAL_GPIO_Init
 1012              	.LVL46:
 335:Core/Src/stm32f7xx_hal_msp.c ****     GPIO_InitStruct.Mode = GPIO_MODE_AF_PP;
 1013              		.loc 1 335 5 view .LVU297
 335:Core/Src/stm32f7xx_hal_msp.c ****     GPIO_InitStruct.Mode = GPIO_MODE_AF_PP;
 1014              		.loc 1 335 25 is_stmt 0 view .LVU298
 1015 00cc 4FF48053 		mov	r3, #4096
 1016 00d0 0793     		str	r3, [sp, #28]
 336:Core/Src/stm32f7xx_hal_msp.c ****     GPIO_InitStruct.Pull = GPIO_NOPULL;
 1017              		.loc 1 336 5 is_stmt 1 view .LVU299
 336:Core/Src/stm32f7xx_hal_msp.c ****     GPIO_InitStruct.Pull = GPIO_NOPULL;
 1018              		.loc 1 336 26 is_stmt 0 view .LVU300
 1019 00d2 0895     		str	r5, [sp, #32]
 337:Core/Src/stm32f7xx_hal_msp.c ****     GPIO_InitStruct.Speed = GPIO_SPEED_FREQ_LOW;
 1020              		.loc 1 337 5 is_stmt 1 view .LVU301
 337:Core/Src/stm32f7xx_hal_msp.c ****     GPIO_InitStruct.Speed = GPIO_SPEED_FREQ_LOW;
 1021              		.loc 1 337 26 is_stmt 0 view .LVU302
 1022 00d4 0994     		str	r4, [sp, #36]
 338:Core/Src/stm32f7xx_hal_msp.c ****     GPIO_InitStruct.Alternate = GPIO_AF9_LTDC;
 1023              		.loc 1 338 5 is_stmt 1 view .LVU303
 338:Core/Src/stm32f7xx_hal_msp.c ****     GPIO_InitStruct.Alternate = GPIO_AF9_LTDC;
 1024              		.loc 1 338 27 is_stmt 0 view .LVU304
 1025 00d6 0A94     		str	r4, [sp, #40]
 339:Core/Src/stm32f7xx_hal_msp.c ****     HAL_GPIO_Init(LCD_B4_GPIO_Port, &GPIO_InitStruct);
 1026              		.loc 1 339 5 is_stmt 1 view .LVU305
 339:Core/Src/stm32f7xx_hal_msp.c ****     HAL_GPIO_Init(LCD_B4_GPIO_Port, &GPIO_InitStruct);
 1027              		.loc 1 339 31 is_stmt 0 view .LVU306
 1028 00d8 0923     		movs	r3, #9
 1029 00da 0B93     		str	r3, [sp, #44]
 340:Core/Src/stm32f7xx_hal_msp.c **** 
 1030              		.loc 1 340 5 is_stmt 1 view .LVU307
 1031 00dc 07A9     		add	r1, sp, #28
 1032 00de 0F48     		ldr	r0, .L56+16
 1033 00e0 FFF7FEFF 		bl	HAL_GPIO_Init
 1034              	.LVL47:
 342:Core/Src/stm32f7xx_hal_msp.c ****     GPIO_InitStruct.Mode = GPIO_MODE_AF_PP;
 1035              		.loc 1 342 5 view .LVU308
 342:Core/Src/stm32f7xx_hal_msp.c ****     GPIO_InitStruct.Mode = GPIO_MODE_AF_PP;
 1036              		.loc 1 342 25 is_stmt 0 view .LVU309
 1037 00e4 4FF44643 		mov	r3, #50688
 1038 00e8 0793     		str	r3, [sp, #28]
 343:Core/Src/stm32f7xx_hal_msp.c ****     GPIO_InitStruct.Pull = GPIO_NOPULL;
ARM GAS  C:\Users\jisu8\AppData\Local\Temp\cc20AWwL.s 			page 43


 1039              		.loc 1 343 5 is_stmt 1 view .LVU310
 343:Core/Src/stm32f7xx_hal_msp.c ****     GPIO_InitStruct.Pull = GPIO_NOPULL;
 1040              		.loc 1 343 26 is_stmt 0 view .LVU311
 1041 00ea 0895     		str	r5, [sp, #32]
 344:Core/Src/stm32f7xx_hal_msp.c ****     GPIO_InitStruct.Speed = GPIO_SPEED_FREQ_LOW;
 1042              		.loc 1 344 5 is_stmt 1 view .LVU312
 344:Core/Src/stm32f7xx_hal_msp.c ****     GPIO_InitStruct.Speed = GPIO_SPEED_FREQ_LOW;
 1043              		.loc 1 344 26 is_stmt 0 view .LVU313
 1044 00ec 0994     		str	r4, [sp, #36]
 345:Core/Src/stm32f7xx_hal_msp.c ****     GPIO_InitStruct.Alternate = GPIO_AF14_LTDC;
 1045              		.loc 1 345 5 is_stmt 1 view .LVU314
 345:Core/Src/stm32f7xx_hal_msp.c ****     GPIO_InitStruct.Alternate = GPIO_AF14_LTDC;
 1046              		.loc 1 345 27 is_stmt 0 view .LVU315
 1047 00ee 0A94     		str	r4, [sp, #40]
 346:Core/Src/stm32f7xx_hal_msp.c ****     HAL_GPIO_Init(GPIOI, &GPIO_InitStruct);
 1048              		.loc 1 346 5 is_stmt 1 view .LVU316
 346:Core/Src/stm32f7xx_hal_msp.c ****     HAL_GPIO_Init(GPIOI, &GPIO_InitStruct);
 1049              		.loc 1 346 31 is_stmt 0 view .LVU317
 1050 00f0 0B96     		str	r6, [sp, #44]
 347:Core/Src/stm32f7xx_hal_msp.c **** 
 1051              		.loc 1 347 5 is_stmt 1 view .LVU318
 1052 00f2 07A9     		add	r1, sp, #28
 1053 00f4 0A48     		ldr	r0, .L56+20
 1054 00f6 FFF7FEFF 		bl	HAL_GPIO_Init
 1055              	.LVL48:
 350:Core/Src/stm32f7xx_hal_msp.c ****     HAL_NVIC_EnableIRQ(LTDC_IRQn);
 1056              		.loc 1 350 5 view .LVU319
 1057 00fa 2246     		mov	r2, r4
 1058 00fc 0521     		movs	r1, #5
 1059 00fe 5820     		movs	r0, #88
 1060 0100 FFF7FEFF 		bl	HAL_NVIC_SetPriority
 1061              	.LVL49:
 351:Core/Src/stm32f7xx_hal_msp.c ****   /* USER CODE BEGIN LTDC_MspInit 1 */
 1062              		.loc 1 351 5 view .LVU320
 1063 0104 5820     		movs	r0, #88
 1064 0106 FFF7FEFF 		bl	HAL_NVIC_EnableIRQ
 1065              	.LVL50:
 357:Core/Src/stm32f7xx_hal_msp.c **** 
 1066              		.loc 1 357 1 is_stmt 0 view .LVU321
 1067 010a 85E7     		b	.L52
 1068              	.L57:
 1069              		.align	2
 1070              	.L56:
 1071 010c 00680140 		.word	1073833984
 1072 0110 00100240 		.word	1073876992
 1073 0114 00240240 		.word	1073882112
 1074 0118 00280240 		.word	1073883136
 1075 011c 00180240 		.word	1073879040
 1076 0120 00200240 		.word	1073881088
 1077              		.cfi_endproc
 1078              	.LFE146:
 1080              		.section	.text.HAL_LTDC_MspDeInit,"ax",%progbits
 1081              		.align	1
 1082              		.global	HAL_LTDC_MspDeInit
 1083              		.syntax unified
 1084              		.thumb
 1085              		.thumb_func
ARM GAS  C:\Users\jisu8\AppData\Local\Temp\cc20AWwL.s 			page 44


 1087              	HAL_LTDC_MspDeInit:
 1088              	.LVL51:
 1089              	.LFB147:
 366:Core/Src/stm32f7xx_hal_msp.c ****   if(hltdc->Instance==LTDC)
 1090              		.loc 1 366 1 is_stmt 1 view -0
 1091              		.cfi_startproc
 1092              		@ args = 0, pretend = 0, frame = 0
 1093              		@ frame_needed = 0, uses_anonymous_args = 0
 366:Core/Src/stm32f7xx_hal_msp.c ****   if(hltdc->Instance==LTDC)
 1094              		.loc 1 366 1 is_stmt 0 view .LVU323
 1095 0000 08B5     		push	{r3, lr}
 1096              	.LCFI19:
 1097              		.cfi_def_cfa_offset 8
 1098              		.cfi_offset 3, -8
 1099              		.cfi_offset 14, -4
 367:Core/Src/stm32f7xx_hal_msp.c ****   {
 1100              		.loc 1 367 3 is_stmt 1 view .LVU324
 367:Core/Src/stm32f7xx_hal_msp.c ****   {
 1101              		.loc 1 367 11 is_stmt 0 view .LVU325
 1102 0002 0268     		ldr	r2, [r0]
 367:Core/Src/stm32f7xx_hal_msp.c ****   {
 1103              		.loc 1 367 5 view .LVU326
 1104 0004 114B     		ldr	r3, .L62
 1105 0006 9A42     		cmp	r2, r3
 1106 0008 00D0     		beq	.L61
 1107              	.LVL52:
 1108              	.L58:
 426:Core/Src/stm32f7xx_hal_msp.c **** 
 1109              		.loc 1 426 1 view .LVU327
 1110 000a 08BD     		pop	{r3, pc}
 1111              	.LVL53:
 1112              	.L61:
 373:Core/Src/stm32f7xx_hal_msp.c **** 
 1113              		.loc 1 373 5 is_stmt 1 view .LVU328
 1114 000c 104A     		ldr	r2, .L62+4
 1115 000e 536C     		ldr	r3, [r2, #68]
 1116 0010 23F08063 		bic	r3, r3, #67108864
 1117 0014 5364     		str	r3, [r2, #68]
 405:Core/Src/stm32f7xx_hal_msp.c **** 
 1118              		.loc 1 405 5 view .LVU329
 1119 0016 1021     		movs	r1, #16
 1120 0018 0E48     		ldr	r0, .L62+8
 1121              	.LVL54:
 405:Core/Src/stm32f7xx_hal_msp.c **** 
 1122              		.loc 1 405 5 is_stmt 0 view .LVU330
 1123 001a FFF7FEFF 		bl	HAL_GPIO_DeInit
 1124              	.LVL55:
 407:Core/Src/stm32f7xx_hal_msp.c ****                           |LCD_G1_Pin|LCD_G3_Pin|LCD_G0_Pin|LCD_G2_Pin
 1125              		.loc 1 407 5 is_stmt 1 view .LVU331
 1126 001e 4EF6FF71 		movw	r1, #61439
 1127 0022 0D48     		ldr	r0, .L62+12
 1128 0024 FFF7FEFF 		bl	HAL_GPIO_DeInit
 1129              	.LVL56:
 412:Core/Src/stm32f7xx_hal_msp.c ****                           |LCD_G6_Pin|LCD_G7_Pin|LCD_G5_Pin);
 1130              		.loc 1 412 5 view .LVU332
 1131 0028 F721     		movs	r1, #247
 1132 002a 0C48     		ldr	r0, .L62+16
ARM GAS  C:\Users\jisu8\AppData\Local\Temp\cc20AWwL.s 			page 45


 1133 002c FFF7FEFF 		bl	HAL_GPIO_DeInit
 1134              	.LVL57:
 415:Core/Src/stm32f7xx_hal_msp.c **** 
 1135              		.loc 1 415 5 view .LVU333
 1136 0030 4FF48051 		mov	r1, #4096
 1137 0034 0A48     		ldr	r0, .L62+20
 1138 0036 FFF7FEFF 		bl	HAL_GPIO_DeInit
 1139              	.LVL58:
 417:Core/Src/stm32f7xx_hal_msp.c **** 
 1140              		.loc 1 417 5 view .LVU334
 1141 003a 4FF44641 		mov	r1, #50688
 1142 003e 0948     		ldr	r0, .L62+24
 1143 0040 FFF7FEFF 		bl	HAL_GPIO_DeInit
 1144              	.LVL59:
 420:Core/Src/stm32f7xx_hal_msp.c ****   /* USER CODE BEGIN LTDC_MspDeInit 1 */
 1145              		.loc 1 420 5 view .LVU335
 1146 0044 5820     		movs	r0, #88
 1147 0046 FFF7FEFF 		bl	HAL_NVIC_DisableIRQ
 1148              	.LVL60:
 426:Core/Src/stm32f7xx_hal_msp.c **** 
 1149              		.loc 1 426 1 is_stmt 0 view .LVU336
 1150 004a DEE7     		b	.L58
 1151              	.L63:
 1152              		.align	2
 1153              	.L62:
 1154 004c 00680140 		.word	1073833984
 1155 0050 00380240 		.word	1073887232
 1156 0054 00100240 		.word	1073876992
 1157 0058 00240240 		.word	1073882112
 1158 005c 00280240 		.word	1073883136
 1159 0060 00180240 		.word	1073879040
 1160 0064 00200240 		.word	1073881088
 1161              		.cfi_endproc
 1162              	.LFE147:
 1164              		.section	.text.HAL_QSPI_MspInit,"ax",%progbits
 1165              		.align	1
 1166              		.global	HAL_QSPI_MspInit
 1167              		.syntax unified
 1168              		.thumb
 1169              		.thumb_func
 1171              	HAL_QSPI_MspInit:
 1172              	.LVL61:
 1173              	.LFB148:
 435:Core/Src/stm32f7xx_hal_msp.c ****   GPIO_InitTypeDef GPIO_InitStruct = {0};
 1174              		.loc 1 435 1 is_stmt 1 view -0
 1175              		.cfi_startproc
 1176              		@ args = 0, pretend = 0, frame = 40
 1177              		@ frame_needed = 0, uses_anonymous_args = 0
 435:Core/Src/stm32f7xx_hal_msp.c ****   GPIO_InitTypeDef GPIO_InitStruct = {0};
 1178              		.loc 1 435 1 is_stmt 0 view .LVU338
 1179 0000 2DE9F043 		push	{r4, r5, r6, r7, r8, r9, lr}
 1180              	.LCFI20:
 1181              		.cfi_def_cfa_offset 28
 1182              		.cfi_offset 4, -28
 1183              		.cfi_offset 5, -24
 1184              		.cfi_offset 6, -20
 1185              		.cfi_offset 7, -16
ARM GAS  C:\Users\jisu8\AppData\Local\Temp\cc20AWwL.s 			page 46


 1186              		.cfi_offset 8, -12
 1187              		.cfi_offset 9, -8
 1188              		.cfi_offset 14, -4
 1189 0004 8BB0     		sub	sp, sp, #44
 1190              	.LCFI21:
 1191              		.cfi_def_cfa_offset 72
 436:Core/Src/stm32f7xx_hal_msp.c ****   if(hqspi->Instance==QUADSPI)
 1192              		.loc 1 436 3 is_stmt 1 view .LVU339
 436:Core/Src/stm32f7xx_hal_msp.c ****   if(hqspi->Instance==QUADSPI)
 1193              		.loc 1 436 20 is_stmt 0 view .LVU340
 1194 0006 0023     		movs	r3, #0
 1195 0008 0593     		str	r3, [sp, #20]
 1196 000a 0693     		str	r3, [sp, #24]
 1197 000c 0793     		str	r3, [sp, #28]
 1198 000e 0893     		str	r3, [sp, #32]
 1199 0010 0993     		str	r3, [sp, #36]
 437:Core/Src/stm32f7xx_hal_msp.c ****   {
 1200              		.loc 1 437 3 is_stmt 1 view .LVU341
 437:Core/Src/stm32f7xx_hal_msp.c ****   {
 1201              		.loc 1 437 11 is_stmt 0 view .LVU342
 1202 0012 0268     		ldr	r2, [r0]
 437:Core/Src/stm32f7xx_hal_msp.c ****   {
 1203              		.loc 1 437 5 view .LVU343
 1204 0014 2E4B     		ldr	r3, .L68
 1205 0016 9A42     		cmp	r2, r3
 1206 0018 02D0     		beq	.L67
 1207              	.LVL62:
 1208              	.L64:
 489:Core/Src/stm32f7xx_hal_msp.c **** 
 1209              		.loc 1 489 1 view .LVU344
 1210 001a 0BB0     		add	sp, sp, #44
 1211              	.LCFI22:
 1212              		.cfi_remember_state
 1213              		.cfi_def_cfa_offset 28
 1214              		@ sp needed
 1215 001c BDE8F083 		pop	{r4, r5, r6, r7, r8, r9, pc}
 1216              	.LVL63:
 1217              	.L67:
 1218              	.LCFI23:
 1219              		.cfi_restore_state
 443:Core/Src/stm32f7xx_hal_msp.c **** 
 1220              		.loc 1 443 5 is_stmt 1 view .LVU345
 1221              	.LBB16:
 443:Core/Src/stm32f7xx_hal_msp.c **** 
 1222              		.loc 1 443 5 view .LVU346
 443:Core/Src/stm32f7xx_hal_msp.c **** 
 1223              		.loc 1 443 5 view .LVU347
 1224 0020 2C4B     		ldr	r3, .L68+4
 1225 0022 9A6B     		ldr	r2, [r3, #56]
 1226 0024 42F00202 		orr	r2, r2, #2
 1227 0028 9A63     		str	r2, [r3, #56]
 443:Core/Src/stm32f7xx_hal_msp.c **** 
 1228              		.loc 1 443 5 view .LVU348
 1229 002a 9A6B     		ldr	r2, [r3, #56]
 1230 002c 02F00202 		and	r2, r2, #2
 1231 0030 0192     		str	r2, [sp, #4]
 443:Core/Src/stm32f7xx_hal_msp.c **** 
ARM GAS  C:\Users\jisu8\AppData\Local\Temp\cc20AWwL.s 			page 47


 1232              		.loc 1 443 5 view .LVU349
 1233 0032 019A     		ldr	r2, [sp, #4]
 1234              	.LBE16:
 443:Core/Src/stm32f7xx_hal_msp.c **** 
 1235              		.loc 1 443 5 view .LVU350
 445:Core/Src/stm32f7xx_hal_msp.c ****     __HAL_RCC_GPIOB_CLK_ENABLE();
 1236              		.loc 1 445 5 view .LVU351
 1237              	.LBB17:
 445:Core/Src/stm32f7xx_hal_msp.c ****     __HAL_RCC_GPIOB_CLK_ENABLE();
 1238              		.loc 1 445 5 view .LVU352
 445:Core/Src/stm32f7xx_hal_msp.c ****     __HAL_RCC_GPIOB_CLK_ENABLE();
 1239              		.loc 1 445 5 view .LVU353
 1240 0034 1A6B     		ldr	r2, [r3, #48]
 1241 0036 42F01002 		orr	r2, r2, #16
 1242 003a 1A63     		str	r2, [r3, #48]
 445:Core/Src/stm32f7xx_hal_msp.c ****     __HAL_RCC_GPIOB_CLK_ENABLE();
 1243              		.loc 1 445 5 view .LVU354
 1244 003c 1A6B     		ldr	r2, [r3, #48]
 1245 003e 02F01002 		and	r2, r2, #16
 1246 0042 0292     		str	r2, [sp, #8]
 445:Core/Src/stm32f7xx_hal_msp.c ****     __HAL_RCC_GPIOB_CLK_ENABLE();
 1247              		.loc 1 445 5 view .LVU355
 1248 0044 029A     		ldr	r2, [sp, #8]
 1249              	.LBE17:
 445:Core/Src/stm32f7xx_hal_msp.c ****     __HAL_RCC_GPIOB_CLK_ENABLE();
 1250              		.loc 1 445 5 view .LVU356
 446:Core/Src/stm32f7xx_hal_msp.c ****     __HAL_RCC_GPIOD_CLK_ENABLE();
 1251              		.loc 1 446 5 view .LVU357
 1252              	.LBB18:
 446:Core/Src/stm32f7xx_hal_msp.c ****     __HAL_RCC_GPIOD_CLK_ENABLE();
 1253              		.loc 1 446 5 view .LVU358
 446:Core/Src/stm32f7xx_hal_msp.c ****     __HAL_RCC_GPIOD_CLK_ENABLE();
 1254              		.loc 1 446 5 view .LVU359
 1255 0046 1A6B     		ldr	r2, [r3, #48]
 1256 0048 42F00202 		orr	r2, r2, #2
 1257 004c 1A63     		str	r2, [r3, #48]
 446:Core/Src/stm32f7xx_hal_msp.c ****     __HAL_RCC_GPIOD_CLK_ENABLE();
 1258              		.loc 1 446 5 view .LVU360
 1259 004e 1A6B     		ldr	r2, [r3, #48]
 1260 0050 02F00202 		and	r2, r2, #2
 1261 0054 0392     		str	r2, [sp, #12]
 446:Core/Src/stm32f7xx_hal_msp.c ****     __HAL_RCC_GPIOD_CLK_ENABLE();
 1262              		.loc 1 446 5 view .LVU361
 1263 0056 039A     		ldr	r2, [sp, #12]
 1264              	.LBE18:
 446:Core/Src/stm32f7xx_hal_msp.c ****     __HAL_RCC_GPIOD_CLK_ENABLE();
 1265              		.loc 1 446 5 view .LVU362
 447:Core/Src/stm32f7xx_hal_msp.c ****     /**QUADSPI GPIO Configuration
 1266              		.loc 1 447 5 view .LVU363
 1267              	.LBB19:
 447:Core/Src/stm32f7xx_hal_msp.c ****     /**QUADSPI GPIO Configuration
 1268              		.loc 1 447 5 view .LVU364
 447:Core/Src/stm32f7xx_hal_msp.c ****     /**QUADSPI GPIO Configuration
 1269              		.loc 1 447 5 view .LVU365
 1270 0058 1A6B     		ldr	r2, [r3, #48]
 1271 005a 42F00802 		orr	r2, r2, #8
 1272 005e 1A63     		str	r2, [r3, #48]
ARM GAS  C:\Users\jisu8\AppData\Local\Temp\cc20AWwL.s 			page 48


 447:Core/Src/stm32f7xx_hal_msp.c ****     /**QUADSPI GPIO Configuration
 1273              		.loc 1 447 5 view .LVU366
 1274 0060 1B6B     		ldr	r3, [r3, #48]
 1275 0062 03F00803 		and	r3, r3, #8
 1276 0066 0493     		str	r3, [sp, #16]
 447:Core/Src/stm32f7xx_hal_msp.c ****     /**QUADSPI GPIO Configuration
 1277              		.loc 1 447 5 view .LVU367
 1278 0068 049B     		ldr	r3, [sp, #16]
 1279              	.LBE19:
 447:Core/Src/stm32f7xx_hal_msp.c ****     /**QUADSPI GPIO Configuration
 1280              		.loc 1 447 5 view .LVU368
 456:Core/Src/stm32f7xx_hal_msp.c ****     GPIO_InitStruct.Mode = GPIO_MODE_AF_PP;
 1281              		.loc 1 456 5 view .LVU369
 456:Core/Src/stm32f7xx_hal_msp.c ****     GPIO_InitStruct.Mode = GPIO_MODE_AF_PP;
 1282              		.loc 1 456 25 is_stmt 0 view .LVU370
 1283 006a 4FF00409 		mov	r9, #4
 1284 006e CDF81490 		str	r9, [sp, #20]
 457:Core/Src/stm32f7xx_hal_msp.c ****     GPIO_InitStruct.Pull = GPIO_NOPULL;
 1285              		.loc 1 457 5 is_stmt 1 view .LVU371
 457:Core/Src/stm32f7xx_hal_msp.c ****     GPIO_InitStruct.Pull = GPIO_NOPULL;
 1286              		.loc 1 457 26 is_stmt 0 view .LVU372
 1287 0072 0225     		movs	r5, #2
 1288 0074 0695     		str	r5, [sp, #24]
 458:Core/Src/stm32f7xx_hal_msp.c ****     GPIO_InitStruct.Speed = GPIO_SPEED_FREQ_VERY_HIGH;
 1289              		.loc 1 458 5 is_stmt 1 view .LVU373
 459:Core/Src/stm32f7xx_hal_msp.c ****     GPIO_InitStruct.Alternate = GPIO_AF9_QUADSPI;
 1290              		.loc 1 459 5 view .LVU374
 459:Core/Src/stm32f7xx_hal_msp.c ****     GPIO_InitStruct.Alternate = GPIO_AF9_QUADSPI;
 1291              		.loc 1 459 27 is_stmt 0 view .LVU375
 1292 0076 0324     		movs	r4, #3
 1293 0078 0894     		str	r4, [sp, #32]
 460:Core/Src/stm32f7xx_hal_msp.c ****     HAL_GPIO_Init(QSPI_D2_GPIO_Port, &GPIO_InitStruct);
 1294              		.loc 1 460 5 is_stmt 1 view .LVU376
 460:Core/Src/stm32f7xx_hal_msp.c ****     HAL_GPIO_Init(QSPI_D2_GPIO_Port, &GPIO_InitStruct);
 1295              		.loc 1 460 31 is_stmt 0 view .LVU377
 1296 007a 0926     		movs	r6, #9
 1297 007c 0996     		str	r6, [sp, #36]
 461:Core/Src/stm32f7xx_hal_msp.c **** 
 1298              		.loc 1 461 5 is_stmt 1 view .LVU378
 1299 007e 05A9     		add	r1, sp, #20
 1300 0080 1548     		ldr	r0, .L68+8
 1301              	.LVL64:
 461:Core/Src/stm32f7xx_hal_msp.c **** 
 1302              		.loc 1 461 5 is_stmt 0 view .LVU379
 1303 0082 FFF7FEFF 		bl	HAL_GPIO_Init
 1304              	.LVL65:
 463:Core/Src/stm32f7xx_hal_msp.c ****     GPIO_InitStruct.Mode = GPIO_MODE_AF_PP;
 1305              		.loc 1 463 5 is_stmt 1 view .LVU380
 463:Core/Src/stm32f7xx_hal_msp.c ****     GPIO_InitStruct.Mode = GPIO_MODE_AF_PP;
 1306              		.loc 1 463 25 is_stmt 0 view .LVU381
 1307 0086 4023     		movs	r3, #64
 1308 0088 0593     		str	r3, [sp, #20]
 464:Core/Src/stm32f7xx_hal_msp.c ****     GPIO_InitStruct.Pull = GPIO_NOPULL;
 1309              		.loc 1 464 5 is_stmt 1 view .LVU382
 464:Core/Src/stm32f7xx_hal_msp.c ****     GPIO_InitStruct.Pull = GPIO_NOPULL;
 1310              		.loc 1 464 26 is_stmt 0 view .LVU383
 1311 008a 0695     		str	r5, [sp, #24]
ARM GAS  C:\Users\jisu8\AppData\Local\Temp\cc20AWwL.s 			page 49


 465:Core/Src/stm32f7xx_hal_msp.c ****     GPIO_InitStruct.Speed = GPIO_SPEED_FREQ_VERY_HIGH;
 1312              		.loc 1 465 5 is_stmt 1 view .LVU384
 465:Core/Src/stm32f7xx_hal_msp.c ****     GPIO_InitStruct.Speed = GPIO_SPEED_FREQ_VERY_HIGH;
 1313              		.loc 1 465 26 is_stmt 0 view .LVU385
 1314 008c 0027     		movs	r7, #0
 1315 008e 0797     		str	r7, [sp, #28]
 466:Core/Src/stm32f7xx_hal_msp.c ****     GPIO_InitStruct.Alternate = GPIO_AF10_QUADSPI;
 1316              		.loc 1 466 5 is_stmt 1 view .LVU386
 466:Core/Src/stm32f7xx_hal_msp.c ****     GPIO_InitStruct.Alternate = GPIO_AF10_QUADSPI;
 1317              		.loc 1 466 27 is_stmt 0 view .LVU387
 1318 0090 0894     		str	r4, [sp, #32]
 467:Core/Src/stm32f7xx_hal_msp.c ****     HAL_GPIO_Init(QSPI_NCS_GPIO_Port, &GPIO_InitStruct);
 1319              		.loc 1 467 5 is_stmt 1 view .LVU388
 467:Core/Src/stm32f7xx_hal_msp.c ****     HAL_GPIO_Init(QSPI_NCS_GPIO_Port, &GPIO_InitStruct);
 1320              		.loc 1 467 31 is_stmt 0 view .LVU389
 1321 0092 0A23     		movs	r3, #10
 1322 0094 0993     		str	r3, [sp, #36]
 468:Core/Src/stm32f7xx_hal_msp.c **** 
 1323              		.loc 1 468 5 is_stmt 1 view .LVU390
 1324 0096 DFF84880 		ldr	r8, .L68+16
 1325 009a 05A9     		add	r1, sp, #20
 1326 009c 4046     		mov	r0, r8
 1327 009e FFF7FEFF 		bl	HAL_GPIO_Init
 1328              	.LVL66:
 470:Core/Src/stm32f7xx_hal_msp.c ****     GPIO_InitStruct.Mode = GPIO_MODE_AF_PP;
 1329              		.loc 1 470 5 view .LVU391
 470:Core/Src/stm32f7xx_hal_msp.c ****     GPIO_InitStruct.Mode = GPIO_MODE_AF_PP;
 1330              		.loc 1 470 25 is_stmt 0 view .LVU392
 1331 00a2 CDF81490 		str	r9, [sp, #20]
 471:Core/Src/stm32f7xx_hal_msp.c ****     GPIO_InitStruct.Pull = GPIO_NOPULL;
 1332              		.loc 1 471 5 is_stmt 1 view .LVU393
 471:Core/Src/stm32f7xx_hal_msp.c ****     GPIO_InitStruct.Pull = GPIO_NOPULL;
 1333              		.loc 1 471 26 is_stmt 0 view .LVU394
 1334 00a6 0695     		str	r5, [sp, #24]
 472:Core/Src/stm32f7xx_hal_msp.c ****     GPIO_InitStruct.Speed = GPIO_SPEED_FREQ_VERY_HIGH;
 1335              		.loc 1 472 5 is_stmt 1 view .LVU395
 472:Core/Src/stm32f7xx_hal_msp.c ****     GPIO_InitStruct.Speed = GPIO_SPEED_FREQ_VERY_HIGH;
 1336              		.loc 1 472 26 is_stmt 0 view .LVU396
 1337 00a8 0797     		str	r7, [sp, #28]
 473:Core/Src/stm32f7xx_hal_msp.c ****     GPIO_InitStruct.Alternate = GPIO_AF9_QUADSPI;
 1338              		.loc 1 473 5 is_stmt 1 view .LVU397
 473:Core/Src/stm32f7xx_hal_msp.c ****     GPIO_InitStruct.Alternate = GPIO_AF9_QUADSPI;
 1339              		.loc 1 473 27 is_stmt 0 view .LVU398
 1340 00aa 0894     		str	r4, [sp, #32]
 474:Core/Src/stm32f7xx_hal_msp.c ****     HAL_GPIO_Init(GPIOB, &GPIO_InitStruct);
 1341              		.loc 1 474 5 is_stmt 1 view .LVU399
 474:Core/Src/stm32f7xx_hal_msp.c ****     HAL_GPIO_Init(GPIOB, &GPIO_InitStruct);
 1342              		.loc 1 474 31 is_stmt 0 view .LVU400
 1343 00ac 0996     		str	r6, [sp, #36]
 475:Core/Src/stm32f7xx_hal_msp.c **** 
 1344              		.loc 1 475 5 is_stmt 1 view .LVU401
 1345 00ae 05A9     		add	r1, sp, #20
 1346 00b0 4046     		mov	r0, r8
 1347 00b2 FFF7FEFF 		bl	HAL_GPIO_Init
 1348              	.LVL67:
 477:Core/Src/stm32f7xx_hal_msp.c ****     GPIO_InitStruct.Mode = GPIO_MODE_AF_PP;
 1349              		.loc 1 477 5 view .LVU402
ARM GAS  C:\Users\jisu8\AppData\Local\Temp\cc20AWwL.s 			page 50


 477:Core/Src/stm32f7xx_hal_msp.c ****     GPIO_InitStruct.Mode = GPIO_MODE_AF_PP;
 1350              		.loc 1 477 25 is_stmt 0 view .LVU403
 1351 00b6 4FF46053 		mov	r3, #14336
 1352 00ba 0593     		str	r3, [sp, #20]
 478:Core/Src/stm32f7xx_hal_msp.c ****     GPIO_InitStruct.Pull = GPIO_NOPULL;
 1353              		.loc 1 478 5 is_stmt 1 view .LVU404
 478:Core/Src/stm32f7xx_hal_msp.c ****     GPIO_InitStruct.Pull = GPIO_NOPULL;
 1354              		.loc 1 478 26 is_stmt 0 view .LVU405
 1355 00bc 0695     		str	r5, [sp, #24]
 479:Core/Src/stm32f7xx_hal_msp.c ****     GPIO_InitStruct.Speed = GPIO_SPEED_FREQ_VERY_HIGH;
 1356              		.loc 1 479 5 is_stmt 1 view .LVU406
 479:Core/Src/stm32f7xx_hal_msp.c ****     GPIO_InitStruct.Speed = GPIO_SPEED_FREQ_VERY_HIGH;
 1357              		.loc 1 479 26 is_stmt 0 view .LVU407
 1358 00be 0797     		str	r7, [sp, #28]
 480:Core/Src/stm32f7xx_hal_msp.c ****     GPIO_InitStruct.Alternate = GPIO_AF9_QUADSPI;
 1359              		.loc 1 480 5 is_stmt 1 view .LVU408
 480:Core/Src/stm32f7xx_hal_msp.c ****     GPIO_InitStruct.Alternate = GPIO_AF9_QUADSPI;
 1360              		.loc 1 480 27 is_stmt 0 view .LVU409
 1361 00c0 0894     		str	r4, [sp, #32]
 481:Core/Src/stm32f7xx_hal_msp.c ****     HAL_GPIO_Init(GPIOD, &GPIO_InitStruct);
 1362              		.loc 1 481 5 is_stmt 1 view .LVU410
 481:Core/Src/stm32f7xx_hal_msp.c ****     HAL_GPIO_Init(GPIOD, &GPIO_InitStruct);
 1363              		.loc 1 481 31 is_stmt 0 view .LVU411
 1364 00c2 0996     		str	r6, [sp, #36]
 482:Core/Src/stm32f7xx_hal_msp.c **** 
 1365              		.loc 1 482 5 is_stmt 1 view .LVU412
 1366 00c4 05A9     		add	r1, sp, #20
 1367 00c6 0548     		ldr	r0, .L68+12
 1368 00c8 FFF7FEFF 		bl	HAL_GPIO_Init
 1369              	.LVL68:
 489:Core/Src/stm32f7xx_hal_msp.c **** 
 1370              		.loc 1 489 1 is_stmt 0 view .LVU413
 1371 00cc A5E7     		b	.L64
 1372              	.L69:
 1373 00ce 00BF     		.align	2
 1374              	.L68:
 1375 00d0 001000A0 		.word	-1610608640
 1376 00d4 00380240 		.word	1073887232
 1377 00d8 00100240 		.word	1073876992
 1378 00dc 000C0240 		.word	1073875968
 1379 00e0 00040240 		.word	1073873920
 1380              		.cfi_endproc
 1381              	.LFE148:
 1383              		.section	.text.HAL_QSPI_MspDeInit,"ax",%progbits
 1384              		.align	1
 1385              		.global	HAL_QSPI_MspDeInit
 1386              		.syntax unified
 1387              		.thumb
 1388              		.thumb_func
 1390              	HAL_QSPI_MspDeInit:
 1391              	.LVL69:
 1392              	.LFB149:
 498:Core/Src/stm32f7xx_hal_msp.c ****   if(hqspi->Instance==QUADSPI)
 1393              		.loc 1 498 1 is_stmt 1 view -0
 1394              		.cfi_startproc
 1395              		@ args = 0, pretend = 0, frame = 0
 1396              		@ frame_needed = 0, uses_anonymous_args = 0
ARM GAS  C:\Users\jisu8\AppData\Local\Temp\cc20AWwL.s 			page 51


 498:Core/Src/stm32f7xx_hal_msp.c ****   if(hqspi->Instance==QUADSPI)
 1397              		.loc 1 498 1 is_stmt 0 view .LVU415
 1398 0000 08B5     		push	{r3, lr}
 1399              	.LCFI24:
 1400              		.cfi_def_cfa_offset 8
 1401              		.cfi_offset 3, -8
 1402              		.cfi_offset 14, -4
 499:Core/Src/stm32f7xx_hal_msp.c ****   {
 1403              		.loc 1 499 3 is_stmt 1 view .LVU416
 499:Core/Src/stm32f7xx_hal_msp.c ****   {
 1404              		.loc 1 499 11 is_stmt 0 view .LVU417
 1405 0002 0268     		ldr	r2, [r0]
 499:Core/Src/stm32f7xx_hal_msp.c ****   {
 1406              		.loc 1 499 5 view .LVU418
 1407 0004 0B4B     		ldr	r3, .L74
 1408 0006 9A42     		cmp	r2, r3
 1409 0008 00D0     		beq	.L73
 1410              	.LVL70:
 1411              	.L70:
 526:Core/Src/stm32f7xx_hal_msp.c **** 
 1412              		.loc 1 526 1 view .LVU419
 1413 000a 08BD     		pop	{r3, pc}
 1414              	.LVL71:
 1415              	.L73:
 505:Core/Src/stm32f7xx_hal_msp.c **** 
 1416              		.loc 1 505 5 is_stmt 1 view .LVU420
 1417 000c 0A4A     		ldr	r2, .L74+4
 1418 000e 936B     		ldr	r3, [r2, #56]
 1419 0010 23F00203 		bic	r3, r3, #2
 1420 0014 9363     		str	r3, [r2, #56]
 515:Core/Src/stm32f7xx_hal_msp.c **** 
 1421              		.loc 1 515 5 view .LVU421
 1422 0016 0421     		movs	r1, #4
 1423 0018 0848     		ldr	r0, .L74+8
 1424              	.LVL72:
 515:Core/Src/stm32f7xx_hal_msp.c **** 
 1425              		.loc 1 515 5 is_stmt 0 view .LVU422
 1426 001a FFF7FEFF 		bl	HAL_GPIO_DeInit
 1427              	.LVL73:
 517:Core/Src/stm32f7xx_hal_msp.c **** 
 1428              		.loc 1 517 5 is_stmt 1 view .LVU423
 1429 001e 4421     		movs	r1, #68
 1430 0020 0748     		ldr	r0, .L74+12
 1431 0022 FFF7FEFF 		bl	HAL_GPIO_DeInit
 1432              	.LVL74:
 519:Core/Src/stm32f7xx_hal_msp.c **** 
 1433              		.loc 1 519 5 view .LVU424
 1434 0026 4FF46051 		mov	r1, #14336
 1435 002a 0648     		ldr	r0, .L74+16
 1436 002c FFF7FEFF 		bl	HAL_GPIO_DeInit
 1437              	.LVL75:
 526:Core/Src/stm32f7xx_hal_msp.c **** 
 1438              		.loc 1 526 1 is_stmt 0 view .LVU425
 1439 0030 EBE7     		b	.L70
 1440              	.L75:
 1441 0032 00BF     		.align	2
 1442              	.L74:
ARM GAS  C:\Users\jisu8\AppData\Local\Temp\cc20AWwL.s 			page 52


 1443 0034 001000A0 		.word	-1610608640
 1444 0038 00380240 		.word	1073887232
 1445 003c 00100240 		.word	1073876992
 1446 0040 00040240 		.word	1073873920
 1447 0044 000C0240 		.word	1073875968
 1448              		.cfi_endproc
 1449              	.LFE149:
 1451              		.section	.text.HAL_SD_MspInit,"ax",%progbits
 1452              		.align	1
 1453              		.global	HAL_SD_MspInit
 1454              		.syntax unified
 1455              		.thumb
 1456              		.thumb_func
 1458              	HAL_SD_MspInit:
 1459              	.LVL76:
 1460              	.LFB150:
 535:Core/Src/stm32f7xx_hal_msp.c ****   GPIO_InitTypeDef GPIO_InitStruct = {0};
 1461              		.loc 1 535 1 is_stmt 1 view -0
 1462              		.cfi_startproc
 1463              		@ args = 0, pretend = 0, frame = 32
 1464              		@ frame_needed = 0, uses_anonymous_args = 0
 535:Core/Src/stm32f7xx_hal_msp.c ****   GPIO_InitTypeDef GPIO_InitStruct = {0};
 1465              		.loc 1 535 1 is_stmt 0 view .LVU427
 1466 0000 2DE9F041 		push	{r4, r5, r6, r7, r8, lr}
 1467              	.LCFI25:
 1468              		.cfi_def_cfa_offset 24
 1469              		.cfi_offset 4, -24
 1470              		.cfi_offset 5, -20
 1471              		.cfi_offset 6, -16
 1472              		.cfi_offset 7, -12
 1473              		.cfi_offset 8, -8
 1474              		.cfi_offset 14, -4
 1475 0004 88B0     		sub	sp, sp, #32
 1476              	.LCFI26:
 1477              		.cfi_def_cfa_offset 56
 536:Core/Src/stm32f7xx_hal_msp.c ****   if(hsd->Instance==SDMMC1)
 1478              		.loc 1 536 3 is_stmt 1 view .LVU428
 536:Core/Src/stm32f7xx_hal_msp.c ****   if(hsd->Instance==SDMMC1)
 1479              		.loc 1 536 20 is_stmt 0 view .LVU429
 1480 0006 0023     		movs	r3, #0
 1481 0008 0393     		str	r3, [sp, #12]
 1482 000a 0493     		str	r3, [sp, #16]
 1483 000c 0593     		str	r3, [sp, #20]
 1484 000e 0693     		str	r3, [sp, #24]
 1485 0010 0793     		str	r3, [sp, #28]
 537:Core/Src/stm32f7xx_hal_msp.c ****   {
 1486              		.loc 1 537 3 is_stmt 1 view .LVU430
 537:Core/Src/stm32f7xx_hal_msp.c ****   {
 1487              		.loc 1 537 9 is_stmt 0 view .LVU431
 1488 0012 0268     		ldr	r2, [r0]
 537:Core/Src/stm32f7xx_hal_msp.c ****   {
 1489              		.loc 1 537 5 view .LVU432
 1490 0014 4E4B     		ldr	r3, .L84
 1491 0016 9A42     		cmp	r2, r3
 1492 0018 02D0     		beq	.L81
 1493              	.LVL77:
 1494              	.L76:
ARM GAS  C:\Users\jisu8\AppData\Local\Temp\cc20AWwL.s 			page 53


 621:Core/Src/stm32f7xx_hal_msp.c **** 
 1495              		.loc 1 621 1 view .LVU433
 1496 001a 08B0     		add	sp, sp, #32
 1497              	.LCFI27:
 1498              		.cfi_remember_state
 1499              		.cfi_def_cfa_offset 24
 1500              		@ sp needed
 1501 001c BDE8F081 		pop	{r4, r5, r6, r7, r8, pc}
 1502              	.LVL78:
 1503              	.L81:
 1504              	.LCFI28:
 1505              		.cfi_restore_state
 621:Core/Src/stm32f7xx_hal_msp.c **** 
 1506              		.loc 1 621 1 view .LVU434
 1507 0020 0446     		mov	r4, r0
 543:Core/Src/stm32f7xx_hal_msp.c **** 
 1508              		.loc 1 543 5 is_stmt 1 view .LVU435
 1509              	.LBB20:
 543:Core/Src/stm32f7xx_hal_msp.c **** 
 1510              		.loc 1 543 5 view .LVU436
 543:Core/Src/stm32f7xx_hal_msp.c **** 
 1511              		.loc 1 543 5 view .LVU437
 1512 0022 03F58633 		add	r3, r3, #68608
 1513 0026 5A6C     		ldr	r2, [r3, #68]
 1514 0028 42F40062 		orr	r2, r2, #2048
 1515 002c 5A64     		str	r2, [r3, #68]
 543:Core/Src/stm32f7xx_hal_msp.c **** 
 1516              		.loc 1 543 5 view .LVU438
 1517 002e 5A6C     		ldr	r2, [r3, #68]
 1518 0030 02F40062 		and	r2, r2, #2048
 1519 0034 0092     		str	r2, [sp]
 543:Core/Src/stm32f7xx_hal_msp.c **** 
 1520              		.loc 1 543 5 view .LVU439
 1521 0036 009A     		ldr	r2, [sp]
 1522              	.LBE20:
 543:Core/Src/stm32f7xx_hal_msp.c **** 
 1523              		.loc 1 543 5 view .LVU440
 545:Core/Src/stm32f7xx_hal_msp.c ****     __HAL_RCC_GPIOD_CLK_ENABLE();
 1524              		.loc 1 545 5 view .LVU441
 1525              	.LBB21:
 545:Core/Src/stm32f7xx_hal_msp.c ****     __HAL_RCC_GPIOD_CLK_ENABLE();
 1526              		.loc 1 545 5 view .LVU442
 545:Core/Src/stm32f7xx_hal_msp.c ****     __HAL_RCC_GPIOD_CLK_ENABLE();
 1527              		.loc 1 545 5 view .LVU443
 1528 0038 1A6B     		ldr	r2, [r3, #48]
 1529 003a 42F00402 		orr	r2, r2, #4
 1530 003e 1A63     		str	r2, [r3, #48]
 545:Core/Src/stm32f7xx_hal_msp.c ****     __HAL_RCC_GPIOD_CLK_ENABLE();
 1531              		.loc 1 545 5 view .LVU444
 1532 0040 1A6B     		ldr	r2, [r3, #48]
 1533 0042 02F00402 		and	r2, r2, #4
 1534 0046 0192     		str	r2, [sp, #4]
 545:Core/Src/stm32f7xx_hal_msp.c ****     __HAL_RCC_GPIOD_CLK_ENABLE();
 1535              		.loc 1 545 5 view .LVU445
 1536 0048 019A     		ldr	r2, [sp, #4]
 1537              	.LBE21:
 545:Core/Src/stm32f7xx_hal_msp.c ****     __HAL_RCC_GPIOD_CLK_ENABLE();
ARM GAS  C:\Users\jisu8\AppData\Local\Temp\cc20AWwL.s 			page 54


 1538              		.loc 1 545 5 view .LVU446
 546:Core/Src/stm32f7xx_hal_msp.c ****     /**SDMMC1 GPIO Configuration
 1539              		.loc 1 546 5 view .LVU447
 1540              	.LBB22:
 546:Core/Src/stm32f7xx_hal_msp.c ****     /**SDMMC1 GPIO Configuration
 1541              		.loc 1 546 5 view .LVU448
 546:Core/Src/stm32f7xx_hal_msp.c ****     /**SDMMC1 GPIO Configuration
 1542              		.loc 1 546 5 view .LVU449
 1543 004a 1A6B     		ldr	r2, [r3, #48]
 1544 004c 42F00802 		orr	r2, r2, #8
 1545 0050 1A63     		str	r2, [r3, #48]
 546:Core/Src/stm32f7xx_hal_msp.c ****     /**SDMMC1 GPIO Configuration
 1546              		.loc 1 546 5 view .LVU450
 1547 0052 1B6B     		ldr	r3, [r3, #48]
 1548 0054 03F00803 		and	r3, r3, #8
 1549 0058 0293     		str	r3, [sp, #8]
 546:Core/Src/stm32f7xx_hal_msp.c ****     /**SDMMC1 GPIO Configuration
 1550              		.loc 1 546 5 view .LVU451
 1551 005a 029B     		ldr	r3, [sp, #8]
 1552              	.LBE22:
 546:Core/Src/stm32f7xx_hal_msp.c ****     /**SDMMC1 GPIO Configuration
 1553              		.loc 1 546 5 view .LVU452
 555:Core/Src/stm32f7xx_hal_msp.c ****                           |GPIO_PIN_8;
 1554              		.loc 1 555 5 view .LVU453
 555:Core/Src/stm32f7xx_hal_msp.c ****                           |GPIO_PIN_8;
 1555              		.loc 1 555 25 is_stmt 0 view .LVU454
 1556 005c 4FF4F853 		mov	r3, #7936
 1557 0060 0393     		str	r3, [sp, #12]
 557:Core/Src/stm32f7xx_hal_msp.c ****     GPIO_InitStruct.Pull = GPIO_NOPULL;
 1558              		.loc 1 557 5 is_stmt 1 view .LVU455
 557:Core/Src/stm32f7xx_hal_msp.c ****     GPIO_InitStruct.Pull = GPIO_NOPULL;
 1559              		.loc 1 557 26 is_stmt 0 view .LVU456
 1560 0062 0226     		movs	r6, #2
 1561 0064 0496     		str	r6, [sp, #16]
 558:Core/Src/stm32f7xx_hal_msp.c ****     GPIO_InitStruct.Speed = GPIO_SPEED_FREQ_VERY_HIGH;
 1562              		.loc 1 558 5 is_stmt 1 view .LVU457
 559:Core/Src/stm32f7xx_hal_msp.c ****     GPIO_InitStruct.Alternate = GPIO_AF12_SDMMC1;
 1563              		.loc 1 559 5 view .LVU458
 559:Core/Src/stm32f7xx_hal_msp.c ****     GPIO_InitStruct.Alternate = GPIO_AF12_SDMMC1;
 1564              		.loc 1 559 27 is_stmt 0 view .LVU459
 1565 0066 0325     		movs	r5, #3
 1566 0068 0695     		str	r5, [sp, #24]
 560:Core/Src/stm32f7xx_hal_msp.c ****     HAL_GPIO_Init(GPIOC, &GPIO_InitStruct);
 1567              		.loc 1 560 5 is_stmt 1 view .LVU460
 560:Core/Src/stm32f7xx_hal_msp.c ****     HAL_GPIO_Init(GPIOC, &GPIO_InitStruct);
 1568              		.loc 1 560 31 is_stmt 0 view .LVU461
 1569 006a 4FF00C08 		mov	r8, #12
 1570 006e CDF81C80 		str	r8, [sp, #28]
 561:Core/Src/stm32f7xx_hal_msp.c **** 
 1571              		.loc 1 561 5 is_stmt 1 view .LVU462
 1572 0072 0DEB0801 		add	r1, sp, r8
 1573 0076 3748     		ldr	r0, .L84+4
 1574              	.LVL79:
 561:Core/Src/stm32f7xx_hal_msp.c **** 
 1575              		.loc 1 561 5 is_stmt 0 view .LVU463
 1576 0078 FFF7FEFF 		bl	HAL_GPIO_Init
 1577              	.LVL80:
ARM GAS  C:\Users\jisu8\AppData\Local\Temp\cc20AWwL.s 			page 55


 563:Core/Src/stm32f7xx_hal_msp.c ****     GPIO_InitStruct.Mode = GPIO_MODE_AF_PP;
 1578              		.loc 1 563 5 is_stmt 1 view .LVU464
 563:Core/Src/stm32f7xx_hal_msp.c ****     GPIO_InitStruct.Mode = GPIO_MODE_AF_PP;
 1579              		.loc 1 563 25 is_stmt 0 view .LVU465
 1580 007c 0427     		movs	r7, #4
 1581 007e 0397     		str	r7, [sp, #12]
 564:Core/Src/stm32f7xx_hal_msp.c ****     GPIO_InitStruct.Pull = GPIO_NOPULL;
 1582              		.loc 1 564 5 is_stmt 1 view .LVU466
 564:Core/Src/stm32f7xx_hal_msp.c ****     GPIO_InitStruct.Pull = GPIO_NOPULL;
 1583              		.loc 1 564 26 is_stmt 0 view .LVU467
 1584 0080 0496     		str	r6, [sp, #16]
 565:Core/Src/stm32f7xx_hal_msp.c ****     GPIO_InitStruct.Speed = GPIO_SPEED_FREQ_VERY_HIGH;
 1585              		.loc 1 565 5 is_stmt 1 view .LVU468
 565:Core/Src/stm32f7xx_hal_msp.c ****     GPIO_InitStruct.Speed = GPIO_SPEED_FREQ_VERY_HIGH;
 1586              		.loc 1 565 26 is_stmt 0 view .LVU469
 1587 0082 0026     		movs	r6, #0
 1588 0084 0596     		str	r6, [sp, #20]
 566:Core/Src/stm32f7xx_hal_msp.c ****     GPIO_InitStruct.Alternate = GPIO_AF12_SDMMC1;
 1589              		.loc 1 566 5 is_stmt 1 view .LVU470
 566:Core/Src/stm32f7xx_hal_msp.c ****     GPIO_InitStruct.Alternate = GPIO_AF12_SDMMC1;
 1590              		.loc 1 566 27 is_stmt 0 view .LVU471
 1591 0086 0695     		str	r5, [sp, #24]
 567:Core/Src/stm32f7xx_hal_msp.c ****     HAL_GPIO_Init(SDMMC_CMD_GPIO_Port, &GPIO_InitStruct);
 1592              		.loc 1 567 5 is_stmt 1 view .LVU472
 567:Core/Src/stm32f7xx_hal_msp.c ****     HAL_GPIO_Init(SDMMC_CMD_GPIO_Port, &GPIO_InitStruct);
 1593              		.loc 1 567 31 is_stmt 0 view .LVU473
 1594 0088 CDF81C80 		str	r8, [sp, #28]
 568:Core/Src/stm32f7xx_hal_msp.c **** 
 1595              		.loc 1 568 5 is_stmt 1 view .LVU474
 1596 008c 0DEB0801 		add	r1, sp, r8
 1597 0090 3148     		ldr	r0, .L84+8
 1598 0092 FFF7FEFF 		bl	HAL_GPIO_Init
 1599              	.LVL81:
 572:Core/Src/stm32f7xx_hal_msp.c ****     hdma_sdmmc1_rx.Init.Channel = DMA_CHANNEL_4;
 1600              		.loc 1 572 5 view .LVU475
 572:Core/Src/stm32f7xx_hal_msp.c ****     hdma_sdmmc1_rx.Init.Channel = DMA_CHANNEL_4;
 1601              		.loc 1 572 29 is_stmt 0 view .LVU476
 1602 0096 3148     		ldr	r0, .L84+12
 1603 0098 314B     		ldr	r3, .L84+16
 1604 009a 0360     		str	r3, [r0]
 573:Core/Src/stm32f7xx_hal_msp.c ****     hdma_sdmmc1_rx.Init.Direction = DMA_PERIPH_TO_MEMORY;
 1605              		.loc 1 573 5 is_stmt 1 view .LVU477
 573:Core/Src/stm32f7xx_hal_msp.c ****     hdma_sdmmc1_rx.Init.Direction = DMA_PERIPH_TO_MEMORY;
 1606              		.loc 1 573 33 is_stmt 0 view .LVU478
 1607 009c 4FF00063 		mov	r3, #134217728
 1608 00a0 4360     		str	r3, [r0, #4]
 574:Core/Src/stm32f7xx_hal_msp.c ****     hdma_sdmmc1_rx.Init.PeriphInc = DMA_PINC_DISABLE;
 1609              		.loc 1 574 5 is_stmt 1 view .LVU479
 574:Core/Src/stm32f7xx_hal_msp.c ****     hdma_sdmmc1_rx.Init.PeriphInc = DMA_PINC_DISABLE;
 1610              		.loc 1 574 35 is_stmt 0 view .LVU480
 1611 00a2 8660     		str	r6, [r0, #8]
 575:Core/Src/stm32f7xx_hal_msp.c ****     hdma_sdmmc1_rx.Init.MemInc = DMA_MINC_ENABLE;
 1612              		.loc 1 575 5 is_stmt 1 view .LVU481
 575:Core/Src/stm32f7xx_hal_msp.c ****     hdma_sdmmc1_rx.Init.MemInc = DMA_MINC_ENABLE;
 1613              		.loc 1 575 35 is_stmt 0 view .LVU482
 1614 00a4 C660     		str	r6, [r0, #12]
 576:Core/Src/stm32f7xx_hal_msp.c ****     hdma_sdmmc1_rx.Init.PeriphDataAlignment = DMA_PDATAALIGN_WORD;
ARM GAS  C:\Users\jisu8\AppData\Local\Temp\cc20AWwL.s 			page 56


 1615              		.loc 1 576 5 is_stmt 1 view .LVU483
 576:Core/Src/stm32f7xx_hal_msp.c ****     hdma_sdmmc1_rx.Init.PeriphDataAlignment = DMA_PDATAALIGN_WORD;
 1616              		.loc 1 576 32 is_stmt 0 view .LVU484
 1617 00a6 4FF48063 		mov	r3, #1024
 1618 00aa 0361     		str	r3, [r0, #16]
 577:Core/Src/stm32f7xx_hal_msp.c ****     hdma_sdmmc1_rx.Init.MemDataAlignment = DMA_MDATAALIGN_WORD;
 1619              		.loc 1 577 5 is_stmt 1 view .LVU485
 577:Core/Src/stm32f7xx_hal_msp.c ****     hdma_sdmmc1_rx.Init.MemDataAlignment = DMA_MDATAALIGN_WORD;
 1620              		.loc 1 577 45 is_stmt 0 view .LVU486
 1621 00ac 4FF48053 		mov	r3, #4096
 1622 00b0 4361     		str	r3, [r0, #20]
 578:Core/Src/stm32f7xx_hal_msp.c ****     hdma_sdmmc1_rx.Init.Mode = DMA_PFCTRL;
 1623              		.loc 1 578 5 is_stmt 1 view .LVU487
 578:Core/Src/stm32f7xx_hal_msp.c ****     hdma_sdmmc1_rx.Init.Mode = DMA_PFCTRL;
 1624              		.loc 1 578 42 is_stmt 0 view .LVU488
 1625 00b2 4FF48043 		mov	r3, #16384
 1626 00b6 8361     		str	r3, [r0, #24]
 579:Core/Src/stm32f7xx_hal_msp.c ****     hdma_sdmmc1_rx.Init.Priority = DMA_PRIORITY_VERY_HIGH;
 1627              		.loc 1 579 5 is_stmt 1 view .LVU489
 579:Core/Src/stm32f7xx_hal_msp.c ****     hdma_sdmmc1_rx.Init.Priority = DMA_PRIORITY_VERY_HIGH;
 1628              		.loc 1 579 30 is_stmt 0 view .LVU490
 1629 00b8 2023     		movs	r3, #32
 1630 00ba C361     		str	r3, [r0, #28]
 580:Core/Src/stm32f7xx_hal_msp.c ****     hdma_sdmmc1_rx.Init.FIFOMode = DMA_FIFOMODE_ENABLE;
 1631              		.loc 1 580 5 is_stmt 1 view .LVU491
 580:Core/Src/stm32f7xx_hal_msp.c ****     hdma_sdmmc1_rx.Init.FIFOMode = DMA_FIFOMODE_ENABLE;
 1632              		.loc 1 580 34 is_stmt 0 view .LVU492
 1633 00bc 4FF44033 		mov	r3, #196608
 1634 00c0 0362     		str	r3, [r0, #32]
 581:Core/Src/stm32f7xx_hal_msp.c ****     hdma_sdmmc1_rx.Init.FIFOThreshold = DMA_FIFO_THRESHOLD_FULL;
 1635              		.loc 1 581 5 is_stmt 1 view .LVU493
 581:Core/Src/stm32f7xx_hal_msp.c ****     hdma_sdmmc1_rx.Init.FIFOThreshold = DMA_FIFO_THRESHOLD_FULL;
 1636              		.loc 1 581 34 is_stmt 0 view .LVU494
 1637 00c2 4762     		str	r7, [r0, #36]
 582:Core/Src/stm32f7xx_hal_msp.c ****     hdma_sdmmc1_rx.Init.MemBurst = DMA_MBURST_INC4;
 1638              		.loc 1 582 5 is_stmt 1 view .LVU495
 582:Core/Src/stm32f7xx_hal_msp.c ****     hdma_sdmmc1_rx.Init.MemBurst = DMA_MBURST_INC4;
 1639              		.loc 1 582 39 is_stmt 0 view .LVU496
 1640 00c4 8562     		str	r5, [r0, #40]
 583:Core/Src/stm32f7xx_hal_msp.c ****     hdma_sdmmc1_rx.Init.PeriphBurst = DMA_PBURST_INC4;
 1641              		.loc 1 583 5 is_stmt 1 view .LVU497
 583:Core/Src/stm32f7xx_hal_msp.c ****     hdma_sdmmc1_rx.Init.PeriphBurst = DMA_PBURST_INC4;
 1642              		.loc 1 583 34 is_stmt 0 view .LVU498
 1643 00c6 4FF40003 		mov	r3, #8388608
 1644 00ca C362     		str	r3, [r0, #44]
 584:Core/Src/stm32f7xx_hal_msp.c ****     if (HAL_DMA_Init(&hdma_sdmmc1_rx) != HAL_OK)
 1645              		.loc 1 584 5 is_stmt 1 view .LVU499
 584:Core/Src/stm32f7xx_hal_msp.c ****     if (HAL_DMA_Init(&hdma_sdmmc1_rx) != HAL_OK)
 1646              		.loc 1 584 37 is_stmt 0 view .LVU500
 1647 00cc 4FF40013 		mov	r3, #2097152
 1648 00d0 0363     		str	r3, [r0, #48]
 585:Core/Src/stm32f7xx_hal_msp.c ****     {
 1649              		.loc 1 585 5 is_stmt 1 view .LVU501
 585:Core/Src/stm32f7xx_hal_msp.c ****     {
 1650              		.loc 1 585 9 is_stmt 0 view .LVU502
 1651 00d2 FFF7FEFF 		bl	HAL_DMA_Init
 1652              	.LVL82:
ARM GAS  C:\Users\jisu8\AppData\Local\Temp\cc20AWwL.s 			page 57


 585:Core/Src/stm32f7xx_hal_msp.c ****     {
 1653              		.loc 1 585 8 view .LVU503
 1654 00d6 0028     		cmp	r0, #0
 1655 00d8 33D1     		bne	.L82
 1656              	.L78:
 590:Core/Src/stm32f7xx_hal_msp.c **** 
 1657              		.loc 1 590 5 is_stmt 1 view .LVU504
 590:Core/Src/stm32f7xx_hal_msp.c **** 
 1658              		.loc 1 590 5 view .LVU505
 1659 00da 204B     		ldr	r3, .L84+12
 1660 00dc 2364     		str	r3, [r4, #64]
 590:Core/Src/stm32f7xx_hal_msp.c **** 
 1661              		.loc 1 590 5 view .LVU506
 1662 00de 9C63     		str	r4, [r3, #56]
 590:Core/Src/stm32f7xx_hal_msp.c **** 
 1663              		.loc 1 590 5 view .LVU507
 593:Core/Src/stm32f7xx_hal_msp.c ****     hdma_sdmmc1_tx.Init.Channel = DMA_CHANNEL_4;
 1664              		.loc 1 593 5 view .LVU508
 593:Core/Src/stm32f7xx_hal_msp.c ****     hdma_sdmmc1_tx.Init.Channel = DMA_CHANNEL_4;
 1665              		.loc 1 593 29 is_stmt 0 view .LVU509
 1666 00e0 2048     		ldr	r0, .L84+20
 1667 00e2 214B     		ldr	r3, .L84+24
 1668 00e4 0360     		str	r3, [r0]
 594:Core/Src/stm32f7xx_hal_msp.c ****     hdma_sdmmc1_tx.Init.Direction = DMA_MEMORY_TO_PERIPH;
 1669              		.loc 1 594 5 is_stmt 1 view .LVU510
 594:Core/Src/stm32f7xx_hal_msp.c ****     hdma_sdmmc1_tx.Init.Direction = DMA_MEMORY_TO_PERIPH;
 1670              		.loc 1 594 33 is_stmt 0 view .LVU511
 1671 00e6 4FF00063 		mov	r3, #134217728
 1672 00ea 4360     		str	r3, [r0, #4]
 595:Core/Src/stm32f7xx_hal_msp.c ****     hdma_sdmmc1_tx.Init.PeriphInc = DMA_PINC_DISABLE;
 1673              		.loc 1 595 5 is_stmt 1 view .LVU512
 595:Core/Src/stm32f7xx_hal_msp.c ****     hdma_sdmmc1_tx.Init.PeriphInc = DMA_PINC_DISABLE;
 1674              		.loc 1 595 35 is_stmt 0 view .LVU513
 1675 00ec 4023     		movs	r3, #64
 1676 00ee 8360     		str	r3, [r0, #8]
 596:Core/Src/stm32f7xx_hal_msp.c ****     hdma_sdmmc1_tx.Init.MemInc = DMA_MINC_ENABLE;
 1677              		.loc 1 596 5 is_stmt 1 view .LVU514
 596:Core/Src/stm32f7xx_hal_msp.c ****     hdma_sdmmc1_tx.Init.MemInc = DMA_MINC_ENABLE;
 1678              		.loc 1 596 35 is_stmt 0 view .LVU515
 1679 00f0 0023     		movs	r3, #0
 1680 00f2 C360     		str	r3, [r0, #12]
 597:Core/Src/stm32f7xx_hal_msp.c ****     hdma_sdmmc1_tx.Init.PeriphDataAlignment = DMA_PDATAALIGN_WORD;
 1681              		.loc 1 597 5 is_stmt 1 view .LVU516
 597:Core/Src/stm32f7xx_hal_msp.c ****     hdma_sdmmc1_tx.Init.PeriphDataAlignment = DMA_PDATAALIGN_WORD;
 1682              		.loc 1 597 32 is_stmt 0 view .LVU517
 1683 00f4 4FF48063 		mov	r3, #1024
 1684 00f8 0361     		str	r3, [r0, #16]
 598:Core/Src/stm32f7xx_hal_msp.c ****     hdma_sdmmc1_tx.Init.MemDataAlignment = DMA_MDATAALIGN_WORD;
 1685              		.loc 1 598 5 is_stmt 1 view .LVU518
 598:Core/Src/stm32f7xx_hal_msp.c ****     hdma_sdmmc1_tx.Init.MemDataAlignment = DMA_MDATAALIGN_WORD;
 1686              		.loc 1 598 45 is_stmt 0 view .LVU519
 1687 00fa 4FF48053 		mov	r3, #4096
 1688 00fe 4361     		str	r3, [r0, #20]
 599:Core/Src/stm32f7xx_hal_msp.c ****     hdma_sdmmc1_tx.Init.Mode = DMA_PFCTRL;
 1689              		.loc 1 599 5 is_stmt 1 view .LVU520
 599:Core/Src/stm32f7xx_hal_msp.c ****     hdma_sdmmc1_tx.Init.Mode = DMA_PFCTRL;
 1690              		.loc 1 599 42 is_stmt 0 view .LVU521
ARM GAS  C:\Users\jisu8\AppData\Local\Temp\cc20AWwL.s 			page 58


 1691 0100 4FF48043 		mov	r3, #16384
 1692 0104 8361     		str	r3, [r0, #24]
 600:Core/Src/stm32f7xx_hal_msp.c ****     hdma_sdmmc1_tx.Init.Priority = DMA_PRIORITY_VERY_HIGH;
 1693              		.loc 1 600 5 is_stmt 1 view .LVU522
 600:Core/Src/stm32f7xx_hal_msp.c ****     hdma_sdmmc1_tx.Init.Priority = DMA_PRIORITY_VERY_HIGH;
 1694              		.loc 1 600 30 is_stmt 0 view .LVU523
 1695 0106 2023     		movs	r3, #32
 1696 0108 C361     		str	r3, [r0, #28]
 601:Core/Src/stm32f7xx_hal_msp.c ****     hdma_sdmmc1_tx.Init.FIFOMode = DMA_FIFOMODE_ENABLE;
 1697              		.loc 1 601 5 is_stmt 1 view .LVU524
 601:Core/Src/stm32f7xx_hal_msp.c ****     hdma_sdmmc1_tx.Init.FIFOMode = DMA_FIFOMODE_ENABLE;
 1698              		.loc 1 601 34 is_stmt 0 view .LVU525
 1699 010a 4FF44033 		mov	r3, #196608
 1700 010e 0362     		str	r3, [r0, #32]
 602:Core/Src/stm32f7xx_hal_msp.c ****     hdma_sdmmc1_tx.Init.FIFOThreshold = DMA_FIFO_THRESHOLD_FULL;
 1701              		.loc 1 602 5 is_stmt 1 view .LVU526
 602:Core/Src/stm32f7xx_hal_msp.c ****     hdma_sdmmc1_tx.Init.FIFOThreshold = DMA_FIFO_THRESHOLD_FULL;
 1702              		.loc 1 602 34 is_stmt 0 view .LVU527
 1703 0110 0423     		movs	r3, #4
 1704 0112 4362     		str	r3, [r0, #36]
 603:Core/Src/stm32f7xx_hal_msp.c ****     hdma_sdmmc1_tx.Init.MemBurst = DMA_MBURST_INC4;
 1705              		.loc 1 603 5 is_stmt 1 view .LVU528
 603:Core/Src/stm32f7xx_hal_msp.c ****     hdma_sdmmc1_tx.Init.MemBurst = DMA_MBURST_INC4;
 1706              		.loc 1 603 39 is_stmt 0 view .LVU529
 1707 0114 0323     		movs	r3, #3
 1708 0116 8362     		str	r3, [r0, #40]
 604:Core/Src/stm32f7xx_hal_msp.c ****     hdma_sdmmc1_tx.Init.PeriphBurst = DMA_PBURST_INC4;
 1709              		.loc 1 604 5 is_stmt 1 view .LVU530
 604:Core/Src/stm32f7xx_hal_msp.c ****     hdma_sdmmc1_tx.Init.PeriphBurst = DMA_PBURST_INC4;
 1710              		.loc 1 604 34 is_stmt 0 view .LVU531
 1711 0118 4FF40003 		mov	r3, #8388608
 1712 011c C362     		str	r3, [r0, #44]
 605:Core/Src/stm32f7xx_hal_msp.c ****     if (HAL_DMA_Init(&hdma_sdmmc1_tx) != HAL_OK)
 1713              		.loc 1 605 5 is_stmt 1 view .LVU532
 605:Core/Src/stm32f7xx_hal_msp.c ****     if (HAL_DMA_Init(&hdma_sdmmc1_tx) != HAL_OK)
 1714              		.loc 1 605 37 is_stmt 0 view .LVU533
 1715 011e 4FF40013 		mov	r3, #2097152
 1716 0122 0363     		str	r3, [r0, #48]
 606:Core/Src/stm32f7xx_hal_msp.c ****     {
 1717              		.loc 1 606 5 is_stmt 1 view .LVU534
 606:Core/Src/stm32f7xx_hal_msp.c ****     {
 1718              		.loc 1 606 9 is_stmt 0 view .LVU535
 1719 0124 FFF7FEFF 		bl	HAL_DMA_Init
 1720              	.LVL83:
 606:Core/Src/stm32f7xx_hal_msp.c ****     {
 1721              		.loc 1 606 8 view .LVU536
 1722 0128 70B9     		cbnz	r0, .L83
 1723              	.L79:
 611:Core/Src/stm32f7xx_hal_msp.c **** 
 1724              		.loc 1 611 5 is_stmt 1 view .LVU537
 611:Core/Src/stm32f7xx_hal_msp.c **** 
 1725              		.loc 1 611 5 view .LVU538
 1726 012a 0E4B     		ldr	r3, .L84+20
 1727 012c E363     		str	r3, [r4, #60]
 611:Core/Src/stm32f7xx_hal_msp.c **** 
 1728              		.loc 1 611 5 view .LVU539
 1729 012e 9C63     		str	r4, [r3, #56]
ARM GAS  C:\Users\jisu8\AppData\Local\Temp\cc20AWwL.s 			page 59


 611:Core/Src/stm32f7xx_hal_msp.c **** 
 1730              		.loc 1 611 5 view .LVU540
 614:Core/Src/stm32f7xx_hal_msp.c ****     HAL_NVIC_EnableIRQ(SDMMC1_IRQn);
 1731              		.loc 1 614 5 view .LVU541
 1732 0130 0022     		movs	r2, #0
 1733 0132 0521     		movs	r1, #5
 1734 0134 3120     		movs	r0, #49
 1735 0136 FFF7FEFF 		bl	HAL_NVIC_SetPriority
 1736              	.LVL84:
 615:Core/Src/stm32f7xx_hal_msp.c ****   /* USER CODE BEGIN SDMMC1_MspInit 1 */
 1737              		.loc 1 615 5 view .LVU542
 1738 013a 3120     		movs	r0, #49
 1739 013c FFF7FEFF 		bl	HAL_NVIC_EnableIRQ
 1740              	.LVL85:
 621:Core/Src/stm32f7xx_hal_msp.c **** 
 1741              		.loc 1 621 1 is_stmt 0 view .LVU543
 1742 0140 6BE7     		b	.L76
 1743              	.L82:
 587:Core/Src/stm32f7xx_hal_msp.c ****     }
 1744              		.loc 1 587 7 is_stmt 1 view .LVU544
 1745 0142 FFF7FEFF 		bl	Error_Handler
 1746              	.LVL86:
 1747 0146 C8E7     		b	.L78
 1748              	.L83:
 608:Core/Src/stm32f7xx_hal_msp.c ****     }
 1749              		.loc 1 608 7 view .LVU545
 1750 0148 FFF7FEFF 		bl	Error_Handler
 1751              	.LVL87:
 1752 014c EDE7     		b	.L79
 1753              	.L85:
 1754 014e 00BF     		.align	2
 1755              	.L84:
 1756 0150 002C0140 		.word	1073818624
 1757 0154 00080240 		.word	1073874944
 1758 0158 000C0240 		.word	1073875968
 1759 015c 00000000 		.word	hdma_sdmmc1_rx
 1760 0160 58640240 		.word	1073898584
 1761 0164 00000000 		.word	hdma_sdmmc1_tx
 1762 0168 A0640240 		.word	1073898656
 1763              		.cfi_endproc
 1764              	.LFE150:
 1766              		.section	.text.HAL_SD_MspDeInit,"ax",%progbits
 1767              		.align	1
 1768              		.global	HAL_SD_MspDeInit
 1769              		.syntax unified
 1770              		.thumb
 1771              		.thumb_func
 1773              	HAL_SD_MspDeInit:
 1774              	.LVL88:
 1775              	.LFB151:
 630:Core/Src/stm32f7xx_hal_msp.c ****   if(hsd->Instance==SDMMC1)
 1776              		.loc 1 630 1 view -0
 1777              		.cfi_startproc
 1778              		@ args = 0, pretend = 0, frame = 0
 1779              		@ frame_needed = 0, uses_anonymous_args = 0
 631:Core/Src/stm32f7xx_hal_msp.c ****   {
 1780              		.loc 1 631 3 view .LVU547
ARM GAS  C:\Users\jisu8\AppData\Local\Temp\cc20AWwL.s 			page 60


 631:Core/Src/stm32f7xx_hal_msp.c ****   {
 1781              		.loc 1 631 9 is_stmt 0 view .LVU548
 1782 0000 0268     		ldr	r2, [r0]
 631:Core/Src/stm32f7xx_hal_msp.c ****   {
 1783              		.loc 1 631 5 view .LVU549
 1784 0002 0F4B     		ldr	r3, .L93
 1785 0004 9A42     		cmp	r2, r3
 1786 0006 00D0     		beq	.L92
 1787 0008 7047     		bx	lr
 1788              	.L92:
 630:Core/Src/stm32f7xx_hal_msp.c ****   if(hsd->Instance==SDMMC1)
 1789              		.loc 1 630 1 view .LVU550
 1790 000a 10B5     		push	{r4, lr}
 1791              	.LCFI29:
 1792              		.cfi_def_cfa_offset 8
 1793              		.cfi_offset 4, -8
 1794              		.cfi_offset 14, -4
 1795 000c 0446     		mov	r4, r0
 637:Core/Src/stm32f7xx_hal_msp.c **** 
 1796              		.loc 1 637 5 is_stmt 1 view .LVU551
 1797 000e 0D4A     		ldr	r2, .L93+4
 1798 0010 536C     		ldr	r3, [r2, #68]
 1799 0012 23F40063 		bic	r3, r3, #2048
 1800 0016 5364     		str	r3, [r2, #68]
 647:Core/Src/stm32f7xx_hal_msp.c ****                           |GPIO_PIN_8);
 1801              		.loc 1 647 5 view .LVU552
 1802 0018 4FF4F851 		mov	r1, #7936
 1803 001c 0A48     		ldr	r0, .L93+8
 1804              	.LVL89:
 647:Core/Src/stm32f7xx_hal_msp.c ****                           |GPIO_PIN_8);
 1805              		.loc 1 647 5 is_stmt 0 view .LVU553
 1806 001e FFF7FEFF 		bl	HAL_GPIO_DeInit
 1807              	.LVL90:
 650:Core/Src/stm32f7xx_hal_msp.c **** 
 1808              		.loc 1 650 5 is_stmt 1 view .LVU554
 1809 0022 0421     		movs	r1, #4
 1810 0024 0948     		ldr	r0, .L93+12
 1811 0026 FFF7FEFF 		bl	HAL_GPIO_DeInit
 1812              	.LVL91:
 653:Core/Src/stm32f7xx_hal_msp.c ****     HAL_DMA_DeInit(hsd->hdmatx);
 1813              		.loc 1 653 5 view .LVU555
 1814 002a 206C     		ldr	r0, [r4, #64]
 1815 002c FFF7FEFF 		bl	HAL_DMA_DeInit
 1816              	.LVL92:
 654:Core/Src/stm32f7xx_hal_msp.c **** 
 1817              		.loc 1 654 5 view .LVU556
 1818 0030 E06B     		ldr	r0, [r4, #60]
 1819 0032 FFF7FEFF 		bl	HAL_DMA_DeInit
 1820              	.LVL93:
 657:Core/Src/stm32f7xx_hal_msp.c ****   /* USER CODE BEGIN SDMMC1_MspDeInit 1 */
 1821              		.loc 1 657 5 view .LVU557
 1822 0036 3120     		movs	r0, #49
 1823 0038 FFF7FEFF 		bl	HAL_NVIC_DisableIRQ
 1824              	.LVL94:
 663:Core/Src/stm32f7xx_hal_msp.c **** 
 1825              		.loc 1 663 1 is_stmt 0 view .LVU558
 1826 003c 10BD     		pop	{r4, pc}
ARM GAS  C:\Users\jisu8\AppData\Local\Temp\cc20AWwL.s 			page 61


 1827              	.LVL95:
 1828              	.L94:
 663:Core/Src/stm32f7xx_hal_msp.c **** 
 1829              		.loc 1 663 1 view .LVU559
 1830 003e 00BF     		.align	2
 1831              	.L93:
 1832 0040 002C0140 		.word	1073818624
 1833 0044 00380240 		.word	1073887232
 1834 0048 00080240 		.word	1073874944
 1835 004c 000C0240 		.word	1073875968
 1836              		.cfi_endproc
 1837              	.LFE151:
 1839              		.section	.text.HAL_SPI_MspInit,"ax",%progbits
 1840              		.align	1
 1841              		.global	HAL_SPI_MspInit
 1842              		.syntax unified
 1843              		.thumb
 1844              		.thumb_func
 1846              	HAL_SPI_MspInit:
 1847              	.LVL96:
 1848              	.LFB152:
 672:Core/Src/stm32f7xx_hal_msp.c ****   GPIO_InitTypeDef GPIO_InitStruct = {0};
 1849              		.loc 1 672 1 is_stmt 1 view -0
 1850              		.cfi_startproc
 1851              		@ args = 0, pretend = 0, frame = 32
 1852              		@ frame_needed = 0, uses_anonymous_args = 0
 672:Core/Src/stm32f7xx_hal_msp.c ****   GPIO_InitTypeDef GPIO_InitStruct = {0};
 1853              		.loc 1 672 1 is_stmt 0 view .LVU561
 1854 0000 30B5     		push	{r4, r5, lr}
 1855              	.LCFI30:
 1856              		.cfi_def_cfa_offset 12
 1857              		.cfi_offset 4, -12
 1858              		.cfi_offset 5, -8
 1859              		.cfi_offset 14, -4
 1860 0002 89B0     		sub	sp, sp, #36
 1861              	.LCFI31:
 1862              		.cfi_def_cfa_offset 48
 673:Core/Src/stm32f7xx_hal_msp.c ****   if(hspi->Instance==SPI2)
 1863              		.loc 1 673 3 is_stmt 1 view .LVU562
 673:Core/Src/stm32f7xx_hal_msp.c ****   if(hspi->Instance==SPI2)
 1864              		.loc 1 673 20 is_stmt 0 view .LVU563
 1865 0004 0023     		movs	r3, #0
 1866 0006 0393     		str	r3, [sp, #12]
 1867 0008 0493     		str	r3, [sp, #16]
 1868 000a 0593     		str	r3, [sp, #20]
 1869 000c 0693     		str	r3, [sp, #24]
 1870 000e 0793     		str	r3, [sp, #28]
 674:Core/Src/stm32f7xx_hal_msp.c ****   {
 1871              		.loc 1 674 3 is_stmt 1 view .LVU564
 674:Core/Src/stm32f7xx_hal_msp.c ****   {
 1872              		.loc 1 674 10 is_stmt 0 view .LVU565
 1873 0010 0268     		ldr	r2, [r0]
 674:Core/Src/stm32f7xx_hal_msp.c ****   {
 1874              		.loc 1 674 5 view .LVU566
 1875 0012 1C4B     		ldr	r3, .L99
 1876 0014 9A42     		cmp	r2, r3
 1877 0016 01D0     		beq	.L98
ARM GAS  C:\Users\jisu8\AppData\Local\Temp\cc20AWwL.s 			page 62


 1878              	.LVL97:
 1879              	.L95:
 708:Core/Src/stm32f7xx_hal_msp.c **** 
 1880              		.loc 1 708 1 view .LVU567
 1881 0018 09B0     		add	sp, sp, #36
 1882              	.LCFI32:
 1883              		.cfi_remember_state
 1884              		.cfi_def_cfa_offset 12
 1885              		@ sp needed
 1886 001a 30BD     		pop	{r4, r5, pc}
 1887              	.LVL98:
 1888              	.L98:
 1889              	.LCFI33:
 1890              		.cfi_restore_state
 680:Core/Src/stm32f7xx_hal_msp.c **** 
 1891              		.loc 1 680 5 is_stmt 1 view .LVU568
 1892              	.LBB23:
 680:Core/Src/stm32f7xx_hal_msp.c **** 
 1893              		.loc 1 680 5 view .LVU569
 680:Core/Src/stm32f7xx_hal_msp.c **** 
 1894              		.loc 1 680 5 view .LVU570
 1895 001c 03F50033 		add	r3, r3, #131072
 1896 0020 1A6C     		ldr	r2, [r3, #64]
 1897 0022 42F48042 		orr	r2, r2, #16384
 1898 0026 1A64     		str	r2, [r3, #64]
 680:Core/Src/stm32f7xx_hal_msp.c **** 
 1899              		.loc 1 680 5 view .LVU571
 1900 0028 1A6C     		ldr	r2, [r3, #64]
 1901 002a 02F48042 		and	r2, r2, #16384
 1902 002e 0092     		str	r2, [sp]
 680:Core/Src/stm32f7xx_hal_msp.c **** 
 1903              		.loc 1 680 5 view .LVU572
 1904 0030 009A     		ldr	r2, [sp]
 1905              	.LBE23:
 680:Core/Src/stm32f7xx_hal_msp.c **** 
 1906              		.loc 1 680 5 view .LVU573
 682:Core/Src/stm32f7xx_hal_msp.c ****     __HAL_RCC_GPIOB_CLK_ENABLE();
 1907              		.loc 1 682 5 view .LVU574
 1908              	.LBB24:
 682:Core/Src/stm32f7xx_hal_msp.c ****     __HAL_RCC_GPIOB_CLK_ENABLE();
 1909              		.loc 1 682 5 view .LVU575
 682:Core/Src/stm32f7xx_hal_msp.c ****     __HAL_RCC_GPIOB_CLK_ENABLE();
 1910              		.loc 1 682 5 view .LVU576
 1911 0032 1A6B     		ldr	r2, [r3, #48]
 1912 0034 42F48072 		orr	r2, r2, #256
 1913 0038 1A63     		str	r2, [r3, #48]
 682:Core/Src/stm32f7xx_hal_msp.c ****     __HAL_RCC_GPIOB_CLK_ENABLE();
 1914              		.loc 1 682 5 view .LVU577
 1915 003a 1A6B     		ldr	r2, [r3, #48]
 1916 003c 02F48072 		and	r2, r2, #256
 1917 0040 0192     		str	r2, [sp, #4]
 682:Core/Src/stm32f7xx_hal_msp.c ****     __HAL_RCC_GPIOB_CLK_ENABLE();
 1918              		.loc 1 682 5 view .LVU578
 1919 0042 019A     		ldr	r2, [sp, #4]
 1920              	.LBE24:
 682:Core/Src/stm32f7xx_hal_msp.c ****     __HAL_RCC_GPIOB_CLK_ENABLE();
 1921              		.loc 1 682 5 view .LVU579
ARM GAS  C:\Users\jisu8\AppData\Local\Temp\cc20AWwL.s 			page 63


 683:Core/Src/stm32f7xx_hal_msp.c ****     /**SPI2 GPIO Configuration
 1922              		.loc 1 683 5 view .LVU580
 1923              	.LBB25:
 683:Core/Src/stm32f7xx_hal_msp.c ****     /**SPI2 GPIO Configuration
 1924              		.loc 1 683 5 view .LVU581
 683:Core/Src/stm32f7xx_hal_msp.c ****     /**SPI2 GPIO Configuration
 1925              		.loc 1 683 5 view .LVU582
 1926 0044 1A6B     		ldr	r2, [r3, #48]
 1927 0046 42F00202 		orr	r2, r2, #2
 1928 004a 1A63     		str	r2, [r3, #48]
 683:Core/Src/stm32f7xx_hal_msp.c ****     /**SPI2 GPIO Configuration
 1929              		.loc 1 683 5 view .LVU583
 1930 004c 1B6B     		ldr	r3, [r3, #48]
 1931 004e 03F00203 		and	r3, r3, #2
 1932 0052 0293     		str	r3, [sp, #8]
 683:Core/Src/stm32f7xx_hal_msp.c ****     /**SPI2 GPIO Configuration
 1933              		.loc 1 683 5 view .LVU584
 1934 0054 029B     		ldr	r3, [sp, #8]
 1935              	.LBE25:
 683:Core/Src/stm32f7xx_hal_msp.c ****     /**SPI2 GPIO Configuration
 1936              		.loc 1 683 5 view .LVU585
 689:Core/Src/stm32f7xx_hal_msp.c ****     GPIO_InitStruct.Mode = GPIO_MODE_AF_PP;
 1937              		.loc 1 689 5 view .LVU586
 689:Core/Src/stm32f7xx_hal_msp.c ****     GPIO_InitStruct.Mode = GPIO_MODE_AF_PP;
 1938              		.loc 1 689 25 is_stmt 0 view .LVU587
 1939 0056 0224     		movs	r4, #2
 1940 0058 0394     		str	r4, [sp, #12]
 690:Core/Src/stm32f7xx_hal_msp.c ****     GPIO_InitStruct.Pull = GPIO_NOPULL;
 1941              		.loc 1 690 5 is_stmt 1 view .LVU588
 690:Core/Src/stm32f7xx_hal_msp.c ****     GPIO_InitStruct.Pull = GPIO_NOPULL;
 1942              		.loc 1 690 26 is_stmt 0 view .LVU589
 1943 005a 0494     		str	r4, [sp, #16]
 691:Core/Src/stm32f7xx_hal_msp.c ****     GPIO_InitStruct.Speed = GPIO_SPEED_FREQ_LOW;
 1944              		.loc 1 691 5 is_stmt 1 view .LVU590
 692:Core/Src/stm32f7xx_hal_msp.c ****     GPIO_InitStruct.Alternate = GPIO_AF5_SPI2;
 1945              		.loc 1 692 5 view .LVU591
 693:Core/Src/stm32f7xx_hal_msp.c ****     HAL_GPIO_Init(ARDUINO_SCK_D13_GPIO_Port, &GPIO_InitStruct);
 1946              		.loc 1 693 5 view .LVU592
 693:Core/Src/stm32f7xx_hal_msp.c ****     HAL_GPIO_Init(ARDUINO_SCK_D13_GPIO_Port, &GPIO_InitStruct);
 1947              		.loc 1 693 31 is_stmt 0 view .LVU593
 1948 005c 0525     		movs	r5, #5
 1949 005e 0795     		str	r5, [sp, #28]
 694:Core/Src/stm32f7xx_hal_msp.c **** 
 1950              		.loc 1 694 5 is_stmt 1 view .LVU594
 1951 0060 03A9     		add	r1, sp, #12
 1952 0062 0948     		ldr	r0, .L99+4
 1953              	.LVL99:
 694:Core/Src/stm32f7xx_hal_msp.c **** 
 1954              		.loc 1 694 5 is_stmt 0 view .LVU595
 1955 0064 FFF7FEFF 		bl	HAL_GPIO_Init
 1956              	.LVL100:
 696:Core/Src/stm32f7xx_hal_msp.c ****     GPIO_InitStruct.Mode = GPIO_MODE_AF_PP;
 1957              		.loc 1 696 5 is_stmt 1 view .LVU596
 696:Core/Src/stm32f7xx_hal_msp.c ****     GPIO_InitStruct.Mode = GPIO_MODE_AF_PP;
 1958              		.loc 1 696 25 is_stmt 0 view .LVU597
 1959 0068 4FF44043 		mov	r3, #49152
 1960 006c 0393     		str	r3, [sp, #12]
ARM GAS  C:\Users\jisu8\AppData\Local\Temp\cc20AWwL.s 			page 64


 697:Core/Src/stm32f7xx_hal_msp.c ****     GPIO_InitStruct.Pull = GPIO_NOPULL;
 1961              		.loc 1 697 5 is_stmt 1 view .LVU598
 697:Core/Src/stm32f7xx_hal_msp.c ****     GPIO_InitStruct.Pull = GPIO_NOPULL;
 1962              		.loc 1 697 26 is_stmt 0 view .LVU599
 1963 006e 0494     		str	r4, [sp, #16]
 698:Core/Src/stm32f7xx_hal_msp.c ****     GPIO_InitStruct.Speed = GPIO_SPEED_FREQ_LOW;
 1964              		.loc 1 698 5 is_stmt 1 view .LVU600
 698:Core/Src/stm32f7xx_hal_msp.c ****     GPIO_InitStruct.Speed = GPIO_SPEED_FREQ_LOW;
 1965              		.loc 1 698 26 is_stmt 0 view .LVU601
 1966 0070 0023     		movs	r3, #0
 1967 0072 0593     		str	r3, [sp, #20]
 699:Core/Src/stm32f7xx_hal_msp.c ****     GPIO_InitStruct.Alternate = GPIO_AF5_SPI2;
 1968              		.loc 1 699 5 is_stmt 1 view .LVU602
 699:Core/Src/stm32f7xx_hal_msp.c ****     GPIO_InitStruct.Alternate = GPIO_AF5_SPI2;
 1969              		.loc 1 699 27 is_stmt 0 view .LVU603
 1970 0074 0693     		str	r3, [sp, #24]
 700:Core/Src/stm32f7xx_hal_msp.c ****     HAL_GPIO_Init(GPIOB, &GPIO_InitStruct);
 1971              		.loc 1 700 5 is_stmt 1 view .LVU604
 700:Core/Src/stm32f7xx_hal_msp.c ****     HAL_GPIO_Init(GPIOB, &GPIO_InitStruct);
 1972              		.loc 1 700 31 is_stmt 0 view .LVU605
 1973 0076 0795     		str	r5, [sp, #28]
 701:Core/Src/stm32f7xx_hal_msp.c **** 
 1974              		.loc 1 701 5 is_stmt 1 view .LVU606
 1975 0078 03A9     		add	r1, sp, #12
 1976 007a 0448     		ldr	r0, .L99+8
 1977 007c FFF7FEFF 		bl	HAL_GPIO_Init
 1978              	.LVL101:
 708:Core/Src/stm32f7xx_hal_msp.c **** 
 1979              		.loc 1 708 1 is_stmt 0 view .LVU607
 1980 0080 CAE7     		b	.L95
 1981              	.L100:
 1982 0082 00BF     		.align	2
 1983              	.L99:
 1984 0084 00380040 		.word	1073756160
 1985 0088 00200240 		.word	1073881088
 1986 008c 00040240 		.word	1073873920
 1987              		.cfi_endproc
 1988              	.LFE152:
 1990              		.section	.text.HAL_SPI_MspDeInit,"ax",%progbits
 1991              		.align	1
 1992              		.global	HAL_SPI_MspDeInit
 1993              		.syntax unified
 1994              		.thumb
 1995              		.thumb_func
 1997              	HAL_SPI_MspDeInit:
 1998              	.LVL102:
 1999              	.LFB153:
 717:Core/Src/stm32f7xx_hal_msp.c ****   if(hspi->Instance==SPI2)
 2000              		.loc 1 717 1 is_stmt 1 view -0
 2001              		.cfi_startproc
 2002              		@ args = 0, pretend = 0, frame = 0
 2003              		@ frame_needed = 0, uses_anonymous_args = 0
 717:Core/Src/stm32f7xx_hal_msp.c ****   if(hspi->Instance==SPI2)
 2004              		.loc 1 717 1 is_stmt 0 view .LVU609
 2005 0000 08B5     		push	{r3, lr}
 2006              	.LCFI34:
 2007              		.cfi_def_cfa_offset 8
ARM GAS  C:\Users\jisu8\AppData\Local\Temp\cc20AWwL.s 			page 65


 2008              		.cfi_offset 3, -8
 2009              		.cfi_offset 14, -4
 718:Core/Src/stm32f7xx_hal_msp.c ****   {
 2010              		.loc 1 718 3 is_stmt 1 view .LVU610
 718:Core/Src/stm32f7xx_hal_msp.c ****   {
 2011              		.loc 1 718 10 is_stmt 0 view .LVU611
 2012 0002 0268     		ldr	r2, [r0]
 718:Core/Src/stm32f7xx_hal_msp.c ****   {
 2013              		.loc 1 718 5 view .LVU612
 2014 0004 094B     		ldr	r3, .L105
 2015 0006 9A42     		cmp	r2, r3
 2016 0008 00D0     		beq	.L104
 2017              	.LVL103:
 2018              	.L101:
 740:Core/Src/stm32f7xx_hal_msp.c **** 
 2019              		.loc 1 740 1 view .LVU613
 2020 000a 08BD     		pop	{r3, pc}
 2021              	.LVL104:
 2022              	.L104:
 724:Core/Src/stm32f7xx_hal_msp.c **** 
 2023              		.loc 1 724 5 is_stmt 1 view .LVU614
 2024 000c 084A     		ldr	r2, .L105+4
 2025 000e 136C     		ldr	r3, [r2, #64]
 2026 0010 23F48043 		bic	r3, r3, #16384
 2027 0014 1364     		str	r3, [r2, #64]
 731:Core/Src/stm32f7xx_hal_msp.c **** 
 2028              		.loc 1 731 5 view .LVU615
 2029 0016 0221     		movs	r1, #2
 2030 0018 0648     		ldr	r0, .L105+8
 2031              	.LVL105:
 731:Core/Src/stm32f7xx_hal_msp.c **** 
 2032              		.loc 1 731 5 is_stmt 0 view .LVU616
 2033 001a FFF7FEFF 		bl	HAL_GPIO_DeInit
 2034              	.LVL106:
 733:Core/Src/stm32f7xx_hal_msp.c **** 
 2035              		.loc 1 733 5 is_stmt 1 view .LVU617
 2036 001e 4FF44041 		mov	r1, #49152
 2037 0022 0548     		ldr	r0, .L105+12
 2038 0024 FFF7FEFF 		bl	HAL_GPIO_DeInit
 2039              	.LVL107:
 740:Core/Src/stm32f7xx_hal_msp.c **** 
 2040              		.loc 1 740 1 is_stmt 0 view .LVU618
 2041 0028 EFE7     		b	.L101
 2042              	.L106:
 2043 002a 00BF     		.align	2
 2044              	.L105:
 2045 002c 00380040 		.word	1073756160
 2046 0030 00380240 		.word	1073887232
 2047 0034 00200240 		.word	1073881088
 2048 0038 00040240 		.word	1073873920
 2049              		.cfi_endproc
 2050              	.LFE153:
 2052              		.section	.text.HAL_UART_MspInit,"ax",%progbits
 2053              		.align	1
 2054              		.global	HAL_UART_MspInit
 2055              		.syntax unified
 2056              		.thumb
ARM GAS  C:\Users\jisu8\AppData\Local\Temp\cc20AWwL.s 			page 66


 2057              		.thumb_func
 2059              	HAL_UART_MspInit:
 2060              	.LVL108:
 2061              	.LFB154:
 749:Core/Src/stm32f7xx_hal_msp.c ****   GPIO_InitTypeDef GPIO_InitStruct = {0};
 2062              		.loc 1 749 1 is_stmt 1 view -0
 2063              		.cfi_startproc
 2064              		@ args = 0, pretend = 0, frame = 176
 2065              		@ frame_needed = 0, uses_anonymous_args = 0
 749:Core/Src/stm32f7xx_hal_msp.c ****   GPIO_InitTypeDef GPIO_InitStruct = {0};
 2066              		.loc 1 749 1 is_stmt 0 view .LVU620
 2067 0000 70B5     		push	{r4, r5, r6, lr}
 2068              	.LCFI35:
 2069              		.cfi_def_cfa_offset 16
 2070              		.cfi_offset 4, -16
 2071              		.cfi_offset 5, -12
 2072              		.cfi_offset 6, -8
 2073              		.cfi_offset 14, -4
 2074 0002 ACB0     		sub	sp, sp, #176
 2075              	.LCFI36:
 2076              		.cfi_def_cfa_offset 192
 2077 0004 0446     		mov	r4, r0
 750:Core/Src/stm32f7xx_hal_msp.c ****   RCC_PeriphCLKInitTypeDef PeriphClkInitStruct = {0};
 2078              		.loc 1 750 3 is_stmt 1 view .LVU621
 750:Core/Src/stm32f7xx_hal_msp.c ****   RCC_PeriphCLKInitTypeDef PeriphClkInitStruct = {0};
 2079              		.loc 1 750 20 is_stmt 0 view .LVU622
 2080 0006 0021     		movs	r1, #0
 2081 0008 2791     		str	r1, [sp, #156]
 2082 000a 2891     		str	r1, [sp, #160]
 2083 000c 2991     		str	r1, [sp, #164]
 2084 000e 2A91     		str	r1, [sp, #168]
 2085 0010 2B91     		str	r1, [sp, #172]
 751:Core/Src/stm32f7xx_hal_msp.c ****   if(huart->Instance==USART1)
 2086              		.loc 1 751 3 is_stmt 1 view .LVU623
 751:Core/Src/stm32f7xx_hal_msp.c ****   if(huart->Instance==USART1)
 2087              		.loc 1 751 28 is_stmt 0 view .LVU624
 2088 0012 8422     		movs	r2, #132
 2089 0014 06A8     		add	r0, sp, #24
 2090              	.LVL109:
 751:Core/Src/stm32f7xx_hal_msp.c ****   if(huart->Instance==USART1)
 2091              		.loc 1 751 28 view .LVU625
 2092 0016 FFF7FEFF 		bl	memset
 2093              	.LVL110:
 752:Core/Src/stm32f7xx_hal_msp.c ****   {
 2094              		.loc 1 752 3 is_stmt 1 view .LVU626
 752:Core/Src/stm32f7xx_hal_msp.c ****   {
 2095              		.loc 1 752 11 is_stmt 0 view .LVU627
 2096 001a 2368     		ldr	r3, [r4]
 752:Core/Src/stm32f7xx_hal_msp.c ****   {
 2097              		.loc 1 752 5 view .LVU628
 2098 001c 394A     		ldr	r2, .L117
 2099 001e 9342     		cmp	r3, r2
 2100 0020 04D0     		beq	.L113
 794:Core/Src/stm32f7xx_hal_msp.c ****   {
 2101              		.loc 1 794 8 is_stmt 1 view .LVU629
 794:Core/Src/stm32f7xx_hal_msp.c ****   {
 2102              		.loc 1 794 10 is_stmt 0 view .LVU630
ARM GAS  C:\Users\jisu8\AppData\Local\Temp\cc20AWwL.s 			page 67


 2103 0022 394A     		ldr	r2, .L117+4
 2104 0024 9342     		cmp	r3, r2
 2105 0026 40D0     		beq	.L114
 2106              	.LVL111:
 2107              	.L107:
 829:Core/Src/stm32f7xx_hal_msp.c **** 
 2108              		.loc 1 829 1 view .LVU631
 2109 0028 2CB0     		add	sp, sp, #176
 2110              	.LCFI37:
 2111              		.cfi_remember_state
 2112              		.cfi_def_cfa_offset 16
 2113              		@ sp needed
 2114 002a 70BD     		pop	{r4, r5, r6, pc}
 2115              	.LVL112:
 2116              	.L113:
 2117              	.LCFI38:
 2118              		.cfi_restore_state
 760:Core/Src/stm32f7xx_hal_msp.c ****     PeriphClkInitStruct.Usart1ClockSelection = RCC_USART1CLKSOURCE_PCLK2;
 2119              		.loc 1 760 5 is_stmt 1 view .LVU632
 760:Core/Src/stm32f7xx_hal_msp.c ****     PeriphClkInitStruct.Usart1ClockSelection = RCC_USART1CLKSOURCE_PCLK2;
 2120              		.loc 1 760 46 is_stmt 0 view .LVU633
 2121 002c 4023     		movs	r3, #64
 2122 002e 0693     		str	r3, [sp, #24]
 761:Core/Src/stm32f7xx_hal_msp.c ****     if (HAL_RCCEx_PeriphCLKConfig(&PeriphClkInitStruct) != HAL_OK)
 2123              		.loc 1 761 5 is_stmt 1 view .LVU634
 762:Core/Src/stm32f7xx_hal_msp.c ****     {
 2124              		.loc 1 762 5 view .LVU635
 762:Core/Src/stm32f7xx_hal_msp.c ****     {
 2125              		.loc 1 762 9 is_stmt 0 view .LVU636
 2126 0030 06A8     		add	r0, sp, #24
 2127 0032 FFF7FEFF 		bl	HAL_RCCEx_PeriphCLKConfig
 2128              	.LVL113:
 762:Core/Src/stm32f7xx_hal_msp.c ****     {
 2129              		.loc 1 762 8 view .LVU637
 2130 0036 0028     		cmp	r0, #0
 2131 0038 34D1     		bne	.L115
 2132              	.L109:
 768:Core/Src/stm32f7xx_hal_msp.c **** 
 2133              		.loc 1 768 5 is_stmt 1 view .LVU638
 2134              	.LBB26:
 768:Core/Src/stm32f7xx_hal_msp.c **** 
 2135              		.loc 1 768 5 view .LVU639
 768:Core/Src/stm32f7xx_hal_msp.c **** 
 2136              		.loc 1 768 5 view .LVU640
 2137 003a 344B     		ldr	r3, .L117+8
 2138 003c 5A6C     		ldr	r2, [r3, #68]
 2139 003e 42F01002 		orr	r2, r2, #16
 2140 0042 5A64     		str	r2, [r3, #68]
 768:Core/Src/stm32f7xx_hal_msp.c **** 
 2141              		.loc 1 768 5 view .LVU641
 2142 0044 5A6C     		ldr	r2, [r3, #68]
 2143 0046 02F01002 		and	r2, r2, #16
 2144 004a 0192     		str	r2, [sp, #4]
 768:Core/Src/stm32f7xx_hal_msp.c **** 
 2145              		.loc 1 768 5 view .LVU642
 2146 004c 019A     		ldr	r2, [sp, #4]
 2147              	.LBE26:
ARM GAS  C:\Users\jisu8\AppData\Local\Temp\cc20AWwL.s 			page 68


 768:Core/Src/stm32f7xx_hal_msp.c **** 
 2148              		.loc 1 768 5 view .LVU643
 770:Core/Src/stm32f7xx_hal_msp.c ****     __HAL_RCC_GPIOA_CLK_ENABLE();
 2149              		.loc 1 770 5 view .LVU644
 2150              	.LBB27:
 770:Core/Src/stm32f7xx_hal_msp.c ****     __HAL_RCC_GPIOA_CLK_ENABLE();
 2151              		.loc 1 770 5 view .LVU645
 770:Core/Src/stm32f7xx_hal_msp.c ****     __HAL_RCC_GPIOA_CLK_ENABLE();
 2152              		.loc 1 770 5 view .LVU646
 2153 004e 1A6B     		ldr	r2, [r3, #48]
 2154 0050 42F00202 		orr	r2, r2, #2
 2155 0054 1A63     		str	r2, [r3, #48]
 770:Core/Src/stm32f7xx_hal_msp.c ****     __HAL_RCC_GPIOA_CLK_ENABLE();
 2156              		.loc 1 770 5 view .LVU647
 2157 0056 1A6B     		ldr	r2, [r3, #48]
 2158 0058 02F00202 		and	r2, r2, #2
 2159 005c 0292     		str	r2, [sp, #8]
 770:Core/Src/stm32f7xx_hal_msp.c ****     __HAL_RCC_GPIOA_CLK_ENABLE();
 2160              		.loc 1 770 5 view .LVU648
 2161 005e 029A     		ldr	r2, [sp, #8]
 2162              	.LBE27:
 770:Core/Src/stm32f7xx_hal_msp.c ****     __HAL_RCC_GPIOA_CLK_ENABLE();
 2163              		.loc 1 770 5 view .LVU649
 771:Core/Src/stm32f7xx_hal_msp.c ****     /**USART1 GPIO Configuration
 2164              		.loc 1 771 5 view .LVU650
 2165              	.LBB28:
 771:Core/Src/stm32f7xx_hal_msp.c ****     /**USART1 GPIO Configuration
 2166              		.loc 1 771 5 view .LVU651
 771:Core/Src/stm32f7xx_hal_msp.c ****     /**USART1 GPIO Configuration
 2167              		.loc 1 771 5 view .LVU652
 2168 0060 1A6B     		ldr	r2, [r3, #48]
 2169 0062 42F00102 		orr	r2, r2, #1
 2170 0066 1A63     		str	r2, [r3, #48]
 771:Core/Src/stm32f7xx_hal_msp.c ****     /**USART1 GPIO Configuration
 2171              		.loc 1 771 5 view .LVU653
 2172 0068 1B6B     		ldr	r3, [r3, #48]
 2173 006a 03F00103 		and	r3, r3, #1
 2174 006e 0393     		str	r3, [sp, #12]
 771:Core/Src/stm32f7xx_hal_msp.c ****     /**USART1 GPIO Configuration
 2175              		.loc 1 771 5 view .LVU654
 2176 0070 039B     		ldr	r3, [sp, #12]
 2177              	.LBE28:
 771:Core/Src/stm32f7xx_hal_msp.c ****     /**USART1 GPIO Configuration
 2178              		.loc 1 771 5 view .LVU655
 776:Core/Src/stm32f7xx_hal_msp.c ****     GPIO_InitStruct.Mode = GPIO_MODE_AF_PP;
 2179              		.loc 1 776 5 view .LVU656
 776:Core/Src/stm32f7xx_hal_msp.c ****     GPIO_InitStruct.Mode = GPIO_MODE_AF_PP;
 2180              		.loc 1 776 25 is_stmt 0 view .LVU657
 2181 0072 8023     		movs	r3, #128
 2182 0074 2793     		str	r3, [sp, #156]
 777:Core/Src/stm32f7xx_hal_msp.c ****     GPIO_InitStruct.Pull = GPIO_NOPULL;
 2183              		.loc 1 777 5 is_stmt 1 view .LVU658
 777:Core/Src/stm32f7xx_hal_msp.c ****     GPIO_InitStruct.Pull = GPIO_NOPULL;
 2184              		.loc 1 777 26 is_stmt 0 view .LVU659
 2185 0076 0226     		movs	r6, #2
 2186 0078 2896     		str	r6, [sp, #160]
 778:Core/Src/stm32f7xx_hal_msp.c ****     GPIO_InitStruct.Speed = GPIO_SPEED_FREQ_LOW;
ARM GAS  C:\Users\jisu8\AppData\Local\Temp\cc20AWwL.s 			page 69


 2187              		.loc 1 778 5 is_stmt 1 view .LVU660
 778:Core/Src/stm32f7xx_hal_msp.c ****     GPIO_InitStruct.Speed = GPIO_SPEED_FREQ_LOW;
 2188              		.loc 1 778 26 is_stmt 0 view .LVU661
 2189 007a 0024     		movs	r4, #0
 2190              	.LVL114:
 778:Core/Src/stm32f7xx_hal_msp.c ****     GPIO_InitStruct.Speed = GPIO_SPEED_FREQ_LOW;
 2191              		.loc 1 778 26 view .LVU662
 2192 007c 2994     		str	r4, [sp, #164]
 779:Core/Src/stm32f7xx_hal_msp.c ****     GPIO_InitStruct.Alternate = GPIO_AF7_USART1;
 2193              		.loc 1 779 5 is_stmt 1 view .LVU663
 779:Core/Src/stm32f7xx_hal_msp.c ****     GPIO_InitStruct.Alternate = GPIO_AF7_USART1;
 2194              		.loc 1 779 27 is_stmt 0 view .LVU664
 2195 007e 2A94     		str	r4, [sp, #168]
 780:Core/Src/stm32f7xx_hal_msp.c ****     HAL_GPIO_Init(VCP_RX_GPIO_Port, &GPIO_InitStruct);
 2196              		.loc 1 780 5 is_stmt 1 view .LVU665
 780:Core/Src/stm32f7xx_hal_msp.c ****     HAL_GPIO_Init(VCP_RX_GPIO_Port, &GPIO_InitStruct);
 2197              		.loc 1 780 31 is_stmt 0 view .LVU666
 2198 0080 0725     		movs	r5, #7
 2199 0082 2B95     		str	r5, [sp, #172]
 781:Core/Src/stm32f7xx_hal_msp.c **** 
 2200              		.loc 1 781 5 is_stmt 1 view .LVU667
 2201 0084 27A9     		add	r1, sp, #156
 2202 0086 2248     		ldr	r0, .L117+12
 2203 0088 FFF7FEFF 		bl	HAL_GPIO_Init
 2204              	.LVL115:
 783:Core/Src/stm32f7xx_hal_msp.c ****     GPIO_InitStruct.Mode = GPIO_MODE_AF_PP;
 2205              		.loc 1 783 5 view .LVU668
 783:Core/Src/stm32f7xx_hal_msp.c ****     GPIO_InitStruct.Mode = GPIO_MODE_AF_PP;
 2206              		.loc 1 783 25 is_stmt 0 view .LVU669
 2207 008c 4FF40073 		mov	r3, #512
 2208 0090 2793     		str	r3, [sp, #156]
 784:Core/Src/stm32f7xx_hal_msp.c ****     GPIO_InitStruct.Pull = GPIO_NOPULL;
 2209              		.loc 1 784 5 is_stmt 1 view .LVU670
 784:Core/Src/stm32f7xx_hal_msp.c ****     GPIO_InitStruct.Pull = GPIO_NOPULL;
 2210              		.loc 1 784 26 is_stmt 0 view .LVU671
 2211 0092 2896     		str	r6, [sp, #160]
 785:Core/Src/stm32f7xx_hal_msp.c ****     GPIO_InitStruct.Speed = GPIO_SPEED_FREQ_LOW;
 2212              		.loc 1 785 5 is_stmt 1 view .LVU672
 785:Core/Src/stm32f7xx_hal_msp.c ****     GPIO_InitStruct.Speed = GPIO_SPEED_FREQ_LOW;
 2213              		.loc 1 785 26 is_stmt 0 view .LVU673
 2214 0094 2994     		str	r4, [sp, #164]
 786:Core/Src/stm32f7xx_hal_msp.c ****     GPIO_InitStruct.Alternate = GPIO_AF7_USART1;
 2215              		.loc 1 786 5 is_stmt 1 view .LVU674
 786:Core/Src/stm32f7xx_hal_msp.c ****     GPIO_InitStruct.Alternate = GPIO_AF7_USART1;
 2216              		.loc 1 786 27 is_stmt 0 view .LVU675
 2217 0096 2A94     		str	r4, [sp, #168]
 787:Core/Src/stm32f7xx_hal_msp.c ****     HAL_GPIO_Init(VCP_TX_GPIO_Port, &GPIO_InitStruct);
 2218              		.loc 1 787 5 is_stmt 1 view .LVU676
 787:Core/Src/stm32f7xx_hal_msp.c ****     HAL_GPIO_Init(VCP_TX_GPIO_Port, &GPIO_InitStruct);
 2219              		.loc 1 787 31 is_stmt 0 view .LVU677
 2220 0098 2B95     		str	r5, [sp, #172]
 788:Core/Src/stm32f7xx_hal_msp.c **** 
 2221              		.loc 1 788 5 is_stmt 1 view .LVU678
 2222 009a 27A9     		add	r1, sp, #156
 2223 009c 1D48     		ldr	r0, .L117+16
 2224 009e FFF7FEFF 		bl	HAL_GPIO_Init
 2225              	.LVL116:
ARM GAS  C:\Users\jisu8\AppData\Local\Temp\cc20AWwL.s 			page 70


 2226 00a2 C1E7     		b	.L107
 2227              	.LVL117:
 2228              	.L115:
 764:Core/Src/stm32f7xx_hal_msp.c ****     }
 2229              		.loc 1 764 7 view .LVU679
 2230 00a4 FFF7FEFF 		bl	Error_Handler
 2231              	.LVL118:
 2232 00a8 C7E7     		b	.L109
 2233              	.L114:
 802:Core/Src/stm32f7xx_hal_msp.c ****     PeriphClkInitStruct.Usart6ClockSelection = RCC_USART6CLKSOURCE_PCLK2;
 2234              		.loc 1 802 5 view .LVU680
 802:Core/Src/stm32f7xx_hal_msp.c ****     PeriphClkInitStruct.Usart6ClockSelection = RCC_USART6CLKSOURCE_PCLK2;
 2235              		.loc 1 802 46 is_stmt 0 view .LVU681
 2236 00aa 4FF40063 		mov	r3, #2048
 2237 00ae 0693     		str	r3, [sp, #24]
 803:Core/Src/stm32f7xx_hal_msp.c ****     if (HAL_RCCEx_PeriphCLKConfig(&PeriphClkInitStruct) != HAL_OK)
 2238              		.loc 1 803 5 is_stmt 1 view .LVU682
 804:Core/Src/stm32f7xx_hal_msp.c ****     {
 2239              		.loc 1 804 5 view .LVU683
 804:Core/Src/stm32f7xx_hal_msp.c ****     {
 2240              		.loc 1 804 9 is_stmt 0 view .LVU684
 2241 00b0 06A8     		add	r0, sp, #24
 2242 00b2 FFF7FEFF 		bl	HAL_RCCEx_PeriphCLKConfig
 2243              	.LVL119:
 804:Core/Src/stm32f7xx_hal_msp.c ****     {
 2244              		.loc 1 804 8 view .LVU685
 2245 00b6 08BB     		cbnz	r0, .L116
 2246              	.L111:
 810:Core/Src/stm32f7xx_hal_msp.c **** 
 2247              		.loc 1 810 5 is_stmt 1 view .LVU686
 2248              	.LBB29:
 810:Core/Src/stm32f7xx_hal_msp.c **** 
 2249              		.loc 1 810 5 view .LVU687
 810:Core/Src/stm32f7xx_hal_msp.c **** 
 2250              		.loc 1 810 5 view .LVU688
 2251 00b8 144B     		ldr	r3, .L117+8
 2252 00ba 5A6C     		ldr	r2, [r3, #68]
 2253 00bc 42F02002 		orr	r2, r2, #32
 2254 00c0 5A64     		str	r2, [r3, #68]
 810:Core/Src/stm32f7xx_hal_msp.c **** 
 2255              		.loc 1 810 5 view .LVU689
 2256 00c2 5A6C     		ldr	r2, [r3, #68]
 2257 00c4 02F02002 		and	r2, r2, #32
 2258 00c8 0492     		str	r2, [sp, #16]
 810:Core/Src/stm32f7xx_hal_msp.c **** 
 2259              		.loc 1 810 5 view .LVU690
 2260 00ca 049A     		ldr	r2, [sp, #16]
 2261              	.LBE29:
 810:Core/Src/stm32f7xx_hal_msp.c **** 
 2262              		.loc 1 810 5 view .LVU691
 812:Core/Src/stm32f7xx_hal_msp.c ****     /**USART6 GPIO Configuration
 2263              		.loc 1 812 5 view .LVU692
 2264              	.LBB30:
 812:Core/Src/stm32f7xx_hal_msp.c ****     /**USART6 GPIO Configuration
 2265              		.loc 1 812 5 view .LVU693
 812:Core/Src/stm32f7xx_hal_msp.c ****     /**USART6 GPIO Configuration
 2266              		.loc 1 812 5 view .LVU694
ARM GAS  C:\Users\jisu8\AppData\Local\Temp\cc20AWwL.s 			page 71


 2267 00cc 1A6B     		ldr	r2, [r3, #48]
 2268 00ce 42F00402 		orr	r2, r2, #4
 2269 00d2 1A63     		str	r2, [r3, #48]
 812:Core/Src/stm32f7xx_hal_msp.c ****     /**USART6 GPIO Configuration
 2270              		.loc 1 812 5 view .LVU695
 2271 00d4 1B6B     		ldr	r3, [r3, #48]
 2272 00d6 03F00403 		and	r3, r3, #4
 2273 00da 0593     		str	r3, [sp, #20]
 812:Core/Src/stm32f7xx_hal_msp.c ****     /**USART6 GPIO Configuration
 2274              		.loc 1 812 5 view .LVU696
 2275 00dc 059B     		ldr	r3, [sp, #20]
 2276              	.LBE30:
 812:Core/Src/stm32f7xx_hal_msp.c ****     /**USART6 GPIO Configuration
 2277              		.loc 1 812 5 view .LVU697
 817:Core/Src/stm32f7xx_hal_msp.c ****     GPIO_InitStruct.Mode = GPIO_MODE_AF_PP;
 2278              		.loc 1 817 5 view .LVU698
 817:Core/Src/stm32f7xx_hal_msp.c ****     GPIO_InitStruct.Mode = GPIO_MODE_AF_PP;
 2279              		.loc 1 817 25 is_stmt 0 view .LVU699
 2280 00de C023     		movs	r3, #192
 2281 00e0 2793     		str	r3, [sp, #156]
 818:Core/Src/stm32f7xx_hal_msp.c ****     GPIO_InitStruct.Pull = GPIO_NOPULL;
 2282              		.loc 1 818 5 is_stmt 1 view .LVU700
 818:Core/Src/stm32f7xx_hal_msp.c ****     GPIO_InitStruct.Pull = GPIO_NOPULL;
 2283              		.loc 1 818 26 is_stmt 0 view .LVU701
 2284 00e2 0223     		movs	r3, #2
 2285 00e4 2893     		str	r3, [sp, #160]
 819:Core/Src/stm32f7xx_hal_msp.c ****     GPIO_InitStruct.Speed = GPIO_SPEED_FREQ_VERY_HIGH;
 2286              		.loc 1 819 5 is_stmt 1 view .LVU702
 819:Core/Src/stm32f7xx_hal_msp.c ****     GPIO_InitStruct.Speed = GPIO_SPEED_FREQ_VERY_HIGH;
 2287              		.loc 1 819 26 is_stmt 0 view .LVU703
 2288 00e6 0023     		movs	r3, #0
 2289 00e8 2993     		str	r3, [sp, #164]
 820:Core/Src/stm32f7xx_hal_msp.c ****     GPIO_InitStruct.Alternate = GPIO_AF8_USART6;
 2290              		.loc 1 820 5 is_stmt 1 view .LVU704
 820:Core/Src/stm32f7xx_hal_msp.c ****     GPIO_InitStruct.Alternate = GPIO_AF8_USART6;
 2291              		.loc 1 820 27 is_stmt 0 view .LVU705
 2292 00ea 0323     		movs	r3, #3
 2293 00ec 2A93     		str	r3, [sp, #168]
 821:Core/Src/stm32f7xx_hal_msp.c ****     HAL_GPIO_Init(GPIOC, &GPIO_InitStruct);
 2294              		.loc 1 821 5 is_stmt 1 view .LVU706
 821:Core/Src/stm32f7xx_hal_msp.c ****     HAL_GPIO_Init(GPIOC, &GPIO_InitStruct);
 2295              		.loc 1 821 31 is_stmt 0 view .LVU707
 2296 00ee 0823     		movs	r3, #8
 2297 00f0 2B93     		str	r3, [sp, #172]
 822:Core/Src/stm32f7xx_hal_msp.c **** 
 2298              		.loc 1 822 5 is_stmt 1 view .LVU708
 2299 00f2 27A9     		add	r1, sp, #156
 2300 00f4 0848     		ldr	r0, .L117+20
 2301 00f6 FFF7FEFF 		bl	HAL_GPIO_Init
 2302              	.LVL120:
 829:Core/Src/stm32f7xx_hal_msp.c **** 
 2303              		.loc 1 829 1 is_stmt 0 view .LVU709
 2304 00fa 95E7     		b	.L107
 2305              	.L116:
 806:Core/Src/stm32f7xx_hal_msp.c ****     }
 2306              		.loc 1 806 7 is_stmt 1 view .LVU710
 2307 00fc FFF7FEFF 		bl	Error_Handler
ARM GAS  C:\Users\jisu8\AppData\Local\Temp\cc20AWwL.s 			page 72


 2308              	.LVL121:
 2309 0100 DAE7     		b	.L111
 2310              	.L118:
 2311 0102 00BF     		.align	2
 2312              	.L117:
 2313 0104 00100140 		.word	1073811456
 2314 0108 00140140 		.word	1073812480
 2315 010c 00380240 		.word	1073887232
 2316 0110 00040240 		.word	1073873920
 2317 0114 00000240 		.word	1073872896
 2318 0118 00080240 		.word	1073874944
 2319              		.cfi_endproc
 2320              	.LFE154:
 2322              		.section	.text.HAL_UART_MspDeInit,"ax",%progbits
 2323              		.align	1
 2324              		.global	HAL_UART_MspDeInit
 2325              		.syntax unified
 2326              		.thumb
 2327              		.thumb_func
 2329              	HAL_UART_MspDeInit:
 2330              	.LVL122:
 2331              	.LFB155:
 838:Core/Src/stm32f7xx_hal_msp.c ****   if(huart->Instance==USART1)
 2332              		.loc 1 838 1 view -0
 2333              		.cfi_startproc
 2334              		@ args = 0, pretend = 0, frame = 0
 2335              		@ frame_needed = 0, uses_anonymous_args = 0
 838:Core/Src/stm32f7xx_hal_msp.c ****   if(huart->Instance==USART1)
 2336              		.loc 1 838 1 is_stmt 0 view .LVU712
 2337 0000 08B5     		push	{r3, lr}
 2338              	.LCFI39:
 2339              		.cfi_def_cfa_offset 8
 2340              		.cfi_offset 3, -8
 2341              		.cfi_offset 14, -4
 839:Core/Src/stm32f7xx_hal_msp.c ****   {
 2342              		.loc 1 839 3 is_stmt 1 view .LVU713
 839:Core/Src/stm32f7xx_hal_msp.c ****   {
 2343              		.loc 1 839 11 is_stmt 0 view .LVU714
 2344 0002 0368     		ldr	r3, [r0]
 839:Core/Src/stm32f7xx_hal_msp.c ****   {
 2345              		.loc 1 839 5 view .LVU715
 2346 0004 104A     		ldr	r2, .L125
 2347 0006 9342     		cmp	r3, r2
 2348 0008 03D0     		beq	.L123
 859:Core/Src/stm32f7xx_hal_msp.c ****   {
 2349              		.loc 1 859 8 is_stmt 1 view .LVU716
 859:Core/Src/stm32f7xx_hal_msp.c ****   {
 2350              		.loc 1 859 10 is_stmt 0 view .LVU717
 2351 000a 104A     		ldr	r2, .L125+4
 2352 000c 9342     		cmp	r3, r2
 2353 000e 10D0     		beq	.L124
 2354              	.LVL123:
 2355              	.L119:
 878:Core/Src/stm32f7xx_hal_msp.c **** 
 2356              		.loc 1 878 1 view .LVU718
 2357 0010 08BD     		pop	{r3, pc}
 2358              	.LVL124:
ARM GAS  C:\Users\jisu8\AppData\Local\Temp\cc20AWwL.s 			page 73


 2359              	.L123:
 845:Core/Src/stm32f7xx_hal_msp.c **** 
 2360              		.loc 1 845 5 is_stmt 1 view .LVU719
 2361 0012 02F59432 		add	r2, r2, #75776
 2362 0016 536C     		ldr	r3, [r2, #68]
 2363 0018 23F01003 		bic	r3, r3, #16
 2364 001c 5364     		str	r3, [r2, #68]
 851:Core/Src/stm32f7xx_hal_msp.c **** 
 2365              		.loc 1 851 5 view .LVU720
 2366 001e 8021     		movs	r1, #128
 2367 0020 0B48     		ldr	r0, .L125+8
 2368              	.LVL125:
 851:Core/Src/stm32f7xx_hal_msp.c **** 
 2369              		.loc 1 851 5 is_stmt 0 view .LVU721
 2370 0022 FFF7FEFF 		bl	HAL_GPIO_DeInit
 2371              	.LVL126:
 853:Core/Src/stm32f7xx_hal_msp.c **** 
 2372              		.loc 1 853 5 is_stmt 1 view .LVU722
 2373 0026 4FF40071 		mov	r1, #512
 2374 002a 0A48     		ldr	r0, .L125+12
 2375 002c FFF7FEFF 		bl	HAL_GPIO_DeInit
 2376              	.LVL127:
 2377 0030 EEE7     		b	.L119
 2378              	.LVL128:
 2379              	.L124:
 865:Core/Src/stm32f7xx_hal_msp.c **** 
 2380              		.loc 1 865 5 view .LVU723
 2381 0032 02F59232 		add	r2, r2, #74752
 2382 0036 536C     		ldr	r3, [r2, #68]
 2383 0038 23F02003 		bic	r3, r3, #32
 2384 003c 5364     		str	r3, [r2, #68]
 871:Core/Src/stm32f7xx_hal_msp.c **** 
 2385              		.loc 1 871 5 view .LVU724
 2386 003e C021     		movs	r1, #192
 2387 0040 0548     		ldr	r0, .L125+16
 2388              	.LVL129:
 871:Core/Src/stm32f7xx_hal_msp.c **** 
 2389              		.loc 1 871 5 is_stmt 0 view .LVU725
 2390 0042 FFF7FEFF 		bl	HAL_GPIO_DeInit
 2391              	.LVL130:
 878:Core/Src/stm32f7xx_hal_msp.c **** 
 2392              		.loc 1 878 1 view .LVU726
 2393 0046 E3E7     		b	.L119
 2394              	.L126:
 2395              		.align	2
 2396              	.L125:
 2397 0048 00100140 		.word	1073811456
 2398 004c 00140140 		.word	1073812480
 2399 0050 00040240 		.word	1073873920
 2400 0054 00000240 		.word	1073872896
 2401 0058 00080240 		.word	1073874944
 2402              		.cfi_endproc
 2403              	.LFE155:
 2405              		.section	.text.HAL_SDRAM_MspInit,"ax",%progbits
 2406              		.align	1
 2407              		.global	HAL_SDRAM_MspInit
 2408              		.syntax unified
ARM GAS  C:\Users\jisu8\AppData\Local\Temp\cc20AWwL.s 			page 74


 2409              		.thumb
 2410              		.thumb_func
 2412              	HAL_SDRAM_MspInit:
 2413              	.LVL131:
 2414              	.LFB157:
 988:Core/Src/stm32f7xx_hal_msp.c ****   /* USER CODE BEGIN SDRAM_MspInit 0 */
 2415              		.loc 1 988 52 is_stmt 1 view -0
 2416              		.cfi_startproc
 2417              		@ args = 0, pretend = 0, frame = 0
 2418              		@ frame_needed = 0, uses_anonymous_args = 0
 988:Core/Src/stm32f7xx_hal_msp.c ****   /* USER CODE BEGIN SDRAM_MspInit 0 */
 2419              		.loc 1 988 52 is_stmt 0 view .LVU728
 2420 0000 08B5     		push	{r3, lr}
 2421              	.LCFI40:
 2422              		.cfi_def_cfa_offset 8
 2423              		.cfi_offset 3, -8
 2424              		.cfi_offset 14, -4
 992:Core/Src/stm32f7xx_hal_msp.c ****   /* USER CODE BEGIN SDRAM_MspInit 1 */
 2425              		.loc 1 992 3 is_stmt 1 view .LVU729
 2426 0002 FFF7FEFF 		bl	HAL_FMC_MspInit
 2427              	.LVL132:
 996:Core/Src/stm32f7xx_hal_msp.c **** 
 2428              		.loc 1 996 1 is_stmt 0 view .LVU730
 2429 0006 08BD     		pop	{r3, pc}
 2430              		.cfi_endproc
 2431              	.LFE157:
 2433              		.section	.text.HAL_SDRAM_MspDeInit,"ax",%progbits
 2434              		.align	1
 2435              		.global	HAL_SDRAM_MspDeInit
 2436              		.syntax unified
 2437              		.thumb
 2438              		.thumb_func
 2440              	HAL_SDRAM_MspDeInit:
 2441              	.LVL133:
 2442              	.LFB159:
1073:Core/Src/stm32f7xx_hal_msp.c **** 
1074:Core/Src/stm32f7xx_hal_msp.c **** void HAL_SDRAM_MspDeInit(SDRAM_HandleTypeDef* hsdram){
 2443              		.loc 1 1074 54 is_stmt 1 view -0
 2444              		.cfi_startproc
 2445              		@ args = 0, pretend = 0, frame = 0
 2446              		@ frame_needed = 0, uses_anonymous_args = 0
 2447              		.loc 1 1074 54 is_stmt 0 view .LVU732
 2448 0000 08B5     		push	{r3, lr}
 2449              	.LCFI41:
 2450              		.cfi_def_cfa_offset 8
 2451              		.cfi_offset 3, -8
 2452              		.cfi_offset 14, -4
1075:Core/Src/stm32f7xx_hal_msp.c ****   /* USER CODE BEGIN SDRAM_MspDeInit 0 */
1076:Core/Src/stm32f7xx_hal_msp.c **** 
1077:Core/Src/stm32f7xx_hal_msp.c ****   /* USER CODE END SDRAM_MspDeInit 0 */
1078:Core/Src/stm32f7xx_hal_msp.c ****   HAL_FMC_MspDeInit();
 2453              		.loc 1 1078 3 is_stmt 1 view .LVU733
 2454 0002 FFF7FEFF 		bl	HAL_FMC_MspDeInit
 2455              	.LVL134:
1079:Core/Src/stm32f7xx_hal_msp.c ****   /* USER CODE BEGIN SDRAM_MspDeInit 1 */
1080:Core/Src/stm32f7xx_hal_msp.c **** 
1081:Core/Src/stm32f7xx_hal_msp.c ****   /* USER CODE END SDRAM_MspDeInit 1 */
ARM GAS  C:\Users\jisu8\AppData\Local\Temp\cc20AWwL.s 			page 75


1082:Core/Src/stm32f7xx_hal_msp.c **** }
 2456              		.loc 1 1082 1 is_stmt 0 view .LVU734
 2457 0006 08BD     		pop	{r3, pc}
 2458              		.cfi_endproc
 2459              	.LFE159:
 2461              		.section	.bss.FMC_DeInitialized,"aw",%nobits
 2462              		.align	2
 2463              		.set	.LANCHOR1,. + 0
 2466              	FMC_DeInitialized:
 2467 0000 00000000 		.space	4
 2468              		.section	.bss.FMC_Initialized,"aw",%nobits
 2469              		.align	2
 2470              		.set	.LANCHOR0,. + 0
 2473              	FMC_Initialized:
 2474 0000 00000000 		.space	4
 2475              		.text
 2476              	.Letext0:
 2477              		.file 2 "d:\\3.tools\\arm_gcc_toolchain\\arm-none-eabi\\include\\machine\\_default_types.h"
 2478              		.file 3 "d:\\3.tools\\arm_gcc_toolchain\\arm-none-eabi\\include\\sys\\_stdint.h"
 2479              		.file 4 "Drivers/CMSIS/Device/ST/STM32F7xx/Include/stm32f746xx.h"
 2480              		.file 5 "Drivers/STM32F7xx_HAL_Driver/Inc/stm32f7xx_hal_def.h"
 2481              		.file 6 "Drivers/STM32F7xx_HAL_Driver/Inc/stm32f7xx_hal_rcc_ex.h"
 2482              		.file 7 "Drivers/STM32F7xx_HAL_Driver/Inc/stm32f7xx_hal_gpio.h"
 2483              		.file 8 "Drivers/STM32F7xx_HAL_Driver/Inc/stm32f7xx_hal_dma.h"
 2484              		.file 9 "Drivers/STM32F7xx_HAL_Driver/Inc/stm32f7xx_hal_crc.h"
 2485              		.file 10 "Drivers/STM32F7xx_HAL_Driver/Inc/stm32f7xx_ll_fmc.h"
 2486              		.file 11 "Drivers/STM32F7xx_HAL_Driver/Inc/stm32f7xx_hal_sdram.h"
 2487              		.file 12 "Drivers/STM32F7xx_HAL_Driver/Inc/stm32f7xx_hal_i2c.h"
 2488              		.file 13 "Drivers/STM32F7xx_HAL_Driver/Inc/stm32f7xx_hal_ltdc.h"
 2489              		.file 14 "Drivers/STM32F7xx_HAL_Driver/Inc/stm32f7xx_hal_qspi.h"
 2490              		.file 15 "Drivers/STM32F7xx_HAL_Driver/Inc/stm32f7xx_ll_sdmmc.h"
 2491              		.file 16 "Drivers/STM32F7xx_HAL_Driver/Inc/stm32f7xx_hal_sd.h"
 2492              		.file 17 "Drivers/STM32F7xx_HAL_Driver/Inc/stm32f7xx_hal_spi.h"
 2493              		.file 18 "Drivers/STM32F7xx_HAL_Driver/Inc/stm32f7xx_hal_uart.h"
 2494              		.file 19 "Core/Inc/main.h"
 2495              		.file 20 "Drivers/STM32F7xx_HAL_Driver/Inc/stm32f7xx_hal_cortex.h"
 2496              		.file 21 "<built-in>"
ARM GAS  C:\Users\jisu8\AppData\Local\Temp\cc20AWwL.s 			page 76

