ARM GAS  C:\Users\jisu8\AppData\Local\Temp\ccieva3z.s 			page 1


   1              		.cpu cortex-m7
   2              		.arch armv7e-m
   3              		.fpu fpv5-sp-d16
   4              		.eabi_attribute 27, 1
   5              		.eabi_attribute 28, 1
   6              		.eabi_attribute 20, 1
   7              		.eabi_attribute 21, 1
   8              		.eabi_attribute 23, 3
   9              		.eabi_attribute 24, 1
  10              		.eabi_attribute 25, 1
  11              		.eabi_attribute 26, 1
  12              		.eabi_attribute 30, 1
  13              		.eabi_attribute 34, 1
  14              		.eabi_attribute 18, 4
  15              		.file	"stm32746g_discovery_lcd.c"
  16              		.text
  17              	.Ltext0:
  18              		.cfi_sections	.debug_frame
  19              		.section	.text.LL_FillBuffer,"ax",%progbits
  20              		.align	1
  21              		.syntax unified
  22              		.thumb
  23              		.thumb_func
  25              	LL_FillBuffer:
  26              	.LVL0:
  27              	.LFB195:
  28              		.file 1 "Core/Src/stm32746g_discovery_lcd.c"
   1:Core/Src/stm32746g_discovery_lcd.c **** /**
   2:Core/Src/stm32746g_discovery_lcd.c ****   ******************************************************************************
   3:Core/Src/stm32746g_discovery_lcd.c ****   * @file    stm32746g_discovery_lcd.c
   4:Core/Src/stm32746g_discovery_lcd.c ****   * @author  MCD Application Team
   5:Core/Src/stm32746g_discovery_lcd.c ****   * @brief   This file includes the driver for Liquid Crystal Display (LCD) module
   6:Core/Src/stm32746g_discovery_lcd.c ****   *          mounted on STM32746G-Discovery board.
   7:Core/Src/stm32746g_discovery_lcd.c ****   *
   8:Core/Src/stm32746g_discovery_lcd.c ****   ******************************************************************************
   9:Core/Src/stm32746g_discovery_lcd.c ****   * @attention
  10:Core/Src/stm32746g_discovery_lcd.c ****   *
  11:Core/Src/stm32746g_discovery_lcd.c ****   * Copyright (c) 2016 STMicroelectronics.
  12:Core/Src/stm32746g_discovery_lcd.c ****   * All rights reserved.
  13:Core/Src/stm32746g_discovery_lcd.c ****   *
  14:Core/Src/stm32746g_discovery_lcd.c ****   * This software is licensed under terms that can be found in the LICENSE file
  15:Core/Src/stm32746g_discovery_lcd.c ****   * in the root directory of this software component.
  16:Core/Src/stm32746g_discovery_lcd.c ****   * If no LICENSE file comes with this software, it is provided AS-IS.
  17:Core/Src/stm32746g_discovery_lcd.c ****   *
  18:Core/Src/stm32746g_discovery_lcd.c ****   ******************************************************************************
  19:Core/Src/stm32746g_discovery_lcd.c ****   @verbatim
  20:Core/Src/stm32746g_discovery_lcd.c ****   1. How To use this driver:
  21:Core/Src/stm32746g_discovery_lcd.c ****   --------------------------
  22:Core/Src/stm32746g_discovery_lcd.c ****      - This driver is used to drive directly an LCD TFT using the LTDC controller.
  23:Core/Src/stm32746g_discovery_lcd.c ****      - This driver uses timing and setting for RK043FN48H LCD.
  24:Core/Src/stm32746g_discovery_lcd.c ****   
  25:Core/Src/stm32746g_discovery_lcd.c ****   2. Driver description:
  26:Core/Src/stm32746g_discovery_lcd.c ****   ---------------------
  27:Core/Src/stm32746g_discovery_lcd.c ****     + Initialization steps:
  28:Core/Src/stm32746g_discovery_lcd.c ****        o Initialize the LCD using the BSP_LCD_Init() function.
  29:Core/Src/stm32746g_discovery_lcd.c ****        o Apply the Layer configuration using the BSP_LCD_LayerDefaultInit() function.    
  30:Core/Src/stm32746g_discovery_lcd.c ****        o Select the LCD layer to be used using the BSP_LCD_SelectLayer() function.
ARM GAS  C:\Users\jisu8\AppData\Local\Temp\ccieva3z.s 			page 2


  31:Core/Src/stm32746g_discovery_lcd.c ****        o Enable the LCD display using the BSP_LCD_DisplayOn() function.
  32:Core/Src/stm32746g_discovery_lcd.c ****   
  33:Core/Src/stm32746g_discovery_lcd.c ****     + Options
  34:Core/Src/stm32746g_discovery_lcd.c ****        o Configure and enable the color keying functionality using the 
  35:Core/Src/stm32746g_discovery_lcd.c ****          BSP_LCD_SetColorKeying() function.
  36:Core/Src/stm32746g_discovery_lcd.c ****        o Modify in the fly the transparency and/or the frame buffer address
  37:Core/Src/stm32746g_discovery_lcd.c ****          using the following functions:
  38:Core/Src/stm32746g_discovery_lcd.c ****          - BSP_LCD_SetTransparency()
  39:Core/Src/stm32746g_discovery_lcd.c ****          - BSP_LCD_SetLayerAddress() 
  40:Core/Src/stm32746g_discovery_lcd.c ****     
  41:Core/Src/stm32746g_discovery_lcd.c ****     + Display on LCD
  42:Core/Src/stm32746g_discovery_lcd.c ****        o Clear the hole LCD using BSP_LCD_Clear() function or only one specified string
  43:Core/Src/stm32746g_discovery_lcd.c ****          line using the BSP_LCD_ClearStringLine() function.
  44:Core/Src/stm32746g_discovery_lcd.c ****        o Display a character on the specified line and column using the BSP_LCD_DisplayChar()
  45:Core/Src/stm32746g_discovery_lcd.c ****          function or a complete string line using the BSP_LCD_DisplayStringAtLine() function.
  46:Core/Src/stm32746g_discovery_lcd.c ****        o Display a string line on the specified position (x,y in pixel) and align mode
  47:Core/Src/stm32746g_discovery_lcd.c ****          using the BSP_LCD_DisplayStringAtLine() function.          
  48:Core/Src/stm32746g_discovery_lcd.c ****        o Draw and fill a basic shapes (dot, line, rectangle, circle, ellipse, .. bitmap) 
  49:Core/Src/stm32746g_discovery_lcd.c ****          on LCD using the available set of functions.       
  50:Core/Src/stm32746g_discovery_lcd.c ****   @endverbatim
  51:Core/Src/stm32746g_discovery_lcd.c ****   ******************************************************************************
  52:Core/Src/stm32746g_discovery_lcd.c ****   */ 
  53:Core/Src/stm32746g_discovery_lcd.c **** 
  54:Core/Src/stm32746g_discovery_lcd.c **** /* Dependencies
  55:Core/Src/stm32746g_discovery_lcd.c **** - stm32746g_discovery.c
  56:Core/Src/stm32746g_discovery_lcd.c **** - stm32746g_discovery_sdram.c
  57:Core/Src/stm32746g_discovery_lcd.c **** - stm32f7xx_hal_ltdc.c
  58:Core/Src/stm32746g_discovery_lcd.c **** - stm32f7xx_hal_ltdc_ex.c
  59:Core/Src/stm32746g_discovery_lcd.c **** - stm32f7xx_hal_dma2d.c
  60:Core/Src/stm32746g_discovery_lcd.c **** - stm32f7xx_hal_rcc_ex.c
  61:Core/Src/stm32746g_discovery_lcd.c **** - stm32f7xx_hal_gpio.c
  62:Core/Src/stm32746g_discovery_lcd.c **** - stm32f7xx_hal_cortex.c
  63:Core/Src/stm32746g_discovery_lcd.c **** - rk043fn48h.h
  64:Core/Src/stm32746g_discovery_lcd.c **** - fonts.h
  65:Core/Src/stm32746g_discovery_lcd.c **** - font24.c
  66:Core/Src/stm32746g_discovery_lcd.c **** - font20.c
  67:Core/Src/stm32746g_discovery_lcd.c **** - font16.c
  68:Core/Src/stm32746g_discovery_lcd.c **** - font12.c
  69:Core/Src/stm32746g_discovery_lcd.c **** - font8.c"
  70:Core/Src/stm32746g_discovery_lcd.c **** EndDependencies */
  71:Core/Src/stm32746g_discovery_lcd.c **** 
  72:Core/Src/stm32746g_discovery_lcd.c **** /* Includes ------------------------------------------------------------------*/
  73:Core/Src/stm32746g_discovery_lcd.c **** #include "stm32746g_discovery_lcd.h"
  74:Core/Src/stm32746g_discovery_lcd.c **** #include "../../../Utilities/Fonts/fonts.h"
  75:Core/Src/stm32746g_discovery_lcd.c **** #include "../../../Utilities/Fonts/font24.c"
  76:Core/Src/stm32746g_discovery_lcd.c **** #include "../../../Utilities/Fonts/font20.c"
  77:Core/Src/stm32746g_discovery_lcd.c **** #include "../../../Utilities/Fonts/font16.c"
  78:Core/Src/stm32746g_discovery_lcd.c **** #include "../../../Utilities/Fonts/font12.c"
  79:Core/Src/stm32746g_discovery_lcd.c **** #include "../../../Utilities/Fonts/font8.c"
  80:Core/Src/stm32746g_discovery_lcd.c **** 
  81:Core/Src/stm32746g_discovery_lcd.c **** /** @addtogroup BSP
  82:Core/Src/stm32746g_discovery_lcd.c ****   * @{
  83:Core/Src/stm32746g_discovery_lcd.c ****   */
  84:Core/Src/stm32746g_discovery_lcd.c **** 
  85:Core/Src/stm32746g_discovery_lcd.c **** /** @addtogroup STM32746G_DISCOVERY
  86:Core/Src/stm32746g_discovery_lcd.c ****   * @{
  87:Core/Src/stm32746g_discovery_lcd.c ****   */
ARM GAS  C:\Users\jisu8\AppData\Local\Temp\ccieva3z.s 			page 3


  88:Core/Src/stm32746g_discovery_lcd.c ****     
  89:Core/Src/stm32746g_discovery_lcd.c **** /** @addtogroup STM32746G_DISCOVERY_LCD
  90:Core/Src/stm32746g_discovery_lcd.c ****   * @{
  91:Core/Src/stm32746g_discovery_lcd.c ****   */ 
  92:Core/Src/stm32746g_discovery_lcd.c **** 
  93:Core/Src/stm32746g_discovery_lcd.c **** /** @defgroup STM32746G_DISCOVERY_LCD_Private_TypesDefinitions STM32746G_DISCOVERY_LCD Private Type
  94:Core/Src/stm32746g_discovery_lcd.c ****   * @{
  95:Core/Src/stm32746g_discovery_lcd.c ****   */ 
  96:Core/Src/stm32746g_discovery_lcd.c **** /**
  97:Core/Src/stm32746g_discovery_lcd.c ****   * @}
  98:Core/Src/stm32746g_discovery_lcd.c ****   */ 
  99:Core/Src/stm32746g_discovery_lcd.c **** 
 100:Core/Src/stm32746g_discovery_lcd.c **** /** @defgroup STM32746G_DISCOVERY_LCD_Private_Defines STM32746G_DISCOVERY LCD Private Defines
 101:Core/Src/stm32746g_discovery_lcd.c ****   * @{
 102:Core/Src/stm32746g_discovery_lcd.c ****   */
 103:Core/Src/stm32746g_discovery_lcd.c **** #define POLY_X(Z)              ((int32_t)((Points + Z)->X))
 104:Core/Src/stm32746g_discovery_lcd.c **** #define POLY_Y(Z)              ((int32_t)((Points + Z)->Y))      
 105:Core/Src/stm32746g_discovery_lcd.c **** /**
 106:Core/Src/stm32746g_discovery_lcd.c ****   * @}
 107:Core/Src/stm32746g_discovery_lcd.c ****   */ 
 108:Core/Src/stm32746g_discovery_lcd.c **** 
 109:Core/Src/stm32746g_discovery_lcd.c **** /** @defgroup STM32746G_DISCOVERY_LCD_Private_Macros STM32746G_DISCOVERY_LCD Private Macros
 110:Core/Src/stm32746g_discovery_lcd.c ****   * @{
 111:Core/Src/stm32746g_discovery_lcd.c ****   */
 112:Core/Src/stm32746g_discovery_lcd.c **** #define ABS(X)  ((X) > 0 ? (X) : -(X))      
 113:Core/Src/stm32746g_discovery_lcd.c **** /**
 114:Core/Src/stm32746g_discovery_lcd.c ****   * @}
 115:Core/Src/stm32746g_discovery_lcd.c ****   */ 
 116:Core/Src/stm32746g_discovery_lcd.c ****     
 117:Core/Src/stm32746g_discovery_lcd.c **** /** @defgroup STM32746G_DISCOVERY_LCD_Private_Variables STM32746G_DISCOVERY_LCD Private Variables
 118:Core/Src/stm32746g_discovery_lcd.c ****   * @{
 119:Core/Src/stm32746g_discovery_lcd.c ****   */ 
 120:Core/Src/stm32746g_discovery_lcd.c **** LTDC_HandleTypeDef  hLtdcHandler;
 121:Core/Src/stm32746g_discovery_lcd.c **** static DMA2D_HandleTypeDef hDma2dHandler;
 122:Core/Src/stm32746g_discovery_lcd.c **** 
 123:Core/Src/stm32746g_discovery_lcd.c **** /* Default LCD configuration with LCD Layer 1 */
 124:Core/Src/stm32746g_discovery_lcd.c **** static uint32_t            ActiveLayer = 0;
 125:Core/Src/stm32746g_discovery_lcd.c **** static LCD_DrawPropTypeDef DrawProp[MAX_LAYER_NUMBER];
 126:Core/Src/stm32746g_discovery_lcd.c **** /**
 127:Core/Src/stm32746g_discovery_lcd.c ****   * @}
 128:Core/Src/stm32746g_discovery_lcd.c ****   */ 
 129:Core/Src/stm32746g_discovery_lcd.c **** 
 130:Core/Src/stm32746g_discovery_lcd.c **** /** @defgroup STM32746G_DISCOVERY_LCD_Private_FunctionPrototypes STM32746G_DISCOVERY_LCD Private Fu
 131:Core/Src/stm32746g_discovery_lcd.c ****   * @{
 132:Core/Src/stm32746g_discovery_lcd.c ****   */ 
 133:Core/Src/stm32746g_discovery_lcd.c **** static void DrawChar(uint16_t Xpos, uint16_t Ypos, const uint8_t *c);
 134:Core/Src/stm32746g_discovery_lcd.c **** static void FillTriangle(uint16_t x1, uint16_t x2, uint16_t x3, uint16_t y1, uint16_t y2, uint16_t 
 135:Core/Src/stm32746g_discovery_lcd.c **** static void LL_FillBuffer(uint32_t LayerIndex, void *pDst, uint32_t xSize, uint32_t ySize, uint32_t
 136:Core/Src/stm32746g_discovery_lcd.c **** static void LL_ConvertLineToARGB8888(void * pSrc, void *pDst, uint32_t xSize, uint32_t ColorMode);
 137:Core/Src/stm32746g_discovery_lcd.c **** /**
 138:Core/Src/stm32746g_discovery_lcd.c ****   * @}
 139:Core/Src/stm32746g_discovery_lcd.c ****   */ 
 140:Core/Src/stm32746g_discovery_lcd.c **** 
 141:Core/Src/stm32746g_discovery_lcd.c **** /** @defgroup STM32746G_DISCOVERY_LCD_Exported_Functions STM32746G_DISCOVERY_LCD Exported Functions
 142:Core/Src/stm32746g_discovery_lcd.c ****   * @{
 143:Core/Src/stm32746g_discovery_lcd.c ****   */
 144:Core/Src/stm32746g_discovery_lcd.c **** 
ARM GAS  C:\Users\jisu8\AppData\Local\Temp\ccieva3z.s 			page 4


 145:Core/Src/stm32746g_discovery_lcd.c **** /**
 146:Core/Src/stm32746g_discovery_lcd.c ****   * @brief  Initializes the LCD.
 147:Core/Src/stm32746g_discovery_lcd.c ****   * @retval LCD state
 148:Core/Src/stm32746g_discovery_lcd.c ****   */
 149:Core/Src/stm32746g_discovery_lcd.c **** uint8_t BSP_LCD_Init(void)
 150:Core/Src/stm32746g_discovery_lcd.c **** {    
 151:Core/Src/stm32746g_discovery_lcd.c ****   /* Select the used LCD */
 152:Core/Src/stm32746g_discovery_lcd.c **** 
 153:Core/Src/stm32746g_discovery_lcd.c ****   /* The RK043FN48H LCD 480x272 is selected */
 154:Core/Src/stm32746g_discovery_lcd.c ****   /* Timing Configuration */
 155:Core/Src/stm32746g_discovery_lcd.c ****   hLtdcHandler.Init.HorizontalSync = (RK043FN48H_HSYNC - 1);
 156:Core/Src/stm32746g_discovery_lcd.c ****   hLtdcHandler.Init.VerticalSync = (RK043FN48H_VSYNC - 1);
 157:Core/Src/stm32746g_discovery_lcd.c ****   hLtdcHandler.Init.AccumulatedHBP = (RK043FN48H_HSYNC + RK043FN48H_HBP - 1);
 158:Core/Src/stm32746g_discovery_lcd.c ****   hLtdcHandler.Init.AccumulatedVBP = (RK043FN48H_VSYNC + RK043FN48H_VBP - 1);
 159:Core/Src/stm32746g_discovery_lcd.c ****   hLtdcHandler.Init.AccumulatedActiveH = (RK043FN48H_HEIGHT + RK043FN48H_VSYNC + RK043FN48H_VBP - 1
 160:Core/Src/stm32746g_discovery_lcd.c ****   hLtdcHandler.Init.AccumulatedActiveW = (RK043FN48H_WIDTH + RK043FN48H_HSYNC + RK043FN48H_HBP - 1)
 161:Core/Src/stm32746g_discovery_lcd.c ****   hLtdcHandler.Init.TotalHeigh = (RK043FN48H_HEIGHT + RK043FN48H_VSYNC + RK043FN48H_VBP + RK043FN48
 162:Core/Src/stm32746g_discovery_lcd.c ****   hLtdcHandler.Init.TotalWidth = (RK043FN48H_WIDTH + RK043FN48H_HSYNC + RK043FN48H_HBP + RK043FN48H
 163:Core/Src/stm32746g_discovery_lcd.c ****   
 164:Core/Src/stm32746g_discovery_lcd.c ****   /* LCD clock configuration */
 165:Core/Src/stm32746g_discovery_lcd.c ****   BSP_LCD_ClockConfig(&hLtdcHandler, NULL);
 166:Core/Src/stm32746g_discovery_lcd.c **** 
 167:Core/Src/stm32746g_discovery_lcd.c ****   /* Initialize the LCD pixel width and pixel height */
 168:Core/Src/stm32746g_discovery_lcd.c ****   hLtdcHandler.LayerCfg->ImageWidth  = RK043FN48H_WIDTH;
 169:Core/Src/stm32746g_discovery_lcd.c ****   hLtdcHandler.LayerCfg->ImageHeight = RK043FN48H_HEIGHT;
 170:Core/Src/stm32746g_discovery_lcd.c **** 
 171:Core/Src/stm32746g_discovery_lcd.c ****   /* Background value */
 172:Core/Src/stm32746g_discovery_lcd.c ****   hLtdcHandler.Init.Backcolor.Blue = 0;
 173:Core/Src/stm32746g_discovery_lcd.c ****   hLtdcHandler.Init.Backcolor.Green = 0;
 174:Core/Src/stm32746g_discovery_lcd.c ****   hLtdcHandler.Init.Backcolor.Red = 0;
 175:Core/Src/stm32746g_discovery_lcd.c ****   
 176:Core/Src/stm32746g_discovery_lcd.c ****   /* Polarity */
 177:Core/Src/stm32746g_discovery_lcd.c ****   hLtdcHandler.Init.HSPolarity = LTDC_HSPOLARITY_AL;
 178:Core/Src/stm32746g_discovery_lcd.c ****   hLtdcHandler.Init.VSPolarity = LTDC_VSPOLARITY_AL; 
 179:Core/Src/stm32746g_discovery_lcd.c ****   hLtdcHandler.Init.DEPolarity = LTDC_DEPOLARITY_AL;  
 180:Core/Src/stm32746g_discovery_lcd.c ****   hLtdcHandler.Init.PCPolarity = LTDC_PCPOLARITY_IPC;
 181:Core/Src/stm32746g_discovery_lcd.c ****   hLtdcHandler.Instance = LTDC;
 182:Core/Src/stm32746g_discovery_lcd.c **** 
 183:Core/Src/stm32746g_discovery_lcd.c ****   if(HAL_LTDC_GetState(&hLtdcHandler) == HAL_LTDC_STATE_RESET)
 184:Core/Src/stm32746g_discovery_lcd.c ****   {
 185:Core/Src/stm32746g_discovery_lcd.c ****     /* Initialize the LCD Msp: this __weak function can be rewritten by the application */
 186:Core/Src/stm32746g_discovery_lcd.c ****     BSP_LCD_MspInit(&hLtdcHandler, NULL);
 187:Core/Src/stm32746g_discovery_lcd.c ****   }
 188:Core/Src/stm32746g_discovery_lcd.c ****   HAL_LTDC_Init(&hLtdcHandler);
 189:Core/Src/stm32746g_discovery_lcd.c **** 
 190:Core/Src/stm32746g_discovery_lcd.c ****   /* Assert display enable LCD_DISP pin */
 191:Core/Src/stm32746g_discovery_lcd.c ****   HAL_GPIO_WritePin(LCD_DISP_GPIO_PORT, LCD_DISP_PIN, GPIO_PIN_SET);
 192:Core/Src/stm32746g_discovery_lcd.c **** 
 193:Core/Src/stm32746g_discovery_lcd.c ****   /* Assert backlight LCD_BL_CTRL pin */
 194:Core/Src/stm32746g_discovery_lcd.c ****   HAL_GPIO_WritePin(LCD_BL_CTRL_GPIO_PORT, LCD_BL_CTRL_PIN, GPIO_PIN_SET);
 195:Core/Src/stm32746g_discovery_lcd.c **** 
 196:Core/Src/stm32746g_discovery_lcd.c **** #if !defined(DATA_IN_ExtSDRAM)
 197:Core/Src/stm32746g_discovery_lcd.c ****   /* Initialize the SDRAM */
 198:Core/Src/stm32746g_discovery_lcd.c ****   BSP_SDRAM_Init();
 199:Core/Src/stm32746g_discovery_lcd.c **** #endif
 200:Core/Src/stm32746g_discovery_lcd.c ****     
 201:Core/Src/stm32746g_discovery_lcd.c ****   /* Initialize the font */
ARM GAS  C:\Users\jisu8\AppData\Local\Temp\ccieva3z.s 			page 5


 202:Core/Src/stm32746g_discovery_lcd.c ****   BSP_LCD_SetFont(&LCD_DEFAULT_FONT);
 203:Core/Src/stm32746g_discovery_lcd.c ****   
 204:Core/Src/stm32746g_discovery_lcd.c ****   return LCD_OK;
 205:Core/Src/stm32746g_discovery_lcd.c **** }
 206:Core/Src/stm32746g_discovery_lcd.c **** 
 207:Core/Src/stm32746g_discovery_lcd.c **** /**
 208:Core/Src/stm32746g_discovery_lcd.c ****   * @brief  DeInitializes the LCD.
 209:Core/Src/stm32746g_discovery_lcd.c ****   * @retval LCD state
 210:Core/Src/stm32746g_discovery_lcd.c ****   */
 211:Core/Src/stm32746g_discovery_lcd.c **** uint8_t BSP_LCD_DeInit(void)
 212:Core/Src/stm32746g_discovery_lcd.c **** { 
 213:Core/Src/stm32746g_discovery_lcd.c ****   /* Initialize the hLtdcHandler Instance parameter */
 214:Core/Src/stm32746g_discovery_lcd.c ****   hLtdcHandler.Instance = LTDC;
 215:Core/Src/stm32746g_discovery_lcd.c **** 
 216:Core/Src/stm32746g_discovery_lcd.c ****  /* Disable LTDC block */
 217:Core/Src/stm32746g_discovery_lcd.c ****   __HAL_LTDC_DISABLE(&hLtdcHandler);
 218:Core/Src/stm32746g_discovery_lcd.c **** 
 219:Core/Src/stm32746g_discovery_lcd.c ****   /* DeInit the LTDC */
 220:Core/Src/stm32746g_discovery_lcd.c ****   HAL_LTDC_DeInit(&hLtdcHandler);
 221:Core/Src/stm32746g_discovery_lcd.c **** 
 222:Core/Src/stm32746g_discovery_lcd.c ****   /* DeInit the LTDC MSP : this __weak function can be rewritten by the application */
 223:Core/Src/stm32746g_discovery_lcd.c ****   BSP_LCD_MspDeInit(&hLtdcHandler, NULL);
 224:Core/Src/stm32746g_discovery_lcd.c **** 
 225:Core/Src/stm32746g_discovery_lcd.c ****   return LCD_OK;
 226:Core/Src/stm32746g_discovery_lcd.c **** }
 227:Core/Src/stm32746g_discovery_lcd.c **** 
 228:Core/Src/stm32746g_discovery_lcd.c **** /**
 229:Core/Src/stm32746g_discovery_lcd.c ****   * @brief  Gets the LCD X size.
 230:Core/Src/stm32746g_discovery_lcd.c ****   * @retval Used LCD X size
 231:Core/Src/stm32746g_discovery_lcd.c ****   */
 232:Core/Src/stm32746g_discovery_lcd.c **** uint32_t BSP_LCD_GetXSize(void)
 233:Core/Src/stm32746g_discovery_lcd.c **** {
 234:Core/Src/stm32746g_discovery_lcd.c ****   return hLtdcHandler.LayerCfg[ActiveLayer].ImageWidth;
 235:Core/Src/stm32746g_discovery_lcd.c **** }
 236:Core/Src/stm32746g_discovery_lcd.c **** 
 237:Core/Src/stm32746g_discovery_lcd.c **** /**
 238:Core/Src/stm32746g_discovery_lcd.c ****   * @brief  Gets the LCD Y size.
 239:Core/Src/stm32746g_discovery_lcd.c ****   * @retval Used LCD Y size
 240:Core/Src/stm32746g_discovery_lcd.c ****   */
 241:Core/Src/stm32746g_discovery_lcd.c **** uint32_t BSP_LCD_GetYSize(void)
 242:Core/Src/stm32746g_discovery_lcd.c **** {
 243:Core/Src/stm32746g_discovery_lcd.c ****   return hLtdcHandler.LayerCfg[ActiveLayer].ImageHeight;
 244:Core/Src/stm32746g_discovery_lcd.c **** }
 245:Core/Src/stm32746g_discovery_lcd.c **** 
 246:Core/Src/stm32746g_discovery_lcd.c **** /**
 247:Core/Src/stm32746g_discovery_lcd.c ****   * @brief  Set the LCD X size.
 248:Core/Src/stm32746g_discovery_lcd.c ****   * @param  imageWidthPixels : image width in pixels unit
 249:Core/Src/stm32746g_discovery_lcd.c ****   * @retval None
 250:Core/Src/stm32746g_discovery_lcd.c ****   */
 251:Core/Src/stm32746g_discovery_lcd.c **** void BSP_LCD_SetXSize(uint32_t imageWidthPixels)
 252:Core/Src/stm32746g_discovery_lcd.c **** {
 253:Core/Src/stm32746g_discovery_lcd.c ****   hLtdcHandler.LayerCfg[ActiveLayer].ImageWidth = imageWidthPixels;
 254:Core/Src/stm32746g_discovery_lcd.c **** }
 255:Core/Src/stm32746g_discovery_lcd.c **** 
 256:Core/Src/stm32746g_discovery_lcd.c **** /**
 257:Core/Src/stm32746g_discovery_lcd.c ****   * @brief  Set the LCD Y size.
 258:Core/Src/stm32746g_discovery_lcd.c ****   * @param  imageHeightPixels : image height in lines unit
ARM GAS  C:\Users\jisu8\AppData\Local\Temp\ccieva3z.s 			page 6


 259:Core/Src/stm32746g_discovery_lcd.c ****   * @retval None
 260:Core/Src/stm32746g_discovery_lcd.c ****   */
 261:Core/Src/stm32746g_discovery_lcd.c **** void BSP_LCD_SetYSize(uint32_t imageHeightPixels)
 262:Core/Src/stm32746g_discovery_lcd.c **** {
 263:Core/Src/stm32746g_discovery_lcd.c ****   hLtdcHandler.LayerCfg[ActiveLayer].ImageHeight = imageHeightPixels;
 264:Core/Src/stm32746g_discovery_lcd.c **** }
 265:Core/Src/stm32746g_discovery_lcd.c **** 
 266:Core/Src/stm32746g_discovery_lcd.c **** /**
 267:Core/Src/stm32746g_discovery_lcd.c ****   * @brief  Initializes the LCD layer in ARGB8888 format (32 bits per pixel).
 268:Core/Src/stm32746g_discovery_lcd.c ****   * @param  LayerIndex: Layer foreground or background
 269:Core/Src/stm32746g_discovery_lcd.c ****   * @param  FB_Address: Layer frame buffer
 270:Core/Src/stm32746g_discovery_lcd.c ****   * @retval None
 271:Core/Src/stm32746g_discovery_lcd.c ****   */
 272:Core/Src/stm32746g_discovery_lcd.c **** void BSP_LCD_LayerDefaultInit(uint16_t LayerIndex, uint32_t FB_Address)
 273:Core/Src/stm32746g_discovery_lcd.c **** {     
 274:Core/Src/stm32746g_discovery_lcd.c ****   LCD_LayerCfgTypeDef  layer_cfg;
 275:Core/Src/stm32746g_discovery_lcd.c **** 
 276:Core/Src/stm32746g_discovery_lcd.c ****   /* Layer Init */
 277:Core/Src/stm32746g_discovery_lcd.c ****   layer_cfg.WindowX0 = 0;
 278:Core/Src/stm32746g_discovery_lcd.c ****   layer_cfg.WindowX1 = BSP_LCD_GetXSize();
 279:Core/Src/stm32746g_discovery_lcd.c ****   layer_cfg.WindowY0 = 0;
 280:Core/Src/stm32746g_discovery_lcd.c ****   layer_cfg.WindowY1 = BSP_LCD_GetYSize(); 
 281:Core/Src/stm32746g_discovery_lcd.c ****   layer_cfg.PixelFormat = LTDC_PIXEL_FORMAT_ARGB8888;
 282:Core/Src/stm32746g_discovery_lcd.c ****   layer_cfg.FBStartAdress = FB_Address;
 283:Core/Src/stm32746g_discovery_lcd.c ****   layer_cfg.Alpha = 255;
 284:Core/Src/stm32746g_discovery_lcd.c ****   layer_cfg.Alpha0 = 0;
 285:Core/Src/stm32746g_discovery_lcd.c ****   layer_cfg.Backcolor.Blue = 0;
 286:Core/Src/stm32746g_discovery_lcd.c ****   layer_cfg.Backcolor.Green = 0;
 287:Core/Src/stm32746g_discovery_lcd.c ****   layer_cfg.Backcolor.Red = 0;
 288:Core/Src/stm32746g_discovery_lcd.c ****   layer_cfg.BlendingFactor1 = LTDC_BLENDING_FACTOR1_PAxCA;
 289:Core/Src/stm32746g_discovery_lcd.c ****   layer_cfg.BlendingFactor2 = LTDC_BLENDING_FACTOR2_PAxCA;
 290:Core/Src/stm32746g_discovery_lcd.c ****   layer_cfg.ImageWidth = BSP_LCD_GetXSize();
 291:Core/Src/stm32746g_discovery_lcd.c ****   layer_cfg.ImageHeight = BSP_LCD_GetYSize();
 292:Core/Src/stm32746g_discovery_lcd.c ****   
 293:Core/Src/stm32746g_discovery_lcd.c ****   HAL_LTDC_ConfigLayer(&hLtdcHandler, &layer_cfg, LayerIndex); 
 294:Core/Src/stm32746g_discovery_lcd.c **** 
 295:Core/Src/stm32746g_discovery_lcd.c ****   DrawProp[LayerIndex].BackColor = LCD_COLOR_WHITE;
 296:Core/Src/stm32746g_discovery_lcd.c ****   DrawProp[LayerIndex].pFont     = &Font24;
 297:Core/Src/stm32746g_discovery_lcd.c ****   DrawProp[LayerIndex].TextColor = LCD_COLOR_BLACK; 
 298:Core/Src/stm32746g_discovery_lcd.c **** }
 299:Core/Src/stm32746g_discovery_lcd.c **** 
 300:Core/Src/stm32746g_discovery_lcd.c **** /**
 301:Core/Src/stm32746g_discovery_lcd.c ****   * @brief  Initializes the LCD layer in RGB565 format (16 bits per pixel).
 302:Core/Src/stm32746g_discovery_lcd.c ****   * @param  LayerIndex: Layer foreground or background
 303:Core/Src/stm32746g_discovery_lcd.c ****   * @param  FB_Address: Layer frame buffer
 304:Core/Src/stm32746g_discovery_lcd.c ****   * @retval None
 305:Core/Src/stm32746g_discovery_lcd.c ****   */
 306:Core/Src/stm32746g_discovery_lcd.c **** void BSP_LCD_LayerRgb565Init(uint16_t LayerIndex, uint32_t FB_Address)
 307:Core/Src/stm32746g_discovery_lcd.c **** {     
 308:Core/Src/stm32746g_discovery_lcd.c ****   LCD_LayerCfgTypeDef  layer_cfg;
 309:Core/Src/stm32746g_discovery_lcd.c **** 
 310:Core/Src/stm32746g_discovery_lcd.c ****   /* Layer Init */
 311:Core/Src/stm32746g_discovery_lcd.c ****   layer_cfg.WindowX0 = 0;
 312:Core/Src/stm32746g_discovery_lcd.c ****   layer_cfg.WindowX1 = BSP_LCD_GetXSize();
 313:Core/Src/stm32746g_discovery_lcd.c ****   layer_cfg.WindowY0 = 0;
 314:Core/Src/stm32746g_discovery_lcd.c ****   layer_cfg.WindowY1 = BSP_LCD_GetYSize(); 
 315:Core/Src/stm32746g_discovery_lcd.c ****   layer_cfg.PixelFormat = LTDC_PIXEL_FORMAT_RGB565;
ARM GAS  C:\Users\jisu8\AppData\Local\Temp\ccieva3z.s 			page 7


 316:Core/Src/stm32746g_discovery_lcd.c ****   layer_cfg.FBStartAdress = FB_Address;
 317:Core/Src/stm32746g_discovery_lcd.c ****   layer_cfg.Alpha = 255;
 318:Core/Src/stm32746g_discovery_lcd.c ****   layer_cfg.Alpha0 = 0;
 319:Core/Src/stm32746g_discovery_lcd.c ****   layer_cfg.Backcolor.Blue = 0;
 320:Core/Src/stm32746g_discovery_lcd.c ****   layer_cfg.Backcolor.Green = 0;
 321:Core/Src/stm32746g_discovery_lcd.c ****   layer_cfg.Backcolor.Red = 0;
 322:Core/Src/stm32746g_discovery_lcd.c ****   layer_cfg.BlendingFactor1 = LTDC_BLENDING_FACTOR1_PAxCA;
 323:Core/Src/stm32746g_discovery_lcd.c ****   layer_cfg.BlendingFactor2 = LTDC_BLENDING_FACTOR2_PAxCA;
 324:Core/Src/stm32746g_discovery_lcd.c ****   layer_cfg.ImageWidth = BSP_LCD_GetXSize();
 325:Core/Src/stm32746g_discovery_lcd.c ****   layer_cfg.ImageHeight = BSP_LCD_GetYSize();
 326:Core/Src/stm32746g_discovery_lcd.c ****   
 327:Core/Src/stm32746g_discovery_lcd.c ****   HAL_LTDC_ConfigLayer(&hLtdcHandler, &layer_cfg, LayerIndex); 
 328:Core/Src/stm32746g_discovery_lcd.c **** 
 329:Core/Src/stm32746g_discovery_lcd.c ****   DrawProp[LayerIndex].BackColor = LCD_COLOR_WHITE;
 330:Core/Src/stm32746g_discovery_lcd.c ****   DrawProp[LayerIndex].pFont     = &Font24;
 331:Core/Src/stm32746g_discovery_lcd.c ****   DrawProp[LayerIndex].TextColor = LCD_COLOR_BLACK; 
 332:Core/Src/stm32746g_discovery_lcd.c **** }
 333:Core/Src/stm32746g_discovery_lcd.c **** 
 334:Core/Src/stm32746g_discovery_lcd.c **** /**
 335:Core/Src/stm32746g_discovery_lcd.c ****   * @brief  Selects the LCD Layer.
 336:Core/Src/stm32746g_discovery_lcd.c ****   * @param  LayerIndex: Layer foreground or background
 337:Core/Src/stm32746g_discovery_lcd.c ****   * @retval None
 338:Core/Src/stm32746g_discovery_lcd.c ****   */
 339:Core/Src/stm32746g_discovery_lcd.c **** void BSP_LCD_SelectLayer(uint32_t LayerIndex)
 340:Core/Src/stm32746g_discovery_lcd.c **** {
 341:Core/Src/stm32746g_discovery_lcd.c ****   ActiveLayer = LayerIndex;
 342:Core/Src/stm32746g_discovery_lcd.c **** } 
 343:Core/Src/stm32746g_discovery_lcd.c **** 
 344:Core/Src/stm32746g_discovery_lcd.c **** /**
 345:Core/Src/stm32746g_discovery_lcd.c ****   * @brief  Sets an LCD Layer visible
 346:Core/Src/stm32746g_discovery_lcd.c ****   * @param  LayerIndex: Visible Layer
 347:Core/Src/stm32746g_discovery_lcd.c ****   * @param  State: New state of the specified layer
 348:Core/Src/stm32746g_discovery_lcd.c ****   *          This parameter can be one of the following values:
 349:Core/Src/stm32746g_discovery_lcd.c ****   *            @arg  ENABLE
 350:Core/Src/stm32746g_discovery_lcd.c ****   *            @arg  DISABLE 
 351:Core/Src/stm32746g_discovery_lcd.c ****   * @retval None
 352:Core/Src/stm32746g_discovery_lcd.c ****   */
 353:Core/Src/stm32746g_discovery_lcd.c **** void BSP_LCD_SetLayerVisible(uint32_t LayerIndex, FunctionalState State)
 354:Core/Src/stm32746g_discovery_lcd.c **** {
 355:Core/Src/stm32746g_discovery_lcd.c ****   if(State == ENABLE)
 356:Core/Src/stm32746g_discovery_lcd.c ****   {
 357:Core/Src/stm32746g_discovery_lcd.c ****     __HAL_LTDC_LAYER_ENABLE(&hLtdcHandler, LayerIndex);
 358:Core/Src/stm32746g_discovery_lcd.c ****   }
 359:Core/Src/stm32746g_discovery_lcd.c ****   else
 360:Core/Src/stm32746g_discovery_lcd.c ****   {
 361:Core/Src/stm32746g_discovery_lcd.c ****     __HAL_LTDC_LAYER_DISABLE(&hLtdcHandler, LayerIndex);
 362:Core/Src/stm32746g_discovery_lcd.c ****   }
 363:Core/Src/stm32746g_discovery_lcd.c ****   __HAL_LTDC_RELOAD_CONFIG(&hLtdcHandler);
 364:Core/Src/stm32746g_discovery_lcd.c **** } 
 365:Core/Src/stm32746g_discovery_lcd.c **** 
 366:Core/Src/stm32746g_discovery_lcd.c **** /**
 367:Core/Src/stm32746g_discovery_lcd.c ****   * @brief  Sets an LCD Layer visible without reloading.
 368:Core/Src/stm32746g_discovery_lcd.c ****   * @param  LayerIndex: Visible Layer
 369:Core/Src/stm32746g_discovery_lcd.c ****   * @param  State: New state of the specified layer
 370:Core/Src/stm32746g_discovery_lcd.c ****   *          This parameter can be one of the following values:
 371:Core/Src/stm32746g_discovery_lcd.c ****   *            @arg  ENABLE
 372:Core/Src/stm32746g_discovery_lcd.c ****   *            @arg  DISABLE 
ARM GAS  C:\Users\jisu8\AppData\Local\Temp\ccieva3z.s 			page 8


 373:Core/Src/stm32746g_discovery_lcd.c ****   * @retval None
 374:Core/Src/stm32746g_discovery_lcd.c ****   */
 375:Core/Src/stm32746g_discovery_lcd.c **** void BSP_LCD_SetLayerVisible_NoReload(uint32_t LayerIndex, FunctionalState State)
 376:Core/Src/stm32746g_discovery_lcd.c **** {
 377:Core/Src/stm32746g_discovery_lcd.c ****   if(State == ENABLE)
 378:Core/Src/stm32746g_discovery_lcd.c ****   {
 379:Core/Src/stm32746g_discovery_lcd.c ****     __HAL_LTDC_LAYER_ENABLE(&hLtdcHandler, LayerIndex);
 380:Core/Src/stm32746g_discovery_lcd.c ****   }
 381:Core/Src/stm32746g_discovery_lcd.c ****   else
 382:Core/Src/stm32746g_discovery_lcd.c ****   {
 383:Core/Src/stm32746g_discovery_lcd.c ****     __HAL_LTDC_LAYER_DISABLE(&hLtdcHandler, LayerIndex);
 384:Core/Src/stm32746g_discovery_lcd.c ****   }
 385:Core/Src/stm32746g_discovery_lcd.c ****   /* Do not Sets the Reload  */
 386:Core/Src/stm32746g_discovery_lcd.c **** } 
 387:Core/Src/stm32746g_discovery_lcd.c **** 
 388:Core/Src/stm32746g_discovery_lcd.c **** /**
 389:Core/Src/stm32746g_discovery_lcd.c ****   * @brief  Configures the transparency.
 390:Core/Src/stm32746g_discovery_lcd.c ****   * @param  LayerIndex: Layer foreground or background.
 391:Core/Src/stm32746g_discovery_lcd.c ****   * @param  Transparency: Transparency
 392:Core/Src/stm32746g_discovery_lcd.c ****   *           This parameter must be a number between Min_Data = 0x00 and Max_Data = 0xFF 
 393:Core/Src/stm32746g_discovery_lcd.c ****   * @retval None
 394:Core/Src/stm32746g_discovery_lcd.c ****   */
 395:Core/Src/stm32746g_discovery_lcd.c **** void BSP_LCD_SetTransparency(uint32_t LayerIndex, uint8_t Transparency)
 396:Core/Src/stm32746g_discovery_lcd.c **** {    
 397:Core/Src/stm32746g_discovery_lcd.c ****   HAL_LTDC_SetAlpha(&hLtdcHandler, Transparency, LayerIndex);
 398:Core/Src/stm32746g_discovery_lcd.c **** }
 399:Core/Src/stm32746g_discovery_lcd.c **** 
 400:Core/Src/stm32746g_discovery_lcd.c **** /**
 401:Core/Src/stm32746g_discovery_lcd.c ****   * @brief  Configures the transparency without reloading.
 402:Core/Src/stm32746g_discovery_lcd.c ****   * @param  LayerIndex: Layer foreground or background.
 403:Core/Src/stm32746g_discovery_lcd.c ****   * @param  Transparency: Transparency
 404:Core/Src/stm32746g_discovery_lcd.c ****   *           This parameter must be a number between Min_Data = 0x00 and Max_Data = 0xFF 
 405:Core/Src/stm32746g_discovery_lcd.c ****   * @retval None
 406:Core/Src/stm32746g_discovery_lcd.c ****   */
 407:Core/Src/stm32746g_discovery_lcd.c **** void BSP_LCD_SetTransparency_NoReload(uint32_t LayerIndex, uint8_t Transparency)
 408:Core/Src/stm32746g_discovery_lcd.c **** {    
 409:Core/Src/stm32746g_discovery_lcd.c ****   HAL_LTDC_SetAlpha_NoReload(&hLtdcHandler, Transparency, LayerIndex);
 410:Core/Src/stm32746g_discovery_lcd.c **** }
 411:Core/Src/stm32746g_discovery_lcd.c **** 
 412:Core/Src/stm32746g_discovery_lcd.c **** /**
 413:Core/Src/stm32746g_discovery_lcd.c ****   * @brief  Sets an LCD layer frame buffer address.
 414:Core/Src/stm32746g_discovery_lcd.c ****   * @param  LayerIndex: Layer foreground or background
 415:Core/Src/stm32746g_discovery_lcd.c ****   * @param  Address: New LCD frame buffer value      
 416:Core/Src/stm32746g_discovery_lcd.c ****   * @retval None
 417:Core/Src/stm32746g_discovery_lcd.c ****   */
 418:Core/Src/stm32746g_discovery_lcd.c **** void BSP_LCD_SetLayerAddress(uint32_t LayerIndex, uint32_t Address)
 419:Core/Src/stm32746g_discovery_lcd.c **** {
 420:Core/Src/stm32746g_discovery_lcd.c ****   HAL_LTDC_SetAddress(&hLtdcHandler, Address, LayerIndex);
 421:Core/Src/stm32746g_discovery_lcd.c **** }
 422:Core/Src/stm32746g_discovery_lcd.c **** 
 423:Core/Src/stm32746g_discovery_lcd.c **** /**
 424:Core/Src/stm32746g_discovery_lcd.c ****   * @brief  Sets an LCD layer frame buffer address without reloading.
 425:Core/Src/stm32746g_discovery_lcd.c ****   * @param  LayerIndex: Layer foreground or background
 426:Core/Src/stm32746g_discovery_lcd.c ****   * @param  Address: New LCD frame buffer value      
 427:Core/Src/stm32746g_discovery_lcd.c ****   * @retval None
 428:Core/Src/stm32746g_discovery_lcd.c ****   */
 429:Core/Src/stm32746g_discovery_lcd.c **** void BSP_LCD_SetLayerAddress_NoReload(uint32_t LayerIndex, uint32_t Address)
ARM GAS  C:\Users\jisu8\AppData\Local\Temp\ccieva3z.s 			page 9


 430:Core/Src/stm32746g_discovery_lcd.c **** {
 431:Core/Src/stm32746g_discovery_lcd.c ****   HAL_LTDC_SetAddress_NoReload(&hLtdcHandler, Address, LayerIndex);
 432:Core/Src/stm32746g_discovery_lcd.c **** }
 433:Core/Src/stm32746g_discovery_lcd.c **** 
 434:Core/Src/stm32746g_discovery_lcd.c **** /**
 435:Core/Src/stm32746g_discovery_lcd.c ****   * @brief  Sets display window.
 436:Core/Src/stm32746g_discovery_lcd.c ****   * @param  LayerIndex: Layer index
 437:Core/Src/stm32746g_discovery_lcd.c ****   * @param  Xpos: LCD X position
 438:Core/Src/stm32746g_discovery_lcd.c ****   * @param  Ypos: LCD Y position
 439:Core/Src/stm32746g_discovery_lcd.c ****   * @param  Width: LCD window width
 440:Core/Src/stm32746g_discovery_lcd.c ****   * @param  Height: LCD window height  
 441:Core/Src/stm32746g_discovery_lcd.c ****   * @retval None
 442:Core/Src/stm32746g_discovery_lcd.c ****   */
 443:Core/Src/stm32746g_discovery_lcd.c **** void BSP_LCD_SetLayerWindow(uint16_t LayerIndex, uint16_t Xpos, uint16_t Ypos, uint16_t Width, uint
 444:Core/Src/stm32746g_discovery_lcd.c **** {
 445:Core/Src/stm32746g_discovery_lcd.c ****   /* Reconfigure the layer size */
 446:Core/Src/stm32746g_discovery_lcd.c ****   HAL_LTDC_SetWindowSize(&hLtdcHandler, Width, Height, LayerIndex);
 447:Core/Src/stm32746g_discovery_lcd.c ****   
 448:Core/Src/stm32746g_discovery_lcd.c ****   /* Reconfigure the layer position */
 449:Core/Src/stm32746g_discovery_lcd.c ****   HAL_LTDC_SetWindowPosition(&hLtdcHandler, Xpos, Ypos, LayerIndex); 
 450:Core/Src/stm32746g_discovery_lcd.c **** }
 451:Core/Src/stm32746g_discovery_lcd.c **** 
 452:Core/Src/stm32746g_discovery_lcd.c **** /**
 453:Core/Src/stm32746g_discovery_lcd.c ****   * @brief  Sets display window without reloading.
 454:Core/Src/stm32746g_discovery_lcd.c ****   * @param  LayerIndex: Layer index
 455:Core/Src/stm32746g_discovery_lcd.c ****   * @param  Xpos: LCD X position
 456:Core/Src/stm32746g_discovery_lcd.c ****   * @param  Ypos: LCD Y position
 457:Core/Src/stm32746g_discovery_lcd.c ****   * @param  Width: LCD window width
 458:Core/Src/stm32746g_discovery_lcd.c ****   * @param  Height: LCD window height  
 459:Core/Src/stm32746g_discovery_lcd.c ****   * @retval None
 460:Core/Src/stm32746g_discovery_lcd.c ****   */
 461:Core/Src/stm32746g_discovery_lcd.c **** void BSP_LCD_SetLayerWindow_NoReload(uint16_t LayerIndex, uint16_t Xpos, uint16_t Ypos, uint16_t Wi
 462:Core/Src/stm32746g_discovery_lcd.c **** {
 463:Core/Src/stm32746g_discovery_lcd.c ****   /* Reconfigure the layer size */
 464:Core/Src/stm32746g_discovery_lcd.c ****   HAL_LTDC_SetWindowSize_NoReload(&hLtdcHandler, Width, Height, LayerIndex);
 465:Core/Src/stm32746g_discovery_lcd.c ****   
 466:Core/Src/stm32746g_discovery_lcd.c ****   /* Reconfigure the layer position */
 467:Core/Src/stm32746g_discovery_lcd.c ****   HAL_LTDC_SetWindowPosition_NoReload(&hLtdcHandler, Xpos, Ypos, LayerIndex); 
 468:Core/Src/stm32746g_discovery_lcd.c **** }
 469:Core/Src/stm32746g_discovery_lcd.c **** 
 470:Core/Src/stm32746g_discovery_lcd.c **** /**
 471:Core/Src/stm32746g_discovery_lcd.c ****   * @brief  Configures and sets the color keying.
 472:Core/Src/stm32746g_discovery_lcd.c ****   * @param  LayerIndex: Layer foreground or background
 473:Core/Src/stm32746g_discovery_lcd.c ****   * @param  RGBValue: Color reference
 474:Core/Src/stm32746g_discovery_lcd.c ****   * @retval None
 475:Core/Src/stm32746g_discovery_lcd.c ****   */
 476:Core/Src/stm32746g_discovery_lcd.c **** void BSP_LCD_SetColorKeying(uint32_t LayerIndex, uint32_t RGBValue)
 477:Core/Src/stm32746g_discovery_lcd.c **** {  
 478:Core/Src/stm32746g_discovery_lcd.c ****   /* Configure and Enable the color Keying for LCD Layer */
 479:Core/Src/stm32746g_discovery_lcd.c ****   HAL_LTDC_ConfigColorKeying(&hLtdcHandler, RGBValue, LayerIndex);
 480:Core/Src/stm32746g_discovery_lcd.c ****   HAL_LTDC_EnableColorKeying(&hLtdcHandler, LayerIndex);
 481:Core/Src/stm32746g_discovery_lcd.c **** }
 482:Core/Src/stm32746g_discovery_lcd.c **** 
 483:Core/Src/stm32746g_discovery_lcd.c **** /**
 484:Core/Src/stm32746g_discovery_lcd.c ****   * @brief  Configures and sets the color keying without reloading.
 485:Core/Src/stm32746g_discovery_lcd.c ****   * @param  LayerIndex: Layer foreground or background
 486:Core/Src/stm32746g_discovery_lcd.c ****   * @param  RGBValue: Color reference
ARM GAS  C:\Users\jisu8\AppData\Local\Temp\ccieva3z.s 			page 10


 487:Core/Src/stm32746g_discovery_lcd.c ****   * @retval None
 488:Core/Src/stm32746g_discovery_lcd.c ****   */
 489:Core/Src/stm32746g_discovery_lcd.c **** void BSP_LCD_SetColorKeying_NoReload(uint32_t LayerIndex, uint32_t RGBValue)
 490:Core/Src/stm32746g_discovery_lcd.c **** {  
 491:Core/Src/stm32746g_discovery_lcd.c ****   /* Configure and Enable the color Keying for LCD Layer */
 492:Core/Src/stm32746g_discovery_lcd.c ****   HAL_LTDC_ConfigColorKeying_NoReload(&hLtdcHandler, RGBValue, LayerIndex);
 493:Core/Src/stm32746g_discovery_lcd.c ****   HAL_LTDC_EnableColorKeying_NoReload(&hLtdcHandler, LayerIndex);
 494:Core/Src/stm32746g_discovery_lcd.c **** }
 495:Core/Src/stm32746g_discovery_lcd.c **** 
 496:Core/Src/stm32746g_discovery_lcd.c **** /**
 497:Core/Src/stm32746g_discovery_lcd.c ****   * @brief  Disables the color keying.
 498:Core/Src/stm32746g_discovery_lcd.c ****   * @param  LayerIndex: Layer foreground or background
 499:Core/Src/stm32746g_discovery_lcd.c ****   * @retval None
 500:Core/Src/stm32746g_discovery_lcd.c ****   */
 501:Core/Src/stm32746g_discovery_lcd.c **** void BSP_LCD_ResetColorKeying(uint32_t LayerIndex)
 502:Core/Src/stm32746g_discovery_lcd.c **** {   
 503:Core/Src/stm32746g_discovery_lcd.c ****   /* Disable the color Keying for LCD Layer */
 504:Core/Src/stm32746g_discovery_lcd.c ****   HAL_LTDC_DisableColorKeying(&hLtdcHandler, LayerIndex);
 505:Core/Src/stm32746g_discovery_lcd.c **** }
 506:Core/Src/stm32746g_discovery_lcd.c **** 
 507:Core/Src/stm32746g_discovery_lcd.c **** /**
 508:Core/Src/stm32746g_discovery_lcd.c ****   * @brief  Disables the color keying without reloading.
 509:Core/Src/stm32746g_discovery_lcd.c ****   * @param  LayerIndex: Layer foreground or background
 510:Core/Src/stm32746g_discovery_lcd.c ****   * @retval None
 511:Core/Src/stm32746g_discovery_lcd.c ****   */
 512:Core/Src/stm32746g_discovery_lcd.c **** void BSP_LCD_ResetColorKeying_NoReload(uint32_t LayerIndex)
 513:Core/Src/stm32746g_discovery_lcd.c **** {   
 514:Core/Src/stm32746g_discovery_lcd.c ****   /* Disable the color Keying for LCD Layer */
 515:Core/Src/stm32746g_discovery_lcd.c ****   HAL_LTDC_DisableColorKeying_NoReload(&hLtdcHandler, LayerIndex);
 516:Core/Src/stm32746g_discovery_lcd.c **** }
 517:Core/Src/stm32746g_discovery_lcd.c **** 
 518:Core/Src/stm32746g_discovery_lcd.c **** /**
 519:Core/Src/stm32746g_discovery_lcd.c ****   * @brief  Disables the color keying without reloading.
 520:Core/Src/stm32746g_discovery_lcd.c ****   * @param  ReloadType: can be one of the following values 
 521:Core/Src/stm32746g_discovery_lcd.c ****   *         - LCD_RELOAD_IMMEDIATE 
 522:Core/Src/stm32746g_discovery_lcd.c ****   *         - LCD_RELOAD_VERTICAL_BLANKING
 523:Core/Src/stm32746g_discovery_lcd.c ****   * @retval None
 524:Core/Src/stm32746g_discovery_lcd.c ****   */
 525:Core/Src/stm32746g_discovery_lcd.c **** void BSP_LCD_Reload(uint32_t ReloadType)
 526:Core/Src/stm32746g_discovery_lcd.c **** {
 527:Core/Src/stm32746g_discovery_lcd.c ****   HAL_LTDC_Reload (&hLtdcHandler, ReloadType);
 528:Core/Src/stm32746g_discovery_lcd.c **** }
 529:Core/Src/stm32746g_discovery_lcd.c **** 
 530:Core/Src/stm32746g_discovery_lcd.c **** /**
 531:Core/Src/stm32746g_discovery_lcd.c ****   * @brief  Sets the LCD text color.
 532:Core/Src/stm32746g_discovery_lcd.c ****   * @param  Color: Text color code ARGB(8-8-8-8)
 533:Core/Src/stm32746g_discovery_lcd.c ****   * @retval None
 534:Core/Src/stm32746g_discovery_lcd.c ****   */
 535:Core/Src/stm32746g_discovery_lcd.c **** void BSP_LCD_SetTextColor(uint32_t Color)
 536:Core/Src/stm32746g_discovery_lcd.c **** {
 537:Core/Src/stm32746g_discovery_lcd.c ****   DrawProp[ActiveLayer].TextColor = Color;
 538:Core/Src/stm32746g_discovery_lcd.c **** }
 539:Core/Src/stm32746g_discovery_lcd.c **** 
 540:Core/Src/stm32746g_discovery_lcd.c **** /**
 541:Core/Src/stm32746g_discovery_lcd.c ****   * @brief  Gets the LCD text color.
 542:Core/Src/stm32746g_discovery_lcd.c ****   * @retval Used text color.
 543:Core/Src/stm32746g_discovery_lcd.c ****   */
ARM GAS  C:\Users\jisu8\AppData\Local\Temp\ccieva3z.s 			page 11


 544:Core/Src/stm32746g_discovery_lcd.c **** uint32_t BSP_LCD_GetTextColor(void)
 545:Core/Src/stm32746g_discovery_lcd.c **** {
 546:Core/Src/stm32746g_discovery_lcd.c ****   return DrawProp[ActiveLayer].TextColor;
 547:Core/Src/stm32746g_discovery_lcd.c **** }
 548:Core/Src/stm32746g_discovery_lcd.c **** 
 549:Core/Src/stm32746g_discovery_lcd.c **** /**
 550:Core/Src/stm32746g_discovery_lcd.c ****   * @brief  Sets the LCD background color.
 551:Core/Src/stm32746g_discovery_lcd.c ****   * @param  Color: Layer background color code ARGB(8-8-8-8)
 552:Core/Src/stm32746g_discovery_lcd.c ****   * @retval None
 553:Core/Src/stm32746g_discovery_lcd.c ****   */
 554:Core/Src/stm32746g_discovery_lcd.c **** void BSP_LCD_SetBackColor(uint32_t Color)
 555:Core/Src/stm32746g_discovery_lcd.c **** {
 556:Core/Src/stm32746g_discovery_lcd.c ****   DrawProp[ActiveLayer].BackColor = Color;
 557:Core/Src/stm32746g_discovery_lcd.c **** }
 558:Core/Src/stm32746g_discovery_lcd.c **** 
 559:Core/Src/stm32746g_discovery_lcd.c **** /**
 560:Core/Src/stm32746g_discovery_lcd.c ****   * @brief  Gets the LCD background color.
 561:Core/Src/stm32746g_discovery_lcd.c ****   * @retval Used background colour
 562:Core/Src/stm32746g_discovery_lcd.c ****   */
 563:Core/Src/stm32746g_discovery_lcd.c **** uint32_t BSP_LCD_GetBackColor(void)
 564:Core/Src/stm32746g_discovery_lcd.c **** {
 565:Core/Src/stm32746g_discovery_lcd.c ****   return DrawProp[ActiveLayer].BackColor;
 566:Core/Src/stm32746g_discovery_lcd.c **** }
 567:Core/Src/stm32746g_discovery_lcd.c **** 
 568:Core/Src/stm32746g_discovery_lcd.c **** /**
 569:Core/Src/stm32746g_discovery_lcd.c ****   * @brief  Sets the LCD text font.
 570:Core/Src/stm32746g_discovery_lcd.c ****   * @param  fonts: Layer font to be used
 571:Core/Src/stm32746g_discovery_lcd.c ****   * @retval None
 572:Core/Src/stm32746g_discovery_lcd.c ****   */
 573:Core/Src/stm32746g_discovery_lcd.c **** void BSP_LCD_SetFont(sFONT *fonts)
 574:Core/Src/stm32746g_discovery_lcd.c **** {
 575:Core/Src/stm32746g_discovery_lcd.c ****   DrawProp[ActiveLayer].pFont = fonts;
 576:Core/Src/stm32746g_discovery_lcd.c **** }
 577:Core/Src/stm32746g_discovery_lcd.c **** 
 578:Core/Src/stm32746g_discovery_lcd.c **** /**
 579:Core/Src/stm32746g_discovery_lcd.c ****   * @brief  Gets the LCD text font.
 580:Core/Src/stm32746g_discovery_lcd.c ****   * @retval Used layer font
 581:Core/Src/stm32746g_discovery_lcd.c ****   */
 582:Core/Src/stm32746g_discovery_lcd.c **** sFONT *BSP_LCD_GetFont(void)
 583:Core/Src/stm32746g_discovery_lcd.c **** {
 584:Core/Src/stm32746g_discovery_lcd.c ****   return DrawProp[ActiveLayer].pFont;
 585:Core/Src/stm32746g_discovery_lcd.c **** }
 586:Core/Src/stm32746g_discovery_lcd.c **** 
 587:Core/Src/stm32746g_discovery_lcd.c **** /**
 588:Core/Src/stm32746g_discovery_lcd.c ****   * @brief  Reads an LCD pixel.
 589:Core/Src/stm32746g_discovery_lcd.c ****   * @param  Xpos: X position 
 590:Core/Src/stm32746g_discovery_lcd.c ****   * @param  Ypos: Y position 
 591:Core/Src/stm32746g_discovery_lcd.c ****   * @retval RGB pixel color
 592:Core/Src/stm32746g_discovery_lcd.c ****   */
 593:Core/Src/stm32746g_discovery_lcd.c **** uint32_t BSP_LCD_ReadPixel(uint16_t Xpos, uint16_t Ypos)
 594:Core/Src/stm32746g_discovery_lcd.c **** {
 595:Core/Src/stm32746g_discovery_lcd.c ****   uint32_t ret = 0;
 596:Core/Src/stm32746g_discovery_lcd.c ****   
 597:Core/Src/stm32746g_discovery_lcd.c ****   if(hLtdcHandler.LayerCfg[ActiveLayer].PixelFormat == LTDC_PIXEL_FORMAT_ARGB8888)
 598:Core/Src/stm32746g_discovery_lcd.c ****   {
 599:Core/Src/stm32746g_discovery_lcd.c ****     /* Read data value from SDRAM memory */
 600:Core/Src/stm32746g_discovery_lcd.c ****     ret = *(__IO uint32_t*) (hLtdcHandler.LayerCfg[ActiveLayer].FBStartAdress + (4*(Ypos*BSP_LCD_Ge
ARM GAS  C:\Users\jisu8\AppData\Local\Temp\ccieva3z.s 			page 12


 601:Core/Src/stm32746g_discovery_lcd.c ****   }
 602:Core/Src/stm32746g_discovery_lcd.c ****   else if(hLtdcHandler.LayerCfg[ActiveLayer].PixelFormat == LTDC_PIXEL_FORMAT_RGB888)
 603:Core/Src/stm32746g_discovery_lcd.c ****   {
 604:Core/Src/stm32746g_discovery_lcd.c ****     /* Read data value from SDRAM memory */
 605:Core/Src/stm32746g_discovery_lcd.c ****     ret = (*(__IO uint32_t*) (hLtdcHandler.LayerCfg[ActiveLayer].FBStartAdress + (4*(Ypos*BSP_LCD_G
 606:Core/Src/stm32746g_discovery_lcd.c ****   }
 607:Core/Src/stm32746g_discovery_lcd.c ****   else if((hLtdcHandler.LayerCfg[ActiveLayer].PixelFormat == LTDC_PIXEL_FORMAT_RGB565) || \
 608:Core/Src/stm32746g_discovery_lcd.c ****           (hLtdcHandler.LayerCfg[ActiveLayer].PixelFormat == LTDC_PIXEL_FORMAT_ARGB4444) || \
 609:Core/Src/stm32746g_discovery_lcd.c ****           (hLtdcHandler.LayerCfg[ActiveLayer].PixelFormat == LTDC_PIXEL_FORMAT_AL88))  
 610:Core/Src/stm32746g_discovery_lcd.c ****   {
 611:Core/Src/stm32746g_discovery_lcd.c ****     /* Read data value from SDRAM memory */
 612:Core/Src/stm32746g_discovery_lcd.c ****     ret = *(__IO uint16_t*) (hLtdcHandler.LayerCfg[ActiveLayer].FBStartAdress + (2*(Ypos*BSP_LCD_Ge
 613:Core/Src/stm32746g_discovery_lcd.c ****   }
 614:Core/Src/stm32746g_discovery_lcd.c ****   else
 615:Core/Src/stm32746g_discovery_lcd.c ****   {
 616:Core/Src/stm32746g_discovery_lcd.c ****     /* Read data value from SDRAM memory */
 617:Core/Src/stm32746g_discovery_lcd.c ****     ret = *(__IO uint8_t*) (hLtdcHandler.LayerCfg[ActiveLayer].FBStartAdress + (2*(Ypos*BSP_LCD_Get
 618:Core/Src/stm32746g_discovery_lcd.c ****   }
 619:Core/Src/stm32746g_discovery_lcd.c ****   
 620:Core/Src/stm32746g_discovery_lcd.c ****   return ret;
 621:Core/Src/stm32746g_discovery_lcd.c **** }
 622:Core/Src/stm32746g_discovery_lcd.c **** 
 623:Core/Src/stm32746g_discovery_lcd.c **** /**
 624:Core/Src/stm32746g_discovery_lcd.c ****   * @brief  Clears the hole LCD.
 625:Core/Src/stm32746g_discovery_lcd.c ****   * @param  Color: Color of the background
 626:Core/Src/stm32746g_discovery_lcd.c ****   * @retval None
 627:Core/Src/stm32746g_discovery_lcd.c ****   */
 628:Core/Src/stm32746g_discovery_lcd.c **** void BSP_LCD_Clear(uint32_t Color)
 629:Core/Src/stm32746g_discovery_lcd.c **** { 
 630:Core/Src/stm32746g_discovery_lcd.c ****   /* Clear the LCD */ 
 631:Core/Src/stm32746g_discovery_lcd.c ****   LL_FillBuffer(ActiveLayer, (uint32_t *)(hLtdcHandler.LayerCfg[ActiveLayer].FBStartAdress), BSP_LC
 632:Core/Src/stm32746g_discovery_lcd.c **** }
 633:Core/Src/stm32746g_discovery_lcd.c **** 
 634:Core/Src/stm32746g_discovery_lcd.c **** /**
 635:Core/Src/stm32746g_discovery_lcd.c ****   * @brief  Clears the selected line.
 636:Core/Src/stm32746g_discovery_lcd.c ****   * @param  Line: Line to be cleared
 637:Core/Src/stm32746g_discovery_lcd.c ****   * @retval None
 638:Core/Src/stm32746g_discovery_lcd.c ****   */
 639:Core/Src/stm32746g_discovery_lcd.c **** void BSP_LCD_ClearStringLine(uint32_t Line)
 640:Core/Src/stm32746g_discovery_lcd.c **** {
 641:Core/Src/stm32746g_discovery_lcd.c ****   uint32_t color_backup = DrawProp[ActiveLayer].TextColor;
 642:Core/Src/stm32746g_discovery_lcd.c ****   DrawProp[ActiveLayer].TextColor = DrawProp[ActiveLayer].BackColor;
 643:Core/Src/stm32746g_discovery_lcd.c ****   
 644:Core/Src/stm32746g_discovery_lcd.c ****   /* Draw rectangle with background color */
 645:Core/Src/stm32746g_discovery_lcd.c ****   BSP_LCD_FillRect(0, (Line * DrawProp[ActiveLayer].pFont->Height), BSP_LCD_GetXSize(), DrawProp[Ac
 646:Core/Src/stm32746g_discovery_lcd.c ****   
 647:Core/Src/stm32746g_discovery_lcd.c ****   DrawProp[ActiveLayer].TextColor = color_backup;
 648:Core/Src/stm32746g_discovery_lcd.c ****   BSP_LCD_SetTextColor(DrawProp[ActiveLayer].TextColor);  
 649:Core/Src/stm32746g_discovery_lcd.c **** }
 650:Core/Src/stm32746g_discovery_lcd.c **** 
 651:Core/Src/stm32746g_discovery_lcd.c **** /**
 652:Core/Src/stm32746g_discovery_lcd.c ****   * @brief  Displays one character.
 653:Core/Src/stm32746g_discovery_lcd.c ****   * @param  Xpos: Start column address
 654:Core/Src/stm32746g_discovery_lcd.c ****   * @param  Ypos: Line where to display the character shape.
 655:Core/Src/stm32746g_discovery_lcd.c ****   * @param  Ascii: Character ascii code
 656:Core/Src/stm32746g_discovery_lcd.c ****   *           This parameter must be a number between Min_Data = 0x20 and Max_Data = 0x7E 
 657:Core/Src/stm32746g_discovery_lcd.c ****   * @retval None
ARM GAS  C:\Users\jisu8\AppData\Local\Temp\ccieva3z.s 			page 13


 658:Core/Src/stm32746g_discovery_lcd.c ****   */
 659:Core/Src/stm32746g_discovery_lcd.c **** void BSP_LCD_DisplayChar(uint16_t Xpos, uint16_t Ypos, uint8_t Ascii)
 660:Core/Src/stm32746g_discovery_lcd.c **** {
 661:Core/Src/stm32746g_discovery_lcd.c ****   DrawChar(Xpos, Ypos, &DrawProp[ActiveLayer].pFont->table[(Ascii-' ') *\
 662:Core/Src/stm32746g_discovery_lcd.c ****     DrawProp[ActiveLayer].pFont->Height * ((DrawProp[ActiveLayer].pFont->Width + 7) / 8)]);
 663:Core/Src/stm32746g_discovery_lcd.c **** }
 664:Core/Src/stm32746g_discovery_lcd.c **** 
 665:Core/Src/stm32746g_discovery_lcd.c **** /**
 666:Core/Src/stm32746g_discovery_lcd.c ****   * @brief  Displays characters on the LCD.
 667:Core/Src/stm32746g_discovery_lcd.c ****   * @param  Xpos: X position (in pixel)
 668:Core/Src/stm32746g_discovery_lcd.c ****   * @param  Ypos: Y position (in pixel)   
 669:Core/Src/stm32746g_discovery_lcd.c ****   * @param  Text: Pointer to string to display on LCD
 670:Core/Src/stm32746g_discovery_lcd.c ****   * @param  Mode: Display mode
 671:Core/Src/stm32746g_discovery_lcd.c ****   *          This parameter can be one of the following values:
 672:Core/Src/stm32746g_discovery_lcd.c ****   *            @arg  CENTER_MODE
 673:Core/Src/stm32746g_discovery_lcd.c ****   *            @arg  RIGHT_MODE
 674:Core/Src/stm32746g_discovery_lcd.c ****   *            @arg  LEFT_MODE   
 675:Core/Src/stm32746g_discovery_lcd.c ****   * @retval None
 676:Core/Src/stm32746g_discovery_lcd.c ****   */
 677:Core/Src/stm32746g_discovery_lcd.c **** void BSP_LCD_DisplayStringAt(uint16_t Xpos, uint16_t Ypos, uint8_t *Text, Text_AlignModeTypdef Mode
 678:Core/Src/stm32746g_discovery_lcd.c **** {
 679:Core/Src/stm32746g_discovery_lcd.c ****   uint16_t ref_column = 1, i = 0;
 680:Core/Src/stm32746g_discovery_lcd.c ****   uint32_t size = 0, xsize = 0; 
 681:Core/Src/stm32746g_discovery_lcd.c ****   uint8_t  *ptr = Text;
 682:Core/Src/stm32746g_discovery_lcd.c ****   
 683:Core/Src/stm32746g_discovery_lcd.c ****   /* Get the text size */
 684:Core/Src/stm32746g_discovery_lcd.c ****   while (*ptr++) size ++ ;
 685:Core/Src/stm32746g_discovery_lcd.c ****   
 686:Core/Src/stm32746g_discovery_lcd.c ****   /* Characters number per line */
 687:Core/Src/stm32746g_discovery_lcd.c ****   xsize = (BSP_LCD_GetXSize()/DrawProp[ActiveLayer].pFont->Width);
 688:Core/Src/stm32746g_discovery_lcd.c ****   
 689:Core/Src/stm32746g_discovery_lcd.c ****   switch (Mode)
 690:Core/Src/stm32746g_discovery_lcd.c ****   {
 691:Core/Src/stm32746g_discovery_lcd.c ****   case CENTER_MODE:
 692:Core/Src/stm32746g_discovery_lcd.c ****     {
 693:Core/Src/stm32746g_discovery_lcd.c ****       ref_column = Xpos + ((xsize - size)* DrawProp[ActiveLayer].pFont->Width) / 2;
 694:Core/Src/stm32746g_discovery_lcd.c ****       break;
 695:Core/Src/stm32746g_discovery_lcd.c ****     }
 696:Core/Src/stm32746g_discovery_lcd.c ****   case LEFT_MODE:
 697:Core/Src/stm32746g_discovery_lcd.c ****     {
 698:Core/Src/stm32746g_discovery_lcd.c ****       ref_column = Xpos;
 699:Core/Src/stm32746g_discovery_lcd.c ****       break;
 700:Core/Src/stm32746g_discovery_lcd.c ****     }
 701:Core/Src/stm32746g_discovery_lcd.c ****   case RIGHT_MODE:
 702:Core/Src/stm32746g_discovery_lcd.c ****     {
 703:Core/Src/stm32746g_discovery_lcd.c ****       ref_column = - Xpos + ((xsize - size)*DrawProp[ActiveLayer].pFont->Width);
 704:Core/Src/stm32746g_discovery_lcd.c ****       break;
 705:Core/Src/stm32746g_discovery_lcd.c ****     }    
 706:Core/Src/stm32746g_discovery_lcd.c ****   default:
 707:Core/Src/stm32746g_discovery_lcd.c ****     {
 708:Core/Src/stm32746g_discovery_lcd.c ****       ref_column = Xpos;
 709:Core/Src/stm32746g_discovery_lcd.c ****       break;
 710:Core/Src/stm32746g_discovery_lcd.c ****     }
 711:Core/Src/stm32746g_discovery_lcd.c ****   }
 712:Core/Src/stm32746g_discovery_lcd.c ****   
 713:Core/Src/stm32746g_discovery_lcd.c ****   /* Check that the Start column is located in the screen */
 714:Core/Src/stm32746g_discovery_lcd.c ****   if ((ref_column < 1) || (ref_column >= 0x8000))
ARM GAS  C:\Users\jisu8\AppData\Local\Temp\ccieva3z.s 			page 14


 715:Core/Src/stm32746g_discovery_lcd.c ****   {
 716:Core/Src/stm32746g_discovery_lcd.c ****     ref_column = 1;
 717:Core/Src/stm32746g_discovery_lcd.c ****   }
 718:Core/Src/stm32746g_discovery_lcd.c **** 
 719:Core/Src/stm32746g_discovery_lcd.c ****   /* Send the string character by character on LCD */
 720:Core/Src/stm32746g_discovery_lcd.c ****   while ((*Text != 0) & (((BSP_LCD_GetXSize() - (i*DrawProp[ActiveLayer].pFont->Width)) & 0xFFFF) >
 721:Core/Src/stm32746g_discovery_lcd.c ****   {
 722:Core/Src/stm32746g_discovery_lcd.c ****     /* Display one character on LCD */
 723:Core/Src/stm32746g_discovery_lcd.c ****     BSP_LCD_DisplayChar(ref_column, Ypos, *Text);
 724:Core/Src/stm32746g_discovery_lcd.c ****     /* Decrement the column position by 16 */
 725:Core/Src/stm32746g_discovery_lcd.c ****     ref_column += DrawProp[ActiveLayer].pFont->Width;
 726:Core/Src/stm32746g_discovery_lcd.c ****     /* Point on the next character */
 727:Core/Src/stm32746g_discovery_lcd.c ****     Text++;
 728:Core/Src/stm32746g_discovery_lcd.c ****     i++;
 729:Core/Src/stm32746g_discovery_lcd.c ****   }  
 730:Core/Src/stm32746g_discovery_lcd.c **** }
 731:Core/Src/stm32746g_discovery_lcd.c **** 
 732:Core/Src/stm32746g_discovery_lcd.c **** /**
 733:Core/Src/stm32746g_discovery_lcd.c ****   * @brief  Displays a maximum of 60 characters on the LCD.
 734:Core/Src/stm32746g_discovery_lcd.c ****   * @param  Line: Line where to display the character shape
 735:Core/Src/stm32746g_discovery_lcd.c ****   * @param  ptr: Pointer to string to display on LCD
 736:Core/Src/stm32746g_discovery_lcd.c ****   * @retval None
 737:Core/Src/stm32746g_discovery_lcd.c ****   */
 738:Core/Src/stm32746g_discovery_lcd.c **** void BSP_LCD_DisplayStringAtLine(uint16_t Line, uint8_t *ptr)
 739:Core/Src/stm32746g_discovery_lcd.c **** {  
 740:Core/Src/stm32746g_discovery_lcd.c ****   BSP_LCD_DisplayStringAt(0, LINE(Line), ptr, LEFT_MODE);
 741:Core/Src/stm32746g_discovery_lcd.c **** }
 742:Core/Src/stm32746g_discovery_lcd.c **** 
 743:Core/Src/stm32746g_discovery_lcd.c **** /**
 744:Core/Src/stm32746g_discovery_lcd.c ****   * @brief  Draws an horizontal line.
 745:Core/Src/stm32746g_discovery_lcd.c ****   * @param  Xpos: X position
 746:Core/Src/stm32746g_discovery_lcd.c ****   * @param  Ypos: Y position
 747:Core/Src/stm32746g_discovery_lcd.c ****   * @param  Length: Line length
 748:Core/Src/stm32746g_discovery_lcd.c ****   * @retval None
 749:Core/Src/stm32746g_discovery_lcd.c ****   */
 750:Core/Src/stm32746g_discovery_lcd.c **** void BSP_LCD_DrawHLine(uint16_t Xpos, uint16_t Ypos, uint16_t Length)
 751:Core/Src/stm32746g_discovery_lcd.c **** {
 752:Core/Src/stm32746g_discovery_lcd.c ****   uint32_t  Xaddress = 0;
 753:Core/Src/stm32746g_discovery_lcd.c ****   
 754:Core/Src/stm32746g_discovery_lcd.c ****   /* Get the line address */
 755:Core/Src/stm32746g_discovery_lcd.c ****   if(hLtdcHandler.LayerCfg[ActiveLayer].PixelFormat == LTDC_PIXEL_FORMAT_RGB565)
 756:Core/Src/stm32746g_discovery_lcd.c ****   { /* RGB565 format */
 757:Core/Src/stm32746g_discovery_lcd.c ****     Xaddress = (hLtdcHandler.LayerCfg[ActiveLayer].FBStartAdress) + 2*(BSP_LCD_GetXSize()*Ypos + Xp
 758:Core/Src/stm32746g_discovery_lcd.c ****   }
 759:Core/Src/stm32746g_discovery_lcd.c ****   else
 760:Core/Src/stm32746g_discovery_lcd.c ****   { /* ARGB8888 format */
 761:Core/Src/stm32746g_discovery_lcd.c ****     Xaddress = (hLtdcHandler.LayerCfg[ActiveLayer].FBStartAdress) + 4*(BSP_LCD_GetXSize()*Ypos + Xp
 762:Core/Src/stm32746g_discovery_lcd.c ****   }
 763:Core/Src/stm32746g_discovery_lcd.c ****   
 764:Core/Src/stm32746g_discovery_lcd.c ****   /* Write line */
 765:Core/Src/stm32746g_discovery_lcd.c ****   LL_FillBuffer(ActiveLayer, (uint32_t *)Xaddress, Length, 1, 0, DrawProp[ActiveLayer].TextColor);
 766:Core/Src/stm32746g_discovery_lcd.c **** }
 767:Core/Src/stm32746g_discovery_lcd.c **** 
 768:Core/Src/stm32746g_discovery_lcd.c **** /**
 769:Core/Src/stm32746g_discovery_lcd.c ****   * @brief  Draws a vertical line.
 770:Core/Src/stm32746g_discovery_lcd.c ****   * @param  Xpos: X position
 771:Core/Src/stm32746g_discovery_lcd.c ****   * @param  Ypos: Y position
ARM GAS  C:\Users\jisu8\AppData\Local\Temp\ccieva3z.s 			page 15


 772:Core/Src/stm32746g_discovery_lcd.c ****   * @param  Length: Line length
 773:Core/Src/stm32746g_discovery_lcd.c ****   * @retval None
 774:Core/Src/stm32746g_discovery_lcd.c ****   */
 775:Core/Src/stm32746g_discovery_lcd.c **** void BSP_LCD_DrawVLine(uint16_t Xpos, uint16_t Ypos, uint16_t Length)
 776:Core/Src/stm32746g_discovery_lcd.c **** {
 777:Core/Src/stm32746g_discovery_lcd.c ****   uint32_t  Xaddress = 0;
 778:Core/Src/stm32746g_discovery_lcd.c ****   
 779:Core/Src/stm32746g_discovery_lcd.c ****   /* Get the line address */
 780:Core/Src/stm32746g_discovery_lcd.c ****   if(hLtdcHandler.LayerCfg[ActiveLayer].PixelFormat == LTDC_PIXEL_FORMAT_RGB565)
 781:Core/Src/stm32746g_discovery_lcd.c ****   { /* RGB565 format */
 782:Core/Src/stm32746g_discovery_lcd.c ****     Xaddress = (hLtdcHandler.LayerCfg[ActiveLayer].FBStartAdress) + 2*(BSP_LCD_GetXSize()*Ypos + Xp
 783:Core/Src/stm32746g_discovery_lcd.c ****   }
 784:Core/Src/stm32746g_discovery_lcd.c ****   else
 785:Core/Src/stm32746g_discovery_lcd.c ****   { /* ARGB8888 format */
 786:Core/Src/stm32746g_discovery_lcd.c ****     Xaddress = (hLtdcHandler.LayerCfg[ActiveLayer].FBStartAdress) + 4*(BSP_LCD_GetXSize()*Ypos + Xp
 787:Core/Src/stm32746g_discovery_lcd.c ****   }
 788:Core/Src/stm32746g_discovery_lcd.c ****   
 789:Core/Src/stm32746g_discovery_lcd.c ****   /* Write line */
 790:Core/Src/stm32746g_discovery_lcd.c ****   LL_FillBuffer(ActiveLayer, (uint32_t *)Xaddress, 1, Length, (BSP_LCD_GetXSize() - 1), DrawProp[Ac
 791:Core/Src/stm32746g_discovery_lcd.c **** }
 792:Core/Src/stm32746g_discovery_lcd.c **** 
 793:Core/Src/stm32746g_discovery_lcd.c **** /**
 794:Core/Src/stm32746g_discovery_lcd.c ****   * @brief  Draws an uni-line (between two points).
 795:Core/Src/stm32746g_discovery_lcd.c ****   * @param  x1: Point 1 X position
 796:Core/Src/stm32746g_discovery_lcd.c ****   * @param  y1: Point 1 Y position
 797:Core/Src/stm32746g_discovery_lcd.c ****   * @param  x2: Point 2 X position
 798:Core/Src/stm32746g_discovery_lcd.c ****   * @param  y2: Point 2 Y position
 799:Core/Src/stm32746g_discovery_lcd.c ****   * @retval None
 800:Core/Src/stm32746g_discovery_lcd.c ****   */
 801:Core/Src/stm32746g_discovery_lcd.c **** void BSP_LCD_DrawLine(uint16_t x1, uint16_t y1, uint16_t x2, uint16_t y2)
 802:Core/Src/stm32746g_discovery_lcd.c **** {
 803:Core/Src/stm32746g_discovery_lcd.c ****   int16_t deltax = 0, deltay = 0, x = 0, y = 0, xinc1 = 0, xinc2 = 0, 
 804:Core/Src/stm32746g_discovery_lcd.c ****   yinc1 = 0, yinc2 = 0, den = 0, num = 0, num_add = 0, num_pixels = 0, 
 805:Core/Src/stm32746g_discovery_lcd.c ****   curpixel = 0;
 806:Core/Src/stm32746g_discovery_lcd.c ****   
 807:Core/Src/stm32746g_discovery_lcd.c ****   deltax = ABS(x2 - x1);        /* The difference between the x's */
 808:Core/Src/stm32746g_discovery_lcd.c ****   deltay = ABS(y2 - y1);        /* The difference between the y's */
 809:Core/Src/stm32746g_discovery_lcd.c ****   x = x1;                       /* Start x off at the first pixel */
 810:Core/Src/stm32746g_discovery_lcd.c ****   y = y1;                       /* Start y off at the first pixel */
 811:Core/Src/stm32746g_discovery_lcd.c ****   
 812:Core/Src/stm32746g_discovery_lcd.c ****   if (x2 >= x1)                 /* The x-values are increasing */
 813:Core/Src/stm32746g_discovery_lcd.c ****   {
 814:Core/Src/stm32746g_discovery_lcd.c ****     xinc1 = 1;
 815:Core/Src/stm32746g_discovery_lcd.c ****     xinc2 = 1;
 816:Core/Src/stm32746g_discovery_lcd.c ****   }
 817:Core/Src/stm32746g_discovery_lcd.c ****   else                          /* The x-values are decreasing */
 818:Core/Src/stm32746g_discovery_lcd.c ****   {
 819:Core/Src/stm32746g_discovery_lcd.c ****     xinc1 = -1;
 820:Core/Src/stm32746g_discovery_lcd.c ****     xinc2 = -1;
 821:Core/Src/stm32746g_discovery_lcd.c ****   }
 822:Core/Src/stm32746g_discovery_lcd.c ****   
 823:Core/Src/stm32746g_discovery_lcd.c ****   if (y2 >= y1)                 /* The y-values are increasing */
 824:Core/Src/stm32746g_discovery_lcd.c ****   {
 825:Core/Src/stm32746g_discovery_lcd.c ****     yinc1 = 1;
 826:Core/Src/stm32746g_discovery_lcd.c ****     yinc2 = 1;
 827:Core/Src/stm32746g_discovery_lcd.c ****   }
 828:Core/Src/stm32746g_discovery_lcd.c ****   else                          /* The y-values are decreasing */
ARM GAS  C:\Users\jisu8\AppData\Local\Temp\ccieva3z.s 			page 16


 829:Core/Src/stm32746g_discovery_lcd.c ****   {
 830:Core/Src/stm32746g_discovery_lcd.c ****     yinc1 = -1;
 831:Core/Src/stm32746g_discovery_lcd.c ****     yinc2 = -1;
 832:Core/Src/stm32746g_discovery_lcd.c ****   }
 833:Core/Src/stm32746g_discovery_lcd.c ****   
 834:Core/Src/stm32746g_discovery_lcd.c ****   if (deltax >= deltay)         /* There is at least one x-value for every y-value */
 835:Core/Src/stm32746g_discovery_lcd.c ****   {
 836:Core/Src/stm32746g_discovery_lcd.c ****     xinc1 = 0;                  /* Don't change the x when numerator >= denominator */
 837:Core/Src/stm32746g_discovery_lcd.c ****     yinc2 = 0;                  /* Don't change the y for every iteration */
 838:Core/Src/stm32746g_discovery_lcd.c ****     den = deltax;
 839:Core/Src/stm32746g_discovery_lcd.c ****     num = deltax / 2;
 840:Core/Src/stm32746g_discovery_lcd.c ****     num_add = deltay;
 841:Core/Src/stm32746g_discovery_lcd.c ****     num_pixels = deltax;         /* There are more x-values than y-values */
 842:Core/Src/stm32746g_discovery_lcd.c ****   }
 843:Core/Src/stm32746g_discovery_lcd.c ****   else                          /* There is at least one y-value for every x-value */
 844:Core/Src/stm32746g_discovery_lcd.c ****   {
 845:Core/Src/stm32746g_discovery_lcd.c ****     xinc2 = 0;                  /* Don't change the x for every iteration */
 846:Core/Src/stm32746g_discovery_lcd.c ****     yinc1 = 0;                  /* Don't change the y when numerator >= denominator */
 847:Core/Src/stm32746g_discovery_lcd.c ****     den = deltay;
 848:Core/Src/stm32746g_discovery_lcd.c ****     num = deltay / 2;
 849:Core/Src/stm32746g_discovery_lcd.c ****     num_add = deltax;
 850:Core/Src/stm32746g_discovery_lcd.c ****     num_pixels = deltay;         /* There are more y-values than x-values */
 851:Core/Src/stm32746g_discovery_lcd.c ****   }
 852:Core/Src/stm32746g_discovery_lcd.c ****   
 853:Core/Src/stm32746g_discovery_lcd.c ****   for (curpixel = 0; curpixel <= num_pixels; curpixel++)
 854:Core/Src/stm32746g_discovery_lcd.c ****   {
 855:Core/Src/stm32746g_discovery_lcd.c ****     BSP_LCD_DrawPixel(x, y, DrawProp[ActiveLayer].TextColor);   /* Draw the current pixel */
 856:Core/Src/stm32746g_discovery_lcd.c ****     num += num_add;                            /* Increase the numerator by the top of the fraction
 857:Core/Src/stm32746g_discovery_lcd.c ****     if (num >= den)                           /* Check if numerator >= denominator */
 858:Core/Src/stm32746g_discovery_lcd.c ****     {
 859:Core/Src/stm32746g_discovery_lcd.c ****       num -= den;                             /* Calculate the new numerator value */
 860:Core/Src/stm32746g_discovery_lcd.c ****       x += xinc1;                             /* Change the x as appropriate */
 861:Core/Src/stm32746g_discovery_lcd.c ****       y += yinc1;                             /* Change the y as appropriate */
 862:Core/Src/stm32746g_discovery_lcd.c ****     }
 863:Core/Src/stm32746g_discovery_lcd.c ****     x += xinc2;                               /* Change the x as appropriate */
 864:Core/Src/stm32746g_discovery_lcd.c ****     y += yinc2;                               /* Change the y as appropriate */
 865:Core/Src/stm32746g_discovery_lcd.c ****   }
 866:Core/Src/stm32746g_discovery_lcd.c **** }
 867:Core/Src/stm32746g_discovery_lcd.c **** 
 868:Core/Src/stm32746g_discovery_lcd.c **** /**
 869:Core/Src/stm32746g_discovery_lcd.c ****   * @brief  Draws a rectangle.
 870:Core/Src/stm32746g_discovery_lcd.c ****   * @param  Xpos: X position
 871:Core/Src/stm32746g_discovery_lcd.c ****   * @param  Ypos: Y position
 872:Core/Src/stm32746g_discovery_lcd.c ****   * @param  Width: Rectangle width  
 873:Core/Src/stm32746g_discovery_lcd.c ****   * @param  Height: Rectangle height
 874:Core/Src/stm32746g_discovery_lcd.c ****   * @retval None
 875:Core/Src/stm32746g_discovery_lcd.c ****   */
 876:Core/Src/stm32746g_discovery_lcd.c **** void BSP_LCD_DrawRect(uint16_t Xpos, uint16_t Ypos, uint16_t Width, uint16_t Height)
 877:Core/Src/stm32746g_discovery_lcd.c **** {
 878:Core/Src/stm32746g_discovery_lcd.c ****   /* Draw horizontal lines */
 879:Core/Src/stm32746g_discovery_lcd.c ****   BSP_LCD_DrawHLine(Xpos, Ypos, Width);
 880:Core/Src/stm32746g_discovery_lcd.c ****   BSP_LCD_DrawHLine(Xpos, (Ypos+ Height), Width);
 881:Core/Src/stm32746g_discovery_lcd.c ****   
 882:Core/Src/stm32746g_discovery_lcd.c ****   /* Draw vertical lines */
 883:Core/Src/stm32746g_discovery_lcd.c ****   BSP_LCD_DrawVLine(Xpos, Ypos, Height);
 884:Core/Src/stm32746g_discovery_lcd.c ****   BSP_LCD_DrawVLine((Xpos + Width), Ypos, Height);
 885:Core/Src/stm32746g_discovery_lcd.c **** }
ARM GAS  C:\Users\jisu8\AppData\Local\Temp\ccieva3z.s 			page 17


 886:Core/Src/stm32746g_discovery_lcd.c **** 
 887:Core/Src/stm32746g_discovery_lcd.c **** /**
 888:Core/Src/stm32746g_discovery_lcd.c ****   * @brief  Draws a circle.
 889:Core/Src/stm32746g_discovery_lcd.c ****   * @param  Xpos: X position
 890:Core/Src/stm32746g_discovery_lcd.c ****   * @param  Ypos: Y position
 891:Core/Src/stm32746g_discovery_lcd.c ****   * @param  Radius: Circle radius
 892:Core/Src/stm32746g_discovery_lcd.c ****   * @retval None
 893:Core/Src/stm32746g_discovery_lcd.c ****   */
 894:Core/Src/stm32746g_discovery_lcd.c **** void BSP_LCD_DrawCircle(uint16_t Xpos, uint16_t Ypos, uint16_t Radius)
 895:Core/Src/stm32746g_discovery_lcd.c **** {
 896:Core/Src/stm32746g_discovery_lcd.c ****   int32_t   decision;    /* Decision Variable */ 
 897:Core/Src/stm32746g_discovery_lcd.c ****   uint32_t  current_x;   /* Current X Value */
 898:Core/Src/stm32746g_discovery_lcd.c ****   uint32_t  current_y;   /* Current Y Value */
 899:Core/Src/stm32746g_discovery_lcd.c ****   
 900:Core/Src/stm32746g_discovery_lcd.c ****   decision = 3 - (Radius << 1);
 901:Core/Src/stm32746g_discovery_lcd.c ****   current_x = 0;
 902:Core/Src/stm32746g_discovery_lcd.c ****   current_y = Radius;
 903:Core/Src/stm32746g_discovery_lcd.c ****   
 904:Core/Src/stm32746g_discovery_lcd.c ****   while (current_x <= current_y)
 905:Core/Src/stm32746g_discovery_lcd.c ****   {
 906:Core/Src/stm32746g_discovery_lcd.c ****     BSP_LCD_DrawPixel((Xpos + current_x), (Ypos - current_y), DrawProp[ActiveLayer].TextColor);
 907:Core/Src/stm32746g_discovery_lcd.c ****     
 908:Core/Src/stm32746g_discovery_lcd.c ****     BSP_LCD_DrawPixel((Xpos - current_x), (Ypos - current_y), DrawProp[ActiveLayer].TextColor);
 909:Core/Src/stm32746g_discovery_lcd.c ****     
 910:Core/Src/stm32746g_discovery_lcd.c ****     BSP_LCD_DrawPixel((Xpos + current_y), (Ypos - current_x), DrawProp[ActiveLayer].TextColor);
 911:Core/Src/stm32746g_discovery_lcd.c ****     
 912:Core/Src/stm32746g_discovery_lcd.c ****     BSP_LCD_DrawPixel((Xpos - current_y), (Ypos - current_x), DrawProp[ActiveLayer].TextColor);
 913:Core/Src/stm32746g_discovery_lcd.c ****     
 914:Core/Src/stm32746g_discovery_lcd.c ****     BSP_LCD_DrawPixel((Xpos + current_x), (Ypos + current_y), DrawProp[ActiveLayer].TextColor);
 915:Core/Src/stm32746g_discovery_lcd.c ****     
 916:Core/Src/stm32746g_discovery_lcd.c ****     BSP_LCD_DrawPixel((Xpos - current_x), (Ypos + current_y), DrawProp[ActiveLayer].TextColor);
 917:Core/Src/stm32746g_discovery_lcd.c ****     
 918:Core/Src/stm32746g_discovery_lcd.c ****     BSP_LCD_DrawPixel((Xpos + current_y), (Ypos + current_x), DrawProp[ActiveLayer].TextColor);
 919:Core/Src/stm32746g_discovery_lcd.c ****     
 920:Core/Src/stm32746g_discovery_lcd.c ****     BSP_LCD_DrawPixel((Xpos - current_y), (Ypos + current_x), DrawProp[ActiveLayer].TextColor);
 921:Core/Src/stm32746g_discovery_lcd.c ****     
 922:Core/Src/stm32746g_discovery_lcd.c ****     if (decision < 0)
 923:Core/Src/stm32746g_discovery_lcd.c ****     { 
 924:Core/Src/stm32746g_discovery_lcd.c ****       decision += (current_x << 2) + 6;
 925:Core/Src/stm32746g_discovery_lcd.c ****     }
 926:Core/Src/stm32746g_discovery_lcd.c ****     else
 927:Core/Src/stm32746g_discovery_lcd.c ****     {
 928:Core/Src/stm32746g_discovery_lcd.c ****       decision += ((current_x - current_y) << 2) + 10;
 929:Core/Src/stm32746g_discovery_lcd.c ****       current_y--;
 930:Core/Src/stm32746g_discovery_lcd.c ****     }
 931:Core/Src/stm32746g_discovery_lcd.c ****     current_x++;
 932:Core/Src/stm32746g_discovery_lcd.c ****   } 
 933:Core/Src/stm32746g_discovery_lcd.c **** }
 934:Core/Src/stm32746g_discovery_lcd.c **** 
 935:Core/Src/stm32746g_discovery_lcd.c **** /**
 936:Core/Src/stm32746g_discovery_lcd.c ****   * @brief  Draws an poly-line (between many points).
 937:Core/Src/stm32746g_discovery_lcd.c ****   * @param  Points: Pointer to the points array
 938:Core/Src/stm32746g_discovery_lcd.c ****   * @param  PointCount: Number of points
 939:Core/Src/stm32746g_discovery_lcd.c ****   * @retval None
 940:Core/Src/stm32746g_discovery_lcd.c ****   */
 941:Core/Src/stm32746g_discovery_lcd.c **** void BSP_LCD_DrawPolygon(pPoint Points, uint16_t PointCount)
 942:Core/Src/stm32746g_discovery_lcd.c **** {
ARM GAS  C:\Users\jisu8\AppData\Local\Temp\ccieva3z.s 			page 18


 943:Core/Src/stm32746g_discovery_lcd.c ****   int16_t x = 0, y = 0;
 944:Core/Src/stm32746g_discovery_lcd.c ****   
 945:Core/Src/stm32746g_discovery_lcd.c ****   if(PointCount < 2)
 946:Core/Src/stm32746g_discovery_lcd.c ****   {
 947:Core/Src/stm32746g_discovery_lcd.c ****     return;
 948:Core/Src/stm32746g_discovery_lcd.c ****   }
 949:Core/Src/stm32746g_discovery_lcd.c ****   
 950:Core/Src/stm32746g_discovery_lcd.c ****   BSP_LCD_DrawLine(Points->X, Points->Y, (Points+PointCount-1)->X, (Points+PointCount-1)->Y);
 951:Core/Src/stm32746g_discovery_lcd.c ****   
 952:Core/Src/stm32746g_discovery_lcd.c ****   while(--PointCount)
 953:Core/Src/stm32746g_discovery_lcd.c ****   {
 954:Core/Src/stm32746g_discovery_lcd.c ****     x = Points->X;
 955:Core/Src/stm32746g_discovery_lcd.c ****     y = Points->Y;
 956:Core/Src/stm32746g_discovery_lcd.c ****     Points++;
 957:Core/Src/stm32746g_discovery_lcd.c ****     BSP_LCD_DrawLine(x, y, Points->X, Points->Y);
 958:Core/Src/stm32746g_discovery_lcd.c ****   }
 959:Core/Src/stm32746g_discovery_lcd.c **** }
 960:Core/Src/stm32746g_discovery_lcd.c **** 
 961:Core/Src/stm32746g_discovery_lcd.c **** /**
 962:Core/Src/stm32746g_discovery_lcd.c ****   * @brief  Draws an ellipse on LCD.
 963:Core/Src/stm32746g_discovery_lcd.c ****   * @param  Xpos: X position
 964:Core/Src/stm32746g_discovery_lcd.c ****   * @param  Ypos: Y position
 965:Core/Src/stm32746g_discovery_lcd.c ****   * @param  XRadius: Ellipse X radius
 966:Core/Src/stm32746g_discovery_lcd.c ****   * @param  YRadius: Ellipse Y radius
 967:Core/Src/stm32746g_discovery_lcd.c ****   * @retval None
 968:Core/Src/stm32746g_discovery_lcd.c ****   */
 969:Core/Src/stm32746g_discovery_lcd.c **** void BSP_LCD_DrawEllipse(int Xpos, int Ypos, int XRadius, int YRadius)
 970:Core/Src/stm32746g_discovery_lcd.c **** {
 971:Core/Src/stm32746g_discovery_lcd.c ****   int x = 0, y = -YRadius, err = 2-2*XRadius, e2;
 972:Core/Src/stm32746g_discovery_lcd.c ****   float k = 0, rad1 = 0, rad2 = 0;
 973:Core/Src/stm32746g_discovery_lcd.c ****   
 974:Core/Src/stm32746g_discovery_lcd.c ****   rad1 = XRadius;
 975:Core/Src/stm32746g_discovery_lcd.c ****   rad2 = YRadius;
 976:Core/Src/stm32746g_discovery_lcd.c ****   
 977:Core/Src/stm32746g_discovery_lcd.c ****   k = (float)(rad2/rad1);  
 978:Core/Src/stm32746g_discovery_lcd.c ****   
 979:Core/Src/stm32746g_discovery_lcd.c ****   do { 
 980:Core/Src/stm32746g_discovery_lcd.c ****     BSP_LCD_DrawPixel((Xpos-(uint16_t)(x/k)), (Ypos+y), DrawProp[ActiveLayer].TextColor);
 981:Core/Src/stm32746g_discovery_lcd.c ****     BSP_LCD_DrawPixel((Xpos+(uint16_t)(x/k)), (Ypos+y), DrawProp[ActiveLayer].TextColor);
 982:Core/Src/stm32746g_discovery_lcd.c ****     BSP_LCD_DrawPixel((Xpos+(uint16_t)(x/k)), (Ypos-y), DrawProp[ActiveLayer].TextColor);
 983:Core/Src/stm32746g_discovery_lcd.c ****     BSP_LCD_DrawPixel((Xpos-(uint16_t)(x/k)), (Ypos-y), DrawProp[ActiveLayer].TextColor);      
 984:Core/Src/stm32746g_discovery_lcd.c ****     
 985:Core/Src/stm32746g_discovery_lcd.c ****     e2 = err;
 986:Core/Src/stm32746g_discovery_lcd.c ****     if (e2 <= x) {
 987:Core/Src/stm32746g_discovery_lcd.c ****       err += ++x*2+1;
 988:Core/Src/stm32746g_discovery_lcd.c ****       if (-y == x && e2 <= y) e2 = 0;
 989:Core/Src/stm32746g_discovery_lcd.c ****     }
 990:Core/Src/stm32746g_discovery_lcd.c ****     if (e2 > y) err += ++y*2+1;     
 991:Core/Src/stm32746g_discovery_lcd.c ****   }
 992:Core/Src/stm32746g_discovery_lcd.c ****   while (y <= 0);
 993:Core/Src/stm32746g_discovery_lcd.c **** }
 994:Core/Src/stm32746g_discovery_lcd.c **** 
 995:Core/Src/stm32746g_discovery_lcd.c **** /**
 996:Core/Src/stm32746g_discovery_lcd.c ****   * @brief  Draws a pixel on LCD.
 997:Core/Src/stm32746g_discovery_lcd.c ****   * @param  Xpos: X position
 998:Core/Src/stm32746g_discovery_lcd.c ****   * @param  Ypos: Y position
 999:Core/Src/stm32746g_discovery_lcd.c ****   * @param  RGB_Code: Pixel color in ARGB mode (8-8-8-8)
ARM GAS  C:\Users\jisu8\AppData\Local\Temp\ccieva3z.s 			page 19


1000:Core/Src/stm32746g_discovery_lcd.c ****   * @retval None
1001:Core/Src/stm32746g_discovery_lcd.c ****   */
1002:Core/Src/stm32746g_discovery_lcd.c **** void BSP_LCD_DrawPixel(uint16_t Xpos, uint16_t Ypos, uint32_t RGB_Code)
1003:Core/Src/stm32746g_discovery_lcd.c **** {
1004:Core/Src/stm32746g_discovery_lcd.c ****   /* Write data value to all SDRAM memory */
1005:Core/Src/stm32746g_discovery_lcd.c ****   if(hLtdcHandler.LayerCfg[ActiveLayer].PixelFormat == LTDC_PIXEL_FORMAT_RGB565)
1006:Core/Src/stm32746g_discovery_lcd.c ****   { /* RGB565 format */
1007:Core/Src/stm32746g_discovery_lcd.c ****     *(__IO uint16_t*) (hLtdcHandler.LayerCfg[ActiveLayer].FBStartAdress + (2*(Ypos*BSP_LCD_GetXSize
1008:Core/Src/stm32746g_discovery_lcd.c ****   }
1009:Core/Src/stm32746g_discovery_lcd.c ****   else
1010:Core/Src/stm32746g_discovery_lcd.c ****   { /* ARGB8888 format */
1011:Core/Src/stm32746g_discovery_lcd.c ****     *(__IO uint32_t*) (hLtdcHandler.LayerCfg[ActiveLayer].FBStartAdress + (4*(Ypos*BSP_LCD_GetXSize
1012:Core/Src/stm32746g_discovery_lcd.c ****   }
1013:Core/Src/stm32746g_discovery_lcd.c **** }
1014:Core/Src/stm32746g_discovery_lcd.c **** 
1015:Core/Src/stm32746g_discovery_lcd.c **** /**
1016:Core/Src/stm32746g_discovery_lcd.c ****   * @brief  Draws a bitmap picture loaded in the internal Flash in ARGB888 format (32 bits per pixe
1017:Core/Src/stm32746g_discovery_lcd.c ****   * @param  Xpos: Bmp X position in the LCD
1018:Core/Src/stm32746g_discovery_lcd.c ****   * @param  Ypos: Bmp Y position in the LCD
1019:Core/Src/stm32746g_discovery_lcd.c ****   * @param  pbmp: Pointer to Bmp picture address in the internal Flash
1020:Core/Src/stm32746g_discovery_lcd.c ****   * @retval None
1021:Core/Src/stm32746g_discovery_lcd.c ****   */
1022:Core/Src/stm32746g_discovery_lcd.c **** void BSP_LCD_DrawBitmap(uint32_t Xpos, uint32_t Ypos, uint8_t *pbmp)
1023:Core/Src/stm32746g_discovery_lcd.c **** {
1024:Core/Src/stm32746g_discovery_lcd.c ****   uint32_t index = 0, width = 0, height = 0, bit_pixel = 0;
1025:Core/Src/stm32746g_discovery_lcd.c ****   uint32_t address;
1026:Core/Src/stm32746g_discovery_lcd.c ****   uint32_t input_color_mode = 0;
1027:Core/Src/stm32746g_discovery_lcd.c ****   
1028:Core/Src/stm32746g_discovery_lcd.c ****   /* Get bitmap data address offset */
1029:Core/Src/stm32746g_discovery_lcd.c ****   index = pbmp[10] + (pbmp[11] << 8) + (pbmp[12] << 16)  + (pbmp[13] << 24);
1030:Core/Src/stm32746g_discovery_lcd.c **** 
1031:Core/Src/stm32746g_discovery_lcd.c ****   /* Read bitmap width */
1032:Core/Src/stm32746g_discovery_lcd.c ****   width = pbmp[18] + (pbmp[19] << 8) + (pbmp[20] << 16)  + (pbmp[21] << 24);
1033:Core/Src/stm32746g_discovery_lcd.c **** 
1034:Core/Src/stm32746g_discovery_lcd.c ****   /* Read bitmap height */
1035:Core/Src/stm32746g_discovery_lcd.c ****   height = pbmp[22] + (pbmp[23] << 8) + (pbmp[24] << 16)  + (pbmp[25] << 24);
1036:Core/Src/stm32746g_discovery_lcd.c **** 
1037:Core/Src/stm32746g_discovery_lcd.c ****   /* Read bit/pixel */
1038:Core/Src/stm32746g_discovery_lcd.c ****   bit_pixel = pbmp[28] + (pbmp[29] << 8);  
1039:Core/Src/stm32746g_discovery_lcd.c ****   
1040:Core/Src/stm32746g_discovery_lcd.c ****   /* Set the address */
1041:Core/Src/stm32746g_discovery_lcd.c ****   address = hLtdcHandler.LayerCfg[ActiveLayer].FBStartAdress + (((BSP_LCD_GetXSize()*Ypos) + Xpos)*
1042:Core/Src/stm32746g_discovery_lcd.c ****   
1043:Core/Src/stm32746g_discovery_lcd.c ****   /* Get the layer pixel format */    
1044:Core/Src/stm32746g_discovery_lcd.c ****   if ((bit_pixel/8) == 4)
1045:Core/Src/stm32746g_discovery_lcd.c ****   {
1046:Core/Src/stm32746g_discovery_lcd.c ****     input_color_mode = CM_ARGB8888;
1047:Core/Src/stm32746g_discovery_lcd.c ****   }
1048:Core/Src/stm32746g_discovery_lcd.c ****   else if ((bit_pixel/8) == 2)
1049:Core/Src/stm32746g_discovery_lcd.c ****   {
1050:Core/Src/stm32746g_discovery_lcd.c ****     input_color_mode = CM_RGB565;   
1051:Core/Src/stm32746g_discovery_lcd.c ****   }
1052:Core/Src/stm32746g_discovery_lcd.c ****   else 
1053:Core/Src/stm32746g_discovery_lcd.c ****   {
1054:Core/Src/stm32746g_discovery_lcd.c ****     input_color_mode = CM_RGB888;
1055:Core/Src/stm32746g_discovery_lcd.c ****   }
1056:Core/Src/stm32746g_discovery_lcd.c ****   
ARM GAS  C:\Users\jisu8\AppData\Local\Temp\ccieva3z.s 			page 20


1057:Core/Src/stm32746g_discovery_lcd.c ****   /* Bypass the bitmap header */
1058:Core/Src/stm32746g_discovery_lcd.c ****   pbmp += (index + (width * (height - 1) * (bit_pixel/8)));  
1059:Core/Src/stm32746g_discovery_lcd.c ****   
1060:Core/Src/stm32746g_discovery_lcd.c ****   /* Convert picture to ARGB8888 pixel format */
1061:Core/Src/stm32746g_discovery_lcd.c ****   for(index=0; index < height; index++)
1062:Core/Src/stm32746g_discovery_lcd.c ****   {
1063:Core/Src/stm32746g_discovery_lcd.c ****     /* Pixel format conversion */
1064:Core/Src/stm32746g_discovery_lcd.c ****     LL_ConvertLineToARGB8888((uint32_t *)pbmp, (uint32_t *)address, width, input_color_mode);
1065:Core/Src/stm32746g_discovery_lcd.c ****     
1066:Core/Src/stm32746g_discovery_lcd.c ****     /* Increment the source and destination buffers */
1067:Core/Src/stm32746g_discovery_lcd.c ****     address+=  (BSP_LCD_GetXSize()*4);
1068:Core/Src/stm32746g_discovery_lcd.c ****     pbmp -= width*(bit_pixel/8);
1069:Core/Src/stm32746g_discovery_lcd.c ****   } 
1070:Core/Src/stm32746g_discovery_lcd.c **** }
1071:Core/Src/stm32746g_discovery_lcd.c **** 
1072:Core/Src/stm32746g_discovery_lcd.c **** /**
1073:Core/Src/stm32746g_discovery_lcd.c ****   * @brief  Draws a full rectangle.
1074:Core/Src/stm32746g_discovery_lcd.c ****   * @param  Xpos: X position
1075:Core/Src/stm32746g_discovery_lcd.c ****   * @param  Ypos: Y position
1076:Core/Src/stm32746g_discovery_lcd.c ****   * @param  Width: Rectangle width  
1077:Core/Src/stm32746g_discovery_lcd.c ****   * @param  Height: Rectangle height
1078:Core/Src/stm32746g_discovery_lcd.c ****   * @retval None
1079:Core/Src/stm32746g_discovery_lcd.c ****   */
1080:Core/Src/stm32746g_discovery_lcd.c **** void BSP_LCD_FillRect(uint16_t Xpos, uint16_t Ypos, uint16_t Width, uint16_t Height)
1081:Core/Src/stm32746g_discovery_lcd.c **** {
1082:Core/Src/stm32746g_discovery_lcd.c ****   uint32_t  x_address = 0;
1083:Core/Src/stm32746g_discovery_lcd.c ****   
1084:Core/Src/stm32746g_discovery_lcd.c ****   /* Set the text color */
1085:Core/Src/stm32746g_discovery_lcd.c ****   BSP_LCD_SetTextColor(DrawProp[ActiveLayer].TextColor);
1086:Core/Src/stm32746g_discovery_lcd.c ****   
1087:Core/Src/stm32746g_discovery_lcd.c ****   /* Get the rectangle start address */
1088:Core/Src/stm32746g_discovery_lcd.c ****   if(hLtdcHandler.LayerCfg[ActiveLayer].PixelFormat == LTDC_PIXEL_FORMAT_RGB565)
1089:Core/Src/stm32746g_discovery_lcd.c ****   { /* RGB565 format */
1090:Core/Src/stm32746g_discovery_lcd.c ****     x_address = (hLtdcHandler.LayerCfg[ActiveLayer].FBStartAdress) + 2*(BSP_LCD_GetXSize()*Ypos + X
1091:Core/Src/stm32746g_discovery_lcd.c ****   }
1092:Core/Src/stm32746g_discovery_lcd.c ****   else
1093:Core/Src/stm32746g_discovery_lcd.c ****   { /* ARGB8888 format */
1094:Core/Src/stm32746g_discovery_lcd.c ****     x_address = (hLtdcHandler.LayerCfg[ActiveLayer].FBStartAdress) + 4*(BSP_LCD_GetXSize()*Ypos + X
1095:Core/Src/stm32746g_discovery_lcd.c ****   }
1096:Core/Src/stm32746g_discovery_lcd.c ****   /* Fill the rectangle */
1097:Core/Src/stm32746g_discovery_lcd.c ****   LL_FillBuffer(ActiveLayer, (uint32_t *)x_address, Width, Height, (BSP_LCD_GetXSize() - Width), Dr
1098:Core/Src/stm32746g_discovery_lcd.c **** }
1099:Core/Src/stm32746g_discovery_lcd.c **** 
1100:Core/Src/stm32746g_discovery_lcd.c **** /**
1101:Core/Src/stm32746g_discovery_lcd.c ****   * @brief  Draws a full circle.
1102:Core/Src/stm32746g_discovery_lcd.c ****   * @param  Xpos: X position
1103:Core/Src/stm32746g_discovery_lcd.c ****   * @param  Ypos: Y position
1104:Core/Src/stm32746g_discovery_lcd.c ****   * @param  Radius: Circle radius
1105:Core/Src/stm32746g_discovery_lcd.c ****   * @retval None
1106:Core/Src/stm32746g_discovery_lcd.c ****   */
1107:Core/Src/stm32746g_discovery_lcd.c **** void BSP_LCD_FillCircle(uint16_t Xpos, uint16_t Ypos, uint16_t Radius)
1108:Core/Src/stm32746g_discovery_lcd.c **** {
1109:Core/Src/stm32746g_discovery_lcd.c ****   int32_t  decision;     /* Decision Variable */ 
1110:Core/Src/stm32746g_discovery_lcd.c ****   uint32_t  current_x;   /* Current X Value */
1111:Core/Src/stm32746g_discovery_lcd.c ****   uint32_t  current_y;   /* Current Y Value */
1112:Core/Src/stm32746g_discovery_lcd.c ****   
1113:Core/Src/stm32746g_discovery_lcd.c ****   decision = 3 - (Radius << 1);
ARM GAS  C:\Users\jisu8\AppData\Local\Temp\ccieva3z.s 			page 21


1114:Core/Src/stm32746g_discovery_lcd.c ****   
1115:Core/Src/stm32746g_discovery_lcd.c ****   current_x = 0;
1116:Core/Src/stm32746g_discovery_lcd.c ****   current_y = Radius;
1117:Core/Src/stm32746g_discovery_lcd.c ****   
1118:Core/Src/stm32746g_discovery_lcd.c ****   BSP_LCD_SetTextColor(DrawProp[ActiveLayer].TextColor);
1119:Core/Src/stm32746g_discovery_lcd.c ****   
1120:Core/Src/stm32746g_discovery_lcd.c ****   while (current_x <= current_y)
1121:Core/Src/stm32746g_discovery_lcd.c ****   {
1122:Core/Src/stm32746g_discovery_lcd.c ****     if(current_y > 0) 
1123:Core/Src/stm32746g_discovery_lcd.c ****     {
1124:Core/Src/stm32746g_discovery_lcd.c ****       BSP_LCD_DrawHLine(Xpos - current_y, Ypos + current_x, 2*current_y);
1125:Core/Src/stm32746g_discovery_lcd.c ****       BSP_LCD_DrawHLine(Xpos - current_y, Ypos - current_x, 2*current_y);
1126:Core/Src/stm32746g_discovery_lcd.c ****     }
1127:Core/Src/stm32746g_discovery_lcd.c ****     
1128:Core/Src/stm32746g_discovery_lcd.c ****     if(current_x > 0) 
1129:Core/Src/stm32746g_discovery_lcd.c ****     {
1130:Core/Src/stm32746g_discovery_lcd.c ****       BSP_LCD_DrawHLine(Xpos - current_x, Ypos - current_y, 2*current_x);
1131:Core/Src/stm32746g_discovery_lcd.c ****       BSP_LCD_DrawHLine(Xpos - current_x, Ypos + current_y, 2*current_x);
1132:Core/Src/stm32746g_discovery_lcd.c ****     }
1133:Core/Src/stm32746g_discovery_lcd.c ****     if (decision < 0)
1134:Core/Src/stm32746g_discovery_lcd.c ****     { 
1135:Core/Src/stm32746g_discovery_lcd.c ****       decision += (current_x << 2) + 6;
1136:Core/Src/stm32746g_discovery_lcd.c ****     }
1137:Core/Src/stm32746g_discovery_lcd.c ****     else
1138:Core/Src/stm32746g_discovery_lcd.c ****     {
1139:Core/Src/stm32746g_discovery_lcd.c ****       decision += ((current_x - current_y) << 2) + 10;
1140:Core/Src/stm32746g_discovery_lcd.c ****       current_y--;
1141:Core/Src/stm32746g_discovery_lcd.c ****     }
1142:Core/Src/stm32746g_discovery_lcd.c ****     current_x++;
1143:Core/Src/stm32746g_discovery_lcd.c ****   }
1144:Core/Src/stm32746g_discovery_lcd.c ****   
1145:Core/Src/stm32746g_discovery_lcd.c ****   BSP_LCD_SetTextColor(DrawProp[ActiveLayer].TextColor);
1146:Core/Src/stm32746g_discovery_lcd.c ****   BSP_LCD_DrawCircle(Xpos, Ypos, Radius);
1147:Core/Src/stm32746g_discovery_lcd.c **** }
1148:Core/Src/stm32746g_discovery_lcd.c **** 
1149:Core/Src/stm32746g_discovery_lcd.c **** /**
1150:Core/Src/stm32746g_discovery_lcd.c ****   * @brief  Draws a full poly-line (between many points).
1151:Core/Src/stm32746g_discovery_lcd.c ****   * @param  Points: Pointer to the points array
1152:Core/Src/stm32746g_discovery_lcd.c ****   * @param  PointCount: Number of points
1153:Core/Src/stm32746g_discovery_lcd.c ****   * @retval None
1154:Core/Src/stm32746g_discovery_lcd.c ****   */
1155:Core/Src/stm32746g_discovery_lcd.c **** void BSP_LCD_FillPolygon(pPoint Points, uint16_t PointCount)
1156:Core/Src/stm32746g_discovery_lcd.c **** {
1157:Core/Src/stm32746g_discovery_lcd.c ****   int16_t X = 0, Y = 0, X2 = 0, Y2 = 0, X_center = 0, Y_center = 0, X_first = 0, Y_first = 0, pixel
1158:Core/Src/stm32746g_discovery_lcd.c ****   uint16_t  image_left = 0, image_right = 0, image_top = 0, image_bottom = 0;
1159:Core/Src/stm32746g_discovery_lcd.c ****   
1160:Core/Src/stm32746g_discovery_lcd.c ****   image_left = image_right = Points->X;
1161:Core/Src/stm32746g_discovery_lcd.c ****   image_top= image_bottom = Points->Y;
1162:Core/Src/stm32746g_discovery_lcd.c ****   
1163:Core/Src/stm32746g_discovery_lcd.c ****   for(counter = 1; counter < PointCount; counter++)
1164:Core/Src/stm32746g_discovery_lcd.c ****   {
1165:Core/Src/stm32746g_discovery_lcd.c ****     pixelX = POLY_X(counter);
1166:Core/Src/stm32746g_discovery_lcd.c ****     if(pixelX < image_left)
1167:Core/Src/stm32746g_discovery_lcd.c ****     {
1168:Core/Src/stm32746g_discovery_lcd.c ****       image_left = pixelX;
1169:Core/Src/stm32746g_discovery_lcd.c ****     }
1170:Core/Src/stm32746g_discovery_lcd.c ****     if(pixelX > image_right)
ARM GAS  C:\Users\jisu8\AppData\Local\Temp\ccieva3z.s 			page 22


1171:Core/Src/stm32746g_discovery_lcd.c ****     {
1172:Core/Src/stm32746g_discovery_lcd.c ****       image_right = pixelX;
1173:Core/Src/stm32746g_discovery_lcd.c ****     }
1174:Core/Src/stm32746g_discovery_lcd.c ****     
1175:Core/Src/stm32746g_discovery_lcd.c ****     pixelY = POLY_Y(counter);
1176:Core/Src/stm32746g_discovery_lcd.c ****     if(pixelY < image_top)
1177:Core/Src/stm32746g_discovery_lcd.c ****     { 
1178:Core/Src/stm32746g_discovery_lcd.c ****       image_top = pixelY;
1179:Core/Src/stm32746g_discovery_lcd.c ****     }
1180:Core/Src/stm32746g_discovery_lcd.c ****     if(pixelY > image_bottom)
1181:Core/Src/stm32746g_discovery_lcd.c ****     {
1182:Core/Src/stm32746g_discovery_lcd.c ****       image_bottom = pixelY;
1183:Core/Src/stm32746g_discovery_lcd.c ****     }
1184:Core/Src/stm32746g_discovery_lcd.c ****   }  
1185:Core/Src/stm32746g_discovery_lcd.c ****   
1186:Core/Src/stm32746g_discovery_lcd.c ****   if(PointCount < 2)
1187:Core/Src/stm32746g_discovery_lcd.c ****   {
1188:Core/Src/stm32746g_discovery_lcd.c ****     return;
1189:Core/Src/stm32746g_discovery_lcd.c ****   }
1190:Core/Src/stm32746g_discovery_lcd.c ****   
1191:Core/Src/stm32746g_discovery_lcd.c ****   X_center = (image_left + image_right)/2;
1192:Core/Src/stm32746g_discovery_lcd.c ****   Y_center = (image_bottom + image_top)/2;
1193:Core/Src/stm32746g_discovery_lcd.c ****   
1194:Core/Src/stm32746g_discovery_lcd.c ****   X_first = Points->X;
1195:Core/Src/stm32746g_discovery_lcd.c ****   Y_first = Points->Y;
1196:Core/Src/stm32746g_discovery_lcd.c ****   
1197:Core/Src/stm32746g_discovery_lcd.c ****   while(--PointCount)
1198:Core/Src/stm32746g_discovery_lcd.c ****   {
1199:Core/Src/stm32746g_discovery_lcd.c ****     X = Points->X;
1200:Core/Src/stm32746g_discovery_lcd.c ****     Y = Points->Y;
1201:Core/Src/stm32746g_discovery_lcd.c ****     Points++;
1202:Core/Src/stm32746g_discovery_lcd.c ****     X2 = Points->X;
1203:Core/Src/stm32746g_discovery_lcd.c ****     Y2 = Points->Y;    
1204:Core/Src/stm32746g_discovery_lcd.c ****     
1205:Core/Src/stm32746g_discovery_lcd.c ****     FillTriangle(X, X2, X_center, Y, Y2, Y_center);
1206:Core/Src/stm32746g_discovery_lcd.c ****     FillTriangle(X, X_center, X2, Y, Y_center, Y2);
1207:Core/Src/stm32746g_discovery_lcd.c ****     FillTriangle(X_center, X2, X, Y_center, Y2, Y);   
1208:Core/Src/stm32746g_discovery_lcd.c ****   }
1209:Core/Src/stm32746g_discovery_lcd.c ****   
1210:Core/Src/stm32746g_discovery_lcd.c ****   FillTriangle(X_first, X2, X_center, Y_first, Y2, Y_center);
1211:Core/Src/stm32746g_discovery_lcd.c ****   FillTriangle(X_first, X_center, X2, Y_first, Y_center, Y2);
1212:Core/Src/stm32746g_discovery_lcd.c ****   FillTriangle(X_center, X2, X_first, Y_center, Y2, Y_first);   
1213:Core/Src/stm32746g_discovery_lcd.c **** }
1214:Core/Src/stm32746g_discovery_lcd.c **** 
1215:Core/Src/stm32746g_discovery_lcd.c **** /**
1216:Core/Src/stm32746g_discovery_lcd.c ****   * @brief  Draws a full ellipse.
1217:Core/Src/stm32746g_discovery_lcd.c ****   * @param  Xpos: X position
1218:Core/Src/stm32746g_discovery_lcd.c ****   * @param  Ypos: Y position
1219:Core/Src/stm32746g_discovery_lcd.c ****   * @param  XRadius: Ellipse X radius
1220:Core/Src/stm32746g_discovery_lcd.c ****   * @param  YRadius: Ellipse Y radius  
1221:Core/Src/stm32746g_discovery_lcd.c ****   * @retval None
1222:Core/Src/stm32746g_discovery_lcd.c ****   */
1223:Core/Src/stm32746g_discovery_lcd.c **** void BSP_LCD_FillEllipse(int Xpos, int Ypos, int XRadius, int YRadius)
1224:Core/Src/stm32746g_discovery_lcd.c **** {
1225:Core/Src/stm32746g_discovery_lcd.c ****   int x = 0, y = -YRadius, err = 2-2*XRadius, e2;
1226:Core/Src/stm32746g_discovery_lcd.c ****   float k = 0, rad1 = 0, rad2 = 0;
1227:Core/Src/stm32746g_discovery_lcd.c ****   
ARM GAS  C:\Users\jisu8\AppData\Local\Temp\ccieva3z.s 			page 23


1228:Core/Src/stm32746g_discovery_lcd.c ****   rad1 = XRadius;
1229:Core/Src/stm32746g_discovery_lcd.c ****   rad2 = YRadius;
1230:Core/Src/stm32746g_discovery_lcd.c ****   
1231:Core/Src/stm32746g_discovery_lcd.c ****   k = (float)(rad2/rad1);
1232:Core/Src/stm32746g_discovery_lcd.c ****   
1233:Core/Src/stm32746g_discovery_lcd.c ****   do 
1234:Core/Src/stm32746g_discovery_lcd.c ****   {       
1235:Core/Src/stm32746g_discovery_lcd.c ****     BSP_LCD_DrawHLine((Xpos-(uint16_t)(x/k)), (Ypos+y), (2*(uint16_t)(x/k) + 1));
1236:Core/Src/stm32746g_discovery_lcd.c ****     BSP_LCD_DrawHLine((Xpos-(uint16_t)(x/k)), (Ypos-y), (2*(uint16_t)(x/k) + 1));
1237:Core/Src/stm32746g_discovery_lcd.c ****     
1238:Core/Src/stm32746g_discovery_lcd.c ****     e2 = err;
1239:Core/Src/stm32746g_discovery_lcd.c ****     if (e2 <= x) 
1240:Core/Src/stm32746g_discovery_lcd.c ****     {
1241:Core/Src/stm32746g_discovery_lcd.c ****       err += ++x*2+1;
1242:Core/Src/stm32746g_discovery_lcd.c ****       if (-y == x && e2 <= y) e2 = 0;
1243:Core/Src/stm32746g_discovery_lcd.c ****     }
1244:Core/Src/stm32746g_discovery_lcd.c ****     if (e2 > y) err += ++y*2+1;
1245:Core/Src/stm32746g_discovery_lcd.c ****   }
1246:Core/Src/stm32746g_discovery_lcd.c ****   while (y <= 0);
1247:Core/Src/stm32746g_discovery_lcd.c **** }
1248:Core/Src/stm32746g_discovery_lcd.c **** 
1249:Core/Src/stm32746g_discovery_lcd.c **** /**
1250:Core/Src/stm32746g_discovery_lcd.c ****   * @brief  Enables the display.
1251:Core/Src/stm32746g_discovery_lcd.c ****   * @retval None
1252:Core/Src/stm32746g_discovery_lcd.c ****   */
1253:Core/Src/stm32746g_discovery_lcd.c **** void BSP_LCD_DisplayOn(void)
1254:Core/Src/stm32746g_discovery_lcd.c **** {
1255:Core/Src/stm32746g_discovery_lcd.c ****   /* Display On */
1256:Core/Src/stm32746g_discovery_lcd.c ****   __HAL_LTDC_ENABLE(&hLtdcHandler);
1257:Core/Src/stm32746g_discovery_lcd.c ****   HAL_GPIO_WritePin(LCD_DISP_GPIO_PORT, LCD_DISP_PIN, GPIO_PIN_SET);        /* Assert LCD_DISP pin 
1258:Core/Src/stm32746g_discovery_lcd.c ****   HAL_GPIO_WritePin(LCD_BL_CTRL_GPIO_PORT, LCD_BL_CTRL_PIN, GPIO_PIN_SET);  /* Assert LCD_BL_CTRL p
1259:Core/Src/stm32746g_discovery_lcd.c **** }
1260:Core/Src/stm32746g_discovery_lcd.c **** 
1261:Core/Src/stm32746g_discovery_lcd.c **** /**
1262:Core/Src/stm32746g_discovery_lcd.c ****   * @brief  Disables the display.
1263:Core/Src/stm32746g_discovery_lcd.c ****   * @retval None
1264:Core/Src/stm32746g_discovery_lcd.c ****   */
1265:Core/Src/stm32746g_discovery_lcd.c **** void BSP_LCD_DisplayOff(void)
1266:Core/Src/stm32746g_discovery_lcd.c **** {
1267:Core/Src/stm32746g_discovery_lcd.c ****   /* Display Off */
1268:Core/Src/stm32746g_discovery_lcd.c ****   __HAL_LTDC_DISABLE(&hLtdcHandler);
1269:Core/Src/stm32746g_discovery_lcd.c ****   HAL_GPIO_WritePin(LCD_DISP_GPIO_PORT, LCD_DISP_PIN, GPIO_PIN_RESET);      /* De-assert LCD_DISP p
1270:Core/Src/stm32746g_discovery_lcd.c ****   HAL_GPIO_WritePin(LCD_BL_CTRL_GPIO_PORT, LCD_BL_CTRL_PIN, GPIO_PIN_RESET);/* De-assert LCD_BL_CTR
1271:Core/Src/stm32746g_discovery_lcd.c **** }
1272:Core/Src/stm32746g_discovery_lcd.c **** 
1273:Core/Src/stm32746g_discovery_lcd.c **** /**
1274:Core/Src/stm32746g_discovery_lcd.c ****   * @brief  Initializes the LTDC MSP.
1275:Core/Src/stm32746g_discovery_lcd.c ****   * @param  hltdc: LTDC handle
1276:Core/Src/stm32746g_discovery_lcd.c ****   * @param  Params
1277:Core/Src/stm32746g_discovery_lcd.c ****   * @retval None
1278:Core/Src/stm32746g_discovery_lcd.c ****   */
1279:Core/Src/stm32746g_discovery_lcd.c **** __weak void BSP_LCD_MspInit(LTDC_HandleTypeDef *hltdc, void *Params)
1280:Core/Src/stm32746g_discovery_lcd.c **** {
1281:Core/Src/stm32746g_discovery_lcd.c ****   GPIO_InitTypeDef gpio_init_structure;
1282:Core/Src/stm32746g_discovery_lcd.c ****   
1283:Core/Src/stm32746g_discovery_lcd.c ****   /* Enable the LTDC and DMA2D clocks */
1284:Core/Src/stm32746g_discovery_lcd.c ****   __HAL_RCC_LTDC_CLK_ENABLE();
ARM GAS  C:\Users\jisu8\AppData\Local\Temp\ccieva3z.s 			page 24


1285:Core/Src/stm32746g_discovery_lcd.c ****   __HAL_RCC_DMA2D_CLK_ENABLE();
1286:Core/Src/stm32746g_discovery_lcd.c ****   
1287:Core/Src/stm32746g_discovery_lcd.c ****   /* Enable GPIOs clock */
1288:Core/Src/stm32746g_discovery_lcd.c ****   __HAL_RCC_GPIOE_CLK_ENABLE();
1289:Core/Src/stm32746g_discovery_lcd.c ****   __HAL_RCC_GPIOG_CLK_ENABLE();
1290:Core/Src/stm32746g_discovery_lcd.c ****   __HAL_RCC_GPIOI_CLK_ENABLE();
1291:Core/Src/stm32746g_discovery_lcd.c ****   __HAL_RCC_GPIOJ_CLK_ENABLE();
1292:Core/Src/stm32746g_discovery_lcd.c ****   __HAL_RCC_GPIOK_CLK_ENABLE();
1293:Core/Src/stm32746g_discovery_lcd.c ****   LCD_DISP_GPIO_CLK_ENABLE();
1294:Core/Src/stm32746g_discovery_lcd.c ****   LCD_BL_CTRL_GPIO_CLK_ENABLE();
1295:Core/Src/stm32746g_discovery_lcd.c **** 
1296:Core/Src/stm32746g_discovery_lcd.c ****   /*** LTDC Pins configuration ***/
1297:Core/Src/stm32746g_discovery_lcd.c ****   /* GPIOE configuration */
1298:Core/Src/stm32746g_discovery_lcd.c ****   gpio_init_structure.Pin       = GPIO_PIN_4;
1299:Core/Src/stm32746g_discovery_lcd.c ****   gpio_init_structure.Mode      = GPIO_MODE_AF_PP;
1300:Core/Src/stm32746g_discovery_lcd.c ****   gpio_init_structure.Pull      = GPIO_NOPULL;
1301:Core/Src/stm32746g_discovery_lcd.c ****   gpio_init_structure.Speed     = GPIO_SPEED_FAST;
1302:Core/Src/stm32746g_discovery_lcd.c ****   gpio_init_structure.Alternate = GPIO_AF14_LTDC;  
1303:Core/Src/stm32746g_discovery_lcd.c ****   HAL_GPIO_Init(GPIOE, &gpio_init_structure);
1304:Core/Src/stm32746g_discovery_lcd.c **** 
1305:Core/Src/stm32746g_discovery_lcd.c ****   /* GPIOG configuration */
1306:Core/Src/stm32746g_discovery_lcd.c ****   gpio_init_structure.Pin       = GPIO_PIN_12;
1307:Core/Src/stm32746g_discovery_lcd.c ****   gpio_init_structure.Mode      = GPIO_MODE_AF_PP;
1308:Core/Src/stm32746g_discovery_lcd.c ****   gpio_init_structure.Alternate = GPIO_AF9_LTDC;
1309:Core/Src/stm32746g_discovery_lcd.c ****   HAL_GPIO_Init(GPIOG, &gpio_init_structure);
1310:Core/Src/stm32746g_discovery_lcd.c **** 
1311:Core/Src/stm32746g_discovery_lcd.c ****   /* GPIOI LTDC alternate configuration */
1312:Core/Src/stm32746g_discovery_lcd.c ****   gpio_init_structure.Pin       = GPIO_PIN_9 | GPIO_PIN_10 | \
1313:Core/Src/stm32746g_discovery_lcd.c ****                                   GPIO_PIN_14 | GPIO_PIN_15;
1314:Core/Src/stm32746g_discovery_lcd.c ****   gpio_init_structure.Mode      = GPIO_MODE_AF_PP;
1315:Core/Src/stm32746g_discovery_lcd.c ****   gpio_init_structure.Alternate = GPIO_AF14_LTDC;
1316:Core/Src/stm32746g_discovery_lcd.c ****   HAL_GPIO_Init(GPIOI, &gpio_init_structure);
1317:Core/Src/stm32746g_discovery_lcd.c **** 
1318:Core/Src/stm32746g_discovery_lcd.c ****   /* GPIOJ configuration */  
1319:Core/Src/stm32746g_discovery_lcd.c ****   gpio_init_structure.Pin       = GPIO_PIN_0 | GPIO_PIN_1 | GPIO_PIN_2 | GPIO_PIN_3 | \
1320:Core/Src/stm32746g_discovery_lcd.c ****                                   GPIO_PIN_4 | GPIO_PIN_5 | GPIO_PIN_6 | GPIO_PIN_7 | \
1321:Core/Src/stm32746g_discovery_lcd.c ****                                   GPIO_PIN_8 | GPIO_PIN_9 | GPIO_PIN_10 | GPIO_PIN_11 | \
1322:Core/Src/stm32746g_discovery_lcd.c ****                                   GPIO_PIN_13 | GPIO_PIN_14 | GPIO_PIN_15;
1323:Core/Src/stm32746g_discovery_lcd.c ****   gpio_init_structure.Mode      = GPIO_MODE_AF_PP;
1324:Core/Src/stm32746g_discovery_lcd.c ****   gpio_init_structure.Alternate = GPIO_AF14_LTDC;
1325:Core/Src/stm32746g_discovery_lcd.c ****   HAL_GPIO_Init(GPIOJ, &gpio_init_structure);  
1326:Core/Src/stm32746g_discovery_lcd.c **** 
1327:Core/Src/stm32746g_discovery_lcd.c ****   /* GPIOK configuration */  
1328:Core/Src/stm32746g_discovery_lcd.c ****   gpio_init_structure.Pin       = GPIO_PIN_0 | GPIO_PIN_1 | GPIO_PIN_2 | GPIO_PIN_4 | \
1329:Core/Src/stm32746g_discovery_lcd.c ****                                   GPIO_PIN_5 | GPIO_PIN_6 | GPIO_PIN_7;
1330:Core/Src/stm32746g_discovery_lcd.c ****   gpio_init_structure.Mode      = GPIO_MODE_AF_PP;
1331:Core/Src/stm32746g_discovery_lcd.c ****   gpio_init_structure.Alternate = GPIO_AF14_LTDC;
1332:Core/Src/stm32746g_discovery_lcd.c ****   HAL_GPIO_Init(GPIOK, &gpio_init_structure);
1333:Core/Src/stm32746g_discovery_lcd.c **** 
1334:Core/Src/stm32746g_discovery_lcd.c ****   /* LCD_DISP GPIO configuration */
1335:Core/Src/stm32746g_discovery_lcd.c ****   gpio_init_structure.Pin       = LCD_DISP_PIN;     /* LCD_DISP pin has to be manually controlled *
1336:Core/Src/stm32746g_discovery_lcd.c ****   gpio_init_structure.Mode      = GPIO_MODE_OUTPUT_PP;
1337:Core/Src/stm32746g_discovery_lcd.c ****   HAL_GPIO_Init(LCD_DISP_GPIO_PORT, &gpio_init_structure);
1338:Core/Src/stm32746g_discovery_lcd.c **** 
1339:Core/Src/stm32746g_discovery_lcd.c ****   /* LCD_BL_CTRL GPIO configuration */
1340:Core/Src/stm32746g_discovery_lcd.c ****   gpio_init_structure.Pin       = LCD_BL_CTRL_PIN;  /* LCD_BL_CTRL pin has to be manually controlle
1341:Core/Src/stm32746g_discovery_lcd.c ****   gpio_init_structure.Mode      = GPIO_MODE_OUTPUT_PP;
ARM GAS  C:\Users\jisu8\AppData\Local\Temp\ccieva3z.s 			page 25


1342:Core/Src/stm32746g_discovery_lcd.c ****   HAL_GPIO_Init(LCD_BL_CTRL_GPIO_PORT, &gpio_init_structure);
1343:Core/Src/stm32746g_discovery_lcd.c **** }
1344:Core/Src/stm32746g_discovery_lcd.c **** 
1345:Core/Src/stm32746g_discovery_lcd.c **** /**
1346:Core/Src/stm32746g_discovery_lcd.c ****   * @brief  DeInitializes BSP_LCD MSP.
1347:Core/Src/stm32746g_discovery_lcd.c ****   * @param  hltdc: LTDC handle
1348:Core/Src/stm32746g_discovery_lcd.c ****   * @param  Params
1349:Core/Src/stm32746g_discovery_lcd.c ****   * @retval None
1350:Core/Src/stm32746g_discovery_lcd.c ****   */
1351:Core/Src/stm32746g_discovery_lcd.c **** __weak void BSP_LCD_MspDeInit(LTDC_HandleTypeDef *hltdc, void *Params)
1352:Core/Src/stm32746g_discovery_lcd.c **** {
1353:Core/Src/stm32746g_discovery_lcd.c ****   GPIO_InitTypeDef  gpio_init_structure;
1354:Core/Src/stm32746g_discovery_lcd.c **** 
1355:Core/Src/stm32746g_discovery_lcd.c ****   /* Disable LTDC block */
1356:Core/Src/stm32746g_discovery_lcd.c ****   __HAL_LTDC_DISABLE(hltdc);
1357:Core/Src/stm32746g_discovery_lcd.c **** 
1358:Core/Src/stm32746g_discovery_lcd.c ****   /* LTDC Pins deactivation */
1359:Core/Src/stm32746g_discovery_lcd.c **** 
1360:Core/Src/stm32746g_discovery_lcd.c ****   /* GPIOE deactivation */
1361:Core/Src/stm32746g_discovery_lcd.c ****   gpio_init_structure.Pin       = GPIO_PIN_4;
1362:Core/Src/stm32746g_discovery_lcd.c ****   HAL_GPIO_DeInit(GPIOE, gpio_init_structure.Pin);
1363:Core/Src/stm32746g_discovery_lcd.c **** 
1364:Core/Src/stm32746g_discovery_lcd.c ****   /* GPIOG deactivation */
1365:Core/Src/stm32746g_discovery_lcd.c ****   gpio_init_structure.Pin       = GPIO_PIN_12;
1366:Core/Src/stm32746g_discovery_lcd.c ****   HAL_GPIO_DeInit(GPIOG, gpio_init_structure.Pin);
1367:Core/Src/stm32746g_discovery_lcd.c **** 
1368:Core/Src/stm32746g_discovery_lcd.c ****   /* GPIOI deactivation */
1369:Core/Src/stm32746g_discovery_lcd.c ****   gpio_init_structure.Pin       = GPIO_PIN_8 | GPIO_PIN_9 | GPIO_PIN_10 | GPIO_PIN_12 | \
1370:Core/Src/stm32746g_discovery_lcd.c ****                                   GPIO_PIN_13 | GPIO_PIN_14 | GPIO_PIN_15;
1371:Core/Src/stm32746g_discovery_lcd.c ****   HAL_GPIO_DeInit(GPIOI, gpio_init_structure.Pin);
1372:Core/Src/stm32746g_discovery_lcd.c **** 
1373:Core/Src/stm32746g_discovery_lcd.c ****   /* GPIOJ deactivation */
1374:Core/Src/stm32746g_discovery_lcd.c ****   gpio_init_structure.Pin       = GPIO_PIN_0 | GPIO_PIN_1 | GPIO_PIN_2 | GPIO_PIN_3 | \
1375:Core/Src/stm32746g_discovery_lcd.c ****                                   GPIO_PIN_4 | GPIO_PIN_5 | GPIO_PIN_6 | GPIO_PIN_7 | \
1376:Core/Src/stm32746g_discovery_lcd.c ****                                   GPIO_PIN_8 | GPIO_PIN_9 | GPIO_PIN_10 | GPIO_PIN_11 | \
1377:Core/Src/stm32746g_discovery_lcd.c ****                                   GPIO_PIN_13 | GPIO_PIN_14 | GPIO_PIN_15;
1378:Core/Src/stm32746g_discovery_lcd.c ****   HAL_GPIO_DeInit(GPIOJ, gpio_init_structure.Pin);
1379:Core/Src/stm32746g_discovery_lcd.c **** 
1380:Core/Src/stm32746g_discovery_lcd.c ****   /* GPIOK deactivation */
1381:Core/Src/stm32746g_discovery_lcd.c ****   gpio_init_structure.Pin       = GPIO_PIN_0 | GPIO_PIN_1 | GPIO_PIN_2 | GPIO_PIN_4 | \
1382:Core/Src/stm32746g_discovery_lcd.c ****                                   GPIO_PIN_5 | GPIO_PIN_6 | GPIO_PIN_7;
1383:Core/Src/stm32746g_discovery_lcd.c ****   HAL_GPIO_DeInit(GPIOK, gpio_init_structure.Pin);
1384:Core/Src/stm32746g_discovery_lcd.c **** 
1385:Core/Src/stm32746g_discovery_lcd.c ****   /* Disable LTDC clock */
1386:Core/Src/stm32746g_discovery_lcd.c ****   __HAL_RCC_LTDC_CLK_DISABLE();
1387:Core/Src/stm32746g_discovery_lcd.c **** 
1388:Core/Src/stm32746g_discovery_lcd.c ****   /* GPIO pins clock can be shut down in the application
1389:Core/Src/stm32746g_discovery_lcd.c ****      by surcharging this __weak function */
1390:Core/Src/stm32746g_discovery_lcd.c **** }
1391:Core/Src/stm32746g_discovery_lcd.c **** 
1392:Core/Src/stm32746g_discovery_lcd.c **** /**
1393:Core/Src/stm32746g_discovery_lcd.c ****   * @brief  Clock Config.
1394:Core/Src/stm32746g_discovery_lcd.c ****   * @param  hltdc: LTDC handle
1395:Core/Src/stm32746g_discovery_lcd.c ****   * @param  Params
1396:Core/Src/stm32746g_discovery_lcd.c ****   * @note   This API is called by BSP_LCD_Init()
1397:Core/Src/stm32746g_discovery_lcd.c ****   *         Being __weak it can be overwritten by the application
1398:Core/Src/stm32746g_discovery_lcd.c ****   * @retval None
ARM GAS  C:\Users\jisu8\AppData\Local\Temp\ccieva3z.s 			page 26


1399:Core/Src/stm32746g_discovery_lcd.c ****   */
1400:Core/Src/stm32746g_discovery_lcd.c **** __weak void BSP_LCD_ClockConfig(LTDC_HandleTypeDef *hltdc, void *Params)
1401:Core/Src/stm32746g_discovery_lcd.c **** {
1402:Core/Src/stm32746g_discovery_lcd.c ****   static RCC_PeriphCLKInitTypeDef  periph_clk_init_struct;
1403:Core/Src/stm32746g_discovery_lcd.c **** 
1404:Core/Src/stm32746g_discovery_lcd.c ****   /* RK043FN48H LCD clock configuration */
1405:Core/Src/stm32746g_discovery_lcd.c ****   /* PLLSAI_VCO Input = HSE_VALUE/PLL_M = 1 Mhz */
1406:Core/Src/stm32746g_discovery_lcd.c ****   /* PLLSAI_VCO Output = PLLSAI_VCO Input * PLLSAIN = 192 Mhz */
1407:Core/Src/stm32746g_discovery_lcd.c ****   /* PLLLCDCLK = PLLSAI_VCO Output/PLLSAIR = 192/5 = 38.4 Mhz */
1408:Core/Src/stm32746g_discovery_lcd.c ****   /* LTDC clock frequency = PLLLCDCLK / LTDC_PLLSAI_DIVR_4 = 38.4/4 = 9.6Mhz */
1409:Core/Src/stm32746g_discovery_lcd.c ****   periph_clk_init_struct.PeriphClockSelection = RCC_PERIPHCLK_LTDC;
1410:Core/Src/stm32746g_discovery_lcd.c ****   periph_clk_init_struct.PLLSAI.PLLSAIN = 192;
1411:Core/Src/stm32746g_discovery_lcd.c ****   periph_clk_init_struct.PLLSAI.PLLSAIR = RK043FN48H_FREQUENCY_DIVIDER;
1412:Core/Src/stm32746g_discovery_lcd.c ****   periph_clk_init_struct.PLLSAIDivR = RCC_PLLSAIDIVR_4;
1413:Core/Src/stm32746g_discovery_lcd.c ****   HAL_RCCEx_PeriphCLKConfig(&periph_clk_init_struct);
1414:Core/Src/stm32746g_discovery_lcd.c **** }
1415:Core/Src/stm32746g_discovery_lcd.c **** 
1416:Core/Src/stm32746g_discovery_lcd.c **** 
1417:Core/Src/stm32746g_discovery_lcd.c **** /*******************************************************************************
1418:Core/Src/stm32746g_discovery_lcd.c ****                             Static Functions
1419:Core/Src/stm32746g_discovery_lcd.c **** *******************************************************************************/
1420:Core/Src/stm32746g_discovery_lcd.c **** 
1421:Core/Src/stm32746g_discovery_lcd.c **** /**
1422:Core/Src/stm32746g_discovery_lcd.c ****   * @brief  Draws a character on LCD.
1423:Core/Src/stm32746g_discovery_lcd.c ****   * @param  Xpos: Line where to display the character shape
1424:Core/Src/stm32746g_discovery_lcd.c ****   * @param  Ypos: Start column address
1425:Core/Src/stm32746g_discovery_lcd.c ****   * @param  c: Pointer to the character data
1426:Core/Src/stm32746g_discovery_lcd.c ****   * @retval None
1427:Core/Src/stm32746g_discovery_lcd.c ****   */
1428:Core/Src/stm32746g_discovery_lcd.c **** static void DrawChar(uint16_t Xpos, uint16_t Ypos, const uint8_t *c)
1429:Core/Src/stm32746g_discovery_lcd.c **** {
1430:Core/Src/stm32746g_discovery_lcd.c ****   uint32_t i = 0, j = 0;
1431:Core/Src/stm32746g_discovery_lcd.c ****   uint16_t height, width;
1432:Core/Src/stm32746g_discovery_lcd.c ****   uint8_t  offset;
1433:Core/Src/stm32746g_discovery_lcd.c ****   uint8_t  *pchar;
1434:Core/Src/stm32746g_discovery_lcd.c ****   uint32_t line;
1435:Core/Src/stm32746g_discovery_lcd.c ****   
1436:Core/Src/stm32746g_discovery_lcd.c ****   height = DrawProp[ActiveLayer].pFont->Height;
1437:Core/Src/stm32746g_discovery_lcd.c ****   width  = DrawProp[ActiveLayer].pFont->Width;
1438:Core/Src/stm32746g_discovery_lcd.c ****   
1439:Core/Src/stm32746g_discovery_lcd.c ****   offset =  8 *((width + 7)/8) -  width ;
1440:Core/Src/stm32746g_discovery_lcd.c ****   
1441:Core/Src/stm32746g_discovery_lcd.c ****   for(i = 0; i < height; i++)
1442:Core/Src/stm32746g_discovery_lcd.c ****   {
1443:Core/Src/stm32746g_discovery_lcd.c ****     pchar = ((uint8_t *)c + (width + 7)/8 * i);
1444:Core/Src/stm32746g_discovery_lcd.c ****     
1445:Core/Src/stm32746g_discovery_lcd.c ****     switch(((width + 7)/8))
1446:Core/Src/stm32746g_discovery_lcd.c ****     {
1447:Core/Src/stm32746g_discovery_lcd.c ****       
1448:Core/Src/stm32746g_discovery_lcd.c ****     case 1:
1449:Core/Src/stm32746g_discovery_lcd.c ****       line =  pchar[0];      
1450:Core/Src/stm32746g_discovery_lcd.c ****       break;
1451:Core/Src/stm32746g_discovery_lcd.c ****       
1452:Core/Src/stm32746g_discovery_lcd.c ****     case 2:
1453:Core/Src/stm32746g_discovery_lcd.c ****       line =  (pchar[0]<< 8) | pchar[1];      
1454:Core/Src/stm32746g_discovery_lcd.c ****       break;
1455:Core/Src/stm32746g_discovery_lcd.c ****       
ARM GAS  C:\Users\jisu8\AppData\Local\Temp\ccieva3z.s 			page 27


1456:Core/Src/stm32746g_discovery_lcd.c ****     case 3:
1457:Core/Src/stm32746g_discovery_lcd.c ****     default:
1458:Core/Src/stm32746g_discovery_lcd.c ****       line =  (pchar[0]<< 16) | (pchar[1]<< 8) | pchar[2];      
1459:Core/Src/stm32746g_discovery_lcd.c ****       break;
1460:Core/Src/stm32746g_discovery_lcd.c ****     } 
1461:Core/Src/stm32746g_discovery_lcd.c ****     
1462:Core/Src/stm32746g_discovery_lcd.c ****     for (j = 0; j < width; j++)
1463:Core/Src/stm32746g_discovery_lcd.c ****     {
1464:Core/Src/stm32746g_discovery_lcd.c ****       if(line & (1 << (width- j + offset- 1))) 
1465:Core/Src/stm32746g_discovery_lcd.c ****       {
1466:Core/Src/stm32746g_discovery_lcd.c ****         BSP_LCD_DrawPixel((Xpos + j), Ypos, DrawProp[ActiveLayer].TextColor);
1467:Core/Src/stm32746g_discovery_lcd.c ****       }
1468:Core/Src/stm32746g_discovery_lcd.c ****       else
1469:Core/Src/stm32746g_discovery_lcd.c ****       {
1470:Core/Src/stm32746g_discovery_lcd.c ****         BSP_LCD_DrawPixel((Xpos + j), Ypos, DrawProp[ActiveLayer].BackColor);
1471:Core/Src/stm32746g_discovery_lcd.c ****       } 
1472:Core/Src/stm32746g_discovery_lcd.c ****     }
1473:Core/Src/stm32746g_discovery_lcd.c ****     Ypos++;
1474:Core/Src/stm32746g_discovery_lcd.c ****   }
1475:Core/Src/stm32746g_discovery_lcd.c **** }
1476:Core/Src/stm32746g_discovery_lcd.c **** 
1477:Core/Src/stm32746g_discovery_lcd.c **** /**
1478:Core/Src/stm32746g_discovery_lcd.c ****   * @brief  Fills a triangle (between 3 points).
1479:Core/Src/stm32746g_discovery_lcd.c ****   * @param  x1: Point 1 X position
1480:Core/Src/stm32746g_discovery_lcd.c ****   * @param  y1: Point 1 Y position
1481:Core/Src/stm32746g_discovery_lcd.c ****   * @param  x2: Point 2 X position
1482:Core/Src/stm32746g_discovery_lcd.c ****   * @param  y2: Point 2 Y position
1483:Core/Src/stm32746g_discovery_lcd.c ****   * @param  x3: Point 3 X position
1484:Core/Src/stm32746g_discovery_lcd.c ****   * @param  y3: Point 3 Y position
1485:Core/Src/stm32746g_discovery_lcd.c ****   * @retval None
1486:Core/Src/stm32746g_discovery_lcd.c ****   */
1487:Core/Src/stm32746g_discovery_lcd.c **** static void FillTriangle(uint16_t x1, uint16_t x2, uint16_t x3, uint16_t y1, uint16_t y2, uint16_t 
1488:Core/Src/stm32746g_discovery_lcd.c **** { 
1489:Core/Src/stm32746g_discovery_lcd.c ****   int16_t deltax = 0, deltay = 0, x = 0, y = 0, xinc1 = 0, xinc2 = 0, 
1490:Core/Src/stm32746g_discovery_lcd.c ****   yinc1 = 0, yinc2 = 0, den = 0, num = 0, num_add = 0, num_pixels = 0,
1491:Core/Src/stm32746g_discovery_lcd.c ****   curpixel = 0;
1492:Core/Src/stm32746g_discovery_lcd.c ****   
1493:Core/Src/stm32746g_discovery_lcd.c ****   deltax = ABS(x2 - x1);        /* The difference between the x's */
1494:Core/Src/stm32746g_discovery_lcd.c ****   deltay = ABS(y2 - y1);        /* The difference between the y's */
1495:Core/Src/stm32746g_discovery_lcd.c ****   x = x1;                       /* Start x off at the first pixel */
1496:Core/Src/stm32746g_discovery_lcd.c ****   y = y1;                       /* Start y off at the first pixel */
1497:Core/Src/stm32746g_discovery_lcd.c ****   
1498:Core/Src/stm32746g_discovery_lcd.c ****   if (x2 >= x1)                 /* The x-values are increasing */
1499:Core/Src/stm32746g_discovery_lcd.c ****   {
1500:Core/Src/stm32746g_discovery_lcd.c ****     xinc1 = 1;
1501:Core/Src/stm32746g_discovery_lcd.c ****     xinc2 = 1;
1502:Core/Src/stm32746g_discovery_lcd.c ****   }
1503:Core/Src/stm32746g_discovery_lcd.c ****   else                          /* The x-values are decreasing */
1504:Core/Src/stm32746g_discovery_lcd.c ****   {
1505:Core/Src/stm32746g_discovery_lcd.c ****     xinc1 = -1;
1506:Core/Src/stm32746g_discovery_lcd.c ****     xinc2 = -1;
1507:Core/Src/stm32746g_discovery_lcd.c ****   }
1508:Core/Src/stm32746g_discovery_lcd.c ****   
1509:Core/Src/stm32746g_discovery_lcd.c ****   if (y2 >= y1)                 /* The y-values are increasing */
1510:Core/Src/stm32746g_discovery_lcd.c ****   {
1511:Core/Src/stm32746g_discovery_lcd.c ****     yinc1 = 1;
1512:Core/Src/stm32746g_discovery_lcd.c ****     yinc2 = 1;
ARM GAS  C:\Users\jisu8\AppData\Local\Temp\ccieva3z.s 			page 28


1513:Core/Src/stm32746g_discovery_lcd.c ****   }
1514:Core/Src/stm32746g_discovery_lcd.c ****   else                          /* The y-values are decreasing */
1515:Core/Src/stm32746g_discovery_lcd.c ****   {
1516:Core/Src/stm32746g_discovery_lcd.c ****     yinc1 = -1;
1517:Core/Src/stm32746g_discovery_lcd.c ****     yinc2 = -1;
1518:Core/Src/stm32746g_discovery_lcd.c ****   }
1519:Core/Src/stm32746g_discovery_lcd.c ****   
1520:Core/Src/stm32746g_discovery_lcd.c ****   if (deltax >= deltay)         /* There is at least one x-value for every y-value */
1521:Core/Src/stm32746g_discovery_lcd.c ****   {
1522:Core/Src/stm32746g_discovery_lcd.c ****     xinc1 = 0;                  /* Don't change the x when numerator >= denominator */
1523:Core/Src/stm32746g_discovery_lcd.c ****     yinc2 = 0;                  /* Don't change the y for every iteration */
1524:Core/Src/stm32746g_discovery_lcd.c ****     den = deltax;
1525:Core/Src/stm32746g_discovery_lcd.c ****     num = deltax / 2;
1526:Core/Src/stm32746g_discovery_lcd.c ****     num_add = deltay;
1527:Core/Src/stm32746g_discovery_lcd.c ****     num_pixels = deltax;         /* There are more x-values than y-values */
1528:Core/Src/stm32746g_discovery_lcd.c ****   }
1529:Core/Src/stm32746g_discovery_lcd.c ****   else                          /* There is at least one y-value for every x-value */
1530:Core/Src/stm32746g_discovery_lcd.c ****   {
1531:Core/Src/stm32746g_discovery_lcd.c ****     xinc2 = 0;                  /* Don't change the x for every iteration */
1532:Core/Src/stm32746g_discovery_lcd.c ****     yinc1 = 0;                  /* Don't change the y when numerator >= denominator */
1533:Core/Src/stm32746g_discovery_lcd.c ****     den = deltay;
1534:Core/Src/stm32746g_discovery_lcd.c ****     num = deltay / 2;
1535:Core/Src/stm32746g_discovery_lcd.c ****     num_add = deltax;
1536:Core/Src/stm32746g_discovery_lcd.c ****     num_pixels = deltay;         /* There are more y-values than x-values */
1537:Core/Src/stm32746g_discovery_lcd.c ****   }
1538:Core/Src/stm32746g_discovery_lcd.c ****   
1539:Core/Src/stm32746g_discovery_lcd.c ****   for (curpixel = 0; curpixel <= num_pixels; curpixel++)
1540:Core/Src/stm32746g_discovery_lcd.c ****   {
1541:Core/Src/stm32746g_discovery_lcd.c ****     BSP_LCD_DrawLine(x, y, x3, y3);
1542:Core/Src/stm32746g_discovery_lcd.c ****     
1543:Core/Src/stm32746g_discovery_lcd.c ****     num += num_add;              /* Increase the numerator by the top of the fraction */
1544:Core/Src/stm32746g_discovery_lcd.c ****     if (num >= den)             /* Check if numerator >= denominator */
1545:Core/Src/stm32746g_discovery_lcd.c ****     {
1546:Core/Src/stm32746g_discovery_lcd.c ****       num -= den;               /* Calculate the new numerator value */
1547:Core/Src/stm32746g_discovery_lcd.c ****       x += xinc1;               /* Change the x as appropriate */
1548:Core/Src/stm32746g_discovery_lcd.c ****       y += yinc1;               /* Change the y as appropriate */
1549:Core/Src/stm32746g_discovery_lcd.c ****     }
1550:Core/Src/stm32746g_discovery_lcd.c ****     x += xinc2;                 /* Change the x as appropriate */
1551:Core/Src/stm32746g_discovery_lcd.c ****     y += yinc2;                 /* Change the y as appropriate */
1552:Core/Src/stm32746g_discovery_lcd.c ****   } 
1553:Core/Src/stm32746g_discovery_lcd.c **** }
1554:Core/Src/stm32746g_discovery_lcd.c **** 
1555:Core/Src/stm32746g_discovery_lcd.c **** /**
1556:Core/Src/stm32746g_discovery_lcd.c ****   * @brief  Fills a buffer.
1557:Core/Src/stm32746g_discovery_lcd.c ****   * @param  LayerIndex: Layer index
1558:Core/Src/stm32746g_discovery_lcd.c ****   * @param  pDst: Pointer to destination buffer
1559:Core/Src/stm32746g_discovery_lcd.c ****   * @param  xSize: Buffer width
1560:Core/Src/stm32746g_discovery_lcd.c ****   * @param  ySize: Buffer height
1561:Core/Src/stm32746g_discovery_lcd.c ****   * @param  OffLine: Offset
1562:Core/Src/stm32746g_discovery_lcd.c ****   * @param  ColorIndex: Color index
1563:Core/Src/stm32746g_discovery_lcd.c ****   * @retval None
1564:Core/Src/stm32746g_discovery_lcd.c ****   */
1565:Core/Src/stm32746g_discovery_lcd.c **** static void LL_FillBuffer(uint32_t LayerIndex, void *pDst, uint32_t xSize, uint32_t ySize, uint32_t
1566:Core/Src/stm32746g_discovery_lcd.c **** {
  29              		.loc 1 1566 1 view -0
  30              		.cfi_startproc
  31              		@ args = 8, pretend = 0, frame = 0
ARM GAS  C:\Users\jisu8\AppData\Local\Temp\ccieva3z.s 			page 29


  32              		@ frame_needed = 0, uses_anonymous_args = 0
  33              		.loc 1 1566 1 is_stmt 0 view .LVU1
  34 0000 2DE9F041 		push	{r4, r5, r6, r7, r8, lr}
  35              	.LCFI0:
  36              		.cfi_def_cfa_offset 24
  37              		.cfi_offset 4, -24
  38              		.cfi_offset 5, -20
  39              		.cfi_offset 6, -16
  40              		.cfi_offset 7, -12
  41              		.cfi_offset 8, -8
  42              		.cfi_offset 14, -4
  43 0004 82B0     		sub	sp, sp, #8
  44              	.LCFI1:
  45              		.cfi_def_cfa_offset 32
  46 0006 0546     		mov	r5, r0
  47 0008 0E46     		mov	r6, r1
  48 000a 1746     		mov	r7, r2
  49 000c 9846     		mov	r8, r3
1567:Core/Src/stm32746g_discovery_lcd.c ****   /* Register to memory mode with ARGB8888 as color Mode */ 
1568:Core/Src/stm32746g_discovery_lcd.c ****   hDma2dHandler.Init.Mode         = DMA2D_R2M;
  50              		.loc 1 1568 3 is_stmt 1 view .LVU2
  51              		.loc 1 1568 35 is_stmt 0 view .LVU3
  52 000e 1B4B     		ldr	r3, .L8
  53              	.LVL1:
  54              		.loc 1 1568 35 view .LVU4
  55 0010 4FF44032 		mov	r2, #196608
  56              	.LVL2:
  57              		.loc 1 1568 35 view .LVU5
  58 0014 5A60     		str	r2, [r3, #4]
1569:Core/Src/stm32746g_discovery_lcd.c ****   if(hLtdcHandler.LayerCfg[ActiveLayer].PixelFormat == LTDC_PIXEL_FORMAT_RGB565)
  59              		.loc 1 1569 3 is_stmt 1 view .LVU6
  60              		.loc 1 1569 40 is_stmt 0 view .LVU7
  61 0016 1A4B     		ldr	r3, .L8+4
  62 0018 1B68     		ldr	r3, [r3]
  63 001a 1A4C     		ldr	r4, .L8+8
  64 001c 4FF0340C 		mov	ip, #52
  65 0020 0CFB034C 		mla	ip, ip, r3, r4
  66 0024 DCF84830 		ldr	r3, [ip, #72]
  67              		.loc 1 1569 5 view .LVU8
  68 0028 022B     		cmp	r3, #2
  69 002a 0DD0     		beq	.L6
1570:Core/Src/stm32746g_discovery_lcd.c ****   { /* RGB565 format */ 
1571:Core/Src/stm32746g_discovery_lcd.c ****     hDma2dHandler.Init.ColorMode    = DMA2D_RGB565;
1572:Core/Src/stm32746g_discovery_lcd.c ****   }
1573:Core/Src/stm32746g_discovery_lcd.c ****   else
1574:Core/Src/stm32746g_discovery_lcd.c ****   { /* ARGB8888 format */
1575:Core/Src/stm32746g_discovery_lcd.c ****     hDma2dHandler.Init.ColorMode    = DMA2D_ARGB8888;
  70              		.loc 1 1575 5 is_stmt 1 view .LVU9
  71              		.loc 1 1575 37 is_stmt 0 view .LVU10
  72 002c 134B     		ldr	r3, .L8
  73 002e 0022     		movs	r2, #0
  74 0030 9A60     		str	r2, [r3, #8]
  75              	.L3:
1576:Core/Src/stm32746g_discovery_lcd.c ****   }
1577:Core/Src/stm32746g_discovery_lcd.c ****   hDma2dHandler.Init.OutputOffset = OffLine;      
  76              		.loc 1 1577 3 is_stmt 1 view .LVU11
  77              		.loc 1 1577 35 is_stmt 0 view .LVU12
ARM GAS  C:\Users\jisu8\AppData\Local\Temp\ccieva3z.s 			page 30


  78 0032 1248     		ldr	r0, .L8
  79              	.LVL3:
  80              		.loc 1 1577 35 view .LVU13
  81 0034 089B     		ldr	r3, [sp, #32]
  82 0036 C360     		str	r3, [r0, #12]
1578:Core/Src/stm32746g_discovery_lcd.c ****   
1579:Core/Src/stm32746g_discovery_lcd.c ****   hDma2dHandler.Instance = DMA2D;
  83              		.loc 1 1579 3 is_stmt 1 view .LVU14
  84              		.loc 1 1579 26 is_stmt 0 view .LVU15
  85 0038 134B     		ldr	r3, .L8+12
  86 003a 0360     		str	r3, [r0]
1580:Core/Src/stm32746g_discovery_lcd.c ****   
1581:Core/Src/stm32746g_discovery_lcd.c ****   /* DMA2D Initialization */
1582:Core/Src/stm32746g_discovery_lcd.c ****   if(HAL_DMA2D_Init(&hDma2dHandler) == HAL_OK) 
  87              		.loc 1 1582 3 is_stmt 1 view .LVU16
  88              		.loc 1 1582 6 is_stmt 0 view .LVU17
  89 003c FFF7FEFF 		bl	HAL_DMA2D_Init
  90              	.LVL4:
  91              		.loc 1 1582 5 view .LVU18
  92 0040 30B1     		cbz	r0, .L7
  93              	.L1:
1583:Core/Src/stm32746g_discovery_lcd.c ****   {
1584:Core/Src/stm32746g_discovery_lcd.c ****     if(HAL_DMA2D_ConfigLayer(&hDma2dHandler, LayerIndex) == HAL_OK) 
1585:Core/Src/stm32746g_discovery_lcd.c ****     {
1586:Core/Src/stm32746g_discovery_lcd.c ****       if (HAL_DMA2D_Start(&hDma2dHandler, ColorIndex, (uint32_t)pDst, xSize, ySize) == HAL_OK)
1587:Core/Src/stm32746g_discovery_lcd.c ****       {
1588:Core/Src/stm32746g_discovery_lcd.c ****         /* Polling For DMA transfer */  
1589:Core/Src/stm32746g_discovery_lcd.c ****         HAL_DMA2D_PollForTransfer(&hDma2dHandler, 10);
1590:Core/Src/stm32746g_discovery_lcd.c ****       }
1591:Core/Src/stm32746g_discovery_lcd.c ****     }
1592:Core/Src/stm32746g_discovery_lcd.c ****   } 
1593:Core/Src/stm32746g_discovery_lcd.c **** }
  94              		.loc 1 1593 1 view .LVU19
  95 0042 02B0     		add	sp, sp, #8
  96              	.LCFI2:
  97              		.cfi_remember_state
  98              		.cfi_def_cfa_offset 24
  99              		@ sp needed
 100 0044 BDE8F081 		pop	{r4, r5, r6, r7, r8, pc}
 101              	.LVL5:
 102              	.L6:
 103              	.LCFI3:
 104              		.cfi_restore_state
1571:Core/Src/stm32746g_discovery_lcd.c ****   }
 105              		.loc 1 1571 5 is_stmt 1 view .LVU20
1571:Core/Src/stm32746g_discovery_lcd.c ****   }
 106              		.loc 1 1571 37 is_stmt 0 view .LVU21
 107 0048 0C4B     		ldr	r3, .L8
 108 004a 0222     		movs	r2, #2
 109 004c 9A60     		str	r2, [r3, #8]
 110 004e F0E7     		b	.L3
 111              	.LVL6:
 112              	.L7:
1584:Core/Src/stm32746g_discovery_lcd.c ****     {
 113              		.loc 1 1584 5 is_stmt 1 view .LVU22
1584:Core/Src/stm32746g_discovery_lcd.c ****     {
 114              		.loc 1 1584 8 is_stmt 0 view .LVU23
ARM GAS  C:\Users\jisu8\AppData\Local\Temp\ccieva3z.s 			page 31


 115 0050 2946     		mov	r1, r5
 116 0052 0A48     		ldr	r0, .L8
 117 0054 FFF7FEFF 		bl	HAL_DMA2D_ConfigLayer
 118              	.LVL7:
1584:Core/Src/stm32746g_discovery_lcd.c ****     {
 119              		.loc 1 1584 7 view .LVU24
 120 0058 0028     		cmp	r0, #0
 121 005a F2D1     		bne	.L1
1586:Core/Src/stm32746g_discovery_lcd.c ****       {
 122              		.loc 1 1586 7 is_stmt 1 view .LVU25
1586:Core/Src/stm32746g_discovery_lcd.c ****       {
 123              		.loc 1 1586 11 is_stmt 0 view .LVU26
 124 005c CDF80080 		str	r8, [sp]
 125 0060 3B46     		mov	r3, r7
 126 0062 3246     		mov	r2, r6
 127 0064 0999     		ldr	r1, [sp, #36]
 128 0066 0548     		ldr	r0, .L8
 129 0068 FFF7FEFF 		bl	HAL_DMA2D_Start
 130              	.LVL8:
1586:Core/Src/stm32746g_discovery_lcd.c ****       {
 131              		.loc 1 1586 10 view .LVU27
 132 006c 0028     		cmp	r0, #0
 133 006e E8D1     		bne	.L1
1589:Core/Src/stm32746g_discovery_lcd.c ****       }
 134              		.loc 1 1589 9 is_stmt 1 view .LVU28
 135 0070 0A21     		movs	r1, #10
 136 0072 0248     		ldr	r0, .L8
 137 0074 FFF7FEFF 		bl	HAL_DMA2D_PollForTransfer
 138              	.LVL9:
 139              		.loc 1 1593 1 is_stmt 0 view .LVU29
 140 0078 E3E7     		b	.L1
 141              	.L9:
 142 007a 00BF     		.align	2
 143              	.L8:
 144 007c 00000000 		.word	.LANCHOR0
 145 0080 00000000 		.word	.LANCHOR2
 146 0084 00000000 		.word	.LANCHOR1
 147 0088 00B00240 		.word	1073917952
 148              		.cfi_endproc
 149              	.LFE195:
 151              		.section	.text.LL_ConvertLineToARGB8888,"ax",%progbits
 152              		.align	1
 153              		.syntax unified
 154              		.thumb
 155              		.thumb_func
 157              	LL_ConvertLineToARGB8888:
 158              	.LVL10:
 159              	.LFB196:
1594:Core/Src/stm32746g_discovery_lcd.c **** 
1595:Core/Src/stm32746g_discovery_lcd.c **** /**
1596:Core/Src/stm32746g_discovery_lcd.c ****   * @brief  Converts a line to an ARGB8888 pixel format.
1597:Core/Src/stm32746g_discovery_lcd.c ****   * @param  pSrc: Pointer to source buffer
1598:Core/Src/stm32746g_discovery_lcd.c ****   * @param  pDst: Output color
1599:Core/Src/stm32746g_discovery_lcd.c ****   * @param  xSize: Buffer width
1600:Core/Src/stm32746g_discovery_lcd.c ****   * @param  ColorMode: Input color mode   
1601:Core/Src/stm32746g_discovery_lcd.c ****   * @retval None
1602:Core/Src/stm32746g_discovery_lcd.c ****   */
ARM GAS  C:\Users\jisu8\AppData\Local\Temp\ccieva3z.s 			page 32


1603:Core/Src/stm32746g_discovery_lcd.c **** static void LL_ConvertLineToARGB8888(void *pSrc, void *pDst, uint32_t xSize, uint32_t ColorMode)
1604:Core/Src/stm32746g_discovery_lcd.c **** {    
 160              		.loc 1 1604 1 is_stmt 1 view -0
 161              		.cfi_startproc
 162              		@ args = 0, pretend = 0, frame = 0
 163              		@ frame_needed = 0, uses_anonymous_args = 0
 164              		.loc 1 1604 1 is_stmt 0 view .LVU31
 165 0000 F0B5     		push	{r4, r5, r6, r7, lr}
 166              	.LCFI4:
 167              		.cfi_def_cfa_offset 20
 168              		.cfi_offset 4, -20
 169              		.cfi_offset 5, -16
 170              		.cfi_offset 6, -12
 171              		.cfi_offset 7, -8
 172              		.cfi_offset 14, -4
 173 0002 83B0     		sub	sp, sp, #12
 174              	.LCFI5:
 175              		.cfi_def_cfa_offset 32
 176 0004 0546     		mov	r5, r0
 177 0006 0E46     		mov	r6, r1
 178 0008 1746     		mov	r7, r2
1605:Core/Src/stm32746g_discovery_lcd.c ****   /* Configure the DMA2D Mode, Color Mode and output offset */
1606:Core/Src/stm32746g_discovery_lcd.c ****   hDma2dHandler.Init.Mode         = DMA2D_M2M_PFC;
 179              		.loc 1 1606 3 is_stmt 1 view .LVU32
 180              		.loc 1 1606 35 is_stmt 0 view .LVU33
 181 000a 1448     		ldr	r0, .L14
 182              	.LVL11:
 183              		.loc 1 1606 35 view .LVU34
 184 000c 4FF48032 		mov	r2, #65536
 185              	.LVL12:
 186              		.loc 1 1606 35 view .LVU35
 187 0010 4260     		str	r2, [r0, #4]
1607:Core/Src/stm32746g_discovery_lcd.c ****   hDma2dHandler.Init.ColorMode    = DMA2D_ARGB8888;
 188              		.loc 1 1607 3 is_stmt 1 view .LVU36
 189              		.loc 1 1607 35 is_stmt 0 view .LVU37
 190 0012 0024     		movs	r4, #0
 191 0014 8460     		str	r4, [r0, #8]
1608:Core/Src/stm32746g_discovery_lcd.c ****   hDma2dHandler.Init.OutputOffset = 0;     
 192              		.loc 1 1608 3 is_stmt 1 view .LVU38
 193              		.loc 1 1608 35 is_stmt 0 view .LVU39
 194 0016 C460     		str	r4, [r0, #12]
1609:Core/Src/stm32746g_discovery_lcd.c ****   
1610:Core/Src/stm32746g_discovery_lcd.c ****   /* Foreground Configuration */
1611:Core/Src/stm32746g_discovery_lcd.c ****   hDma2dHandler.LayerCfg[1].AlphaMode = DMA2D_NO_MODIF_ALPHA;
 195              		.loc 1 1611 3 is_stmt 1 view .LVU40
 196              		.loc 1 1611 39 is_stmt 0 view .LVU41
 197 0018 0463     		str	r4, [r0, #48]
1612:Core/Src/stm32746g_discovery_lcd.c ****   hDma2dHandler.LayerCfg[1].InputAlpha = 0xFF;
 198              		.loc 1 1612 3 is_stmt 1 view .LVU42
 199              		.loc 1 1612 40 is_stmt 0 view .LVU43
 200 001a FF22     		movs	r2, #255
 201 001c 4263     		str	r2, [r0, #52]
1613:Core/Src/stm32746g_discovery_lcd.c ****   hDma2dHandler.LayerCfg[1].InputColorMode = ColorMode;
 202              		.loc 1 1613 3 is_stmt 1 view .LVU44
 203              		.loc 1 1613 44 is_stmt 0 view .LVU45
 204 001e C362     		str	r3, [r0, #44]
1614:Core/Src/stm32746g_discovery_lcd.c ****   hDma2dHandler.LayerCfg[1].InputOffset = 0;
ARM GAS  C:\Users\jisu8\AppData\Local\Temp\ccieva3z.s 			page 33


 205              		.loc 1 1614 3 is_stmt 1 view .LVU46
 206              		.loc 1 1614 41 is_stmt 0 view .LVU47
 207 0020 8462     		str	r4, [r0, #40]
1615:Core/Src/stm32746g_discovery_lcd.c ****   
1616:Core/Src/stm32746g_discovery_lcd.c ****   hDma2dHandler.Instance = DMA2D; 
 208              		.loc 1 1616 3 is_stmt 1 view .LVU48
 209              		.loc 1 1616 26 is_stmt 0 view .LVU49
 210 0022 0F4B     		ldr	r3, .L14+4
 211              	.LVL13:
 212              		.loc 1 1616 26 view .LVU50
 213 0024 0360     		str	r3, [r0]
1617:Core/Src/stm32746g_discovery_lcd.c ****   
1618:Core/Src/stm32746g_discovery_lcd.c ****   /* DMA2D Initialization */
1619:Core/Src/stm32746g_discovery_lcd.c ****   if(HAL_DMA2D_Init(&hDma2dHandler) == HAL_OK) 
 214              		.loc 1 1619 3 is_stmt 1 view .LVU51
 215              		.loc 1 1619 6 is_stmt 0 view .LVU52
 216 0026 FFF7FEFF 		bl	HAL_DMA2D_Init
 217              	.LVL14:
 218              		.loc 1 1619 5 view .LVU53
 219 002a 08B1     		cbz	r0, .L13
 220              	.L10:
1620:Core/Src/stm32746g_discovery_lcd.c ****   {
1621:Core/Src/stm32746g_discovery_lcd.c ****     if(HAL_DMA2D_ConfigLayer(&hDma2dHandler, 1) == HAL_OK) 
1622:Core/Src/stm32746g_discovery_lcd.c ****     {
1623:Core/Src/stm32746g_discovery_lcd.c ****       if (HAL_DMA2D_Start(&hDma2dHandler, (uint32_t)pSrc, (uint32_t)pDst, xSize, 1) == HAL_OK)
1624:Core/Src/stm32746g_discovery_lcd.c ****       {
1625:Core/Src/stm32746g_discovery_lcd.c ****         /* Polling For DMA transfer */  
1626:Core/Src/stm32746g_discovery_lcd.c ****         HAL_DMA2D_PollForTransfer(&hDma2dHandler, 10);
1627:Core/Src/stm32746g_discovery_lcd.c ****       }
1628:Core/Src/stm32746g_discovery_lcd.c ****     }
1629:Core/Src/stm32746g_discovery_lcd.c ****   } 
1630:Core/Src/stm32746g_discovery_lcd.c **** }
 221              		.loc 1 1630 1 view .LVU54
 222 002c 03B0     		add	sp, sp, #12
 223              	.LCFI6:
 224              		.cfi_remember_state
 225              		.cfi_def_cfa_offset 20
 226              		@ sp needed
 227 002e F0BD     		pop	{r4, r5, r6, r7, pc}
 228              	.LVL15:
 229              	.L13:
 230              	.LCFI7:
 231              		.cfi_restore_state
1621:Core/Src/stm32746g_discovery_lcd.c ****     {
 232              		.loc 1 1621 5 is_stmt 1 view .LVU55
1621:Core/Src/stm32746g_discovery_lcd.c ****     {
 233              		.loc 1 1621 8 is_stmt 0 view .LVU56
 234 0030 0121     		movs	r1, #1
 235 0032 0A48     		ldr	r0, .L14
 236 0034 FFF7FEFF 		bl	HAL_DMA2D_ConfigLayer
 237              	.LVL16:
1621:Core/Src/stm32746g_discovery_lcd.c ****     {
 238              		.loc 1 1621 7 view .LVU57
 239 0038 0028     		cmp	r0, #0
 240 003a F7D1     		bne	.L10
1623:Core/Src/stm32746g_discovery_lcd.c ****       {
 241              		.loc 1 1623 7 is_stmt 1 view .LVU58
ARM GAS  C:\Users\jisu8\AppData\Local\Temp\ccieva3z.s 			page 34


1623:Core/Src/stm32746g_discovery_lcd.c ****       {
 242              		.loc 1 1623 11 is_stmt 0 view .LVU59
 243 003c 0123     		movs	r3, #1
 244 003e 0093     		str	r3, [sp]
 245 0040 3B46     		mov	r3, r7
 246 0042 3246     		mov	r2, r6
 247 0044 2946     		mov	r1, r5
 248 0046 0548     		ldr	r0, .L14
 249 0048 FFF7FEFF 		bl	HAL_DMA2D_Start
 250              	.LVL17:
1623:Core/Src/stm32746g_discovery_lcd.c ****       {
 251              		.loc 1 1623 10 view .LVU60
 252 004c 0028     		cmp	r0, #0
 253 004e EDD1     		bne	.L10
1626:Core/Src/stm32746g_discovery_lcd.c ****       }
 254              		.loc 1 1626 9 is_stmt 1 view .LVU61
 255 0050 0A21     		movs	r1, #10
 256 0052 0248     		ldr	r0, .L14
 257 0054 FFF7FEFF 		bl	HAL_DMA2D_PollForTransfer
 258              	.LVL18:
 259              		.loc 1 1630 1 is_stmt 0 view .LVU62
 260 0058 E8E7     		b	.L10
 261              	.L15:
 262 005a 00BF     		.align	2
 263              	.L14:
 264 005c 00000000 		.word	.LANCHOR0
 265 0060 00B00240 		.word	1073917952
 266              		.cfi_endproc
 267              	.LFE196:
 269              		.section	.text.BSP_LCD_GetXSize,"ax",%progbits
 270              		.align	1
 271              		.global	BSP_LCD_GetXSize
 272              		.syntax unified
 273              		.thumb
 274              		.thumb_func
 276              	BSP_LCD_GetXSize:
 277              	.LFB143:
 233:Core/Src/stm32746g_discovery_lcd.c ****   return hLtdcHandler.LayerCfg[ActiveLayer].ImageWidth;
 278              		.loc 1 233 1 is_stmt 1 view -0
 279              		.cfi_startproc
 280              		@ args = 0, pretend = 0, frame = 0
 281              		@ frame_needed = 0, uses_anonymous_args = 0
 282              		@ link register save eliminated.
 234:Core/Src/stm32746g_discovery_lcd.c **** }
 283              		.loc 1 234 3 view .LVU64
 234:Core/Src/stm32746g_discovery_lcd.c **** }
 284              		.loc 1 234 44 is_stmt 0 view .LVU65
 285 0000 034B     		ldr	r3, .L17
 286 0002 1A68     		ldr	r2, [r3]
 287 0004 034B     		ldr	r3, .L17+4
 288 0006 3421     		movs	r1, #52
 289 0008 01FB0233 		mla	r3, r1, r2, r3
 235:Core/Src/stm32746g_discovery_lcd.c **** 
 290              		.loc 1 235 1 view .LVU66
 291 000c 186E     		ldr	r0, [r3, #96]
 292 000e 7047     		bx	lr
 293              	.L18:
ARM GAS  C:\Users\jisu8\AppData\Local\Temp\ccieva3z.s 			page 35


 294              		.align	2
 295              	.L17:
 296 0010 00000000 		.word	.LANCHOR2
 297 0014 00000000 		.word	.LANCHOR1
 298              		.cfi_endproc
 299              	.LFE143:
 301              		.section	.text.BSP_LCD_GetYSize,"ax",%progbits
 302              		.align	1
 303              		.global	BSP_LCD_GetYSize
 304              		.syntax unified
 305              		.thumb
 306              		.thumb_func
 308              	BSP_LCD_GetYSize:
 309              	.LFB144:
 242:Core/Src/stm32746g_discovery_lcd.c ****   return hLtdcHandler.LayerCfg[ActiveLayer].ImageHeight;
 310              		.loc 1 242 1 is_stmt 1 view -0
 311              		.cfi_startproc
 312              		@ args = 0, pretend = 0, frame = 0
 313              		@ frame_needed = 0, uses_anonymous_args = 0
 314              		@ link register save eliminated.
 243:Core/Src/stm32746g_discovery_lcd.c **** }
 315              		.loc 1 243 3 view .LVU68
 243:Core/Src/stm32746g_discovery_lcd.c **** }
 316              		.loc 1 243 44 is_stmt 0 view .LVU69
 317 0000 034B     		ldr	r3, .L20
 318 0002 1A68     		ldr	r2, [r3]
 319 0004 034B     		ldr	r3, .L20+4
 320 0006 3421     		movs	r1, #52
 321 0008 01FB0233 		mla	r3, r1, r2, r3
 244:Core/Src/stm32746g_discovery_lcd.c **** 
 322              		.loc 1 244 1 view .LVU70
 323 000c 586E     		ldr	r0, [r3, #100]
 324 000e 7047     		bx	lr
 325              	.L21:
 326              		.align	2
 327              	.L20:
 328 0010 00000000 		.word	.LANCHOR2
 329 0014 00000000 		.word	.LANCHOR1
 330              		.cfi_endproc
 331              	.LFE144:
 333              		.section	.text.BSP_LCD_SetXSize,"ax",%progbits
 334              		.align	1
 335              		.global	BSP_LCD_SetXSize
 336              		.syntax unified
 337              		.thumb
 338              		.thumb_func
 340              	BSP_LCD_SetXSize:
 341              	.LVL19:
 342              	.LFB145:
 252:Core/Src/stm32746g_discovery_lcd.c ****   hLtdcHandler.LayerCfg[ActiveLayer].ImageWidth = imageWidthPixels;
 343              		.loc 1 252 1 is_stmt 1 view -0
 344              		.cfi_startproc
 345              		@ args = 0, pretend = 0, frame = 0
 346              		@ frame_needed = 0, uses_anonymous_args = 0
 347              		@ link register save eliminated.
 253:Core/Src/stm32746g_discovery_lcd.c **** }
 348              		.loc 1 253 3 view .LVU72
ARM GAS  C:\Users\jisu8\AppData\Local\Temp\ccieva3z.s 			page 36


 253:Core/Src/stm32746g_discovery_lcd.c **** }
 349              		.loc 1 253 37 is_stmt 0 view .LVU73
 350 0000 034B     		ldr	r3, .L23
 351 0002 1A68     		ldr	r2, [r3]
 253:Core/Src/stm32746g_discovery_lcd.c **** }
 352              		.loc 1 253 49 view .LVU74
 353 0004 034B     		ldr	r3, .L23+4
 354 0006 3421     		movs	r1, #52
 355 0008 01FB0233 		mla	r3, r1, r2, r3
 356 000c 1866     		str	r0, [r3, #96]
 254:Core/Src/stm32746g_discovery_lcd.c **** 
 357              		.loc 1 254 1 view .LVU75
 358 000e 7047     		bx	lr
 359              	.L24:
 360              		.align	2
 361              	.L23:
 362 0010 00000000 		.word	.LANCHOR2
 363 0014 00000000 		.word	.LANCHOR1
 364              		.cfi_endproc
 365              	.LFE145:
 367              		.section	.text.BSP_LCD_SetYSize,"ax",%progbits
 368              		.align	1
 369              		.global	BSP_LCD_SetYSize
 370              		.syntax unified
 371              		.thumb
 372              		.thumb_func
 374              	BSP_LCD_SetYSize:
 375              	.LVL20:
 376              	.LFB146:
 262:Core/Src/stm32746g_discovery_lcd.c ****   hLtdcHandler.LayerCfg[ActiveLayer].ImageHeight = imageHeightPixels;
 377              		.loc 1 262 1 is_stmt 1 view -0
 378              		.cfi_startproc
 379              		@ args = 0, pretend = 0, frame = 0
 380              		@ frame_needed = 0, uses_anonymous_args = 0
 381              		@ link register save eliminated.
 263:Core/Src/stm32746g_discovery_lcd.c **** }
 382              		.loc 1 263 3 view .LVU77
 263:Core/Src/stm32746g_discovery_lcd.c **** }
 383              		.loc 1 263 37 is_stmt 0 view .LVU78
 384 0000 034B     		ldr	r3, .L26
 385 0002 1A68     		ldr	r2, [r3]
 263:Core/Src/stm32746g_discovery_lcd.c **** }
 386              		.loc 1 263 50 view .LVU79
 387 0004 034B     		ldr	r3, .L26+4
 388 0006 3421     		movs	r1, #52
 389 0008 01FB0233 		mla	r3, r1, r2, r3
 390 000c 5866     		str	r0, [r3, #100]
 264:Core/Src/stm32746g_discovery_lcd.c **** 
 391              		.loc 1 264 1 view .LVU80
 392 000e 7047     		bx	lr
 393              	.L27:
 394              		.align	2
 395              	.L26:
 396 0010 00000000 		.word	.LANCHOR2
 397 0014 00000000 		.word	.LANCHOR1
 398              		.cfi_endproc
 399              	.LFE146:
ARM GAS  C:\Users\jisu8\AppData\Local\Temp\ccieva3z.s 			page 37


 401              		.section	.text.BSP_LCD_LayerDefaultInit,"ax",%progbits
 402              		.align	1
 403              		.global	BSP_LCD_LayerDefaultInit
 404              		.syntax unified
 405              		.thumb
 406              		.thumb_func
 408              	BSP_LCD_LayerDefaultInit:
 409              	.LVL21:
 410              	.LFB147:
 273:Core/Src/stm32746g_discovery_lcd.c ****   LCD_LayerCfgTypeDef  layer_cfg;
 411              		.loc 1 273 1 is_stmt 1 view -0
 412              		.cfi_startproc
 413              		@ args = 0, pretend = 0, frame = 56
 414              		@ frame_needed = 0, uses_anonymous_args = 0
 273:Core/Src/stm32746g_discovery_lcd.c ****   LCD_LayerCfgTypeDef  layer_cfg;
 415              		.loc 1 273 1 is_stmt 0 view .LVU82
 416 0000 70B5     		push	{r4, r5, r6, lr}
 417              	.LCFI8:
 418              		.cfi_def_cfa_offset 16
 419              		.cfi_offset 4, -16
 420              		.cfi_offset 5, -12
 421              		.cfi_offset 6, -8
 422              		.cfi_offset 14, -4
 423 0002 8EB0     		sub	sp, sp, #56
 424              	.LCFI9:
 425              		.cfi_def_cfa_offset 72
 426 0004 0446     		mov	r4, r0
 427 0006 0E46     		mov	r6, r1
 274:Core/Src/stm32746g_discovery_lcd.c **** 
 428              		.loc 1 274 3 is_stmt 1 view .LVU83
 277:Core/Src/stm32746g_discovery_lcd.c ****   layer_cfg.WindowX1 = BSP_LCD_GetXSize();
 429              		.loc 1 277 3 view .LVU84
 277:Core/Src/stm32746g_discovery_lcd.c ****   layer_cfg.WindowX1 = BSP_LCD_GetXSize();
 430              		.loc 1 277 22 is_stmt 0 view .LVU85
 431 0008 0025     		movs	r5, #0
 432 000a 0195     		str	r5, [sp, #4]
 278:Core/Src/stm32746g_discovery_lcd.c ****   layer_cfg.WindowY0 = 0;
 433              		.loc 1 278 3 is_stmt 1 view .LVU86
 278:Core/Src/stm32746g_discovery_lcd.c ****   layer_cfg.WindowY0 = 0;
 434              		.loc 1 278 24 is_stmt 0 view .LVU87
 435 000c FFF7FEFF 		bl	BSP_LCD_GetXSize
 436              	.LVL22:
 278:Core/Src/stm32746g_discovery_lcd.c ****   layer_cfg.WindowY0 = 0;
 437              		.loc 1 278 22 view .LVU88
 438 0010 0290     		str	r0, [sp, #8]
 279:Core/Src/stm32746g_discovery_lcd.c ****   layer_cfg.WindowY1 = BSP_LCD_GetYSize(); 
 439              		.loc 1 279 3 is_stmt 1 view .LVU89
 279:Core/Src/stm32746g_discovery_lcd.c ****   layer_cfg.WindowY1 = BSP_LCD_GetYSize(); 
 440              		.loc 1 279 22 is_stmt 0 view .LVU90
 441 0012 0395     		str	r5, [sp, #12]
 280:Core/Src/stm32746g_discovery_lcd.c ****   layer_cfg.PixelFormat = LTDC_PIXEL_FORMAT_ARGB8888;
 442              		.loc 1 280 3 is_stmt 1 view .LVU91
 280:Core/Src/stm32746g_discovery_lcd.c ****   layer_cfg.PixelFormat = LTDC_PIXEL_FORMAT_ARGB8888;
 443              		.loc 1 280 24 is_stmt 0 view .LVU92
 444 0014 FFF7FEFF 		bl	BSP_LCD_GetYSize
 445              	.LVL23:
 280:Core/Src/stm32746g_discovery_lcd.c ****   layer_cfg.PixelFormat = LTDC_PIXEL_FORMAT_ARGB8888;
ARM GAS  C:\Users\jisu8\AppData\Local\Temp\ccieva3z.s 			page 38


 446              		.loc 1 280 22 view .LVU93
 447 0018 0490     		str	r0, [sp, #16]
 281:Core/Src/stm32746g_discovery_lcd.c ****   layer_cfg.FBStartAdress = FB_Address;
 448              		.loc 1 281 3 is_stmt 1 view .LVU94
 281:Core/Src/stm32746g_discovery_lcd.c ****   layer_cfg.FBStartAdress = FB_Address;
 449              		.loc 1 281 25 is_stmt 0 view .LVU95
 450 001a 0595     		str	r5, [sp, #20]
 282:Core/Src/stm32746g_discovery_lcd.c ****   layer_cfg.Alpha = 255;
 451              		.loc 1 282 3 is_stmt 1 view .LVU96
 282:Core/Src/stm32746g_discovery_lcd.c ****   layer_cfg.Alpha = 255;
 452              		.loc 1 282 27 is_stmt 0 view .LVU97
 453 001c 0A96     		str	r6, [sp, #40]
 283:Core/Src/stm32746g_discovery_lcd.c ****   layer_cfg.Alpha0 = 0;
 454              		.loc 1 283 3 is_stmt 1 view .LVU98
 283:Core/Src/stm32746g_discovery_lcd.c ****   layer_cfg.Alpha0 = 0;
 455              		.loc 1 283 19 is_stmt 0 view .LVU99
 456 001e FF23     		movs	r3, #255
 457 0020 0693     		str	r3, [sp, #24]
 284:Core/Src/stm32746g_discovery_lcd.c ****   layer_cfg.Backcolor.Blue = 0;
 458              		.loc 1 284 3 is_stmt 1 view .LVU100
 284:Core/Src/stm32746g_discovery_lcd.c ****   layer_cfg.Backcolor.Blue = 0;
 459              		.loc 1 284 20 is_stmt 0 view .LVU101
 460 0022 0795     		str	r5, [sp, #28]
 285:Core/Src/stm32746g_discovery_lcd.c ****   layer_cfg.Backcolor.Green = 0;
 461              		.loc 1 285 3 is_stmt 1 view .LVU102
 285:Core/Src/stm32746g_discovery_lcd.c ****   layer_cfg.Backcolor.Green = 0;
 462              		.loc 1 285 28 is_stmt 0 view .LVU103
 463 0024 8DF83450 		strb	r5, [sp, #52]
 286:Core/Src/stm32746g_discovery_lcd.c ****   layer_cfg.Backcolor.Red = 0;
 464              		.loc 1 286 3 is_stmt 1 view .LVU104
 286:Core/Src/stm32746g_discovery_lcd.c ****   layer_cfg.Backcolor.Red = 0;
 465              		.loc 1 286 29 is_stmt 0 view .LVU105
 466 0028 8DF83550 		strb	r5, [sp, #53]
 287:Core/Src/stm32746g_discovery_lcd.c ****   layer_cfg.BlendingFactor1 = LTDC_BLENDING_FACTOR1_PAxCA;
 467              		.loc 1 287 3 is_stmt 1 view .LVU106
 287:Core/Src/stm32746g_discovery_lcd.c ****   layer_cfg.BlendingFactor1 = LTDC_BLENDING_FACTOR1_PAxCA;
 468              		.loc 1 287 27 is_stmt 0 view .LVU107
 469 002c 8DF83650 		strb	r5, [sp, #54]
 288:Core/Src/stm32746g_discovery_lcd.c ****   layer_cfg.BlendingFactor2 = LTDC_BLENDING_FACTOR2_PAxCA;
 470              		.loc 1 288 3 is_stmt 1 view .LVU108
 288:Core/Src/stm32746g_discovery_lcd.c ****   layer_cfg.BlendingFactor2 = LTDC_BLENDING_FACTOR2_PAxCA;
 471              		.loc 1 288 29 is_stmt 0 view .LVU109
 472 0030 4FF4C063 		mov	r3, #1536
 473 0034 0893     		str	r3, [sp, #32]
 289:Core/Src/stm32746g_discovery_lcd.c ****   layer_cfg.ImageWidth = BSP_LCD_GetXSize();
 474              		.loc 1 289 3 is_stmt 1 view .LVU110
 289:Core/Src/stm32746g_discovery_lcd.c ****   layer_cfg.ImageWidth = BSP_LCD_GetXSize();
 475              		.loc 1 289 29 is_stmt 0 view .LVU111
 476 0036 0723     		movs	r3, #7
 477 0038 0993     		str	r3, [sp, #36]
 290:Core/Src/stm32746g_discovery_lcd.c ****   layer_cfg.ImageHeight = BSP_LCD_GetYSize();
 478              		.loc 1 290 3 is_stmt 1 view .LVU112
 290:Core/Src/stm32746g_discovery_lcd.c ****   layer_cfg.ImageHeight = BSP_LCD_GetYSize();
 479              		.loc 1 290 26 is_stmt 0 view .LVU113
 480 003a FFF7FEFF 		bl	BSP_LCD_GetXSize
 481              	.LVL24:
 290:Core/Src/stm32746g_discovery_lcd.c ****   layer_cfg.ImageHeight = BSP_LCD_GetYSize();
ARM GAS  C:\Users\jisu8\AppData\Local\Temp\ccieva3z.s 			page 39


 482              		.loc 1 290 24 view .LVU114
 483 003e 0B90     		str	r0, [sp, #44]
 291:Core/Src/stm32746g_discovery_lcd.c ****   
 484              		.loc 1 291 3 is_stmt 1 view .LVU115
 291:Core/Src/stm32746g_discovery_lcd.c ****   
 485              		.loc 1 291 27 is_stmt 0 view .LVU116
 486 0040 FFF7FEFF 		bl	BSP_LCD_GetYSize
 487              	.LVL25:
 291:Core/Src/stm32746g_discovery_lcd.c ****   
 488              		.loc 1 291 25 view .LVU117
 489 0044 0C90     		str	r0, [sp, #48]
 293:Core/Src/stm32746g_discovery_lcd.c **** 
 490              		.loc 1 293 3 is_stmt 1 view .LVU118
 491 0046 2246     		mov	r2, r4
 492 0048 01A9     		add	r1, sp, #4
 493 004a 0A48     		ldr	r0, .L30
 494 004c FFF7FEFF 		bl	HAL_LTDC_ConfigLayer
 495              	.LVL26:
 295:Core/Src/stm32746g_discovery_lcd.c ****   DrawProp[LayerIndex].pFont     = &Font24;
 496              		.loc 1 295 3 view .LVU119
 295:Core/Src/stm32746g_discovery_lcd.c ****   DrawProp[LayerIndex].pFont     = &Font24;
 497              		.loc 1 295 34 is_stmt 0 view .LVU120
 498 0050 094A     		ldr	r2, .L30+4
 499 0052 04EB4403 		add	r3, r4, r4, lsl #1
 500 0056 02EB8303 		add	r3, r2, r3, lsl #2
 501 005a 4FF0FF31 		mov	r1, #-1
 502 005e 5960     		str	r1, [r3, #4]
 296:Core/Src/stm32746g_discovery_lcd.c ****   DrawProp[LayerIndex].TextColor = LCD_COLOR_BLACK; 
 503              		.loc 1 296 3 is_stmt 1 view .LVU121
 296:Core/Src/stm32746g_discovery_lcd.c ****   DrawProp[LayerIndex].TextColor = LCD_COLOR_BLACK; 
 504              		.loc 1 296 34 is_stmt 0 view .LVU122
 505 0060 0649     		ldr	r1, .L30+8
 506 0062 9960     		str	r1, [r3, #8]
 297:Core/Src/stm32746g_discovery_lcd.c **** }
 507              		.loc 1 297 3 is_stmt 1 view .LVU123
 297:Core/Src/stm32746g_discovery_lcd.c **** }
 508              		.loc 1 297 34 is_stmt 0 view .LVU124
 509 0064 04EB4404 		add	r4, r4, r4, lsl #1
 510 0068 4FF07F43 		mov	r3, #-16777216
 511 006c 42F82430 		str	r3, [r2, r4, lsl #2]
 298:Core/Src/stm32746g_discovery_lcd.c **** 
 512              		.loc 1 298 1 view .LVU125
 513 0070 0EB0     		add	sp, sp, #56
 514              	.LCFI10:
 515              		.cfi_def_cfa_offset 16
 516              		@ sp needed
 517 0072 70BD     		pop	{r4, r5, r6, pc}
 518              	.LVL27:
 519              	.L31:
 298:Core/Src/stm32746g_discovery_lcd.c **** 
 520              		.loc 1 298 1 view .LVU126
 521              		.align	2
 522              	.L30:
 523 0074 00000000 		.word	.LANCHOR1
 524 0078 00000000 		.word	.LANCHOR3
 525 007c 00000000 		.word	.LANCHOR4
 526              		.cfi_endproc
ARM GAS  C:\Users\jisu8\AppData\Local\Temp\ccieva3z.s 			page 40


 527              	.LFE147:
 529              		.section	.text.BSP_LCD_LayerRgb565Init,"ax",%progbits
 530              		.align	1
 531              		.global	BSP_LCD_LayerRgb565Init
 532              		.syntax unified
 533              		.thumb
 534              		.thumb_func
 536              	BSP_LCD_LayerRgb565Init:
 537              	.LVL28:
 538              	.LFB148:
 307:Core/Src/stm32746g_discovery_lcd.c ****   LCD_LayerCfgTypeDef  layer_cfg;
 539              		.loc 1 307 1 is_stmt 1 view -0
 540              		.cfi_startproc
 541              		@ args = 0, pretend = 0, frame = 56
 542              		@ frame_needed = 0, uses_anonymous_args = 0
 307:Core/Src/stm32746g_discovery_lcd.c ****   LCD_LayerCfgTypeDef  layer_cfg;
 543              		.loc 1 307 1 is_stmt 0 view .LVU128
 544 0000 70B5     		push	{r4, r5, r6, lr}
 545              	.LCFI11:
 546              		.cfi_def_cfa_offset 16
 547              		.cfi_offset 4, -16
 548              		.cfi_offset 5, -12
 549              		.cfi_offset 6, -8
 550              		.cfi_offset 14, -4
 551 0002 8EB0     		sub	sp, sp, #56
 552              	.LCFI12:
 553              		.cfi_def_cfa_offset 72
 554 0004 0446     		mov	r4, r0
 555 0006 0E46     		mov	r6, r1
 308:Core/Src/stm32746g_discovery_lcd.c **** 
 556              		.loc 1 308 3 is_stmt 1 view .LVU129
 311:Core/Src/stm32746g_discovery_lcd.c ****   layer_cfg.WindowX1 = BSP_LCD_GetXSize();
 557              		.loc 1 311 3 view .LVU130
 311:Core/Src/stm32746g_discovery_lcd.c ****   layer_cfg.WindowX1 = BSP_LCD_GetXSize();
 558              		.loc 1 311 22 is_stmt 0 view .LVU131
 559 0008 0025     		movs	r5, #0
 560 000a 0195     		str	r5, [sp, #4]
 312:Core/Src/stm32746g_discovery_lcd.c ****   layer_cfg.WindowY0 = 0;
 561              		.loc 1 312 3 is_stmt 1 view .LVU132
 312:Core/Src/stm32746g_discovery_lcd.c ****   layer_cfg.WindowY0 = 0;
 562              		.loc 1 312 24 is_stmt 0 view .LVU133
 563 000c FFF7FEFF 		bl	BSP_LCD_GetXSize
 564              	.LVL29:
 312:Core/Src/stm32746g_discovery_lcd.c ****   layer_cfg.WindowY0 = 0;
 565              		.loc 1 312 22 view .LVU134
 566 0010 0290     		str	r0, [sp, #8]
 313:Core/Src/stm32746g_discovery_lcd.c ****   layer_cfg.WindowY1 = BSP_LCD_GetYSize(); 
 567              		.loc 1 313 3 is_stmt 1 view .LVU135
 313:Core/Src/stm32746g_discovery_lcd.c ****   layer_cfg.WindowY1 = BSP_LCD_GetYSize(); 
 568              		.loc 1 313 22 is_stmt 0 view .LVU136
 569 0012 0395     		str	r5, [sp, #12]
 314:Core/Src/stm32746g_discovery_lcd.c ****   layer_cfg.PixelFormat = LTDC_PIXEL_FORMAT_RGB565;
 570              		.loc 1 314 3 is_stmt 1 view .LVU137
 314:Core/Src/stm32746g_discovery_lcd.c ****   layer_cfg.PixelFormat = LTDC_PIXEL_FORMAT_RGB565;
 571              		.loc 1 314 24 is_stmt 0 view .LVU138
 572 0014 FFF7FEFF 		bl	BSP_LCD_GetYSize
 573              	.LVL30:
ARM GAS  C:\Users\jisu8\AppData\Local\Temp\ccieva3z.s 			page 41


 314:Core/Src/stm32746g_discovery_lcd.c ****   layer_cfg.PixelFormat = LTDC_PIXEL_FORMAT_RGB565;
 574              		.loc 1 314 22 view .LVU139
 575 0018 0490     		str	r0, [sp, #16]
 315:Core/Src/stm32746g_discovery_lcd.c ****   layer_cfg.FBStartAdress = FB_Address;
 576              		.loc 1 315 3 is_stmt 1 view .LVU140
 315:Core/Src/stm32746g_discovery_lcd.c ****   layer_cfg.FBStartAdress = FB_Address;
 577              		.loc 1 315 25 is_stmt 0 view .LVU141
 578 001a 0223     		movs	r3, #2
 579 001c 0593     		str	r3, [sp, #20]
 316:Core/Src/stm32746g_discovery_lcd.c ****   layer_cfg.Alpha = 255;
 580              		.loc 1 316 3 is_stmt 1 view .LVU142
 316:Core/Src/stm32746g_discovery_lcd.c ****   layer_cfg.Alpha = 255;
 581              		.loc 1 316 27 is_stmt 0 view .LVU143
 582 001e 0A96     		str	r6, [sp, #40]
 317:Core/Src/stm32746g_discovery_lcd.c ****   layer_cfg.Alpha0 = 0;
 583              		.loc 1 317 3 is_stmt 1 view .LVU144
 317:Core/Src/stm32746g_discovery_lcd.c ****   layer_cfg.Alpha0 = 0;
 584              		.loc 1 317 19 is_stmt 0 view .LVU145
 585 0020 FF23     		movs	r3, #255
 586 0022 0693     		str	r3, [sp, #24]
 318:Core/Src/stm32746g_discovery_lcd.c ****   layer_cfg.Backcolor.Blue = 0;
 587              		.loc 1 318 3 is_stmt 1 view .LVU146
 318:Core/Src/stm32746g_discovery_lcd.c ****   layer_cfg.Backcolor.Blue = 0;
 588              		.loc 1 318 20 is_stmt 0 view .LVU147
 589 0024 0795     		str	r5, [sp, #28]
 319:Core/Src/stm32746g_discovery_lcd.c ****   layer_cfg.Backcolor.Green = 0;
 590              		.loc 1 319 3 is_stmt 1 view .LVU148
 319:Core/Src/stm32746g_discovery_lcd.c ****   layer_cfg.Backcolor.Green = 0;
 591              		.loc 1 319 28 is_stmt 0 view .LVU149
 592 0026 8DF83450 		strb	r5, [sp, #52]
 320:Core/Src/stm32746g_discovery_lcd.c ****   layer_cfg.Backcolor.Red = 0;
 593              		.loc 1 320 3 is_stmt 1 view .LVU150
 320:Core/Src/stm32746g_discovery_lcd.c ****   layer_cfg.Backcolor.Red = 0;
 594              		.loc 1 320 29 is_stmt 0 view .LVU151
 595 002a 8DF83550 		strb	r5, [sp, #53]
 321:Core/Src/stm32746g_discovery_lcd.c ****   layer_cfg.BlendingFactor1 = LTDC_BLENDING_FACTOR1_PAxCA;
 596              		.loc 1 321 3 is_stmt 1 view .LVU152
 321:Core/Src/stm32746g_discovery_lcd.c ****   layer_cfg.BlendingFactor1 = LTDC_BLENDING_FACTOR1_PAxCA;
 597              		.loc 1 321 27 is_stmt 0 view .LVU153
 598 002e 8DF83650 		strb	r5, [sp, #54]
 322:Core/Src/stm32746g_discovery_lcd.c ****   layer_cfg.BlendingFactor2 = LTDC_BLENDING_FACTOR2_PAxCA;
 599              		.loc 1 322 3 is_stmt 1 view .LVU154
 322:Core/Src/stm32746g_discovery_lcd.c ****   layer_cfg.BlendingFactor2 = LTDC_BLENDING_FACTOR2_PAxCA;
 600              		.loc 1 322 29 is_stmt 0 view .LVU155
 601 0032 4FF4C063 		mov	r3, #1536
 602 0036 0893     		str	r3, [sp, #32]
 323:Core/Src/stm32746g_discovery_lcd.c ****   layer_cfg.ImageWidth = BSP_LCD_GetXSize();
 603              		.loc 1 323 3 is_stmt 1 view .LVU156
 323:Core/Src/stm32746g_discovery_lcd.c ****   layer_cfg.ImageWidth = BSP_LCD_GetXSize();
 604              		.loc 1 323 29 is_stmt 0 view .LVU157
 605 0038 0723     		movs	r3, #7
 606 003a 0993     		str	r3, [sp, #36]
 324:Core/Src/stm32746g_discovery_lcd.c ****   layer_cfg.ImageHeight = BSP_LCD_GetYSize();
 607              		.loc 1 324 3 is_stmt 1 view .LVU158
 324:Core/Src/stm32746g_discovery_lcd.c ****   layer_cfg.ImageHeight = BSP_LCD_GetYSize();
 608              		.loc 1 324 26 is_stmt 0 view .LVU159
 609 003c FFF7FEFF 		bl	BSP_LCD_GetXSize
ARM GAS  C:\Users\jisu8\AppData\Local\Temp\ccieva3z.s 			page 42


 610              	.LVL31:
 324:Core/Src/stm32746g_discovery_lcd.c ****   layer_cfg.ImageHeight = BSP_LCD_GetYSize();
 611              		.loc 1 324 24 view .LVU160
 612 0040 0B90     		str	r0, [sp, #44]
 325:Core/Src/stm32746g_discovery_lcd.c ****   
 613              		.loc 1 325 3 is_stmt 1 view .LVU161
 325:Core/Src/stm32746g_discovery_lcd.c ****   
 614              		.loc 1 325 27 is_stmt 0 view .LVU162
 615 0042 FFF7FEFF 		bl	BSP_LCD_GetYSize
 616              	.LVL32:
 325:Core/Src/stm32746g_discovery_lcd.c ****   
 617              		.loc 1 325 25 view .LVU163
 618 0046 0C90     		str	r0, [sp, #48]
 327:Core/Src/stm32746g_discovery_lcd.c **** 
 619              		.loc 1 327 3 is_stmt 1 view .LVU164
 620 0048 2246     		mov	r2, r4
 621 004a 01A9     		add	r1, sp, #4
 622 004c 0A48     		ldr	r0, .L34
 623 004e FFF7FEFF 		bl	HAL_LTDC_ConfigLayer
 624              	.LVL33:
 329:Core/Src/stm32746g_discovery_lcd.c ****   DrawProp[LayerIndex].pFont     = &Font24;
 625              		.loc 1 329 3 view .LVU165
 329:Core/Src/stm32746g_discovery_lcd.c ****   DrawProp[LayerIndex].pFont     = &Font24;
 626              		.loc 1 329 34 is_stmt 0 view .LVU166
 627 0052 0A4A     		ldr	r2, .L34+4
 628 0054 04EB4403 		add	r3, r4, r4, lsl #1
 629 0058 02EB8303 		add	r3, r2, r3, lsl #2
 630 005c 4FF0FF31 		mov	r1, #-1
 631 0060 5960     		str	r1, [r3, #4]
 330:Core/Src/stm32746g_discovery_lcd.c ****   DrawProp[LayerIndex].TextColor = LCD_COLOR_BLACK; 
 632              		.loc 1 330 3 is_stmt 1 view .LVU167
 330:Core/Src/stm32746g_discovery_lcd.c ****   DrawProp[LayerIndex].TextColor = LCD_COLOR_BLACK; 
 633              		.loc 1 330 34 is_stmt 0 view .LVU168
 634 0062 0749     		ldr	r1, .L34+8
 635 0064 9960     		str	r1, [r3, #8]
 331:Core/Src/stm32746g_discovery_lcd.c **** }
 636              		.loc 1 331 3 is_stmt 1 view .LVU169
 331:Core/Src/stm32746g_discovery_lcd.c **** }
 637              		.loc 1 331 34 is_stmt 0 view .LVU170
 638 0066 04EB4404 		add	r4, r4, r4, lsl #1
 639 006a 4FF07F43 		mov	r3, #-16777216
 640 006e 42F82430 		str	r3, [r2, r4, lsl #2]
 332:Core/Src/stm32746g_discovery_lcd.c **** 
 641              		.loc 1 332 1 view .LVU171
 642 0072 0EB0     		add	sp, sp, #56
 643              	.LCFI13:
 644              		.cfi_def_cfa_offset 16
 645              		@ sp needed
 646 0074 70BD     		pop	{r4, r5, r6, pc}
 647              	.LVL34:
 648              	.L35:
 332:Core/Src/stm32746g_discovery_lcd.c **** 
 649              		.loc 1 332 1 view .LVU172
 650 0076 00BF     		.align	2
 651              	.L34:
 652 0078 00000000 		.word	.LANCHOR1
 653 007c 00000000 		.word	.LANCHOR3
ARM GAS  C:\Users\jisu8\AppData\Local\Temp\ccieva3z.s 			page 43


 654 0080 00000000 		.word	.LANCHOR4
 655              		.cfi_endproc
 656              	.LFE148:
 658              		.section	.text.BSP_LCD_SelectLayer,"ax",%progbits
 659              		.align	1
 660              		.global	BSP_LCD_SelectLayer
 661              		.syntax unified
 662              		.thumb
 663              		.thumb_func
 665              	BSP_LCD_SelectLayer:
 666              	.LVL35:
 667              	.LFB149:
 340:Core/Src/stm32746g_discovery_lcd.c ****   ActiveLayer = LayerIndex;
 668              		.loc 1 340 1 is_stmt 1 view -0
 669              		.cfi_startproc
 670              		@ args = 0, pretend = 0, frame = 0
 671              		@ frame_needed = 0, uses_anonymous_args = 0
 672              		@ link register save eliminated.
 341:Core/Src/stm32746g_discovery_lcd.c **** } 
 673              		.loc 1 341 3 view .LVU174
 341:Core/Src/stm32746g_discovery_lcd.c **** } 
 674              		.loc 1 341 15 is_stmt 0 view .LVU175
 675 0000 014B     		ldr	r3, .L37
 676 0002 1860     		str	r0, [r3]
 342:Core/Src/stm32746g_discovery_lcd.c **** 
 677              		.loc 1 342 1 view .LVU176
 678 0004 7047     		bx	lr
 679              	.L38:
 680 0006 00BF     		.align	2
 681              	.L37:
 682 0008 00000000 		.word	.LANCHOR2
 683              		.cfi_endproc
 684              	.LFE149:
 686              		.section	.text.BSP_LCD_SetLayerVisible,"ax",%progbits
 687              		.align	1
 688              		.global	BSP_LCD_SetLayerVisible
 689              		.syntax unified
 690              		.thumb
 691              		.thumb_func
 693              	BSP_LCD_SetLayerVisible:
 694              	.LVL36:
 695              	.LFB150:
 354:Core/Src/stm32746g_discovery_lcd.c ****   if(State == ENABLE)
 696              		.loc 1 354 1 is_stmt 1 view -0
 697              		.cfi_startproc
 698              		@ args = 0, pretend = 0, frame = 0
 699              		@ frame_needed = 0, uses_anonymous_args = 0
 700              		@ link register save eliminated.
 355:Core/Src/stm32746g_discovery_lcd.c ****   {
 701              		.loc 1 355 3 view .LVU178
 355:Core/Src/stm32746g_discovery_lcd.c ****   {
 702              		.loc 1 355 5 is_stmt 0 view .LVU179
 703 0000 0129     		cmp	r1, #1
 704 0002 10D0     		beq	.L42
 361:Core/Src/stm32746g_discovery_lcd.c ****   }
 705              		.loc 1 361 5 is_stmt 1 view .LVU180
 706 0004 0D4B     		ldr	r3, .L43
ARM GAS  C:\Users\jisu8\AppData\Local\Temp\ccieva3z.s 			page 44


 707 0006 1B68     		ldr	r3, [r3]
 708 0008 03EBC010 		add	r0, r3, r0, lsl #7
 709              	.LVL37:
 361:Core/Src/stm32746g_discovery_lcd.c ****   }
 710              		.loc 1 361 5 is_stmt 0 view .LVU181
 711 000c D0F88430 		ldr	r3, [r0, #132]
 712 0010 23F00103 		bic	r3, r3, #1
 713 0014 C0F88430 		str	r3, [r0, #132]
 714              	.L41:
 363:Core/Src/stm32746g_discovery_lcd.c **** } 
 715              		.loc 1 363 3 is_stmt 1 view .LVU182
 716 0018 084B     		ldr	r3, .L43
 717 001a 1A68     		ldr	r2, [r3]
 718 001c 536A     		ldr	r3, [r2, #36]
 719 001e 43F00103 		orr	r3, r3, #1
 720 0022 5362     		str	r3, [r2, #36]
 364:Core/Src/stm32746g_discovery_lcd.c **** 
 721              		.loc 1 364 1 is_stmt 0 view .LVU183
 722 0024 7047     		bx	lr
 723              	.LVL38:
 724              	.L42:
 357:Core/Src/stm32746g_discovery_lcd.c ****   }
 725              		.loc 1 357 5 is_stmt 1 view .LVU184
 726 0026 054B     		ldr	r3, .L43
 727 0028 1B68     		ldr	r3, [r3]
 728 002a 03EBC010 		add	r0, r3, r0, lsl #7
 729              	.LVL39:
 357:Core/Src/stm32746g_discovery_lcd.c ****   }
 730              		.loc 1 357 5 is_stmt 0 view .LVU185
 731 002e D0F88430 		ldr	r3, [r0, #132]
 732 0032 43F00103 		orr	r3, r3, #1
 733 0036 C0F88430 		str	r3, [r0, #132]
 734 003a EDE7     		b	.L41
 735              	.L44:
 736              		.align	2
 737              	.L43:
 738 003c 00000000 		.word	.LANCHOR1
 739              		.cfi_endproc
 740              	.LFE150:
 742              		.section	.text.BSP_LCD_SetLayerVisible_NoReload,"ax",%progbits
 743              		.align	1
 744              		.global	BSP_LCD_SetLayerVisible_NoReload
 745              		.syntax unified
 746              		.thumb
 747              		.thumb_func
 749              	BSP_LCD_SetLayerVisible_NoReload:
 750              	.LVL40:
 751              	.LFB151:
 376:Core/Src/stm32746g_discovery_lcd.c ****   if(State == ENABLE)
 752              		.loc 1 376 1 is_stmt 1 view -0
 753              		.cfi_startproc
 754              		@ args = 0, pretend = 0, frame = 0
 755              		@ frame_needed = 0, uses_anonymous_args = 0
 756              		@ link register save eliminated.
 377:Core/Src/stm32746g_discovery_lcd.c ****   {
 757              		.loc 1 377 3 view .LVU187
 377:Core/Src/stm32746g_discovery_lcd.c ****   {
ARM GAS  C:\Users\jisu8\AppData\Local\Temp\ccieva3z.s 			page 45


 758              		.loc 1 377 5 is_stmt 0 view .LVU188
 759 0000 0129     		cmp	r1, #1
 760 0002 0AD0     		beq	.L48
 383:Core/Src/stm32746g_discovery_lcd.c ****   }
 761              		.loc 1 383 5 is_stmt 1 view .LVU189
 762 0004 0A4B     		ldr	r3, .L49
 763 0006 1B68     		ldr	r3, [r3]
 764 0008 03EBC010 		add	r0, r3, r0, lsl #7
 765              	.LVL41:
 383:Core/Src/stm32746g_discovery_lcd.c ****   }
 766              		.loc 1 383 5 is_stmt 0 view .LVU190
 767 000c D0F88430 		ldr	r3, [r0, #132]
 768 0010 23F00103 		bic	r3, r3, #1
 769 0014 C0F88430 		str	r3, [r0, #132]
 386:Core/Src/stm32746g_discovery_lcd.c **** 
 770              		.loc 1 386 1 view .LVU191
 771 0018 7047     		bx	lr
 772              	.LVL42:
 773              	.L48:
 379:Core/Src/stm32746g_discovery_lcd.c ****   }
 774              		.loc 1 379 5 is_stmt 1 view .LVU192
 775 001a 054B     		ldr	r3, .L49
 776 001c 1B68     		ldr	r3, [r3]
 777 001e 03EBC010 		add	r0, r3, r0, lsl #7
 778              	.LVL43:
 379:Core/Src/stm32746g_discovery_lcd.c ****   }
 779              		.loc 1 379 5 is_stmt 0 view .LVU193
 780 0022 D0F88430 		ldr	r3, [r0, #132]
 781 0026 43F00103 		orr	r3, r3, #1
 782 002a C0F88430 		str	r3, [r0, #132]
 783 002e 7047     		bx	lr
 784              	.L50:
 785              		.align	2
 786              	.L49:
 787 0030 00000000 		.word	.LANCHOR1
 788              		.cfi_endproc
 789              	.LFE151:
 791              		.section	.text.BSP_LCD_SetTransparency,"ax",%progbits
 792              		.align	1
 793              		.global	BSP_LCD_SetTransparency
 794              		.syntax unified
 795              		.thumb
 796              		.thumb_func
 798              	BSP_LCD_SetTransparency:
 799              	.LVL44:
 800              	.LFB152:
 396:Core/Src/stm32746g_discovery_lcd.c ****   HAL_LTDC_SetAlpha(&hLtdcHandler, Transparency, LayerIndex);
 801              		.loc 1 396 1 is_stmt 1 view -0
 802              		.cfi_startproc
 803              		@ args = 0, pretend = 0, frame = 0
 804              		@ frame_needed = 0, uses_anonymous_args = 0
 396:Core/Src/stm32746g_discovery_lcd.c ****   HAL_LTDC_SetAlpha(&hLtdcHandler, Transparency, LayerIndex);
 805              		.loc 1 396 1 is_stmt 0 view .LVU195
 806 0000 08B5     		push	{r3, lr}
 807              	.LCFI14:
 808              		.cfi_def_cfa_offset 8
 809              		.cfi_offset 3, -8
ARM GAS  C:\Users\jisu8\AppData\Local\Temp\ccieva3z.s 			page 46


 810              		.cfi_offset 14, -4
 811 0002 0246     		mov	r2, r0
 397:Core/Src/stm32746g_discovery_lcd.c **** }
 812              		.loc 1 397 3 is_stmt 1 view .LVU196
 813 0004 0148     		ldr	r0, .L53
 814              	.LVL45:
 397:Core/Src/stm32746g_discovery_lcd.c **** }
 815              		.loc 1 397 3 is_stmt 0 view .LVU197
 816 0006 FFF7FEFF 		bl	HAL_LTDC_SetAlpha
 817              	.LVL46:
 398:Core/Src/stm32746g_discovery_lcd.c **** 
 818              		.loc 1 398 1 view .LVU198
 819 000a 08BD     		pop	{r3, pc}
 820              	.L54:
 821              		.align	2
 822              	.L53:
 823 000c 00000000 		.word	.LANCHOR1
 824              		.cfi_endproc
 825              	.LFE152:
 827              		.section	.text.BSP_LCD_SetTransparency_NoReload,"ax",%progbits
 828              		.align	1
 829              		.global	BSP_LCD_SetTransparency_NoReload
 830              		.syntax unified
 831              		.thumb
 832              		.thumb_func
 834              	BSP_LCD_SetTransparency_NoReload:
 835              	.LVL47:
 836              	.LFB153:
 408:Core/Src/stm32746g_discovery_lcd.c ****   HAL_LTDC_SetAlpha_NoReload(&hLtdcHandler, Transparency, LayerIndex);
 837              		.loc 1 408 1 is_stmt 1 view -0
 838              		.cfi_startproc
 839              		@ args = 0, pretend = 0, frame = 0
 840              		@ frame_needed = 0, uses_anonymous_args = 0
 408:Core/Src/stm32746g_discovery_lcd.c ****   HAL_LTDC_SetAlpha_NoReload(&hLtdcHandler, Transparency, LayerIndex);
 841              		.loc 1 408 1 is_stmt 0 view .LVU200
 842 0000 08B5     		push	{r3, lr}
 843              	.LCFI15:
 844              		.cfi_def_cfa_offset 8
 845              		.cfi_offset 3, -8
 846              		.cfi_offset 14, -4
 847 0002 0246     		mov	r2, r0
 409:Core/Src/stm32746g_discovery_lcd.c **** }
 848              		.loc 1 409 3 is_stmt 1 view .LVU201
 849 0004 0148     		ldr	r0, .L57
 850              	.LVL48:
 409:Core/Src/stm32746g_discovery_lcd.c **** }
 851              		.loc 1 409 3 is_stmt 0 view .LVU202
 852 0006 FFF7FEFF 		bl	HAL_LTDC_SetAlpha_NoReload
 853              	.LVL49:
 410:Core/Src/stm32746g_discovery_lcd.c **** 
 854              		.loc 1 410 1 view .LVU203
 855 000a 08BD     		pop	{r3, pc}
 856              	.L58:
 857              		.align	2
 858              	.L57:
 859 000c 00000000 		.word	.LANCHOR1
 860              		.cfi_endproc
ARM GAS  C:\Users\jisu8\AppData\Local\Temp\ccieva3z.s 			page 47


 861              	.LFE153:
 863              		.section	.text.BSP_LCD_SetLayerAddress,"ax",%progbits
 864              		.align	1
 865              		.global	BSP_LCD_SetLayerAddress
 866              		.syntax unified
 867              		.thumb
 868              		.thumb_func
 870              	BSP_LCD_SetLayerAddress:
 871              	.LVL50:
 872              	.LFB154:
 419:Core/Src/stm32746g_discovery_lcd.c ****   HAL_LTDC_SetAddress(&hLtdcHandler, Address, LayerIndex);
 873              		.loc 1 419 1 is_stmt 1 view -0
 874              		.cfi_startproc
 875              		@ args = 0, pretend = 0, frame = 0
 876              		@ frame_needed = 0, uses_anonymous_args = 0
 419:Core/Src/stm32746g_discovery_lcd.c ****   HAL_LTDC_SetAddress(&hLtdcHandler, Address, LayerIndex);
 877              		.loc 1 419 1 is_stmt 0 view .LVU205
 878 0000 08B5     		push	{r3, lr}
 879              	.LCFI16:
 880              		.cfi_def_cfa_offset 8
 881              		.cfi_offset 3, -8
 882              		.cfi_offset 14, -4
 883 0002 0246     		mov	r2, r0
 420:Core/Src/stm32746g_discovery_lcd.c **** }
 884              		.loc 1 420 3 is_stmt 1 view .LVU206
 885 0004 0148     		ldr	r0, .L61
 886              	.LVL51:
 420:Core/Src/stm32746g_discovery_lcd.c **** }
 887              		.loc 1 420 3 is_stmt 0 view .LVU207
 888 0006 FFF7FEFF 		bl	HAL_LTDC_SetAddress
 889              	.LVL52:
 421:Core/Src/stm32746g_discovery_lcd.c **** 
 890              		.loc 1 421 1 view .LVU208
 891 000a 08BD     		pop	{r3, pc}
 892              	.L62:
 893              		.align	2
 894              	.L61:
 895 000c 00000000 		.word	.LANCHOR1
 896              		.cfi_endproc
 897              	.LFE154:
 899              		.section	.text.BSP_LCD_SetLayerAddress_NoReload,"ax",%progbits
 900              		.align	1
 901              		.global	BSP_LCD_SetLayerAddress_NoReload
 902              		.syntax unified
 903              		.thumb
 904              		.thumb_func
 906              	BSP_LCD_SetLayerAddress_NoReload:
 907              	.LVL53:
 908              	.LFB155:
 430:Core/Src/stm32746g_discovery_lcd.c ****   HAL_LTDC_SetAddress_NoReload(&hLtdcHandler, Address, LayerIndex);
 909              		.loc 1 430 1 is_stmt 1 view -0
 910              		.cfi_startproc
 911              		@ args = 0, pretend = 0, frame = 0
 912              		@ frame_needed = 0, uses_anonymous_args = 0
 430:Core/Src/stm32746g_discovery_lcd.c ****   HAL_LTDC_SetAddress_NoReload(&hLtdcHandler, Address, LayerIndex);
 913              		.loc 1 430 1 is_stmt 0 view .LVU210
 914 0000 08B5     		push	{r3, lr}
ARM GAS  C:\Users\jisu8\AppData\Local\Temp\ccieva3z.s 			page 48


 915              	.LCFI17:
 916              		.cfi_def_cfa_offset 8
 917              		.cfi_offset 3, -8
 918              		.cfi_offset 14, -4
 919 0002 0246     		mov	r2, r0
 431:Core/Src/stm32746g_discovery_lcd.c **** }
 920              		.loc 1 431 3 is_stmt 1 view .LVU211
 921 0004 0148     		ldr	r0, .L65
 922              	.LVL54:
 431:Core/Src/stm32746g_discovery_lcd.c **** }
 923              		.loc 1 431 3 is_stmt 0 view .LVU212
 924 0006 FFF7FEFF 		bl	HAL_LTDC_SetAddress_NoReload
 925              	.LVL55:
 432:Core/Src/stm32746g_discovery_lcd.c **** 
 926              		.loc 1 432 1 view .LVU213
 927 000a 08BD     		pop	{r3, pc}
 928              	.L66:
 929              		.align	2
 930              	.L65:
 931 000c 00000000 		.word	.LANCHOR1
 932              		.cfi_endproc
 933              	.LFE155:
 935              		.section	.text.BSP_LCD_SetLayerWindow,"ax",%progbits
 936              		.align	1
 937              		.global	BSP_LCD_SetLayerWindow
 938              		.syntax unified
 939              		.thumb
 940              		.thumb_func
 942              	BSP_LCD_SetLayerWindow:
 943              	.LVL56:
 944              	.LFB156:
 444:Core/Src/stm32746g_discovery_lcd.c ****   /* Reconfigure the layer size */
 945              		.loc 1 444 1 is_stmt 1 view -0
 946              		.cfi_startproc
 947              		@ args = 4, pretend = 0, frame = 0
 948              		@ frame_needed = 0, uses_anonymous_args = 0
 444:Core/Src/stm32746g_discovery_lcd.c ****   /* Reconfigure the layer size */
 949              		.loc 1 444 1 is_stmt 0 view .LVU215
 950 0000 F8B5     		push	{r3, r4, r5, r6, r7, lr}
 951              	.LCFI18:
 952              		.cfi_def_cfa_offset 24
 953              		.cfi_offset 3, -24
 954              		.cfi_offset 4, -20
 955              		.cfi_offset 5, -16
 956              		.cfi_offset 6, -12
 957              		.cfi_offset 7, -8
 958              		.cfi_offset 14, -4
 959 0002 0446     		mov	r4, r0
 960 0004 0D46     		mov	r5, r1
 961 0006 1646     		mov	r6, r2
 962 0008 1946     		mov	r1, r3
 963              	.LVL57:
 446:Core/Src/stm32746g_discovery_lcd.c ****   
 964              		.loc 1 446 3 is_stmt 1 view .LVU216
 965 000a 074F     		ldr	r7, .L69
 966 000c 0346     		mov	r3, r0
 967              	.LVL58:
ARM GAS  C:\Users\jisu8\AppData\Local\Temp\ccieva3z.s 			page 49


 446:Core/Src/stm32746g_discovery_lcd.c ****   
 968              		.loc 1 446 3 is_stmt 0 view .LVU217
 969 000e BDF81820 		ldrh	r2, [sp, #24]
 970              	.LVL59:
 446:Core/Src/stm32746g_discovery_lcd.c ****   
 971              		.loc 1 446 3 view .LVU218
 972 0012 3846     		mov	r0, r7
 973              	.LVL60:
 446:Core/Src/stm32746g_discovery_lcd.c ****   
 974              		.loc 1 446 3 view .LVU219
 975 0014 FFF7FEFF 		bl	HAL_LTDC_SetWindowSize
 976              	.LVL61:
 449:Core/Src/stm32746g_discovery_lcd.c **** }
 977              		.loc 1 449 3 is_stmt 1 view .LVU220
 978 0018 2346     		mov	r3, r4
 979 001a 3246     		mov	r2, r6
 980 001c 2946     		mov	r1, r5
 981 001e 3846     		mov	r0, r7
 982 0020 FFF7FEFF 		bl	HAL_LTDC_SetWindowPosition
 983              	.LVL62:
 450:Core/Src/stm32746g_discovery_lcd.c **** 
 984              		.loc 1 450 1 is_stmt 0 view .LVU221
 985 0024 F8BD     		pop	{r3, r4, r5, r6, r7, pc}
 986              	.LVL63:
 987              	.L70:
 450:Core/Src/stm32746g_discovery_lcd.c **** 
 988              		.loc 1 450 1 view .LVU222
 989 0026 00BF     		.align	2
 990              	.L69:
 991 0028 00000000 		.word	.LANCHOR1
 992              		.cfi_endproc
 993              	.LFE156:
 995              		.section	.text.BSP_LCD_SetLayerWindow_NoReload,"ax",%progbits
 996              		.align	1
 997              		.global	BSP_LCD_SetLayerWindow_NoReload
 998              		.syntax unified
 999              		.thumb
 1000              		.thumb_func
 1002              	BSP_LCD_SetLayerWindow_NoReload:
 1003              	.LVL64:
 1004              	.LFB157:
 462:Core/Src/stm32746g_discovery_lcd.c ****   /* Reconfigure the layer size */
 1005              		.loc 1 462 1 is_stmt 1 view -0
 1006              		.cfi_startproc
 1007              		@ args = 4, pretend = 0, frame = 0
 1008              		@ frame_needed = 0, uses_anonymous_args = 0
 462:Core/Src/stm32746g_discovery_lcd.c ****   /* Reconfigure the layer size */
 1009              		.loc 1 462 1 is_stmt 0 view .LVU224
 1010 0000 F8B5     		push	{r3, r4, r5, r6, r7, lr}
 1011              	.LCFI19:
 1012              		.cfi_def_cfa_offset 24
 1013              		.cfi_offset 3, -24
 1014              		.cfi_offset 4, -20
 1015              		.cfi_offset 5, -16
 1016              		.cfi_offset 6, -12
 1017              		.cfi_offset 7, -8
 1018              		.cfi_offset 14, -4
ARM GAS  C:\Users\jisu8\AppData\Local\Temp\ccieva3z.s 			page 50


 1019 0002 0446     		mov	r4, r0
 1020 0004 0D46     		mov	r5, r1
 1021 0006 1646     		mov	r6, r2
 1022 0008 1946     		mov	r1, r3
 1023              	.LVL65:
 464:Core/Src/stm32746g_discovery_lcd.c ****   
 1024              		.loc 1 464 3 is_stmt 1 view .LVU225
 1025 000a 074F     		ldr	r7, .L73
 1026 000c 0346     		mov	r3, r0
 1027              	.LVL66:
 464:Core/Src/stm32746g_discovery_lcd.c ****   
 1028              		.loc 1 464 3 is_stmt 0 view .LVU226
 1029 000e BDF81820 		ldrh	r2, [sp, #24]
 1030              	.LVL67:
 464:Core/Src/stm32746g_discovery_lcd.c ****   
 1031              		.loc 1 464 3 view .LVU227
 1032 0012 3846     		mov	r0, r7
 1033              	.LVL68:
 464:Core/Src/stm32746g_discovery_lcd.c ****   
 1034              		.loc 1 464 3 view .LVU228
 1035 0014 FFF7FEFF 		bl	HAL_LTDC_SetWindowSize_NoReload
 1036              	.LVL69:
 467:Core/Src/stm32746g_discovery_lcd.c **** }
 1037              		.loc 1 467 3 is_stmt 1 view .LVU229
 1038 0018 2346     		mov	r3, r4
 1039 001a 3246     		mov	r2, r6
 1040 001c 2946     		mov	r1, r5
 1041 001e 3846     		mov	r0, r7
 1042 0020 FFF7FEFF 		bl	HAL_LTDC_SetWindowPosition_NoReload
 1043              	.LVL70:
 468:Core/Src/stm32746g_discovery_lcd.c **** 
 1044              		.loc 1 468 1 is_stmt 0 view .LVU230
 1045 0024 F8BD     		pop	{r3, r4, r5, r6, r7, pc}
 1046              	.LVL71:
 1047              	.L74:
 468:Core/Src/stm32746g_discovery_lcd.c **** 
 1048              		.loc 1 468 1 view .LVU231
 1049 0026 00BF     		.align	2
 1050              	.L73:
 1051 0028 00000000 		.word	.LANCHOR1
 1052              		.cfi_endproc
 1053              	.LFE157:
 1055              		.section	.text.BSP_LCD_SetColorKeying,"ax",%progbits
 1056              		.align	1
 1057              		.global	BSP_LCD_SetColorKeying
 1058              		.syntax unified
 1059              		.thumb
 1060              		.thumb_func
 1062              	BSP_LCD_SetColorKeying:
 1063              	.LVL72:
 1064              	.LFB158:
 477:Core/Src/stm32746g_discovery_lcd.c ****   /* Configure and Enable the color Keying for LCD Layer */
 1065              		.loc 1 477 1 is_stmt 1 view -0
 1066              		.cfi_startproc
 1067              		@ args = 0, pretend = 0, frame = 0
 1068              		@ frame_needed = 0, uses_anonymous_args = 0
 477:Core/Src/stm32746g_discovery_lcd.c ****   /* Configure and Enable the color Keying for LCD Layer */
ARM GAS  C:\Users\jisu8\AppData\Local\Temp\ccieva3z.s 			page 51


 1069              		.loc 1 477 1 is_stmt 0 view .LVU233
 1070 0000 38B5     		push	{r3, r4, r5, lr}
 1071              	.LCFI20:
 1072              		.cfi_def_cfa_offset 16
 1073              		.cfi_offset 3, -16
 1074              		.cfi_offset 4, -12
 1075              		.cfi_offset 5, -8
 1076              		.cfi_offset 14, -4
 1077 0002 0446     		mov	r4, r0
 479:Core/Src/stm32746g_discovery_lcd.c ****   HAL_LTDC_EnableColorKeying(&hLtdcHandler, LayerIndex);
 1078              		.loc 1 479 3 is_stmt 1 view .LVU234
 1079 0004 044D     		ldr	r5, .L77
 1080 0006 0246     		mov	r2, r0
 1081 0008 2846     		mov	r0, r5
 1082              	.LVL73:
 479:Core/Src/stm32746g_discovery_lcd.c ****   HAL_LTDC_EnableColorKeying(&hLtdcHandler, LayerIndex);
 1083              		.loc 1 479 3 is_stmt 0 view .LVU235
 1084 000a FFF7FEFF 		bl	HAL_LTDC_ConfigColorKeying
 1085              	.LVL74:
 480:Core/Src/stm32746g_discovery_lcd.c **** }
 1086              		.loc 1 480 3 is_stmt 1 view .LVU236
 1087 000e 2146     		mov	r1, r4
 1088 0010 2846     		mov	r0, r5
 1089 0012 FFF7FEFF 		bl	HAL_LTDC_EnableColorKeying
 1090              	.LVL75:
 481:Core/Src/stm32746g_discovery_lcd.c **** 
 1091              		.loc 1 481 1 is_stmt 0 view .LVU237
 1092 0016 38BD     		pop	{r3, r4, r5, pc}
 1093              	.LVL76:
 1094              	.L78:
 481:Core/Src/stm32746g_discovery_lcd.c **** 
 1095              		.loc 1 481 1 view .LVU238
 1096              		.align	2
 1097              	.L77:
 1098 0018 00000000 		.word	.LANCHOR1
 1099              		.cfi_endproc
 1100              	.LFE158:
 1102              		.section	.text.BSP_LCD_SetColorKeying_NoReload,"ax",%progbits
 1103              		.align	1
 1104              		.global	BSP_LCD_SetColorKeying_NoReload
 1105              		.syntax unified
 1106              		.thumb
 1107              		.thumb_func
 1109              	BSP_LCD_SetColorKeying_NoReload:
 1110              	.LVL77:
 1111              	.LFB159:
 490:Core/Src/stm32746g_discovery_lcd.c ****   /* Configure and Enable the color Keying for LCD Layer */
 1112              		.loc 1 490 1 is_stmt 1 view -0
 1113              		.cfi_startproc
 1114              		@ args = 0, pretend = 0, frame = 0
 1115              		@ frame_needed = 0, uses_anonymous_args = 0
 490:Core/Src/stm32746g_discovery_lcd.c ****   /* Configure and Enable the color Keying for LCD Layer */
 1116              		.loc 1 490 1 is_stmt 0 view .LVU240
 1117 0000 38B5     		push	{r3, r4, r5, lr}
 1118              	.LCFI21:
 1119              		.cfi_def_cfa_offset 16
 1120              		.cfi_offset 3, -16
ARM GAS  C:\Users\jisu8\AppData\Local\Temp\ccieva3z.s 			page 52


 1121              		.cfi_offset 4, -12
 1122              		.cfi_offset 5, -8
 1123              		.cfi_offset 14, -4
 1124 0002 0446     		mov	r4, r0
 492:Core/Src/stm32746g_discovery_lcd.c ****   HAL_LTDC_EnableColorKeying_NoReload(&hLtdcHandler, LayerIndex);
 1125              		.loc 1 492 3 is_stmt 1 view .LVU241
 1126 0004 044D     		ldr	r5, .L81
 1127 0006 0246     		mov	r2, r0
 1128 0008 2846     		mov	r0, r5
 1129              	.LVL78:
 492:Core/Src/stm32746g_discovery_lcd.c ****   HAL_LTDC_EnableColorKeying_NoReload(&hLtdcHandler, LayerIndex);
 1130              		.loc 1 492 3 is_stmt 0 view .LVU242
 1131 000a FFF7FEFF 		bl	HAL_LTDC_ConfigColorKeying_NoReload
 1132              	.LVL79:
 493:Core/Src/stm32746g_discovery_lcd.c **** }
 1133              		.loc 1 493 3 is_stmt 1 view .LVU243
 1134 000e 2146     		mov	r1, r4
 1135 0010 2846     		mov	r0, r5
 1136 0012 FFF7FEFF 		bl	HAL_LTDC_EnableColorKeying_NoReload
 1137              	.LVL80:
 494:Core/Src/stm32746g_discovery_lcd.c **** 
 1138              		.loc 1 494 1 is_stmt 0 view .LVU244
 1139 0016 38BD     		pop	{r3, r4, r5, pc}
 1140              	.LVL81:
 1141              	.L82:
 494:Core/Src/stm32746g_discovery_lcd.c **** 
 1142              		.loc 1 494 1 view .LVU245
 1143              		.align	2
 1144              	.L81:
 1145 0018 00000000 		.word	.LANCHOR1
 1146              		.cfi_endproc
 1147              	.LFE159:
 1149              		.section	.text.BSP_LCD_ResetColorKeying,"ax",%progbits
 1150              		.align	1
 1151              		.global	BSP_LCD_ResetColorKeying
 1152              		.syntax unified
 1153              		.thumb
 1154              		.thumb_func
 1156              	BSP_LCD_ResetColorKeying:
 1157              	.LVL82:
 1158              	.LFB160:
 502:Core/Src/stm32746g_discovery_lcd.c ****   /* Disable the color Keying for LCD Layer */
 1159              		.loc 1 502 1 is_stmt 1 view -0
 1160              		.cfi_startproc
 1161              		@ args = 0, pretend = 0, frame = 0
 1162              		@ frame_needed = 0, uses_anonymous_args = 0
 502:Core/Src/stm32746g_discovery_lcd.c ****   /* Disable the color Keying for LCD Layer */
 1163              		.loc 1 502 1 is_stmt 0 view .LVU247
 1164 0000 08B5     		push	{r3, lr}
 1165              	.LCFI22:
 1166              		.cfi_def_cfa_offset 8
 1167              		.cfi_offset 3, -8
 1168              		.cfi_offset 14, -4
 1169 0002 0146     		mov	r1, r0
 504:Core/Src/stm32746g_discovery_lcd.c **** }
 1170              		.loc 1 504 3 is_stmt 1 view .LVU248
 1171 0004 0148     		ldr	r0, .L85
ARM GAS  C:\Users\jisu8\AppData\Local\Temp\ccieva3z.s 			page 53


 1172              	.LVL83:
 504:Core/Src/stm32746g_discovery_lcd.c **** }
 1173              		.loc 1 504 3 is_stmt 0 view .LVU249
 1174 0006 FFF7FEFF 		bl	HAL_LTDC_DisableColorKeying
 1175              	.LVL84:
 505:Core/Src/stm32746g_discovery_lcd.c **** 
 1176              		.loc 1 505 1 view .LVU250
 1177 000a 08BD     		pop	{r3, pc}
 1178              	.L86:
 1179              		.align	2
 1180              	.L85:
 1181 000c 00000000 		.word	.LANCHOR1
 1182              		.cfi_endproc
 1183              	.LFE160:
 1185              		.section	.text.BSP_LCD_ResetColorKeying_NoReload,"ax",%progbits
 1186              		.align	1
 1187              		.global	BSP_LCD_ResetColorKeying_NoReload
 1188              		.syntax unified
 1189              		.thumb
 1190              		.thumb_func
 1192              	BSP_LCD_ResetColorKeying_NoReload:
 1193              	.LVL85:
 1194              	.LFB161:
 513:Core/Src/stm32746g_discovery_lcd.c ****   /* Disable the color Keying for LCD Layer */
 1195              		.loc 1 513 1 is_stmt 1 view -0
 1196              		.cfi_startproc
 1197              		@ args = 0, pretend = 0, frame = 0
 1198              		@ frame_needed = 0, uses_anonymous_args = 0
 513:Core/Src/stm32746g_discovery_lcd.c ****   /* Disable the color Keying for LCD Layer */
 1199              		.loc 1 513 1 is_stmt 0 view .LVU252
 1200 0000 08B5     		push	{r3, lr}
 1201              	.LCFI23:
 1202              		.cfi_def_cfa_offset 8
 1203              		.cfi_offset 3, -8
 1204              		.cfi_offset 14, -4
 1205 0002 0146     		mov	r1, r0
 515:Core/Src/stm32746g_discovery_lcd.c **** }
 1206              		.loc 1 515 3 is_stmt 1 view .LVU253
 1207 0004 0148     		ldr	r0, .L89
 1208              	.LVL86:
 515:Core/Src/stm32746g_discovery_lcd.c **** }
 1209              		.loc 1 515 3 is_stmt 0 view .LVU254
 1210 0006 FFF7FEFF 		bl	HAL_LTDC_DisableColorKeying_NoReload
 1211              	.LVL87:
 516:Core/Src/stm32746g_discovery_lcd.c **** 
 1212              		.loc 1 516 1 view .LVU255
 1213 000a 08BD     		pop	{r3, pc}
 1214              	.L90:
 1215              		.align	2
 1216              	.L89:
 1217 000c 00000000 		.word	.LANCHOR1
 1218              		.cfi_endproc
 1219              	.LFE161:
 1221              		.section	.text.BSP_LCD_Reload,"ax",%progbits
 1222              		.align	1
 1223              		.global	BSP_LCD_Reload
 1224              		.syntax unified
ARM GAS  C:\Users\jisu8\AppData\Local\Temp\ccieva3z.s 			page 54


 1225              		.thumb
 1226              		.thumb_func
 1228              	BSP_LCD_Reload:
 1229              	.LVL88:
 1230              	.LFB162:
 526:Core/Src/stm32746g_discovery_lcd.c ****   HAL_LTDC_Reload (&hLtdcHandler, ReloadType);
 1231              		.loc 1 526 1 is_stmt 1 view -0
 1232              		.cfi_startproc
 1233              		@ args = 0, pretend = 0, frame = 0
 1234              		@ frame_needed = 0, uses_anonymous_args = 0
 526:Core/Src/stm32746g_discovery_lcd.c ****   HAL_LTDC_Reload (&hLtdcHandler, ReloadType);
 1235              		.loc 1 526 1 is_stmt 0 view .LVU257
 1236 0000 08B5     		push	{r3, lr}
 1237              	.LCFI24:
 1238              		.cfi_def_cfa_offset 8
 1239              		.cfi_offset 3, -8
 1240              		.cfi_offset 14, -4
 1241 0002 0146     		mov	r1, r0
 527:Core/Src/stm32746g_discovery_lcd.c **** }
 1242              		.loc 1 527 3 is_stmt 1 view .LVU258
 1243 0004 0148     		ldr	r0, .L93
 1244              	.LVL89:
 527:Core/Src/stm32746g_discovery_lcd.c **** }
 1245              		.loc 1 527 3 is_stmt 0 view .LVU259
 1246 0006 FFF7FEFF 		bl	HAL_LTDC_Reload
 1247              	.LVL90:
 528:Core/Src/stm32746g_discovery_lcd.c **** 
 1248              		.loc 1 528 1 view .LVU260
 1249 000a 08BD     		pop	{r3, pc}
 1250              	.L94:
 1251              		.align	2
 1252              	.L93:
 1253 000c 00000000 		.word	.LANCHOR1
 1254              		.cfi_endproc
 1255              	.LFE162:
 1257              		.section	.text.BSP_LCD_SetTextColor,"ax",%progbits
 1258              		.align	1
 1259              		.global	BSP_LCD_SetTextColor
 1260              		.syntax unified
 1261              		.thumb
 1262              		.thumb_func
 1264              	BSP_LCD_SetTextColor:
 1265              	.LVL91:
 1266              	.LFB163:
 536:Core/Src/stm32746g_discovery_lcd.c ****   DrawProp[ActiveLayer].TextColor = Color;
 1267              		.loc 1 536 1 is_stmt 1 view -0
 1268              		.cfi_startproc
 1269              		@ args = 0, pretend = 0, frame = 0
 1270              		@ frame_needed = 0, uses_anonymous_args = 0
 1271              		@ link register save eliminated.
 537:Core/Src/stm32746g_discovery_lcd.c **** }
 1272              		.loc 1 537 3 view .LVU262
 537:Core/Src/stm32746g_discovery_lcd.c **** }
 1273              		.loc 1 537 24 is_stmt 0 view .LVU263
 1274 0000 034B     		ldr	r3, .L96
 1275 0002 1B68     		ldr	r3, [r3]
 537:Core/Src/stm32746g_discovery_lcd.c **** }
ARM GAS  C:\Users\jisu8\AppData\Local\Temp\ccieva3z.s 			page 55


 1276              		.loc 1 537 35 view .LVU264
 1277 0004 03EB4303 		add	r3, r3, r3, lsl #1
 1278 0008 024A     		ldr	r2, .L96+4
 1279 000a 42F82300 		str	r0, [r2, r3, lsl #2]
 538:Core/Src/stm32746g_discovery_lcd.c **** 
 1280              		.loc 1 538 1 view .LVU265
 1281 000e 7047     		bx	lr
 1282              	.L97:
 1283              		.align	2
 1284              	.L96:
 1285 0010 00000000 		.word	.LANCHOR2
 1286 0014 00000000 		.word	.LANCHOR3
 1287              		.cfi_endproc
 1288              	.LFE163:
 1290              		.section	.text.BSP_LCD_GetTextColor,"ax",%progbits
 1291              		.align	1
 1292              		.global	BSP_LCD_GetTextColor
 1293              		.syntax unified
 1294              		.thumb
 1295              		.thumb_func
 1297              	BSP_LCD_GetTextColor:
 1298              	.LFB164:
 545:Core/Src/stm32746g_discovery_lcd.c ****   return DrawProp[ActiveLayer].TextColor;
 1299              		.loc 1 545 1 is_stmt 1 view -0
 1300              		.cfi_startproc
 1301              		@ args = 0, pretend = 0, frame = 0
 1302              		@ frame_needed = 0, uses_anonymous_args = 0
 1303              		@ link register save eliminated.
 546:Core/Src/stm32746g_discovery_lcd.c **** }
 1304              		.loc 1 546 3 view .LVU267
 546:Core/Src/stm32746g_discovery_lcd.c **** }
 1305              		.loc 1 546 31 is_stmt 0 view .LVU268
 1306 0000 034B     		ldr	r3, .L99
 1307 0002 1B68     		ldr	r3, [r3]
 1308 0004 03EB4303 		add	r3, r3, r3, lsl #1
 1309 0008 9A00     		lsls	r2, r3, #2
 547:Core/Src/stm32746g_discovery_lcd.c **** 
 1310              		.loc 1 547 1 view .LVU269
 1311 000a 024B     		ldr	r3, .L99+4
 1312 000c 9858     		ldr	r0, [r3, r2]
 1313 000e 7047     		bx	lr
 1314              	.L100:
 1315              		.align	2
 1316              	.L99:
 1317 0010 00000000 		.word	.LANCHOR2
 1318 0014 00000000 		.word	.LANCHOR3
 1319              		.cfi_endproc
 1320              	.LFE164:
 1322              		.section	.text.BSP_LCD_SetBackColor,"ax",%progbits
 1323              		.align	1
 1324              		.global	BSP_LCD_SetBackColor
 1325              		.syntax unified
 1326              		.thumb
 1327              		.thumb_func
 1329              	BSP_LCD_SetBackColor:
 1330              	.LVL92:
 1331              	.LFB165:
ARM GAS  C:\Users\jisu8\AppData\Local\Temp\ccieva3z.s 			page 56


 555:Core/Src/stm32746g_discovery_lcd.c ****   DrawProp[ActiveLayer].BackColor = Color;
 1332              		.loc 1 555 1 is_stmt 1 view -0
 1333              		.cfi_startproc
 1334              		@ args = 0, pretend = 0, frame = 0
 1335              		@ frame_needed = 0, uses_anonymous_args = 0
 1336              		@ link register save eliminated.
 556:Core/Src/stm32746g_discovery_lcd.c **** }
 1337              		.loc 1 556 3 view .LVU271
 556:Core/Src/stm32746g_discovery_lcd.c **** }
 1338              		.loc 1 556 24 is_stmt 0 view .LVU272
 1339 0000 044B     		ldr	r3, .L102
 1340 0002 1B68     		ldr	r3, [r3]
 556:Core/Src/stm32746g_discovery_lcd.c **** }
 1341              		.loc 1 556 35 view .LVU273
 1342 0004 03EB4303 		add	r3, r3, r3, lsl #1
 1343 0008 034A     		ldr	r2, .L102+4
 1344 000a 02EB8303 		add	r3, r2, r3, lsl #2
 1345 000e 5860     		str	r0, [r3, #4]
 557:Core/Src/stm32746g_discovery_lcd.c **** 
 1346              		.loc 1 557 1 view .LVU274
 1347 0010 7047     		bx	lr
 1348              	.L103:
 1349 0012 00BF     		.align	2
 1350              	.L102:
 1351 0014 00000000 		.word	.LANCHOR2
 1352 0018 00000000 		.word	.LANCHOR3
 1353              		.cfi_endproc
 1354              	.LFE165:
 1356              		.section	.text.BSP_LCD_GetBackColor,"ax",%progbits
 1357              		.align	1
 1358              		.global	BSP_LCD_GetBackColor
 1359              		.syntax unified
 1360              		.thumb
 1361              		.thumb_func
 1363              	BSP_LCD_GetBackColor:
 1364              	.LFB166:
 564:Core/Src/stm32746g_discovery_lcd.c ****   return DrawProp[ActiveLayer].BackColor;
 1365              		.loc 1 564 1 is_stmt 1 view -0
 1366              		.cfi_startproc
 1367              		@ args = 0, pretend = 0, frame = 0
 1368              		@ frame_needed = 0, uses_anonymous_args = 0
 1369              		@ link register save eliminated.
 565:Core/Src/stm32746g_discovery_lcd.c **** }
 1370              		.loc 1 565 3 view .LVU276
 565:Core/Src/stm32746g_discovery_lcd.c **** }
 1371              		.loc 1 565 31 is_stmt 0 view .LVU277
 1372 0000 044B     		ldr	r3, .L105
 1373 0002 1B68     		ldr	r3, [r3]
 1374 0004 03EB4303 		add	r3, r3, r3, lsl #1
 1375 0008 9A00     		lsls	r2, r3, #2
 1376 000a 034B     		ldr	r3, .L105+4
 1377 000c 1344     		add	r3, r3, r2
 566:Core/Src/stm32746g_discovery_lcd.c **** 
 1378              		.loc 1 566 1 view .LVU278
 1379 000e 5868     		ldr	r0, [r3, #4]
 1380 0010 7047     		bx	lr
 1381              	.L106:
ARM GAS  C:\Users\jisu8\AppData\Local\Temp\ccieva3z.s 			page 57


 1382 0012 00BF     		.align	2
 1383              	.L105:
 1384 0014 00000000 		.word	.LANCHOR2
 1385 0018 00000000 		.word	.LANCHOR3
 1386              		.cfi_endproc
 1387              	.LFE166:
 1389              		.section	.text.BSP_LCD_SetFont,"ax",%progbits
 1390              		.align	1
 1391              		.global	BSP_LCD_SetFont
 1392              		.syntax unified
 1393              		.thumb
 1394              		.thumb_func
 1396              	BSP_LCD_SetFont:
 1397              	.LVL93:
 1398              	.LFB167:
 574:Core/Src/stm32746g_discovery_lcd.c ****   DrawProp[ActiveLayer].pFont = fonts;
 1399              		.loc 1 574 1 is_stmt 1 view -0
 1400              		.cfi_startproc
 1401              		@ args = 0, pretend = 0, frame = 0
 1402              		@ frame_needed = 0, uses_anonymous_args = 0
 1403              		@ link register save eliminated.
 575:Core/Src/stm32746g_discovery_lcd.c **** }
 1404              		.loc 1 575 3 view .LVU280
 575:Core/Src/stm32746g_discovery_lcd.c **** }
 1405              		.loc 1 575 24 is_stmt 0 view .LVU281
 1406 0000 044B     		ldr	r3, .L108
 1407 0002 1B68     		ldr	r3, [r3]
 575:Core/Src/stm32746g_discovery_lcd.c **** }
 1408              		.loc 1 575 31 view .LVU282
 1409 0004 03EB4303 		add	r3, r3, r3, lsl #1
 1410 0008 034A     		ldr	r2, .L108+4
 1411 000a 02EB8303 		add	r3, r2, r3, lsl #2
 1412 000e 9860     		str	r0, [r3, #8]
 576:Core/Src/stm32746g_discovery_lcd.c **** 
 1413              		.loc 1 576 1 view .LVU283
 1414 0010 7047     		bx	lr
 1415              	.L109:
 1416 0012 00BF     		.align	2
 1417              	.L108:
 1418 0014 00000000 		.word	.LANCHOR2
 1419 0018 00000000 		.word	.LANCHOR3
 1420              		.cfi_endproc
 1421              	.LFE167:
 1423              		.section	.text.BSP_LCD_GetFont,"ax",%progbits
 1424              		.align	1
 1425              		.global	BSP_LCD_GetFont
 1426              		.syntax unified
 1427              		.thumb
 1428              		.thumb_func
 1430              	BSP_LCD_GetFont:
 1431              	.LFB168:
 583:Core/Src/stm32746g_discovery_lcd.c ****   return DrawProp[ActiveLayer].pFont;
 1432              		.loc 1 583 1 is_stmt 1 view -0
 1433              		.cfi_startproc
 1434              		@ args = 0, pretend = 0, frame = 0
 1435              		@ frame_needed = 0, uses_anonymous_args = 0
 1436              		@ link register save eliminated.
ARM GAS  C:\Users\jisu8\AppData\Local\Temp\ccieva3z.s 			page 58


 584:Core/Src/stm32746g_discovery_lcd.c **** }
 1437              		.loc 1 584 3 view .LVU285
 584:Core/Src/stm32746g_discovery_lcd.c **** }
 1438              		.loc 1 584 31 is_stmt 0 view .LVU286
 1439 0000 044B     		ldr	r3, .L111
 1440 0002 1B68     		ldr	r3, [r3]
 1441 0004 03EB4303 		add	r3, r3, r3, lsl #1
 1442 0008 9A00     		lsls	r2, r3, #2
 1443 000a 034B     		ldr	r3, .L111+4
 1444 000c 1344     		add	r3, r3, r2
 585:Core/Src/stm32746g_discovery_lcd.c **** 
 1445              		.loc 1 585 1 view .LVU287
 1446 000e 9868     		ldr	r0, [r3, #8]
 1447 0010 7047     		bx	lr
 1448              	.L112:
 1449 0012 00BF     		.align	2
 1450              	.L111:
 1451 0014 00000000 		.word	.LANCHOR2
 1452 0018 00000000 		.word	.LANCHOR3
 1453              		.cfi_endproc
 1454              	.LFE168:
 1456              		.section	.text.BSP_LCD_ReadPixel,"ax",%progbits
 1457              		.align	1
 1458              		.global	BSP_LCD_ReadPixel
 1459              		.syntax unified
 1460              		.thumb
 1461              		.thumb_func
 1463              	BSP_LCD_ReadPixel:
 1464              	.LVL94:
 1465              	.LFB169:
 594:Core/Src/stm32746g_discovery_lcd.c ****   uint32_t ret = 0;
 1466              		.loc 1 594 1 is_stmt 1 view -0
 1467              		.cfi_startproc
 1468              		@ args = 0, pretend = 0, frame = 0
 1469              		@ frame_needed = 0, uses_anonymous_args = 0
 594:Core/Src/stm32746g_discovery_lcd.c ****   uint32_t ret = 0;
 1470              		.loc 1 594 1 is_stmt 0 view .LVU289
 1471 0000 70B5     		push	{r4, r5, r6, lr}
 1472              	.LCFI25:
 1473              		.cfi_def_cfa_offset 16
 1474              		.cfi_offset 4, -16
 1475              		.cfi_offset 5, -12
 1476              		.cfi_offset 6, -8
 1477              		.cfi_offset 14, -4
 1478 0002 0446     		mov	r4, r0
 1479 0004 0D46     		mov	r5, r1
 595:Core/Src/stm32746g_discovery_lcd.c ****   
 1480              		.loc 1 595 3 is_stmt 1 view .LVU290
 1481              	.LVL95:
 597:Core/Src/stm32746g_discovery_lcd.c ****   {
 1482              		.loc 1 597 3 view .LVU291
 597:Core/Src/stm32746g_discovery_lcd.c ****   {
 1483              		.loc 1 597 40 is_stmt 0 view .LVU292
 1484 0006 214B     		ldr	r3, .L121
 1485 0008 1A68     		ldr	r2, [r3]
 1486 000a 214B     		ldr	r3, .L121+4
 1487 000c 3421     		movs	r1, #52
ARM GAS  C:\Users\jisu8\AppData\Local\Temp\ccieva3z.s 			page 59


 1488              	.LVL96:
 597:Core/Src/stm32746g_discovery_lcd.c ****   {
 1489              		.loc 1 597 40 view .LVU293
 1490 000e 01FB0233 		mla	r3, r1, r2, r3
 1491 0012 9B6C     		ldr	r3, [r3, #72]
 597:Core/Src/stm32746g_discovery_lcd.c ****   {
 1492              		.loc 1 597 5 view .LVU294
 1493 0014 53B9     		cbnz	r3, .L114
 600:Core/Src/stm32746g_discovery_lcd.c ****   }
 1494              		.loc 1 600 5 is_stmt 1 view .LVU295
 600:Core/Src/stm32746g_discovery_lcd.c ****   }
 1495              		.loc 1 600 64 is_stmt 0 view .LVU296
 1496 0016 1E4B     		ldr	r3, .L121+4
 1497 0018 01FB0232 		mla	r2, r1, r2, r3
 1498 001c D66D     		ldr	r6, [r2, #92]
 600:Core/Src/stm32746g_discovery_lcd.c ****   }
 1499              		.loc 1 600 90 view .LVU297
 1500 001e FFF7FEFF 		bl	BSP_LCD_GetXSize
 1501              	.LVL97:
 600:Core/Src/stm32746g_discovery_lcd.c ****   }
 1502              		.loc 1 600 109 view .LVU298
 1503 0022 00FB0544 		mla	r4, r0, r5, r4
 600:Core/Src/stm32746g_discovery_lcd.c ****   }
 1504              		.loc 1 600 9 view .LVU299
 1505 0026 56F82400 		ldr	r0, [r6, r4, lsl #2]
 1506              	.LVL98:
 1507              	.L113:
 621:Core/Src/stm32746g_discovery_lcd.c **** 
 1508              		.loc 1 621 1 view .LVU300
 1509 002a 70BD     		pop	{r4, r5, r6, pc}
 1510              	.LVL99:
 1511              	.L114:
 602:Core/Src/stm32746g_discovery_lcd.c ****   {
 1512              		.loc 1 602 8 is_stmt 1 view .LVU301
 602:Core/Src/stm32746g_discovery_lcd.c ****   {
 1513              		.loc 1 602 10 is_stmt 0 view .LVU302
 1514 002c 012B     		cmp	r3, #1
 1515 002e 12D0     		beq	.L120
 607:Core/Src/stm32746g_discovery_lcd.c ****           (hLtdcHandler.LayerCfg[ActiveLayer].PixelFormat == LTDC_PIXEL_FORMAT_ARGB4444) || \
 1516              		.loc 1 607 8 is_stmt 1 view .LVU303
 607:Core/Src/stm32746g_discovery_lcd.c ****           (hLtdcHandler.LayerCfg[ActiveLayer].PixelFormat == LTDC_PIXEL_FORMAT_ARGB4444) || \
 1517              		.loc 1 607 10 is_stmt 0 view .LVU304
 1518 0030 042B     		cmp	r3, #4
 1519 0032 18BF     		it	ne
 1520 0034 022B     		cmpne	r3, #2
 1521 0036 1CD0     		beq	.L117
 608:Core/Src/stm32746g_discovery_lcd.c ****           (hLtdcHandler.LayerCfg[ActiveLayer].PixelFormat == LTDC_PIXEL_FORMAT_AL88))  
 1522              		.loc 1 608 90 view .LVU305
 1523 0038 072B     		cmp	r3, #7
 1524 003a 1AD0     		beq	.L117
 617:Core/Src/stm32746g_discovery_lcd.c ****   }
 1525              		.loc 1 617 5 is_stmt 1 view .LVU306
 617:Core/Src/stm32746g_discovery_lcd.c ****   }
 1526              		.loc 1 617 63 is_stmt 0 view .LVU307
 1527 003c 144B     		ldr	r3, .L121+4
 1528 003e 3421     		movs	r1, #52
 1529 0040 01FB0232 		mla	r2, r1, r2, r3
ARM GAS  C:\Users\jisu8\AppData\Local\Temp\ccieva3z.s 			page 60


 1530 0044 D66D     		ldr	r6, [r2, #92]
 617:Core/Src/stm32746g_discovery_lcd.c ****   }
 1531              		.loc 1 617 89 view .LVU308
 1532 0046 FFF7FEFF 		bl	BSP_LCD_GetXSize
 1533              	.LVL100:
 617:Core/Src/stm32746g_discovery_lcd.c ****   }
 1534              		.loc 1 617 108 view .LVU309
 1535 004a 00FB0544 		mla	r4, r0, r5, r4
 617:Core/Src/stm32746g_discovery_lcd.c ****   }
 1536              		.loc 1 617 11 view .LVU310
 1537 004e 16F81400 		ldrb	r0, [r6, r4, lsl #1]	@ zero_extendqisi2
 1538 0052 C0B2     		uxtb	r0, r0
 1539              	.LVL101:
 620:Core/Src/stm32746g_discovery_lcd.c **** }
 1540              		.loc 1 620 3 is_stmt 1 view .LVU311
 620:Core/Src/stm32746g_discovery_lcd.c **** }
 1541              		.loc 1 620 10 is_stmt 0 view .LVU312
 1542 0054 E9E7     		b	.L113
 1543              	.LVL102:
 1544              	.L120:
 605:Core/Src/stm32746g_discovery_lcd.c ****   }
 1545              		.loc 1 605 5 is_stmt 1 view .LVU313
 605:Core/Src/stm32746g_discovery_lcd.c ****   }
 1546              		.loc 1 605 65 is_stmt 0 view .LVU314
 1547 0056 0E4B     		ldr	r3, .L121+4
 1548 0058 3421     		movs	r1, #52
 1549 005a 01FB0232 		mla	r2, r1, r2, r3
 1550 005e D66D     		ldr	r6, [r2, #92]
 605:Core/Src/stm32746g_discovery_lcd.c ****   }
 1551              		.loc 1 605 91 view .LVU315
 1552 0060 FFF7FEFF 		bl	BSP_LCD_GetXSize
 1553              	.LVL103:
 605:Core/Src/stm32746g_discovery_lcd.c ****   }
 1554              		.loc 1 605 110 view .LVU316
 1555 0064 00FB0544 		mla	r4, r0, r5, r4
 605:Core/Src/stm32746g_discovery_lcd.c ****   }
 1556              		.loc 1 605 12 view .LVU317
 1557 0068 56F82400 		ldr	r0, [r6, r4, lsl #2]
 605:Core/Src/stm32746g_discovery_lcd.c ****   }
 1558              		.loc 1 605 9 view .LVU318
 1559 006c 20F07F40 		bic	r0, r0, #-16777216
 1560              	.LVL104:
 605:Core/Src/stm32746g_discovery_lcd.c ****   }
 1561              		.loc 1 605 9 view .LVU319
 1562 0070 DBE7     		b	.L113
 1563              	.LVL105:
 1564              	.L117:
 612:Core/Src/stm32746g_discovery_lcd.c ****   }
 1565              		.loc 1 612 5 is_stmt 1 view .LVU320
 612:Core/Src/stm32746g_discovery_lcd.c ****   }
 1566              		.loc 1 612 64 is_stmt 0 view .LVU321
 1567 0072 074B     		ldr	r3, .L121+4
 1568 0074 3421     		movs	r1, #52
 1569 0076 01FB0232 		mla	r2, r1, r2, r3
 1570 007a D66D     		ldr	r6, [r2, #92]
 612:Core/Src/stm32746g_discovery_lcd.c ****   }
 1571              		.loc 1 612 90 view .LVU322
ARM GAS  C:\Users\jisu8\AppData\Local\Temp\ccieva3z.s 			page 61


 1572 007c FFF7FEFF 		bl	BSP_LCD_GetXSize
 1573              	.LVL106:
 612:Core/Src/stm32746g_discovery_lcd.c ****   }
 1574              		.loc 1 612 109 view .LVU323
 1575 0080 00FB0544 		mla	r4, r0, r5, r4
 612:Core/Src/stm32746g_discovery_lcd.c ****   }
 1576              		.loc 1 612 11 view .LVU324
 1577 0084 36F81400 		ldrh	r0, [r6, r4, lsl #1]
 1578 0088 80B2     		uxth	r0, r0
 1579              	.LVL107:
 612:Core/Src/stm32746g_discovery_lcd.c ****   }
 1580              		.loc 1 612 9 view .LVU325
 1581 008a CEE7     		b	.L113
 1582              	.L122:
 1583              		.align	2
 1584              	.L121:
 1585 008c 00000000 		.word	.LANCHOR2
 1586 0090 00000000 		.word	.LANCHOR1
 1587              		.cfi_endproc
 1588              	.LFE169:
 1590              		.section	.text.BSP_LCD_Clear,"ax",%progbits
 1591              		.align	1
 1592              		.global	BSP_LCD_Clear
 1593              		.syntax unified
 1594              		.thumb
 1595              		.thumb_func
 1597              	BSP_LCD_Clear:
 1598              	.LVL108:
 1599              	.LFB170:
 629:Core/Src/stm32746g_discovery_lcd.c ****   /* Clear the LCD */ 
 1600              		.loc 1 629 1 is_stmt 1 view -0
 1601              		.cfi_startproc
 1602              		@ args = 0, pretend = 0, frame = 0
 1603              		@ frame_needed = 0, uses_anonymous_args = 0
 629:Core/Src/stm32746g_discovery_lcd.c ****   /* Clear the LCD */ 
 1604              		.loc 1 629 1 is_stmt 0 view .LVU327
 1605 0000 F0B5     		push	{r4, r5, r6, r7, lr}
 1606              	.LCFI26:
 1607              		.cfi_def_cfa_offset 20
 1608              		.cfi_offset 4, -20
 1609              		.cfi_offset 5, -16
 1610              		.cfi_offset 6, -12
 1611              		.cfi_offset 7, -8
 1612              		.cfi_offset 14, -4
 1613 0002 83B0     		sub	sp, sp, #12
 1614              	.LCFI27:
 1615              		.cfi_def_cfa_offset 32
 1616 0004 0546     		mov	r5, r0
 631:Core/Src/stm32746g_discovery_lcd.c **** }
 1617              		.loc 1 631 3 is_stmt 1 view .LVU328
 1618 0006 0B4B     		ldr	r3, .L125
 1619 0008 1E68     		ldr	r6, [r3]
 631:Core/Src/stm32746g_discovery_lcd.c **** }
 1620              		.loc 1 631 77 is_stmt 0 view .LVU329
 1621 000a 0B4B     		ldr	r3, .L125+4
 1622 000c 3422     		movs	r2, #52
 1623 000e 02FB0633 		mla	r3, r2, r6, r3
ARM GAS  C:\Users\jisu8\AppData\Local\Temp\ccieva3z.s 			page 62


 1624 0012 DF6D     		ldr	r7, [r3, #92]
 631:Core/Src/stm32746g_discovery_lcd.c **** }
 1625              		.loc 1 631 3 view .LVU330
 1626 0014 FFF7FEFF 		bl	BSP_LCD_GetXSize
 1627              	.LVL109:
 631:Core/Src/stm32746g_discovery_lcd.c **** }
 1628              		.loc 1 631 3 view .LVU331
 1629 0018 0446     		mov	r4, r0
 1630 001a FFF7FEFF 		bl	BSP_LCD_GetYSize
 1631              	.LVL110:
 1632 001e 0346     		mov	r3, r0
 1633 0020 0195     		str	r5, [sp, #4]
 1634 0022 0022     		movs	r2, #0
 1635 0024 0092     		str	r2, [sp]
 1636 0026 2246     		mov	r2, r4
 1637 0028 3946     		mov	r1, r7
 1638 002a 3046     		mov	r0, r6
 1639 002c FFF7FEFF 		bl	LL_FillBuffer
 1640              	.LVL111:
 632:Core/Src/stm32746g_discovery_lcd.c **** 
 1641              		.loc 1 632 1 view .LVU332
 1642 0030 03B0     		add	sp, sp, #12
 1643              	.LCFI28:
 1644              		.cfi_def_cfa_offset 20
 1645              		@ sp needed
 1646 0032 F0BD     		pop	{r4, r5, r6, r7, pc}
 1647              	.LVL112:
 1648              	.L126:
 632:Core/Src/stm32746g_discovery_lcd.c **** 
 1649              		.loc 1 632 1 view .LVU333
 1650              		.align	2
 1651              	.L125:
 1652 0034 00000000 		.word	.LANCHOR2
 1653 0038 00000000 		.word	.LANCHOR1
 1654              		.cfi_endproc
 1655              	.LFE170:
 1657              		.section	.text.BSP_LCD_DrawHLine,"ax",%progbits
 1658              		.align	1
 1659              		.global	BSP_LCD_DrawHLine
 1660              		.syntax unified
 1661              		.thumb
 1662              		.thumb_func
 1664              	BSP_LCD_DrawHLine:
 1665              	.LVL113:
 1666              	.LFB175:
 751:Core/Src/stm32746g_discovery_lcd.c ****   uint32_t  Xaddress = 0;
 1667              		.loc 1 751 1 is_stmt 1 view -0
 1668              		.cfi_startproc
 1669              		@ args = 0, pretend = 0, frame = 0
 1670              		@ frame_needed = 0, uses_anonymous_args = 0
 751:Core/Src/stm32746g_discovery_lcd.c ****   uint32_t  Xaddress = 0;
 1671              		.loc 1 751 1 is_stmt 0 view .LVU335
 1672 0000 2DE9F041 		push	{r4, r5, r6, r7, r8, lr}
 1673              	.LCFI29:
 1674              		.cfi_def_cfa_offset 24
 1675              		.cfi_offset 4, -24
 1676              		.cfi_offset 5, -20
ARM GAS  C:\Users\jisu8\AppData\Local\Temp\ccieva3z.s 			page 63


 1677              		.cfi_offset 6, -16
 1678              		.cfi_offset 7, -12
 1679              		.cfi_offset 8, -8
 1680              		.cfi_offset 14, -4
 1681 0004 82B0     		sub	sp, sp, #8
 1682              	.LCFI30:
 1683              		.cfi_def_cfa_offset 32
 1684 0006 0546     		mov	r5, r0
 1685 0008 8846     		mov	r8, r1
 1686 000a 1746     		mov	r7, r2
 752:Core/Src/stm32746g_discovery_lcd.c ****   
 1687              		.loc 1 752 3 is_stmt 1 view .LVU336
 1688              	.LVL114:
 755:Core/Src/stm32746g_discovery_lcd.c ****   { /* RGB565 format */
 1689              		.loc 1 755 3 view .LVU337
 755:Core/Src/stm32746g_discovery_lcd.c ****   { /* RGB565 format */
 1690              		.loc 1 755 40 is_stmt 0 view .LVU338
 1691 000c 174B     		ldr	r3, .L132
 1692 000e 1C68     		ldr	r4, [r3]
 1693 0010 174B     		ldr	r3, .L132+4
 1694 0012 3422     		movs	r2, #52
 1695              	.LVL115:
 755:Core/Src/stm32746g_discovery_lcd.c ****   { /* RGB565 format */
 1696              		.loc 1 755 40 view .LVU339
 1697 0014 02FB0433 		mla	r3, r2, r4, r3
 1698 0018 9B6C     		ldr	r3, [r3, #72]
 755:Core/Src/stm32746g_discovery_lcd.c ****   { /* RGB565 format */
 1699              		.loc 1 755 5 view .LVU340
 1700 001a 022B     		cmp	r3, #2
 1701 001c 1AD0     		beq	.L131
 761:Core/Src/stm32746g_discovery_lcd.c ****   }
 1702              		.loc 1 761 5 is_stmt 1 view .LVU341
 761:Core/Src/stm32746g_discovery_lcd.c ****   }
 1703              		.loc 1 761 51 is_stmt 0 view .LVU342
 1704 001e 144B     		ldr	r3, .L132+4
 1705 0020 3422     		movs	r2, #52
 1706 0022 02FB0433 		mla	r3, r2, r4, r3
 1707 0026 DE6D     		ldr	r6, [r3, #92]
 761:Core/Src/stm32746g_discovery_lcd.c ****   }
 1708              		.loc 1 761 72 view .LVU343
 1709 0028 FFF7FEFF 		bl	BSP_LCD_GetXSize
 1710              	.LVL116:
 761:Core/Src/stm32746g_discovery_lcd.c ****   }
 1711              		.loc 1 761 96 view .LVU344
 1712 002c 00FB0851 		mla	r1, r0, r8, r5
 761:Core/Src/stm32746g_discovery_lcd.c ****   }
 1713              		.loc 1 761 14 view .LVU345
 1714 0030 06EB8101 		add	r1, r6, r1, lsl #2
 1715              	.LVL117:
 1716              	.L129:
 765:Core/Src/stm32746g_discovery_lcd.c **** }
 1717              		.loc 1 765 3 is_stmt 1 view .LVU346
 1718 0034 04EB4402 		add	r2, r4, r4, lsl #1
 1719 0038 0E4B     		ldr	r3, .L132+8
 1720 003a 53F82230 		ldr	r3, [r3, r2, lsl #2]
 1721 003e 0193     		str	r3, [sp, #4]
 1722 0040 0023     		movs	r3, #0
ARM GAS  C:\Users\jisu8\AppData\Local\Temp\ccieva3z.s 			page 64


 1723 0042 0093     		str	r3, [sp]
 1724 0044 0123     		movs	r3, #1
 1725 0046 3A46     		mov	r2, r7
 1726 0048 2046     		mov	r0, r4
 1727 004a FFF7FEFF 		bl	LL_FillBuffer
 1728              	.LVL118:
 766:Core/Src/stm32746g_discovery_lcd.c **** 
 1729              		.loc 1 766 1 is_stmt 0 view .LVU347
 1730 004e 02B0     		add	sp, sp, #8
 1731              	.LCFI31:
 1732              		.cfi_remember_state
 1733              		.cfi_def_cfa_offset 24
 1734              		@ sp needed
 1735 0050 BDE8F081 		pop	{r4, r5, r6, r7, r8, pc}
 1736              	.LVL119:
 1737              	.L131:
 1738              	.LCFI32:
 1739              		.cfi_restore_state
 757:Core/Src/stm32746g_discovery_lcd.c ****   }
 1740              		.loc 1 757 5 is_stmt 1 view .LVU348
 757:Core/Src/stm32746g_discovery_lcd.c ****   }
 1741              		.loc 1 757 51 is_stmt 0 view .LVU349
 1742 0054 064B     		ldr	r3, .L132+4
 1743 0056 02FB0433 		mla	r3, r2, r4, r3
 1744 005a DE6D     		ldr	r6, [r3, #92]
 757:Core/Src/stm32746g_discovery_lcd.c ****   }
 1745              		.loc 1 757 72 view .LVU350
 1746 005c FFF7FEFF 		bl	BSP_LCD_GetXSize
 1747              	.LVL120:
 757:Core/Src/stm32746g_discovery_lcd.c ****   }
 1748              		.loc 1 757 96 view .LVU351
 1749 0060 00FB0851 		mla	r1, r0, r8, r5
 757:Core/Src/stm32746g_discovery_lcd.c ****   }
 1750              		.loc 1 757 14 view .LVU352
 1751 0064 06EB4101 		add	r1, r6, r1, lsl #1
 1752              	.LVL121:
 757:Core/Src/stm32746g_discovery_lcd.c ****   }
 1753              		.loc 1 757 14 view .LVU353
 1754 0068 E4E7     		b	.L129
 1755              	.L133:
 1756 006a 00BF     		.align	2
 1757              	.L132:
 1758 006c 00000000 		.word	.LANCHOR2
 1759 0070 00000000 		.word	.LANCHOR1
 1760 0074 00000000 		.word	.LANCHOR3
 1761              		.cfi_endproc
 1762              	.LFE175:
 1764              		.section	.text.BSP_LCD_DrawVLine,"ax",%progbits
 1765              		.align	1
 1766              		.global	BSP_LCD_DrawVLine
 1767              		.syntax unified
 1768              		.thumb
 1769              		.thumb_func
 1771              	BSP_LCD_DrawVLine:
 1772              	.LVL122:
 1773              	.LFB176:
 776:Core/Src/stm32746g_discovery_lcd.c ****   uint32_t  Xaddress = 0;
ARM GAS  C:\Users\jisu8\AppData\Local\Temp\ccieva3z.s 			page 65


 1774              		.loc 1 776 1 is_stmt 1 view -0
 1775              		.cfi_startproc
 1776              		@ args = 0, pretend = 0, frame = 0
 1777              		@ frame_needed = 0, uses_anonymous_args = 0
 776:Core/Src/stm32746g_discovery_lcd.c ****   uint32_t  Xaddress = 0;
 1778              		.loc 1 776 1 is_stmt 0 view .LVU355
 1779 0000 2DE9F041 		push	{r4, r5, r6, r7, r8, lr}
 1780              	.LCFI33:
 1781              		.cfi_def_cfa_offset 24
 1782              		.cfi_offset 4, -24
 1783              		.cfi_offset 5, -20
 1784              		.cfi_offset 6, -16
 1785              		.cfi_offset 7, -12
 1786              		.cfi_offset 8, -8
 1787              		.cfi_offset 14, -4
 1788 0004 82B0     		sub	sp, sp, #8
 1789              	.LCFI34:
 1790              		.cfi_def_cfa_offset 32
 1791 0006 0546     		mov	r5, r0
 1792 0008 8846     		mov	r8, r1
 1793 000a 1746     		mov	r7, r2
 777:Core/Src/stm32746g_discovery_lcd.c ****   
 1794              		.loc 1 777 3 is_stmt 1 view .LVU356
 1795              	.LVL123:
 780:Core/Src/stm32746g_discovery_lcd.c ****   { /* RGB565 format */
 1796              		.loc 1 780 3 view .LVU357
 780:Core/Src/stm32746g_discovery_lcd.c ****   { /* RGB565 format */
 1797              		.loc 1 780 40 is_stmt 0 view .LVU358
 1798 000c 184B     		ldr	r3, .L139
 1799 000e 1C68     		ldr	r4, [r3]
 1800 0010 184B     		ldr	r3, .L139+4
 1801 0012 3422     		movs	r2, #52
 1802              	.LVL124:
 780:Core/Src/stm32746g_discovery_lcd.c ****   { /* RGB565 format */
 1803              		.loc 1 780 40 view .LVU359
 1804 0014 02FB0433 		mla	r3, r2, r4, r3
 1805 0018 9B6C     		ldr	r3, [r3, #72]
 780:Core/Src/stm32746g_discovery_lcd.c ****   { /* RGB565 format */
 1806              		.loc 1 780 5 view .LVU360
 1807 001a 022B     		cmp	r3, #2
 1808 001c 1DD0     		beq	.L138
 786:Core/Src/stm32746g_discovery_lcd.c ****   }
 1809              		.loc 1 786 5 is_stmt 1 view .LVU361
 786:Core/Src/stm32746g_discovery_lcd.c ****   }
 1810              		.loc 1 786 51 is_stmt 0 view .LVU362
 1811 001e 154B     		ldr	r3, .L139+4
 1812 0020 3422     		movs	r2, #52
 1813 0022 02FB0433 		mla	r3, r2, r4, r3
 1814 0026 DE6D     		ldr	r6, [r3, #92]
 786:Core/Src/stm32746g_discovery_lcd.c ****   }
 1815              		.loc 1 786 72 view .LVU363
 1816 0028 FFF7FEFF 		bl	BSP_LCD_GetXSize
 1817              	.LVL125:
 786:Core/Src/stm32746g_discovery_lcd.c ****   }
 1818              		.loc 1 786 96 view .LVU364
 1819 002c 00FB0855 		mla	r5, r0, r8, r5
 786:Core/Src/stm32746g_discovery_lcd.c ****   }
ARM GAS  C:\Users\jisu8\AppData\Local\Temp\ccieva3z.s 			page 66


 1820              		.loc 1 786 14 view .LVU365
 1821 0030 06EB8505 		add	r5, r6, r5, lsl #2
 1822              	.LVL126:
 1823              	.L136:
 790:Core/Src/stm32746g_discovery_lcd.c **** }
 1824              		.loc 1 790 3 is_stmt 1 view .LVU366
 790:Core/Src/stm32746g_discovery_lcd.c **** }
 1825              		.loc 1 790 64 is_stmt 0 view .LVU367
 1826 0034 FFF7FEFF 		bl	BSP_LCD_GetXSize
 1827              	.LVL127:
 790:Core/Src/stm32746g_discovery_lcd.c **** }
 1828              		.loc 1 790 3 view .LVU368
 1829 0038 04EB4402 		add	r2, r4, r4, lsl #1
 1830 003c 0E4B     		ldr	r3, .L139+8
 1831 003e 53F82230 		ldr	r3, [r3, r2, lsl #2]
 1832 0042 0193     		str	r3, [sp, #4]
 1833 0044 0138     		subs	r0, r0, #1
 1834 0046 0090     		str	r0, [sp]
 1835 0048 3B46     		mov	r3, r7
 1836 004a 0122     		movs	r2, #1
 1837 004c 2946     		mov	r1, r5
 1838 004e 2046     		mov	r0, r4
 1839 0050 FFF7FEFF 		bl	LL_FillBuffer
 1840              	.LVL128:
 791:Core/Src/stm32746g_discovery_lcd.c **** 
 1841              		.loc 1 791 1 view .LVU369
 1842 0054 02B0     		add	sp, sp, #8
 1843              	.LCFI35:
 1844              		.cfi_remember_state
 1845              		.cfi_def_cfa_offset 24
 1846              		@ sp needed
 1847 0056 BDE8F081 		pop	{r4, r5, r6, r7, r8, pc}
 1848              	.LVL129:
 1849              	.L138:
 1850              	.LCFI36:
 1851              		.cfi_restore_state
 782:Core/Src/stm32746g_discovery_lcd.c ****   }
 1852              		.loc 1 782 5 is_stmt 1 view .LVU370
 782:Core/Src/stm32746g_discovery_lcd.c ****   }
 1853              		.loc 1 782 51 is_stmt 0 view .LVU371
 1854 005a 064B     		ldr	r3, .L139+4
 1855 005c 02FB0433 		mla	r3, r2, r4, r3
 1856 0060 DE6D     		ldr	r6, [r3, #92]
 782:Core/Src/stm32746g_discovery_lcd.c ****   }
 1857              		.loc 1 782 72 view .LVU372
 1858 0062 FFF7FEFF 		bl	BSP_LCD_GetXSize
 1859              	.LVL130:
 782:Core/Src/stm32746g_discovery_lcd.c ****   }
 1860              		.loc 1 782 96 view .LVU373
 1861 0066 00FB0855 		mla	r5, r0, r8, r5
 782:Core/Src/stm32746g_discovery_lcd.c ****   }
 1862              		.loc 1 782 14 view .LVU374
 1863 006a 06EB4505 		add	r5, r6, r5, lsl #1
 1864              	.LVL131:
 782:Core/Src/stm32746g_discovery_lcd.c ****   }
 1865              		.loc 1 782 14 view .LVU375
 1866 006e E1E7     		b	.L136
ARM GAS  C:\Users\jisu8\AppData\Local\Temp\ccieva3z.s 			page 67


 1867              	.L140:
 1868              		.align	2
 1869              	.L139:
 1870 0070 00000000 		.word	.LANCHOR2
 1871 0074 00000000 		.word	.LANCHOR1
 1872 0078 00000000 		.word	.LANCHOR3
 1873              		.cfi_endproc
 1874              	.LFE176:
 1876              		.section	.text.BSP_LCD_DrawRect,"ax",%progbits
 1877              		.align	1
 1878              		.global	BSP_LCD_DrawRect
 1879              		.syntax unified
 1880              		.thumb
 1881              		.thumb_func
 1883              	BSP_LCD_DrawRect:
 1884              	.LVL132:
 1885              	.LFB178:
 877:Core/Src/stm32746g_discovery_lcd.c ****   /* Draw horizontal lines */
 1886              		.loc 1 877 1 is_stmt 1 view -0
 1887              		.cfi_startproc
 1888              		@ args = 0, pretend = 0, frame = 0
 1889              		@ frame_needed = 0, uses_anonymous_args = 0
 877:Core/Src/stm32746g_discovery_lcd.c ****   /* Draw horizontal lines */
 1890              		.loc 1 877 1 is_stmt 0 view .LVU377
 1891 0000 F8B5     		push	{r3, r4, r5, r6, r7, lr}
 1892              	.LCFI37:
 1893              		.cfi_def_cfa_offset 24
 1894              		.cfi_offset 3, -24
 1895              		.cfi_offset 4, -20
 1896              		.cfi_offset 5, -16
 1897              		.cfi_offset 6, -12
 1898              		.cfi_offset 7, -8
 1899              		.cfi_offset 14, -4
 1900 0002 0446     		mov	r4, r0
 1901 0004 0D46     		mov	r5, r1
 1902 0006 1746     		mov	r7, r2
 1903 0008 1E46     		mov	r6, r3
 879:Core/Src/stm32746g_discovery_lcd.c ****   BSP_LCD_DrawHLine(Xpos, (Ypos+ Height), Width);
 1904              		.loc 1 879 3 is_stmt 1 view .LVU378
 1905 000a FFF7FEFF 		bl	BSP_LCD_DrawHLine
 1906              	.LVL133:
 880:Core/Src/stm32746g_discovery_lcd.c ****   
 1907              		.loc 1 880 3 view .LVU379
 1908 000e A919     		adds	r1, r5, r6
 1909 0010 3A46     		mov	r2, r7
 1910 0012 89B2     		uxth	r1, r1
 1911 0014 2046     		mov	r0, r4
 1912 0016 FFF7FEFF 		bl	BSP_LCD_DrawHLine
 1913              	.LVL134:
 883:Core/Src/stm32746g_discovery_lcd.c ****   BSP_LCD_DrawVLine((Xpos + Width), Ypos, Height);
 1914              		.loc 1 883 3 view .LVU380
 1915 001a 3246     		mov	r2, r6
 1916 001c 2946     		mov	r1, r5
 1917 001e 2046     		mov	r0, r4
 1918 0020 FFF7FEFF 		bl	BSP_LCD_DrawVLine
 1919              	.LVL135:
 884:Core/Src/stm32746g_discovery_lcd.c **** }
ARM GAS  C:\Users\jisu8\AppData\Local\Temp\ccieva3z.s 			page 68


 1920              		.loc 1 884 3 view .LVU381
 1921 0024 E019     		adds	r0, r4, r7
 1922 0026 3246     		mov	r2, r6
 1923 0028 2946     		mov	r1, r5
 1924 002a 80B2     		uxth	r0, r0
 1925 002c FFF7FEFF 		bl	BSP_LCD_DrawVLine
 1926              	.LVL136:
 885:Core/Src/stm32746g_discovery_lcd.c **** 
 1927              		.loc 1 885 1 is_stmt 0 view .LVU382
 1928 0030 F8BD     		pop	{r3, r4, r5, r6, r7, pc}
 1929              		.cfi_endproc
 1930              	.LFE178:
 1932              		.section	.text.BSP_LCD_DrawPixel,"ax",%progbits
 1933              		.align	1
 1934              		.global	BSP_LCD_DrawPixel
 1935              		.syntax unified
 1936              		.thumb
 1937              		.thumb_func
 1939              	BSP_LCD_DrawPixel:
 1940              	.LVL137:
 1941              	.LFB182:
1003:Core/Src/stm32746g_discovery_lcd.c ****   /* Write data value to all SDRAM memory */
 1942              		.loc 1 1003 1 is_stmt 1 view -0
 1943              		.cfi_startproc
 1944              		@ args = 0, pretend = 0, frame = 0
 1945              		@ frame_needed = 0, uses_anonymous_args = 0
1003:Core/Src/stm32746g_discovery_lcd.c ****   /* Write data value to all SDRAM memory */
 1946              		.loc 1 1003 1 is_stmt 0 view .LVU384
 1947 0000 F8B5     		push	{r3, r4, r5, r6, r7, lr}
 1948              	.LCFI38:
 1949              		.cfi_def_cfa_offset 24
 1950              		.cfi_offset 3, -24
 1951              		.cfi_offset 4, -20
 1952              		.cfi_offset 5, -16
 1953              		.cfi_offset 6, -12
 1954              		.cfi_offset 7, -8
 1955              		.cfi_offset 14, -4
 1956 0002 0446     		mov	r4, r0
 1957 0004 0D46     		mov	r5, r1
 1958 0006 1646     		mov	r6, r2
1005:Core/Src/stm32746g_discovery_lcd.c ****   { /* RGB565 format */
 1959              		.loc 1 1005 3 is_stmt 1 view .LVU385
1005:Core/Src/stm32746g_discovery_lcd.c ****   { /* RGB565 format */
 1960              		.loc 1 1005 40 is_stmt 0 view .LVU386
 1961 0008 104B     		ldr	r3, .L148
 1962 000a 1A68     		ldr	r2, [r3]
 1963              	.LVL138:
1005:Core/Src/stm32746g_discovery_lcd.c ****   { /* RGB565 format */
 1964              		.loc 1 1005 40 view .LVU387
 1965 000c 104B     		ldr	r3, .L148+4
 1966 000e 3421     		movs	r1, #52
 1967              	.LVL139:
1005:Core/Src/stm32746g_discovery_lcd.c ****   { /* RGB565 format */
 1968              		.loc 1 1005 40 view .LVU388
 1969 0010 01FB0233 		mla	r3, r1, r2, r3
 1970 0014 9B6C     		ldr	r3, [r3, #72]
1005:Core/Src/stm32746g_discovery_lcd.c ****   { /* RGB565 format */
ARM GAS  C:\Users\jisu8\AppData\Local\Temp\ccieva3z.s 			page 69


 1971              		.loc 1 1005 5 view .LVU389
 1972 0016 022B     		cmp	r3, #2
 1973 0018 0BD0     		beq	.L147
1011:Core/Src/stm32746g_discovery_lcd.c ****   }
 1974              		.loc 1 1011 5 is_stmt 1 view .LVU390
1011:Core/Src/stm32746g_discovery_lcd.c ****   }
 1975              		.loc 1 1011 58 is_stmt 0 view .LVU391
 1976 001a 0D4B     		ldr	r3, .L148+4
 1977 001c 3421     		movs	r1, #52
 1978 001e 01FB0232 		mla	r2, r1, r2, r3
 1979 0022 D76D     		ldr	r7, [r2, #92]
1011:Core/Src/stm32746g_discovery_lcd.c ****   }
 1980              		.loc 1 1011 84 view .LVU392
 1981 0024 FFF7FEFF 		bl	BSP_LCD_GetXSize
 1982              	.LVL140:
1011:Core/Src/stm32746g_discovery_lcd.c ****   }
 1983              		.loc 1 1011 103 view .LVU393
 1984 0028 00FB0544 		mla	r4, r0, r5, r4
1011:Core/Src/stm32746g_discovery_lcd.c ****   }
 1985              		.loc 1 1011 113 view .LVU394
 1986 002c 47F82460 		str	r6, [r7, r4, lsl #2]
 1987              	.LVL141:
 1988              	.L143:
1013:Core/Src/stm32746g_discovery_lcd.c **** 
 1989              		.loc 1 1013 1 view .LVU395
 1990 0030 F8BD     		pop	{r3, r4, r5, r6, r7, pc}
 1991              	.LVL142:
 1992              	.L147:
1007:Core/Src/stm32746g_discovery_lcd.c ****   }
 1993              		.loc 1 1007 5 is_stmt 1 view .LVU396
1007:Core/Src/stm32746g_discovery_lcd.c ****   }
 1994              		.loc 1 1007 58 is_stmt 0 view .LVU397
 1995 0032 074B     		ldr	r3, .L148+4
 1996 0034 01FB0232 		mla	r2, r1, r2, r3
 1997 0038 D76D     		ldr	r7, [r2, #92]
1007:Core/Src/stm32746g_discovery_lcd.c ****   }
 1998              		.loc 1 1007 84 view .LVU398
 1999 003a FFF7FEFF 		bl	BSP_LCD_GetXSize
 2000              	.LVL143:
1007:Core/Src/stm32746g_discovery_lcd.c ****   }
 2001              		.loc 1 1007 103 view .LVU399
 2002 003e 00FB0544 		mla	r4, r0, r5, r4
1007:Core/Src/stm32746g_discovery_lcd.c ****   }
 2003              		.loc 1 1007 115 view .LVU400
 2004 0042 B6B2     		uxth	r6, r6
 2005              	.LVL144:
1007:Core/Src/stm32746g_discovery_lcd.c ****   }
 2006              		.loc 1 1007 113 view .LVU401
 2007 0044 27F81460 		strh	r6, [r7, r4, lsl #1]	@ movhi
 2008 0048 F2E7     		b	.L143
 2009              	.L149:
 2010 004a 00BF     		.align	2
 2011              	.L148:
 2012 004c 00000000 		.word	.LANCHOR2
 2013 0050 00000000 		.word	.LANCHOR1
 2014              		.cfi_endproc
 2015              	.LFE182:
ARM GAS  C:\Users\jisu8\AppData\Local\Temp\ccieva3z.s 			page 70


 2017              		.section	.text.DrawChar,"ax",%progbits
 2018              		.align	1
 2019              		.syntax unified
 2020              		.thumb
 2021              		.thumb_func
 2023              	DrawChar:
 2024              	.LVL145:
 2025              	.LFB193:
1429:Core/Src/stm32746g_discovery_lcd.c ****   uint32_t i = 0, j = 0;
 2026              		.loc 1 1429 1 is_stmt 1 view -0
 2027              		.cfi_startproc
 2028              		@ args = 0, pretend = 0, frame = 8
 2029              		@ frame_needed = 0, uses_anonymous_args = 0
1429:Core/Src/stm32746g_discovery_lcd.c ****   uint32_t i = 0, j = 0;
 2030              		.loc 1 1429 1 is_stmt 0 view .LVU403
 2031 0000 2DE9F04F 		push	{r4, r5, r6, r7, r8, r9, r10, fp, lr}
 2032              	.LCFI39:
 2033              		.cfi_def_cfa_offset 36
 2034              		.cfi_offset 4, -36
 2035              		.cfi_offset 5, -32
 2036              		.cfi_offset 6, -28
 2037              		.cfi_offset 7, -24
 2038              		.cfi_offset 8, -20
 2039              		.cfi_offset 9, -16
 2040              		.cfi_offset 10, -12
 2041              		.cfi_offset 11, -8
 2042              		.cfi_offset 14, -4
 2043 0004 83B0     		sub	sp, sp, #12
 2044              	.LCFI40:
 2045              		.cfi_def_cfa_offset 48
 2046 0006 8146     		mov	r9, r0
 2047 0008 0E46     		mov	r6, r1
 2048 000a 0092     		str	r2, [sp]
1430:Core/Src/stm32746g_discovery_lcd.c ****   uint16_t height, width;
 2049              		.loc 1 1430 3 is_stmt 1 view .LVU404
 2050              	.LVL146:
1431:Core/Src/stm32746g_discovery_lcd.c ****   uint8_t  offset;
 2051              		.loc 1 1431 3 view .LVU405
1432:Core/Src/stm32746g_discovery_lcd.c ****   uint8_t  *pchar;
 2052              		.loc 1 1432 3 view .LVU406
1433:Core/Src/stm32746g_discovery_lcd.c ****   uint32_t line;
 2053              		.loc 1 1433 3 view .LVU407
1434:Core/Src/stm32746g_discovery_lcd.c ****   
 2054              		.loc 1 1434 3 view .LVU408
1436:Core/Src/stm32746g_discovery_lcd.c ****   width  = DrawProp[ActiveLayer].pFont->Width;
 2055              		.loc 1 1436 3 view .LVU409
1436:Core/Src/stm32746g_discovery_lcd.c ****   width  = DrawProp[ActiveLayer].pFont->Width;
 2056              		.loc 1 1436 33 is_stmt 0 view .LVU410
 2057 000c 344B     		ldr	r3, .L166
 2058 000e 1B68     		ldr	r3, [r3]
 2059 0010 03EB4303 		add	r3, r3, r3, lsl #1
 2060 0014 334A     		ldr	r2, .L166+4
 2061              	.LVL147:
1436:Core/Src/stm32746g_discovery_lcd.c ****   width  = DrawProp[ActiveLayer].pFont->Width;
 2062              		.loc 1 1436 33 view .LVU411
 2063 0016 02EB8303 		add	r3, r2, r3, lsl #2
 2064 001a 9B68     		ldr	r3, [r3, #8]
ARM GAS  C:\Users\jisu8\AppData\Local\Temp\ccieva3z.s 			page 71


1436:Core/Src/stm32746g_discovery_lcd.c ****   width  = DrawProp[ActiveLayer].pFont->Width;
 2065              		.loc 1 1436 10 view .LVU412
 2066 001c DA88     		ldrh	r2, [r3, #6]
 2067 001e 0192     		str	r2, [sp, #4]
 2068              	.LVL148:
1437:Core/Src/stm32746g_discovery_lcd.c ****   
 2069              		.loc 1 1437 3 is_stmt 1 view .LVU413
1437:Core/Src/stm32746g_discovery_lcd.c ****   
 2070              		.loc 1 1437 10 is_stmt 0 view .LVU414
 2071 0020 9D88     		ldrh	r5, [r3, #4]
 2072              	.LVL149:
1439:Core/Src/stm32746g_discovery_lcd.c ****   
 2073              		.loc 1 1439 3 is_stmt 1 view .LVU415
1439:Core/Src/stm32746g_discovery_lcd.c ****   
 2074              		.loc 1 1439 28 is_stmt 0 view .LVU416
 2075 0022 05F1070B 		add	fp, r5, #7
 2076 0026 4FEAEB0B 		asr	fp, fp, #3
1439:Core/Src/stm32746g_discovery_lcd.c ****   
 2077              		.loc 1 1439 32 view .LVU417
 2078 002a 4FEACB08 		lsl	r8, fp, #3
 2079 002e 5FFA88F8 		uxtb	r8, r8
 2080 0032 EBB2     		uxtb	r3, r5
1439:Core/Src/stm32746g_discovery_lcd.c ****   
 2081              		.loc 1 1439 10 view .LVU418
 2082 0034 A8EB0308 		sub	r8, r8, r3
 2083 0038 5FFA88F8 		uxtb	r8, r8
 2084              	.LVL150:
1441:Core/Src/stm32746g_discovery_lcd.c ****   {
 2085              		.loc 1 1441 3 is_stmt 1 view .LVU419
1441:Core/Src/stm32746g_discovery_lcd.c ****   {
 2086              		.loc 1 1441 9 is_stmt 0 view .LVU420
 2087 003c 4FF0000A 		mov	r10, #0
1441:Core/Src/stm32746g_discovery_lcd.c ****   {
 2088              		.loc 1 1441 3 view .LVU421
 2089 0040 34E0     		b	.L152
 2090              	.LVL151:
 2091              	.L153:
1449:Core/Src/stm32746g_discovery_lcd.c ****       break;
 2092              		.loc 1 1449 7 is_stmt 1 view .LVU422
1449:Core/Src/stm32746g_discovery_lcd.c ****       break;
 2093              		.loc 1 1449 20 is_stmt 0 view .LVU423
 2094 0042 009A     		ldr	r2, [sp]
 2095              	.LVL152:
1449:Core/Src/stm32746g_discovery_lcd.c ****       break;
 2096              		.loc 1 1449 20 view .LVU424
 2097 0044 D75C     		ldrb	r7, [r2, r3]	@ zero_extendqisi2
 2098              	.LVL153:
1450:Core/Src/stm32746g_discovery_lcd.c ****       
 2099              		.loc 1 1450 7 is_stmt 1 view .LVU425
 2100              	.L156:
1462:Core/Src/stm32746g_discovery_lcd.c ****     {
 2101              		.loc 1 1462 5 view .LVU426
1462:Core/Src/stm32746g_discovery_lcd.c ****     {
 2102              		.loc 1 1462 12 is_stmt 0 view .LVU427
 2103 0046 0024     		movs	r4, #0
1462:Core/Src/stm32746g_discovery_lcd.c ****     {
 2104              		.loc 1 1462 5 view .LVU428
ARM GAS  C:\Users\jisu8\AppData\Local\Temp\ccieva3z.s 			page 72


 2105 0048 14E0     		b	.L157
 2106              	.LVL154:
 2107              	.L154:
1453:Core/Src/stm32746g_discovery_lcd.c ****       break;
 2108              		.loc 1 1453 7 is_stmt 1 view .LVU429
1453:Core/Src/stm32746g_discovery_lcd.c ****       break;
 2109              		.loc 1 1453 21 is_stmt 0 view .LVU430
 2110 004a 0099     		ldr	r1, [sp]
 2111 004c CB5C     		ldrb	r3, [r1, r3]	@ zero_extendqisi2
1453:Core/Src/stm32746g_discovery_lcd.c ****       break;
 2112              		.loc 1 1453 37 view .LVU431
 2113 004e 5778     		ldrb	r7, [r2, #1]	@ zero_extendqisi2
1453:Core/Src/stm32746g_discovery_lcd.c ****       break;
 2114              		.loc 1 1453 30 view .LVU432
 2115 0050 47EA0327 		orr	r7, r7, r3, lsl #8
 2116              	.LVL155:
1454:Core/Src/stm32746g_discovery_lcd.c ****       
 2117              		.loc 1 1454 7 is_stmt 1 view .LVU433
 2118 0054 F7E7     		b	.L156
 2119              	.LVL156:
 2120              	.L158:
1470:Core/Src/stm32746g_discovery_lcd.c ****       } 
 2121              		.loc 1 1470 9 view .LVU434
 2122 0056 224B     		ldr	r3, .L166
 2123 0058 1B68     		ldr	r3, [r3]
 2124 005a 03EB4303 		add	r3, r3, r3, lsl #1
 2125 005e 214A     		ldr	r2, .L166+4
 2126 0060 02EB8303 		add	r3, r2, r3, lsl #2
 2127 0064 09EB0400 		add	r0, r9, r4
 2128 0068 5A68     		ldr	r2, [r3, #4]
 2129 006a 3146     		mov	r1, r6
 2130 006c 80B2     		uxth	r0, r0
 2131 006e FFF7FEFF 		bl	BSP_LCD_DrawPixel
 2132              	.LVL157:
 2133              	.L159:
1462:Core/Src/stm32746g_discovery_lcd.c ****     {
 2134              		.loc 1 1462 28 discriminator 2 view .LVU435
1462:Core/Src/stm32746g_discovery_lcd.c ****     {
 2135              		.loc 1 1462 29 is_stmt 0 discriminator 2 view .LVU436
 2136 0072 0134     		adds	r4, r4, #1
 2137              	.LVL158:
 2138              	.L157:
1462:Core/Src/stm32746g_discovery_lcd.c ****     {
 2139              		.loc 1 1462 17 is_stmt 1 discriminator 1 view .LVU437
1462:Core/Src/stm32746g_discovery_lcd.c ****     {
 2140              		.loc 1 1462 5 is_stmt 0 discriminator 1 view .LVU438
 2141 0074 A542     		cmp	r5, r4
 2142 0076 15D9     		bls	.L164
1464:Core/Src/stm32746g_discovery_lcd.c ****       {
 2143              		.loc 1 1464 7 is_stmt 1 view .LVU439
1464:Core/Src/stm32746g_discovery_lcd.c ****       {
 2144              		.loc 1 1464 29 is_stmt 0 view .LVU440
 2145 0078 2B1B     		subs	r3, r5, r4
1464:Core/Src/stm32746g_discovery_lcd.c ****       {
 2146              		.loc 1 1464 33 view .LVU441
 2147 007a 4344     		add	r3, r3, r8
1464:Core/Src/stm32746g_discovery_lcd.c ****       {
ARM GAS  C:\Users\jisu8\AppData\Local\Temp\ccieva3z.s 			page 73


 2148              		.loc 1 1464 41 view .LVU442
 2149 007c 013B     		subs	r3, r3, #1
1464:Core/Src/stm32746g_discovery_lcd.c ****       {
 2150              		.loc 1 1464 20 view .LVU443
 2151 007e 0122     		movs	r2, #1
 2152 0080 02FA03F3 		lsl	r3, r2, r3
1464:Core/Src/stm32746g_discovery_lcd.c ****       {
 2153              		.loc 1 1464 9 view .LVU444
 2154 0084 3B42     		tst	r3, r7
 2155 0086 E6D0     		beq	.L158
1466:Core/Src/stm32746g_discovery_lcd.c ****       }
 2156              		.loc 1 1466 9 is_stmt 1 view .LVU445
 2157 0088 154B     		ldr	r3, .L166
 2158 008a 1B68     		ldr	r3, [r3]
 2159 008c 03EB4303 		add	r3, r3, r3, lsl #1
 2160 0090 09EB0400 		add	r0, r9, r4
 2161 0094 134A     		ldr	r2, .L166+4
 2162 0096 52F82320 		ldr	r2, [r2, r3, lsl #2]
 2163 009a 3146     		mov	r1, r6
 2164 009c 80B2     		uxth	r0, r0
 2165 009e FFF7FEFF 		bl	BSP_LCD_DrawPixel
 2166              	.LVL159:
 2167 00a2 E6E7     		b	.L159
 2168              	.L164:
1473:Core/Src/stm32746g_discovery_lcd.c ****   }
 2169              		.loc 1 1473 5 discriminator 2 view .LVU446
1473:Core/Src/stm32746g_discovery_lcd.c ****   }
 2170              		.loc 1 1473 9 is_stmt 0 discriminator 2 view .LVU447
 2171 00a4 0136     		adds	r6, r6, #1
 2172              	.LVL160:
1473:Core/Src/stm32746g_discovery_lcd.c ****   }
 2173              		.loc 1 1473 9 discriminator 2 view .LVU448
 2174 00a6 B6B2     		uxth	r6, r6
 2175              	.LVL161:
1441:Core/Src/stm32746g_discovery_lcd.c ****   {
 2176              		.loc 1 1441 26 is_stmt 1 discriminator 2 view .LVU449
1441:Core/Src/stm32746g_discovery_lcd.c ****   {
 2177              		.loc 1 1441 27 is_stmt 0 discriminator 2 view .LVU450
 2178 00a8 0AF1010A 		add	r10, r10, #1
 2179              	.LVL162:
 2180              	.L152:
1441:Core/Src/stm32746g_discovery_lcd.c ****   {
 2181              		.loc 1 1441 14 is_stmt 1 discriminator 1 view .LVU451
1441:Core/Src/stm32746g_discovery_lcd.c ****   {
 2182              		.loc 1 1441 3 is_stmt 0 discriminator 1 view .LVU452
 2183 00ac 019B     		ldr	r3, [sp, #4]
 2184 00ae 5345     		cmp	r3, r10
 2185 00b0 12D9     		bls	.L165
1443:Core/Src/stm32746g_discovery_lcd.c ****     
 2186              		.loc 1 1443 5 is_stmt 1 view .LVU453
1443:Core/Src/stm32746g_discovery_lcd.c ****     
 2187              		.loc 1 1443 43 is_stmt 0 view .LVU454
 2188 00b2 0AFB0BF3 		mul	r3, r10, fp
1443:Core/Src/stm32746g_discovery_lcd.c ****     
 2189              		.loc 1 1443 11 view .LVU455
 2190 00b6 009A     		ldr	r2, [sp]
 2191 00b8 1A44     		add	r2, r2, r3
ARM GAS  C:\Users\jisu8\AppData\Local\Temp\ccieva3z.s 			page 74


 2192              	.LVL163:
1445:Core/Src/stm32746g_discovery_lcd.c ****     {
 2193              		.loc 1 1445 5 is_stmt 1 view .LVU456
 2194 00ba BBF1010F 		cmp	fp, #1
 2195 00be C0D0     		beq	.L153
 2196 00c0 BBF1020F 		cmp	fp, #2
 2197 00c4 C1D0     		beq	.L154
1458:Core/Src/stm32746g_discovery_lcd.c ****       break;
 2198              		.loc 1 1458 7 view .LVU457
1458:Core/Src/stm32746g_discovery_lcd.c ****       break;
 2199              		.loc 1 1458 21 is_stmt 0 view .LVU458
 2200 00c6 0099     		ldr	r1, [sp]
 2201 00c8 CB5C     		ldrb	r3, [r1, r3]	@ zero_extendqisi2
1458:Core/Src/stm32746g_discovery_lcd.c ****       break;
 2202              		.loc 1 1458 39 view .LVU459
 2203 00ca 5778     		ldrb	r7, [r2, #1]	@ zero_extendqisi2
1458:Core/Src/stm32746g_discovery_lcd.c ****       break;
 2204              		.loc 1 1458 42 view .LVU460
 2205 00cc 3F02     		lsls	r7, r7, #8
1458:Core/Src/stm32746g_discovery_lcd.c ****       break;
 2206              		.loc 1 1458 31 view .LVU461
 2207 00ce 47EA0347 		orr	r7, r7, r3, lsl #16
1458:Core/Src/stm32746g_discovery_lcd.c ****       break;
 2208              		.loc 1 1458 55 view .LVU462
 2209 00d2 9378     		ldrb	r3, [r2, #2]	@ zero_extendqisi2
1458:Core/Src/stm32746g_discovery_lcd.c ****       break;
 2210              		.loc 1 1458 48 view .LVU463
 2211 00d4 1F43     		orrs	r7, r7, r3
 2212              	.LVL164:
1459:Core/Src/stm32746g_discovery_lcd.c ****     } 
 2213              		.loc 1 1459 7 is_stmt 1 view .LVU464
 2214 00d6 B6E7     		b	.L156
 2215              	.LVL165:
 2216              	.L165:
1475:Core/Src/stm32746g_discovery_lcd.c **** 
 2217              		.loc 1 1475 1 is_stmt 0 view .LVU465
 2218 00d8 03B0     		add	sp, sp, #12
 2219              	.LCFI41:
 2220              		.cfi_def_cfa_offset 36
 2221              	.LVL166:
1475:Core/Src/stm32746g_discovery_lcd.c **** 
 2222              		.loc 1 1475 1 view .LVU466
 2223              		@ sp needed
 2224 00da BDE8F08F 		pop	{r4, r5, r6, r7, r8, r9, r10, fp, pc}
 2225              	.LVL167:
 2226              	.L167:
1475:Core/Src/stm32746g_discovery_lcd.c **** 
 2227              		.loc 1 1475 1 view .LVU467
 2228 00de 00BF     		.align	2
 2229              	.L166:
 2230 00e0 00000000 		.word	.LANCHOR2
 2231 00e4 00000000 		.word	.LANCHOR3
 2232              		.cfi_endproc
 2233              	.LFE193:
 2235              		.section	.text.BSP_LCD_DisplayChar,"ax",%progbits
 2236              		.align	1
 2237              		.global	BSP_LCD_DisplayChar
ARM GAS  C:\Users\jisu8\AppData\Local\Temp\ccieva3z.s 			page 75


 2238              		.syntax unified
 2239              		.thumb
 2240              		.thumb_func
 2242              	BSP_LCD_DisplayChar:
 2243              	.LVL168:
 2244              	.LFB172:
 660:Core/Src/stm32746g_discovery_lcd.c ****   DrawChar(Xpos, Ypos, &DrawProp[ActiveLayer].pFont->table[(Ascii-' ') *\
 2245              		.loc 1 660 1 is_stmt 1 view -0
 2246              		.cfi_startproc
 2247              		@ args = 0, pretend = 0, frame = 0
 2248              		@ frame_needed = 0, uses_anonymous_args = 0
 660:Core/Src/stm32746g_discovery_lcd.c ****   DrawChar(Xpos, Ypos, &DrawProp[ActiveLayer].pFont->table[(Ascii-' ') *\
 2249              		.loc 1 660 1 is_stmt 0 view .LVU469
 2250 0000 38B5     		push	{r3, r4, r5, lr}
 2251              	.LCFI42:
 2252              		.cfi_def_cfa_offset 16
 2253              		.cfi_offset 3, -16
 2254              		.cfi_offset 4, -12
 2255              		.cfi_offset 5, -8
 2256              		.cfi_offset 14, -4
 661:Core/Src/stm32746g_discovery_lcd.c ****     DrawProp[ActiveLayer].pFont->Height * ((DrawProp[ActiveLayer].pFont->Width + 7) / 8)]);
 2257              		.loc 1 661 3 is_stmt 1 view .LVU470
 661:Core/Src/stm32746g_discovery_lcd.c ****     DrawProp[ActiveLayer].pFont->Height * ((DrawProp[ActiveLayer].pFont->Width + 7) / 8)]);
 2258              		.loc 1 661 46 is_stmt 0 view .LVU471
 2259 0002 0B4B     		ldr	r3, .L171
 2260 0004 1B68     		ldr	r3, [r3]
 2261 0006 03EB4303 		add	r3, r3, r3, lsl #1
 2262 000a 0A4C     		ldr	r4, .L171+4
 2263 000c 04EB8303 		add	r3, r4, r3, lsl #2
 2264 0010 9C68     		ldr	r4, [r3, #8]
 661:Core/Src/stm32746g_discovery_lcd.c ****     DrawProp[ActiveLayer].pFont->Height * ((DrawProp[ActiveLayer].pFont->Width + 7) / 8)]);
 2265              		.loc 1 661 52 view .LVU472
 2266 0012 2568     		ldr	r5, [r4]
 661:Core/Src/stm32746g_discovery_lcd.c ****     DrawProp[ActiveLayer].pFont->Height * ((DrawProp[ActiveLayer].pFont->Width + 7) / 8)]);
 2267              		.loc 1 661 66 view .LVU473
 2268 0014 A2F12003 		sub	r3, r2, #32
 662:Core/Src/stm32746g_discovery_lcd.c **** }
 2269              		.loc 1 662 32 view .LVU474
 2270 0018 E288     		ldrh	r2, [r4, #6]
 2271              	.LVL169:
 661:Core/Src/stm32746g_discovery_lcd.c ****     DrawProp[ActiveLayer].pFont->Height * ((DrawProp[ActiveLayer].pFont->Width + 7) / 8)]);
 2272              		.loc 1 661 72 view .LVU475
 2273 001a 02FB03F3 		mul	r3, r2, r3
 662:Core/Src/stm32746g_discovery_lcd.c **** }
 2274              		.loc 1 662 72 view .LVU476
 2275 001e A288     		ldrh	r2, [r4, #4]
 662:Core/Src/stm32746g_discovery_lcd.c **** }
 2276              		.loc 1 662 85 view .LVU477
 2277 0020 0732     		adds	r2, r2, #7
 2278 0022 D210     		asrs	r2, r2, #3
 661:Core/Src/stm32746g_discovery_lcd.c ****     DrawProp[ActiveLayer].pFont->Height * ((DrawProp[ActiveLayer].pFont->Width + 7) / 8)]);
 2279              		.loc 1 661 3 view .LVU478
 2280 0024 02FB0352 		mla	r2, r2, r3, r5
 2281 0028 FFF7FEFF 		bl	DrawChar
 2282              	.LVL170:
 663:Core/Src/stm32746g_discovery_lcd.c **** 
 2283              		.loc 1 663 1 view .LVU479
ARM GAS  C:\Users\jisu8\AppData\Local\Temp\ccieva3z.s 			page 76


 2284 002c 38BD     		pop	{r3, r4, r5, pc}
 2285              	.L172:
 2286 002e 00BF     		.align	2
 2287              	.L171:
 2288 0030 00000000 		.word	.LANCHOR2
 2289 0034 00000000 		.word	.LANCHOR3
 2290              		.cfi_endproc
 2291              	.LFE172:
 2293              		.section	.text.BSP_LCD_DisplayStringAt,"ax",%progbits
 2294              		.align	1
 2295              		.global	BSP_LCD_DisplayStringAt
 2296              		.syntax unified
 2297              		.thumb
 2298              		.thumb_func
 2300              	BSP_LCD_DisplayStringAt:
 2301              	.LVL171:
 2302              	.LFB173:
 678:Core/Src/stm32746g_discovery_lcd.c ****   uint16_t ref_column = 1, i = 0;
 2303              		.loc 1 678 1 is_stmt 1 view -0
 2304              		.cfi_startproc
 2305              		@ args = 0, pretend = 0, frame = 0
 2306              		@ frame_needed = 0, uses_anonymous_args = 0
 678:Core/Src/stm32746g_discovery_lcd.c ****   uint16_t ref_column = 1, i = 0;
 2307              		.loc 1 678 1 is_stmt 0 view .LVU481
 2308 0000 2DE9F041 		push	{r4, r5, r6, r7, r8, lr}
 2309              	.LCFI43:
 2310              		.cfi_def_cfa_offset 24
 2311              		.cfi_offset 4, -24
 2312              		.cfi_offset 5, -20
 2313              		.cfi_offset 6, -16
 2314              		.cfi_offset 7, -12
 2315              		.cfi_offset 8, -8
 2316              		.cfi_offset 14, -4
 2317 0004 0446     		mov	r4, r0
 2318 0006 0E46     		mov	r6, r1
 2319 0008 1546     		mov	r5, r2
 2320 000a 9846     		mov	r8, r3
 679:Core/Src/stm32746g_discovery_lcd.c ****   uint32_t size = 0, xsize = 0; 
 2321              		.loc 1 679 3 is_stmt 1 view .LVU482
 2322              	.LVL172:
 680:Core/Src/stm32746g_discovery_lcd.c ****   uint8_t  *ptr = Text;
 2323              		.loc 1 680 3 view .LVU483
 681:Core/Src/stm32746g_discovery_lcd.c ****   
 2324              		.loc 1 681 3 view .LVU484
 684:Core/Src/stm32746g_discovery_lcd.c ****   
 2325              		.loc 1 684 3 view .LVU485
 681:Core/Src/stm32746g_discovery_lcd.c ****   
 2326              		.loc 1 681 13 is_stmt 0 view .LVU486
 2327 000c 9446     		mov	ip, r2
 680:Core/Src/stm32746g_discovery_lcd.c ****   uint8_t  *ptr = Text;
 2328              		.loc 1 680 12 view .LVU487
 2329 000e 0027     		movs	r7, #0
 684:Core/Src/stm32746g_discovery_lcd.c ****   
 2330              		.loc 1 684 9 view .LVU488
 2331 0010 00E0     		b	.L174
 2332              	.LVL173:
 2333              	.L175:
ARM GAS  C:\Users\jisu8\AppData\Local\Temp\ccieva3z.s 			page 77


 684:Core/Src/stm32746g_discovery_lcd.c ****   
 2334              		.loc 1 684 18 is_stmt 1 discriminator 2 view .LVU489
 684:Core/Src/stm32746g_discovery_lcd.c ****   
 2335              		.loc 1 684 23 is_stmt 0 discriminator 2 view .LVU490
 2336 0012 0137     		adds	r7, r7, #1
 2337              	.LVL174:
 2338              	.L174:
 684:Core/Src/stm32746g_discovery_lcd.c ****   
 2339              		.loc 1 684 9 is_stmt 1 discriminator 1 view .LVU491
 684:Core/Src/stm32746g_discovery_lcd.c ****   
 2340              		.loc 1 684 10 is_stmt 0 discriminator 1 view .LVU492
 2341 0014 1CF8012B 		ldrb	r2, [ip], #1	@ zero_extendqisi2
 2342              	.LVL175:
 684:Core/Src/stm32746g_discovery_lcd.c ****   
 2343              		.loc 1 684 9 discriminator 1 view .LVU493
 2344 0018 002A     		cmp	r2, #0
 2345 001a FAD1     		bne	.L175
 687:Core/Src/stm32746g_discovery_lcd.c ****   
 2346              		.loc 1 687 3 is_stmt 1 view .LVU494
 687:Core/Src/stm32746g_discovery_lcd.c ****   
 2347              		.loc 1 687 12 is_stmt 0 view .LVU495
 2348 001c FFF7FEFF 		bl	BSP_LCD_GetXSize
 2349              	.LVL176:
 687:Core/Src/stm32746g_discovery_lcd.c ****   
 2350              		.loc 1 687 52 view .LVU496
 2351 0020 2A4B     		ldr	r3, .L186
 2352 0022 1B68     		ldr	r3, [r3]
 2353 0024 03EB4303 		add	r3, r3, r3, lsl #1
 2354 0028 294A     		ldr	r2, .L186+4
 2355 002a 02EB8303 		add	r3, r2, r3, lsl #2
 2356 002e 9B68     		ldr	r3, [r3, #8]
 687:Core/Src/stm32746g_discovery_lcd.c ****   
 2357              		.loc 1 687 58 view .LVU497
 2358 0030 9B88     		ldrh	r3, [r3, #4]
 687:Core/Src/stm32746g_discovery_lcd.c ****   
 2359              		.loc 1 687 9 view .LVU498
 2360 0032 B0FBF3F0 		udiv	r0, r0, r3
 2361              	.LVL177:
 689:Core/Src/stm32746g_discovery_lcd.c ****   {
 2362              		.loc 1 689 3 is_stmt 1 view .LVU499
 2363 0036 B8F1010F 		cmp	r8, #1
 2364 003a 07D0     		beq	.L176
 2365 003c B8F1020F 		cmp	r8, #2
 2366 0040 0CD0     		beq	.L177
 2367              	.LVL178:
 2368              	.L178:
 714:Core/Src/stm32746g_discovery_lcd.c ****   {
 2369              		.loc 1 714 3 view .LVU500
 714:Core/Src/stm32746g_discovery_lcd.c ****   {
 2370              		.loc 1 714 24 is_stmt 0 view .LVU501
 2371 0042 23B2     		sxth	r3, r4
 714:Core/Src/stm32746g_discovery_lcd.c ****   {
 2372              		.loc 1 714 6 view .LVU502
 2373 0044 002B     		cmp	r3, #0
 2374 0046 3EDD     		ble	.L185
 2375              	.LVL179:
 2376              	.L179:
ARM GAS  C:\Users\jisu8\AppData\Local\Temp\ccieva3z.s 			page 78


 716:Core/Src/stm32746g_discovery_lcd.c ****   }
 2377              		.loc 1 716 16 view .LVU503
 2378 0048 0027     		movs	r7, #0
 2379              	.LVL180:
 716:Core/Src/stm32746g_discovery_lcd.c ****   }
 2380              		.loc 1 716 16 view .LVU504
 2381 004a 21E0     		b	.L181
 2382              	.LVL181:
 2383              	.L176:
 693:Core/Src/stm32746g_discovery_lcd.c ****       break;
 2384              		.loc 1 693 7 is_stmt 1 view .LVU505
 693:Core/Src/stm32746g_discovery_lcd.c ****       break;
 2385              		.loc 1 693 35 is_stmt 0 view .LVU506
 2386 004c C01B     		subs	r0, r0, r7
 2387              	.LVL182:
 693:Core/Src/stm32746g_discovery_lcd.c ****       break;
 2388              		.loc 1 693 42 view .LVU507
 2389 004e 00FB03F3 		mul	r3, r0, r3
 693:Core/Src/stm32746g_discovery_lcd.c ****       break;
 2390              		.loc 1 693 25 view .LVU508
 2391 0052 C3F34F03 		ubfx	r3, r3, #1, #16
 693:Core/Src/stm32746g_discovery_lcd.c ****       break;
 2392              		.loc 1 693 18 view .LVU509
 2393 0056 1C44     		add	r4, r4, r3
 2394 0058 A4B2     		uxth	r4, r4
 2395              	.LVL183:
 694:Core/Src/stm32746g_discovery_lcd.c ****     }
 2396              		.loc 1 694 7 is_stmt 1 view .LVU510
 2397 005a F2E7     		b	.L178
 2398              	.LVL184:
 2399              	.L177:
 703:Core/Src/stm32746g_discovery_lcd.c ****       break;
 2400              		.loc 1 703 7 view .LVU511
 703:Core/Src/stm32746g_discovery_lcd.c ****       break;
 2401              		.loc 1 703 37 is_stmt 0 view .LVU512
 2402 005c C01B     		subs	r0, r0, r7
 2403              	.LVL185:
 703:Core/Src/stm32746g_discovery_lcd.c ****       break;
 2404              		.loc 1 703 27 view .LVU513
 2405 005e 10FB03F3 		smulbb	r3, r0, r3
 2406 0062 9BB2     		uxth	r3, r3
 703:Core/Src/stm32746g_discovery_lcd.c ****       break;
 2407              		.loc 1 703 18 view .LVU514
 2408 0064 1C1B     		subs	r4, r3, r4
 2409 0066 A4B2     		uxth	r4, r4
 2410              	.LVL186:
 704:Core/Src/stm32746g_discovery_lcd.c ****     }    
 2411              		.loc 1 704 7 is_stmt 1 view .LVU515
 2412 0068 EBE7     		b	.L178
 2413              	.LVL187:
 2414              	.L182:
 723:Core/Src/stm32746g_discovery_lcd.c ****     /* Decrement the column position by 16 */
 2415              		.loc 1 723 5 view .LVU516
 2416 006a 4246     		mov	r2, r8
 2417 006c 3146     		mov	r1, r6
 2418 006e 2046     		mov	r0, r4
 2419 0070 FFF7FEFF 		bl	BSP_LCD_DisplayChar
ARM GAS  C:\Users\jisu8\AppData\Local\Temp\ccieva3z.s 			page 79


 2420              	.LVL188:
 725:Core/Src/stm32746g_discovery_lcd.c ****     /* Point on the next character */
 2421              		.loc 1 725 5 view .LVU517
 725:Core/Src/stm32746g_discovery_lcd.c ****     /* Point on the next character */
 2422              		.loc 1 725 40 is_stmt 0 view .LVU518
 2423 0074 154B     		ldr	r3, .L186
 2424 0076 1B68     		ldr	r3, [r3]
 2425 0078 03EB4303 		add	r3, r3, r3, lsl #1
 2426 007c 144A     		ldr	r2, .L186+4
 2427 007e 02EB8303 		add	r3, r2, r3, lsl #2
 2428 0082 9B68     		ldr	r3, [r3, #8]
 725:Core/Src/stm32746g_discovery_lcd.c ****     /* Point on the next character */
 2429              		.loc 1 725 46 view .LVU519
 2430 0084 9888     		ldrh	r0, [r3, #4]
 725:Core/Src/stm32746g_discovery_lcd.c ****     /* Point on the next character */
 2431              		.loc 1 725 16 view .LVU520
 2432 0086 0444     		add	r4, r4, r0
 2433              	.LVL189:
 725:Core/Src/stm32746g_discovery_lcd.c ****     /* Point on the next character */
 2434              		.loc 1 725 16 view .LVU521
 2435 0088 A4B2     		uxth	r4, r4
 2436              	.LVL190:
 727:Core/Src/stm32746g_discovery_lcd.c ****     i++;
 2437              		.loc 1 727 5 is_stmt 1 view .LVU522
 727:Core/Src/stm32746g_discovery_lcd.c ****     i++;
 2438              		.loc 1 727 9 is_stmt 0 view .LVU523
 2439 008a 0135     		adds	r5, r5, #1
 2440              	.LVL191:
 728:Core/Src/stm32746g_discovery_lcd.c ****   }  
 2441              		.loc 1 728 5 is_stmt 1 view .LVU524
 728:Core/Src/stm32746g_discovery_lcd.c ****   }  
 2442              		.loc 1 728 6 is_stmt 0 view .LVU525
 2443 008c 0137     		adds	r7, r7, #1
 2444              	.LVL192:
 728:Core/Src/stm32746g_discovery_lcd.c ****   }  
 2445              		.loc 1 728 6 view .LVU526
 2446 008e BFB2     		uxth	r7, r7
 2447              	.LVL193:
 2448              	.L181:
 720:Core/Src/stm32746g_discovery_lcd.c ****   {
 2449              		.loc 1 720 9 is_stmt 1 view .LVU527
 720:Core/Src/stm32746g_discovery_lcd.c ****   {
 2450              		.loc 1 720 11 is_stmt 0 view .LVU528
 2451 0090 95F80080 		ldrb	r8, [r5]	@ zero_extendqisi2
 720:Core/Src/stm32746g_discovery_lcd.c ****   {
 2452              		.loc 1 720 28 view .LVU529
 2453 0094 FFF7FEFF 		bl	BSP_LCD_GetXSize
 2454              	.LVL194:
 720:Core/Src/stm32746g_discovery_lcd.c ****   {
 2455              		.loc 1 720 73 view .LVU530
 2456 0098 0C4B     		ldr	r3, .L186
 2457 009a 1B68     		ldr	r3, [r3]
 2458 009c 03EB4303 		add	r3, r3, r3, lsl #1
 2459 00a0 0B4A     		ldr	r2, .L186+4
 2460 00a2 02EB8303 		add	r3, r2, r3, lsl #2
 2461 00a6 9B68     		ldr	r3, [r3, #8]
 720:Core/Src/stm32746g_discovery_lcd.c ****   {
ARM GAS  C:\Users\jisu8\AppData\Local\Temp\ccieva3z.s 			page 80


 2462              		.loc 1 720 79 view .LVU531
 2463 00a8 9A88     		ldrh	r2, [r3, #4]
 720:Core/Src/stm32746g_discovery_lcd.c ****   {
 2464              		.loc 1 720 47 view .LVU532
 2465 00aa 02FB1703 		mls	r3, r2, r7, r0
 720:Core/Src/stm32746g_discovery_lcd.c ****   {
 2466              		.loc 1 720 89 view .LVU533
 2467 00ae 9BB2     		uxth	r3, r3
 720:Core/Src/stm32746g_discovery_lcd.c ****   {
 2468              		.loc 1 720 23 view .LVU534
 2469 00b0 B8F10001 		subs	r1, r8, #0
 2470 00b4 18BF     		it	ne
 2471 00b6 0121     		movne	r1, #1
 2472 00b8 9342     		cmp	r3, r2
 2473 00ba 38BF     		it	cc
 2474 00bc 0021     		movcc	r1, #0
 720:Core/Src/stm32746g_discovery_lcd.c ****   {
 2475              		.loc 1 720 9 view .LVU535
 2476 00be 0029     		cmp	r1, #0
 2477 00c0 D3D1     		bne	.L182
 730:Core/Src/stm32746g_discovery_lcd.c **** 
 2478              		.loc 1 730 1 view .LVU536
 2479 00c2 BDE8F081 		pop	{r4, r5, r6, r7, r8, pc}
 2480              	.LVL195:
 2481              	.L185:
 716:Core/Src/stm32746g_discovery_lcd.c ****   }
 2482              		.loc 1 716 16 view .LVU537
 2483 00c6 0124     		movs	r4, #1
 2484              	.LVL196:
 716:Core/Src/stm32746g_discovery_lcd.c ****   }
 2485              		.loc 1 716 16 view .LVU538
 2486 00c8 BEE7     		b	.L179
 2487              	.L187:
 2488 00ca 00BF     		.align	2
 2489              	.L186:
 2490 00cc 00000000 		.word	.LANCHOR2
 2491 00d0 00000000 		.word	.LANCHOR3
 2492              		.cfi_endproc
 2493              	.LFE173:
 2495              		.section	.text.BSP_LCD_DisplayStringAtLine,"ax",%progbits
 2496              		.align	1
 2497              		.global	BSP_LCD_DisplayStringAtLine
 2498              		.syntax unified
 2499              		.thumb
 2500              		.thumb_func
 2502              	BSP_LCD_DisplayStringAtLine:
 2503              	.LVL197:
 2504              	.LFB174:
 739:Core/Src/stm32746g_discovery_lcd.c ****   BSP_LCD_DisplayStringAt(0, LINE(Line), ptr, LEFT_MODE);
 2505              		.loc 1 739 1 is_stmt 1 view -0
 2506              		.cfi_startproc
 2507              		@ args = 0, pretend = 0, frame = 0
 2508              		@ frame_needed = 0, uses_anonymous_args = 0
 739:Core/Src/stm32746g_discovery_lcd.c ****   BSP_LCD_DisplayStringAt(0, LINE(Line), ptr, LEFT_MODE);
 2509              		.loc 1 739 1 is_stmt 0 view .LVU540
 2510 0000 38B5     		push	{r3, r4, r5, lr}
 2511              	.LCFI44:
ARM GAS  C:\Users\jisu8\AppData\Local\Temp\ccieva3z.s 			page 81


 2512              		.cfi_def_cfa_offset 16
 2513              		.cfi_offset 3, -16
 2514              		.cfi_offset 4, -12
 2515              		.cfi_offset 5, -8
 2516              		.cfi_offset 14, -4
 2517 0002 0546     		mov	r5, r0
 2518 0004 0C46     		mov	r4, r1
 740:Core/Src/stm32746g_discovery_lcd.c **** }
 2519              		.loc 1 740 3 is_stmt 1 view .LVU541
 740:Core/Src/stm32746g_discovery_lcd.c **** }
 2520              		.loc 1 740 30 is_stmt 0 view .LVU542
 2521 0006 FFF7FEFF 		bl	BSP_LCD_GetFont
 2522              	.LVL198:
 740:Core/Src/stm32746g_discovery_lcd.c **** }
 2523              		.loc 1 740 30 view .LVU543
 2524 000a C388     		ldrh	r3, [r0, #6]
 740:Core/Src/stm32746g_discovery_lcd.c **** }
 2525              		.loc 1 740 3 view .LVU544
 2526 000c 13FB05F1 		smulbb	r1, r3, r5
 2527 0010 0323     		movs	r3, #3
 2528 0012 2246     		mov	r2, r4
 2529 0014 89B2     		uxth	r1, r1
 2530 0016 0020     		movs	r0, #0
 2531 0018 FFF7FEFF 		bl	BSP_LCD_DisplayStringAt
 2532              	.LVL199:
 741:Core/Src/stm32746g_discovery_lcd.c **** 
 2533              		.loc 1 741 1 view .LVU545
 2534 001c 38BD     		pop	{r3, r4, r5, pc}
 741:Core/Src/stm32746g_discovery_lcd.c **** 
 2535              		.loc 1 741 1 view .LVU546
 2536              		.cfi_endproc
 2537              	.LFE174:
 2539              		.section	.text.BSP_LCD_DrawLine,"ax",%progbits
 2540              		.align	1
 2541              		.global	BSP_LCD_DrawLine
 2542              		.syntax unified
 2543              		.thumb
 2544              		.thumb_func
 2546              	BSP_LCD_DrawLine:
 2547              	.LVL200:
 2548              	.LFB177:
 802:Core/Src/stm32746g_discovery_lcd.c ****   int16_t deltax = 0, deltay = 0, x = 0, y = 0, xinc1 = 0, xinc2 = 0, 
 2549              		.loc 1 802 1 is_stmt 1 view -0
 2550              		.cfi_startproc
 2551              		@ args = 0, pretend = 0, frame = 16
 2552              		@ frame_needed = 0, uses_anonymous_args = 0
 802:Core/Src/stm32746g_discovery_lcd.c ****   int16_t deltax = 0, deltay = 0, x = 0, y = 0, xinc1 = 0, xinc2 = 0, 
 2553              		.loc 1 802 1 is_stmt 0 view .LVU548
 2554 0000 2DE9F04F 		push	{r4, r5, r6, r7, r8, r9, r10, fp, lr}
 2555              	.LCFI45:
 2556              		.cfi_def_cfa_offset 36
 2557              		.cfi_offset 4, -36
 2558              		.cfi_offset 5, -32
 2559              		.cfi_offset 6, -28
 2560              		.cfi_offset 7, -24
 2561              		.cfi_offset 8, -20
 2562              		.cfi_offset 9, -16
ARM GAS  C:\Users\jisu8\AppData\Local\Temp\ccieva3z.s 			page 82


 2563              		.cfi_offset 10, -12
 2564              		.cfi_offset 11, -8
 2565              		.cfi_offset 14, -4
 2566 0004 85B0     		sub	sp, sp, #20
 2567              	.LCFI46:
 2568              		.cfi_def_cfa_offset 56
 803:Core/Src/stm32746g_discovery_lcd.c ****   yinc1 = 0, yinc2 = 0, den = 0, num = 0, num_add = 0, num_pixels = 0, 
 2569              		.loc 1 803 3 is_stmt 1 view .LVU549
 2570              	.LVL201:
 807:Core/Src/stm32746g_discovery_lcd.c ****   deltay = ABS(y2 - y1);        /* The difference between the y's */
 2571              		.loc 1 807 3 view .LVU550
 807:Core/Src/stm32746g_discovery_lcd.c ****   deltay = ABS(y2 - y1);        /* The difference between the y's */
 2572              		.loc 1 807 12 is_stmt 0 view .LVU551
 2573 0006 A2EB000A 		sub	r10, r2, r0
 2574 000a BAF1000F 		cmp	r10, #0
 2575 000e B8BF     		it	lt
 2576 0010 CAF1000A 		rsblt	r10, r10, #0
 807:Core/Src/stm32746g_discovery_lcd.c ****   deltay = ABS(y2 - y1);        /* The difference between the y's */
 2577              		.loc 1 807 10 view .LVU552
 2578 0014 0FFA8AFA 		sxth	r10, r10
 2579              	.LVL202:
 808:Core/Src/stm32746g_discovery_lcd.c ****   x = x1;                       /* Start x off at the first pixel */
 2580              		.loc 1 808 3 is_stmt 1 view .LVU553
 808:Core/Src/stm32746g_discovery_lcd.c ****   x = x1;                       /* Start x off at the first pixel */
 2581              		.loc 1 808 12 is_stmt 0 view .LVU554
 2582 0018 A3EB010B 		sub	fp, r3, r1
 2583 001c BBF1000F 		cmp	fp, #0
 2584 0020 B8BF     		it	lt
 2585 0022 CBF1000B 		rsblt	fp, fp, #0
 808:Core/Src/stm32746g_discovery_lcd.c ****   x = x1;                       /* Start x off at the first pixel */
 2586              		.loc 1 808 10 view .LVU555
 2587 0026 0FFA8BFB 		sxth	fp, fp
 2588              	.LVL203:
 809:Core/Src/stm32746g_discovery_lcd.c ****   y = y1;                       /* Start y off at the first pixel */
 2589              		.loc 1 809 3 is_stmt 1 view .LVU556
 809:Core/Src/stm32746g_discovery_lcd.c ****   y = y1;                       /* Start y off at the first pixel */
 2590              		.loc 1 809 5 is_stmt 0 view .LVU557
 2591 002a 04B2     		sxth	r4, r0
 2592              	.LVL204:
 810:Core/Src/stm32746g_discovery_lcd.c ****   
 2593              		.loc 1 810 3 is_stmt 1 view .LVU558
 810:Core/Src/stm32746g_discovery_lcd.c ****   
 2594              		.loc 1 810 5 is_stmt 0 view .LVU559
 2595 002c 0EB2     		sxth	r6, r1
 2596              	.LVL205:
 812:Core/Src/stm32746g_discovery_lcd.c ****   {
 2597              		.loc 1 812 3 is_stmt 1 view .LVU560
 812:Core/Src/stm32746g_discovery_lcd.c ****   {
 2598              		.loc 1 812 6 is_stmt 0 view .LVU561
 2599 002e 8242     		cmp	r2, r0
 2600 0030 15D3     		bcc	.L200
 814:Core/Src/stm32746g_discovery_lcd.c ****     xinc2 = 1;
 2601              		.loc 1 814 11 view .LVU562
 2602 0032 0122     		movs	r2, #1
 2603              	.LVL206:
 814:Core/Src/stm32746g_discovery_lcd.c ****     xinc2 = 1;
 2604              		.loc 1 814 11 view .LVU563
ARM GAS  C:\Users\jisu8\AppData\Local\Temp\ccieva3z.s 			page 83


 2605 0034 0292     		str	r2, [sp, #8]
 2606              	.L191:
 2607              	.LVL207:
 823:Core/Src/stm32746g_discovery_lcd.c ****   {
 2608              		.loc 1 823 3 is_stmt 1 view .LVU564
 823:Core/Src/stm32746g_discovery_lcd.c ****   {
 2609              		.loc 1 823 6 is_stmt 0 view .LVU565
 2610 0036 8B42     		cmp	r3, r1
 2611 0038 15D3     		bcc	.L201
 825:Core/Src/stm32746g_discovery_lcd.c ****     yinc2 = 1;
 2612              		.loc 1 825 11 view .LVU566
 2613 003a 0123     		movs	r3, #1
 2614              	.LVL208:
 825:Core/Src/stm32746g_discovery_lcd.c ****     yinc2 = 1;
 2615              		.loc 1 825 11 view .LVU567
 2616 003c 0393     		str	r3, [sp, #12]
 2617              	.L192:
 2618              	.LVL209:
 834:Core/Src/stm32746g_discovery_lcd.c ****   {
 2619              		.loc 1 834 3 is_stmt 1 view .LVU568
 834:Core/Src/stm32746g_discovery_lcd.c ****   {
 2620              		.loc 1 834 6 is_stmt 0 view .LVU569
 2621 003e DA45     		cmp	r10, fp
 2622 0040 18DB     		blt	.L193
 836:Core/Src/stm32746g_discovery_lcd.c ****     yinc2 = 0;                  /* Don't change the y for every iteration */
 2623              		.loc 1 836 5 is_stmt 1 view .LVU570
 2624              	.LVL210:
 837:Core/Src/stm32746g_discovery_lcd.c ****     den = deltax;
 2625              		.loc 1 837 5 view .LVU571
 838:Core/Src/stm32746g_discovery_lcd.c ****     num = deltax / 2;
 2626              		.loc 1 838 5 view .LVU572
 839:Core/Src/stm32746g_discovery_lcd.c ****     num_add = deltay;
 2627              		.loc 1 839 5 view .LVU573
 839:Core/Src/stm32746g_discovery_lcd.c ****     num_add = deltay;
 2628              		.loc 1 839 9 is_stmt 0 view .LVU574
 2629 0042 D046     		mov	r8, r10
 2630 0044 BAF1000F 		cmp	r10, #0
 2631 0048 11DB     		blt	.L203
 2632              	.L194:
 839:Core/Src/stm32746g_discovery_lcd.c ****     num_add = deltay;
 2633              		.loc 1 839 9 view .LVU575
 2634 004a 48F34F08 		sbfx	r8, r8, #1, #16
 2635              	.LVL211:
 840:Core/Src/stm32746g_discovery_lcd.c ****     num_pixels = deltax;         /* There are more x-values than y-values */
 2636              		.loc 1 840 5 is_stmt 1 view .LVU576
 841:Core/Src/stm32746g_discovery_lcd.c ****   }
 2637              		.loc 1 841 5 view .LVU577
 841:Core/Src/stm32746g_discovery_lcd.c ****   }
 2638              		.loc 1 841 5 is_stmt 0 view .LVU578
 2639 004e 029B     		ldr	r3, [sp, #8]
 2640 0050 0093     		str	r3, [sp]
 837:Core/Src/stm32746g_discovery_lcd.c ****     den = deltax;
 2641              		.loc 1 837 11 view .LVU579
 2642 0052 0023     		movs	r3, #0
 2643 0054 0293     		str	r3, [sp, #8]
 2644              	.LVL212:
 836:Core/Src/stm32746g_discovery_lcd.c ****     yinc2 = 0;                  /* Don't change the y for every iteration */
ARM GAS  C:\Users\jisu8\AppData\Local\Temp\ccieva3z.s 			page 84


 2645              		.loc 1 836 11 view .LVU580
 2646 0056 0193     		str	r3, [sp, #4]
 2647              	.LVL213:
 2648              	.L195:
 853:Core/Src/stm32746g_discovery_lcd.c ****   {
 2649              		.loc 1 853 3 is_stmt 1 view .LVU581
 853:Core/Src/stm32746g_discovery_lcd.c ****   {
 2650              		.loc 1 853 17 is_stmt 0 view .LVU582
 2651 0058 4FF00009 		mov	r9, #0
 853:Core/Src/stm32746g_discovery_lcd.c ****   {
 2652              		.loc 1 853 3 view .LVU583
 2653 005c 26E0     		b	.L197
 2654              	.LVL214:
 2655              	.L200:
 819:Core/Src/stm32746g_discovery_lcd.c ****     xinc2 = -1;
 2656              		.loc 1 819 11 view .LVU584
 2657 005e 4FF0FF32 		mov	r2, #-1
 2658              	.LVL215:
 819:Core/Src/stm32746g_discovery_lcd.c ****     xinc2 = -1;
 2659              		.loc 1 819 11 view .LVU585
 2660 0062 0292     		str	r2, [sp, #8]
 2661 0064 E7E7     		b	.L191
 2662              	.LVL216:
 2663              	.L201:
 830:Core/Src/stm32746g_discovery_lcd.c ****     yinc2 = -1;
 2664              		.loc 1 830 11 view .LVU586
 2665 0066 4FF0FF33 		mov	r3, #-1
 2666              	.LVL217:
 830:Core/Src/stm32746g_discovery_lcd.c ****     yinc2 = -1;
 2667              		.loc 1 830 11 view .LVU587
 2668 006a 0393     		str	r3, [sp, #12]
 2669 006c E7E7     		b	.L192
 2670              	.LVL218:
 2671              	.L203:
 839:Core/Src/stm32746g_discovery_lcd.c ****     num_add = deltay;
 2672              		.loc 1 839 9 view .LVU588
 2673 006e 0AF10108 		add	r8, r10, #1
 2674 0072 EAE7     		b	.L194
 2675              	.LVL219:
 2676              	.L193:
 845:Core/Src/stm32746g_discovery_lcd.c ****     yinc1 = 0;                  /* Don't change the y when numerator >= denominator */
 2677              		.loc 1 845 5 is_stmt 1 view .LVU589
 846:Core/Src/stm32746g_discovery_lcd.c ****     den = deltay;
 2678              		.loc 1 846 5 view .LVU590
 847:Core/Src/stm32746g_discovery_lcd.c ****     num = deltay / 2;
 2679              		.loc 1 847 5 view .LVU591
 848:Core/Src/stm32746g_discovery_lcd.c ****     num_add = deltax;
 2680              		.loc 1 848 5 view .LVU592
 848:Core/Src/stm32746g_discovery_lcd.c ****     num_add = deltax;
 2681              		.loc 1 848 9 is_stmt 0 view .LVU593
 2682 0074 D846     		mov	r8, fp
 2683 0076 BBF1000F 		cmp	fp, #0
 2684 007a 0ADB     		blt	.L204
 2685              	.L196:
 848:Core/Src/stm32746g_discovery_lcd.c ****     num_add = deltax;
 2686              		.loc 1 848 9 view .LVU594
 2687 007c 48F34F08 		sbfx	r8, r8, #1, #16
ARM GAS  C:\Users\jisu8\AppData\Local\Temp\ccieva3z.s 			page 85


 2688              	.LVL220:
 849:Core/Src/stm32746g_discovery_lcd.c ****     num_pixels = deltay;         /* There are more y-values than x-values */
 2689              		.loc 1 849 5 is_stmt 1 view .LVU595
 850:Core/Src/stm32746g_discovery_lcd.c ****   }
 2690              		.loc 1 850 5 view .LVU596
 848:Core/Src/stm32746g_discovery_lcd.c ****     num_add = deltax;
 2691              		.loc 1 848 9 is_stmt 0 view .LVU597
 2692 0080 5346     		mov	r3, r10
 847:Core/Src/stm32746g_discovery_lcd.c ****     num = deltay / 2;
 2693              		.loc 1 847 9 view .LVU598
 2694 0082 DA46     		mov	r10, fp
 2695              	.LVL221:
 849:Core/Src/stm32746g_discovery_lcd.c ****     num_pixels = deltay;         /* There are more y-values than x-values */
 2696              		.loc 1 849 13 view .LVU599
 2697 0084 9B46     		mov	fp, r3
 2698              	.LVL222:
 848:Core/Src/stm32746g_discovery_lcd.c ****     num_add = deltax;
 2699              		.loc 1 848 9 view .LVU600
 2700 0086 039B     		ldr	r3, [sp, #12]
 2701              	.LVL223:
 848:Core/Src/stm32746g_discovery_lcd.c ****     num_add = deltax;
 2702              		.loc 1 848 9 view .LVU601
 2703 0088 0193     		str	r3, [sp, #4]
 846:Core/Src/stm32746g_discovery_lcd.c ****     den = deltay;
 2704              		.loc 1 846 11 view .LVU602
 2705 008a 0023     		movs	r3, #0
 2706 008c 0393     		str	r3, [sp, #12]
 2707              	.LVL224:
 845:Core/Src/stm32746g_discovery_lcd.c ****     yinc1 = 0;                  /* Don't change the y when numerator >= denominator */
 2708              		.loc 1 845 11 view .LVU603
 2709 008e 0093     		str	r3, [sp]
 2710 0090 E2E7     		b	.L195
 2711              	.LVL225:
 2712              	.L204:
 848:Core/Src/stm32746g_discovery_lcd.c ****     num_add = deltax;
 2713              		.loc 1 848 9 view .LVU604
 2714 0092 0BF10108 		add	r8, fp, #1
 2715 0096 F1E7     		b	.L196
 2716              	.LVL226:
 2717              	.L198:
 863:Core/Src/stm32746g_discovery_lcd.c ****     y += yinc2;                               /* Change the y as appropriate */
 2718              		.loc 1 863 5 is_stmt 1 discriminator 2 view .LVU605
 863:Core/Src/stm32746g_discovery_lcd.c ****     y += yinc2;                               /* Change the y as appropriate */
 2719              		.loc 1 863 7 is_stmt 0 discriminator 2 view .LVU606
 2720 0098 009B     		ldr	r3, [sp]
 2721 009a 1C44     		add	r4, r4, r3
 2722              	.LVL227:
 863:Core/Src/stm32746g_discovery_lcd.c ****     y += yinc2;                               /* Change the y as appropriate */
 2723              		.loc 1 863 7 discriminator 2 view .LVU607
 2724 009c 24B2     		sxth	r4, r4
 2725              	.LVL228:
 864:Core/Src/stm32746g_discovery_lcd.c ****   }
 2726              		.loc 1 864 5 is_stmt 1 discriminator 2 view .LVU608
 864:Core/Src/stm32746g_discovery_lcd.c ****   }
 2727              		.loc 1 864 7 is_stmt 0 discriminator 2 view .LVU609
 2728 009e 019B     		ldr	r3, [sp, #4]
 2729 00a0 1E44     		add	r6, r6, r3
ARM GAS  C:\Users\jisu8\AppData\Local\Temp\ccieva3z.s 			page 86


 2730              	.LVL229:
 864:Core/Src/stm32746g_discovery_lcd.c ****   }
 2731              		.loc 1 864 7 discriminator 2 view .LVU610
 2732 00a2 36B2     		sxth	r6, r6
 2733              	.LVL230:
 853:Core/Src/stm32746g_discovery_lcd.c ****   {
 2734              		.loc 1 853 46 is_stmt 1 discriminator 2 view .LVU611
 853:Core/Src/stm32746g_discovery_lcd.c ****   {
 2735              		.loc 1 853 54 is_stmt 0 discriminator 2 view .LVU612
 2736 00a4 09F10109 		add	r9, r9, #1
 2737              	.LVL231:
 853:Core/Src/stm32746g_discovery_lcd.c ****   {
 2738              		.loc 1 853 54 discriminator 2 view .LVU613
 2739 00a8 0FFA89F9 		sxth	r9, r9
 2740              	.LVL232:
 2741              	.L197:
 853:Core/Src/stm32746g_discovery_lcd.c ****   {
 2742              		.loc 1 853 22 is_stmt 1 discriminator 1 view .LVU614
 853:Core/Src/stm32746g_discovery_lcd.c ****   {
 2743              		.loc 1 853 3 is_stmt 0 discriminator 1 view .LVU615
 2744 00ac CA45     		cmp	r10, r9
 2745 00ae 1EDB     		blt	.L205
 855:Core/Src/stm32746g_discovery_lcd.c ****     num += num_add;                            /* Increase the numerator by the top of the fraction
 2746              		.loc 1 855 5 is_stmt 1 view .LVU616
 2747 00b0 A7B2     		uxth	r7, r4
 2748 00b2 B5B2     		uxth	r5, r6
 2749 00b4 0F4B     		ldr	r3, .L206
 2750 00b6 1B68     		ldr	r3, [r3]
 2751 00b8 03EB4303 		add	r3, r3, r3, lsl #1
 2752 00bc 0E4A     		ldr	r2, .L206+4
 2753 00be 52F82320 		ldr	r2, [r2, r3, lsl #2]
 2754 00c2 2946     		mov	r1, r5
 2755 00c4 3846     		mov	r0, r7
 2756 00c6 FFF7FEFF 		bl	BSP_LCD_DrawPixel
 2757              	.LVL233:
 856:Core/Src/stm32746g_discovery_lcd.c ****     if (num >= den)                           /* Check if numerator >= denominator */
 2758              		.loc 1 856 5 view .LVU617
 856:Core/Src/stm32746g_discovery_lcd.c ****     if (num >= den)                           /* Check if numerator >= denominator */
 2759              		.loc 1 856 9 is_stmt 0 view .LVU618
 2760 00ca D844     		add	r8, r8, fp
 2761              	.LVL234:
 856:Core/Src/stm32746g_discovery_lcd.c ****     if (num >= den)                           /* Check if numerator >= denominator */
 2762              		.loc 1 856 9 view .LVU619
 2763 00cc 1FFA88F3 		uxth	r3, r8
 2764 00d0 0FFA88F8 		sxth	r8, r8
 2765              	.LVL235:
 857:Core/Src/stm32746g_discovery_lcd.c ****     {
 2766              		.loc 1 857 5 is_stmt 1 view .LVU620
 857:Core/Src/stm32746g_discovery_lcd.c ****     {
 2767              		.loc 1 857 8 is_stmt 0 view .LVU621
 2768 00d4 C245     		cmp	r10, r8
 2769 00d6 DFDC     		bgt	.L198
 859:Core/Src/stm32746g_discovery_lcd.c ****       x += xinc1;                             /* Change the x as appropriate */
 2770              		.loc 1 859 7 is_stmt 1 view .LVU622
 859:Core/Src/stm32746g_discovery_lcd.c ****       x += xinc1;                             /* Change the x as appropriate */
 2771              		.loc 1 859 11 is_stmt 0 view .LVU623
 2772 00d8 A3EB0A03 		sub	r3, r3, r10
ARM GAS  C:\Users\jisu8\AppData\Local\Temp\ccieva3z.s 			page 87


 2773 00dc 0FFA83F8 		sxth	r8, r3
 2774              	.LVL236:
 860:Core/Src/stm32746g_discovery_lcd.c ****       y += yinc1;                             /* Change the y as appropriate */
 2775              		.loc 1 860 7 is_stmt 1 view .LVU624
 860:Core/Src/stm32746g_discovery_lcd.c ****       y += yinc1;                             /* Change the y as appropriate */
 2776              		.loc 1 860 9 is_stmt 0 view .LVU625
 2777 00e0 029B     		ldr	r3, [sp, #8]
 2778 00e2 FC18     		adds	r4, r7, r3
 2779              	.LVL237:
 860:Core/Src/stm32746g_discovery_lcd.c ****       y += yinc1;                             /* Change the y as appropriate */
 2780              		.loc 1 860 9 view .LVU626
 2781 00e4 24B2     		sxth	r4, r4
 2782              	.LVL238:
 861:Core/Src/stm32746g_discovery_lcd.c ****     }
 2783              		.loc 1 861 7 is_stmt 1 view .LVU627
 861:Core/Src/stm32746g_discovery_lcd.c ****     }
 2784              		.loc 1 861 9 is_stmt 0 view .LVU628
 2785 00e6 039B     		ldr	r3, [sp, #12]
 2786 00e8 1D44     		add	r5, r5, r3
 2787 00ea 2EB2     		sxth	r6, r5
 2788              	.LVL239:
 861:Core/Src/stm32746g_discovery_lcd.c ****     }
 2789              		.loc 1 861 9 view .LVU629
 2790 00ec D4E7     		b	.L198
 2791              	.L205:
 866:Core/Src/stm32746g_discovery_lcd.c **** 
 2792              		.loc 1 866 1 view .LVU630
 2793 00ee 05B0     		add	sp, sp, #20
 2794              	.LCFI47:
 2795              		.cfi_def_cfa_offset 36
 2796              	.LVL240:
 866:Core/Src/stm32746g_discovery_lcd.c **** 
 2797              		.loc 1 866 1 view .LVU631
 2798              		@ sp needed
 2799 00f0 BDE8F08F 		pop	{r4, r5, r6, r7, r8, r9, r10, fp, pc}
 2800              	.LVL241:
 2801              	.L207:
 866:Core/Src/stm32746g_discovery_lcd.c **** 
 2802              		.loc 1 866 1 view .LVU632
 2803              		.align	2
 2804              	.L206:
 2805 00f4 00000000 		.word	.LANCHOR2
 2806 00f8 00000000 		.word	.LANCHOR3
 2807              		.cfi_endproc
 2808              	.LFE177:
 2810              		.section	.text.BSP_LCD_DrawPolygon,"ax",%progbits
 2811              		.align	1
 2812              		.global	BSP_LCD_DrawPolygon
 2813              		.syntax unified
 2814              		.thumb
 2815              		.thumb_func
 2817              	BSP_LCD_DrawPolygon:
 2818              	.LVL242:
 2819              	.LFB180:
 942:Core/Src/stm32746g_discovery_lcd.c ****   int16_t x = 0, y = 0;
 2820              		.loc 1 942 1 is_stmt 1 view -0
 2821              		.cfi_startproc
ARM GAS  C:\Users\jisu8\AppData\Local\Temp\ccieva3z.s 			page 88


 2822              		@ args = 0, pretend = 0, frame = 0
 2823              		@ frame_needed = 0, uses_anonymous_args = 0
 943:Core/Src/stm32746g_discovery_lcd.c ****   
 2824              		.loc 1 943 3 view .LVU634
 945:Core/Src/stm32746g_discovery_lcd.c ****   {
 2825              		.loc 1 945 3 view .LVU635
 945:Core/Src/stm32746g_discovery_lcd.c ****   {
 2826              		.loc 1 945 5 is_stmt 0 view .LVU636
 2827 0000 0129     		cmp	r1, #1
 2828 0002 29D9     		bls	.L213
 942:Core/Src/stm32746g_discovery_lcd.c ****   int16_t x = 0, y = 0;
 2829              		.loc 1 942 1 view .LVU637
 2830 0004 38B5     		push	{r3, r4, r5, lr}
 2831              	.LCFI48:
 2832              		.cfi_def_cfa_offset 16
 2833              		.cfi_offset 3, -16
 2834              		.cfi_offset 4, -12
 2835              		.cfi_offset 5, -8
 2836              		.cfi_offset 14, -4
 2837 0006 0546     		mov	r5, r0
 2838 0008 0C46     		mov	r4, r1
 950:Core/Src/stm32746g_discovery_lcd.c ****   
 2839              		.loc 1 950 3 is_stmt 1 view .LVU638
 950:Core/Src/stm32746g_discovery_lcd.c ****   
 2840              		.loc 1 950 26 is_stmt 0 view .LVU639
 2841 000a B0F90000 		ldrsh	r0, [r0]
 2842              	.LVL243:
 950:Core/Src/stm32746g_discovery_lcd.c ****   
 2843              		.loc 1 950 37 view .LVU640
 2844 000e B5F90210 		ldrsh	r1, [r5, #2]
 2845              	.LVL244:
 950:Core/Src/stm32746g_discovery_lcd.c ****   
 2846              		.loc 1 950 60 view .LVU641
 2847 0012 6FF04043 		mvn	r3, #-1073741824
 2848 0016 2344     		add	r3, r3, r4
 2849 0018 05EB830C 		add	ip, r5, r3, lsl #2
 950:Core/Src/stm32746g_discovery_lcd.c ****   
 2850              		.loc 1 950 63 view .LVU642
 2851 001c 35F92320 		ldrsh	r2, [r5, r3, lsl #2]
 950:Core/Src/stm32746g_discovery_lcd.c ****   
 2852              		.loc 1 950 89 view .LVU643
 2853 0020 BCF90230 		ldrsh	r3, [ip, #2]
 950:Core/Src/stm32746g_discovery_lcd.c ****   
 2854              		.loc 1 950 3 view .LVU644
 2855 0024 9BB2     		uxth	r3, r3
 2856 0026 92B2     		uxth	r2, r2
 2857 0028 89B2     		uxth	r1, r1
 2858 002a 80B2     		uxth	r0, r0
 2859 002c FFF7FEFF 		bl	BSP_LCD_DrawLine
 2860              	.LVL245:
 952:Core/Src/stm32746g_discovery_lcd.c ****   {
 2861              		.loc 1 952 3 is_stmt 1 view .LVU645
 952:Core/Src/stm32746g_discovery_lcd.c ****   {
 2862              		.loc 1 952 8 is_stmt 0 view .LVU646
 2863 0030 0DE0     		b	.L210
 2864              	.LVL246:
 2865              	.L211:
ARM GAS  C:\Users\jisu8\AppData\Local\Temp\ccieva3z.s 			page 89


 954:Core/Src/stm32746g_discovery_lcd.c ****     y = Points->Y;
 2866              		.loc 1 954 5 is_stmt 1 view .LVU647
 954:Core/Src/stm32746g_discovery_lcd.c ****     y = Points->Y;
 2867              		.loc 1 954 7 is_stmt 0 view .LVU648
 2868 0032 B5F90000 		ldrsh	r0, [r5]
 2869              	.LVL247:
 955:Core/Src/stm32746g_discovery_lcd.c ****     Points++;
 2870              		.loc 1 955 5 is_stmt 1 view .LVU649
 955:Core/Src/stm32746g_discovery_lcd.c ****     Points++;
 2871              		.loc 1 955 7 is_stmt 0 view .LVU650
 2872 0036 B5F90210 		ldrsh	r1, [r5, #2]
 2873              	.LVL248:
 956:Core/Src/stm32746g_discovery_lcd.c ****     BSP_LCD_DrawLine(x, y, Points->X, Points->Y);
 2874              		.loc 1 956 5 is_stmt 1 view .LVU651
 957:Core/Src/stm32746g_discovery_lcd.c ****   }
 2875              		.loc 1 957 5 view .LVU652
 957:Core/Src/stm32746g_discovery_lcd.c ****   }
 2876              		.loc 1 957 34 is_stmt 0 view .LVU653
 2877 003a 35F9042F 		ldrsh	r2, [r5, #4]!
 2878              	.LVL249:
 957:Core/Src/stm32746g_discovery_lcd.c ****   }
 2879              		.loc 1 957 45 view .LVU654
 2880 003e B5F90230 		ldrsh	r3, [r5, #2]
 957:Core/Src/stm32746g_discovery_lcd.c ****   }
 2881              		.loc 1 957 5 view .LVU655
 2882 0042 9BB2     		uxth	r3, r3
 2883 0044 92B2     		uxth	r2, r2
 2884 0046 89B2     		uxth	r1, r1
 957:Core/Src/stm32746g_discovery_lcd.c ****   }
 2885              		.loc 1 957 5 view .LVU656
 2886 0048 80B2     		uxth	r0, r0
 957:Core/Src/stm32746g_discovery_lcd.c ****   }
 2887              		.loc 1 957 5 view .LVU657
 2888 004a FFF7FEFF 		bl	BSP_LCD_DrawLine
 2889              	.LVL250:
 2890              	.L210:
 952:Core/Src/stm32746g_discovery_lcd.c ****   {
 2891              		.loc 1 952 8 is_stmt 1 view .LVU658
 2892 004e 013C     		subs	r4, r4, #1
 2893              	.LVL251:
 952:Core/Src/stm32746g_discovery_lcd.c ****   {
 2894              		.loc 1 952 8 is_stmt 0 view .LVU659
 2895 0050 A4B2     		uxth	r4, r4
 2896              	.LVL252:
 952:Core/Src/stm32746g_discovery_lcd.c ****   {
 2897              		.loc 1 952 8 view .LVU660
 2898 0052 002C     		cmp	r4, #0
 2899 0054 EDD1     		bne	.L211
 959:Core/Src/stm32746g_discovery_lcd.c **** 
 2900              		.loc 1 959 1 view .LVU661
 2901 0056 38BD     		pop	{r3, r4, r5, pc}
 2902              	.LVL253:
 2903              	.L213:
 2904              	.LCFI49:
 2905              		.cfi_def_cfa_offset 0
 2906              		.cfi_restore 3
 2907              		.cfi_restore 4
ARM GAS  C:\Users\jisu8\AppData\Local\Temp\ccieva3z.s 			page 90


 2908              		.cfi_restore 5
 2909              		.cfi_restore 14
 959:Core/Src/stm32746g_discovery_lcd.c **** 
 2910              		.loc 1 959 1 view .LVU662
 2911 0058 7047     		bx	lr
 2912              		.cfi_endproc
 2913              	.LFE180:
 2915              		.section	.text.FillTriangle,"ax",%progbits
 2916              		.align	1
 2917              		.syntax unified
 2918              		.thumb
 2919              		.thumb_func
 2921              	FillTriangle:
 2922              	.LVL254:
 2923              	.LFB194:
1488:Core/Src/stm32746g_discovery_lcd.c ****   int16_t deltax = 0, deltay = 0, x = 0, y = 0, xinc1 = 0, xinc2 = 0, 
 2924              		.loc 1 1488 1 is_stmt 1 view -0
 2925              		.cfi_startproc
 2926              		@ args = 8, pretend = 0, frame = 24
 2927              		@ frame_needed = 0, uses_anonymous_args = 0
1488:Core/Src/stm32746g_discovery_lcd.c ****   int16_t deltax = 0, deltay = 0, x = 0, y = 0, xinc1 = 0, xinc2 = 0, 
 2928              		.loc 1 1488 1 is_stmt 0 view .LVU664
 2929 0000 2DE9F04F 		push	{r4, r5, r6, r7, r8, r9, r10, fp, lr}
 2930              	.LCFI50:
 2931              		.cfi_def_cfa_offset 36
 2932              		.cfi_offset 4, -36
 2933              		.cfi_offset 5, -32
 2934              		.cfi_offset 6, -28
 2935              		.cfi_offset 7, -24
 2936              		.cfi_offset 8, -20
 2937              		.cfi_offset 9, -16
 2938              		.cfi_offset 10, -12
 2939              		.cfi_offset 11, -8
 2940              		.cfi_offset 14, -4
 2941 0004 87B0     		sub	sp, sp, #28
 2942              	.LCFI51:
 2943              		.cfi_def_cfa_offset 64
 2944 0006 0292     		str	r2, [sp, #8]
 2945 0008 BDF84020 		ldrh	r2, [sp, #64]
 2946              	.LVL255:
1488:Core/Src/stm32746g_discovery_lcd.c ****   int16_t deltax = 0, deltay = 0, x = 0, y = 0, xinc1 = 0, xinc2 = 0, 
 2947              		.loc 1 1488 1 view .LVU665
 2948 000c BDF84440 		ldrh	r4, [sp, #68]
 2949 0010 0394     		str	r4, [sp, #12]
1489:Core/Src/stm32746g_discovery_lcd.c ****   yinc1 = 0, yinc2 = 0, den = 0, num = 0, num_add = 0, num_pixels = 0,
 2950              		.loc 1 1489 3 is_stmt 1 view .LVU666
 2951              	.LVL256:
1493:Core/Src/stm32746g_discovery_lcd.c ****   deltay = ABS(y2 - y1);        /* The difference between the y's */
 2952              		.loc 1 1493 3 view .LVU667
1493:Core/Src/stm32746g_discovery_lcd.c ****   deltay = ABS(y2 - y1);        /* The difference between the y's */
 2953              		.loc 1 1493 12 is_stmt 0 view .LVU668
 2954 0012 A1EB000A 		sub	r10, r1, r0
 2955 0016 BAF1000F 		cmp	r10, #0
 2956 001a B8BF     		it	lt
 2957 001c CAF1000A 		rsblt	r10, r10, #0
1493:Core/Src/stm32746g_discovery_lcd.c ****   deltay = ABS(y2 - y1);        /* The difference between the y's */
 2958              		.loc 1 1493 10 view .LVU669
ARM GAS  C:\Users\jisu8\AppData\Local\Temp\ccieva3z.s 			page 91


 2959 0020 0FFA8AFA 		sxth	r10, r10
 2960              	.LVL257:
1494:Core/Src/stm32746g_discovery_lcd.c ****   x = x1;                       /* Start x off at the first pixel */
 2961              		.loc 1 1494 3 is_stmt 1 view .LVU670
1494:Core/Src/stm32746g_discovery_lcd.c ****   x = x1;                       /* Start x off at the first pixel */
 2962              		.loc 1 1494 12 is_stmt 0 view .LVU671
 2963 0024 A2EB030B 		sub	fp, r2, r3
 2964 0028 BBF1000F 		cmp	fp, #0
 2965 002c B8BF     		it	lt
 2966 002e CBF1000B 		rsblt	fp, fp, #0
1494:Core/Src/stm32746g_discovery_lcd.c ****   x = x1;                       /* Start x off at the first pixel */
 2967              		.loc 1 1494 10 view .LVU672
 2968 0032 0FFA8BFB 		sxth	fp, fp
 2969              	.LVL258:
1495:Core/Src/stm32746g_discovery_lcd.c ****   y = y1;                       /* Start y off at the first pixel */
 2970              		.loc 1 1495 3 is_stmt 1 view .LVU673
1495:Core/Src/stm32746g_discovery_lcd.c ****   y = y1;                       /* Start y off at the first pixel */
 2971              		.loc 1 1495 5 is_stmt 0 view .LVU674
 2972 0036 04B2     		sxth	r4, r0
 2973              	.LVL259:
1496:Core/Src/stm32746g_discovery_lcd.c ****   
 2974              		.loc 1 1496 3 is_stmt 1 view .LVU675
1496:Core/Src/stm32746g_discovery_lcd.c ****   
 2975              		.loc 1 1496 5 is_stmt 0 view .LVU676
 2976 0038 1EB2     		sxth	r6, r3
 2977              	.LVL260:
1498:Core/Src/stm32746g_discovery_lcd.c ****   {
 2978              		.loc 1 1498 3 is_stmt 1 view .LVU677
1498:Core/Src/stm32746g_discovery_lcd.c ****   {
 2979              		.loc 1 1498 6 is_stmt 0 view .LVU678
 2980 003a 8142     		cmp	r1, r0
 2981 003c 15D3     		bcc	.L226
1500:Core/Src/stm32746g_discovery_lcd.c ****     xinc2 = 1;
 2982              		.loc 1 1500 11 view .LVU679
 2983 003e 0121     		movs	r1, #1
 2984              	.LVL261:
1500:Core/Src/stm32746g_discovery_lcd.c ****     xinc2 = 1;
 2985              		.loc 1 1500 11 view .LVU680
 2986 0040 0491     		str	r1, [sp, #16]
 2987              	.L217:
 2988              	.LVL262:
1509:Core/Src/stm32746g_discovery_lcd.c ****   {
 2989              		.loc 1 1509 3 is_stmt 1 view .LVU681
1509:Core/Src/stm32746g_discovery_lcd.c ****   {
 2990              		.loc 1 1509 6 is_stmt 0 view .LVU682
 2991 0042 9A42     		cmp	r2, r3
 2992 0044 15D3     		bcc	.L227
1511:Core/Src/stm32746g_discovery_lcd.c ****     yinc2 = 1;
 2993              		.loc 1 1511 11 view .LVU683
 2994 0046 0123     		movs	r3, #1
 2995              	.LVL263:
1511:Core/Src/stm32746g_discovery_lcd.c ****     yinc2 = 1;
 2996              		.loc 1 1511 11 view .LVU684
 2997 0048 0593     		str	r3, [sp, #20]
 2998              	.L218:
 2999              	.LVL264:
1520:Core/Src/stm32746g_discovery_lcd.c ****   {
ARM GAS  C:\Users\jisu8\AppData\Local\Temp\ccieva3z.s 			page 92


 3000              		.loc 1 1520 3 is_stmt 1 view .LVU685
1520:Core/Src/stm32746g_discovery_lcd.c ****   {
 3001              		.loc 1 1520 6 is_stmt 0 view .LVU686
 3002 004a DA45     		cmp	r10, fp
 3003 004c 18DB     		blt	.L219
1522:Core/Src/stm32746g_discovery_lcd.c ****     yinc2 = 0;                  /* Don't change the y for every iteration */
 3004              		.loc 1 1522 5 is_stmt 1 view .LVU687
 3005              	.LVL265:
1523:Core/Src/stm32746g_discovery_lcd.c ****     den = deltax;
 3006              		.loc 1 1523 5 view .LVU688
1524:Core/Src/stm32746g_discovery_lcd.c ****     num = deltax / 2;
 3007              		.loc 1 1524 5 view .LVU689
1525:Core/Src/stm32746g_discovery_lcd.c ****     num_add = deltay;
 3008              		.loc 1 1525 5 view .LVU690
1525:Core/Src/stm32746g_discovery_lcd.c ****     num_add = deltay;
 3009              		.loc 1 1525 9 is_stmt 0 view .LVU691
 3010 004e D046     		mov	r8, r10
 3011 0050 BAF1000F 		cmp	r10, #0
 3012 0054 11DB     		blt	.L229
 3013              	.L220:
1525:Core/Src/stm32746g_discovery_lcd.c ****     num_add = deltay;
 3014              		.loc 1 1525 9 view .LVU692
 3015 0056 48F34F08 		sbfx	r8, r8, #1, #16
 3016              	.LVL266:
1526:Core/Src/stm32746g_discovery_lcd.c ****     num_pixels = deltax;         /* There are more x-values than y-values */
 3017              		.loc 1 1526 5 is_stmt 1 view .LVU693
1527:Core/Src/stm32746g_discovery_lcd.c ****   }
 3018              		.loc 1 1527 5 view .LVU694
1527:Core/Src/stm32746g_discovery_lcd.c ****   }
 3019              		.loc 1 1527 5 is_stmt 0 view .LVU695
 3020 005a 049B     		ldr	r3, [sp, #16]
 3021 005c 0093     		str	r3, [sp]
1523:Core/Src/stm32746g_discovery_lcd.c ****     den = deltax;
 3022              		.loc 1 1523 11 view .LVU696
 3023 005e 0023     		movs	r3, #0
 3024 0060 0493     		str	r3, [sp, #16]
 3025              	.LVL267:
1522:Core/Src/stm32746g_discovery_lcd.c ****     yinc2 = 0;                  /* Don't change the y for every iteration */
 3026              		.loc 1 1522 11 view .LVU697
 3027 0062 0193     		str	r3, [sp, #4]
 3028              	.LVL268:
 3029              	.L221:
1539:Core/Src/stm32746g_discovery_lcd.c ****   {
 3030              		.loc 1 1539 3 is_stmt 1 view .LVU698
1539:Core/Src/stm32746g_discovery_lcd.c ****   {
 3031              		.loc 1 1539 17 is_stmt 0 view .LVU699
 3032 0064 4FF00009 		mov	r9, #0
1539:Core/Src/stm32746g_discovery_lcd.c ****   {
 3033              		.loc 1 1539 3 view .LVU700
 3034 0068 26E0     		b	.L223
 3035              	.LVL269:
 3036              	.L226:
1505:Core/Src/stm32746g_discovery_lcd.c ****     xinc2 = -1;
 3037              		.loc 1 1505 11 view .LVU701
 3038 006a 4FF0FF31 		mov	r1, #-1
 3039              	.LVL270:
1505:Core/Src/stm32746g_discovery_lcd.c ****     xinc2 = -1;
ARM GAS  C:\Users\jisu8\AppData\Local\Temp\ccieva3z.s 			page 93


 3040              		.loc 1 1505 11 view .LVU702
 3041 006e 0491     		str	r1, [sp, #16]
 3042 0070 E7E7     		b	.L217
 3043              	.LVL271:
 3044              	.L227:
1516:Core/Src/stm32746g_discovery_lcd.c ****     yinc2 = -1;
 3045              		.loc 1 1516 11 view .LVU703
 3046 0072 4FF0FF33 		mov	r3, #-1
 3047              	.LVL272:
1516:Core/Src/stm32746g_discovery_lcd.c ****     yinc2 = -1;
 3048              		.loc 1 1516 11 view .LVU704
 3049 0076 0593     		str	r3, [sp, #20]
 3050 0078 E7E7     		b	.L218
 3051              	.LVL273:
 3052              	.L229:
1525:Core/Src/stm32746g_discovery_lcd.c ****     num_add = deltay;
 3053              		.loc 1 1525 9 view .LVU705
 3054 007a 0AF10108 		add	r8, r10, #1
 3055 007e EAE7     		b	.L220
 3056              	.LVL274:
 3057              	.L219:
1531:Core/Src/stm32746g_discovery_lcd.c ****     yinc1 = 0;                  /* Don't change the y when numerator >= denominator */
 3058              		.loc 1 1531 5 is_stmt 1 view .LVU706
1532:Core/Src/stm32746g_discovery_lcd.c ****     den = deltay;
 3059              		.loc 1 1532 5 view .LVU707
1533:Core/Src/stm32746g_discovery_lcd.c ****     num = deltay / 2;
 3060              		.loc 1 1533 5 view .LVU708
1534:Core/Src/stm32746g_discovery_lcd.c ****     num_add = deltax;
 3061              		.loc 1 1534 5 view .LVU709
1534:Core/Src/stm32746g_discovery_lcd.c ****     num_add = deltax;
 3062              		.loc 1 1534 9 is_stmt 0 view .LVU710
 3063 0080 D846     		mov	r8, fp
 3064 0082 BBF1000F 		cmp	fp, #0
 3065 0086 0ADB     		blt	.L230
 3066              	.L222:
1534:Core/Src/stm32746g_discovery_lcd.c ****     num_add = deltax;
 3067              		.loc 1 1534 9 view .LVU711
 3068 0088 48F34F08 		sbfx	r8, r8, #1, #16
 3069              	.LVL275:
1535:Core/Src/stm32746g_discovery_lcd.c ****     num_pixels = deltay;         /* There are more y-values than x-values */
 3070              		.loc 1 1535 5 is_stmt 1 view .LVU712
1536:Core/Src/stm32746g_discovery_lcd.c ****   }
 3071              		.loc 1 1536 5 view .LVU713
1534:Core/Src/stm32746g_discovery_lcd.c ****     num_add = deltax;
 3072              		.loc 1 1534 9 is_stmt 0 view .LVU714
 3073 008c 5346     		mov	r3, r10
1533:Core/Src/stm32746g_discovery_lcd.c ****     num = deltay / 2;
 3074              		.loc 1 1533 9 view .LVU715
 3075 008e DA46     		mov	r10, fp
 3076              	.LVL276:
1535:Core/Src/stm32746g_discovery_lcd.c ****     num_pixels = deltay;         /* There are more y-values than x-values */
 3077              		.loc 1 1535 13 view .LVU716
 3078 0090 9B46     		mov	fp, r3
 3079              	.LVL277:
1534:Core/Src/stm32746g_discovery_lcd.c ****     num_add = deltax;
 3080              		.loc 1 1534 9 view .LVU717
 3081 0092 059B     		ldr	r3, [sp, #20]
ARM GAS  C:\Users\jisu8\AppData\Local\Temp\ccieva3z.s 			page 94


 3082              	.LVL278:
1534:Core/Src/stm32746g_discovery_lcd.c ****     num_add = deltax;
 3083              		.loc 1 1534 9 view .LVU718
 3084 0094 0193     		str	r3, [sp, #4]
1532:Core/Src/stm32746g_discovery_lcd.c ****     den = deltay;
 3085              		.loc 1 1532 11 view .LVU719
 3086 0096 0023     		movs	r3, #0
 3087 0098 0593     		str	r3, [sp, #20]
 3088              	.LVL279:
1531:Core/Src/stm32746g_discovery_lcd.c ****     yinc1 = 0;                  /* Don't change the y when numerator >= denominator */
 3089              		.loc 1 1531 11 view .LVU720
 3090 009a 0093     		str	r3, [sp]
 3091 009c E2E7     		b	.L221
 3092              	.LVL280:
 3093              	.L230:
1534:Core/Src/stm32746g_discovery_lcd.c ****     num_add = deltax;
 3094              		.loc 1 1534 9 view .LVU721
 3095 009e 0BF10108 		add	r8, fp, #1
 3096 00a2 F1E7     		b	.L222
 3097              	.LVL281:
 3098              	.L224:
1550:Core/Src/stm32746g_discovery_lcd.c ****     y += yinc2;                 /* Change the y as appropriate */
 3099              		.loc 1 1550 5 is_stmt 1 discriminator 2 view .LVU722
1550:Core/Src/stm32746g_discovery_lcd.c ****     y += yinc2;                 /* Change the y as appropriate */
 3100              		.loc 1 1550 7 is_stmt 0 discriminator 2 view .LVU723
 3101 00a4 009B     		ldr	r3, [sp]
 3102 00a6 1C44     		add	r4, r4, r3
 3103              	.LVL282:
1550:Core/Src/stm32746g_discovery_lcd.c ****     y += yinc2;                 /* Change the y as appropriate */
 3104              		.loc 1 1550 7 discriminator 2 view .LVU724
 3105 00a8 24B2     		sxth	r4, r4
 3106              	.LVL283:
1551:Core/Src/stm32746g_discovery_lcd.c ****   } 
 3107              		.loc 1 1551 5 is_stmt 1 discriminator 2 view .LVU725
1551:Core/Src/stm32746g_discovery_lcd.c ****   } 
 3108              		.loc 1 1551 7 is_stmt 0 discriminator 2 view .LVU726
 3109 00aa 019B     		ldr	r3, [sp, #4]
 3110 00ac 1E44     		add	r6, r6, r3
 3111              	.LVL284:
1551:Core/Src/stm32746g_discovery_lcd.c ****   } 
 3112              		.loc 1 1551 7 discriminator 2 view .LVU727
 3113 00ae 36B2     		sxth	r6, r6
 3114              	.LVL285:
1539:Core/Src/stm32746g_discovery_lcd.c ****   {
 3115              		.loc 1 1539 46 is_stmt 1 discriminator 2 view .LVU728
1539:Core/Src/stm32746g_discovery_lcd.c ****   {
 3116              		.loc 1 1539 54 is_stmt 0 discriminator 2 view .LVU729
 3117 00b0 09F10109 		add	r9, r9, #1
 3118              	.LVL286:
1539:Core/Src/stm32746g_discovery_lcd.c ****   {
 3119              		.loc 1 1539 54 discriminator 2 view .LVU730
 3120 00b4 0FFA89F9 		sxth	r9, r9
 3121              	.LVL287:
 3122              	.L223:
1539:Core/Src/stm32746g_discovery_lcd.c ****   {
 3123              		.loc 1 1539 22 is_stmt 1 discriminator 1 view .LVU731
1539:Core/Src/stm32746g_discovery_lcd.c ****   {
ARM GAS  C:\Users\jisu8\AppData\Local\Temp\ccieva3z.s 			page 95


 3124              		.loc 1 1539 3 is_stmt 0 discriminator 1 view .LVU732
 3125 00b8 CA45     		cmp	r10, r9
 3126 00ba 19DB     		blt	.L231
1541:Core/Src/stm32746g_discovery_lcd.c ****     
 3127              		.loc 1 1541 5 is_stmt 1 view .LVU733
 3128 00bc A7B2     		uxth	r7, r4
 3129 00be B5B2     		uxth	r5, r6
 3130 00c0 039B     		ldr	r3, [sp, #12]
 3131 00c2 029A     		ldr	r2, [sp, #8]
 3132 00c4 2946     		mov	r1, r5
 3133 00c6 3846     		mov	r0, r7
 3134 00c8 FFF7FEFF 		bl	BSP_LCD_DrawLine
 3135              	.LVL288:
1543:Core/Src/stm32746g_discovery_lcd.c ****     if (num >= den)             /* Check if numerator >= denominator */
 3136              		.loc 1 1543 5 view .LVU734
1543:Core/Src/stm32746g_discovery_lcd.c ****     if (num >= den)             /* Check if numerator >= denominator */
 3137              		.loc 1 1543 9 is_stmt 0 view .LVU735
 3138 00cc D844     		add	r8, r8, fp
 3139              	.LVL289:
1543:Core/Src/stm32746g_discovery_lcd.c ****     if (num >= den)             /* Check if numerator >= denominator */
 3140              		.loc 1 1543 9 view .LVU736
 3141 00ce 1FFA88F3 		uxth	r3, r8
 3142 00d2 0FFA88F8 		sxth	r8, r8
 3143              	.LVL290:
1544:Core/Src/stm32746g_discovery_lcd.c ****     {
 3144              		.loc 1 1544 5 is_stmt 1 view .LVU737
1544:Core/Src/stm32746g_discovery_lcd.c ****     {
 3145              		.loc 1 1544 8 is_stmt 0 view .LVU738
 3146 00d6 C245     		cmp	r10, r8
 3147 00d8 E4DC     		bgt	.L224
1546:Core/Src/stm32746g_discovery_lcd.c ****       x += xinc1;               /* Change the x as appropriate */
 3148              		.loc 1 1546 7 is_stmt 1 view .LVU739
1546:Core/Src/stm32746g_discovery_lcd.c ****       x += xinc1;               /* Change the x as appropriate */
 3149              		.loc 1 1546 11 is_stmt 0 view .LVU740
 3150 00da A3EB0A03 		sub	r3, r3, r10
 3151 00de 0FFA83F8 		sxth	r8, r3
 3152              	.LVL291:
1547:Core/Src/stm32746g_discovery_lcd.c ****       y += yinc1;               /* Change the y as appropriate */
 3153              		.loc 1 1547 7 is_stmt 1 view .LVU741
1547:Core/Src/stm32746g_discovery_lcd.c ****       y += yinc1;               /* Change the y as appropriate */
 3154              		.loc 1 1547 9 is_stmt 0 view .LVU742
 3155 00e2 049B     		ldr	r3, [sp, #16]
 3156 00e4 FC18     		adds	r4, r7, r3
 3157              	.LVL292:
1547:Core/Src/stm32746g_discovery_lcd.c ****       y += yinc1;               /* Change the y as appropriate */
 3158              		.loc 1 1547 9 view .LVU743
 3159 00e6 24B2     		sxth	r4, r4
 3160              	.LVL293:
1548:Core/Src/stm32746g_discovery_lcd.c ****     }
 3161              		.loc 1 1548 7 is_stmt 1 view .LVU744
1548:Core/Src/stm32746g_discovery_lcd.c ****     }
 3162              		.loc 1 1548 9 is_stmt 0 view .LVU745
 3163 00e8 059B     		ldr	r3, [sp, #20]
 3164 00ea 1D44     		add	r5, r5, r3
 3165 00ec 2EB2     		sxth	r6, r5
 3166              	.LVL294:
1548:Core/Src/stm32746g_discovery_lcd.c ****     }
ARM GAS  C:\Users\jisu8\AppData\Local\Temp\ccieva3z.s 			page 96


 3167              		.loc 1 1548 9 view .LVU746
 3168 00ee D9E7     		b	.L224
 3169              	.L231:
1553:Core/Src/stm32746g_discovery_lcd.c **** 
 3170              		.loc 1 1553 1 view .LVU747
 3171 00f0 07B0     		add	sp, sp, #28
 3172              	.LCFI52:
 3173              		.cfi_def_cfa_offset 36
 3174              	.LVL295:
1553:Core/Src/stm32746g_discovery_lcd.c **** 
 3175              		.loc 1 1553 1 view .LVU748
 3176              		@ sp needed
 3177 00f2 BDE8F08F 		pop	{r4, r5, r6, r7, r8, r9, r10, fp, pc}
1553:Core/Src/stm32746g_discovery_lcd.c **** 
 3178              		.loc 1 1553 1 view .LVU749
 3179              		.cfi_endproc
 3180              	.LFE194:
 3182              		.section	.text.BSP_LCD_DrawCircle,"ax",%progbits
 3183              		.align	1
 3184              		.global	BSP_LCD_DrawCircle
 3185              		.syntax unified
 3186              		.thumb
 3187              		.thumb_func
 3189              	BSP_LCD_DrawCircle:
 3190              	.LVL296:
 3191              	.LFB179:
 895:Core/Src/stm32746g_discovery_lcd.c ****   int32_t   decision;    /* Decision Variable */ 
 3192              		.loc 1 895 1 is_stmt 1 view -0
 3193              		.cfi_startproc
 3194              		@ args = 0, pretend = 0, frame = 24
 3195              		@ frame_needed = 0, uses_anonymous_args = 0
 895:Core/Src/stm32746g_discovery_lcd.c ****   int32_t   decision;    /* Decision Variable */ 
 3196              		.loc 1 895 1 is_stmt 0 view .LVU751
 3197 0000 2DE9F04F 		push	{r4, r5, r6, r7, r8, r9, r10, fp, lr}
 3198              	.LCFI53:
 3199              		.cfi_def_cfa_offset 36
 3200              		.cfi_offset 4, -36
 3201              		.cfi_offset 5, -32
 3202              		.cfi_offset 6, -28
 3203              		.cfi_offset 7, -24
 3204              		.cfi_offset 8, -20
 3205              		.cfi_offset 9, -16
 3206              		.cfi_offset 10, -12
 3207              		.cfi_offset 11, -8
 3208              		.cfi_offset 14, -4
 3209 0004 87B0     		sub	sp, sp, #28
 3210              	.LCFI54:
 3211              		.cfi_def_cfa_offset 64
 3212 0006 8346     		mov	fp, r0
 3213 0008 8A46     		mov	r10, r1
 896:Core/Src/stm32746g_discovery_lcd.c ****   uint32_t  current_x;   /* Current X Value */
 3214              		.loc 1 896 3 is_stmt 1 view .LVU752
 897:Core/Src/stm32746g_discovery_lcd.c ****   uint32_t  current_y;   /* Current Y Value */
 3215              		.loc 1 897 3 view .LVU753
 898:Core/Src/stm32746g_discovery_lcd.c ****   
 3216              		.loc 1 898 3 view .LVU754
 900:Core/Src/stm32746g_discovery_lcd.c ****   current_x = 0;
ARM GAS  C:\Users\jisu8\AppData\Local\Temp\ccieva3z.s 			page 97


 3217              		.loc 1 900 3 view .LVU755
 900:Core/Src/stm32746g_discovery_lcd.c ****   current_x = 0;
 3218              		.loc 1 900 26 is_stmt 0 view .LVU756
 3219 000a 5300     		lsls	r3, r2, #1
 900:Core/Src/stm32746g_discovery_lcd.c ****   current_x = 0;
 3220              		.loc 1 900 12 view .LVU757
 3221 000c C3F10303 		rsb	r3, r3, #3
 3222 0010 0193     		str	r3, [sp, #4]
 3223              	.LVL297:
 901:Core/Src/stm32746g_discovery_lcd.c ****   current_y = Radius;
 3224              		.loc 1 901 3 is_stmt 1 view .LVU758
 902:Core/Src/stm32746g_discovery_lcd.c ****   
 3225              		.loc 1 902 3 view .LVU759
 902:Core/Src/stm32746g_discovery_lcd.c ****   
 3226              		.loc 1 902 13 is_stmt 0 view .LVU760
 3227 0012 0092     		str	r2, [sp]
 3228              	.LVL298:
 904:Core/Src/stm32746g_discovery_lcd.c ****   {
 3229              		.loc 1 904 3 is_stmt 1 view .LVU761
 901:Core/Src/stm32746g_discovery_lcd.c ****   current_y = Radius;
 3230              		.loc 1 901 13 is_stmt 0 view .LVU762
 3231 0014 4FF00009 		mov	r9, #0
 904:Core/Src/stm32746g_discovery_lcd.c ****   {
 3232              		.loc 1 904 9 view .LVU763
 3233 0018 0BE0     		b	.L233
 3234              	.LVL299:
 3235              	.L234:
 928:Core/Src/stm32746g_discovery_lcd.c ****       current_y--;
 3236              		.loc 1 928 7 is_stmt 1 view .LVU764
 928:Core/Src/stm32746g_discovery_lcd.c ****       current_y--;
 3237              		.loc 1 928 31 is_stmt 0 view .LVU765
 3238 001a 009A     		ldr	r2, [sp]
 3239 001c A9EB0203 		sub	r3, r9, r2
 928:Core/Src/stm32746g_discovery_lcd.c ****       current_y--;
 3240              		.loc 1 928 16 view .LVU766
 3241 0020 0199     		ldr	r1, [sp, #4]
 3242 0022 01EB8303 		add	r3, r1, r3, lsl #2
 3243 0026 0A33     		adds	r3, r3, #10
 3244 0028 0193     		str	r3, [sp, #4]
 3245              	.LVL300:
 929:Core/Src/stm32746g_discovery_lcd.c ****     }
 3246              		.loc 1 929 7 is_stmt 1 view .LVU767
 929:Core/Src/stm32746g_discovery_lcd.c ****     }
 3247              		.loc 1 929 16 is_stmt 0 view .LVU768
 3248 002a 531E     		subs	r3, r2, #1
 3249              	.LVL301:
 929:Core/Src/stm32746g_discovery_lcd.c ****     }
 3250              		.loc 1 929 16 view .LVU769
 3251 002c 0093     		str	r3, [sp]
 3252              	.LVL302:
 3253              	.L235:
 931:Core/Src/stm32746g_discovery_lcd.c ****   } 
 3254              		.loc 1 931 5 is_stmt 1 view .LVU770
 931:Core/Src/stm32746g_discovery_lcd.c ****   } 
 3255              		.loc 1 931 14 is_stmt 0 view .LVU771
 3256 002e 09F10109 		add	r9, r9, #1
 3257              	.LVL303:
ARM GAS  C:\Users\jisu8\AppData\Local\Temp\ccieva3z.s 			page 98


 3258              	.L233:
 904:Core/Src/stm32746g_discovery_lcd.c ****   {
 3259              		.loc 1 904 9 is_stmt 1 view .LVU772
 3260 0032 009B     		ldr	r3, [sp]
 3261 0034 9945     		cmp	r9, r3
 3262 0036 6FD8     		bhi	.L238
 906:Core/Src/stm32746g_discovery_lcd.c ****     
 3263              		.loc 1 906 5 view .LVU773
 3264 0038 1FFA89F4 		uxth	r4, r9
 3265 003c 04EB0B03 		add	r3, r4, fp
 3266 0040 98B2     		uxth	r0, r3
 3267 0042 BDF80050 		ldrh	r5, [sp]
 3268 0046 AAEB0508 		sub	r8, r10, r5
 3269 004a 1FFA88F8 		uxth	r8, r8
 3270 004e 344E     		ldr	r6, .L239
 3271 0050 344F     		ldr	r7, .L239+4
 3272 0052 3B68     		ldr	r3, [r7]
 3273 0054 03EB4303 		add	r3, r3, r3, lsl #1
 3274 0058 56F82320 		ldr	r2, [r6, r3, lsl #2]
 3275 005c 4146     		mov	r1, r8
 3276 005e 0290     		str	r0, [sp, #8]
 3277 0060 FFF7FEFF 		bl	BSP_LCD_DrawPixel
 3278              	.LVL304:
 908:Core/Src/stm32746g_discovery_lcd.c ****     
 3279              		.loc 1 908 5 view .LVU774
 3280 0064 ABEB0403 		sub	r3, fp, r4
 3281 0068 9BB2     		uxth	r3, r3
 3282 006a 1846     		mov	r0, r3
 3283 006c 3B68     		ldr	r3, [r7]
 3284 006e 03EB4303 		add	r3, r3, r3, lsl #1
 3285 0072 56F82320 		ldr	r2, [r6, r3, lsl #2]
 3286 0076 4146     		mov	r1, r8
 3287 0078 0390     		str	r0, [sp, #12]
 3288 007a FFF7FEFF 		bl	BSP_LCD_DrawPixel
 3289              	.LVL305:
 910:Core/Src/stm32746g_discovery_lcd.c ****     
 3290              		.loc 1 910 5 view .LVU775
 3291 007e 05EB0B03 		add	r3, r5, fp
 3292 0082 9BB2     		uxth	r3, r3
 3293 0084 1846     		mov	r0, r3
 3294 0086 AAEB0403 		sub	r3, r10, r4
 3295 008a 99B2     		uxth	r1, r3
 3296 008c 3B68     		ldr	r3, [r7]
 3297 008e 03EB4303 		add	r3, r3, r3, lsl #1
 3298 0092 56F82320 		ldr	r2, [r6, r3, lsl #2]
 3299 0096 0591     		str	r1, [sp, #20]
 3300 0098 0490     		str	r0, [sp, #16]
 3301 009a FFF7FEFF 		bl	BSP_LCD_DrawPixel
 3302              	.LVL306:
 912:Core/Src/stm32746g_discovery_lcd.c ****     
 3303              		.loc 1 912 5 view .LVU776
 3304 009e ABEB0508 		sub	r8, fp, r5
 3305 00a2 1FFA88F8 		uxth	r8, r8
 3306 00a6 3B68     		ldr	r3, [r7]
 3307 00a8 03EB4303 		add	r3, r3, r3, lsl #1
 3308 00ac 56F82320 		ldr	r2, [r6, r3, lsl #2]
 3309 00b0 0599     		ldr	r1, [sp, #20]
ARM GAS  C:\Users\jisu8\AppData\Local\Temp\ccieva3z.s 			page 99


 3310 00b2 4046     		mov	r0, r8
 3311 00b4 FFF7FEFF 		bl	BSP_LCD_DrawPixel
 3312              	.LVL307:
 914:Core/Src/stm32746g_discovery_lcd.c ****     
 3313              		.loc 1 914 5 view .LVU777
 3314 00b8 5544     		add	r5, r5, r10
 3315 00ba ADB2     		uxth	r5, r5
 3316 00bc 3B68     		ldr	r3, [r7]
 3317 00be 03EB4303 		add	r3, r3, r3, lsl #1
 3318 00c2 56F82320 		ldr	r2, [r6, r3, lsl #2]
 3319 00c6 2946     		mov	r1, r5
 3320 00c8 0298     		ldr	r0, [sp, #8]
 3321 00ca FFF7FEFF 		bl	BSP_LCD_DrawPixel
 3322              	.LVL308:
 916:Core/Src/stm32746g_discovery_lcd.c ****     
 3323              		.loc 1 916 5 view .LVU778
 3324 00ce 3B68     		ldr	r3, [r7]
 3325 00d0 03EB4303 		add	r3, r3, r3, lsl #1
 3326 00d4 56F82320 		ldr	r2, [r6, r3, lsl #2]
 3327 00d8 2946     		mov	r1, r5
 3328 00da 0398     		ldr	r0, [sp, #12]
 3329 00dc FFF7FEFF 		bl	BSP_LCD_DrawPixel
 3330              	.LVL309:
 918:Core/Src/stm32746g_discovery_lcd.c ****     
 3331              		.loc 1 918 5 view .LVU779
 3332 00e0 5444     		add	r4, r4, r10
 3333 00e2 A4B2     		uxth	r4, r4
 3334 00e4 3B68     		ldr	r3, [r7]
 3335 00e6 03EB4303 		add	r3, r3, r3, lsl #1
 3336 00ea 56F82320 		ldr	r2, [r6, r3, lsl #2]
 3337 00ee 2146     		mov	r1, r4
 3338 00f0 0498     		ldr	r0, [sp, #16]
 3339 00f2 FFF7FEFF 		bl	BSP_LCD_DrawPixel
 3340              	.LVL310:
 920:Core/Src/stm32746g_discovery_lcd.c ****     
 3341              		.loc 1 920 5 view .LVU780
 3342 00f6 3B68     		ldr	r3, [r7]
 3343 00f8 03EB4303 		add	r3, r3, r3, lsl #1
 3344 00fc 56F82320 		ldr	r2, [r6, r3, lsl #2]
 3345 0100 2146     		mov	r1, r4
 3346 0102 4046     		mov	r0, r8
 3347 0104 FFF7FEFF 		bl	BSP_LCD_DrawPixel
 3348              	.LVL311:
 922:Core/Src/stm32746g_discovery_lcd.c ****     { 
 3349              		.loc 1 922 5 view .LVU781
 922:Core/Src/stm32746g_discovery_lcd.c ****     { 
 3350              		.loc 1 922 8 is_stmt 0 view .LVU782
 3351 0108 019B     		ldr	r3, [sp, #4]
 3352 010a 002B     		cmp	r3, #0
 3353 010c 85DA     		bge	.L234
 924:Core/Src/stm32746g_discovery_lcd.c ****     }
 3354              		.loc 1 924 7 is_stmt 1 view .LVU783
 924:Core/Src/stm32746g_discovery_lcd.c ****     }
 3355              		.loc 1 924 16 is_stmt 0 view .LVU784
 3356 010e 03EB8903 		add	r3, r3, r9, lsl #2
 3357 0112 0633     		adds	r3, r3, #6
 3358 0114 0193     		str	r3, [sp, #4]
ARM GAS  C:\Users\jisu8\AppData\Local\Temp\ccieva3z.s 			page 100


 3359              	.LVL312:
 924:Core/Src/stm32746g_discovery_lcd.c ****     }
 3360              		.loc 1 924 16 view .LVU785
 3361 0116 8AE7     		b	.L235
 3362              	.LVL313:
 3363              	.L238:
 933:Core/Src/stm32746g_discovery_lcd.c **** 
 3364              		.loc 1 933 1 view .LVU786
 3365 0118 07B0     		add	sp, sp, #28
 3366              	.LCFI55:
 3367              		.cfi_def_cfa_offset 36
 3368              		@ sp needed
 3369 011a BDE8F08F 		pop	{r4, r5, r6, r7, r8, r9, r10, fp, pc}
 3370              	.LVL314:
 3371              	.L240:
 933:Core/Src/stm32746g_discovery_lcd.c **** 
 3372              		.loc 1 933 1 view .LVU787
 3373 011e 00BF     		.align	2
 3374              	.L239:
 3375 0120 00000000 		.word	.LANCHOR3
 3376 0124 00000000 		.word	.LANCHOR2
 3377              		.cfi_endproc
 3378              	.LFE179:
 3380              		.section	.text.BSP_LCD_DrawEllipse,"ax",%progbits
 3381              		.align	1
 3382              		.global	BSP_LCD_DrawEllipse
 3383              		.syntax unified
 3384              		.thumb
 3385              		.thumb_func
 3387              	BSP_LCD_DrawEllipse:
 3388              	.LVL315:
 3389              	.LFB181:
 970:Core/Src/stm32746g_discovery_lcd.c ****   int x = 0, y = -YRadius, err = 2-2*XRadius, e2;
 3390              		.loc 1 970 1 is_stmt 1 view -0
 3391              		.cfi_startproc
 3392              		@ args = 0, pretend = 0, frame = 24
 3393              		@ frame_needed = 0, uses_anonymous_args = 0
 970:Core/Src/stm32746g_discovery_lcd.c ****   int x = 0, y = -YRadius, err = 2-2*XRadius, e2;
 3394              		.loc 1 970 1 is_stmt 0 view .LVU789
 3395 0000 2DE9F04F 		push	{r4, r5, r6, r7, r8, r9, r10, fp, lr}
 3396              	.LCFI56:
 3397              		.cfi_def_cfa_offset 36
 3398              		.cfi_offset 4, -36
 3399              		.cfi_offset 5, -32
 3400              		.cfi_offset 6, -28
 3401              		.cfi_offset 7, -24
 3402              		.cfi_offset 8, -20
 3403              		.cfi_offset 9, -16
 3404              		.cfi_offset 10, -12
 3405              		.cfi_offset 11, -8
 3406              		.cfi_offset 14, -4
 3407 0004 2DED028B 		vpush.64	{d8}
 3408              	.LCFI57:
 3409              		.cfi_def_cfa_offset 44
 3410              		.cfi_offset 80, -44
 3411              		.cfi_offset 81, -40
 3412 0008 87B0     		sub	sp, sp, #28
ARM GAS  C:\Users\jisu8\AppData\Local\Temp\ccieva3z.s 			page 101


 3413              	.LCFI58:
 3414              		.cfi_def_cfa_offset 72
 3415 000a 0490     		str	r0, [sp, #16]
 3416 000c 0591     		str	r1, [sp, #20]
 971:Core/Src/stm32746g_discovery_lcd.c ****   float k = 0, rad1 = 0, rad2 = 0;
 3417              		.loc 1 971 3 is_stmt 1 view .LVU790
 3418              	.LVL316:
 971:Core/Src/stm32746g_discovery_lcd.c ****   float k = 0, rad1 = 0, rad2 = 0;
 3419              		.loc 1 971 14 is_stmt 0 view .LVU791
 3420 000e C3F1000B 		rsb	fp, r3, #0
 3421              	.LVL317:
 971:Core/Src/stm32746g_discovery_lcd.c ****   float k = 0, rad1 = 0, rad2 = 0;
 3422              		.loc 1 971 35 view .LVU792
 3423 0012 C2F10101 		rsb	r1, r2, #1
 3424              	.LVL318:
 971:Core/Src/stm32746g_discovery_lcd.c ****   float k = 0, rad1 = 0, rad2 = 0;
 3425              		.loc 1 971 28 view .LVU793
 3426 0016 4E00     		lsls	r6, r1, #1
 3427              	.LVL319:
 972:Core/Src/stm32746g_discovery_lcd.c ****   
 3428              		.loc 1 972 3 is_stmt 1 view .LVU794
 974:Core/Src/stm32746g_discovery_lcd.c ****   rad2 = YRadius;
 3429              		.loc 1 974 3 view .LVU795
 974:Core/Src/stm32746g_discovery_lcd.c ****   rad2 = YRadius;
 3430              		.loc 1 974 8 is_stmt 0 view .LVU796
 3431 0018 07EE902A 		vmov	s15, r2	@ int
 3432 001c F8EEE77A 		vcvt.f32.s32	s15, s15
 3433              	.LVL320:
 975:Core/Src/stm32746g_discovery_lcd.c ****   
 3434              		.loc 1 975 3 is_stmt 1 view .LVU797
 975:Core/Src/stm32746g_discovery_lcd.c ****   
 3435              		.loc 1 975 8 is_stmt 0 view .LVU798
 3436 0020 07EE103A 		vmov	s14, r3	@ int
 3437 0024 B8EEC77A 		vcvt.f32.s32	s14, s14
 3438              	.LVL321:
 977:Core/Src/stm32746g_discovery_lcd.c ****   
 3439              		.loc 1 977 3 is_stmt 1 view .LVU799
 977:Core/Src/stm32746g_discovery_lcd.c ****   
 3440              		.loc 1 977 5 is_stmt 0 view .LVU800
 3441 0028 87EE278A 		vdiv.f32	s16, s14, s15
 3442              	.LVL322:
 971:Core/Src/stm32746g_discovery_lcd.c ****   float k = 0, rad1 = 0, rad2 = 0;
 3443              		.loc 1 971 7 view .LVU801
 3444 002c 0023     		movs	r3, #0
 3445              	.LVL323:
 971:Core/Src/stm32746g_discovery_lcd.c ****   float k = 0, rad1 = 0, rad2 = 0;
 3446              		.loc 1 971 7 view .LVU802
 3447 002e 0193     		str	r3, [sp, #4]
 3448 0030 0BE0     		b	.L244
 3449              	.LVL324:
 3450              	.L245:
 971:Core/Src/stm32746g_discovery_lcd.c ****   float k = 0, rad1 = 0, rad2 = 0;
 3451              		.loc 1 971 7 view .LVU803
 3452 0032 3346     		mov	r3, r6
 3453              	.LVL325:
 3454              	.L242:
 990:Core/Src/stm32746g_discovery_lcd.c ****   }
ARM GAS  C:\Users\jisu8\AppData\Local\Temp\ccieva3z.s 			page 102


 3455              		.loc 1 990 5 is_stmt 1 view .LVU804
 990:Core/Src/stm32746g_discovery_lcd.c ****   }
 3456              		.loc 1 990 8 is_stmt 0 view .LVU805
 3457 0034 B345     		cmp	fp, r6
 3458 0036 61DA     		bge	.L247
 990:Core/Src/stm32746g_discovery_lcd.c ****   }
 3459              		.loc 1 990 17 is_stmt 1 discriminator 1 view .LVU806
 990:Core/Src/stm32746g_discovery_lcd.c ****   }
 3460              		.loc 1 990 29 is_stmt 0 discriminator 1 view .LVU807
 3461 0038 0BF1010B 		add	fp, fp, #1
 3462              	.LVL326:
 990:Core/Src/stm32746g_discovery_lcd.c ****   }
 3463              		.loc 1 990 27 discriminator 1 view .LVU808
 3464 003c 4FEA4B06 		lsl	r6, fp, #1
 3465              	.LVL327:
 990:Core/Src/stm32746g_discovery_lcd.c ****   }
 3466              		.loc 1 990 29 discriminator 1 view .LVU809
 3467 0040 0136     		adds	r6, r6, #1
 990:Core/Src/stm32746g_discovery_lcd.c ****   }
 3468              		.loc 1 990 21 discriminator 1 view .LVU810
 3469 0042 1E44     		add	r6, r6, r3
 3470              	.LVL328:
 3471              	.L243:
 992:Core/Src/stm32746g_discovery_lcd.c **** }
 3472              		.loc 1 992 9 is_stmt 1 view .LVU811
 992:Core/Src/stm32746g_discovery_lcd.c **** }
 3473              		.loc 1 992 3 is_stmt 0 view .LVU812
 3474 0044 BBF1000F 		cmp	fp, #0
 3475 0048 5ADC     		bgt	.L249
 3476              	.LVL329:
 3477              	.L244:
 979:Core/Src/stm32746g_discovery_lcd.c ****     BSP_LCD_DrawPixel((Xpos-(uint16_t)(x/k)), (Ypos+y), DrawProp[ActiveLayer].TextColor);
 3478              		.loc 1 979 3 is_stmt 1 view .LVU813
 980:Core/Src/stm32746g_discovery_lcd.c ****     BSP_LCD_DrawPixel((Xpos+(uint16_t)(x/k)), (Ypos+y), DrawProp[ActiveLayer].TextColor);
 3479              		.loc 1 980 5 view .LVU814
 3480 004a BDF81030 		ldrh	r3, [sp, #16]
 980:Core/Src/stm32746g_discovery_lcd.c ****     BSP_LCD_DrawPixel((Xpos+(uint16_t)(x/k)), (Ypos+y), DrawProp[ActiveLayer].TextColor);
 3481              		.loc 1 980 41 is_stmt 0 view .LVU815
 3482 004e DDED017A 		vldr.32	s15, [sp, #4]	@ int
 3483 0052 B8EEE77A 		vcvt.f32.s32	s14, s15
 3484 0056 C7EE087A 		vdiv.f32	s15, s14, s16
 980:Core/Src/stm32746g_discovery_lcd.c ****     BSP_LCD_DrawPixel((Xpos+(uint16_t)(x/k)), (Ypos+y), DrawProp[ActiveLayer].TextColor);
 3485              		.loc 1 980 29 view .LVU816
 3486 005a FCEEE77A 		vcvt.u32.f32	s15, s15
 3487 005e 17EE902A 		vmov	r2, s15	@ int
 3488 0062 1FFA82F9 		uxth	r9, r2
 980:Core/Src/stm32746g_discovery_lcd.c ****     BSP_LCD_DrawPixel((Xpos+(uint16_t)(x/k)), (Ypos+y), DrawProp[ActiveLayer].TextColor);
 3489              		.loc 1 980 5 view .LVU817
 3490 0066 0293     		str	r3, [sp, #8]
 3491 0068 A3EB0904 		sub	r4, r3, r9
 3492 006c A4B2     		uxth	r4, r4
 3493 006e BDF81430 		ldrh	r3, [sp, #20]
 3494 0072 1FFA8BFA 		uxth	r10, fp
 3495 0076 0393     		str	r3, [sp, #12]
 3496 0078 03EB0A08 		add	r8, r3, r10
 3497 007c 1FFA88F8 		uxth	r8, r8
 3498 0080 224D     		ldr	r5, .L250
ARM GAS  C:\Users\jisu8\AppData\Local\Temp\ccieva3z.s 			page 103


 3499 0082 234F     		ldr	r7, .L250+4
 3500 0084 3B68     		ldr	r3, [r7]
 3501 0086 03EB4303 		add	r3, r3, r3, lsl #1
 3502 008a 55F82320 		ldr	r2, [r5, r3, lsl #2]
 3503 008e 4146     		mov	r1, r8
 3504 0090 2046     		mov	r0, r4
 3505 0092 FFF7FEFF 		bl	BSP_LCD_DrawPixel
 3506              	.LVL330:
 981:Core/Src/stm32746g_discovery_lcd.c ****     BSP_LCD_DrawPixel((Xpos+(uint16_t)(x/k)), (Ypos-y), DrawProp[ActiveLayer].TextColor);
 3507              		.loc 1 981 5 is_stmt 1 view .LVU818
 3508 0096 029B     		ldr	r3, [sp, #8]
 3509 0098 9944     		add	r9, r9, r3
 3510 009a 1FFA89F9 		uxth	r9, r9
 3511 009e 3B68     		ldr	r3, [r7]
 3512 00a0 03EB4303 		add	r3, r3, r3, lsl #1
 3513 00a4 55F82320 		ldr	r2, [r5, r3, lsl #2]
 3514 00a8 4146     		mov	r1, r8
 3515 00aa 4846     		mov	r0, r9
 3516 00ac FFF7FEFF 		bl	BSP_LCD_DrawPixel
 3517              	.LVL331:
 982:Core/Src/stm32746g_discovery_lcd.c ****     BSP_LCD_DrawPixel((Xpos-(uint16_t)(x/k)), (Ypos-y), DrawProp[ActiveLayer].TextColor);      
 3518              		.loc 1 982 5 view .LVU819
 3519 00b0 039A     		ldr	r2, [sp, #12]
 3520 00b2 A2EB0A0A 		sub	r10, r2, r10
 3521 00b6 1FFA8AFA 		uxth	r10, r10
 3522 00ba 3B68     		ldr	r3, [r7]
 3523 00bc 03EB4303 		add	r3, r3, r3, lsl #1
 3524 00c0 55F82320 		ldr	r2, [r5, r3, lsl #2]
 3525 00c4 5146     		mov	r1, r10
 3526 00c6 4846     		mov	r0, r9
 3527 00c8 FFF7FEFF 		bl	BSP_LCD_DrawPixel
 3528              	.LVL332:
 983:Core/Src/stm32746g_discovery_lcd.c ****     
 3529              		.loc 1 983 5 view .LVU820
 3530 00cc 3B68     		ldr	r3, [r7]
 3531 00ce 03EB4303 		add	r3, r3, r3, lsl #1
 3532 00d2 55F82320 		ldr	r2, [r5, r3, lsl #2]
 3533 00d6 5146     		mov	r1, r10
 3534 00d8 2046     		mov	r0, r4
 3535 00da FFF7FEFF 		bl	BSP_LCD_DrawPixel
 3536              	.LVL333:
 985:Core/Src/stm32746g_discovery_lcd.c ****     if (e2 <= x) {
 3537              		.loc 1 985 5 view .LVU821
 986:Core/Src/stm32746g_discovery_lcd.c ****       err += ++x*2+1;
 3538              		.loc 1 986 5 view .LVU822
 986:Core/Src/stm32746g_discovery_lcd.c ****       err += ++x*2+1;
 3539              		.loc 1 986 8 is_stmt 0 view .LVU823
 3540 00de 019A     		ldr	r2, [sp, #4]
 3541 00e0 B242     		cmp	r2, r6
 3542 00e2 A6DB     		blt	.L245
 987:Core/Src/stm32746g_discovery_lcd.c ****       if (-y == x && e2 <= y) e2 = 0;
 3543              		.loc 1 987 7 is_stmt 1 view .LVU824
 987:Core/Src/stm32746g_discovery_lcd.c ****       if (-y == x && e2 <= y) e2 = 0;
 3544              		.loc 1 987 19 is_stmt 0 view .LVU825
 3545 00e4 0132     		adds	r2, r2, #1
 3546 00e6 0192     		str	r2, [sp, #4]
 3547              	.LVL334:
ARM GAS  C:\Users\jisu8\AppData\Local\Temp\ccieva3z.s 			page 104


 987:Core/Src/stm32746g_discovery_lcd.c ****       if (-y == x && e2 <= y) e2 = 0;
 3548              		.loc 1 987 17 view .LVU826
 3549 00e8 5300     		lsls	r3, r2, #1
 987:Core/Src/stm32746g_discovery_lcd.c ****       if (-y == x && e2 <= y) e2 = 0;
 3550              		.loc 1 987 19 view .LVU827
 3551 00ea 0133     		adds	r3, r3, #1
 987:Core/Src/stm32746g_discovery_lcd.c ****       if (-y == x && e2 <= y) e2 = 0;
 3552              		.loc 1 987 11 view .LVU828
 3553 00ec 3344     		add	r3, r3, r6
 3554              	.LVL335:
 988:Core/Src/stm32746g_discovery_lcd.c ****     }
 3555              		.loc 1 988 7 is_stmt 1 view .LVU829
 988:Core/Src/stm32746g_discovery_lcd.c ****     }
 3556              		.loc 1 988 10 is_stmt 0 view .LVU830
 3557 00ee 12EB0B0F 		cmn	r2, fp
 3558 00f2 9FD1     		bne	.L242
 988:Core/Src/stm32746g_discovery_lcd.c ****     }
 3559              		.loc 1 988 19 discriminator 1 view .LVU831
 3560 00f4 B345     		cmp	fp, r6
 3561 00f6 9DDB     		blt	.L242
 988:Core/Src/stm32746g_discovery_lcd.c ****     }
 3562              		.loc 1 988 34 view .LVU832
 3563 00f8 0026     		movs	r6, #0
 3564              	.LVL336:
 988:Core/Src/stm32746g_discovery_lcd.c ****     }
 3565              		.loc 1 988 34 view .LVU833
 3566 00fa 9BE7     		b	.L242
 3567              	.LVL337:
 3568              	.L247:
 988:Core/Src/stm32746g_discovery_lcd.c ****     }
 3569              		.loc 1 988 34 view .LVU834
 3570 00fc 1E46     		mov	r6, r3
 3571              	.LVL338:
 988:Core/Src/stm32746g_discovery_lcd.c ****     }
 3572              		.loc 1 988 34 view .LVU835
 3573 00fe A1E7     		b	.L243
 3574              	.LVL339:
 3575              	.L249:
 993:Core/Src/stm32746g_discovery_lcd.c **** 
 3576              		.loc 1 993 1 view .LVU836
 3577 0100 07B0     		add	sp, sp, #28
 3578              	.LCFI59:
 3579              		.cfi_def_cfa_offset 44
 3580              		@ sp needed
 3581 0102 BDEC028B 		vldm	sp!, {d8}
 3582              	.LCFI60:
 3583              		.cfi_restore 80
 3584              		.cfi_restore 81
 3585              		.cfi_def_cfa_offset 36
 3586              	.LVL340:
 993:Core/Src/stm32746g_discovery_lcd.c **** 
 3587              		.loc 1 993 1 view .LVU837
 3588 0106 BDE8F08F 		pop	{r4, r5, r6, r7, r8, r9, r10, fp, pc}
 3589              	.LVL341:
 3590              	.L251:
 993:Core/Src/stm32746g_discovery_lcd.c **** 
 3591              		.loc 1 993 1 view .LVU838
ARM GAS  C:\Users\jisu8\AppData\Local\Temp\ccieva3z.s 			page 105


 3592 010a 00BF     		.align	2
 3593              	.L250:
 3594 010c 00000000 		.word	.LANCHOR3
 3595 0110 00000000 		.word	.LANCHOR2
 3596              		.cfi_endproc
 3597              	.LFE181:
 3599              		.section	.text.BSP_LCD_DrawBitmap,"ax",%progbits
 3600              		.align	1
 3601              		.global	BSP_LCD_DrawBitmap
 3602              		.syntax unified
 3603              		.thumb
 3604              		.thumb_func
 3606              	BSP_LCD_DrawBitmap:
 3607              	.LVL342:
 3608              	.LFB183:
1023:Core/Src/stm32746g_discovery_lcd.c ****   uint32_t index = 0, width = 0, height = 0, bit_pixel = 0;
 3609              		.loc 1 1023 1 is_stmt 1 view -0
 3610              		.cfi_startproc
 3611              		@ args = 0, pretend = 0, frame = 0
 3612              		@ frame_needed = 0, uses_anonymous_args = 0
1023:Core/Src/stm32746g_discovery_lcd.c ****   uint32_t index = 0, width = 0, height = 0, bit_pixel = 0;
 3613              		.loc 1 1023 1 is_stmt 0 view .LVU840
 3614 0000 2DE9F84F 		push	{r3, r4, r5, r6, r7, r8, r9, r10, fp, lr}
 3615              	.LCFI61:
 3616              		.cfi_def_cfa_offset 40
 3617              		.cfi_offset 3, -40
 3618              		.cfi_offset 4, -36
 3619              		.cfi_offset 5, -32
 3620              		.cfi_offset 6, -28
 3621              		.cfi_offset 7, -24
 3622              		.cfi_offset 8, -20
 3623              		.cfi_offset 9, -16
 3624              		.cfi_offset 10, -12
 3625              		.cfi_offset 11, -8
 3626              		.cfi_offset 14, -4
 3627 0004 8246     		mov	r10, r0
 3628 0006 8B46     		mov	fp, r1
 3629 0008 1446     		mov	r4, r2
1024:Core/Src/stm32746g_discovery_lcd.c ****   uint32_t address;
 3630              		.loc 1 1024 3 is_stmt 1 view .LVU841
 3631              	.LVL343:
1025:Core/Src/stm32746g_discovery_lcd.c ****   uint32_t input_color_mode = 0;
 3632              		.loc 1 1025 3 view .LVU842
1026:Core/Src/stm32746g_discovery_lcd.c ****   
 3633              		.loc 1 1026 3 view .LVU843
1029:Core/Src/stm32746g_discovery_lcd.c **** 
 3634              		.loc 1 1029 3 view .LVU844
1029:Core/Src/stm32746g_discovery_lcd.c **** 
 3635              		.loc 1 1029 15 is_stmt 0 view .LVU845
 3636 000a 967A     		ldrb	r6, [r2, #10]	@ zero_extendqisi2
1029:Core/Src/stm32746g_discovery_lcd.c **** 
 3637              		.loc 1 1029 27 view .LVU846
 3638 000c D37A     		ldrb	r3, [r2, #11]	@ zero_extendqisi2
1029:Core/Src/stm32746g_discovery_lcd.c **** 
 3639              		.loc 1 1029 20 view .LVU847
 3640 000e 06EB0326 		add	r6, r6, r3, lsl #8
1029:Core/Src/stm32746g_discovery_lcd.c **** 
ARM GAS  C:\Users\jisu8\AppData\Local\Temp\ccieva3z.s 			page 106


 3641              		.loc 1 1029 45 view .LVU848
 3642 0012 137B     		ldrb	r3, [r2, #12]	@ zero_extendqisi2
1029:Core/Src/stm32746g_discovery_lcd.c **** 
 3643              		.loc 1 1029 38 view .LVU849
 3644 0014 06EB0346 		add	r6, r6, r3, lsl #16
1029:Core/Src/stm32746g_discovery_lcd.c **** 
 3645              		.loc 1 1029 65 view .LVU850
 3646 0018 537B     		ldrb	r3, [r2, #13]	@ zero_extendqisi2
1029:Core/Src/stm32746g_discovery_lcd.c **** 
 3647              		.loc 1 1029 58 view .LVU851
 3648 001a 06EB0366 		add	r6, r6, r3, lsl #24
 3649              	.LVL344:
1032:Core/Src/stm32746g_discovery_lcd.c **** 
 3650              		.loc 1 1032 3 is_stmt 1 view .LVU852
1032:Core/Src/stm32746g_discovery_lcd.c **** 
 3651              		.loc 1 1032 15 is_stmt 0 view .LVU853
 3652 001e 977C     		ldrb	r7, [r2, #18]	@ zero_extendqisi2
1032:Core/Src/stm32746g_discovery_lcd.c **** 
 3653              		.loc 1 1032 27 view .LVU854
 3654 0020 D37C     		ldrb	r3, [r2, #19]	@ zero_extendqisi2
1032:Core/Src/stm32746g_discovery_lcd.c **** 
 3655              		.loc 1 1032 20 view .LVU855
 3656 0022 07EB0327 		add	r7, r7, r3, lsl #8
1032:Core/Src/stm32746g_discovery_lcd.c **** 
 3657              		.loc 1 1032 45 view .LVU856
 3658 0026 137D     		ldrb	r3, [r2, #20]	@ zero_extendqisi2
1032:Core/Src/stm32746g_discovery_lcd.c **** 
 3659              		.loc 1 1032 38 view .LVU857
 3660 0028 07EB0347 		add	r7, r7, r3, lsl #16
1032:Core/Src/stm32746g_discovery_lcd.c **** 
 3661              		.loc 1 1032 65 view .LVU858
 3662 002c 537D     		ldrb	r3, [r2, #21]	@ zero_extendqisi2
1032:Core/Src/stm32746g_discovery_lcd.c **** 
 3663              		.loc 1 1032 58 view .LVU859
 3664 002e 07EB0367 		add	r7, r7, r3, lsl #24
 3665              	.LVL345:
1035:Core/Src/stm32746g_discovery_lcd.c **** 
 3666              		.loc 1 1035 3 is_stmt 1 view .LVU860
1035:Core/Src/stm32746g_discovery_lcd.c **** 
 3667              		.loc 1 1035 16 is_stmt 0 view .LVU861
 3668 0032 92F81680 		ldrb	r8, [r2, #22]	@ zero_extendqisi2
1035:Core/Src/stm32746g_discovery_lcd.c **** 
 3669              		.loc 1 1035 28 view .LVU862
 3670 0036 D37D     		ldrb	r3, [r2, #23]	@ zero_extendqisi2
1035:Core/Src/stm32746g_discovery_lcd.c **** 
 3671              		.loc 1 1035 21 view .LVU863
 3672 0038 08EB0328 		add	r8, r8, r3, lsl #8
1035:Core/Src/stm32746g_discovery_lcd.c **** 
 3673              		.loc 1 1035 46 view .LVU864
 3674 003c 137E     		ldrb	r3, [r2, #24]	@ zero_extendqisi2
1035:Core/Src/stm32746g_discovery_lcd.c **** 
 3675              		.loc 1 1035 39 view .LVU865
 3676 003e 08EB0348 		add	r8, r8, r3, lsl #16
1035:Core/Src/stm32746g_discovery_lcd.c **** 
 3677              		.loc 1 1035 66 view .LVU866
 3678 0042 537E     		ldrb	r3, [r2, #25]	@ zero_extendqisi2
1035:Core/Src/stm32746g_discovery_lcd.c **** 
ARM GAS  C:\Users\jisu8\AppData\Local\Temp\ccieva3z.s 			page 107


 3679              		.loc 1 1035 59 view .LVU867
 3680 0044 08EB0368 		add	r8, r8, r3, lsl #24
 3681              	.LVL346:
1038:Core/Src/stm32746g_discovery_lcd.c ****   
 3682              		.loc 1 1038 3 is_stmt 1 view .LVU868
1038:Core/Src/stm32746g_discovery_lcd.c ****   
 3683              		.loc 1 1038 19 is_stmt 0 view .LVU869
 3684 0048 92F81C90 		ldrb	r9, [r2, #28]	@ zero_extendqisi2
1038:Core/Src/stm32746g_discovery_lcd.c ****   
 3685              		.loc 1 1038 31 view .LVU870
 3686 004c 537F     		ldrb	r3, [r2, #29]	@ zero_extendqisi2
1038:Core/Src/stm32746g_discovery_lcd.c ****   
 3687              		.loc 1 1038 24 view .LVU871
 3688 004e 09EB0329 		add	r9, r9, r3, lsl #8
 3689              	.LVL347:
1041:Core/Src/stm32746g_discovery_lcd.c ****   
 3690              		.loc 1 1041 3 is_stmt 1 view .LVU872
1041:Core/Src/stm32746g_discovery_lcd.c ****   
 3691              		.loc 1 1041 47 is_stmt 0 view .LVU873
 3692 0052 1C4B     		ldr	r3, .L259
 3693 0054 1A68     		ldr	r2, [r3]
 3694              	.LVL348:
1041:Core/Src/stm32746g_discovery_lcd.c ****   
 3695              		.loc 1 1041 47 view .LVU874
 3696 0056 1C4B     		ldr	r3, .L259+4
 3697 0058 3421     		movs	r1, #52
 3698              	.LVL349:
1041:Core/Src/stm32746g_discovery_lcd.c ****   
 3699              		.loc 1 1041 47 view .LVU875
 3700 005a 01FB0233 		mla	r3, r1, r2, r3
 3701 005e DD6D     		ldr	r5, [r3, #92]
1041:Core/Src/stm32746g_discovery_lcd.c ****   
 3702              		.loc 1 1041 67 view .LVU876
 3703 0060 FFF7FEFF 		bl	BSP_LCD_GetXSize
 3704              	.LVL350:
1041:Core/Src/stm32746g_discovery_lcd.c ****   
 3705              		.loc 1 1041 92 view .LVU877
 3706 0064 0BFB00AA 		mla	r10, fp, r0, r10
 3707              	.LVL351:
1041:Core/Src/stm32746g_discovery_lcd.c ****   
 3708              		.loc 1 1041 11 view .LVU878
 3709 0068 05EB8A05 		add	r5, r5, r10, lsl #2
 3710              	.LVL352:
1044:Core/Src/stm32746g_discovery_lcd.c ****   {
 3711              		.loc 1 1044 3 is_stmt 1 view .LVU879
1044:Core/Src/stm32746g_discovery_lcd.c ****   {
 3712              		.loc 1 1044 21 is_stmt 0 view .LVU880
 3713 006c A9F12003 		sub	r3, r9, #32
1044:Core/Src/stm32746g_discovery_lcd.c ****   {
 3714              		.loc 1 1044 6 view .LVU881
 3715 0070 072B     		cmp	r3, #7
 3716 0072 06D9     		bls	.L256
1048:Core/Src/stm32746g_discovery_lcd.c ****   {
 3717              		.loc 1 1048 8 is_stmt 1 view .LVU882
1048:Core/Src/stm32746g_discovery_lcd.c ****   {
 3718              		.loc 1 1048 26 is_stmt 0 view .LVU883
 3719 0074 A9F11003 		sub	r3, r9, #16
ARM GAS  C:\Users\jisu8\AppData\Local\Temp\ccieva3z.s 			page 108


1048:Core/Src/stm32746g_discovery_lcd.c ****   {
 3720              		.loc 1 1048 11 view .LVU884
 3721 0078 072B     		cmp	r3, #7
 3722 007a 0FD8     		bhi	.L257
1050:Core/Src/stm32746g_discovery_lcd.c ****   }
 3723              		.loc 1 1050 22 view .LVU885
 3724 007c 4FF0020A 		mov	r10, #2
 3725 0080 01E0     		b	.L253
 3726              	.L256:
1046:Core/Src/stm32746g_discovery_lcd.c ****   }
 3727              		.loc 1 1046 22 view .LVU886
 3728 0082 4FF0000A 		mov	r10, #0
 3729              	.L253:
 3730              	.LVL353:
1058:Core/Src/stm32746g_discovery_lcd.c ****   
 3731              		.loc 1 1058 3 is_stmt 1 view .LVU887
1058:Core/Src/stm32746g_discovery_lcd.c ****   
 3732              		.loc 1 1058 37 is_stmt 0 view .LVU888
 3733 0086 08F1FF33 		add	r3, r8, #-1
1058:Core/Src/stm32746g_discovery_lcd.c ****   
 3734              		.loc 1 1058 27 view .LVU889
 3735 008a 07FB03F3 		mul	r3, r7, r3
1058:Core/Src/stm32746g_discovery_lcd.c ****   
 3736              		.loc 1 1058 54 view .LVU890
 3737 008e 4FEAD909 		lsr	r9, r9, #3
 3738              	.LVL354:
1058:Core/Src/stm32746g_discovery_lcd.c ****   
 3739              		.loc 1 1058 18 view .LVU891
 3740 0092 09FB0366 		mla	r6, r9, r3, r6
 3741              	.LVL355:
1058:Core/Src/stm32746g_discovery_lcd.c ****   
 3742              		.loc 1 1058 8 view .LVU892
 3743 0096 3444     		add	r4, r4, r6
 3744              	.LVL356:
1061:Core/Src/stm32746g_discovery_lcd.c ****   {
 3745              		.loc 1 1061 3 is_stmt 1 view .LVU893
1061:Core/Src/stm32746g_discovery_lcd.c ****   {
 3746              		.loc 1 1061 12 is_stmt 0 view .LVU894
 3747 0098 0026     		movs	r6, #0
1061:Core/Src/stm32746g_discovery_lcd.c ****   {
 3748              		.loc 1 1061 3 view .LVU895
 3749 009a 0FE0     		b	.L254
 3750              	.LVL357:
 3751              	.L257:
1054:Core/Src/stm32746g_discovery_lcd.c ****   }
 3752              		.loc 1 1054 22 view .LVU896
 3753 009c 4FF0010A 		mov	r10, #1
 3754 00a0 F1E7     		b	.L253
 3755              	.LVL358:
 3756              	.L255:
1064:Core/Src/stm32746g_discovery_lcd.c ****     
 3757              		.loc 1 1064 5 is_stmt 1 discriminator 3 view .LVU897
 3758 00a2 5346     		mov	r3, r10
 3759 00a4 3A46     		mov	r2, r7
 3760 00a6 2946     		mov	r1, r5
 3761 00a8 2046     		mov	r0, r4
 3762 00aa FFF7FEFF 		bl	LL_ConvertLineToARGB8888
ARM GAS  C:\Users\jisu8\AppData\Local\Temp\ccieva3z.s 			page 109


 3763              	.LVL359:
1067:Core/Src/stm32746g_discovery_lcd.c ****     pbmp -= width*(bit_pixel/8);
 3764              		.loc 1 1067 5 discriminator 3 view .LVU898
1067:Core/Src/stm32746g_discovery_lcd.c ****     pbmp -= width*(bit_pixel/8);
 3765              		.loc 1 1067 17 is_stmt 0 discriminator 3 view .LVU899
 3766 00ae FFF7FEFF 		bl	BSP_LCD_GetXSize
 3767              	.LVL360:
1067:Core/Src/stm32746g_discovery_lcd.c ****     pbmp -= width*(bit_pixel/8);
 3768              		.loc 1 1067 12 discriminator 3 view .LVU900
 3769 00b2 05EB8005 		add	r5, r5, r0, lsl #2
 3770              	.LVL361:
1068:Core/Src/stm32746g_discovery_lcd.c ****   } 
 3771              		.loc 1 1068 5 is_stmt 1 discriminator 3 view .LVU901
1068:Core/Src/stm32746g_discovery_lcd.c ****   } 
 3772              		.loc 1 1068 10 is_stmt 0 discriminator 3 view .LVU902
 3773 00b6 07FB1944 		mls	r4, r7, r9, r4
 3774              	.LVL362:
1061:Core/Src/stm32746g_discovery_lcd.c ****   {
 3775              		.loc 1 1061 32 is_stmt 1 discriminator 3 view .LVU903
1061:Core/Src/stm32746g_discovery_lcd.c ****   {
 3776              		.loc 1 1061 37 is_stmt 0 discriminator 3 view .LVU904
 3777 00ba 0136     		adds	r6, r6, #1
 3778              	.LVL363:
 3779              	.L254:
1061:Core/Src/stm32746g_discovery_lcd.c ****   {
 3780              		.loc 1 1061 16 is_stmt 1 discriminator 1 view .LVU905
1061:Core/Src/stm32746g_discovery_lcd.c ****   {
 3781              		.loc 1 1061 3 is_stmt 0 discriminator 1 view .LVU906
 3782 00bc 4645     		cmp	r6, r8
 3783 00be F0D3     		bcc	.L255
1070:Core/Src/stm32746g_discovery_lcd.c **** 
 3784              		.loc 1 1070 1 view .LVU907
 3785 00c0 BDE8F88F 		pop	{r3, r4, r5, r6, r7, r8, r9, r10, fp, pc}
 3786              	.LVL364:
 3787              	.L260:
1070:Core/Src/stm32746g_discovery_lcd.c **** 
 3788              		.loc 1 1070 1 view .LVU908
 3789              		.align	2
 3790              	.L259:
 3791 00c4 00000000 		.word	.LANCHOR2
 3792 00c8 00000000 		.word	.LANCHOR1
 3793              		.cfi_endproc
 3794              	.LFE183:
 3796              		.section	.text.BSP_LCD_FillRect,"ax",%progbits
 3797              		.align	1
 3798              		.global	BSP_LCD_FillRect
 3799              		.syntax unified
 3800              		.thumb
 3801              		.thumb_func
 3803              	BSP_LCD_FillRect:
 3804              	.LVL365:
 3805              	.LFB184:
1081:Core/Src/stm32746g_discovery_lcd.c ****   uint32_t  x_address = 0;
 3806              		.loc 1 1081 1 is_stmt 1 view -0
 3807              		.cfi_startproc
 3808              		@ args = 0, pretend = 0, frame = 0
 3809              		@ frame_needed = 0, uses_anonymous_args = 0
ARM GAS  C:\Users\jisu8\AppData\Local\Temp\ccieva3z.s 			page 110


1081:Core/Src/stm32746g_discovery_lcd.c ****   uint32_t  x_address = 0;
 3810              		.loc 1 1081 1 is_stmt 0 view .LVU910
 3811 0000 2DE9F043 		push	{r4, r5, r6, r7, r8, r9, lr}
 3812              	.LCFI62:
 3813              		.cfi_def_cfa_offset 28
 3814              		.cfi_offset 4, -28
 3815              		.cfi_offset 5, -24
 3816              		.cfi_offset 6, -20
 3817              		.cfi_offset 7, -16
 3818              		.cfi_offset 8, -12
 3819              		.cfi_offset 9, -8
 3820              		.cfi_offset 14, -4
 3821 0004 83B0     		sub	sp, sp, #12
 3822              	.LCFI63:
 3823              		.cfi_def_cfa_offset 40
 3824 0006 0546     		mov	r5, r0
 3825 0008 8846     		mov	r8, r1
 3826 000a 1646     		mov	r6, r2
 3827 000c 1F46     		mov	r7, r3
1082:Core/Src/stm32746g_discovery_lcd.c ****   
 3828              		.loc 1 1082 3 is_stmt 1 view .LVU911
 3829              	.LVL366:
1085:Core/Src/stm32746g_discovery_lcd.c ****   
 3830              		.loc 1 1085 3 view .LVU912
 3831 000e 1E4C     		ldr	r4, .L266
 3832 0010 2268     		ldr	r2, [r4]
 3833              	.LVL367:
1085:Core/Src/stm32746g_discovery_lcd.c ****   
 3834              		.loc 1 1085 3 is_stmt 0 view .LVU913
 3835 0012 02EB4202 		add	r2, r2, r2, lsl #1
 3836 0016 1D4B     		ldr	r3, .L266+4
 3837              	.LVL368:
1085:Core/Src/stm32746g_discovery_lcd.c ****   
 3838              		.loc 1 1085 3 view .LVU914
 3839 0018 53F82200 		ldr	r0, [r3, r2, lsl #2]
 3840              	.LVL369:
1085:Core/Src/stm32746g_discovery_lcd.c ****   
 3841              		.loc 1 1085 3 view .LVU915
 3842 001c FFF7FEFF 		bl	BSP_LCD_SetTextColor
 3843              	.LVL370:
1088:Core/Src/stm32746g_discovery_lcd.c ****   { /* RGB565 format */
 3844              		.loc 1 1088 3 is_stmt 1 view .LVU916
1088:Core/Src/stm32746g_discovery_lcd.c ****   { /* RGB565 format */
 3845              		.loc 1 1088 40 is_stmt 0 view .LVU917
 3846 0020 2468     		ldr	r4, [r4]
 3847 0022 1B4B     		ldr	r3, .L266+8
 3848 0024 3422     		movs	r2, #52
 3849 0026 02FB0433 		mla	r3, r2, r4, r3
 3850 002a 9B6C     		ldr	r3, [r3, #72]
1088:Core/Src/stm32746g_discovery_lcd.c ****   { /* RGB565 format */
 3851              		.loc 1 1088 5 view .LVU918
 3852 002c 022B     		cmp	r3, #2
 3853 002e 1ED0     		beq	.L265
1094:Core/Src/stm32746g_discovery_lcd.c ****   }
 3854              		.loc 1 1094 5 is_stmt 1 view .LVU919
1094:Core/Src/stm32746g_discovery_lcd.c ****   }
 3855              		.loc 1 1094 52 is_stmt 0 view .LVU920
ARM GAS  C:\Users\jisu8\AppData\Local\Temp\ccieva3z.s 			page 111


 3856 0030 174B     		ldr	r3, .L266+8
 3857 0032 3422     		movs	r2, #52
 3858 0034 02FB0433 		mla	r3, r2, r4, r3
 3859 0038 D3F85C90 		ldr	r9, [r3, #92]
1094:Core/Src/stm32746g_discovery_lcd.c ****   }
 3860              		.loc 1 1094 73 view .LVU921
 3861 003c FFF7FEFF 		bl	BSP_LCD_GetXSize
 3862              	.LVL371:
1094:Core/Src/stm32746g_discovery_lcd.c ****   }
 3863              		.loc 1 1094 97 view .LVU922
 3864 0040 00FB0855 		mla	r5, r0, r8, r5
1094:Core/Src/stm32746g_discovery_lcd.c ****   }
 3865              		.loc 1 1094 15 view .LVU923
 3866 0044 09EB8505 		add	r5, r9, r5, lsl #2
 3867              	.LVL372:
 3868              	.L263:
1097:Core/Src/stm32746g_discovery_lcd.c **** }
 3869              		.loc 1 1097 3 is_stmt 1 view .LVU924
1097:Core/Src/stm32746g_discovery_lcd.c **** }
 3870              		.loc 1 1097 69 is_stmt 0 view .LVU925
 3871 0048 FFF7FEFF 		bl	BSP_LCD_GetXSize
 3872              	.LVL373:
1097:Core/Src/stm32746g_discovery_lcd.c **** }
 3873              		.loc 1 1097 3 view .LVU926
 3874 004c 04EB4402 		add	r2, r4, r4, lsl #1
 3875 0050 0E4B     		ldr	r3, .L266+4
 3876 0052 53F82230 		ldr	r3, [r3, r2, lsl #2]
 3877 0056 0193     		str	r3, [sp, #4]
 3878 0058 801B     		subs	r0, r0, r6
 3879 005a 0090     		str	r0, [sp]
 3880 005c 3B46     		mov	r3, r7
 3881 005e 3246     		mov	r2, r6
 3882 0060 2946     		mov	r1, r5
 3883 0062 2046     		mov	r0, r4
 3884 0064 FFF7FEFF 		bl	LL_FillBuffer
 3885              	.LVL374:
1098:Core/Src/stm32746g_discovery_lcd.c **** 
 3886              		.loc 1 1098 1 view .LVU927
 3887 0068 03B0     		add	sp, sp, #12
 3888              	.LCFI64:
 3889              		.cfi_remember_state
 3890              		.cfi_def_cfa_offset 28
 3891              		@ sp needed
 3892 006a BDE8F083 		pop	{r4, r5, r6, r7, r8, r9, pc}
 3893              	.LVL375:
 3894              	.L265:
 3895              	.LCFI65:
 3896              		.cfi_restore_state
1090:Core/Src/stm32746g_discovery_lcd.c ****   }
 3897              		.loc 1 1090 5 is_stmt 1 view .LVU928
1090:Core/Src/stm32746g_discovery_lcd.c ****   }
 3898              		.loc 1 1090 52 is_stmt 0 view .LVU929
 3899 006e 084B     		ldr	r3, .L266+8
 3900 0070 02FB0433 		mla	r3, r2, r4, r3
 3901 0074 D3F85C90 		ldr	r9, [r3, #92]
1090:Core/Src/stm32746g_discovery_lcd.c ****   }
 3902              		.loc 1 1090 73 view .LVU930
ARM GAS  C:\Users\jisu8\AppData\Local\Temp\ccieva3z.s 			page 112


 3903 0078 FFF7FEFF 		bl	BSP_LCD_GetXSize
 3904              	.LVL376:
1090:Core/Src/stm32746g_discovery_lcd.c ****   }
 3905              		.loc 1 1090 97 view .LVU931
 3906 007c 00FB0855 		mla	r5, r0, r8, r5
1090:Core/Src/stm32746g_discovery_lcd.c ****   }
 3907              		.loc 1 1090 15 view .LVU932
 3908 0080 09EB4505 		add	r5, r9, r5, lsl #1
 3909              	.LVL377:
1090:Core/Src/stm32746g_discovery_lcd.c ****   }
 3910              		.loc 1 1090 15 view .LVU933
 3911 0084 E0E7     		b	.L263
 3912              	.L267:
 3913 0086 00BF     		.align	2
 3914              	.L266:
 3915 0088 00000000 		.word	.LANCHOR2
 3916 008c 00000000 		.word	.LANCHOR3
 3917 0090 00000000 		.word	.LANCHOR1
 3918              		.cfi_endproc
 3919              	.LFE184:
 3921              		.section	.text.BSP_LCD_ClearStringLine,"ax",%progbits
 3922              		.align	1
 3923              		.global	BSP_LCD_ClearStringLine
 3924              		.syntax unified
 3925              		.thumb
 3926              		.thumb_func
 3928              	BSP_LCD_ClearStringLine:
 3929              	.LVL378:
 3930              	.LFB171:
 640:Core/Src/stm32746g_discovery_lcd.c ****   uint32_t color_backup = DrawProp[ActiveLayer].TextColor;
 3931              		.loc 1 640 1 is_stmt 1 view -0
 3932              		.cfi_startproc
 3933              		@ args = 0, pretend = 0, frame = 0
 3934              		@ frame_needed = 0, uses_anonymous_args = 0
 640:Core/Src/stm32746g_discovery_lcd.c ****   uint32_t color_backup = DrawProp[ActiveLayer].TextColor;
 3935              		.loc 1 640 1 is_stmt 0 view .LVU935
 3936 0000 2DE9F041 		push	{r4, r5, r6, r7, r8, lr}
 3937              	.LCFI66:
 3938              		.cfi_def_cfa_offset 24
 3939              		.cfi_offset 4, -24
 3940              		.cfi_offset 5, -20
 3941              		.cfi_offset 6, -16
 3942              		.cfi_offset 7, -12
 3943              		.cfi_offset 8, -8
 3944              		.cfi_offset 14, -4
 641:Core/Src/stm32746g_discovery_lcd.c ****   DrawProp[ActiveLayer].TextColor = DrawProp[ActiveLayer].BackColor;
 3945              		.loc 1 641 3 is_stmt 1 view .LVU936
 641:Core/Src/stm32746g_discovery_lcd.c ****   DrawProp[ActiveLayer].TextColor = DrawProp[ActiveLayer].BackColor;
 3946              		.loc 1 641 48 is_stmt 0 view .LVU937
 3947 0004 134F     		ldr	r7, .L270
 3948 0006 3B68     		ldr	r3, [r7]
 641:Core/Src/stm32746g_discovery_lcd.c ****   DrawProp[ActiveLayer].TextColor = DrawProp[ActiveLayer].BackColor;
 3949              		.loc 1 641 12 view .LVU938
 3950 0008 134C     		ldr	r4, .L270+4
 3951 000a 03EB4302 		add	r2, r3, r3, lsl #1
 3952 000e 9100     		lsls	r1, r2, #2
 3953 0010 04EB8202 		add	r2, r4, r2, lsl #2
ARM GAS  C:\Users\jisu8\AppData\Local\Temp\ccieva3z.s 			page 113


 3954 0014 6658     		ldr	r6, [r4, r1]
 3955              	.LVL379:
 642:Core/Src/stm32746g_discovery_lcd.c ****   
 3956              		.loc 1 642 3 is_stmt 1 view .LVU939
 642:Core/Src/stm32746g_discovery_lcd.c ****   
 3957              		.loc 1 642 58 is_stmt 0 view .LVU940
 3958 0016 5268     		ldr	r2, [r2, #4]
 642:Core/Src/stm32746g_discovery_lcd.c ****   
 3959              		.loc 1 642 35 view .LVU941
 3960 0018 6250     		str	r2, [r4, r1]
 645:Core/Src/stm32746g_discovery_lcd.c ****   
 3961              		.loc 1 645 3 is_stmt 1 view .LVU942
 645:Core/Src/stm32746g_discovery_lcd.c ****   
 3962              		.loc 1 645 52 is_stmt 0 view .LVU943
 3963 001a 03EB4303 		add	r3, r3, r3, lsl #1
 3964 001e 04EB8303 		add	r3, r4, r3, lsl #2
 3965 0022 9B68     		ldr	r3, [r3, #8]
 645:Core/Src/stm32746g_discovery_lcd.c ****   
 3966              		.loc 1 645 58 view .LVU944
 3967 0024 B3F80680 		ldrh	r8, [r3, #6]
 645:Core/Src/stm32746g_discovery_lcd.c ****   
 3968              		.loc 1 645 3 view .LVU945
 3969 0028 10FB08F5 		smulbb	r5, r0, r8
 3970 002c ADB2     		uxth	r5, r5
 645:Core/Src/stm32746g_discovery_lcd.c ****   
 3971              		.loc 1 645 69 view .LVU946
 3972 002e FFF7FEFF 		bl	BSP_LCD_GetXSize
 3973              	.LVL380:
 645:Core/Src/stm32746g_discovery_lcd.c ****   
 3974              		.loc 1 645 3 view .LVU947
 3975 0032 4346     		mov	r3, r8
 3976 0034 82B2     		uxth	r2, r0
 3977 0036 2946     		mov	r1, r5
 3978 0038 0020     		movs	r0, #0
 3979 003a FFF7FEFF 		bl	BSP_LCD_FillRect
 3980              	.LVL381:
 647:Core/Src/stm32746g_discovery_lcd.c ****   BSP_LCD_SetTextColor(DrawProp[ActiveLayer].TextColor);  
 3981              		.loc 1 647 3 is_stmt 1 view .LVU948
 647:Core/Src/stm32746g_discovery_lcd.c ****   BSP_LCD_SetTextColor(DrawProp[ActiveLayer].TextColor);  
 3982              		.loc 1 647 24 is_stmt 0 view .LVU949
 3983 003e 3B68     		ldr	r3, [r7]
 647:Core/Src/stm32746g_discovery_lcd.c ****   BSP_LCD_SetTextColor(DrawProp[ActiveLayer].TextColor);  
 3984              		.loc 1 647 35 view .LVU950
 3985 0040 03EB4303 		add	r3, r3, r3, lsl #1
 3986 0044 44F82360 		str	r6, [r4, r3, lsl #2]
 648:Core/Src/stm32746g_discovery_lcd.c **** }
 3987              		.loc 1 648 3 is_stmt 1 view .LVU951
 3988 0048 3046     		mov	r0, r6
 3989 004a FFF7FEFF 		bl	BSP_LCD_SetTextColor
 3990              	.LVL382:
 649:Core/Src/stm32746g_discovery_lcd.c **** 
 3991              		.loc 1 649 1 is_stmt 0 view .LVU952
 3992 004e BDE8F081 		pop	{r4, r5, r6, r7, r8, pc}
 3993              	.LVL383:
 3994              	.L271:
 649:Core/Src/stm32746g_discovery_lcd.c **** 
 3995              		.loc 1 649 1 view .LVU953
ARM GAS  C:\Users\jisu8\AppData\Local\Temp\ccieva3z.s 			page 114


 3996 0052 00BF     		.align	2
 3997              	.L270:
 3998 0054 00000000 		.word	.LANCHOR2
 3999 0058 00000000 		.word	.LANCHOR3
 4000              		.cfi_endproc
 4001              	.LFE171:
 4003              		.section	.text.BSP_LCD_FillCircle,"ax",%progbits
 4004              		.align	1
 4005              		.global	BSP_LCD_FillCircle
 4006              		.syntax unified
 4007              		.thumb
 4008              		.thumb_func
 4010              	BSP_LCD_FillCircle:
 4011              	.LVL384:
 4012              	.LFB185:
1108:Core/Src/stm32746g_discovery_lcd.c ****   int32_t  decision;     /* Decision Variable */ 
 4013              		.loc 1 1108 1 is_stmt 1 view -0
 4014              		.cfi_startproc
 4015              		@ args = 0, pretend = 0, frame = 8
 4016              		@ frame_needed = 0, uses_anonymous_args = 0
1108:Core/Src/stm32746g_discovery_lcd.c ****   int32_t  decision;     /* Decision Variable */ 
 4017              		.loc 1 1108 1 is_stmt 0 view .LVU955
 4018 0000 2DE9F04F 		push	{r4, r5, r6, r7, r8, r9, r10, fp, lr}
 4019              	.LCFI67:
 4020              		.cfi_def_cfa_offset 36
 4021              		.cfi_offset 4, -36
 4022              		.cfi_offset 5, -32
 4023              		.cfi_offset 6, -28
 4024              		.cfi_offset 7, -24
 4025              		.cfi_offset 8, -20
 4026              		.cfi_offset 9, -16
 4027              		.cfi_offset 10, -12
 4028              		.cfi_offset 11, -8
 4029              		.cfi_offset 14, -4
 4030 0004 83B0     		sub	sp, sp, #12
 4031              	.LCFI68:
 4032              		.cfi_def_cfa_offset 48
 4033 0006 8246     		mov	r10, r0
 4034 0008 8946     		mov	r9, r1
 4035 000a 1546     		mov	r5, r2
 4036 000c 0192     		str	r2, [sp, #4]
1109:Core/Src/stm32746g_discovery_lcd.c ****   uint32_t  current_x;   /* Current X Value */
 4037              		.loc 1 1109 3 is_stmt 1 view .LVU956
1110:Core/Src/stm32746g_discovery_lcd.c ****   uint32_t  current_y;   /* Current Y Value */
 4038              		.loc 1 1110 3 view .LVU957
1111:Core/Src/stm32746g_discovery_lcd.c ****   
 4039              		.loc 1 1111 3 view .LVU958
1113:Core/Src/stm32746g_discovery_lcd.c ****   
 4040              		.loc 1 1113 3 view .LVU959
1113:Core/Src/stm32746g_discovery_lcd.c ****   
 4041              		.loc 1 1113 26 is_stmt 0 view .LVU960
 4042 000e 5600     		lsls	r6, r2, #1
1113:Core/Src/stm32746g_discovery_lcd.c ****   
 4043              		.loc 1 1113 12 view .LVU961
 4044 0010 C6F10306 		rsb	r6, r6, #3
 4045              	.LVL385:
1115:Core/Src/stm32746g_discovery_lcd.c ****   current_y = Radius;
ARM GAS  C:\Users\jisu8\AppData\Local\Temp\ccieva3z.s 			page 115


 4046              		.loc 1 1115 3 is_stmt 1 view .LVU962
1116:Core/Src/stm32746g_discovery_lcd.c ****   
 4047              		.loc 1 1116 3 view .LVU963
1118:Core/Src/stm32746g_discovery_lcd.c ****   
 4048              		.loc 1 1118 3 view .LVU964
 4049 0014 2E4B     		ldr	r3, .L283
 4050 0016 1B68     		ldr	r3, [r3]
 4051 0018 03EB4303 		add	r3, r3, r3, lsl #1
 4052 001c 2D4A     		ldr	r2, .L283+4
 4053              	.LVL386:
1118:Core/Src/stm32746g_discovery_lcd.c ****   
 4054              		.loc 1 1118 3 is_stmt 0 view .LVU965
 4055 001e 52F82300 		ldr	r0, [r2, r3, lsl #2]
 4056              	.LVL387:
1118:Core/Src/stm32746g_discovery_lcd.c ****   
 4057              		.loc 1 1118 3 view .LVU966
 4058 0022 FFF7FEFF 		bl	BSP_LCD_SetTextColor
 4059              	.LVL388:
1120:Core/Src/stm32746g_discovery_lcd.c ****   {
 4060              		.loc 1 1120 3 is_stmt 1 view .LVU967
1115:Core/Src/stm32746g_discovery_lcd.c ****   current_y = Radius;
 4061              		.loc 1 1115 13 is_stmt 0 view .LVU968
 4062 0026 0024     		movs	r4, #0
1120:Core/Src/stm32746g_discovery_lcd.c ****   {
 4063              		.loc 1 1120 9 view .LVU969
 4064 0028 35E0     		b	.L273
 4065              	.LVL389:
 4066              	.L281:
1124:Core/Src/stm32746g_discovery_lcd.c ****       BSP_LCD_DrawHLine(Xpos - current_y, Ypos - current_x, 2*current_y);
 4067              		.loc 1 1124 7 is_stmt 1 view .LVU970
 4068 002a AFB2     		uxth	r7, r5
 4069 002c AAEB070B 		sub	fp, r10, r7
 4070 0030 1FFA8BFB 		uxth	fp, fp
 4071 0034 1FFA84F8 		uxth	r8, r4
 4072 0038 7F00     		lsls	r7, r7, #1
 4073 003a BFB2     		uxth	r7, r7
 4074 003c 08EB0901 		add	r1, r8, r9
 4075 0040 3A46     		mov	r2, r7
 4076 0042 89B2     		uxth	r1, r1
 4077 0044 5846     		mov	r0, fp
 4078 0046 FFF7FEFF 		bl	BSP_LCD_DrawHLine
 4079              	.LVL390:
1125:Core/Src/stm32746g_discovery_lcd.c ****     }
 4080              		.loc 1 1125 7 view .LVU971
 4081 004a A9EB0801 		sub	r1, r9, r8
 4082 004e 3A46     		mov	r2, r7
 4083 0050 89B2     		uxth	r1, r1
 4084 0052 5846     		mov	r0, fp
 4085 0054 FFF7FEFF 		bl	BSP_LCD_DrawHLine
 4086              	.LVL391:
 4087 0058 21E0     		b	.L274
 4088              	.L282:
1130:Core/Src/stm32746g_discovery_lcd.c ****       BSP_LCD_DrawHLine(Xpos - current_x, Ypos + current_y, 2*current_x);
 4089              		.loc 1 1130 7 view .LVU972
 4090 005a A7B2     		uxth	r7, r4
 4091 005c AAEB070B 		sub	fp, r10, r7
 4092 0060 1FFA8BFB 		uxth	fp, fp
ARM GAS  C:\Users\jisu8\AppData\Local\Temp\ccieva3z.s 			page 116


 4093 0064 1FFA85F8 		uxth	r8, r5
 4094 0068 7F00     		lsls	r7, r7, #1
 4095 006a BFB2     		uxth	r7, r7
 4096 006c A9EB0801 		sub	r1, r9, r8
 4097 0070 3A46     		mov	r2, r7
 4098 0072 89B2     		uxth	r1, r1
 4099 0074 5846     		mov	r0, fp
 4100 0076 FFF7FEFF 		bl	BSP_LCD_DrawHLine
 4101              	.LVL392:
1131:Core/Src/stm32746g_discovery_lcd.c ****     }
 4102              		.loc 1 1131 7 view .LVU973
 4103 007a 08EB0901 		add	r1, r8, r9
 4104 007e 3A46     		mov	r2, r7
 4105 0080 89B2     		uxth	r1, r1
 4106 0082 5846     		mov	r0, fp
 4107 0084 FFF7FEFF 		bl	BSP_LCD_DrawHLine
 4108              	.LVL393:
 4109 0088 0BE0     		b	.L275
 4110              	.L276:
1139:Core/Src/stm32746g_discovery_lcd.c ****       current_y--;
 4111              		.loc 1 1139 7 view .LVU974
1139:Core/Src/stm32746g_discovery_lcd.c ****       current_y--;
 4112              		.loc 1 1139 31 is_stmt 0 view .LVU975
 4113 008a 631B     		subs	r3, r4, r5
1139:Core/Src/stm32746g_discovery_lcd.c ****       current_y--;
 4114              		.loc 1 1139 16 view .LVU976
 4115 008c 06EB8306 		add	r6, r6, r3, lsl #2
 4116              	.LVL394:
1139:Core/Src/stm32746g_discovery_lcd.c ****       current_y--;
 4117              		.loc 1 1139 16 view .LVU977
 4118 0090 0A36     		adds	r6, r6, #10
 4119              	.LVL395:
1140:Core/Src/stm32746g_discovery_lcd.c ****     }
 4120              		.loc 1 1140 7 is_stmt 1 view .LVU978
1140:Core/Src/stm32746g_discovery_lcd.c ****     }
 4121              		.loc 1 1140 16 is_stmt 0 view .LVU979
 4122 0092 013D     		subs	r5, r5, #1
 4123              	.LVL396:
 4124              	.L277:
1142:Core/Src/stm32746g_discovery_lcd.c ****   }
 4125              		.loc 1 1142 5 is_stmt 1 view .LVU980
1142:Core/Src/stm32746g_discovery_lcd.c ****   }
 4126              		.loc 1 1142 14 is_stmt 0 view .LVU981
 4127 0094 0134     		adds	r4, r4, #1
 4128              	.LVL397:
 4129              	.L273:
1120:Core/Src/stm32746g_discovery_lcd.c ****   {
 4130              		.loc 1 1120 9 is_stmt 1 view .LVU982
 4131 0096 AC42     		cmp	r4, r5
 4132 0098 09D8     		bhi	.L280
1122:Core/Src/stm32746g_discovery_lcd.c ****     {
 4133              		.loc 1 1122 5 view .LVU983
1122:Core/Src/stm32746g_discovery_lcd.c ****     {
 4134              		.loc 1 1122 7 is_stmt 0 view .LVU984
 4135 009a 002D     		cmp	r5, #0
 4136 009c C5D1     		bne	.L281
 4137              	.L274:
ARM GAS  C:\Users\jisu8\AppData\Local\Temp\ccieva3z.s 			page 117


1128:Core/Src/stm32746g_discovery_lcd.c ****     {
 4138              		.loc 1 1128 5 is_stmt 1 view .LVU985
1128:Core/Src/stm32746g_discovery_lcd.c ****     {
 4139              		.loc 1 1128 7 is_stmt 0 view .LVU986
 4140 009e 002C     		cmp	r4, #0
 4141 00a0 DBD1     		bne	.L282
 4142              	.L275:
1133:Core/Src/stm32746g_discovery_lcd.c ****     { 
 4143              		.loc 1 1133 5 is_stmt 1 view .LVU987
1133:Core/Src/stm32746g_discovery_lcd.c ****     { 
 4144              		.loc 1 1133 8 is_stmt 0 view .LVU988
 4145 00a2 002E     		cmp	r6, #0
 4146 00a4 F1DA     		bge	.L276
1135:Core/Src/stm32746g_discovery_lcd.c ****     }
 4147              		.loc 1 1135 7 is_stmt 1 view .LVU989
1135:Core/Src/stm32746g_discovery_lcd.c ****     }
 4148              		.loc 1 1135 16 is_stmt 0 view .LVU990
 4149 00a6 06EB8406 		add	r6, r6, r4, lsl #2
 4150              	.LVL398:
1135:Core/Src/stm32746g_discovery_lcd.c ****     }
 4151              		.loc 1 1135 16 view .LVU991
 4152 00aa 0636     		adds	r6, r6, #6
 4153              	.LVL399:
1135:Core/Src/stm32746g_discovery_lcd.c ****     }
 4154              		.loc 1 1135 16 view .LVU992
 4155 00ac F2E7     		b	.L277
 4156              	.L280:
1145:Core/Src/stm32746g_discovery_lcd.c ****   BSP_LCD_DrawCircle(Xpos, Ypos, Radius);
 4157              		.loc 1 1145 3 is_stmt 1 view .LVU993
 4158 00ae 084B     		ldr	r3, .L283
 4159 00b0 1B68     		ldr	r3, [r3]
 4160 00b2 03EB4303 		add	r3, r3, r3, lsl #1
 4161 00b6 074A     		ldr	r2, .L283+4
 4162 00b8 52F82300 		ldr	r0, [r2, r3, lsl #2]
 4163 00bc FFF7FEFF 		bl	BSP_LCD_SetTextColor
 4164              	.LVL400:
1146:Core/Src/stm32746g_discovery_lcd.c **** }
 4165              		.loc 1 1146 3 view .LVU994
 4166 00c0 019A     		ldr	r2, [sp, #4]
 4167 00c2 4946     		mov	r1, r9
 4168 00c4 5046     		mov	r0, r10
 4169 00c6 FFF7FEFF 		bl	BSP_LCD_DrawCircle
 4170              	.LVL401:
1147:Core/Src/stm32746g_discovery_lcd.c **** 
 4171              		.loc 1 1147 1 is_stmt 0 view .LVU995
 4172 00ca 03B0     		add	sp, sp, #12
 4173              	.LCFI69:
 4174              		.cfi_def_cfa_offset 36
 4175              		@ sp needed
 4176 00cc BDE8F08F 		pop	{r4, r5, r6, r7, r8, r9, r10, fp, pc}
 4177              	.LVL402:
 4178              	.L284:
1147:Core/Src/stm32746g_discovery_lcd.c **** 
 4179              		.loc 1 1147 1 view .LVU996
 4180              		.align	2
 4181              	.L283:
 4182 00d0 00000000 		.word	.LANCHOR2
ARM GAS  C:\Users\jisu8\AppData\Local\Temp\ccieva3z.s 			page 118


 4183 00d4 00000000 		.word	.LANCHOR3
 4184              		.cfi_endproc
 4185              	.LFE185:
 4187              		.section	.text.BSP_LCD_FillPolygon,"ax",%progbits
 4188              		.align	1
 4189              		.global	BSP_LCD_FillPolygon
 4190              		.syntax unified
 4191              		.thumb
 4192              		.thumb_func
 4194              	BSP_LCD_FillPolygon:
 4195              	.LVL403:
 4196              	.LFB186:
1156:Core/Src/stm32746g_discovery_lcd.c ****   int16_t X = 0, Y = 0, X2 = 0, Y2 = 0, X_center = 0, Y_center = 0, X_first = 0, Y_first = 0, pixel
 4197              		.loc 1 1156 1 is_stmt 1 view -0
 4198              		.cfi_startproc
 4199              		@ args = 0, pretend = 0, frame = 24
 4200              		@ frame_needed = 0, uses_anonymous_args = 0
1156:Core/Src/stm32746g_discovery_lcd.c ****   int16_t X = 0, Y = 0, X2 = 0, Y2 = 0, X_center = 0, Y_center = 0, X_first = 0, Y_first = 0, pixel
 4201              		.loc 1 1156 1 is_stmt 0 view .LVU998
 4202 0000 2DE9F04F 		push	{r4, r5, r6, r7, r8, r9, r10, fp, lr}
 4203              	.LCFI70:
 4204              		.cfi_def_cfa_offset 36
 4205              		.cfi_offset 4, -36
 4206              		.cfi_offset 5, -32
 4207              		.cfi_offset 6, -28
 4208              		.cfi_offset 7, -24
 4209              		.cfi_offset 8, -20
 4210              		.cfi_offset 9, -16
 4211              		.cfi_offset 10, -12
 4212              		.cfi_offset 11, -8
 4213              		.cfi_offset 14, -4
 4214 0004 89B0     		sub	sp, sp, #36
 4215              	.LCFI71:
 4216              		.cfi_def_cfa_offset 72
 4217 0006 0446     		mov	r4, r0
 4218 0008 0D46     		mov	r5, r1
1157:Core/Src/stm32746g_discovery_lcd.c ****   uint16_t  image_left = 0, image_right = 0, image_top = 0, image_bottom = 0;
 4219              		.loc 1 1157 3 is_stmt 1 view .LVU999
 4220              	.LVL404:
1158:Core/Src/stm32746g_discovery_lcd.c ****   
 4221              		.loc 1 1158 3 view .LVU1000
1160:Core/Src/stm32746g_discovery_lcd.c ****   image_top= image_bottom = Points->Y;
 4222              		.loc 1 1160 3 view .LVU1001
1160:Core/Src/stm32746g_discovery_lcd.c ****   image_top= image_bottom = Points->Y;
 4223              		.loc 1 1160 36 is_stmt 0 view .LVU1002
 4224 000a B0F90030 		ldrsh	r3, [r0]
1160:Core/Src/stm32746g_discovery_lcd.c ****   image_top= image_bottom = Points->Y;
 4225              		.loc 1 1160 28 view .LVU1003
 4226 000e 9AB2     		uxth	r2, r3
 4227 0010 1646     		mov	r6, r2
 4228 0012 0692     		str	r2, [sp, #24]
 4229              	.LVL405:
1161:Core/Src/stm32746g_discovery_lcd.c ****   
 4230              		.loc 1 1161 3 is_stmt 1 view .LVU1004
1161:Core/Src/stm32746g_discovery_lcd.c ****   
 4231              		.loc 1 1161 35 is_stmt 0 view .LVU1005
 4232 0014 B0F90230 		ldrsh	r3, [r0, #2]
ARM GAS  C:\Users\jisu8\AppData\Local\Temp\ccieva3z.s 			page 119


1161:Core/Src/stm32746g_discovery_lcd.c ****   
 4233              		.loc 1 1161 27 view .LVU1006
 4234 0018 9BB2     		uxth	r3, r3
 4235 001a 1F46     		mov	r7, r3
 4236 001c 0793     		str	r3, [sp, #28]
 4237              	.LVL406:
1163:Core/Src/stm32746g_discovery_lcd.c ****   {
 4238              		.loc 1 1163 3 is_stmt 1 view .LVU1007
1161:Core/Src/stm32746g_discovery_lcd.c ****   
 4239              		.loc 1 1161 27 is_stmt 0 view .LVU1008
 4240 001e 1846     		mov	r0, r3
 4241              	.LVL407:
1160:Core/Src/stm32746g_discovery_lcd.c ****   image_top= image_bottom = Points->Y;
 4242              		.loc 1 1160 28 view .LVU1009
 4243 0020 9446     		mov	ip, r2
1163:Core/Src/stm32746g_discovery_lcd.c ****   {
 4244              		.loc 1 1163 15 view .LVU1010
 4245 0022 0123     		movs	r3, #1
 4246              	.LVL408:
1163:Core/Src/stm32746g_discovery_lcd.c ****   {
 4247              		.loc 1 1163 3 view .LVU1011
 4248 0024 01E0     		b	.L286
 4249              	.LVL409:
 4250              	.L290:
1163:Core/Src/stm32746g_discovery_lcd.c ****   {
 4251              		.loc 1 1163 42 is_stmt 1 discriminator 2 view .LVU1012
1163:Core/Src/stm32746g_discovery_lcd.c ****   {
 4252              		.loc 1 1163 49 is_stmt 0 discriminator 2 view .LVU1013
 4253 0026 0133     		adds	r3, r3, #1
 4254              	.LVL410:
1163:Core/Src/stm32746g_discovery_lcd.c ****   {
 4255              		.loc 1 1163 49 discriminator 2 view .LVU1014
 4256 0028 1BB2     		sxth	r3, r3
 4257              	.LVL411:
 4258              	.L286:
1163:Core/Src/stm32746g_discovery_lcd.c ****   {
 4259              		.loc 1 1163 20 is_stmt 1 discriminator 1 view .LVU1015
1163:Core/Src/stm32746g_discovery_lcd.c ****   {
 4260              		.loc 1 1163 3 is_stmt 0 discriminator 1 view .LVU1016
 4261 002a AB42     		cmp	r3, r5
 4262 002c 13DA     		bge	.L298
1165:Core/Src/stm32746g_discovery_lcd.c ****     if(pixelX < image_left)
 4263              		.loc 1 1165 5 is_stmt 1 view .LVU1017
1165:Core/Src/stm32746g_discovery_lcd.c ****     if(pixelX < image_left)
 4264              		.loc 1 1165 14 is_stmt 0 view .LVU1018
 4265 002e 04EB8301 		add	r1, r4, r3, lsl #2
1165:Core/Src/stm32746g_discovery_lcd.c ****     if(pixelX < image_left)
 4266              		.loc 1 1165 12 view .LVU1019
 4267 0032 34F92320 		ldrsh	r2, [r4, r3, lsl #2]
 4268              	.LVL412:
1166:Core/Src/stm32746g_discovery_lcd.c ****     {
 4269              		.loc 1 1166 5 is_stmt 1 view .LVU1020
1166:Core/Src/stm32746g_discovery_lcd.c ****     {
 4270              		.loc 1 1166 7 is_stmt 0 view .LVU1021
 4271 0036 B242     		cmp	r2, r6
 4272 0038 00DA     		bge	.L287
1168:Core/Src/stm32746g_discovery_lcd.c ****     }
ARM GAS  C:\Users\jisu8\AppData\Local\Temp\ccieva3z.s 			page 120


 4273              		.loc 1 1168 7 is_stmt 1 view .LVU1022
1168:Core/Src/stm32746g_discovery_lcd.c ****     }
 4274              		.loc 1 1168 18 is_stmt 0 view .LVU1023
 4275 003a 96B2     		uxth	r6, r2
 4276              	.LVL413:
 4277              	.L287:
1170:Core/Src/stm32746g_discovery_lcd.c ****     {
 4278              		.loc 1 1170 5 is_stmt 1 view .LVU1024
1170:Core/Src/stm32746g_discovery_lcd.c ****     {
 4279              		.loc 1 1170 7 is_stmt 0 view .LVU1025
 4280 003c 6245     		cmp	r2, ip
 4281 003e 01DD     		ble	.L288
1172:Core/Src/stm32746g_discovery_lcd.c ****     }
 4282              		.loc 1 1172 7 is_stmt 1 view .LVU1026
1172:Core/Src/stm32746g_discovery_lcd.c ****     }
 4283              		.loc 1 1172 19 is_stmt 0 view .LVU1027
 4284 0040 1FFA82FC 		uxth	ip, r2
 4285              	.LVL414:
 4286              	.L288:
1175:Core/Src/stm32746g_discovery_lcd.c ****     if(pixelY < image_top)
 4287              		.loc 1 1175 5 is_stmt 1 view .LVU1028
1175:Core/Src/stm32746g_discovery_lcd.c ****     if(pixelY < image_top)
 4288              		.loc 1 1175 12 is_stmt 0 view .LVU1029
 4289 0044 B1F90220 		ldrsh	r2, [r1, #2]
 4290              	.LVL415:
1176:Core/Src/stm32746g_discovery_lcd.c ****     { 
 4291              		.loc 1 1176 5 is_stmt 1 view .LVU1030
1176:Core/Src/stm32746g_discovery_lcd.c ****     { 
 4292              		.loc 1 1176 7 is_stmt 0 view .LVU1031
 4293 0048 BA42     		cmp	r2, r7
 4294 004a 00DA     		bge	.L289
1178:Core/Src/stm32746g_discovery_lcd.c ****     }
 4295              		.loc 1 1178 7 is_stmt 1 view .LVU1032
1178:Core/Src/stm32746g_discovery_lcd.c ****     }
 4296              		.loc 1 1178 17 is_stmt 0 view .LVU1033
 4297 004c 97B2     		uxth	r7, r2
 4298              	.LVL416:
 4299              	.L289:
1180:Core/Src/stm32746g_discovery_lcd.c ****     {
 4300              		.loc 1 1180 5 is_stmt 1 view .LVU1034
1180:Core/Src/stm32746g_discovery_lcd.c ****     {
 4301              		.loc 1 1180 7 is_stmt 0 view .LVU1035
 4302 004e 8242     		cmp	r2, r0
 4303 0050 E9DD     		ble	.L290
1182:Core/Src/stm32746g_discovery_lcd.c ****     }
 4304              		.loc 1 1182 7 is_stmt 1 view .LVU1036
1182:Core/Src/stm32746g_discovery_lcd.c ****     }
 4305              		.loc 1 1182 20 is_stmt 0 view .LVU1037
 4306 0052 90B2     		uxth	r0, r2
 4307              	.LVL417:
1182:Core/Src/stm32746g_discovery_lcd.c ****     }
 4308              		.loc 1 1182 20 view .LVU1038
 4309 0054 E7E7     		b	.L290
 4310              	.LVL418:
 4311              	.L298:
1186:Core/Src/stm32746g_discovery_lcd.c ****   {
 4312              		.loc 1 1186 3 is_stmt 1 view .LVU1039
ARM GAS  C:\Users\jisu8\AppData\Local\Temp\ccieva3z.s 			page 121


1186:Core/Src/stm32746g_discovery_lcd.c ****   {
 4313              		.loc 1 1186 5 is_stmt 0 view .LVU1040
 4314 0056 012D     		cmp	r5, #1
 4315 0058 64D9     		bls	.L285
1191:Core/Src/stm32746g_discovery_lcd.c ****   Y_center = (image_bottom + image_top)/2;
 4316              		.loc 1 1191 3 is_stmt 1 view .LVU1041
1191:Core/Src/stm32746g_discovery_lcd.c ****   Y_center = (image_bottom + image_top)/2;
 4317              		.loc 1 1191 40 is_stmt 0 view .LVU1042
 4318 005a 6644     		add	r6, r6, ip
 4319              	.LVL419:
1191:Core/Src/stm32746g_discovery_lcd.c ****   Y_center = (image_bottom + image_top)/2;
 4320              		.loc 1 1191 40 view .LVU1043
 4321 005c 7310     		asrs	r3, r6, #1
 4322              	.LVL420:
1191:Core/Src/stm32746g_discovery_lcd.c ****   Y_center = (image_bottom + image_top)/2;
 4323              		.loc 1 1191 40 view .LVU1044
 4324 005e 0293     		str	r3, [sp, #8]
 4325              	.LVL421:
1192:Core/Src/stm32746g_discovery_lcd.c ****   
 4326              		.loc 1 1192 3 is_stmt 1 view .LVU1045
1192:Core/Src/stm32746g_discovery_lcd.c ****   
 4327              		.loc 1 1192 40 is_stmt 0 view .LVU1046
 4328 0060 3844     		add	r0, r0, r7
 4329              	.LVL422:
1192:Core/Src/stm32746g_discovery_lcd.c ****   
 4330              		.loc 1 1192 40 view .LVU1047
 4331 0062 4310     		asrs	r3, r0, #1
 4332 0064 0393     		str	r3, [sp, #12]
 4333              	.LVL423:
1194:Core/Src/stm32746g_discovery_lcd.c ****   Y_first = Points->Y;
 4334              		.loc 1 1194 3 is_stmt 1 view .LVU1048
1195:Core/Src/stm32746g_discovery_lcd.c ****   
 4335              		.loc 1 1195 3 view .LVU1049
1197:Core/Src/stm32746g_discovery_lcd.c ****   {
 4336              		.loc 1 1197 3 view .LVU1050
1157:Core/Src/stm32746g_discovery_lcd.c ****   uint16_t  image_left = 0, image_right = 0, image_top = 0, image_bottom = 0;
 4337              		.loc 1 1157 33 is_stmt 0 view .LVU1051
 4338 0066 0023     		movs	r3, #0
 4339 0068 0593     		str	r3, [sp, #20]
1157:Core/Src/stm32746g_discovery_lcd.c ****   uint16_t  image_left = 0, image_right = 0, image_top = 0, image_bottom = 0;
 4340              		.loc 1 1157 25 view .LVU1052
 4341 006a 0493     		str	r3, [sp, #16]
 4342 006c A046     		mov	r8, r4
1197:Core/Src/stm32746g_discovery_lcd.c ****   {
 4343              		.loc 1 1197 8 view .LVU1053
 4344 006e 30E0     		b	.L295
 4345              	.LVL424:
 4346              	.L296:
1199:Core/Src/stm32746g_discovery_lcd.c ****     Y = Points->Y;
 4347              		.loc 1 1199 5 is_stmt 1 view .LVU1054
1199:Core/Src/stm32746g_discovery_lcd.c ****     Y = Points->Y;
 4348              		.loc 1 1199 7 is_stmt 0 view .LVU1055
 4349 0070 B8F90070 		ldrsh	r7, [r8]
 4350              	.LVL425:
1200:Core/Src/stm32746g_discovery_lcd.c ****     Points++;
 4351              		.loc 1 1200 5 is_stmt 1 view .LVU1056
1200:Core/Src/stm32746g_discovery_lcd.c ****     Points++;
ARM GAS  C:\Users\jisu8\AppData\Local\Temp\ccieva3z.s 			page 122


 4352              		.loc 1 1200 7 is_stmt 0 view .LVU1057
 4353 0074 B8F90240 		ldrsh	r4, [r8, #2]
 4354              	.LVL426:
1201:Core/Src/stm32746g_discovery_lcd.c ****     X2 = Points->X;
 4355              		.loc 1 1201 5 is_stmt 1 view .LVU1058
1202:Core/Src/stm32746g_discovery_lcd.c ****     Y2 = Points->Y;    
 4356              		.loc 1 1202 5 view .LVU1059
1202:Core/Src/stm32746g_discovery_lcd.c ****     Y2 = Points->Y;    
 4357              		.loc 1 1202 8 is_stmt 0 view .LVU1060
 4358 0078 38F9043F 		ldrsh	r3, [r8, #4]!
 4359              	.LVL427:
1202:Core/Src/stm32746g_discovery_lcd.c ****     Y2 = Points->Y;    
 4360              		.loc 1 1202 8 view .LVU1061
 4361 007c 0493     		str	r3, [sp, #16]
 4362              	.LVL428:
1203:Core/Src/stm32746g_discovery_lcd.c ****     
 4363              		.loc 1 1203 5 is_stmt 1 view .LVU1062
1203:Core/Src/stm32746g_discovery_lcd.c ****     
 4364              		.loc 1 1203 8 is_stmt 0 view .LVU1063
 4365 007e B8F90220 		ldrsh	r2, [r8, #2]
 4366 0082 0592     		str	r2, [sp, #20]
 4367              	.LVL429:
1205:Core/Src/stm32746g_discovery_lcd.c ****     FillTriangle(X, X_center, X2, Y, Y_center, Y2);
 4368              		.loc 1 1205 5 is_stmt 1 view .LVU1064
 4369 0084 BFB2     		uxth	r7, r7
1205:Core/Src/stm32746g_discovery_lcd.c ****     FillTriangle(X, X_center, X2, Y, Y_center, Y2);
 4370              		.loc 1 1205 5 is_stmt 0 view .LVU1065
 4371 0086 1FFA83F9 		uxth	r9, r3
 4372 008a BDF80860 		ldrh	r6, [sp, #8]
 4373 008e A4B2     		uxth	r4, r4
1205:Core/Src/stm32746g_discovery_lcd.c ****     FillTriangle(X, X_center, X2, Y, Y_center, Y2);
 4374              		.loc 1 1205 5 view .LVU1066
 4375 0090 1FFA82FB 		uxth	fp, r2
 4376 0094 BDF80CA0 		ldrh	r10, [sp, #12]
 4377 0098 CDF804A0 		str	r10, [sp, #4]
 4378 009c CDF800B0 		str	fp, [sp]
 4379 00a0 2346     		mov	r3, r4
 4380              	.LVL430:
1205:Core/Src/stm32746g_discovery_lcd.c ****     FillTriangle(X, X_center, X2, Y, Y_center, Y2);
 4381              		.loc 1 1205 5 view .LVU1067
 4382 00a2 3246     		mov	r2, r6
 4383              	.LVL431:
1205:Core/Src/stm32746g_discovery_lcd.c ****     FillTriangle(X, X_center, X2, Y, Y_center, Y2);
 4384              		.loc 1 1205 5 view .LVU1068
 4385 00a4 4946     		mov	r1, r9
 4386 00a6 3846     		mov	r0, r7
 4387 00a8 FFF7FEFF 		bl	FillTriangle
 4388              	.LVL432:
1206:Core/Src/stm32746g_discovery_lcd.c ****     FillTriangle(X_center, X2, X, Y_center, Y2, Y);   
 4389              		.loc 1 1206 5 is_stmt 1 view .LVU1069
 4390 00ac CDF804B0 		str	fp, [sp, #4]
 4391 00b0 CDF800A0 		str	r10, [sp]
 4392 00b4 2346     		mov	r3, r4
 4393 00b6 4A46     		mov	r2, r9
 4394 00b8 3146     		mov	r1, r6
 4395 00ba 3846     		mov	r0, r7
 4396 00bc FFF7FEFF 		bl	FillTriangle
ARM GAS  C:\Users\jisu8\AppData\Local\Temp\ccieva3z.s 			page 123


 4397              	.LVL433:
1207:Core/Src/stm32746g_discovery_lcd.c ****   }
 4398              		.loc 1 1207 5 view .LVU1070
 4399 00c0 0194     		str	r4, [sp, #4]
 4400 00c2 CDF800B0 		str	fp, [sp]
 4401 00c6 5346     		mov	r3, r10
 4402 00c8 3A46     		mov	r2, r7
 4403 00ca 4946     		mov	r1, r9
 4404 00cc 3046     		mov	r0, r6
 4405 00ce FFF7FEFF 		bl	FillTriangle
 4406              	.LVL434:
 4407              	.L295:
1197:Core/Src/stm32746g_discovery_lcd.c ****   {
 4408              		.loc 1 1197 8 view .LVU1071
 4409 00d2 013D     		subs	r5, r5, #1
 4410              	.LVL435:
1197:Core/Src/stm32746g_discovery_lcd.c ****   {
 4411              		.loc 1 1197 8 is_stmt 0 view .LVU1072
 4412 00d4 ADB2     		uxth	r5, r5
 4413              	.LVL436:
1197:Core/Src/stm32746g_discovery_lcd.c ****   {
 4414              		.loc 1 1197 8 view .LVU1073
 4415 00d6 002D     		cmp	r5, #0
 4416 00d8 CAD1     		bne	.L296
1210:Core/Src/stm32746g_discovery_lcd.c ****   FillTriangle(X_first, X_center, X2, Y_first, Y_center, Y2);
 4417              		.loc 1 1210 3 is_stmt 1 view .LVU1074
 4418 00da BDF81060 		ldrh	r6, [sp, #16]
 4419 00de BDF80850 		ldrh	r5, [sp, #8]
 4420              	.LVL437:
1210:Core/Src/stm32746g_discovery_lcd.c ****   FillTriangle(X_first, X_center, X2, Y_first, Y_center, Y2);
 4421              		.loc 1 1210 3 is_stmt 0 view .LVU1075
 4422 00e2 BDF81440 		ldrh	r4, [sp, #20]
 4423 00e6 BDF80C70 		ldrh	r7, [sp, #12]
 4424 00ea 0197     		str	r7, [sp, #4]
 4425 00ec 0094     		str	r4, [sp]
 4426 00ee DDF81C90 		ldr	r9, [sp, #28]
 4427 00f2 4B46     		mov	r3, r9
 4428 00f4 2A46     		mov	r2, r5
 4429 00f6 3146     		mov	r1, r6
 4430 00f8 DDF81880 		ldr	r8, [sp, #24]
 4431              	.LVL438:
1210:Core/Src/stm32746g_discovery_lcd.c ****   FillTriangle(X_first, X_center, X2, Y_first, Y_center, Y2);
 4432              		.loc 1 1210 3 view .LVU1076
 4433 00fc 4046     		mov	r0, r8
 4434 00fe FFF7FEFF 		bl	FillTriangle
 4435              	.LVL439:
1211:Core/Src/stm32746g_discovery_lcd.c ****   FillTriangle(X_center, X2, X_first, Y_center, Y2, Y_first);   
 4436              		.loc 1 1211 3 is_stmt 1 view .LVU1077
 4437 0102 0194     		str	r4, [sp, #4]
 4438 0104 0097     		str	r7, [sp]
 4439 0106 4B46     		mov	r3, r9
 4440 0108 3246     		mov	r2, r6
 4441 010a 2946     		mov	r1, r5
 4442 010c 4046     		mov	r0, r8
 4443 010e FFF7FEFF 		bl	FillTriangle
 4444              	.LVL440:
1212:Core/Src/stm32746g_discovery_lcd.c **** }
ARM GAS  C:\Users\jisu8\AppData\Local\Temp\ccieva3z.s 			page 124


 4445              		.loc 1 1212 3 view .LVU1078
 4446 0112 CDF80490 		str	r9, [sp, #4]
 4447 0116 0094     		str	r4, [sp]
 4448 0118 3B46     		mov	r3, r7
 4449 011a 4246     		mov	r2, r8
 4450 011c 3146     		mov	r1, r6
 4451 011e 2846     		mov	r0, r5
 4452 0120 FFF7FEFF 		bl	FillTriangle
 4453              	.LVL441:
 4454              	.L285:
1213:Core/Src/stm32746g_discovery_lcd.c **** 
 4455              		.loc 1 1213 1 is_stmt 0 view .LVU1079
 4456 0124 09B0     		add	sp, sp, #36
 4457              	.LCFI72:
 4458              		.cfi_def_cfa_offset 36
 4459              		@ sp needed
 4460 0126 BDE8F08F 		pop	{r4, r5, r6, r7, r8, r9, r10, fp, pc}
 4461              		.cfi_endproc
 4462              	.LFE186:
 4464              		.section	.text.BSP_LCD_FillEllipse,"ax",%progbits
 4465              		.align	1
 4466              		.global	BSP_LCD_FillEllipse
 4467              		.syntax unified
 4468              		.thumb
 4469              		.thumb_func
 4471              	BSP_LCD_FillEllipse:
 4472              	.LVL442:
 4473              	.LFB187:
1224:Core/Src/stm32746g_discovery_lcd.c ****   int x = 0, y = -YRadius, err = 2-2*XRadius, e2;
 4474              		.loc 1 1224 1 is_stmt 1 view -0
 4475              		.cfi_startproc
 4476              		@ args = 0, pretend = 0, frame = 8
 4477              		@ frame_needed = 0, uses_anonymous_args = 0
1224:Core/Src/stm32746g_discovery_lcd.c ****   int x = 0, y = -YRadius, err = 2-2*XRadius, e2;
 4478              		.loc 1 1224 1 is_stmt 0 view .LVU1081
 4479 0000 2DE9F04F 		push	{r4, r5, r6, r7, r8, r9, r10, fp, lr}
 4480              	.LCFI73:
 4481              		.cfi_def_cfa_offset 36
 4482              		.cfi_offset 4, -36
 4483              		.cfi_offset 5, -32
 4484              		.cfi_offset 6, -28
 4485              		.cfi_offset 7, -24
 4486              		.cfi_offset 8, -20
 4487              		.cfi_offset 9, -16
 4488              		.cfi_offset 10, -12
 4489              		.cfi_offset 11, -8
 4490              		.cfi_offset 14, -4
 4491 0004 2DED028B 		vpush.64	{d8}
 4492              	.LCFI74:
 4493              		.cfi_def_cfa_offset 44
 4494              		.cfi_offset 80, -44
 4495              		.cfi_offset 81, -40
 4496 0008 83B0     		sub	sp, sp, #12
 4497              	.LCFI75:
 4498              		.cfi_def_cfa_offset 56
 4499 000a 8346     		mov	fp, r0
 4500 000c 0191     		str	r1, [sp, #4]
ARM GAS  C:\Users\jisu8\AppData\Local\Temp\ccieva3z.s 			page 125


1225:Core/Src/stm32746g_discovery_lcd.c ****   float k = 0, rad1 = 0, rad2 = 0;
 4501              		.loc 1 1225 3 is_stmt 1 view .LVU1082
 4502              	.LVL443:
1225:Core/Src/stm32746g_discovery_lcd.c ****   float k = 0, rad1 = 0, rad2 = 0;
 4503              		.loc 1 1225 14 is_stmt 0 view .LVU1083
 4504 000e 5F42     		rsbs	r7, r3, #0
 4505              	.LVL444:
1225:Core/Src/stm32746g_discovery_lcd.c ****   float k = 0, rad1 = 0, rad2 = 0;
 4506              		.loc 1 1225 35 view .LVU1084
 4507 0010 C2F10106 		rsb	r6, r2, #1
1225:Core/Src/stm32746g_discovery_lcd.c ****   float k = 0, rad1 = 0, rad2 = 0;
 4508              		.loc 1 1225 28 view .LVU1085
 4509 0014 7600     		lsls	r6, r6, #1
 4510              	.LVL445:
1226:Core/Src/stm32746g_discovery_lcd.c ****   
 4511              		.loc 1 1226 3 is_stmt 1 view .LVU1086
1228:Core/Src/stm32746g_discovery_lcd.c ****   rad2 = YRadius;
 4512              		.loc 1 1228 3 view .LVU1087
1228:Core/Src/stm32746g_discovery_lcd.c ****   rad2 = YRadius;
 4513              		.loc 1 1228 8 is_stmt 0 view .LVU1088
 4514 0016 07EE902A 		vmov	s15, r2	@ int
 4515 001a F8EEE77A 		vcvt.f32.s32	s15, s15
 4516              	.LVL446:
1229:Core/Src/stm32746g_discovery_lcd.c ****   
 4517              		.loc 1 1229 3 is_stmt 1 view .LVU1089
1229:Core/Src/stm32746g_discovery_lcd.c ****   
 4518              		.loc 1 1229 8 is_stmt 0 view .LVU1090
 4519 001e 07EE103A 		vmov	s14, r3	@ int
 4520 0022 B8EEC77A 		vcvt.f32.s32	s14, s14
 4521              	.LVL447:
1231:Core/Src/stm32746g_discovery_lcd.c ****   
 4522              		.loc 1 1231 3 is_stmt 1 view .LVU1091
1231:Core/Src/stm32746g_discovery_lcd.c ****   
 4523              		.loc 1 1231 5 is_stmt 0 view .LVU1092
 4524 0026 87EE278A 		vdiv.f32	s16, s14, s15
 4525              	.LVL448:
1225:Core/Src/stm32746g_discovery_lcd.c ****   float k = 0, rad1 = 0, rad2 = 0;
 4526              		.loc 1 1225 7 view .LVU1093
 4527 002a 4FF0000A 		mov	r10, #0
 4528 002e 08E0     		b	.L302
 4529              	.LVL449:
 4530              	.L303:
1225:Core/Src/stm32746g_discovery_lcd.c ****   float k = 0, rad1 = 0, rad2 = 0;
 4531              		.loc 1 1225 7 view .LVU1094
 4532 0030 3346     		mov	r3, r6
 4533              	.LVL450:
 4534              	.L300:
1244:Core/Src/stm32746g_discovery_lcd.c ****   }
 4535              		.loc 1 1244 5 is_stmt 1 view .LVU1095
1244:Core/Src/stm32746g_discovery_lcd.c ****   }
 4536              		.loc 1 1244 8 is_stmt 0 view .LVU1096
 4537 0032 B742     		cmp	r7, r6
 4538 0034 38DA     		bge	.L305
1244:Core/Src/stm32746g_discovery_lcd.c ****   }
 4539              		.loc 1 1244 17 is_stmt 1 discriminator 1 view .LVU1097
1244:Core/Src/stm32746g_discovery_lcd.c ****   }
 4540              		.loc 1 1244 29 is_stmt 0 discriminator 1 view .LVU1098
ARM GAS  C:\Users\jisu8\AppData\Local\Temp\ccieva3z.s 			page 126


 4541 0036 0137     		adds	r7, r7, #1
 4542              	.LVL451:
1244:Core/Src/stm32746g_discovery_lcd.c ****   }
 4543              		.loc 1 1244 27 discriminator 1 view .LVU1099
 4544 0038 7E00     		lsls	r6, r7, #1
 4545              	.LVL452:
1244:Core/Src/stm32746g_discovery_lcd.c ****   }
 4546              		.loc 1 1244 29 discriminator 1 view .LVU1100
 4547 003a 0136     		adds	r6, r6, #1
1244:Core/Src/stm32746g_discovery_lcd.c ****   }
 4548              		.loc 1 1244 21 discriminator 1 view .LVU1101
 4549 003c 1E44     		add	r6, r6, r3
 4550              	.LVL453:
 4551              	.L301:
1246:Core/Src/stm32746g_discovery_lcd.c **** }
 4552              		.loc 1 1246 9 is_stmt 1 view .LVU1102
1246:Core/Src/stm32746g_discovery_lcd.c **** }
 4553              		.loc 1 1246 3 is_stmt 0 view .LVU1103
 4554 003e 002F     		cmp	r7, #0
 4555 0040 34DC     		bgt	.L307
 4556              	.LVL454:
 4557              	.L302:
1233:Core/Src/stm32746g_discovery_lcd.c ****   {       
 4558              		.loc 1 1233 3 is_stmt 1 view .LVU1104
1235:Core/Src/stm32746g_discovery_lcd.c ****     BSP_LCD_DrawHLine((Xpos-(uint16_t)(x/k)), (Ypos-y), (2*(uint16_t)(x/k) + 1));
 4559              		.loc 1 1235 5 view .LVU1105
1235:Core/Src/stm32746g_discovery_lcd.c ****     BSP_LCD_DrawHLine((Xpos-(uint16_t)(x/k)), (Ypos-y), (2*(uint16_t)(x/k) + 1));
 4560              		.loc 1 1235 41 is_stmt 0 view .LVU1106
 4561 0042 07EE90AA 		vmov	s15, r10	@ int
 4562 0046 B8EEE77A 		vcvt.f32.s32	s14, s15
 4563 004a C7EE087A 		vdiv.f32	s15, s14, s16
1235:Core/Src/stm32746g_discovery_lcd.c ****     BSP_LCD_DrawHLine((Xpos-(uint16_t)(x/k)), (Ypos-y), (2*(uint16_t)(x/k) + 1));
 4564              		.loc 1 1235 29 view .LVU1107
 4565 004e FCEEE77A 		vcvt.u32.f32	s15, s15
 4566 0052 17EE903A 		vmov	r3, s15	@ int
 4567 0056 9CB2     		uxth	r4, r3
1235:Core/Src/stm32746g_discovery_lcd.c ****     BSP_LCD_DrawHLine((Xpos-(uint16_t)(x/k)), (Ypos-y), (2*(uint16_t)(x/k) + 1));
 4568              		.loc 1 1235 5 view .LVU1108
 4569 0058 ABEB0408 		sub	r8, fp, r4
 4570 005c 1FFA88F8 		uxth	r8, r8
 4571 0060 BDF80450 		ldrh	r5, [sp, #4]
 4572 0064 1FFA87F9 		uxth	r9, r7
 4573 0068 6400     		lsls	r4, r4, #1
 4574 006a 0134     		adds	r4, r4, #1
 4575 006c A4B2     		uxth	r4, r4
 4576 006e 05EB0901 		add	r1, r5, r9
 4577 0072 2246     		mov	r2, r4
 4578 0074 89B2     		uxth	r1, r1
 4579 0076 4046     		mov	r0, r8
 4580 0078 FFF7FEFF 		bl	BSP_LCD_DrawHLine
 4581              	.LVL455:
1236:Core/Src/stm32746g_discovery_lcd.c ****     
 4582              		.loc 1 1236 5 is_stmt 1 view .LVU1109
 4583 007c A5EB0901 		sub	r1, r5, r9
 4584 0080 2246     		mov	r2, r4
 4585 0082 89B2     		uxth	r1, r1
 4586 0084 4046     		mov	r0, r8
ARM GAS  C:\Users\jisu8\AppData\Local\Temp\ccieva3z.s 			page 127


 4587 0086 FFF7FEFF 		bl	BSP_LCD_DrawHLine
 4588              	.LVL456:
1238:Core/Src/stm32746g_discovery_lcd.c ****     if (e2 <= x) 
 4589              		.loc 1 1238 5 view .LVU1110
1239:Core/Src/stm32746g_discovery_lcd.c ****     {
 4590              		.loc 1 1239 5 view .LVU1111
1239:Core/Src/stm32746g_discovery_lcd.c ****     {
 4591              		.loc 1 1239 8 is_stmt 0 view .LVU1112
 4592 008a B245     		cmp	r10, r6
 4593 008c D0DB     		blt	.L303
1241:Core/Src/stm32746g_discovery_lcd.c ****       if (-y == x && e2 <= y) e2 = 0;
 4594              		.loc 1 1241 7 is_stmt 1 view .LVU1113
1241:Core/Src/stm32746g_discovery_lcd.c ****       if (-y == x && e2 <= y) e2 = 0;
 4595              		.loc 1 1241 19 is_stmt 0 view .LVU1114
 4596 008e 0AF1010A 		add	r10, r10, #1
 4597              	.LVL457:
1241:Core/Src/stm32746g_discovery_lcd.c ****       if (-y == x && e2 <= y) e2 = 0;
 4598              		.loc 1 1241 17 view .LVU1115
 4599 0092 4FEA4A03 		lsl	r3, r10, #1
1241:Core/Src/stm32746g_discovery_lcd.c ****       if (-y == x && e2 <= y) e2 = 0;
 4600              		.loc 1 1241 19 view .LVU1116
 4601 0096 0133     		adds	r3, r3, #1
1241:Core/Src/stm32746g_discovery_lcd.c ****       if (-y == x && e2 <= y) e2 = 0;
 4602              		.loc 1 1241 11 view .LVU1117
 4603 0098 3344     		add	r3, r3, r6
 4604              	.LVL458:
1242:Core/Src/stm32746g_discovery_lcd.c ****     }
 4605              		.loc 1 1242 7 is_stmt 1 view .LVU1118
1242:Core/Src/stm32746g_discovery_lcd.c ****     }
 4606              		.loc 1 1242 10 is_stmt 0 view .LVU1119
 4607 009a 1AEB070F 		cmn	r10, r7
 4608 009e C8D1     		bne	.L300
1242:Core/Src/stm32746g_discovery_lcd.c ****     }
 4609              		.loc 1 1242 19 discriminator 1 view .LVU1120
 4610 00a0 B742     		cmp	r7, r6
 4611 00a2 C6DB     		blt	.L300
1242:Core/Src/stm32746g_discovery_lcd.c ****     }
 4612              		.loc 1 1242 34 view .LVU1121
 4613 00a4 0026     		movs	r6, #0
 4614              	.LVL459:
1242:Core/Src/stm32746g_discovery_lcd.c ****     }
 4615              		.loc 1 1242 34 view .LVU1122
 4616 00a6 C4E7     		b	.L300
 4617              	.LVL460:
 4618              	.L305:
1242:Core/Src/stm32746g_discovery_lcd.c ****     }
 4619              		.loc 1 1242 34 view .LVU1123
 4620 00a8 1E46     		mov	r6, r3
 4621              	.LVL461:
1242:Core/Src/stm32746g_discovery_lcd.c ****     }
 4622              		.loc 1 1242 34 view .LVU1124
 4623 00aa C8E7     		b	.L301
 4624              	.LVL462:
 4625              	.L307:
1247:Core/Src/stm32746g_discovery_lcd.c **** 
 4626              		.loc 1 1247 1 view .LVU1125
 4627 00ac 03B0     		add	sp, sp, #12
ARM GAS  C:\Users\jisu8\AppData\Local\Temp\ccieva3z.s 			page 128


 4628              	.LCFI76:
 4629              		.cfi_def_cfa_offset 44
 4630              		@ sp needed
 4631 00ae BDEC028B 		vldm	sp!, {d8}
 4632              	.LCFI77:
 4633              		.cfi_restore 80
 4634              		.cfi_restore 81
 4635              		.cfi_def_cfa_offset 36
 4636              	.LVL463:
1247:Core/Src/stm32746g_discovery_lcd.c **** 
 4637              		.loc 1 1247 1 view .LVU1126
 4638 00b2 BDE8F08F 		pop	{r4, r5, r6, r7, r8, r9, r10, fp, pc}
1247:Core/Src/stm32746g_discovery_lcd.c **** 
 4639              		.loc 1 1247 1 view .LVU1127
 4640              		.cfi_endproc
 4641              	.LFE187:
 4643              		.section	.text.BSP_LCD_DisplayOn,"ax",%progbits
 4644              		.align	1
 4645              		.global	BSP_LCD_DisplayOn
 4646              		.syntax unified
 4647              		.thumb
 4648              		.thumb_func
 4650              	BSP_LCD_DisplayOn:
 4651              	.LFB188:
1254:Core/Src/stm32746g_discovery_lcd.c ****   /* Display On */
 4652              		.loc 1 1254 1 is_stmt 1 view -0
 4653              		.cfi_startproc
 4654              		@ args = 0, pretend = 0, frame = 0
 4655              		@ frame_needed = 0, uses_anonymous_args = 0
 4656 0000 08B5     		push	{r3, lr}
 4657              	.LCFI78:
 4658              		.cfi_def_cfa_offset 8
 4659              		.cfi_offset 3, -8
 4660              		.cfi_offset 14, -4
1256:Core/Src/stm32746g_discovery_lcd.c ****   HAL_GPIO_WritePin(LCD_DISP_GPIO_PORT, LCD_DISP_PIN, GPIO_PIN_SET);        /* Assert LCD_DISP pin 
 4661              		.loc 1 1256 3 view .LVU1129
 4662 0002 094B     		ldr	r3, .L310
 4663 0004 1A68     		ldr	r2, [r3]
 4664 0006 9369     		ldr	r3, [r2, #24]
 4665 0008 43F00103 		orr	r3, r3, #1
 4666 000c 9361     		str	r3, [r2, #24]
1257:Core/Src/stm32746g_discovery_lcd.c ****   HAL_GPIO_WritePin(LCD_BL_CTRL_GPIO_PORT, LCD_BL_CTRL_PIN, GPIO_PIN_SET);  /* Assert LCD_BL_CTRL p
 4667              		.loc 1 1257 3 view .LVU1130
 4668 000e 0122     		movs	r2, #1
 4669 0010 4FF48051 		mov	r1, #4096
 4670 0014 0548     		ldr	r0, .L310+4
 4671 0016 FFF7FEFF 		bl	HAL_GPIO_WritePin
 4672              	.LVL464:
1258:Core/Src/stm32746g_discovery_lcd.c **** }
 4673              		.loc 1 1258 3 view .LVU1131
 4674 001a 0122     		movs	r2, #1
 4675 001c 0821     		movs	r1, #8
 4676 001e 0448     		ldr	r0, .L310+8
 4677 0020 FFF7FEFF 		bl	HAL_GPIO_WritePin
 4678              	.LVL465:
1259:Core/Src/stm32746g_discovery_lcd.c **** 
 4679              		.loc 1 1259 1 is_stmt 0 view .LVU1132
ARM GAS  C:\Users\jisu8\AppData\Local\Temp\ccieva3z.s 			page 129


 4680 0024 08BD     		pop	{r3, pc}
 4681              	.L311:
 4682 0026 00BF     		.align	2
 4683              	.L310:
 4684 0028 00000000 		.word	.LANCHOR1
 4685 002c 00200240 		.word	1073881088
 4686 0030 00280240 		.word	1073883136
 4687              		.cfi_endproc
 4688              	.LFE188:
 4690              		.section	.text.BSP_LCD_DisplayOff,"ax",%progbits
 4691              		.align	1
 4692              		.global	BSP_LCD_DisplayOff
 4693              		.syntax unified
 4694              		.thumb
 4695              		.thumb_func
 4697              	BSP_LCD_DisplayOff:
 4698              	.LFB189:
1266:Core/Src/stm32746g_discovery_lcd.c ****   /* Display Off */
 4699              		.loc 1 1266 1 is_stmt 1 view -0
 4700              		.cfi_startproc
 4701              		@ args = 0, pretend = 0, frame = 0
 4702              		@ frame_needed = 0, uses_anonymous_args = 0
 4703 0000 08B5     		push	{r3, lr}
 4704              	.LCFI79:
 4705              		.cfi_def_cfa_offset 8
 4706              		.cfi_offset 3, -8
 4707              		.cfi_offset 14, -4
1268:Core/Src/stm32746g_discovery_lcd.c ****   HAL_GPIO_WritePin(LCD_DISP_GPIO_PORT, LCD_DISP_PIN, GPIO_PIN_RESET);      /* De-assert LCD_DISP p
 4708              		.loc 1 1268 3 view .LVU1134
 4709 0002 094B     		ldr	r3, .L314
 4710 0004 1A68     		ldr	r2, [r3]
 4711 0006 9369     		ldr	r3, [r2, #24]
 4712 0008 23F00103 		bic	r3, r3, #1
 4713 000c 9361     		str	r3, [r2, #24]
1269:Core/Src/stm32746g_discovery_lcd.c ****   HAL_GPIO_WritePin(LCD_BL_CTRL_GPIO_PORT, LCD_BL_CTRL_PIN, GPIO_PIN_RESET);/* De-assert LCD_BL_CTR
 4714              		.loc 1 1269 3 view .LVU1135
 4715 000e 0022     		movs	r2, #0
 4716 0010 4FF48051 		mov	r1, #4096
 4717 0014 0548     		ldr	r0, .L314+4
 4718 0016 FFF7FEFF 		bl	HAL_GPIO_WritePin
 4719              	.LVL466:
1270:Core/Src/stm32746g_discovery_lcd.c **** }
 4720              		.loc 1 1270 3 view .LVU1136
 4721 001a 0022     		movs	r2, #0
 4722 001c 0821     		movs	r1, #8
 4723 001e 0448     		ldr	r0, .L314+8
 4724 0020 FFF7FEFF 		bl	HAL_GPIO_WritePin
 4725              	.LVL467:
1271:Core/Src/stm32746g_discovery_lcd.c **** 
 4726              		.loc 1 1271 1 is_stmt 0 view .LVU1137
 4727 0024 08BD     		pop	{r3, pc}
 4728              	.L315:
 4729 0026 00BF     		.align	2
 4730              	.L314:
 4731 0028 00000000 		.word	.LANCHOR1
 4732 002c 00200240 		.word	1073881088
 4733 0030 00280240 		.word	1073883136
ARM GAS  C:\Users\jisu8\AppData\Local\Temp\ccieva3z.s 			page 130


 4734              		.cfi_endproc
 4735              	.LFE189:
 4737              		.section	.text.BSP_LCD_MspInit,"ax",%progbits
 4738              		.align	1
 4739              		.weak	BSP_LCD_MspInit
 4740              		.syntax unified
 4741              		.thumb
 4742              		.thumb_func
 4744              	BSP_LCD_MspInit:
 4745              	.LVL468:
 4746              	.LFB190:
1280:Core/Src/stm32746g_discovery_lcd.c ****   GPIO_InitTypeDef gpio_init_structure;
 4747              		.loc 1 1280 1 is_stmt 1 view -0
 4748              		.cfi_startproc
 4749              		@ args = 0, pretend = 0, frame = 56
 4750              		@ frame_needed = 0, uses_anonymous_args = 0
1280:Core/Src/stm32746g_discovery_lcd.c ****   GPIO_InitTypeDef gpio_init_structure;
 4751              		.loc 1 1280 1 is_stmt 0 view .LVU1139
 4752 0000 F0B5     		push	{r4, r5, r6, r7, lr}
 4753              	.LCFI80:
 4754              		.cfi_def_cfa_offset 20
 4755              		.cfi_offset 4, -20
 4756              		.cfi_offset 5, -16
 4757              		.cfi_offset 6, -12
 4758              		.cfi_offset 7, -8
 4759              		.cfi_offset 14, -4
 4760 0002 8FB0     		sub	sp, sp, #60
 4761              	.LCFI81:
 4762              		.cfi_def_cfa_offset 80
1281:Core/Src/stm32746g_discovery_lcd.c ****   
 4763              		.loc 1 1281 3 is_stmt 1 view .LVU1140
1284:Core/Src/stm32746g_discovery_lcd.c ****   __HAL_RCC_DMA2D_CLK_ENABLE();
 4764              		.loc 1 1284 3 view .LVU1141
 4765              	.LBB2:
1284:Core/Src/stm32746g_discovery_lcd.c ****   __HAL_RCC_DMA2D_CLK_ENABLE();
 4766              		.loc 1 1284 3 view .LVU1142
1284:Core/Src/stm32746g_discovery_lcd.c ****   __HAL_RCC_DMA2D_CLK_ENABLE();
 4767              		.loc 1 1284 3 view .LVU1143
 4768 0004 4A4B     		ldr	r3, .L318
 4769 0006 5A6C     		ldr	r2, [r3, #68]
 4770 0008 42F08062 		orr	r2, r2, #67108864
 4771 000c 5A64     		str	r2, [r3, #68]
1284:Core/Src/stm32746g_discovery_lcd.c ****   __HAL_RCC_DMA2D_CLK_ENABLE();
 4772              		.loc 1 1284 3 view .LVU1144
 4773 000e 5A6C     		ldr	r2, [r3, #68]
 4774 0010 02F08062 		and	r2, r2, #67108864
 4775 0014 0092     		str	r2, [sp]
1284:Core/Src/stm32746g_discovery_lcd.c ****   __HAL_RCC_DMA2D_CLK_ENABLE();
 4776              		.loc 1 1284 3 view .LVU1145
 4777 0016 009A     		ldr	r2, [sp]
 4778              	.LBE2:
1284:Core/Src/stm32746g_discovery_lcd.c ****   __HAL_RCC_DMA2D_CLK_ENABLE();
 4779              		.loc 1 1284 3 view .LVU1146
1285:Core/Src/stm32746g_discovery_lcd.c ****   
 4780              		.loc 1 1285 3 view .LVU1147
 4781              	.LBB3:
1285:Core/Src/stm32746g_discovery_lcd.c ****   
ARM GAS  C:\Users\jisu8\AppData\Local\Temp\ccieva3z.s 			page 131


 4782              		.loc 1 1285 3 view .LVU1148
1285:Core/Src/stm32746g_discovery_lcd.c ****   
 4783              		.loc 1 1285 3 view .LVU1149
 4784 0018 1A6B     		ldr	r2, [r3, #48]
 4785 001a 42F40002 		orr	r2, r2, #8388608
 4786 001e 1A63     		str	r2, [r3, #48]
1285:Core/Src/stm32746g_discovery_lcd.c ****   
 4787              		.loc 1 1285 3 view .LVU1150
 4788 0020 1A6B     		ldr	r2, [r3, #48]
 4789 0022 02F40002 		and	r2, r2, #8388608
 4790 0026 0192     		str	r2, [sp, #4]
1285:Core/Src/stm32746g_discovery_lcd.c ****   
 4791              		.loc 1 1285 3 view .LVU1151
 4792 0028 019A     		ldr	r2, [sp, #4]
 4793              	.LBE3:
1285:Core/Src/stm32746g_discovery_lcd.c ****   
 4794              		.loc 1 1285 3 view .LVU1152
1288:Core/Src/stm32746g_discovery_lcd.c ****   __HAL_RCC_GPIOG_CLK_ENABLE();
 4795              		.loc 1 1288 3 view .LVU1153
 4796              	.LBB4:
1288:Core/Src/stm32746g_discovery_lcd.c ****   __HAL_RCC_GPIOG_CLK_ENABLE();
 4797              		.loc 1 1288 3 view .LVU1154
1288:Core/Src/stm32746g_discovery_lcd.c ****   __HAL_RCC_GPIOG_CLK_ENABLE();
 4798              		.loc 1 1288 3 view .LVU1155
 4799 002a 1A6B     		ldr	r2, [r3, #48]
 4800 002c 42F01002 		orr	r2, r2, #16
 4801 0030 1A63     		str	r2, [r3, #48]
1288:Core/Src/stm32746g_discovery_lcd.c ****   __HAL_RCC_GPIOG_CLK_ENABLE();
 4802              		.loc 1 1288 3 view .LVU1156
 4803 0032 1A6B     		ldr	r2, [r3, #48]
 4804 0034 02F01002 		and	r2, r2, #16
 4805 0038 0292     		str	r2, [sp, #8]
1288:Core/Src/stm32746g_discovery_lcd.c ****   __HAL_RCC_GPIOG_CLK_ENABLE();
 4806              		.loc 1 1288 3 view .LVU1157
 4807 003a 029A     		ldr	r2, [sp, #8]
 4808              	.LBE4:
1288:Core/Src/stm32746g_discovery_lcd.c ****   __HAL_RCC_GPIOG_CLK_ENABLE();
 4809              		.loc 1 1288 3 view .LVU1158
1289:Core/Src/stm32746g_discovery_lcd.c ****   __HAL_RCC_GPIOI_CLK_ENABLE();
 4810              		.loc 1 1289 3 view .LVU1159
 4811              	.LBB5:
1289:Core/Src/stm32746g_discovery_lcd.c ****   __HAL_RCC_GPIOI_CLK_ENABLE();
 4812              		.loc 1 1289 3 view .LVU1160
1289:Core/Src/stm32746g_discovery_lcd.c ****   __HAL_RCC_GPIOI_CLK_ENABLE();
 4813              		.loc 1 1289 3 view .LVU1161
 4814 003c 1A6B     		ldr	r2, [r3, #48]
 4815 003e 42F04002 		orr	r2, r2, #64
 4816 0042 1A63     		str	r2, [r3, #48]
1289:Core/Src/stm32746g_discovery_lcd.c ****   __HAL_RCC_GPIOI_CLK_ENABLE();
 4817              		.loc 1 1289 3 view .LVU1162
 4818 0044 1A6B     		ldr	r2, [r3, #48]
 4819 0046 02F04002 		and	r2, r2, #64
 4820 004a 0392     		str	r2, [sp, #12]
1289:Core/Src/stm32746g_discovery_lcd.c ****   __HAL_RCC_GPIOI_CLK_ENABLE();
 4821              		.loc 1 1289 3 view .LVU1163
 4822 004c 039A     		ldr	r2, [sp, #12]
 4823              	.LBE5:
ARM GAS  C:\Users\jisu8\AppData\Local\Temp\ccieva3z.s 			page 132


1289:Core/Src/stm32746g_discovery_lcd.c ****   __HAL_RCC_GPIOI_CLK_ENABLE();
 4824              		.loc 1 1289 3 view .LVU1164
1290:Core/Src/stm32746g_discovery_lcd.c ****   __HAL_RCC_GPIOJ_CLK_ENABLE();
 4825              		.loc 1 1290 3 view .LVU1165
 4826              	.LBB6:
1290:Core/Src/stm32746g_discovery_lcd.c ****   __HAL_RCC_GPIOJ_CLK_ENABLE();
 4827              		.loc 1 1290 3 view .LVU1166
1290:Core/Src/stm32746g_discovery_lcd.c ****   __HAL_RCC_GPIOJ_CLK_ENABLE();
 4828              		.loc 1 1290 3 view .LVU1167
 4829 004e 1A6B     		ldr	r2, [r3, #48]
 4830 0050 42F48072 		orr	r2, r2, #256
 4831 0054 1A63     		str	r2, [r3, #48]
1290:Core/Src/stm32746g_discovery_lcd.c ****   __HAL_RCC_GPIOJ_CLK_ENABLE();
 4832              		.loc 1 1290 3 view .LVU1168
 4833 0056 1A6B     		ldr	r2, [r3, #48]
 4834 0058 02F48072 		and	r2, r2, #256
 4835 005c 0492     		str	r2, [sp, #16]
1290:Core/Src/stm32746g_discovery_lcd.c ****   __HAL_RCC_GPIOJ_CLK_ENABLE();
 4836              		.loc 1 1290 3 view .LVU1169
 4837 005e 049A     		ldr	r2, [sp, #16]
 4838              	.LBE6:
1290:Core/Src/stm32746g_discovery_lcd.c ****   __HAL_RCC_GPIOJ_CLK_ENABLE();
 4839              		.loc 1 1290 3 view .LVU1170
1291:Core/Src/stm32746g_discovery_lcd.c ****   __HAL_RCC_GPIOK_CLK_ENABLE();
 4840              		.loc 1 1291 3 view .LVU1171
 4841              	.LBB7:
1291:Core/Src/stm32746g_discovery_lcd.c ****   __HAL_RCC_GPIOK_CLK_ENABLE();
 4842              		.loc 1 1291 3 view .LVU1172
1291:Core/Src/stm32746g_discovery_lcd.c ****   __HAL_RCC_GPIOK_CLK_ENABLE();
 4843              		.loc 1 1291 3 view .LVU1173
 4844 0060 1A6B     		ldr	r2, [r3, #48]
 4845 0062 42F40072 		orr	r2, r2, #512
 4846 0066 1A63     		str	r2, [r3, #48]
1291:Core/Src/stm32746g_discovery_lcd.c ****   __HAL_RCC_GPIOK_CLK_ENABLE();
 4847              		.loc 1 1291 3 view .LVU1174
 4848 0068 1A6B     		ldr	r2, [r3, #48]
 4849 006a 02F40072 		and	r2, r2, #512
 4850 006e 0592     		str	r2, [sp, #20]
1291:Core/Src/stm32746g_discovery_lcd.c ****   __HAL_RCC_GPIOK_CLK_ENABLE();
 4851              		.loc 1 1291 3 view .LVU1175
 4852 0070 059A     		ldr	r2, [sp, #20]
 4853              	.LBE7:
1291:Core/Src/stm32746g_discovery_lcd.c ****   __HAL_RCC_GPIOK_CLK_ENABLE();
 4854              		.loc 1 1291 3 view .LVU1176
1292:Core/Src/stm32746g_discovery_lcd.c ****   LCD_DISP_GPIO_CLK_ENABLE();
 4855              		.loc 1 1292 3 view .LVU1177
 4856              	.LBB8:
1292:Core/Src/stm32746g_discovery_lcd.c ****   LCD_DISP_GPIO_CLK_ENABLE();
 4857              		.loc 1 1292 3 view .LVU1178
1292:Core/Src/stm32746g_discovery_lcd.c ****   LCD_DISP_GPIO_CLK_ENABLE();
 4858              		.loc 1 1292 3 view .LVU1179
 4859 0072 1A6B     		ldr	r2, [r3, #48]
 4860 0074 42F48062 		orr	r2, r2, #1024
 4861 0078 1A63     		str	r2, [r3, #48]
1292:Core/Src/stm32746g_discovery_lcd.c ****   LCD_DISP_GPIO_CLK_ENABLE();
 4862              		.loc 1 1292 3 view .LVU1180
 4863 007a 1A6B     		ldr	r2, [r3, #48]
ARM GAS  C:\Users\jisu8\AppData\Local\Temp\ccieva3z.s 			page 133


 4864 007c 02F48062 		and	r2, r2, #1024
 4865 0080 0692     		str	r2, [sp, #24]
1292:Core/Src/stm32746g_discovery_lcd.c ****   LCD_DISP_GPIO_CLK_ENABLE();
 4866              		.loc 1 1292 3 view .LVU1181
 4867 0082 069A     		ldr	r2, [sp, #24]
 4868              	.LBE8:
1292:Core/Src/stm32746g_discovery_lcd.c ****   LCD_DISP_GPIO_CLK_ENABLE();
 4869              		.loc 1 1292 3 view .LVU1182
1293:Core/Src/stm32746g_discovery_lcd.c ****   LCD_BL_CTRL_GPIO_CLK_ENABLE();
 4870              		.loc 1 1293 3 view .LVU1183
 4871              	.LBB9:
1293:Core/Src/stm32746g_discovery_lcd.c ****   LCD_BL_CTRL_GPIO_CLK_ENABLE();
 4872              		.loc 1 1293 3 view .LVU1184
1293:Core/Src/stm32746g_discovery_lcd.c ****   LCD_BL_CTRL_GPIO_CLK_ENABLE();
 4873              		.loc 1 1293 3 view .LVU1185
 4874 0084 1A6B     		ldr	r2, [r3, #48]
 4875 0086 42F48072 		orr	r2, r2, #256
 4876 008a 1A63     		str	r2, [r3, #48]
1293:Core/Src/stm32746g_discovery_lcd.c ****   LCD_BL_CTRL_GPIO_CLK_ENABLE();
 4877              		.loc 1 1293 3 view .LVU1186
 4878 008c 1A6B     		ldr	r2, [r3, #48]
 4879 008e 02F48072 		and	r2, r2, #256
 4880 0092 0792     		str	r2, [sp, #28]
1293:Core/Src/stm32746g_discovery_lcd.c ****   LCD_BL_CTRL_GPIO_CLK_ENABLE();
 4881              		.loc 1 1293 3 view .LVU1187
 4882 0094 079A     		ldr	r2, [sp, #28]
 4883              	.LBE9:
1293:Core/Src/stm32746g_discovery_lcd.c ****   LCD_BL_CTRL_GPIO_CLK_ENABLE();
 4884              		.loc 1 1293 3 view .LVU1188
1294:Core/Src/stm32746g_discovery_lcd.c **** 
 4885              		.loc 1 1294 3 view .LVU1189
 4886              	.LBB10:
1294:Core/Src/stm32746g_discovery_lcd.c **** 
 4887              		.loc 1 1294 3 view .LVU1190
1294:Core/Src/stm32746g_discovery_lcd.c **** 
 4888              		.loc 1 1294 3 view .LVU1191
 4889 0096 1A6B     		ldr	r2, [r3, #48]
 4890 0098 42F48062 		orr	r2, r2, #1024
 4891 009c 1A63     		str	r2, [r3, #48]
1294:Core/Src/stm32746g_discovery_lcd.c **** 
 4892              		.loc 1 1294 3 view .LVU1192
 4893 009e 1B6B     		ldr	r3, [r3, #48]
 4894 00a0 03F48063 		and	r3, r3, #1024
 4895 00a4 0893     		str	r3, [sp, #32]
1294:Core/Src/stm32746g_discovery_lcd.c **** 
 4896              		.loc 1 1294 3 view .LVU1193
 4897 00a6 089B     		ldr	r3, [sp, #32]
 4898              	.LBE10:
1294:Core/Src/stm32746g_discovery_lcd.c **** 
 4899              		.loc 1 1294 3 view .LVU1194
1298:Core/Src/stm32746g_discovery_lcd.c ****   gpio_init_structure.Mode      = GPIO_MODE_AF_PP;
 4900              		.loc 1 1298 3 view .LVU1195
1298:Core/Src/stm32746g_discovery_lcd.c ****   gpio_init_structure.Mode      = GPIO_MODE_AF_PP;
 4901              		.loc 1 1298 33 is_stmt 0 view .LVU1196
 4902 00a8 1023     		movs	r3, #16
 4903 00aa 0993     		str	r3, [sp, #36]
1299:Core/Src/stm32746g_discovery_lcd.c ****   gpio_init_structure.Pull      = GPIO_NOPULL;
ARM GAS  C:\Users\jisu8\AppData\Local\Temp\ccieva3z.s 			page 134


 4904              		.loc 1 1299 3 is_stmt 1 view .LVU1197
1299:Core/Src/stm32746g_discovery_lcd.c ****   gpio_init_structure.Pull      = GPIO_NOPULL;
 4905              		.loc 1 1299 33 is_stmt 0 view .LVU1198
 4906 00ac 0224     		movs	r4, #2
 4907 00ae 0A94     		str	r4, [sp, #40]
1300:Core/Src/stm32746g_discovery_lcd.c ****   gpio_init_structure.Speed     = GPIO_SPEED_FAST;
 4908              		.loc 1 1300 3 is_stmt 1 view .LVU1199
1300:Core/Src/stm32746g_discovery_lcd.c ****   gpio_init_structure.Speed     = GPIO_SPEED_FAST;
 4909              		.loc 1 1300 33 is_stmt 0 view .LVU1200
 4910 00b0 0023     		movs	r3, #0
 4911 00b2 0B93     		str	r3, [sp, #44]
1301:Core/Src/stm32746g_discovery_lcd.c ****   gpio_init_structure.Alternate = GPIO_AF14_LTDC;  
 4912              		.loc 1 1301 3 is_stmt 1 view .LVU1201
1301:Core/Src/stm32746g_discovery_lcd.c ****   gpio_init_structure.Alternate = GPIO_AF14_LTDC;  
 4913              		.loc 1 1301 33 is_stmt 0 view .LVU1202
 4914 00b4 0C94     		str	r4, [sp, #48]
1302:Core/Src/stm32746g_discovery_lcd.c ****   HAL_GPIO_Init(GPIOE, &gpio_init_structure);
 4915              		.loc 1 1302 3 is_stmt 1 view .LVU1203
1302:Core/Src/stm32746g_discovery_lcd.c ****   HAL_GPIO_Init(GPIOE, &gpio_init_structure);
 4916              		.loc 1 1302 33 is_stmt 0 view .LVU1204
 4917 00b6 0E25     		movs	r5, #14
 4918 00b8 0D95     		str	r5, [sp, #52]
1303:Core/Src/stm32746g_discovery_lcd.c **** 
 4919              		.loc 1 1303 3 is_stmt 1 view .LVU1205
 4920 00ba 09A9     		add	r1, sp, #36
 4921              	.LVL469:
1303:Core/Src/stm32746g_discovery_lcd.c **** 
 4922              		.loc 1 1303 3 is_stmt 0 view .LVU1206
 4923 00bc 1D48     		ldr	r0, .L318+4
 4924              	.LVL470:
1303:Core/Src/stm32746g_discovery_lcd.c **** 
 4925              		.loc 1 1303 3 view .LVU1207
 4926 00be FFF7FEFF 		bl	HAL_GPIO_Init
 4927              	.LVL471:
1306:Core/Src/stm32746g_discovery_lcd.c ****   gpio_init_structure.Mode      = GPIO_MODE_AF_PP;
 4928              		.loc 1 1306 3 is_stmt 1 view .LVU1208
1306:Core/Src/stm32746g_discovery_lcd.c ****   gpio_init_structure.Mode      = GPIO_MODE_AF_PP;
 4929              		.loc 1 1306 33 is_stmt 0 view .LVU1209
 4930 00c2 4FF48057 		mov	r7, #4096
 4931 00c6 0997     		str	r7, [sp, #36]
1307:Core/Src/stm32746g_discovery_lcd.c ****   gpio_init_structure.Alternate = GPIO_AF9_LTDC;
 4932              		.loc 1 1307 3 is_stmt 1 view .LVU1210
1307:Core/Src/stm32746g_discovery_lcd.c ****   gpio_init_structure.Alternate = GPIO_AF9_LTDC;
 4933              		.loc 1 1307 33 is_stmt 0 view .LVU1211
 4934 00c8 0A94     		str	r4, [sp, #40]
1308:Core/Src/stm32746g_discovery_lcd.c ****   HAL_GPIO_Init(GPIOG, &gpio_init_structure);
 4935              		.loc 1 1308 3 is_stmt 1 view .LVU1212
1308:Core/Src/stm32746g_discovery_lcd.c ****   HAL_GPIO_Init(GPIOG, &gpio_init_structure);
 4936              		.loc 1 1308 33 is_stmt 0 view .LVU1213
 4937 00ca 0923     		movs	r3, #9
 4938 00cc 0D93     		str	r3, [sp, #52]
1309:Core/Src/stm32746g_discovery_lcd.c **** 
 4939              		.loc 1 1309 3 is_stmt 1 view .LVU1214
 4940 00ce 09A9     		add	r1, sp, #36
 4941 00d0 1948     		ldr	r0, .L318+8
 4942 00d2 FFF7FEFF 		bl	HAL_GPIO_Init
 4943              	.LVL472:
ARM GAS  C:\Users\jisu8\AppData\Local\Temp\ccieva3z.s 			page 135


1312:Core/Src/stm32746g_discovery_lcd.c ****                                   GPIO_PIN_14 | GPIO_PIN_15;
 4944              		.loc 1 1312 3 view .LVU1215
1312:Core/Src/stm32746g_discovery_lcd.c ****                                   GPIO_PIN_14 | GPIO_PIN_15;
 4945              		.loc 1 1312 33 is_stmt 0 view .LVU1216
 4946 00d6 4FF44643 		mov	r3, #50688
 4947 00da 0993     		str	r3, [sp, #36]
1314:Core/Src/stm32746g_discovery_lcd.c ****   gpio_init_structure.Alternate = GPIO_AF14_LTDC;
 4948              		.loc 1 1314 3 is_stmt 1 view .LVU1217
1314:Core/Src/stm32746g_discovery_lcd.c ****   gpio_init_structure.Alternate = GPIO_AF14_LTDC;
 4949              		.loc 1 1314 33 is_stmt 0 view .LVU1218
 4950 00dc 0A94     		str	r4, [sp, #40]
1315:Core/Src/stm32746g_discovery_lcd.c ****   HAL_GPIO_Init(GPIOI, &gpio_init_structure);
 4951              		.loc 1 1315 3 is_stmt 1 view .LVU1219
1315:Core/Src/stm32746g_discovery_lcd.c ****   HAL_GPIO_Init(GPIOI, &gpio_init_structure);
 4952              		.loc 1 1315 33 is_stmt 0 view .LVU1220
 4953 00de 0D95     		str	r5, [sp, #52]
1316:Core/Src/stm32746g_discovery_lcd.c **** 
 4954              		.loc 1 1316 3 is_stmt 1 view .LVU1221
 4955 00e0 164E     		ldr	r6, .L318+12
 4956 00e2 09A9     		add	r1, sp, #36
 4957 00e4 3046     		mov	r0, r6
 4958 00e6 FFF7FEFF 		bl	HAL_GPIO_Init
 4959              	.LVL473:
1319:Core/Src/stm32746g_discovery_lcd.c ****                                   GPIO_PIN_4 | GPIO_PIN_5 | GPIO_PIN_6 | GPIO_PIN_7 | \
 4960              		.loc 1 1319 3 view .LVU1222
1319:Core/Src/stm32746g_discovery_lcd.c ****                                   GPIO_PIN_4 | GPIO_PIN_5 | GPIO_PIN_6 | GPIO_PIN_7 | \
 4961              		.loc 1 1319 33 is_stmt 0 view .LVU1223
 4962 00ea 4EF6FF73 		movw	r3, #61439
 4963 00ee 0993     		str	r3, [sp, #36]
1323:Core/Src/stm32746g_discovery_lcd.c ****   gpio_init_structure.Alternate = GPIO_AF14_LTDC;
 4964              		.loc 1 1323 3 is_stmt 1 view .LVU1224
1323:Core/Src/stm32746g_discovery_lcd.c ****   gpio_init_structure.Alternate = GPIO_AF14_LTDC;
 4965              		.loc 1 1323 33 is_stmt 0 view .LVU1225
 4966 00f0 0A94     		str	r4, [sp, #40]
1324:Core/Src/stm32746g_discovery_lcd.c ****   HAL_GPIO_Init(GPIOJ, &gpio_init_structure);  
 4967              		.loc 1 1324 3 is_stmt 1 view .LVU1226
1324:Core/Src/stm32746g_discovery_lcd.c ****   HAL_GPIO_Init(GPIOJ, &gpio_init_structure);  
 4968              		.loc 1 1324 33 is_stmt 0 view .LVU1227
 4969 00f2 0D95     		str	r5, [sp, #52]
1325:Core/Src/stm32746g_discovery_lcd.c **** 
 4970              		.loc 1 1325 3 is_stmt 1 view .LVU1228
 4971 00f4 09A9     		add	r1, sp, #36
 4972 00f6 1248     		ldr	r0, .L318+16
 4973 00f8 FFF7FEFF 		bl	HAL_GPIO_Init
 4974              	.LVL474:
1328:Core/Src/stm32746g_discovery_lcd.c ****                                   GPIO_PIN_5 | GPIO_PIN_6 | GPIO_PIN_7;
 4975              		.loc 1 1328 3 view .LVU1229
1328:Core/Src/stm32746g_discovery_lcd.c ****                                   GPIO_PIN_5 | GPIO_PIN_6 | GPIO_PIN_7;
 4976              		.loc 1 1328 33 is_stmt 0 view .LVU1230
 4977 00fc F723     		movs	r3, #247
 4978 00fe 0993     		str	r3, [sp, #36]
1330:Core/Src/stm32746g_discovery_lcd.c ****   gpio_init_structure.Alternate = GPIO_AF14_LTDC;
 4979              		.loc 1 1330 3 is_stmt 1 view .LVU1231
1330:Core/Src/stm32746g_discovery_lcd.c ****   gpio_init_structure.Alternate = GPIO_AF14_LTDC;
 4980              		.loc 1 1330 33 is_stmt 0 view .LVU1232
 4981 0100 0A94     		str	r4, [sp, #40]
1331:Core/Src/stm32746g_discovery_lcd.c ****   HAL_GPIO_Init(GPIOK, &gpio_init_structure);
ARM GAS  C:\Users\jisu8\AppData\Local\Temp\ccieva3z.s 			page 136


 4982              		.loc 1 1331 3 is_stmt 1 view .LVU1233
1331:Core/Src/stm32746g_discovery_lcd.c ****   HAL_GPIO_Init(GPIOK, &gpio_init_structure);
 4983              		.loc 1 1331 33 is_stmt 0 view .LVU1234
 4984 0102 0D95     		str	r5, [sp, #52]
1332:Core/Src/stm32746g_discovery_lcd.c **** 
 4985              		.loc 1 1332 3 is_stmt 1 view .LVU1235
 4986 0104 0F4C     		ldr	r4, .L318+20
 4987 0106 09A9     		add	r1, sp, #36
 4988 0108 2046     		mov	r0, r4
 4989 010a FFF7FEFF 		bl	HAL_GPIO_Init
 4990              	.LVL475:
1335:Core/Src/stm32746g_discovery_lcd.c ****   gpio_init_structure.Mode      = GPIO_MODE_OUTPUT_PP;
 4991              		.loc 1 1335 3 view .LVU1236
1335:Core/Src/stm32746g_discovery_lcd.c ****   gpio_init_structure.Mode      = GPIO_MODE_OUTPUT_PP;
 4992              		.loc 1 1335 33 is_stmt 0 view .LVU1237
 4993 010e 0997     		str	r7, [sp, #36]
1336:Core/Src/stm32746g_discovery_lcd.c ****   HAL_GPIO_Init(LCD_DISP_GPIO_PORT, &gpio_init_structure);
 4994              		.loc 1 1336 3 is_stmt 1 view .LVU1238
1336:Core/Src/stm32746g_discovery_lcd.c ****   HAL_GPIO_Init(LCD_DISP_GPIO_PORT, &gpio_init_structure);
 4995              		.loc 1 1336 33 is_stmt 0 view .LVU1239
 4996 0110 0125     		movs	r5, #1
 4997 0112 0A95     		str	r5, [sp, #40]
1337:Core/Src/stm32746g_discovery_lcd.c **** 
 4998              		.loc 1 1337 3 is_stmt 1 view .LVU1240
 4999 0114 09A9     		add	r1, sp, #36
 5000 0116 3046     		mov	r0, r6
 5001 0118 FFF7FEFF 		bl	HAL_GPIO_Init
 5002              	.LVL476:
1340:Core/Src/stm32746g_discovery_lcd.c ****   gpio_init_structure.Mode      = GPIO_MODE_OUTPUT_PP;
 5003              		.loc 1 1340 3 view .LVU1241
1340:Core/Src/stm32746g_discovery_lcd.c ****   gpio_init_structure.Mode      = GPIO_MODE_OUTPUT_PP;
 5004              		.loc 1 1340 33 is_stmt 0 view .LVU1242
 5005 011c 0823     		movs	r3, #8
 5006 011e 0993     		str	r3, [sp, #36]
1341:Core/Src/stm32746g_discovery_lcd.c ****   HAL_GPIO_Init(LCD_BL_CTRL_GPIO_PORT, &gpio_init_structure);
 5007              		.loc 1 1341 3 is_stmt 1 view .LVU1243
1341:Core/Src/stm32746g_discovery_lcd.c ****   HAL_GPIO_Init(LCD_BL_CTRL_GPIO_PORT, &gpio_init_structure);
 5008              		.loc 1 1341 33 is_stmt 0 view .LVU1244
 5009 0120 0A95     		str	r5, [sp, #40]
1342:Core/Src/stm32746g_discovery_lcd.c **** }
 5010              		.loc 1 1342 3 is_stmt 1 view .LVU1245
 5011 0122 09A9     		add	r1, sp, #36
 5012 0124 2046     		mov	r0, r4
 5013 0126 FFF7FEFF 		bl	HAL_GPIO_Init
 5014              	.LVL477:
1343:Core/Src/stm32746g_discovery_lcd.c **** 
 5015              		.loc 1 1343 1 is_stmt 0 view .LVU1246
 5016 012a 0FB0     		add	sp, sp, #60
 5017              	.LCFI82:
 5018              		.cfi_def_cfa_offset 20
 5019              		@ sp needed
 5020 012c F0BD     		pop	{r4, r5, r6, r7, pc}
 5021              	.L319:
 5022 012e 00BF     		.align	2
 5023              	.L318:
 5024 0130 00380240 		.word	1073887232
 5025 0134 00100240 		.word	1073876992
ARM GAS  C:\Users\jisu8\AppData\Local\Temp\ccieva3z.s 			page 137


 5026 0138 00180240 		.word	1073879040
 5027 013c 00200240 		.word	1073881088
 5028 0140 00240240 		.word	1073882112
 5029 0144 00280240 		.word	1073883136
 5030              		.cfi_endproc
 5031              	.LFE190:
 5033              		.section	.text.BSP_LCD_MspDeInit,"ax",%progbits
 5034              		.align	1
 5035              		.weak	BSP_LCD_MspDeInit
 5036              		.syntax unified
 5037              		.thumb
 5038              		.thumb_func
 5040              	BSP_LCD_MspDeInit:
 5041              	.LVL478:
 5042              	.LFB191:
1352:Core/Src/stm32746g_discovery_lcd.c ****   GPIO_InitTypeDef  gpio_init_structure;
 5043              		.loc 1 1352 1 is_stmt 1 view -0
 5044              		.cfi_startproc
 5045              		@ args = 0, pretend = 0, frame = 24
 5046              		@ frame_needed = 0, uses_anonymous_args = 0
1352:Core/Src/stm32746g_discovery_lcd.c ****   GPIO_InitTypeDef  gpio_init_structure;
 5047              		.loc 1 1352 1 is_stmt 0 view .LVU1248
 5048 0000 00B5     		push	{lr}
 5049              	.LCFI83:
 5050              		.cfi_def_cfa_offset 4
 5051              		.cfi_offset 14, -4
 5052 0002 87B0     		sub	sp, sp, #28
 5053              	.LCFI84:
 5054              		.cfi_def_cfa_offset 32
1353:Core/Src/stm32746g_discovery_lcd.c **** 
 5055              		.loc 1 1353 3 is_stmt 1 view .LVU1249
1356:Core/Src/stm32746g_discovery_lcd.c **** 
 5056              		.loc 1 1356 3 view .LVU1250
 5057 0004 0268     		ldr	r2, [r0]
 5058 0006 9369     		ldr	r3, [r2, #24]
 5059 0008 23F00103 		bic	r3, r3, #1
 5060 000c 9361     		str	r3, [r2, #24]
1361:Core/Src/stm32746g_discovery_lcd.c ****   HAL_GPIO_DeInit(GPIOE, gpio_init_structure.Pin);
 5061              		.loc 1 1361 3 view .LVU1251
1361:Core/Src/stm32746g_discovery_lcd.c ****   HAL_GPIO_DeInit(GPIOE, gpio_init_structure.Pin);
 5062              		.loc 1 1361 33 is_stmt 0 view .LVU1252
 5063 000e 1021     		movs	r1, #16
 5064              	.LVL479:
1361:Core/Src/stm32746g_discovery_lcd.c ****   HAL_GPIO_DeInit(GPIOE, gpio_init_structure.Pin);
 5065              		.loc 1 1361 33 view .LVU1253
 5066 0010 0191     		str	r1, [sp, #4]
1362:Core/Src/stm32746g_discovery_lcd.c **** 
 5067              		.loc 1 1362 3 is_stmt 1 view .LVU1254
 5068 0012 1148     		ldr	r0, .L322
 5069              	.LVL480:
1362:Core/Src/stm32746g_discovery_lcd.c **** 
 5070              		.loc 1 1362 3 is_stmt 0 view .LVU1255
 5071 0014 FFF7FEFF 		bl	HAL_GPIO_DeInit
 5072              	.LVL481:
1365:Core/Src/stm32746g_discovery_lcd.c ****   HAL_GPIO_DeInit(GPIOG, gpio_init_structure.Pin);
 5073              		.loc 1 1365 3 is_stmt 1 view .LVU1256
1365:Core/Src/stm32746g_discovery_lcd.c ****   HAL_GPIO_DeInit(GPIOG, gpio_init_structure.Pin);
ARM GAS  C:\Users\jisu8\AppData\Local\Temp\ccieva3z.s 			page 138


 5074              		.loc 1 1365 33 is_stmt 0 view .LVU1257
 5075 0018 4FF48051 		mov	r1, #4096
 5076 001c 0191     		str	r1, [sp, #4]
1366:Core/Src/stm32746g_discovery_lcd.c **** 
 5077              		.loc 1 1366 3 is_stmt 1 view .LVU1258
 5078 001e 0F48     		ldr	r0, .L322+4
 5079 0020 FFF7FEFF 		bl	HAL_GPIO_DeInit
 5080              	.LVL482:
1369:Core/Src/stm32746g_discovery_lcd.c ****                                   GPIO_PIN_13 | GPIO_PIN_14 | GPIO_PIN_15;
 5081              		.loc 1 1369 3 view .LVU1259
1369:Core/Src/stm32746g_discovery_lcd.c ****                                   GPIO_PIN_13 | GPIO_PIN_14 | GPIO_PIN_15;
 5082              		.loc 1 1369 33 is_stmt 0 view .LVU1260
 5083 0024 4FF47741 		mov	r1, #63232
 5084 0028 0191     		str	r1, [sp, #4]
1371:Core/Src/stm32746g_discovery_lcd.c **** 
 5085              		.loc 1 1371 3 is_stmt 1 view .LVU1261
 5086 002a 0D48     		ldr	r0, .L322+8
 5087 002c FFF7FEFF 		bl	HAL_GPIO_DeInit
 5088              	.LVL483:
1374:Core/Src/stm32746g_discovery_lcd.c ****                                   GPIO_PIN_4 | GPIO_PIN_5 | GPIO_PIN_6 | GPIO_PIN_7 | \
 5089              		.loc 1 1374 3 view .LVU1262
1374:Core/Src/stm32746g_discovery_lcd.c ****                                   GPIO_PIN_4 | GPIO_PIN_5 | GPIO_PIN_6 | GPIO_PIN_7 | \
 5090              		.loc 1 1374 33 is_stmt 0 view .LVU1263
 5091 0030 4EF6FF71 		movw	r1, #61439
 5092 0034 0191     		str	r1, [sp, #4]
1378:Core/Src/stm32746g_discovery_lcd.c **** 
 5093              		.loc 1 1378 3 is_stmt 1 view .LVU1264
 5094 0036 0B48     		ldr	r0, .L322+12
 5095 0038 FFF7FEFF 		bl	HAL_GPIO_DeInit
 5096              	.LVL484:
1381:Core/Src/stm32746g_discovery_lcd.c ****                                   GPIO_PIN_5 | GPIO_PIN_6 | GPIO_PIN_7;
 5097              		.loc 1 1381 3 view .LVU1265
1381:Core/Src/stm32746g_discovery_lcd.c ****                                   GPIO_PIN_5 | GPIO_PIN_6 | GPIO_PIN_7;
 5098              		.loc 1 1381 33 is_stmt 0 view .LVU1266
 5099 003c F721     		movs	r1, #247
 5100 003e 0191     		str	r1, [sp, #4]
1383:Core/Src/stm32746g_discovery_lcd.c **** 
 5101              		.loc 1 1383 3 is_stmt 1 view .LVU1267
 5102 0040 0948     		ldr	r0, .L322+16
 5103 0042 FFF7FEFF 		bl	HAL_GPIO_DeInit
 5104              	.LVL485:
1386:Core/Src/stm32746g_discovery_lcd.c **** 
 5105              		.loc 1 1386 3 view .LVU1268
 5106 0046 094A     		ldr	r2, .L322+20
 5107 0048 536C     		ldr	r3, [r2, #68]
 5108 004a 23F08063 		bic	r3, r3, #67108864
 5109 004e 5364     		str	r3, [r2, #68]
1390:Core/Src/stm32746g_discovery_lcd.c **** 
 5110              		.loc 1 1390 1 is_stmt 0 view .LVU1269
 5111 0050 07B0     		add	sp, sp, #28
 5112              	.LCFI85:
 5113              		.cfi_def_cfa_offset 4
 5114              		@ sp needed
 5115 0052 5DF804FB 		ldr	pc, [sp], #4
 5116              	.L323:
 5117 0056 00BF     		.align	2
 5118              	.L322:
ARM GAS  C:\Users\jisu8\AppData\Local\Temp\ccieva3z.s 			page 139


 5119 0058 00100240 		.word	1073876992
 5120 005c 00180240 		.word	1073879040
 5121 0060 00200240 		.word	1073881088
 5122 0064 00240240 		.word	1073882112
 5123 0068 00280240 		.word	1073883136
 5124 006c 00380240 		.word	1073887232
 5125              		.cfi_endproc
 5126              	.LFE191:
 5128              		.section	.text.BSP_LCD_DeInit,"ax",%progbits
 5129              		.align	1
 5130              		.global	BSP_LCD_DeInit
 5131              		.syntax unified
 5132              		.thumb
 5133              		.thumb_func
 5135              	BSP_LCD_DeInit:
 5136              	.LFB142:
 212:Core/Src/stm32746g_discovery_lcd.c ****   /* Initialize the hLtdcHandler Instance parameter */
 5137              		.loc 1 212 1 is_stmt 1 view -0
 5138              		.cfi_startproc
 5139              		@ args = 0, pretend = 0, frame = 0
 5140              		@ frame_needed = 0, uses_anonymous_args = 0
 5141 0000 10B5     		push	{r4, lr}
 5142              	.LCFI86:
 5143              		.cfi_def_cfa_offset 8
 5144              		.cfi_offset 4, -8
 5145              		.cfi_offset 14, -4
 214:Core/Src/stm32746g_discovery_lcd.c **** 
 5146              		.loc 1 214 3 view .LVU1271
 214:Core/Src/stm32746g_discovery_lcd.c **** 
 5147              		.loc 1 214 25 is_stmt 0 view .LVU1272
 5148 0002 084C     		ldr	r4, .L326
 5149 0004 084B     		ldr	r3, .L326+4
 5150 0006 2360     		str	r3, [r4]
 217:Core/Src/stm32746g_discovery_lcd.c **** 
 5151              		.loc 1 217 3 is_stmt 1 view .LVU1273
 5152 0008 9A69     		ldr	r2, [r3, #24]
 5153 000a 22F00102 		bic	r2, r2, #1
 5154 000e 9A61     		str	r2, [r3, #24]
 220:Core/Src/stm32746g_discovery_lcd.c **** 
 5155              		.loc 1 220 3 view .LVU1274
 5156 0010 2046     		mov	r0, r4
 5157 0012 FFF7FEFF 		bl	HAL_LTDC_DeInit
 5158              	.LVL486:
 223:Core/Src/stm32746g_discovery_lcd.c **** 
 5159              		.loc 1 223 3 view .LVU1275
 5160 0016 0021     		movs	r1, #0
 5161 0018 2046     		mov	r0, r4
 5162 001a FFF7FEFF 		bl	BSP_LCD_MspDeInit
 5163              	.LVL487:
 225:Core/Src/stm32746g_discovery_lcd.c **** }
 5164              		.loc 1 225 3 view .LVU1276
 226:Core/Src/stm32746g_discovery_lcd.c **** 
 5165              		.loc 1 226 1 is_stmt 0 view .LVU1277
 5166 001e 0020     		movs	r0, #0
 5167 0020 10BD     		pop	{r4, pc}
 5168              	.L327:
 5169 0022 00BF     		.align	2
ARM GAS  C:\Users\jisu8\AppData\Local\Temp\ccieva3z.s 			page 140


 5170              	.L326:
 5171 0024 00000000 		.word	.LANCHOR1
 5172 0028 00680140 		.word	1073833984
 5173              		.cfi_endproc
 5174              	.LFE142:
 5176              		.section	.text.BSP_LCD_ClockConfig,"ax",%progbits
 5177              		.align	1
 5178              		.weak	BSP_LCD_ClockConfig
 5179              		.syntax unified
 5180              		.thumb
 5181              		.thumb_func
 5183              	BSP_LCD_ClockConfig:
 5184              	.LVL488:
 5185              	.LFB192:
1401:Core/Src/stm32746g_discovery_lcd.c ****   static RCC_PeriphCLKInitTypeDef  periph_clk_init_struct;
 5186              		.loc 1 1401 1 is_stmt 1 view -0
 5187              		.cfi_startproc
 5188              		@ args = 0, pretend = 0, frame = 0
 5189              		@ frame_needed = 0, uses_anonymous_args = 0
1401:Core/Src/stm32746g_discovery_lcd.c ****   static RCC_PeriphCLKInitTypeDef  periph_clk_init_struct;
 5190              		.loc 1 1401 1 is_stmt 0 view .LVU1279
 5191 0000 08B5     		push	{r3, lr}
 5192              	.LCFI87:
 5193              		.cfi_def_cfa_offset 8
 5194              		.cfi_offset 3, -8
 5195              		.cfi_offset 14, -4
1402:Core/Src/stm32746g_discovery_lcd.c **** 
 5196              		.loc 1 1402 3 is_stmt 1 view .LVU1280
1409:Core/Src/stm32746g_discovery_lcd.c ****   periph_clk_init_struct.PLLSAI.PLLSAIN = 192;
 5197              		.loc 1 1409 3 view .LVU1281
1409:Core/Src/stm32746g_discovery_lcd.c ****   periph_clk_init_struct.PLLSAI.PLLSAIN = 192;
 5198              		.loc 1 1409 47 is_stmt 0 view .LVU1282
 5199 0002 0648     		ldr	r0, .L330
 5200              	.LVL489:
1409:Core/Src/stm32746g_discovery_lcd.c ****   periph_clk_init_struct.PLLSAI.PLLSAIN = 192;
 5201              		.loc 1 1409 47 view .LVU1283
 5202 0004 0823     		movs	r3, #8
 5203 0006 0360     		str	r3, [r0]
1410:Core/Src/stm32746g_discovery_lcd.c ****   periph_clk_init_struct.PLLSAI.PLLSAIR = RK043FN48H_FREQUENCY_DIVIDER;
 5204              		.loc 1 1410 3 is_stmt 1 view .LVU1284
1410:Core/Src/stm32746g_discovery_lcd.c ****   periph_clk_init_struct.PLLSAI.PLLSAIR = RK043FN48H_FREQUENCY_DIVIDER;
 5205              		.loc 1 1410 41 is_stmt 0 view .LVU1285
 5206 0008 C023     		movs	r3, #192
 5207 000a 4361     		str	r3, [r0, #20]
1411:Core/Src/stm32746g_discovery_lcd.c ****   periph_clk_init_struct.PLLSAIDivR = RCC_PLLSAIDIVR_4;
 5208              		.loc 1 1411 3 is_stmt 1 view .LVU1286
1411:Core/Src/stm32746g_discovery_lcd.c ****   periph_clk_init_struct.PLLSAIDivR = RCC_PLLSAIDIVR_4;
 5209              		.loc 1 1411 41 is_stmt 0 view .LVU1287
 5210 000c 0523     		movs	r3, #5
 5211 000e C361     		str	r3, [r0, #28]
1412:Core/Src/stm32746g_discovery_lcd.c ****   HAL_RCCEx_PeriphCLKConfig(&periph_clk_init_struct);
 5212              		.loc 1 1412 3 is_stmt 1 view .LVU1288
1412:Core/Src/stm32746g_discovery_lcd.c ****   HAL_RCCEx_PeriphCLKConfig(&periph_clk_init_struct);
 5213              		.loc 1 1412 37 is_stmt 0 view .LVU1289
 5214 0010 4FF48033 		mov	r3, #65536
 5215 0014 C362     		str	r3, [r0, #44]
1413:Core/Src/stm32746g_discovery_lcd.c **** }
ARM GAS  C:\Users\jisu8\AppData\Local\Temp\ccieva3z.s 			page 141


 5216              		.loc 1 1413 3 is_stmt 1 view .LVU1290
 5217 0016 FFF7FEFF 		bl	HAL_RCCEx_PeriphCLKConfig
 5218              	.LVL490:
1414:Core/Src/stm32746g_discovery_lcd.c **** 
 5219              		.loc 1 1414 1 is_stmt 0 view .LVU1291
 5220 001a 08BD     		pop	{r3, pc}
 5221              	.L331:
 5222              		.align	2
 5223              	.L330:
 5224 001c 00000000 		.word	.LANCHOR5
 5225              		.cfi_endproc
 5226              	.LFE192:
 5228              		.section	.text.BSP_LCD_Init,"ax",%progbits
 5229              		.align	1
 5230              		.global	BSP_LCD_Init
 5231              		.syntax unified
 5232              		.thumb
 5233              		.thumb_func
 5235              	BSP_LCD_Init:
 5236              	.LFB141:
 150:Core/Src/stm32746g_discovery_lcd.c ****   /* Select the used LCD */
 5237              		.loc 1 150 1 is_stmt 1 view -0
 5238              		.cfi_startproc
 5239              		@ args = 0, pretend = 0, frame = 0
 5240              		@ frame_needed = 0, uses_anonymous_args = 0
 5241 0000 10B5     		push	{r4, lr}
 5242              	.LCFI88:
 5243              		.cfi_def_cfa_offset 8
 5244              		.cfi_offset 4, -8
 5245              		.cfi_offset 14, -4
 155:Core/Src/stm32746g_discovery_lcd.c ****   hLtdcHandler.Init.VerticalSync = (RK043FN48H_VSYNC - 1);
 5246              		.loc 1 155 3 view .LVU1293
 155:Core/Src/stm32746g_discovery_lcd.c ****   hLtdcHandler.Init.VerticalSync = (RK043FN48H_VSYNC - 1);
 5247              		.loc 1 155 36 is_stmt 0 view .LVU1294
 5248 0002 254C     		ldr	r4, .L336
 5249 0004 2823     		movs	r3, #40
 5250 0006 6361     		str	r3, [r4, #20]
 156:Core/Src/stm32746g_discovery_lcd.c ****   hLtdcHandler.Init.AccumulatedHBP = (RK043FN48H_HSYNC + RK043FN48H_HBP - 1);
 5251              		.loc 1 156 3 is_stmt 1 view .LVU1295
 156:Core/Src/stm32746g_discovery_lcd.c ****   hLtdcHandler.Init.AccumulatedHBP = (RK043FN48H_HSYNC + RK043FN48H_HBP - 1);
 5252              		.loc 1 156 34 is_stmt 0 view .LVU1296
 5253 0008 0923     		movs	r3, #9
 5254 000a A361     		str	r3, [r4, #24]
 157:Core/Src/stm32746g_discovery_lcd.c ****   hLtdcHandler.Init.AccumulatedVBP = (RK043FN48H_VSYNC + RK043FN48H_VBP - 1);
 5255              		.loc 1 157 3 is_stmt 1 view .LVU1297
 157:Core/Src/stm32746g_discovery_lcd.c ****   hLtdcHandler.Init.AccumulatedVBP = (RK043FN48H_VSYNC + RK043FN48H_VBP - 1);
 5256              		.loc 1 157 36 is_stmt 0 view .LVU1298
 5257 000c 3523     		movs	r3, #53
 5258 000e E361     		str	r3, [r4, #28]
 158:Core/Src/stm32746g_discovery_lcd.c ****   hLtdcHandler.Init.AccumulatedActiveH = (RK043FN48H_HEIGHT + RK043FN48H_VSYNC + RK043FN48H_VBP - 1
 5259              		.loc 1 158 3 is_stmt 1 view .LVU1299
 158:Core/Src/stm32746g_discovery_lcd.c ****   hLtdcHandler.Init.AccumulatedActiveH = (RK043FN48H_HEIGHT + RK043FN48H_VSYNC + RK043FN48H_VBP - 1
 5260              		.loc 1 158 36 is_stmt 0 view .LVU1300
 5261 0010 0B23     		movs	r3, #11
 5262 0012 2362     		str	r3, [r4, #32]
 159:Core/Src/stm32746g_discovery_lcd.c ****   hLtdcHandler.Init.AccumulatedActiveW = (RK043FN48H_WIDTH + RK043FN48H_HSYNC + RK043FN48H_HBP - 1)
 5263              		.loc 1 159 3 is_stmt 1 view .LVU1301
ARM GAS  C:\Users\jisu8\AppData\Local\Temp\ccieva3z.s 			page 142


 159:Core/Src/stm32746g_discovery_lcd.c ****   hLtdcHandler.Init.AccumulatedActiveW = (RK043FN48H_WIDTH + RK043FN48H_HSYNC + RK043FN48H_HBP - 1)
 5264              		.loc 1 159 40 is_stmt 0 view .LVU1302
 5265 0014 40F21B13 		movw	r3, #283
 5266 0018 A362     		str	r3, [r4, #40]
 160:Core/Src/stm32746g_discovery_lcd.c ****   hLtdcHandler.Init.TotalHeigh = (RK043FN48H_HEIGHT + RK043FN48H_VSYNC + RK043FN48H_VBP + RK043FN48
 5267              		.loc 1 160 3 is_stmt 1 view .LVU1303
 160:Core/Src/stm32746g_discovery_lcd.c ****   hLtdcHandler.Init.TotalHeigh = (RK043FN48H_HEIGHT + RK043FN48H_VSYNC + RK043FN48H_VBP + RK043FN48
 5268              		.loc 1 160 40 is_stmt 0 view .LVU1304
 5269 001a 40F21523 		movw	r3, #533
 5270 001e 6362     		str	r3, [r4, #36]
 161:Core/Src/stm32746g_discovery_lcd.c ****   hLtdcHandler.Init.TotalWidth = (RK043FN48H_WIDTH + RK043FN48H_HSYNC + RK043FN48H_HBP + RK043FN48H
 5271              		.loc 1 161 3 is_stmt 1 view .LVU1305
 161:Core/Src/stm32746g_discovery_lcd.c ****   hLtdcHandler.Init.TotalWidth = (RK043FN48H_WIDTH + RK043FN48H_HSYNC + RK043FN48H_HBP + RK043FN48H
 5272              		.loc 1 161 32 is_stmt 0 view .LVU1306
 5273 0020 40F21D13 		movw	r3, #285
 5274 0024 2363     		str	r3, [r4, #48]
 162:Core/Src/stm32746g_discovery_lcd.c ****   
 5275              		.loc 1 162 3 is_stmt 1 view .LVU1307
 162:Core/Src/stm32746g_discovery_lcd.c ****   
 5276              		.loc 1 162 32 is_stmt 0 view .LVU1308
 5277 0026 40F23523 		movw	r3, #565
 5278 002a E362     		str	r3, [r4, #44]
 165:Core/Src/stm32746g_discovery_lcd.c **** 
 5279              		.loc 1 165 3 is_stmt 1 view .LVU1309
 5280 002c 0021     		movs	r1, #0
 5281 002e 2046     		mov	r0, r4
 5282 0030 FFF7FEFF 		bl	BSP_LCD_ClockConfig
 5283              	.LVL491:
 168:Core/Src/stm32746g_discovery_lcd.c ****   hLtdcHandler.LayerCfg->ImageHeight = RK043FN48H_HEIGHT;
 5284              		.loc 1 168 3 view .LVU1310
 168:Core/Src/stm32746g_discovery_lcd.c ****   hLtdcHandler.LayerCfg->ImageHeight = RK043FN48H_HEIGHT;
 5285              		.loc 1 168 38 is_stmt 0 view .LVU1311
 5286 0034 4FF4F073 		mov	r3, #480
 5287 0038 2366     		str	r3, [r4, #96]
 169:Core/Src/stm32746g_discovery_lcd.c **** 
 5288              		.loc 1 169 3 is_stmt 1 view .LVU1312
 169:Core/Src/stm32746g_discovery_lcd.c **** 
 5289              		.loc 1 169 38 is_stmt 0 view .LVU1313
 5290 003a 4FF48873 		mov	r3, #272
 5291 003e 6366     		str	r3, [r4, #100]
 172:Core/Src/stm32746g_discovery_lcd.c ****   hLtdcHandler.Init.Backcolor.Green = 0;
 5292              		.loc 1 172 3 is_stmt 1 view .LVU1314
 172:Core/Src/stm32746g_discovery_lcd.c ****   hLtdcHandler.Init.Backcolor.Green = 0;
 5293              		.loc 1 172 36 is_stmt 0 view .LVU1315
 5294 0040 0023     		movs	r3, #0
 5295 0042 84F83430 		strb	r3, [r4, #52]
 173:Core/Src/stm32746g_discovery_lcd.c ****   hLtdcHandler.Init.Backcolor.Red = 0;
 5296              		.loc 1 173 3 is_stmt 1 view .LVU1316
 173:Core/Src/stm32746g_discovery_lcd.c ****   hLtdcHandler.Init.Backcolor.Red = 0;
 5297              		.loc 1 173 37 is_stmt 0 view .LVU1317
 5298 0046 84F83530 		strb	r3, [r4, #53]
 174:Core/Src/stm32746g_discovery_lcd.c ****   
 5299              		.loc 1 174 3 is_stmt 1 view .LVU1318
 174:Core/Src/stm32746g_discovery_lcd.c ****   
 5300              		.loc 1 174 35 is_stmt 0 view .LVU1319
 5301 004a 84F83630 		strb	r3, [r4, #54]
 177:Core/Src/stm32746g_discovery_lcd.c ****   hLtdcHandler.Init.VSPolarity = LTDC_VSPOLARITY_AL; 
ARM GAS  C:\Users\jisu8\AppData\Local\Temp\ccieva3z.s 			page 143


 5302              		.loc 1 177 3 is_stmt 1 view .LVU1320
 177:Core/Src/stm32746g_discovery_lcd.c ****   hLtdcHandler.Init.VSPolarity = LTDC_VSPOLARITY_AL; 
 5303              		.loc 1 177 32 is_stmt 0 view .LVU1321
 5304 004e 6360     		str	r3, [r4, #4]
 178:Core/Src/stm32746g_discovery_lcd.c ****   hLtdcHandler.Init.DEPolarity = LTDC_DEPOLARITY_AL;  
 5305              		.loc 1 178 3 is_stmt 1 view .LVU1322
 178:Core/Src/stm32746g_discovery_lcd.c ****   hLtdcHandler.Init.DEPolarity = LTDC_DEPOLARITY_AL;  
 5306              		.loc 1 178 32 is_stmt 0 view .LVU1323
 5307 0050 A360     		str	r3, [r4, #8]
 179:Core/Src/stm32746g_discovery_lcd.c ****   hLtdcHandler.Init.PCPolarity = LTDC_PCPOLARITY_IPC;
 5308              		.loc 1 179 3 is_stmt 1 view .LVU1324
 179:Core/Src/stm32746g_discovery_lcd.c ****   hLtdcHandler.Init.PCPolarity = LTDC_PCPOLARITY_IPC;
 5309              		.loc 1 179 32 is_stmt 0 view .LVU1325
 5310 0052 E360     		str	r3, [r4, #12]
 180:Core/Src/stm32746g_discovery_lcd.c ****   hLtdcHandler.Instance = LTDC;
 5311              		.loc 1 180 3 is_stmt 1 view .LVU1326
 180:Core/Src/stm32746g_discovery_lcd.c ****   hLtdcHandler.Instance = LTDC;
 5312              		.loc 1 180 32 is_stmt 0 view .LVU1327
 5313 0054 2361     		str	r3, [r4, #16]
 181:Core/Src/stm32746g_discovery_lcd.c **** 
 5314              		.loc 1 181 3 is_stmt 1 view .LVU1328
 181:Core/Src/stm32746g_discovery_lcd.c **** 
 5315              		.loc 1 181 25 is_stmt 0 view .LVU1329
 5316 0056 114B     		ldr	r3, .L336+4
 5317 0058 2360     		str	r3, [r4]
 183:Core/Src/stm32746g_discovery_lcd.c ****   {
 5318              		.loc 1 183 3 is_stmt 1 view .LVU1330
 183:Core/Src/stm32746g_discovery_lcd.c ****   {
 5319              		.loc 1 183 6 is_stmt 0 view .LVU1331
 5320 005a 2046     		mov	r0, r4
 5321 005c FFF7FEFF 		bl	HAL_LTDC_GetState
 5322              	.LVL492:
 183:Core/Src/stm32746g_discovery_lcd.c ****   {
 5323              		.loc 1 183 5 view .LVU1332
 5324 0060 A0B1     		cbz	r0, .L335
 5325              	.L333:
 188:Core/Src/stm32746g_discovery_lcd.c **** 
 5326              		.loc 1 188 3 is_stmt 1 view .LVU1333
 5327 0062 0D48     		ldr	r0, .L336
 5328 0064 FFF7FEFF 		bl	HAL_LTDC_Init
 5329              	.LVL493:
 191:Core/Src/stm32746g_discovery_lcd.c **** 
 5330              		.loc 1 191 3 view .LVU1334
 5331 0068 0122     		movs	r2, #1
 5332 006a 4FF48051 		mov	r1, #4096
 5333 006e 0C48     		ldr	r0, .L336+8
 5334 0070 FFF7FEFF 		bl	HAL_GPIO_WritePin
 5335              	.LVL494:
 194:Core/Src/stm32746g_discovery_lcd.c **** 
 5336              		.loc 1 194 3 view .LVU1335
 5337 0074 0122     		movs	r2, #1
 5338 0076 0821     		movs	r1, #8
 5339 0078 0A48     		ldr	r0, .L336+12
 5340 007a FFF7FEFF 		bl	HAL_GPIO_WritePin
 5341              	.LVL495:
 198:Core/Src/stm32746g_discovery_lcd.c **** #endif
 5342              		.loc 1 198 3 view .LVU1336
ARM GAS  C:\Users\jisu8\AppData\Local\Temp\ccieva3z.s 			page 144


 5343 007e FFF7FEFF 		bl	BSP_SDRAM_Init
 5344              	.LVL496:
 202:Core/Src/stm32746g_discovery_lcd.c ****   
 5345              		.loc 1 202 3 view .LVU1337
 5346 0082 0948     		ldr	r0, .L336+16
 5347 0084 FFF7FEFF 		bl	BSP_LCD_SetFont
 5348              	.LVL497:
 204:Core/Src/stm32746g_discovery_lcd.c **** }
 5349              		.loc 1 204 3 view .LVU1338
 205:Core/Src/stm32746g_discovery_lcd.c **** 
 5350              		.loc 1 205 1 is_stmt 0 view .LVU1339
 5351 0088 0020     		movs	r0, #0
 5352 008a 10BD     		pop	{r4, pc}
 5353              	.L335:
 186:Core/Src/stm32746g_discovery_lcd.c ****   }
 5354              		.loc 1 186 5 is_stmt 1 view .LVU1340
 5355 008c 0021     		movs	r1, #0
 5356 008e 2046     		mov	r0, r4
 5357 0090 FFF7FEFF 		bl	BSP_LCD_MspInit
 5358              	.LVL498:
 5359 0094 E5E7     		b	.L333
 5360              	.L337:
 5361 0096 00BF     		.align	2
 5362              	.L336:
 5363 0098 00000000 		.word	.LANCHOR1
 5364 009c 00680140 		.word	1073833984
 5365 00a0 00200240 		.word	1073881088
 5366 00a4 00280240 		.word	1073883136
 5367 00a8 00000000 		.word	.LANCHOR4
 5368              		.cfi_endproc
 5369              	.LFE141:
 5371              		.global	hLtdcHandler
 5372              		.global	Font8
 5373              		.global	Font8_Table
 5374              		.global	Font12
 5375              		.global	Font12_Table
 5376              		.global	Font16
 5377              		.global	Font16_Table
 5378              		.global	Font20
 5379              		.global	Font20_Table
 5380              		.global	Font24
 5381              		.global	Font24_Table
 5382              		.section	.bss.ActiveLayer,"aw",%nobits
 5383              		.align	2
 5384              		.set	.LANCHOR2,. + 0
 5387              	ActiveLayer:
 5388 0000 00000000 		.space	4
 5389              		.section	.bss.DrawProp,"aw",%nobits
 5390              		.align	2
 5391              		.set	.LANCHOR3,. + 0
 5394              	DrawProp:
 5395 0000 00000000 		.space	24
 5395      00000000 
 5395      00000000 
 5395      00000000 
 5395      00000000 
 5396              		.section	.bss.hDma2dHandler,"aw",%nobits
ARM GAS  C:\Users\jisu8\AppData\Local\Temp\ccieva3z.s 			page 145


 5397              		.align	2
 5398              		.set	.LANCHOR0,. + 0
 5401              	hDma2dHandler:
 5402 0000 00000000 		.space	64
 5402      00000000 
 5402      00000000 
 5402      00000000 
 5402      00000000 
 5403              		.section	.bss.hLtdcHandler,"aw",%nobits
 5404              		.align	2
 5405              		.set	.LANCHOR1,. + 0
 5408              	hLtdcHandler:
 5409 0000 00000000 		.space	168
 5409      00000000 
 5409      00000000 
 5409      00000000 
 5409      00000000 
 5410              		.section	.bss.periph_clk_init_struct.0,"aw",%nobits
 5411              		.align	2
 5412              		.set	.LANCHOR5,. + 0
 5415              	periph_clk_init_struct.0:
 5416 0000 00000000 		.space	132
 5416      00000000 
 5416      00000000 
 5416      00000000 
 5416      00000000 
 5417              		.section	.data.Font12,"aw"
 5418              		.align	2
 5421              	Font12:
 5422 0000 00000000 		.word	Font12_Table
 5423 0004 0700     		.short	7
 5424 0006 0C00     		.short	12
 5425              		.section	.data.Font16,"aw"
 5426              		.align	2
 5429              	Font16:
 5430 0000 00000000 		.word	Font16_Table
 5431 0004 0B00     		.short	11
 5432 0006 1000     		.short	16
 5433              		.section	.data.Font20,"aw"
 5434              		.align	2
 5437              	Font20:
 5438 0000 00000000 		.word	Font20_Table
 5439 0004 0E00     		.short	14
 5440 0006 1400     		.short	20
 5441              		.section	.data.Font24,"aw"
 5442              		.align	2
 5443              		.set	.LANCHOR4,. + 0
 5446              	Font24:
 5447 0000 00000000 		.word	Font24_Table
 5448 0004 1100     		.short	17
 5449 0006 1800     		.short	24
 5450              		.section	.data.Font8,"aw"
 5451              		.align	2
 5454              	Font8:
 5455 0000 00000000 		.word	Font8_Table
 5456 0004 0500     		.short	5
 5457 0006 0800     		.short	8
ARM GAS  C:\Users\jisu8\AppData\Local\Temp\ccieva3z.s 			page 146


 5458              		.section	.rodata.Font12_Table,"a"
 5459              		.align	2
 5462              	Font12_Table:
 5463 0000 00000000 		.ascii	"\000\000\000\000\000\000\000\000\000\000\000\000\000"
 5463      00000000 
 5463      00000000 
 5463      00
 5464 000d 10101010 		.ascii	"\020\020\020\020\020\000\000\020\000\000\000\000lHH"
 5464      10000010 
 5464      00000000 
 5464      6C4848
 5465 001c 00000000 		.ascii	"\000\000\000\000\000\000\000\000\000\024\024(|(|(PP"
 5465      00000000 
 5465      00141428 
 5465      7C287C28 
 5465      5050
 5466 002e 00000010 		.ascii	"\000\000\000\0208@@8Hp\020\020\000\000\000 P \014p\010"
 5466      38404038 
 5466      48701010 
 5466      00000020 
 5466      50200C70 
 5467 0043 14080000 		.ascii	"\024\010\000\000\000\000\000\000\030  TH4\000\000\000"
 5467      00000000 
 5467      18202054 
 5467      48340000 
 5467      00
 5468 0054 00101010 		.ascii	"\000\020\020\020\020\000\000\000\000\000\000\000\000"
 5468      10000000 
 5468      00000000 
 5468      00
 5469 0061 08081010 		.ascii	"\010\010\020\020\020\020\020\020\010\010\000\000  \020"
 5469      10101010 
 5469      08080000 
 5469      202010
 5470 0070 10101010 		.ascii	"\020\020\020\020\020  \000\000\020|\020((\000\000\000"
 5470      10202000 
 5470      00107C10 
 5470      28280000 
 5470      00
 5471 0081 00000000 		.ascii	"\000\000\000\000\000\020\020\020\376\020\020\020\000"
 5471      00101010 
 5471      FE101010 
 5471      00
 5472 008e 00000000 		.ascii	"\000\000\000\000\000\000\000\000\000\030\0200 \000\000"
 5472      00000000 
 5472      00181030 
 5472      200000
 5473 009d 00000000 		.ascii	"\000\000\000\000|\000\000\000\000\000\000\000\000\000"
 5473      7C000000 
 5473      00000000 
 5473      0000
 5474 00ab 00000000 		.ascii	"\000\000\000\00000\000\000\000\000\004\004\010\010\020"
 5474      30300000 
 5474      00000404 
 5474      080810
 5475 00ba 10202040 		.ascii	"\020  @\000\000\0008DDDDDD8\000\000\000\0000\020\020"
 5475      00000038 
ARM GAS  C:\Users\jisu8\AppData\Local\Temp\ccieva3z.s 			page 147


 5475      44444444 
 5475      44443800 
 5475      00000030 
 5476 00d0 10101010 		.ascii	"\020\020\020\020|\000\000\000\0008D\004\010\020 D|\000"
 5476      7C000000 
 5476      00384404 
 5476      08102044 
 5476      7C00
 5477 00e2 00000038 		.ascii	"\000\000\0008D\004\030\004\004D8\000\000\000\000\014"
 5477      44041804 
 5477      04443800 
 5477      0000000C 
 5478 00f2 14142444 		.ascii	"\024\024$D~\004\016\000\000\000\000<  8\004\004D8\000"
 5478      7E040E00 
 5478      0000003C 
 5478      20203804 
 5478      04443800 
 5479 0106 0000001C 		.ascii	"\000\000\000\034 @xDDD8\000\000\000\000|D\004\010\010"
 5479      20407844 
 5479      44443800 
 5479      0000007C 
 5479      44040808 
 5480 011a 08101000 		.ascii	"\010\020\020\000\000\000\0008DD8DDD8\000\000\000\000"
 5480      00000038 
 5480      44443844 
 5480      44443800 
 5480      000000
 5481 012d 38444444 		.ascii	"8DDD<\004\010p\000\000\000\000\000\00000\000\00000\000"
 5481      3C040870 
 5481      00000000 
 5481      00003030 
 5481      00003030 
 5482 0142 00000000 		.ascii	"\000\000\000\000\000\030\030\000\000\0300 \000\000\000"
 5482      00181800 
 5482      00183020 
 5482      000000
 5483 0151 000C1060 		.ascii	"\000\014\020`\200`\020\014\000\000\000\000\000\000\000"
 5483      8060100C 
 5483      00000000 
 5483      000000
 5484 0160 7C007C00 		.ascii	"|\000|\000\000\000\000\000\000\000\300 \030\004\030"
 5484      00000000 
 5484      0000C020 
 5484      180418
 5485 016f 20C00000 		.ascii	" \300\000\000\000\000\000\030$\004\010\020\0000\000"
 5485      00000018 
 5485      24040810 
 5485      003000
 5486 017e 00003844 		.ascii	"\000\0008DDLTTL@D8\000\000\0000\020(((|D\356\000\000"
 5486      444C5454 
 5486      4C404438 
 5486      00000030 
 5486      10282828 
 5487 0197 0000F844 		.ascii	"\000\000\370DDxDDD\370\000\000\000\000<D@@@@D8\000\000"
 5487      44784444 
 5487      44F80000 
 5487      00003C44 
ARM GAS  C:\Users\jisu8\AppData\Local\Temp\ccieva3z.s 			page 148


 5487      40404040 
 5488 01af 0000F048 		.ascii	"\000\000\360HDDDDH\360\000\000\000\000\374DPpP@D\374"
 5488      44444444 
 5488      48F00000 
 5488      0000FC44 
 5488      50705040 
 5489 01c5 00000000 		.ascii	"\000\000\000\000~\"(8(  p\000\000\000\000<D@@NDD8\000"
 5489      7E222838 
 5489      28202070 
 5489      00000000 
 5489      3C444040 
 5490 01de 000000EE 		.ascii	"\000\000\000\356DD|DDD\356\000\000\000\000|\020\020"
 5490      44447C44 
 5490      4444EE00 
 5490      0000007C 
 5490      1010
 5491 01f0 10101010 		.ascii	"\020\020\020\020|\000\000\000\000<\010\010\010HHH0\000"
 5491      7C000000 
 5491      003C0808 
 5491      08484848 
 5491      3000
 5492 0202 000000EE 		.ascii	"\000\000\000\356DHPpHD\346\000\000\000\000p    $$|\000"
 5492      44485070 
 5492      4844E600 
 5492      00000070 
 5492      20202020 
 5493 021a 000000EE 		.ascii	"\000\000\000\356llTTDD\356\000\000\000\000\356ddTTT"
 5493      6C6C5454 
 5493      4444EE00 
 5493      000000EE 
 5493      64645454 
 5494 022f 4CEC0000 		.ascii	"L\354\000\000\000\0008DDDDDD8\000\000\000\000x$$$8 "
 5494      00003844 
 5494      44444444 
 5494      44380000 
 5494      00007824 
 5495 0247 20700000 		.ascii	" p\000\000\000\0008DDDDDD8\034\000\000\000\370DDDxH"
 5495      00003844 
 5495      44444444 
 5495      44381C00 
 5495      0000F844 
 5496 025f 44E20000 		.ascii	"D\342\000\000\000\0004L@8\004\004dX\000\000\000\000"
 5496      0000344C 
 5496      40380404 
 5496      64580000 
 5496      0000
 5497 0271 FE921010 		.ascii	"\376\222\020\020\020\020\0208\000\000\000\000\356DD"
 5497      10101038 
 5497      00000000 
 5497      EE4444
 5498 0280 44444444 		.ascii	"DDDD8\000\000\000\000\356DD(((\020\020\000\000\000\000"
 5498      38000000 
 5498      00EE4444 
 5498      28282810 
 5498      10000000 
 5499 0295 EE444454 		.ascii	"\356DDTTTT(\000\000\000\000\306D(\020\020(D\306\000"
 5499      54545428 
ARM GAS  C:\Users\jisu8\AppData\Local\Temp\ccieva3z.s 			page 149


 5499      00000000 
 5499      C6442810 
 5499      102844C6 
 5500 02aa 000000EE 		.ascii	"\000\000\000\356D((\020\020\0208\000\000\000\000|D\010"
 5500      44282810 
 5500      10103800 
 5500      0000007C 
 5500      4408
 5501 02bc 10102044 		.ascii	"\020\020 D|\000\000\000\0008        8\000\000@   \020"
 5501      7C000000 
 5501      00382020 
 5501      20202020 
 5501      20203800 
 5502 02d6 10080808 		.ascii	"\020\010\010\010\000\000\0008\010\010\010\010\010\010"
 5502      00000038 
 5502      08080808 
 5502      0808
 5503 02e4 08083800 		.ascii	"\010\0108\000\000\020\020(D\000\000\000\000\000\000"
 5503      00101028 
 5503      44000000 
 5503      000000
 5504 02f3 00000000 		.ascii	"\000\000\000\000\000\000\000\000\000\000\000\000\376"
 5504      00000000 
 5504      00000000 
 5504      FE
 5505 0300 00100800 		.ascii	"\000\020\010\000\000\000\000\000\000\000\000\000\000"
 5505      00000000 
 5505      00000000 
 5505      00
 5506 030d 00003844 		.ascii	"\000\0008D<DD>\000\000\000\000\300@XdDDD\370\000\000"
 5506      3C44443E 
 5506      00000000 
 5506      C0405864 
 5506      444444F8 
 5507 0323 00000000 		.ascii	"\000\000\000\000<D@@D8\000\000\000\000\014\0044LDDD"
 5507      3C444040 
 5507      44380000 
 5507      00000C04 
 5507      344C4444 
 5508 0338 3E000000 		.ascii	">\000\000\000\000\000\0008D|@@<\000\000\000\000\034"
 5508      00000038 
 5508      447C4040 
 5508      3C000000 
 5508      001C
 5509 034a 207C2020 		.ascii	" |    |\000\000\000\000\000\0006LDDD<\0048\000\000\300"
 5509      20207C00 
 5509      00000000 
 5509      00364C44 
 5509      44443C04 
 5510 0362 40586444 		.ascii	"@XdDDD\356\000\000\000\000\020\000p\020\020\020\020"
 5510      4444EE00 
 5510      00000010 
 5510      00701010 
 5510      1010
 5511 0374 7C000000 		.ascii	"|\000\000\000\000\020\000x\010\010\010\010\010\010p"
 5511      00100078 
 5511      08080808 
ARM GAS  C:\Users\jisu8\AppData\Local\Temp\ccieva3z.s 			page 150


 5511      080870
 5512 0383 0000C040 		.ascii	"\000\000\300@\\HpPH\334\000\000\000\0000\020\020\020"
 5512      5C487050 
 5512      48DC0000 
 5512      00003010 
 5512      1010
 5513 0395 1010107C 		.ascii	"\020\020\020|\000\000\000\000\000\000\350TTTT\376\000"
 5513      00000000 
 5513      0000E854 
 5513      545454FE 
 5513      00
 5514 03a6 00000000 		.ascii	"\000\000\000\000\000\330dDDD\356\000\000\000\000\000"
 5514      00D86444 
 5514      4444EE00 
 5514      00000000 
 5515 03b6 00384444 		.ascii	"\0008DDDD8\000\000\000\000\000\000\330dDDDx@\340\000"
 5515      44443800 
 5515      00000000 
 5515      00D86444 
 5515      44447840 
 5516 03cc 00000036 		.ascii	"\000\000\0006LDDD<\004\016\000\000\000\000l0   |\000"
 5516      4C444444 
 5516      3C040E00 
 5516      0000006C 
 5516      30202020 
 5517 03e2 00000000 		.ascii	"\000\000\000\000\000<D8\004Dx\000\000\000\000\000 |"
 5517      003C4438 
 5517      04447800 
 5517      00000000 
 5517      207C
 5518 03f4 20202022 		.ascii	"   \"\034\000\000\000\000\000\000\314DDDL6\000\000\000"
 5518      1C000000 
 5518      000000CC 
 5518      4444444C 
 5518      36000000 
 5519 0408 000000EE 		.ascii	"\000\000\000\356DD((\020\000\000\000\000\000\000\356"
 5519      44442828 
 5519      10000000 
 5519      000000EE 
 5520 0418 44545454 		.ascii	"DTTT(\000\000\000\000\000\000\314H00H\314\000\000\000"
 5520      28000000 
 5520      000000CC 
 5520      48303048 
 5520      CC000000 
 5521 042c 000000EE 		.ascii	"\000\000\000\356D$(\030\020\020x\000\000\000\000|H\020"
 5521      44242818 
 5521      10107800 
 5521      0000007C 
 5521      4810
 5522 043e 20447C00 		.ascii	" D|\000\000\000\000\010\020\020\020\020 \020\020\020"
 5522      00000008 
 5522      10101010 
 5522      20101010 
 5523 044e 08000010 		.ascii	"\010\000\000\020\020\020\020\020\020\020\020\020\000"
 5523      10101010 
 5523      10101010 
 5523      00
ARM GAS  C:\Users\jisu8\AppData\Local\Temp\ccieva3z.s 			page 151


 5524 045b 00002010 		.ascii	"\000\000 \020\020\020\020\010\020\020\020 \000\000\000"
 5524      10101008 
 5524      10101020 
 5524      000000
 5525 046a 00000024 		.ascii	"\000\000\000$X\000\000\000\000\000"
 5525      58000000 
 5525      0000
 5526              		.section	.rodata.Font16_Table,"a"
 5527              		.align	2
 5530              	Font16_Table:
 5531 0000 00000000 		.ascii	"\000\000\000\000\000\000\000\000\000\000\000\000\000"
 5531      00000000 
 5531      00000000 
 5531      00
 5532 000d 00000000 		.ascii	"\000\000\000\000\000\000\000\000\000\000\000\000\000"
 5532      00000000 
 5532      00000000 
 5532      00
 5533 001a 00000000 		.ascii	"\000\000\000\000\000\000\000\000\014\000\014\000\014"
 5533      00000000 
 5533      0C000C00 
 5533      0C
 5534 0027 000C000C 		.ascii	"\000\014\000\014\000\014\000\014\000\014\000\000\000"
 5534      000C000C 
 5534      000C0000 
 5534      00
 5535 0034 0C000000 		.ascii	"\014\000\000\000\000\000\000\000\000\000\000\000\000"
 5535      00000000 
 5535      00000000 
 5535      00
 5536 0041 0000001D 		.ascii	"\000\000\000\035\300\035\300\010\200\010\200\010\200"
 5536      C01DC008 
 5536      80088008 
 5536      80
 5537 004e 00000000 		.ascii	"\000\000\000\000\000\000\000\000\000\000\000\000\000"
 5537      00000000 
 5537      00000000 
 5537      00
 5538 005b 00000000 		.ascii	"\000\000\000\000\000\000\000\015\200\015\200\015\200"
 5538      0000000D 
 5538      800D800D 
 5538      80
 5539 0068 0D803FC0 		.ascii	"\015\200?\300\033\000?\300\033\000\033\000\033\000\033"
 5539      1B003FC0 
 5539      1B001B00 
 5539      1B001B
 5540 0077 00000000 		.ascii	"\000\000\000\000\000\000\000\000\000\004\000\037\200"
 5540      00000000 
 5540      0004001F 
 5540      80
 5541 0084 31803180 		.ascii	"1\2001\2008\000\036\000\017\000\003\2001\2001\200?\000"
 5541      38001E00 
 5541      0F000380 
 5541      31803180 
 5541      3F00
 5542 0096 04000400 		.ascii	"\004\000\004\000\000\000\000\000\000\000\000\000\030"
 5542      00000000 
ARM GAS  C:\Users\jisu8\AppData\Local\Temp\ccieva3z.s 			page 152


 5542      00000000 
 5542      18
 5543 00a3 00240024 		.ascii	"\000$\000$\000\030\300\007\200\036\0001\200\002@\002"
 5543      0018C007 
 5543      801E0031 
 5543      80024002 
 5544 00b3 40018000 		.ascii	"@\001\200\000\000\000\000\000\000\000\000\000\000\000"
 5544      00000000 
 5544      00000000 
 5544      0000
 5545 00c1 0000000F 		.ascii	"\000\000\000\017\000\030\000\030\000\030\000\014\000"
 5545      00180018 
 5545      0018000C 
 5545      00
 5546 00ce 1D803700 		.ascii	"\035\2007\0003\000\035\200\000\000\000\000\000\000\000"
 5546      33001D80 
 5546      00000000 
 5546      000000
 5547 00dd 00000000 		.ascii	"\000\000\000\000\000\000\000\007\000\007\000\002\000"
 5547      00000007 
 5547      00070002 
 5547      00
 5548 00ea 02000200 		.ascii	"\002\000\002\000\000\000\000\000\000\000\000\000\000"
 5548      00000000 
 5548      00000000 
 5548      00
 5549 00f7 00000000 		.ascii	"\000\000\000\000\000\000\000\000\000\000\000\003\000"
 5549      00000000 
 5549      00000003 
 5549      00
 5550 0104 03000600 		.ascii	"\003\000\006\000\016\000\014\000\014\000\014\000\014"
 5550      0E000C00 
 5550      0C000C00 
 5550      0C
 5551 0111 000E0006 		.ascii	"\000\016\000\006\000\003\000\003\000\000\000\000\000"
 5551      00030003 
 5551      00000000 
 5551      00
 5552 011e 00000000 		.ascii	"\000\000\000\000\030\000\030\000\014\000\006\000\006"
 5552      18001800 
 5552      0C000600 
 5552      06
 5553 012b 00060006 		.ascii	"\000\006\000\006\000\006\000\006\000\014\000\034\000"
 5553      00060006 
 5553      000C001C 
 5553      00
 5554 0138 18000000 		.ascii	"\030\000\000\000\000\000\000\000\000\000\006\000\006"
 5554      00000000 
 5554      00000600 
 5554      06
 5555 0145 003FC03F 		.ascii	"\000?\300?\300\017\000\037\200\031\200\000\000\000\000"
 5555      C00F001F 
 5555      80198000 
 5555      000000
 5556 0154 00000000 		.ascii	"\000\000\000\000\000\000\000\000\000\000\000\000\000"
 5556      00000000 
 5556      00000000 
ARM GAS  C:\Users\jisu8\AppData\Local\Temp\ccieva3z.s 			page 153


 5556      00
 5557 0161 00000000 		.ascii	"\000\000\000\000\000\004\000\004\000\004\000?\200\004"
 5557      00040004 
 5557      0004003F 
 5557      8004
 5558 016f 00040004 		.ascii	"\000\004\000\004\000\000\000\000\000\000\000\000\000"
 5558      00000000 
 5558      00000000 
 5558      00
 5559 017c 00000000 		.ascii	"\000\000\000\000\000\000\000\000\000\000\000\000\000"
 5559      00000000 
 5559      00000000 
 5559      00
 5560 0189 00000000 		.ascii	"\000\000\000\000\000\000\000\000\000\006\000\004\000"
 5560      00000000 
 5560      00060004 
 5560      00
 5561 0196 0C000800 		.ascii	"\014\000\010\000\010\000\000\000\000\000\000\000\000"
 5561      08000000 
 5561      00000000 
 5561      00
 5562 01a3 00000000 		.ascii	"\000\000\000\000\000\000\000\000\000?\200\000\000\000"
 5562      00000000 
 5562      003F8000 
 5562      0000
 5563 01b1 00000000 		.ascii	"\000\000\000\000\000\000\000\000\000\000\000\000\000"
 5563      00000000 
 5563      00000000 
 5563      00
 5564 01be 00000000 		.ascii	"\000\000\000\000\000\000\000\000\000\000\000\000\000"
 5564      00000000 
 5564      00000000 
 5564      00
 5565 01cb 00000000 		.ascii	"\000\000\000\000\000\000\000\014\000\014\000\000\000"
 5565      0000000C 
 5565      000C0000 
 5565      00
 5566 01d8 00000000 		.ascii	"\000\000\000\000\000\000\000\000\000\300\000\300\001"
 5566      00000000 
 5566      00C000C0 
 5566      01
 5567 01e5 80018003 		.ascii	"\200\001\200\003\000\003\000\006\000\014\000\014\000"
 5567      00030006 
 5567      000C000C 
 5567      00
 5568 01f2 18001800 		.ascii	"\030\000\030\0000\0000\000\000\000\000\000\000\000\000"
 5568      30003000 
 5568      00000000 
 5568      000000
 5569 0201 000E001B 		.ascii	"\000\016\000\033\0001\2001\2001\2001\2001\2001\200\033"
 5569      00318031 
 5569      80318031 
 5569      80318031 
 5569      801B
 5570 0213 000E0000 		.ascii	"\000\016\000\000\000\000\000\000\000\000\000\000\000"
 5570      00000000 
 5570      00000000 
ARM GAS  C:\Users\jisu8\AppData\Local\Temp\ccieva3z.s 			page 154


 5570      00
 5571 0220 00000600 		.ascii	"\000\000\006\000>\000\006\000\006\000\006\000\006\000"
 5571      3E000600 
 5571      06000600 
 5571      0600
 5572 022e 06000600 		.ascii	"\006\000\006\000\006\000?\300\000\000\000\000\000\000"
 5572      06003FC0 
 5572      00000000 
 5572      0000
 5573 023c 00000000 		.ascii	"\000\000\000\000\000\000\017\000\031\2001\2001\200\003"
 5573      00000F00 
 5573      19803180 
 5573      318003
 5574 024b 0006000C 		.ascii	"\000\006\000\014\000\030\0000\000?\200\000\000\000\000"
 5574      00180030 
 5574      003F8000 
 5574      000000
 5575 025a 00000000 		.ascii	"\000\000\000\000\000\000\000\000?\000a\200\001\200\003"
 5575      00000000 
 5575      3F006180 
 5575      018003
 5576 0269 001F0003 		.ascii	"\000\037\000\003\200\001\200\001\200a\200?\000\000\000"
 5576      80018001 
 5576      8061803F 
 5576      000000
 5577 0278 00000000 		.ascii	"\000\000\000\000\000\000\000\000\000\000\007\000\007"
 5577      00000000 
 5577      00000700 
 5577      07
 5578 0285 000F000B 		.ascii	"\000\017\000\013\000\033\000\023\0003\000?\200\003\000"
 5578      001B0013 
 5578      0033003F 
 5578      800300
 5579 0294 0F800000 		.ascii	"\017\200\000\000\000\000\000\000\000\000\000\000\000"
 5579      00000000 
 5579      00000000 
 5579      00
 5580 02a1 001F8018 		.ascii	"\000\037\200\030\000\030\000\030\000\037\000\021\200"
 5580      00180018 
 5580      001F0011 
 5580      80
 5581 02ae 01800180 		.ascii	"\001\200\001\200!\200\037\000\000\000\000\000\000\000"
 5581      21801F00 
 5581      00000000 
 5581      0000
 5582 02bc 00000000 		.ascii	"\000\000\000\000\000\000\007\200\034\000\030\0000\000"
 5582      00000780 
 5582      1C001800 
 5582      3000
 5583 02ca 37003980 		.ascii	"7\0009\2001\2001\200\031\200\017\000\000\000\000\000"
 5583      31803180 
 5583      19800F00 
 5583      00000000 
 5584 02da 00000000 		.ascii	"\000\000\000\000\000\000\000\000\177\000C\000\003\000"
 5584      00000000 
 5584      7F004300 
 5584      0300
ARM GAS  C:\Users\jisu8\AppData\Local\Temp\ccieva3z.s 			page 155


 5585 02e8 06000600 		.ascii	"\006\000\006\000\006\000\006\000\014\000\014\000\014"
 5585      06000600 
 5585      0C000C00 
 5585      0C
 5586 02f5 00000000 		.ascii	"\000\000\000\000\000\000\000\000\000\000\000\000\000"
 5586      00000000 
 5586      00000000 
 5586      00
 5587 0302 1F003180 		.ascii	"\037\0001\2001\2001\200\037\0001\2001\2001\2001\200"
 5587      31803180 
 5587      1F003180 
 5587      31803180 
 5587      3180
 5588 0314 1F000000 		.ascii	"\037\000\000\000\000\000\000\000\000\000\000\000\000"
 5588      00000000 
 5588      00000000 
 5588      00
 5589 0321 001E0033 		.ascii	"\000\036\0003\0001\2001\2003\200\035\200\001\200\003"
 5589      00318031 
 5589      8033801D 
 5589      80018003 
 5590 0331 0007003C 		.ascii	"\000\007\000<\000\000\000\000\000\000\000\000\000\000"
 5590      00000000 
 5590      00000000 
 5590      0000
 5591 033f 00000000 		.ascii	"\000\000\000\000\000\000\000\000\000\014\000\014\000"
 5591      00000000 
 5591      000C000C 
 5591      00
 5592 034c 00000000 		.ascii	"\000\000\000\000\000\000\014\000\014\000\000\000\000"
 5592      00000C00 
 5592      0C000000 
 5592      00
 5593 0359 00000000 		.ascii	"\000\000\000\000\000\000\000\000\000\000\000\000\000"
 5593      00000000 
 5593      00000000 
 5593      00
 5594 0366 00000300 		.ascii	"\000\000\003\000\003\000\000\000\000\000\000\000\006"
 5594      03000000 
 5594      00000000 
 5594      06
 5595 0373 00040008 		.ascii	"\000\004\000\010\000\010\000\000\000\000\000\000\000"
 5595      00080000 
 5595      00000000 
 5595      00
 5596 0380 00000000 		.ascii	"\000\000\000\000\000\300\003\000\004\000\030\000`\000"
 5596      00C00300 
 5596      04001800 
 5596      6000
 5597 038e 18000400 		.ascii	"\030\000\004\000\003\000\000\300\000\000\000\000\000"
 5597      030000C0 
 5597      00000000 
 5597      00
 5598 039b 00000000 		.ascii	"\000\000\000\000\000\000\000\000\000\000\000\000\000"
 5598      00000000 
 5598      00000000 
 5598      00
ARM GAS  C:\Users\jisu8\AppData\Local\Temp\ccieva3z.s 			page 156


 5599 03a8 00007FC0 		.ascii	"\000\000\177\300\000\000\177\300\000\000\000\000\000"
 5599      00007FC0 
 5599      00000000 
 5599      00
 5600 03b5 00000000 		.ascii	"\000\000\000\000\000\000\000\000\000\000\000\000\000"
 5600      00000000 
 5600      00000000 
 5600      00
 5601 03c2 00006000 		.ascii	"\000\000`\000\030\000\004\000\003\000\000\300\003\000"
 5601      18000400 
 5601      030000C0 
 5601      0300
 5602 03d0 04001800 		.ascii	"\004\000\030\000`\000\000\000\000\000\000\000\000\000"
 5602      60000000 
 5602      00000000 
 5602      0000
 5603 03de 00000000 		.ascii	"\000\000\000\000\000\000\037\0001\2001\200\001\200\007"
 5603      00001F00 
 5603      31803180 
 5603      018007
 5604 03ed 000C000C 		.ascii	"\000\014\000\014\000\000\000\014\000\000\000\000\000"
 5604      0000000C 
 5604      00000000 
 5604      00
 5605 03fa 00000000 		.ascii	"\000\000\000\000\000\000\000\000\016\000\021\000!\000"
 5605      00000000 
 5605      0E001100 
 5605      2100
 5606 0408 21002700 		.ascii	"!\000'\000)\000)\000'\000 \000\021\000\016\000\000\000"
 5606      29002900 
 5606      27002000 
 5606      11000E00 
 5606      0000
 5607 041a 00000000 		.ascii	"\000\000\000\000\000\000\000\000\000\000?\000\017\000"
 5607      00000000 
 5607      00003F00 
 5607      0F00
 5608 0428 09001980 		.ascii	"\011\000\031\200\031\200\037\2000\3000\300y\340\000"
 5608      19801F80 
 5608      30C030C0 
 5608      79E000
 5609 0437 00000000 		.ascii	"\000\000\000\000\000\000\000\000\000\000\000\000\000"
 5609      00000000 
 5609      00000000 
 5609      00
 5610 0444 7F003180 		.ascii	"\177\0001\2001\2001\200?\0001\2001\2001\200\177\000"
 5610      31803180 
 5610      3F003180 
 5610      31803180 
 5610      7F00
 5611 0456 00000000 		.ascii	"\000\000\000\000\000\000\000\000\000\000\000\000\000"
 5611      00000000 
 5611      00000000 
 5611      00
 5612 0463 001F4030 		.ascii	"\000\037@0\300`@`\000`\000`\000`@0\200\037\000\000\000"
 5612      C0604060 
 5612      00600060 
ARM GAS  C:\Users\jisu8\AppData\Local\Temp\ccieva3z.s 			page 157


 5612      00604030 
 5612      801F0000 
 5613 0478 00000000 		.ascii	"\000\000\000\000\000\000\000\000\000\000\000\000\177"
 5613      00000000 
 5613      00000000 
 5613      7F
 5614 0485 00318030 		.ascii	"\0001\2000\3000\3000\3000\3000\3001\200\177\000\000"
 5614      C030C030 
 5614      C030C030 
 5614      C031807F 
 5614      0000
 5615 0497 00000000 		.ascii	"\000\000\000\000\000\000\000\000\000\000\000\000\000"
 5615      00000000 
 5615      00000000 
 5615      00
 5616 04a4 7F803080 		.ascii	"\177\2000\2000\2002\000>\0002\0000\2000\200\177\200"
 5616      30803200 
 5616      3E003200 
 5616      30803080 
 5616      7F80
 5617 04b6 00000000 		.ascii	"\000\000\000\000\000\000\000\000\000\000\000\000\000"
 5617      00000000 
 5617      00000000 
 5617      00
 5618 04c3 007FC030 		.ascii	"\000\177\3000@0@2\000>\0002\0000\0000\000|\000\000\000"
 5618      40304032 
 5618      003E0032 
 5618      00300030 
 5618      007C0000 
 5619 04d8 00000000 		.ascii	"\000\000\000\000\000\000\000\000\000\000\000\000\036"
 5619      00000000 
 5619      00000000 
 5619      1E
 5620 04e5 80318060 		.ascii	"\2001\200`\200`\000`\000g\300a\2001\200\037\000\000"
 5620      80600060 
 5620      0067C061 
 5620      8031801F 
 5620      0000
 5621 04f7 00000000 		.ascii	"\000\000\000\000\000\000\000\000\000\000\000\000\000"
 5621      00000000 
 5621      00000000 
 5621      00
 5622 0504 7BC03180 		.ascii	"{\3001\2001\2001\200?\2001\2001\2001\200{\300\000\000"
 5622      31803180 
 5622      3F803180 
 5622      31803180 
 5622      7BC00000 
 5623 0518 00000000 		.ascii	"\000\000\000\000\000\000\000\000\000\000\000\000?\300"
 5623      00000000 
 5623      00000000 
 5623      3FC0
 5624 0526 06000600 		.ascii	"\006\000\006\000\006\000\006\000\006\000\006\000\006"
 5624      06000600 
 5624      06000600 
 5624      06
 5625 0533 003FC000 		.ascii	"\000?\300\000\000\000\000\000\000\000\000\000\000\000"
 5625      00000000 
ARM GAS  C:\Users\jisu8\AppData\Local\Temp\ccieva3z.s 			page 158


 5625      00000000 
 5625      0000
 5626 0541 0000001F 		.ascii	"\000\000\000\037\300\003\000\003\000\003\000\003\000"
 5626      C0030003 
 5626      00030003 
 5626      00
 5627 054e 63006300 		.ascii	"c\000c\000c\000>\000\000\000\000\000\000\000\000\000"
 5627      63003E00 
 5627      00000000 
 5627      00000000 
 5628 055e 00000000 		.ascii	"\000\000\000\000\000\000{\3001\2003\0006\000<\000>\000"
 5628      00007BC0 
 5628      31803300 
 5628      36003C00 
 5628      3E00
 5629 0570 33003180 		.ascii	"3\0001\200y\300\000\000\000\000\000\000\000\000\000"
 5629      79C00000 
 5629      00000000 
 5629      000000
 5630 057f 00000000 		.ascii	"\000\000\000\000\000~\000\030\000\030\000\030\000\030"
 5630      007E0018 
 5630      00180018 
 5630      0018
 5631 058d 00184018 		.ascii	"\000\030@\030@\030@\177\300\000\000\000\000\000\000"
 5631      4018407F 
 5631      C0000000 
 5631      000000
 5632 059c 00000000 		.ascii	"\000\000\000\000\000\000\000\000\340\340`\300q\300{"
 5632      00000000 
 5632      E0E060C0 
 5632      71C07B
 5633 05ab C06AC06E 		.ascii	"\300j\300n\300d\300`\300\373\340\000\000\000\000\000"
 5633      C064C060 
 5633      C0FBE000 
 5633      00000000 
 5634 05bb 00000000 		.ascii	"\000\000\000\000\000\000\000\000\000s\3001\2009\200"
 5634      00000000 
 5634      0073C031 
 5634      803980
 5635 05ca 3D803580 		.ascii	"=\2005\2007\2003\2001\200y\200\000\000\000\000\000\000"
 5635      37803380 
 5635      31807980 
 5635      00000000 
 5635      0000
 5636 05dc 00000000 		.ascii	"\000\000\000\000\000\000\000\000\037\0001\200`\300`"
 5636      00000000 
 5636      1F003180 
 5636      60C060
 5637 05eb C060C060 		.ascii	"\300`\300`\300`\3001\200\037\000\000\000\000\000\000"
 5637      C060C031 
 5637      801F0000 
 5637      00000000 
 5638 05fb 00000000 		.ascii	"\000\000\000\000\000\000\000\000\000\177\0001\2001\200"
 5638      00000000 
 5638      007F0031 
 5638      803180
 5639 060a 31803180 		.ascii	"1\2001\200?\0000\0000\000~\000\000\000\000\000\000\000"
ARM GAS  C:\Users\jisu8\AppData\Local\Temp\ccieva3z.s 			page 159


 5639      3F003000 
 5639      30007E00 
 5639      00000000 
 5639      0000
 5640 061c 00000000 		.ascii	"\000\000\000\000\000\000\000\000\037\0001\200`\300`"
 5640      00000000 
 5640      1F003180 
 5640      60C060
 5641 062b C060C060 		.ascii	"\300`\300`\300`\3001\200\037\000\014\300\037\200\000"
 5641      C060C031 
 5641      801F000C 
 5641      C01F8000 
 5642 063b 00000000 		.ascii	"\000\000\000\000\000\000\000\000\000\177\0001\2001\200"
 5642      00000000 
 5642      007F0031 
 5642      803180
 5643 064a 31803E00 		.ascii	"1\200>\0003\0001\2001\200|\340\000\000\000\000\000\000"
 5643      33003180 
 5643      31807CE0 
 5643      00000000 
 5643      0000
 5644 065c 00000000 		.ascii	"\000\000\000\000\000\000\000\000\037\2001\2001\2008"
 5644      00000000 
 5644      1F803180 
 5644      318038
 5645 066b 001F0003 		.ascii	"\000\037\000\003\2001\2001\200?\000\000\000\000\000"
 5645      80318031 
 5645      803F0000 
 5645      000000
 5646 067a 00000000 		.ascii	"\000\000\000\000\000\000\000\000\000\000\177\200L\200"
 5646      00000000 
 5646      00007F80 
 5646      4C80
 5647 0688 4C804C80 		.ascii	"L\200L\200\014\000\014\000\014\000\014\000?\000\000"
 5647      0C000C00 
 5647      0C000C00 
 5647      3F0000
 5648 0697 00000000 		.ascii	"\000\000\000\000\000\000\000\000\000\000\000\000\000"
 5648      00000000 
 5648      00000000 
 5648      00
 5649 06a4 7BC03180 		.ascii	"{\3001\2001\2001\2001\2001\2001\2001\200\037\000\000"
 5649      31803180 
 5649      31803180 
 5649      31803180 
 5649      1F0000
 5650 06b7 00000000 		.ascii	"\000\000\000\000\000\000\000\000\000\000\000\000\000"
 5650      00000000 
 5650      00000000 
 5650      00
 5651 06c4 7BC03180 		.ascii	"{\3001\2001\200\033\000\033\000\033\000\012\000\016"
 5651      31801B00 
 5651      1B001B00 
 5651      0A000E
 5652 06d3 000E0000 		.ascii	"\000\016\000\000\000\000\000\000\000\000\000\000\000"
 5652      00000000 
 5652      00000000 
ARM GAS  C:\Users\jisu8\AppData\Local\Temp\ccieva3z.s 			page 160


 5652      00
 5653 06e0 00000000 		.ascii	"\000\000\000\000\373\340`\300d\300n\300n\300*\200;\200"
 5653      FBE060C0 
 5653      64C06EC0 
 5653      6EC02A80 
 5653      3B80
 5654 06f2 3B803180 		.ascii	";\2001\200\000\000\000\000\000\000\000\000\000\000\000"
 5654      00000000 
 5654      00000000 
 5654      000000
 5655 0701 0000007B 		.ascii	"\000\000\000{\3001\200\033\000\016\000\016\000\016\000"
 5655      C031801B 
 5655      000E000E 
 5655      000E00
 5656 0710 1B003180 		.ascii	"\033\0001\200{\300\000\000\000\000\000\000\000\000\000"
 5656      7BC00000 
 5656      00000000 
 5656      000000
 5657 071f 00000000 		.ascii	"\000\000\000\000\000y\3400\300\031\200\017\000\006\000"
 5657      0079E030 
 5657      C019800F 
 5657      000600
 5658 072e 06000600 		.ascii	"\006\000\006\000\006\000\037\200\000\000\000\000\000"
 5658      06001F80 
 5658      00000000 
 5658      00
 5659 073b 00000000 		.ascii	"\000\000\000\000\000\000\000\000\000?\200!\200#\000"
 5659      00000000 
 5659      003F8021 
 5659      802300
 5660 074a 06000400 		.ascii	"\006\000\004\000\014\000\030\2000\200?\200\000\000\000"
 5660      0C001880 
 5660      30803F80 
 5660      000000
 5661 0759 00000000 		.ascii	"\000\000\000\000\000\000\000\000\000\007\200\006\000"
 5661      00000000 
 5661      00078006 
 5661      00
 5662 0766 06000600 		.ascii	"\006\000\006\000\006\000\006\000\006\000\006\000\006"
 5662      06000600 
 5662      06000600 
 5662      06
 5663 0773 00060006 		.ascii	"\000\006\000\006\000\007\200\000\000\000\000\000\000"
 5663      00078000 
 5663      00000000 
 5663      00
 5664 0780 30003000 		.ascii	"0\0000\000\030\000\030\000\014\000\014\000\006\000\003"
 5664      18001800 
 5664      0C000C00 
 5664      060003
 5665 078f 00030001 		.ascii	"\000\003\000\001\200\001\200\000\300\000\300\000\000"
 5665      80018000 
 5665      C000C000 
 5665      00
 5666 079c 00000000 		.ascii	"\000\000\000\000\000\000\036\000\006\000\006\000\006"
 5666      00001E00 
 5666      06000600 
ARM GAS  C:\Users\jisu8\AppData\Local\Temp\ccieva3z.s 			page 161


 5666      06
 5667 07a9 00060006 		.ascii	"\000\006\000\006\000\006\000\006\000\006\000\006\000"
 5667      00060006 
 5667      00060006 
 5667      00
 5668 07b6 06001E00 		.ascii	"\006\000\036\000\000\000\000\000\000\000\004\000\012"
 5668      00000000 
 5668      00000400 
 5668      0A
 5669 07c3 000A0011 		.ascii	"\000\012\000\021\000 \200 \200\000\000\000\000"
 5669      00208020 
 5669      80000000 
 5669      00
 5670 07d0 00000000 		.ascii	"\000\000\000\000\000\000\000\000\000\000\000\000\000"
 5670      00000000 
 5670      00000000 
 5670      00
 5671 07dd 00000000 		.ascii	"\000\000\000\000\000\000\000\000\000\000\000\000\000"
 5671      00000000 
 5671      00000000 
 5671      00
 5672 07ea 00000000 		.ascii	"\000\000\000\000\000\000\000\000\000\000\000\000\000"
 5672      00000000 
 5672      00000000 
 5672      00
 5673 07f7 00000000 		.ascii	"\000\000\000\000\000\000\000\377\340\010\000\004\000"
 5673      000000FF 
 5673      E0080004 
 5673      00
 5674 0804 02000000 		.ascii	"\002\000\000\000\000\000\000\000\000\000\000\000\000"
 5674      00000000 
 5674      00000000 
 5674      00
 5675 0811 00000000 		.ascii	"\000\000\000\000\000\000\000\000\000\000\000\000\000"
 5675      00000000 
 5675      00000000 
 5675      00
 5676 081e 00000000 		.ascii	"\000\000\000\000\000\000\000\000\000\000\037\000\001"
 5676      00000000 
 5676      00001F00 
 5676      01
 5677 082b 8001801F 		.ascii	"\200\001\200\037\2001\2003\200\035\300\000\000\000\000"
 5677      80318033 
 5677      801DC000 
 5677      000000
 5678 083a 00000000 		.ascii	"\000\000\000\000\000\000\000\000p\0000\0000\0007\000"
 5678      00000000 
 5678      70003000 
 5678      30003700 
 5679 084a 398030C0 		.ascii	"9\2000\3000\3000\3009\200w\000\000\000\000\000\000\000"
 5679      30C030C0 
 5679      39807700 
 5679      00000000 
 5679      0000
 5680 085c 00000000 		.ascii	"\000\000\000\000\000\000\000\000\000\000\000\000\036"
 5680      00000000 
 5680      00000000 
ARM GAS  C:\Users\jisu8\AppData\Local\Temp\ccieva3z.s 			page 162


 5680      1E
 5681 0869 80318060 		.ascii	"\2001\200`\200`\000`\2001\200\037\000\000\000\000\000"
 5681      80600060 
 5681      8031801F 
 5681      00000000 
 5681      00
 5682 087a 00000000 		.ascii	"\000\000\000\000\000\000\000\000\003\200\001\200\001"
 5682      00000000 
 5682      03800180 
 5682      01
 5683 0887 801D8033 		.ascii	"\200\035\2003\200a\200a\200a\2003\200\035\300\000\000"
 5683      80618061 
 5683      80618033 
 5683      801DC000 
 5683      00
 5684 0898 00000000 		.ascii	"\000\000\000\000\000\000\000\000\000\000\000\000\000"
 5684      00000000 
 5684      00000000 
 5684      00
 5685 08a5 0000001F 		.ascii	"\000\000\000\037\0001\200`\300\177\300`\0000\300\037"
 5685      00318060 
 5685      C07FC060 
 5685      0030C01F 
 5686 08b5 80000000 		.ascii	"\200\000\000\000\000\000\000\000\000\000\000\000\000"
 5686      00000000 
 5686      00000000 
 5686      00
 5687 08c2 07E00C00 		.ascii	"\007\340\014\000\014\000?\200\014\000\014\000\014\000"
 5687      0C003F80 
 5687      0C000C00 
 5687      0C00
 5688 08d0 0C000C00 		.ascii	"\014\000\014\000?\200\000\000\000\000\000\000\000\000"
 5688      3F800000 
 5688      00000000 
 5688      0000
 5689 08de 00000000 		.ascii	"\000\000\000\000\000\000\000\000\000\000\035\3003\200"
 5689      00000000 
 5689      00001DC0 
 5689      3380
 5690 08ec 61806180 		.ascii	"a\200a\200a\2003\200\035\200\001\200\001\200\037\000"
 5690      61803380 
 5690      1D800180 
 5690      01801F00 
 5691 08fc 00000000 		.ascii	"\000\000\000\000\000\000p\0000\0000\0007\0009\2001\200"
 5691      00007000 
 5691      30003000 
 5691      37003980 
 5691      3180
 5692 090e 31803180 		.ascii	"1\2001\2001\200{\300\000\000\000\000\000\000\000\000"
 5692      31807BC0 
 5692      00000000 
 5692      00000000 
 5693 091e 00000000 		.ascii	"\000\000\000\000\006\000\006\000\000\000\036\000\006"
 5693      06000600 
 5693      00001E00 
 5693      06
 5694 092b 00060006 		.ascii	"\000\006\000\006\000\006\000\006\000?\300\000\000\000"
ARM GAS  C:\Users\jisu8\AppData\Local\Temp\ccieva3z.s 			page 163


 5694      00060006 
 5694      003FC000 
 5694      0000
 5695 0939 00000000 		.ascii	"\000\000\000\000\000\000\000\000\000\006\000\006\000"
 5695      00000000 
 5695      00060006 
 5695      00
 5696 0946 00003F00 		.ascii	"\000\000?\000\003\000\003\000\003\000\003\000\003\000"
 5696      03000300 
 5696      03000300 
 5696      0300
 5697 0954 03000300 		.ascii	"\003\000\003\000\003\000>\000\000\000\000\000\000\000"
 5697      03003E00 
 5697      00000000 
 5697      0000
 5698 0962 70003000 		.ascii	"p\0000\0000\0007\2006\000<\000<\0006\0003\000w\300\000"
 5698      30003780 
 5698      36003C00 
 5698      3C003600 
 5698      330077C0 
 5699 0977 00000000 		.ascii	"\000\000\000\000\000\000\000\000\000\000\000\036\000"
 5699      00000000 
 5699      0000001E 
 5699      00
 5700 0984 06000600 		.ascii	"\006\000\006\000\006\000\006\000\006\000\006\000\006"
 5700      06000600 
 5700      06000600 
 5700      06
 5701 0991 0006003F 		.ascii	"\000\006\000?\300\000\000\000\000\000\000\000\000\000"
 5701      C0000000 
 5701      00000000 
 5701      0000
 5702 099f 00000000 		.ascii	"\000\000\000\000\000\000\000\000\000\177\2006\3006\300"
 5702      00000000 
 5702      007F8036 
 5702      C036C0
 5703 09ae 36C036C0 		.ascii	"6\3006\3006\300v\340\000\000\000\000\000\000\000\000"
 5703      36C076E0 
 5703      00000000 
 5703      00000000 
 5704 09be 00000000 		.ascii	"\000\000\000\000\000\000\000\000\000\000w\0009\2001"
 5704      00000000 
 5704      00007700 
 5704      398031
 5705 09cd 80318031 		.ascii	"\2001\2001\2001\200{\300\000\000\000\000\000\000\000"
 5705      8031807B 
 5705      C0000000 
 5705      00000000 
 5706 09dd 00000000 		.ascii	"\000\000\000\000\000\000\000\000\000\000\000\037\000"
 5706      00000000 
 5706      0000001F 
 5706      00
 5707 09ea 318060C0 		.ascii	"1\200`\300`\300`\3001\200\037\000\000\000\000\000\000"
 5707      60C060C0 
 5707      31801F00 
 5707      00000000 
 5707      00
ARM GAS  C:\Users\jisu8\AppData\Local\Temp\ccieva3z.s 			page 164


 5708 09fb 00000000 		.ascii	"\000\000\000\000\000\000\000\000\000\000\000\000\000"
 5708      00000000 
 5708      00000000 
 5708      00
 5709 0a08 77003980 		.ascii	"w\0009\2000\3000\3000\3009\2007\0000\0000\000|\000\000"
 5709      30C030C0 
 5709      30C03980 
 5709      37003000 
 5709      30007C00 
 5710 0a1d 00000000 		.ascii	"\000\000\000\000\000\000\000\000\000\000\000\035\300"
 5710      00000000 
 5710      0000001D 
 5710      C0
 5711 0a2a 33806180 		.ascii	"3\200a\200a\200a\2003\200\035\200\001\200\001\200\007"
 5711      61806180 
 5711      33801D80 
 5711      01800180 
 5711      07
 5712 0a3b C0000000 		.ascii	"\300\000\000\000\000\000\000\000\000\000\000\000\000"
 5712      00000000 
 5712      00000000 
 5712      00
 5713 0a48 7B801CC0 		.ascii	"{\200\034\300\030\000\030\000\030\000\030\000\177\000"
 5713      18001800 
 5713      18001800 
 5713      7F00
 5714 0a56 00000000 		.ascii	"\000\000\000\000\000\000\000\000\000\000\000\000\000"
 5714      00000000 
 5714      00000000 
 5714      00
 5715 0a63 00000000 		.ascii	"\000\000\000\000\000\037\2001\200<\000\037\000\003\200"
 5715      001F8031 
 5715      803C001F 
 5715      000380
 5716 0a72 31803F00 		.ascii	"1\200?\000\000\000\000\000\000\000\000\000\000\000\000"
 5716      00000000 
 5716      00000000 
 5716      000000
 5717 0a81 00180018 		.ascii	"\000\030\000\030\000\030\000\177\000\030\000\030\000"
 5717      0018007F 
 5717      00180018 
 5717      00
 5718 0a8e 18001800 		.ascii	"\030\000\030\000\030\200\017\000\000\000\000\000\000"
 5718      18800F00 
 5718      00000000 
 5718      00
 5719 0a9b 00000000 		.ascii	"\000\000\000\000\000\000\000\000\000\000\000\000\000"
 5719      00000000 
 5719      00000000 
 5719      00
 5720 0aa8 73803180 		.ascii	"s\2001\2001\2001\2001\2003\200\035\300\000\000\000\000"
 5720      31803180 
 5720      31803380 
 5720      1DC00000 
 5720      0000
 5721 0aba 00000000 		.ascii	"\000\000\000\000\000\000\000\000\000\000\000\000\000"
 5721      00000000 
ARM GAS  C:\Users\jisu8\AppData\Local\Temp\ccieva3z.s 			page 165


 5721      00000000 
 5721      00
 5722 0ac7 007BC031 		.ascii	"\000{\3001\2001\200\033\000\033\000\016\000\016\000"
 5722      8031801B 
 5722      001B000E 
 5722      000E00
 5723 0ad6 00000000 		.ascii	"\000\000\000\000\000\000\000\000\000\000\000\000\000"
 5723      00000000 
 5723      00000000 
 5723      00
 5724 0ae3 00000000 		.ascii	"\000\000\000\000\000\361\340`\300d\300n\300;\200;\200"
 5724      00F1E060 
 5724      C064C06E 
 5724      C03B803B 
 5724      80
 5725 0af4 31800000 		.ascii	"1\200\000\000\000\000\000\000\000\000\000\000\000\000"
 5725      00000000 
 5725      00000000 
 5725      0000
 5726 0b02 00000000 		.ascii	"\000\000\000\000\000\000{\300\033\000\016\000\016\000"
 5726      00007BC0 
 5726      1B000E00 
 5726      0E00
 5727 0b10 0E001B00 		.ascii	"\016\000\033\000{\300\000\000\000\000\000\000\000\000"
 5727      7BC00000 
 5727      00000000 
 5727      0000
 5728 0b1e 00000000 		.ascii	"\000\000\000\000\000\000\000\000\000\000y\3400\300\031"
 5728      00000000 
 5728      000079E0 
 5728      30C019
 5729 0b2d 8019800B 		.ascii	"\200\031\200\013\000\017\000\006\000\006\000\014\000"
 5729      000F0006 
 5729      0006000C 
 5729      00
 5730 0b3a 3E000000 		.ascii	">\000\000\000\000\000\000\000\000\000\000\000\000\000"
 5730      00000000 
 5730      00000000 
 5730      0000
 5731 0b48 3F802180 		.ascii	"?\200!\200\003\000\016\000\030\0000\200?\200\000\000"
 5731      03000E00 
 5731      18003080 
 5731      3F800000 
 5732 0b58 00000000 		.ascii	"\000\000\000\000\000\000\000\000\000\000\006\000\014"
 5732      00000000 
 5732      00000600 
 5732      0C
 5733 0b65 000C000C 		.ascii	"\000\014\000\014\000\014\000\014\000\030\000\014\000"
 5733      000C000C 
 5733      0018000C 
 5733      00
 5734 0b72 0C000C00 		.ascii	"\014\000\014\000\014\000\006\000\000\000\000\000\000"
 5734      0C000600 
 5734      00000000 
 5734      00
 5735 0b7f 00000006 		.ascii	"\000\000\000\006\000\006\000\006\000\006\000\006\000"
 5735      00060006 
ARM GAS  C:\Users\jisu8\AppData\Local\Temp\ccieva3z.s 			page 166


 5735      00060006 
 5735      00
 5736 0b8c 06000600 		.ascii	"\006\000\006\000\006\000\006\000\006\000\006\000\006"
 5736      06000600 
 5736      06000600 
 5736      06
 5737 0b99 00000000 		.ascii	"\000\000\000\000\000\000\000\000\000\014\000\006\000"
 5737      00000000 
 5737      000C0006 
 5737      00
 5738 0ba6 06000600 		.ascii	"\006\000\006\000\006\000\006\000\003\000\006\000\006"
 5738      06000600 
 5738      03000600 
 5738      06
 5739 0bb3 00060006 		.ascii	"\000\006\000\006\000\014\000\000\000\000\000\000\000"
 5739      000C0000 
 5739      00000000 
 5739      00
 5740 0bc0 00000000 		.ascii	"\000\000\000\000\000\000\000\000\000\000\030\000$\200"
 5740      00000000 
 5740      00001800 
 5740      2480
 5741 0bce 03000000 		.ascii	"\003\000\000\000\000\000\000\000\000\000\000\000\000"
 5741      00000000 
 5741      00000000 
 5741      00
 5742 0bdb 00000000 		.ascii	"\000\000\000\000\000"
 5742      00
 5743              		.section	.rodata.Font20_Table,"a"
 5744              		.align	2
 5747              	Font20_Table:
 5748 0000 00000000 		.ascii	"\000\000\000\000\000\000\000\000\000\000\000\000\000"
 5748      00000000 
 5748      00000000 
 5748      00
 5749 000d 00000000 		.ascii	"\000\000\000\000\000\000\000\000\000\000\000\000\000"
 5749      00000000 
 5749      00000000 
 5749      00
 5750 001a 00000000 		.ascii	"\000\000\000\000\000\000\000\000\000\000\000\000\000"
 5750      00000000 
 5750      00000000 
 5750      00
 5751 0027 00000007 		.ascii	"\000\000\000\007\000\007\000\007\000\007\000\007\000"
 5751      00070007 
 5751      00070007 
 5751      00
 5752 0034 07000700 		.ascii	"\007\000\007\000\002\000\002\000\000\000\000\000\007"
 5752      02000200 
 5752      00000000 
 5752      07
 5753 0041 00070000 		.ascii	"\000\007\000\000\000\000\000\000\000\000\000\000\000"
 5753      00000000 
 5753      00000000 
 5753      00
 5754 004e 00000000 		.ascii	"\000\000\000\000\000\000\034\340\034\340\034\340\010"
 5754      00001CE0 
ARM GAS  C:\Users\jisu8\AppData\Local\Temp\ccieva3z.s 			page 167


 5754      1CE01CE0 
 5754      08
 5755 005b 40084008 		.ascii	"@\010@\010@\000\000\000\000\000\000\000\000\000\000"
 5755      40000000 
 5755      00000000 
 5755      000000
 5756 006a 00000000 		.ascii	"\000\000\000\000\000\000\000\000\000\000\000\000\000"
 5756      00000000 
 5756      00000000 
 5756      00
 5757 0077 000CC00C 		.ascii	"\000\014\300\014\300\014\300\014\300\014\300?\360?\360"
 5757      C00CC00C 
 5757      C00CC03F 
 5757      F03FF0
 5758 0086 0CC00CC0 		.ascii	"\014\300\014\300?\360?\360\014\300\014\300\014\300\014"
 5758      3FF03FF0 
 5758      0CC00CC0 
 5758      0CC00C
 5759 0095 C00CC000 		.ascii	"\300\014\300\000\000\000\000\000\000\000\000\003\000"
 5759      00000000 
 5759      00000003 
 5759      00
 5760 00a2 030007E0 		.ascii	"\003\000\007\340\017\340\030`\030\000\037\000\017\300"
 5760      0FE01860 
 5760      18001F00 
 5760      0FC0
 5761 00b0 00E01860 		.ascii	"\000\340\030`\030`\037\300\037\200\003\000\003\000\003"
 5761      18601FC0 
 5761      1F800300 
 5761      030003
 5762 00bf 00000000 		.ascii	"\000\000\000\000\000\000\000\000\000\000\000\034\000"
 5762      00000000 
 5762      0000001C 
 5762      00
 5763 00cc 22002200 		.ascii	"\"\000\"\000\"\000\034`\001\340\017\200<\0001\300\002"
 5763      22001C60 
 5763      01E00F80 
 5763      3C0031C0 
 5763      02
 5764 00dd 20022002 		.ascii	" \002 \002 \001\300\000\000\000\000\000\000\000\000"
 5764      2001C000 
 5764      00000000 
 5764      000000
 5765 00ec 00000000 		.ascii	"\000\000\000\000\000\000\000\000\000\000\003\340\017"
 5765      00000000 
 5765      000003E0 
 5765      0F
 5766 00f9 E00C000C 		.ascii	"\340\014\000\014\000\006\000\0170\037\360\031\340\030"
 5766      0006000F 
 5766      301FF019 
 5766      E018
 5767 0107 C01FF007 		.ascii	"\300\037\360\007\260\000\000\000\000\000\000\000\000"
 5767      B0000000 
 5767      00000000 
 5767      00
 5768 0114 00000000 		.ascii	"\000\000\000\000\000\000\000\000\003\200\003\200\003"
 5768      00000000 
ARM GAS  C:\Users\jisu8\AppData\Local\Temp\ccieva3z.s 			page 168


 5768      03800380 
 5768      03
 5769 0121 80010001 		.ascii	"\200\001\000\001\000\001\000\000\000\000\000\000\000"
 5769      00010000 
 5769      00000000 
 5769      00
 5770 012e 00000000 		.ascii	"\000\000\000\000\000\000\000\000\000\000\000\000\000"
 5770      00000000 
 5770      00000000 
 5770      00
 5771 013b 00000000 		.ascii	"\000\000\000\000\000\000\000\000\300\000\300\001\200"
 5771      00000000 
 5771      C000C001 
 5771      80
 5772 0148 01800180 		.ascii	"\001\200\001\200\003\000\003\000\003\000\003\000\003"
 5772      03000300 
 5772      03000300 
 5772      03
 5773 0155 00030001 		.ascii	"\000\003\000\001\200\001\200\001\200\000\300\000\300"
 5773      80018001 
 5773      8000C000 
 5773      C0
 5774 0162 00000000 		.ascii	"\000\000\000\000\000\000\000\000\014\000\014\000\006"
 5774      00000000 
 5774      0C000C00 
 5774      06
 5775 016f 00060006 		.ascii	"\000\006\000\006\000\003\000\003\000\003\000\003\000"
 5775      00030003 
 5775      00030003 
 5775      00
 5776 017c 03000300 		.ascii	"\003\000\003\000\006\000\006\000\006\000\014\000\014"
 5776      06000600 
 5776      06000C00 
 5776      0C
 5777 0189 00000000 		.ascii	"\000\000\000\000\000\000\000\000\000\003\000\003\000"
 5777      00000000 
 5777      00030003 
 5777      00
 5778 0196 03001B60 		.ascii	"\003\000\033`\037\340\007\200\007\200\017\300\014\300"
 5778      1FE00780 
 5778      07800FC0 
 5778      0CC0
 5779 01a4 00000000 		.ascii	"\000\000\000\000\000\000\000\000\000\000\000\000\000"
 5779      00000000 
 5779      00000000 
 5779      00
 5780 01b1 00000000 		.ascii	"\000\000\000\000\000\000\000\000\000\000\000\000\000"
 5780      00000000 
 5780      00000000 
 5780      00
 5781 01be 03000300 		.ascii	"\003\000\003\000\003\000\003\000?\360?\360\003\000\003"
 5781      03000300 
 5781      3FF03FF0 
 5781      030003
 5782 01cd 00030003 		.ascii	"\000\003\000\003\000\000\000\000\000\000\000\000\000"
 5782      00000000 
 5782      00000000 
ARM GAS  C:\Users\jisu8\AppData\Local\Temp\ccieva3z.s 			page 169


 5782      00
 5783 01da 00000000 		.ascii	"\000\000\000\000\000\000\000\000\000\000\000\000\000"
 5783      00000000 
 5783      00000000 
 5783      00
 5784 01e7 00000000 		.ascii	"\000\000\000\000\000\000\000\000\000\000\000\000\000"
 5784      00000000 
 5784      00000000 
 5784      00
 5785 01f4 00000380 		.ascii	"\000\000\003\200\003\000\003\000\006\000\006\000\004"
 5785      03000300 
 5785      06000600 
 5785      04
 5786 0201 00000000 		.ascii	"\000\000\000\000\000\000\000\000\000\000\000\000\000"
 5786      00000000 
 5786      00000000 
 5786      00
 5787 020e 00000000 		.ascii	"\000\000\000\000\000\000\000\000?\340?\340\000\000\000"
 5787      00000000 
 5787      3FE03FE0 
 5787      000000
 5788 021d 00000000 		.ascii	"\000\000\000\000\000\000\000\000\000\000\000\000\000"
 5788      00000000 
 5788      00000000 
 5788      00
 5789 022a 00000000 		.ascii	"\000\000\000\000\000\000\000\000\000\000\000\000\000"
 5789      00000000 
 5789      00000000 
 5789      00
 5790 0237 00000000 		.ascii	"\000\000\000\000\000\000\000\000\000\000\000\000\000"
 5790      00000000 
 5790      00000000 
 5790      00
 5791 0244 00000380 		.ascii	"\000\000\003\200\003\200\003\200\000\000\000\000\000"
 5791      03800380 
 5791      00000000 
 5791      00
 5792 0251 00000000 		.ascii	"\000\000\000\000\000\000\000\000`\000`\000\300\000\300"
 5792      00000000 
 5792      60006000 
 5792      C000C0
 5793 0260 00C00180 		.ascii	"\000\300\001\200\001\200\003\000\003\000\006\000\006"
 5793      01800300 
 5793      03000600 
 5793      06
 5794 026d 000C000C 		.ascii	"\000\014\000\014\000\014\000\030\000\030\000\000\000"
 5794      000C0018 
 5794      00180000 
 5794      00
 5795 027a 00000000 		.ascii	"\000\000\000\000\000\000\000\000\017\200\037\300\030"
 5795      00000000 
 5795      0F801FC0 
 5795      18
 5796 0287 C0306030 		.ascii	"\3000`0`0`0`0`0`0`\030\300\037\300\017\200\000\000\000"
 5796      60306030 
 5796      60306030 
 5796      60306018 
ARM GAS  C:\Users\jisu8\AppData\Local\Temp\ccieva3z.s 			page 170


 5796      C01FC00F 
 5797 029f 00000000 		.ascii	"\000\000\000\000\000\000\000\000\000\000\000\003\000"
 5797      00000000 
 5797      00000003 
 5797      00
 5798 02ac 1F001F00 		.ascii	"\037\000\037\000\003\000\003\000\003\000\003\000\003"
 5798      03000300 
 5798      03000300 
 5798      03
 5799 02b9 00030003 		.ascii	"\000\003\000\003\000\003\000\037\340\037\340\000\000"
 5799      0003001F 
 5799      E01FE000 
 5799      00
 5800 02c6 00000000 		.ascii	"\000\000\000\000\000\000\000\000\000\000\000\000\017"
 5800      00000000 
 5800      00000000 
 5800      0F
 5801 02d3 801FC038 		.ascii	"\200\037\3008\3400`\000`\000\300\001\200\003\000\006"
 5801      E0306000 
 5801      6000C001 
 5801      80030006 
 5802 02e3 000C0018 		.ascii	"\000\014\000\030\000?\340?\340\000\000\000\000\000\000"
 5802      003FE03F 
 5802      E0000000 
 5802      000000
 5803 02f2 00000000 		.ascii	"\000\000\000\000\000\000\000\000\017\200?\3000\340\000"
 5803      00000000 
 5803      0F803FC0 
 5803      30E000
 5804 0301 6000E007 		.ascii	"`\000\340\007\300\007\300\000\340\000`\000``\340\177"
 5804      C007C000 
 5804      E0006000 
 5804      6060E07F 
 5805 0311 C03F8000 		.ascii	"\300?\200\000\000\000\000\000\000\000\000\000\000\000"
 5805      00000000 
 5805      00000000 
 5805      0000
 5806 031f 00000001 		.ascii	"\000\000\000\001\300\003\300\003\300\006\300\014\300"
 5806      C003C003 
 5806      C006C00C 
 5806      C0
 5807 032c 0CC018C0 		.ascii	"\014\300\030\3000\300?\340?\340\000\300\003\340\003"
 5807      30C03FE0 
 5807      3FE000C0 
 5807      03E003
 5808 033b E0000000 		.ascii	"\340\000\000\000\000\000\000\000\000\000\000\000\000"
 5808      00000000 
 5808      00000000 
 5808      00
 5809 0348 00001FC0 		.ascii	"\000\000\037\300\037\300\030\000\030\000\037\200\037"
 5809      1FC01800 
 5809      18001F80 
 5809      1F
 5810 0355 C018E000 		.ascii	"\300\030\340\000`\000`\000`0\340?\300\037\200\000\000"
 5810      60006000 
 5810      6030E03F 
 5810      C01F8000 
ARM GAS  C:\Users\jisu8\AppData\Local\Temp\ccieva3z.s 			page 171


 5810      00
 5811 0366 00000000 		.ascii	"\000\000\000\000\000\000\000\000\000\000\000\000\003"
 5811      00000000 
 5811      00000000 
 5811      03
 5812 0373 E00FE01E 		.ascii	"\340\017\340\036\000\030\0008\0007\200?\3008\3400`0"
 5812      00180038 
 5812      0037803F 
 5812      C038E030 
 5812      6030
 5813 0385 6018E01F 		.ascii	"`\030\340\037\300\007\200\000\000\000\000\000\000\000"
 5813      C0078000 
 5813      00000000 
 5813      0000
 5814 0393 00000000 		.ascii	"\000\000\000\000\000\000\000?\340?\3400`\000`\000\300"
 5814      0000003F 
 5814      E03FE030 
 5814      60006000 
 5814      C0
 5815 03a4 00C000C0 		.ascii	"\000\300\000\300\001\200\001\200\001\200\003\000\003"
 5815      01800180 
 5815      01800300 
 5815      03
 5816 03b1 00030000 		.ascii	"\000\003\000\000\000\000\000\000\000\000\000\000\000"
 5816      00000000 
 5816      00000000 
 5816      00
 5817 03be 00000000 		.ascii	"\000\000\000\000\017\200\037\3008\3400`8\340\037\300"
 5817      0F801FC0 
 5817      38E03060 
 5817      38E01FC0 
 5818 03ce 1FC038E0 		.ascii	"\037\3008\3400`0`8\340\037\300\017\200\000\000\000\000"
 5818      30603060 
 5818      38E01FC0 
 5818      0F800000 
 5818      0000
 5819 03e0 00000000 		.ascii	"\000\000\000\000\000\000\000\000\000\000\017\000\037"
 5819      00000000 
 5819      00000F00 
 5819      1F
 5820 03ed C038C030 		.ascii	"\3008\3000`0`8\340\037\340\017`\000\340\000\300\003"
 5820      60306038 
 5820      E01FE00F 
 5820      6000E000 
 5820      C003
 5821 03ff C03F803E 		.ascii	"\300?\200>\000\000\000\000\000\000\000\000\000\000\000"
 5821      00000000 
 5821      00000000 
 5821      000000
 5822 040e 00000000 		.ascii	"\000\000\000\000\000\000\000\000\000\000\000\000\003"
 5822      00000000 
 5822      00000000 
 5822      03
 5823 041b 80038003 		.ascii	"\200\003\200\003\200\000\000\000\000\000\000\003\200"
 5823      80000000 
 5823      00000003 
 5823      80
ARM GAS  C:\Users\jisu8\AppData\Local\Temp\ccieva3z.s 			page 172


 5824 0428 03800380 		.ascii	"\003\200\003\200\000\000\000\000\000\000\000\000\000"
 5824      00000000 
 5824      00000000 
 5824      00
 5825 0435 00000000 		.ascii	"\000\000\000\000\000\000\000\000\000\000\000\000\000"
 5825      00000000 
 5825      00000000 
 5825      00
 5826 0442 01C001C0 		.ascii	"\001\300\001\300\001\300\000\000\000\000\000\000\003"
 5826      01C00000 
 5826      00000000 
 5826      03
 5827 044f 80030006 		.ascii	"\200\003\000\006\000\006\000\004\000\000\000\000\000"
 5827      00060004 
 5827      00000000 
 5827      00
 5828 045c 00000000 		.ascii	"\000\000\000\000\000\000\000\000\000\000\0000\000\360"
 5828      00000000 
 5828      00000030 
 5828      00F0
 5829 046a 03C00700 		.ascii	"\003\300\007\000\034\000x\000\034\000\007\000\003\300"
 5829      1C007800 
 5829      1C000700 
 5829      03C0
 5830 0478 00F00030 		.ascii	"\000\360\0000\000\000\000\000\000\000\000\000\000\000"
 5830      00000000 
 5830      00000000 
 5830      0000
 5831 0486 00000000 		.ascii	"\000\000\000\000\000\000\000\000\000\000\000\000\177"
 5831      00000000 
 5831      00000000 
 5831      7F
 5832 0493 F07FF000 		.ascii	"\360\177\360\000\000\000\000\177\360\177\360\000\000"
 5832      0000007F 
 5832      F07FF000 
 5832      00
 5833 04a0 00000000 		.ascii	"\000\000\000\000\000\000\000\000\000\000\000\000\000"
 5833      00000000 
 5833      00000000 
 5833      00
 5834 04ad 00000000 		.ascii	"\000\000\000\000\000\000\000\000\0000\000<\000\017\000"
 5834      00000000 
 5834      0030003C 
 5834      000F00
 5835 04bc 038000E0 		.ascii	"\003\200\000\340\000x\000\340\003\200\017\000<\0000"
 5835      007800E0 
 5835      03800F00 
 5835      3C0030
 5836 04cb 00000000 		.ascii	"\000\000\000\000\000\000\000\000\000\000\000\000\000"
 5836      00000000 
 5836      00000000 
 5836      00
 5837 04d8 00000000 		.ascii	"\000\000\000\000\017\200\037\300\030`\030`\000`\001"
 5837      0F801FC0 
 5837      18601860 
 5837      006001
 5838 04e7 C0038003 		.ascii	"\300\003\200\003\000\000\000\000\000\007\000\007\000"
ARM GAS  C:\Users\jisu8\AppData\Local\Temp\ccieva3z.s 			page 173


 5838      00000000 
 5838      00070007 
 5838      00
 5839 04f4 00000000 		.ascii	"\000\000\000\000\000\000\000\000\000\000\000\000\000"
 5839      00000000 
 5839      00000000 
 5839      00
 5840 0501 0003800C 		.ascii	"\000\003\200\014\200\010@\020@\020@\021\300\022@\022"
 5840      80084010 
 5840      40104011 
 5840      C0124012 
 5841 0511 40124011 		.ascii	"@\022@\021\300\020\000\010\000\010@\007\200\000\000"
 5841      C0100008 
 5841      00084007 
 5841      800000
 5842 0520 00000000 		.ascii	"\000\000\000\000\000\000\000\000\000\000\000\000\037"
 5842      00000000 
 5842      00000000 
 5842      1F
 5843 052d 801F8003 		.ascii	"\200\037\200\003\200\006\300\006\300\014\300\014`\037"
 5843      8006C006 
 5843      C00CC00C 
 5843      601F
 5844 053b E01FE030 		.ascii	"\340\037\34000xxxx\000\000\000\000\000\000\000\000\000"
 5844      30787878 
 5844      78000000 
 5844      00000000 
 5844      0000
 5845 054d 00000000 		.ascii	"\000\000\000\000\000\000\000?\200?\300\030`\030`\030"
 5845      0000003F 
 5845      803FC018 
 5845      60186018 
 5846 055d E01FC01F 		.ascii	"\340\037\300\037\340\030p\0300\0300?\360?\340\000\000"
 5846      E0187018 
 5846      3018303F 
 5846      F03FE000 
 5846      00
 5847 056e 00000000 		.ascii	"\000\000\000\000\000\000\000\000\000\000\000\000\000"
 5847      00000000 
 5847      00000000 
 5847      00
 5848 057b 0007B00F 		.ascii	"\000\007\260\017\360\034p800\0000\0000\0000\00080\034"
 5848      F01C7038 
 5848      30300030 
 5848      00300030 
 5848      0038301C 
 5849 058f 700FE007 		.ascii	"p\017\340\007\300\000\000\000\000\000\000\000\000\000"
 5849      C0000000 
 5849      00000000 
 5849      0000
 5850 059d 00000000 		.ascii	"\000\000\000\000\000\000\000\177\200\177\3000\3400p"
 5850      0000007F 
 5850      807FC030 
 5850      E03070
 5851 05ac 30303030 		.ascii	"000000000p0\340\177\300\177\200\000\000\000\000\000"
 5851      30303030 
 5851      307030E0 
ARM GAS  C:\Users\jisu8\AppData\Local\Temp\ccieva3z.s 			page 174


 5851      7FC07F80 
 5851      00000000 
 5852 05c1 00000000 		.ascii	"\000\000\000\000\000\000\000\000\000\000\000?\360?\360"
 5852      00000000 
 5852      0000003F 
 5852      F03FF0
 5853 05d0 18301830 		.ascii	"\0300\0300\031\200\037\200\037\200\031\200\0300\030"
 5853      19801F80 
 5853      1F801980 
 5853      183018
 5854 05df 303FF03F 		.ascii	"0?\360?\360\000\000\000\000\000\000\000\000\000\000"
 5854      F0000000 
 5854      00000000 
 5854      000000
 5855 05ee 00000000 		.ascii	"\000\000\000\000\000\000?\360?\360\0300\0300\031\200"
 5855      00003FF0 
 5855      3FF01830 
 5855      18301980 
 5856 05fe 1F801F80 		.ascii	"\037\200\037\200\031\200\030\000\030\000?\000?\000\000"
 5856      19801800 
 5856      18003F00 
 5856      3F0000
 5857 060d 00000000 		.ascii	"\000\000\000\000\000\000\000\000\000\000\000\000\000"
 5857      00000000 
 5857      00000000 
 5857      00
 5858 061a 000007B0 		.ascii	"\000\000\007\260\037\360\030p000\0000\0001\3701\370"
 5858      1FF01870 
 5858      30303000 
 5858      300031F8 
 5858      31F8
 5859 062c 30301830 		.ascii	"00\0300\037\360\007\300\000\000\000\000\000\000\000"
 5859      1FF007C0 
 5859      00000000 
 5859      000000
 5860 063b 00000000 		.ascii	"\000\000\000\000\000\000\000\000\000<\360<\360\030`"
 5860      00000000 
 5860      003CF03C 
 5860      F01860
 5861 064a 18601860 		.ascii	"\030`\030`\037\340\037\340\030`\030`\030`<\360<\360"
 5861      1FE01FE0 
 5861      18601860 
 5861      18603CF0 
 5861      3CF0
 5862 065c 00000000 		.ascii	"\000\000\000\000\000\000\000\000\000\000\000\000\000"
 5862      00000000 
 5862      00000000 
 5862      00
 5863 0669 0000001F 		.ascii	"\000\000\000\037\340\037\340\003\000\003\000\003\000"
 5863      E01FE003 
 5863      00030003 
 5863      00
 5864 0676 03000300 		.ascii	"\003\000\003\000\003\000\003\000\003\000\037\340\037"
 5864      03000300 
 5864      03001FE0 
 5864      1F
 5865 0683 E0000000 		.ascii	"\340\000\000\000\000\000\000\000\000\000\000\000\000"
ARM GAS  C:\Users\jisu8\AppData\Local\Temp\ccieva3z.s 			page 175


 5865      00000000 
 5865      00000000 
 5865      00
 5866 0690 00000000 		.ascii	"\000\000\000\000\003\370\003\370\000`\000`\000`\000"
 5866      03F803F8 
 5866      00600060 
 5866      006000
 5867 069f 60306030 		.ascii	"`0`0`0`0\340?\300\017\200\000\000\000\000\000\000\000"
 5867      60306030 
 5867      E03FC00F 
 5867      80000000 
 5867      00000000 
 5868 06b3 00000000 		.ascii	"\000\000\000\000\000\000\000\000\000>\370>\370\030\340"
 5868      00000000 
 5868      003EF83E 
 5868      F818E0
 5869 06c2 19801B00 		.ascii	"\031\200\033\000\037\000\035\200\030\300\030\300\030"
 5869      1F001D80 
 5869      18C018C0 
 5869      18
 5870 06cf 603E783E 		.ascii	"`>x>8\000\000\000\000\000\000\000\000\000\000\000\000"
 5870      38000000 
 5870      00000000 
 5870      00000000 
 5870      00
 5871 06e0 00000000 		.ascii	"\000\000\000\000?\000?\000\014\000\014\000\014\000\014"
 5871      3F003F00 
 5871      0C000C00 
 5871      0C000C
 5872 06ef 000C000C 		.ascii	"\000\014\000\0140\0140\0140?\360?\360\000\000\000\000"
 5872      300C300C 
 5872      303FF03F 
 5872      F0000000 
 5872      00
 5873 0700 00000000 		.ascii	"\000\000\000\000\000\000\000\000\000\000\000\000xxx"
 5873      00000000 
 5873      00000000 
 5873      787878
 5874 070f 7838703C 		.ascii	"x8p<\3604\2607\2607\260303000|\370|\370\000\000\000"
 5874      F034B037 
 5874      B037B033 
 5874      30333030 
 5874      307CF87C 
 5875 0727 00000000 		.ascii	"\000\000\000\000\000\000\000\000\000\000\000\000\000"
 5875      00000000 
 5875      00000000 
 5875      00
 5876 0734 39F03DF0 		.ascii	"9\360=\360\034`\036`\036`\033`\033`\031\340\031\340"
 5876      1C601E60 
 5876      1E601B60 
 5876      1B6019E0 
 5876      19E0
 5877 0746 18E03EE0 		.ascii	"\030\340>\340>`\000\000\000\000\000\000\000\000\000"
 5877      3E600000 
 5877      00000000 
 5877      000000
 5878 0755 00000000 		.ascii	"\000\000\000\000\000\000\000\007\200\017\300\034\340"
ARM GAS  C:\Users\jisu8\AppData\Local\Temp\ccieva3z.s 			page 176


 5878      00000007 
 5878      800FC01C 
 5878      E0
 5879 0762 38703030 		.ascii	"8p000000008p\034\340\017\300\007\200\000\000\000\000"
 5879      30303030 
 5879      30303870 
 5879      1CE00FC0 
 5879      07800000 
 5880 0778 00000000 		.ascii	"\000\000\000\000\000\000\000\000\000\000\000\000?\300"
 5880      00000000 
 5880      00000000 
 5880      3FC0
 5881 0786 3FE01870 		.ascii	"?\340\030p\0300\0300\030p\037\340\037\300\030\000\030"
 5881      18301830 
 5881      18701FE0 
 5881      1FC01800 
 5881      18
 5882 0797 003F003F 		.ascii	"\000?\000?\000\000\000\000\000\000\000\000\000\000\000"
 5882      00000000 
 5882      00000000 
 5882      000000
 5883 07a6 00000000 		.ascii	"\000\000\000\000\000\000\007\200\017\300\034\3408p0"
 5883      00000780 
 5883      0FC01CE0 
 5883      387030
 5884 07b5 30303030 		.ascii	"00000008p\034\340\017\300\007\200\007\260\017\360\014"
 5884      30303038 
 5884      701CE00F 
 5884      C0078007 
 5884      B00FF00C 
 5885 07c9 E0000000 		.ascii	"\340\000\000\000\000\000\000"
 5885      000000
 5886 07d0 00000000 		.ascii	"\000\000\000\000?\300?\340\030p\0300\030p\037\340\037"
 5886      3FC03FE0 
 5886      18701830 
 5886      18701FE0 
 5886      1F
 5887 07e1 C018E018 		.ascii	"\300\030\340\030`\030p>8>\030\000\000\000\000\000\000"
 5887      6018703E 
 5887      383E1800 
 5887      00000000 
 5887      00
 5888 07f2 00000000 		.ascii	"\000\000\000\000\000\000\000\000\000\000\017\260\037"
 5888      00000000 
 5888      00000FB0 
 5888      1F
 5889 07ff F0387030 		.ascii	"\3608p008\000\037\200\007\340\000p008p?\3407\300\000"
 5889      3038001F 
 5889      8007E000 
 5889      70303038 
 5889      703FE037 
 5890 0815 00000000 		.ascii	"\000\000\000\000\000\000\000\000\000\000\000\000\000"
 5890      00000000 
 5890      00000000 
 5890      00
 5891 0822 00003FF0 		.ascii	"\000\000?\360?\360303030\003\000\003\000\003\000\003"
 5891      3FF03330 
ARM GAS  C:\Users\jisu8\AppData\Local\Temp\ccieva3z.s 			page 177


 5891      33303330 
 5891      03000300 
 5891      030003
 5892 0835 0003000F 		.ascii	"\000\003\000\017\300\017\300\000\000\000\000\000\000"
 5892      C00FC000 
 5892      00000000 
 5892      00
 5893 0842 00000000 		.ascii	"\000\000\000\000\000\000\000\000\000\000<\360<\360\030"
 5893      00000000 
 5893      00003CF0 
 5893      3CF018
 5894 0851 60186018 		.ascii	"`\030`\030`\030`\030`\030`\030`\034\340\017\300\007"
 5894      60186018 
 5894      60186018 
 5894      601CE00F 
 5894      C007
 5895 0863 80000000 		.ascii	"\200\000\000\000\000\000\000\000\000\000\000\000\000"
 5895      00000000 
 5895      00000000 
 5895      00
 5896 0870 00000000 		.ascii	"\000\000\000\000x\360x\3600`0`\030\300\030\300\015\200"
 5896      78F078F0 
 5896      30603060 
 5896      18C018C0 
 5896      0D80
 5897 0882 0D800D80 		.ascii	"\015\200\015\200\007\000\007\000\007\000\000\000\000"
 5897      07000700 
 5897      07000000 
 5897      00
 5898 088f 00000000 		.ascii	"\000\000\000\000\000\000\000\000\000\000\000\000\000"
 5898      00000000 
 5898      00000000 
 5898      00
 5899 089c 7C7C7C7C 		.ascii	"||||0\0303\2303\2303\2306\330\026\320\034p\034p\034"
 5899      30183398 
 5899      33983398 
 5899      36D816D0 
 5899      1C701C70 
 5900 08b1 70183000 		.ascii	"p\0300\000\000\000\000\000\000\000\000\000\000\000\000"
 5900      00000000 
 5900      00000000 
 5900      000000
 5901 08c0 00000000 		.ascii	"\000\000\000\000x\360x\3600`\030\300\015\200\007\000"
 5901      78F078F0 
 5901      306018C0 
 5901      0D800700 
 5902 08d0 07000D80 		.ascii	"\007\000\015\200\030\3000`x\360x\360\000\000\000\000"
 5902      18C03060 
 5902      78F078F0 
 5902      00000000 
 5903 08e0 00000000 		.ascii	"\000\000\000\000\000\000\000\000\000\000\000\000<\360"
 5903      00000000 
 5903      00000000 
 5903      3CF0
 5904 08ee 3CF01860 		.ascii	"<\360\030`\014\300\007\200\007\200\003\000\003\000\003"
 5904      0CC00780 
 5904      07800300 
ARM GAS  C:\Users\jisu8\AppData\Local\Temp\ccieva3z.s 			page 178


 5904      030003
 5905 08fd 0003000F 		.ascii	"\000\003\000\017\300\017\300\000\000\000\000\000\000"
 5905      C00FC000 
 5905      00000000 
 5905      00
 5906 090a 00000000 		.ascii	"\000\000\000\000\000\000\000\000\000\000\037\340\037"
 5906      00000000 
 5906      00001FE0 
 5906      1F
 5907 0917 E0186018 		.ascii	"\340\030`\030\300\001\200\003\000\003\000\006\000\014"
 5907      C0018003 
 5907      00030006 
 5907      000C
 5908 0925 6018601F 		.ascii	"`\030`\037\340\037\340\000\000\000\000\000\000\000\000"
 5908      E01FE000 
 5908      00000000 
 5908      000000
 5909 0934 00000000 		.ascii	"\000\000\000\000\000\000\003\300\003\300\003\000\003"
 5909      000003C0 
 5909      03C00300 
 5909      03
 5910 0941 00030003 		.ascii	"\000\003\000\003\000\003\000\003\000\003\000\003\000"
 5910      00030003 
 5910      00030003 
 5910      00
 5911 094e 03000300 		.ascii	"\003\000\003\000\003\000\003\000\003\300\003\300\000"
 5911      03000300 
 5911      03C003C0 
 5911      00
 5912 095b 00000000 		.ascii	"\000\000\000\000\000\030\000\030\000\014\000\014\000"
 5912      00180018 
 5912      000C000C 
 5912      00
 5913 0968 0C000600 		.ascii	"\014\000\006\000\006\000\003\000\003\000\001\200\001"
 5913      06000300 
 5913      03000180 
 5913      01
 5914 0975 8000C000 		.ascii	"\200\000\300\000\300\000\300\000`\000`\000\000\000\000"
 5914      C000C000 
 5914      60006000 
 5914      000000
 5915 0984 00000000 		.ascii	"\000\000\000\000\000\000\017\000\017\000\003\000\003"
 5915      00000F00 
 5915      0F000300 
 5915      03
 5916 0991 00030003 		.ascii	"\000\003\000\003\000\003\000\003\000\003\000\003\000"
 5916      00030003 
 5916      00030003 
 5916      00
 5917 099e 03000300 		.ascii	"\003\000\003\000\003\000\003\000\017\000\017\000\000"
 5917      03000300 
 5917      0F000F00 
 5917      00
 5918 09ab 00000000 		.ascii	"\000\000\000\000\000\000\000\002\000\007\000\015\200"
 5918      00000002 
 5918      0007000D 
 5918      80
ARM GAS  C:\Users\jisu8\AppData\Local\Temp\ccieva3z.s 			page 179


 5919 09b8 18C03060 		.ascii	"\030\3000`  \000\000\000\000\000\000\000\000\000\000"
 5919      20200000 
 5919      00000000 
 5919      00000000 
 5920 09c8 00000000 		.ascii	"\000\000\000\000\000\000\000\000\000\000\000\000\000"
 5920      00000000 
 5920      00000000 
 5920      00
 5921 09d5 00000000 		.ascii	"\000\000\000\000\000\000\000\000\000\000\000\000\000"
 5921      00000000 
 5921      00000000 
 5921      00
 5922 09e2 00000000 		.ascii	"\000\000\000\000\000\000\000\000\000\000\000\000\000"
 5922      00000000 
 5922      00000000 
 5922      00
 5923 09ef 00000000 		.ascii	"\000\000\000\000\000\000\000\000\000\000\000\000\000"
 5923      00000000 
 5923      00000000 
 5923      00
 5924 09fc FFFCFFFC 		.ascii	"\377\374\377\374\000\000\004\000\003\000\000\200\000"
 5924      00000400 
 5924      03000080 
 5924      00
 5925 0a09 00000000 		.ascii	"\000\000\000\000\000\000\000\000\000\000\000\000\000"
 5925      00000000 
 5925      00000000 
 5925      00
 5926 0a16 00000000 		.ascii	"\000\000\000\000\000\000\000\000\000\000\000\000\000"
 5926      00000000 
 5926      00000000 
 5926      00
 5927 0a23 00000000 		.ascii	"\000\000\000\000\000\000\000\000\000\000\000\000\000"
 5927      00000000 
 5927      00000000 
 5927      00
 5928 0a30 00000FC0 		.ascii	"\000\000\017\300\037\340\000`\017\340\037\3408`0\340"
 5928      1FE00060 
 5928      0FE01FE0 
 5928      386030E0 
 5929 0a40 3FF01F70 		.ascii	"?\360\037p\000\000\000\000\000\000\000\000\000\000\000"
 5929      00000000 
 5929      00000000 
 5929      000000
 5930 0a4f 00000070 		.ascii	"\000\000\000p\000p\0000\0000\0007\200?\3408`0000008"
 5930      00700030 
 5930      00300037 
 5930      803FE038 
 5930      60303030 
 5931 0a67 607FE077 		.ascii	"`\177\340w\200\000\000\000\000\000\000\000\000\000\000"
 5931      80000000 
 5931      00000000 
 5931      000000
 5932 0a76 00000000 		.ascii	"\000\000\000\000\000\000\000\000\000\000\000\000\007"
 5932      00000000 
 5932      00000000 
 5932      07
ARM GAS  C:\Users\jisu8\AppData\Local\Temp\ccieva3z.s 			page 180


 5933 0a83 B01FF018 		.ascii	"\260\037\360\0300000\0000\00080\037\360\017\300\000"
 5933      30303030 
 5933      00300038 
 5933      301FF00F 
 5933      C000
 5934 0a95 00000000 		.ascii	"\000\000\000\000\000\000\000\000\000\000\000\000\000"
 5934      00000000 
 5934      00000000 
 5934      00
 5935 0aa2 00700070 		.ascii	"\000p\000p\0000\0000\007\260\037\360\030p0000008p\037"
 5935      00300030 
 5935      07B01FF0 
 5935      18703030 
 5935      30303030 
 5936 0ab9 F807B800 		.ascii	"\370\007\270\000\000\000\000\000\000\000\000\000\000"
 5936      00000000 
 5936      00000000 
 5936      00
 5937 0ac6 00000000 		.ascii	"\000\000\000\000\000\000\000\000\000\000\000\000\007"
 5937      00000000 
 5937      00000000 
 5937      07
 5938 0ad3 801FE018 		.ascii	"\200\037\340\030`?\360?\3600\000\0300\037\360\007\300"
 5938      603FF03F 
 5938      F0300018 
 5938      301FF007 
 5938      C0
 5939 0ae4 00000000 		.ascii	"\000\000\000\000\000\000\000\000\000\000\000\000\000"
 5939      00000000 
 5939      00000000 
 5939      00
 5940 0af1 0003F007 		.ascii	"\000\003\360\007\360\006\000\006\000\037\340\037\340"
 5940      F0060006 
 5940      001FE01F 
 5940      E0
 5941 0afe 06000600 		.ascii	"\006\000\006\000\006\000\006\000\006\000\037\340\037"
 5941      06000600 
 5941      06001FE0 
 5941      1F
 5942 0b0b E0000000 		.ascii	"\340\000\000\000\000\000\000\000\000\000\000\000\000"
 5942      00000000 
 5942      00000000 
 5942      00
 5943 0b18 00000000 		.ascii	"\000\000\000\000\000\000\000\000\000\000\007\270\037"
 5943      00000000 
 5943      000007B8 
 5943      1F
 5944 0b25 F8187030 		.ascii	"\370\030p000000\030p\037\360\007\260\0000\000p\017\340"
 5944      30303030 
 5944      3018701F 
 5944      F007B000 
 5944      3000700F 
 5945 0b3a 0FC00000 		.ascii	"\017\300\000\000\000\000\000\0008\0008\000\030\000\030"
 5945      00000000 
 5945      38003800 
 5945      180018
 5946 0b49 001BC01F 		.ascii	"\000\033\300\037\340\034`\030`\030`\030`\030`<\360<"
ARM GAS  C:\Users\jisu8\AppData\Local\Temp\ccieva3z.s 			page 181


 5946      E01C6018 
 5946      60186018 
 5946      6018603C 
 5946      F03C
 5947 0b5b F0000000 		.ascii	"\360\000\000\000\000\000\000\000\000\000\000\000\000"
 5947      00000000 
 5947      00000000 
 5947      00
 5948 0b68 00000300 		.ascii	"\000\000\003\000\003\000\000\000\000\000\037\000\037"
 5948      03000000 
 5948      00001F00 
 5948      1F
 5949 0b75 00030003 		.ascii	"\000\003\000\003\000\003\000\003\000\003\000\037\340"
 5949      00030003 
 5949      0003001F 
 5949      E0
 5950 0b82 1FE00000 		.ascii	"\037\340\000\000\000\000\000\000\000\000\000\000\000"
 5950      00000000 
 5950      00000000 
 5950      00
 5951 0b8f 00000003 		.ascii	"\000\000\000\003\000\003\000\000\000\000\000\037\300"
 5951      00030000 
 5951      0000001F 
 5951      C0
 5952 0b9c 1FC000C0 		.ascii	"\037\300\000\300\000\300\000\300\000\300\000\300\000"
 5952      00C000C0 
 5952      00C000C0 
 5952      00
 5953 0ba9 C000C000 		.ascii	"\300\000\300\000\300\001\300?\200?\000\000\000\000\000"
 5953      C001C03F 
 5953      803F0000 
 5953      000000
 5954 0bb8 00003800 		.ascii	"\000\0008\0008\000\030\000\030\000\033\340\033\340\033"
 5954      38001800 
 5954      18001BE0 
 5954      1BE01B
 5955 0bc7 001E001E 		.ascii	"\000\036\000\036\000\033\000\031\2009\3609\360\000\000"
 5955      001B0019 
 5955      8039F039 
 5955      F00000
 5956 0bd6 00000000 		.ascii	"\000\000\000\000\000\000\000\000\000\000\000\000\037"
 5956      00000000 
 5956      00000000 
 5956      1F
 5957 0be3 001F0003 		.ascii	"\000\037\000\003\000\003\000\003\000\003\000\003\000"
 5957      00030003 
 5957      00030003 
 5957      00
 5958 0bf0 03000300 		.ascii	"\003\000\003\000\003\000\003\000\037\340\037\340\000"
 5958      03000300 
 5958      1FE01FE0 
 5958      00
 5959 0bfd 00000000 		.ascii	"\000\000\000\000\000\000\000\000\000\000\000\000\000"
 5959      00000000 
 5959      00000000 
 5959      00
 5960 0c0a 00000000 		.ascii	"\000\000\000\000\000\000\000\000~\340\177\360303030"
ARM GAS  C:\Users\jisu8\AppData\Local\Temp\ccieva3z.s 			page 182


 5960      00000000 
 5960      7EE07FF0 
 5960      33303330 
 5960      3330
 5961 0c1c 33303330 		.ascii	"3030{\270{\270\000\000\000\000\000\000\000\000\000\000"
 5961      7BB87BB8 
 5961      00000000 
 5961      00000000 
 5961      0000
 5962 0c2e 00000000 		.ascii	"\000\000\000\000\000\000\000\000\000\000\000\000;\300"
 5962      00000000 
 5962      00000000 
 5962      3BC0
 5963 0c3c 3FE01C60 		.ascii	"?\340\034`\030`\030`\030`\030`<\360<\360\000\000\000"
 5963      18601860 
 5963      18601860 
 5963      3CF03CF0 
 5963      000000
 5964 0c4f 00000000 		.ascii	"\000\000\000\000\000\000\000\000\000\000\000\000\000"
 5964      00000000 
 5964      00000000 
 5964      00
 5965 0c5c 00000000 		.ascii	"\000\000\000\000\000\000\007\200\037\340\030`000000"
 5965      00000780 
 5965      1FE01860 
 5965      30303030 
 5965      3030
 5966 0c6e 18601FE0 		.ascii	"\030`\037\340\007\200\000\000\000\000\000\000\000\000"
 5966      07800000 
 5966      00000000 
 5966      0000
 5967 0c7c 00000000 		.ascii	"\000\000\000\000\000\000\000\000\000\000\000\000\000"
 5967      00000000 
 5967      00000000 
 5967      00
 5968 0c89 0077807F 		.ascii	"\000w\200\177\3408`0000008`?\3407\2000\0000\000|\000"
 5968      E0386030 
 5968      30303030 
 5968      3038603F 
 5968      E0378030 
 5969 0ca2 7C000000 		.ascii	"|\000\000\000\000\000\000\000\000\000\000\000\000\000"
 5969      00000000 
 5969      00000000 
 5969      0000
 5970 0cb0 000007B8 		.ascii	"\000\000\007\270\037\370\030p000000\030p\037\360\007"
 5970      1FF81870 
 5970      30303030 
 5970      30301870 
 5970      1FF007
 5971 0cc3 B0003000 		.ascii	"\260\0000\0000\000\370\000\370\000\000\000\000\000\000"
 5971      3000F800 
 5971      F8000000 
 5971      000000
 5972 0cd2 00000000 		.ascii	"\000\000\000\000\000\000\000\000<\340=\360\0170\016"
 5972      00000000 
 5972      3CE03DF0 
 5972      0F300E
ARM GAS  C:\Users\jisu8\AppData\Local\Temp\ccieva3z.s 			page 183


 5973 0ce1 000C000C 		.ascii	"\000\014\000\014\000\014\000?\300?\300\000\000\000\000"
 5973      000C003F 
 5973      C03FC000 
 5973      000000
 5974 0cf0 00000000 		.ascii	"\000\000\000\000\000\000\000\000\000\000\000\000\000"
 5974      00000000 
 5974      00000000 
 5974      00
 5975 0cfd 00000000 		.ascii	"\000\000\000\000\000\007\340\037\340\030`\036\000\017"
 5975      0007E01F 
 5975      E018601E 
 5975      000F
 5976 0d0b C001E018 		.ascii	"\300\001\340\030`\037\340\037\200\000\000\000\000\000"
 5976      601FE01F 
 5976      80000000 
 5976      0000
 5977 0d19 00000000 		.ascii	"\000\000\000\000\000\000\000\000\000\000\000\014\000"
 5977      00000000 
 5977      0000000C 
 5977      00
 5978 0d26 0C000C00 		.ascii	"\014\000\014\000?\340?\340\014\000\014\000\014\000\014"
 5978      3FE03FE0 
 5978      0C000C00 
 5978      0C000C
 5979 0d35 000C300F 		.ascii	"\000\0140\017\360\007\300\000\000\000\000\000\000\000"
 5979      F007C000 
 5979      00000000 
 5979      0000
 5980 0d43 00000000 		.ascii	"\000\000\000\000\000\000\000\000\000\000\000\000\000"
 5980      00000000 
 5980      00000000 
 5980      00
 5981 0d50 000038E0 		.ascii	"\000\0008\3408\340\030`\030`\030`\030`\030\340\037\360"
 5981      38E01860 
 5981      18601860 
 5981      186018E0 
 5981      1FF0
 5982 0d62 0F700000 		.ascii	"\017p\000\000\000\000\000\000\000\000\000\000\000\000"
 5982      00000000 
 5982      00000000 
 5982      0000
 5983 0d70 00000000 		.ascii	"\000\000\000\000\000\000\000\000\000\000x\360x\3600"
 5983      00000000 
 5983      000078F0 
 5983      78F030
 5984 0d7f 6018C018 		.ascii	"`\030\300\030\300\015\200\015\200\007\000\007\000\000"
 5984      C00D800D 
 5984      80070007 
 5984      0000
 5985 0d8d 00000000 		.ascii	"\000\000\000\000\000\000\000\000\000\000\000\000\000"
 5985      00000000 
 5985      00000000 
 5985      00
 5986 0d9a 00000000 		.ascii	"\000\000\000\000\000\000\000\000x\360x\3602`2`7\340"
 5986      00000000 
 5986      78F078F0 
 5986      32603260 
ARM GAS  C:\Users\jisu8\AppData\Local\Temp\ccieva3z.s 			page 184


 5986      37E0
 5987 0dac 1DC01DC0 		.ascii	"\035\300\035\300\030\300\030\300\000\000\000\000\000"
 5987      18C018C0 
 5987      00000000 
 5987      00
 5988 0db9 00000000 		.ascii	"\000\000\000\000\000\000\000\000\000\000\000\000\000"
 5988      00000000 
 5988      00000000 
 5988      00
 5989 0dc6 00000000 		.ascii	"\000\000\000\000<\360<\360\014\300\007\200\003\000\007"
 5989      3CF03CF0 
 5989      0CC00780 
 5989      030007
 5990 0dd5 800CC03C 		.ascii	"\200\014\300<\360<\360\000\000\000\000\000\000\000\000"
 5990      F03CF000 
 5990      00000000 
 5990      000000
 5991 0de4 00000000 		.ascii	"\000\000\000\000\000\000\000\000\000\000\000\000\000"
 5991      00000000 
 5991      00000000 
 5991      00
 5992 0df1 0078F078 		.ascii	"\000x\360x\3600`\030\300\030\300\015\200\017\200\007"
 5992      F0306018 
 5992      C018C00D 
 5992      800F8007 
 5993 0e01 00060006 		.ascii	"\000\006\000\006\000\014\000\177\000\177\000\000\000"
 5993      000C007F 
 5993      007F0000 
 5993      00
 5994 0e0e 00000000 		.ascii	"\000\000\000\000\000\000\000\000\000\000\000\000\037"
 5994      00000000 
 5994      00000000 
 5994      1F
 5995 0e1b E01FE018 		.ascii	"\340\037\340\030\300\001\200\003\000\006\000\014`\037"
 5995      C0018003 
 5995      0006000C 
 5995      601F
 5996 0e29 E01FE000 		.ascii	"\340\037\340\000\000\000\000\000\000\000\000\000\000"
 5996      00000000 
 5996      00000000 
 5996      00
 5997 0e36 00000000 		.ascii	"\000\000\000\000\001\300\003\300\003\000\003\000\003"
 5997      01C003C0 
 5997      03000300 
 5997      03
 5998 0e43 00030003 		.ascii	"\000\003\000\003\000\007\000\016\000\007\000\003\000"
 5998      0007000E 
 5998      00070003 
 5998      00
 5999 0e50 03000300 		.ascii	"\003\000\003\000\003\000\003\300\001\300\000\000\000"
 5999      030003C0 
 5999      01C00000 
 5999      00
 6000 0e5d 00000000 		.ascii	"\000\000\000\000\000\003\000\003\000\003\000\003\000"
 6000      00030003 
 6000      00030003 
 6000      00
ARM GAS  C:\Users\jisu8\AppData\Local\Temp\ccieva3z.s 			page 185


 6001 0e6a 03000300 		.ascii	"\003\000\003\000\003\000\003\000\003\000\003\000\003"
 6001      03000300 
 6001      03000300 
 6001      03
 6002 0e77 00030003 		.ascii	"\000\003\000\003\000\003\000\003\000\003\000\000\000"
 6002      00030003 
 6002      00030000 
 6002      00
 6003 0e84 00000000 		.ascii	"\000\000\000\000\000\000\034\000\036\000\006\000\006"
 6003      00001C00 
 6003      1E000600 
 6003      06
 6004 0e91 00060006 		.ascii	"\000\006\000\006\000\006\000\007\000\003\200\007\000"
 6004      00060007 
 6004      00038007 
 6004      00
 6005 0e9e 06000600 		.ascii	"\006\000\006\000\006\000\006\000\036\000\034\000\000"
 6005      06000600 
 6005      1E001C00 
 6005      00
 6006 0eab 00000000 		.ascii	"\000\000\000\000\000\000\000\000\000\000\000\000\000"
 6006      00000000 
 6006      00000000 
 6006      00
 6007 0eb8 00000000 		.ascii	"\000\000\000\000\016\000?03\360\001\340\000\000\000"
 6007      0E003F30 
 6007      33F001E0 
 6007      000000
 6008 0ec7 00000000 		.ascii	"\000\000\000\000\000\000\000\000\000\000\000\000\000"
 6008      00000000 
 6008      00000000 
 6008      00
 6009 0ed4 00000000 		.ascii	"\000\000\000\000"
 6010              		.section	.rodata.Font24_Table,"a"
 6011              		.align	2
 6014              	Font24_Table:
 6015 0000 00000000 		.ascii	"\000\000\000\000\000\000\000\000\000\000\000\000\000"
 6015      00000000 
 6015      00000000 
 6015      00
 6016 000d 00000000 		.ascii	"\000\000\000\000\000\000\000\000\000\000\000\000\000"
 6016      00000000 
 6016      00000000 
 6016      00
 6017 001a 00000000 		.ascii	"\000\000\000\000\000\000\000\000\000\000\000\000\000"
 6017      00000000 
 6017      00000000 
 6017      00
 6018 0027 00000000 		.ascii	"\000\000\000\000\000\000\000\000\000\000\000\000\000"
 6018      00000000 
 6018      00000000 
 6018      00
 6019 0034 00000000 		.ascii	"\000\000\000\000\000\000\000\000\000\000\000\000\000"
 6019      00000000 
 6019      00000000 
 6019      00
 6020 0041 00000000 		.ascii	"\000\000\000\000\000\000\000\000\000\000\000\000\000"
ARM GAS  C:\Users\jisu8\AppData\Local\Temp\ccieva3z.s 			page 186


 6020      00000000 
 6020      00000000 
 6020      00
 6021 004e 03800003 		.ascii	"\003\200\000\003\200\000\003\200\000\003\200\000\003"
 6021      80000380 
 6021      00038000 
 6021      03
 6022 005b 80000380 		.ascii	"\200\000\003\200\000\003\200\000\003\200\000\003\200"
 6022      00038000 
 6022      03800003 
 6022      80
 6023 0068 00010000 		.ascii	"\000\001\000\000\001\000\000\000\000\000\000\000\000"
 6023      01000000 
 6023      00000000 
 6023      00
 6024 0075 03800003 		.ascii	"\003\200\000\003\200\000\000\000\000\000\000\000\000"
 6024      80000000 
 6024      00000000 
 6024      00
 6025 0082 00000000 		.ascii	"\000\000\000\000\000\000\000\000\000\000\000\000\000"
 6025      00000000 
 6025      00000000 
 6025      00
 6026 008f 00000000 		.ascii	"\000\000\000\000\000\000\000\000\000\000\016p\000\016"
 6026      00000000 
 6026      00000E70 
 6026      000E
 6027 009d 70000E70 		.ascii	"p\000\016p\000\004 \000\004 \000\004 \000\004 \000\000"
 6027      00042000 
 6027      04200004 
 6027      20000420 
 6027      0000
 6028 00af 00000000 		.ascii	"\000\000\000\000\000\000\000\000\000\000\000\000\000"
 6028      00000000 
 6028      00000000 
 6028      00
 6029 00bc 00000000 		.ascii	"\000\000\000\000\000\000\000\000\000\000\000\000\000"
 6029      00000000 
 6029      00000000 
 6029      00
 6030 00c9 00000000 		.ascii	"\000\000\000\000\000\000\000\000\000\000\000\000\000"
 6030      00000000 
 6030      00000000 
 6030      00
 6031 00d6 00000000 		.ascii	"\000\000\000\000\000\000\000\000\006`\000\006`\000\006"
 6031      00000000 
 6031      06600006 
 6031      600006
 6032 00e5 60000660 		.ascii	"`\000\006`\000\006`\000?\370\000?\370\000\006`\000\014"
 6032      00066000 
 6032      3FF8003F 
 6032      F8000660 
 6032      000C
 6033 00f7 C0003FF8 		.ascii	"\300\000?\370\000?\370\000\014\300\000\014\300\000\014"
 6033      003FF800 
 6033      0CC0000C 
 6033      C0000C
ARM GAS  C:\Users\jisu8\AppData\Local\Temp\ccieva3z.s 			page 187


 6034 0106 C0000CC0 		.ascii	"\300\000\014\300\000\014\300\000\000\000\000\000\000"
 6034      000CC000 
 6034      00000000 
 6034      00
 6035 0113 00000000 		.ascii	"\000\000\000\000\000\000\000\000\000\000\000\000\000"
 6035      00000000 
 6035      00000000 
 6035      00
 6036 0120 00000001 		.ascii	"\000\000\000\001\200\000\001\200\000\007\260\000\017"
 6036      80000180 
 6036      0007B000 
 6036      0F
 6037 012d F0001870 		.ascii	"\360\000\030p\000\030p\000\034\000\000\017\200\000\007"
 6037      00187000 
 6037      1C00000F 
 6037      800007
 6038 013c E00000F0 		.ascii	"\340\000\000\360\000\0300\000\0340\000\034p\000\037"
 6038      00183000 
 6038      1C30001C 
 6038      70001F
 6039 014b E0001BC0 		.ascii	"\340\000\033\300\000\001\200\000\001\200\000\001\200"
 6039      00018000 
 6039      01800001 
 6039      80
 6040 0158 00018000 		.ascii	"\000\001\200\000\000\000\000\000\000\000\000\000\000"
 6040      00000000 
 6040      00000000 
 6040      00
 6041 0165 00000000 		.ascii	"\000\000\000\000\000\000\000\000\000\007\200\000\017"
 6041      00000000 
 6041      00078000 
 6041      0F
 6042 0172 C0001CE0 		.ascii	"\300\000\034\340\000\030`\000\030`\000\034\340\000\017"
 6042      00186000 
 6042      1860001C 
 6042      E0000F
 6043 0181 F80007E0 		.ascii	"\370\000\007\340\000\037\360\000\0078\000\006\030\000"
 6043      001FF000 
 6043      07380006 
 6043      1800
 6044 018f 06180007 		.ascii	"\006\030\000\0078\000\003\360\000\001\340\000\000\000"
 6044      380003F0 
 6044      0001E000 
 6044      0000
 6045 019d 00000000 		.ascii	"\000\000\000\000\000\000\000\000\000\000\000\000\000"
 6045      00000000 
 6045      00000000 
 6045      00
 6046 01aa 00000000 		.ascii	"\000\000\000\000\000\000\000\000\000\000\000\000\000"
 6046      00000000 
 6046      00000000 
 6046      00
 6047 01b7 00000000 		.ascii	"\000\000\000\000\000\003\360\000\007\360\000\014`\000"
 6047      0003F000 
 6047      07F0000C 
 6047      6000
 6048 01c5 0C00000C 		.ascii	"\014\000\000\014\000\000\006\000\000\007\000\000\017"
ARM GAS  C:\Users\jisu8\AppData\Local\Temp\ccieva3z.s 			page 188


 6048      00000600 
 6048      00070000 
 6048      0F
 6049 01d2 9C001DFC 		.ascii	"\234\000\035\374\000\030\360\000\030p\000\017\374\000"
 6049      0018F000 
 6049      1870000F 
 6049      FC00
 6050 01e0 07DC0000 		.ascii	"\007\334\000\000\000\000\000\000\000\000\000\000\000"
 6050      00000000 
 6050      00000000 
 6050      00
 6051 01ed 00000000 		.ascii	"\000\000\000\000\000\000\000\000\000\000\000\000\000"
 6051      00000000 
 6051      00000000 
 6051      00
 6052 01fa 00000000 		.ascii	"\000\000\000\000\000\000\000\003\200\000\003\200\000"
 6052      00000003 
 6052      80000380 
 6052      00
 6053 0207 03800001 		.ascii	"\003\200\000\001\000\000\001\000\000\001\000\000\001"
 6053      00000100 
 6053      00010000 
 6053      01
 6054 0214 00000000 		.ascii	"\000\000\000\000\000\000\000\000\000\000\000\000\000"
 6054      00000000 
 6054      00000000 
 6054      00
 6055 0221 00000000 		.ascii	"\000\000\000\000\000\000\000\000\000\000\000\000\000"
 6055      00000000 
 6055      00000000 
 6055      00
 6056 022e 00000000 		.ascii	"\000\000\000\000\000\000\000\000\000\000\000\000\000"
 6056      00000000 
 6056      00000000 
 6056      00
 6057 023b 00000000 		.ascii	"\000\000\000\000\000\000\000\000\000\000\000\000\030"
 6057      00000000 
 6057      00000000 
 6057      18
 6058 0248 00003800 		.ascii	"\000\0008\000\000p\000\000\360\000\000\340\000\000\340"
 6058      00700000 
 6058      F00000E0 
 6058      0000E0
 6059 0257 0001C000 		.ascii	"\000\001\300\000\001\300\000\001\300\000\001\300\000"
 6059      01C00001 
 6059      C00001C0 
 6059      00
 6060 0264 01C00001 		.ascii	"\001\300\000\001\300\000\000\340\000\000\340\000\000"
 6060      C00000E0 
 6060      0000E000 
 6060      00
 6061 0271 70000070 		.ascii	"p\000\000p\000\0008\000\000\030\000\000\000\000\000"
 6061      00003800 
 6061      00180000 
 6061      000000
 6062 0280 00000000 		.ascii	"\000\000\000\000\000\000\000\000\000\000\000\000\000"
 6062      00000000 
ARM GAS  C:\Users\jisu8\AppData\Local\Temp\ccieva3z.s 			page 189


 6062      00000000 
 6062      00
 6063 028d 00180000 		.ascii	"\000\030\000\000\034\000\000\016\000\000\016\000\000"
 6063      1C00000E 
 6063      00000E00 
 6063      00
 6064 029a 07000007 		.ascii	"\007\000\000\007\000\000\003\200\000\003\200\000\003"
 6064      00000380 
 6064      00038000 
 6064      03
 6065 02a7 80000380 		.ascii	"\200\000\003\200\000\003\200\000\003\200\000\007\000"
 6065      00038000 
 6065      03800007 
 6065      00
 6066 02b4 00070000 		.ascii	"\000\007\000\000\017\000\000\016\000\000\034\000\000"
 6066      0F00000E 
 6066      00001C00 
 6066      00
 6067 02c1 18000000 		.ascii	"\030\000\000\000\000\000\000\000\000\000\000\000\000"
 6067      00000000 
 6067      00000000 
 6067      00
 6068 02ce 00000000 		.ascii	"\000\000\000\000\000\000\000\000\001\200\000\001\200"
 6068      00000000 
 6068      01800001 
 6068      80
 6069 02db 00018000 		.ascii	"\000\001\200\000\035\270\000\037\370\000\007\340\000"
 6069      1DB8001F 
 6069      F80007E0 
 6069      00
 6070 02e8 03C00003 		.ascii	"\003\300\000\003\300\000\006`\000\006`\000\000\000\000"
 6070      C0000660 
 6070      00066000 
 6070      000000
 6071 02f7 00000000 		.ascii	"\000\000\000\000\000\000\000\000\000\000\000\000\000"
 6071      00000000 
 6071      00000000 
 6071      00
 6072 0304 00000000 		.ascii	"\000\000\000\000\000\000\000\000\000\000\000\000\000"
 6072      00000000 
 6072      00000000 
 6072      00
 6073 0311 00000000 		.ascii	"\000\000\000\000\000\000\000\000\000\000\000\000\000"
 6073      00000000 
 6073      00000000 
 6073      00
 6074 031e 00000000 		.ascii	"\000\000\000\000\000\000\001\200\000\001\200\000\001"
 6074      00000180 
 6074      00018000 
 6074      01
 6075 032b 80000180 		.ascii	"\200\000\001\200\000\001\200\000?\374\000?\374\000\001"
 6075      00018000 
 6075      3FFC003F 
 6075      FC0001
 6076 033a 80000180 		.ascii	"\200\000\001\200\000\001\200\000\001\200\000\001\200"
 6076      00018000 
 6076      01800001 
ARM GAS  C:\Users\jisu8\AppData\Local\Temp\ccieva3z.s 			page 190


 6076      80
 6077 0347 00000000 		.ascii	"\000\000\000\000\000\000\000\000\000\000\000\000\000"
 6077      00000000 
 6077      00000000 
 6077      00
 6078 0354 00000000 		.ascii	"\000\000\000\000\000\000\000\000\000\000\000\000\000"
 6078      00000000 
 6078      00000000 
 6078      00
 6079 0361 00000000 		.ascii	"\000\000\000\000\000\000\000\000\000\000\000\000\000"
 6079      00000000 
 6079      00000000 
 6079      00
 6080 036e 00000000 		.ascii	"\000\000\000\000\000\000\000\000\000\000\000\000\000"
 6080      00000000 
 6080      00000000 
 6080      00
 6081 037b 00000000 		.ascii	"\000\000\000\000\000\000\000\000\000\000\000\000\000"
 6081      00000000 
 6081      00000000 
 6081      00
 6082 0388 000000E0 		.ascii	"\000\000\000\340\000\000\300\000\001\300\000\001\200"
 6082      0000C000 
 6082      01C00001 
 6082      80
 6083 0395 00018000 		.ascii	"\000\001\200\000\003\000\000\003\000\000\000\000\000"
 6083      03000003 
 6083      00000000 
 6083      00
 6084 03a2 00000000 		.ascii	"\000\000\000\000\000\000\000\000\000\000\000\000\000"
 6084      00000000 
 6084      00000000 
 6084      00
 6085 03af 00000000 		.ascii	"\000\000\000\000\000\000\000\000\000\000\000\000\000"
 6085      00000000 
 6085      00000000 
 6085      00
 6086 03bc 00000000 		.ascii	"\000\000\000\000\000\000\000\037\370\000\037\370\000"
 6086      0000001F 
 6086      F8001FF8 
 6086      00
 6087 03c9 00000000 		.ascii	"\000\000\000\000\000\000\000\000\000\000\000\000\000"
 6087      00000000 
 6087      00000000 
 6087      00
 6088 03d6 00000000 		.ascii	"\000\000\000\000\000\000\000\000\000\000\000\000\000"
 6088      00000000 
 6088      00000000 
 6088      00
 6089 03e3 00000000 		.ascii	"\000\000\000\000\000\000\000\000\000\000\000\000\000"
 6089      00000000 
 6089      00000000 
 6089      00
 6090 03f0 00000000 		.ascii	"\000\000\000\000\000\000\000\000\000\000\000\000\000"
 6090      00000000 
 6090      00000000 
 6090      00
ARM GAS  C:\Users\jisu8\AppData\Local\Temp\ccieva3z.s 			page 191


 6091 03fd 00000000 		.ascii	"\000\000\000\000\000\000\000\000\000\000\000\000\000"
 6091      00000000 
 6091      00000000 
 6091      00
 6092 040a 00000000 		.ascii	"\000\000\000\000\000\000\000\000\000\000\000\000\000"
 6092      00000000 
 6092      00000000 
 6092      00
 6093 0417 00000003 		.ascii	"\000\000\000\003\300\000\003\300\000\003\300\000\000"
 6093      C00003C0 
 6093      0003C000 
 6093      00
 6094 0424 00000000 		.ascii	"\000\000\000\000\000\000\000\000\000\000\000\000\000"
 6094      00000000 
 6094      00000000 
 6094      00
 6095 0431 00000000 		.ascii	"\000\000\000\000\000\000\000\000\030\000\000\030\000"
 6095      00000000 
 6095      18000018 
 6095      00
 6096 043e 00380000 		.ascii	"\0008\000\0000\000\000p\000\000`\000\000`\000\000\300"
 6096      30000070 
 6096      00006000 
 6096      00600000 
 6096      C0
 6097 044f 0000C000 		.ascii	"\000\000\300\000\001\200\000\001\200\000\003\000\000"
 6097      01800001 
 6097      80000300 
 6097      00
 6098 045c 03000006 		.ascii	"\003\000\000\006\000\000\006\000\000\016\000\000\014"
 6098      00000600 
 6098      000E0000 
 6098      0C
 6099 0469 00001C00 		.ascii	"\000\000\034\000\000\030\000\000\030\000\000\000\000"
 6099      00180000 
 6099      18000000 
 6099      00
 6100 0476 00000000 		.ascii	"\000\000\000\000\000\000\000\000\000\000\000\000\000"
 6100      00000000 
 6100      00000000 
 6100      00
 6101 0483 00000003 		.ascii	"\000\000\000\003\300\000\007\340\000\0140\000\0140\000"
 6101      C00007E0 
 6101      000C3000 
 6101      0C3000
 6102 0492 18180018 		.ascii	"\030\030\000\030\030\000\030\030\000\030\030\000\030"
 6102      18001818 
 6102      00181800 
 6102      18
 6103 049f 18001818 		.ascii	"\030\000\030\030\000\030\030\000\0140\000\0140\000\007"
 6103      00181800 
 6103      0C30000C 
 6103      300007
 6104 04ae E00003C0 		.ascii	"\340\000\003\300\000\000\000\000\000\000\000\000\000"
 6104      00000000 
 6104      00000000 
 6104      00
ARM GAS  C:\Users\jisu8\AppData\Local\Temp\ccieva3z.s 			page 192


 6105 04bb 00000000 		.ascii	"\000\000\000\000\000\000\000\000\000\000\000\000\000"
 6105      00000000 
 6105      00000000 
 6105      00
 6106 04c8 00000000 		.ascii	"\000\000\000\000\000\000\000\200\000\007\200\000\037"
 6106      00000080 
 6106      00078000 
 6106      1F
 6107 04d5 80001D80 		.ascii	"\200\000\035\200\000\001\200\000\001\200\000\001\200"
 6107      00018000 
 6107      01800001 
 6107      80
 6108 04e2 00018000 		.ascii	"\000\001\200\000\001\200\000\001\200\000\001\200\000"
 6108      01800001 
 6108      80000180 
 6108      00
 6109 04ef 01800001 		.ascii	"\001\200\000\001\200\000\037\370\000\037\370\000\000"
 6109      80001FF8 
 6109      001FF800 
 6109      00
 6110 04fc 00000000 		.ascii	"\000\000\000\000\000\000\000\000\000\000\000\000\000"
 6110      00000000 
 6110      00000000 
 6110      00
 6111 0509 00000000 		.ascii	"\000\000\000\000\000\000\000\000\000\000\000\000\000"
 6111      00000000 
 6111      00000000 
 6111      00
 6112 0516 07C0001F 		.ascii	"\007\300\000\037\360\00080\0000\030\0000\030\000\000"
 6112      F0003830 
 6112      00301800 
 6112      30180000 
 6113 0526 18000030 		.ascii	"\030\000\0000\000\000`\000\001\300\000\003\200\000\006"
 6113      00006000 
 6113      01C00003 
 6113      800006
 6114 0535 00000C00 		.ascii	"\000\000\014\000\000\030\000\000?\370\000?\370\000\000"
 6114      00180000 
 6114      3FF8003F 
 6114      F80000
 6115 0544 00000000 		.ascii	"\000\000\000\000\000\000\000\000\000\000\000\000\000"
 6115      00000000 
 6115      00000000 
 6115      00
 6116 0551 00000000 		.ascii	"\000\000\000\000\000\000\000\000\000\000\000\000\000"
 6116      00000000 
 6116      00000000 
 6116      00
 6117 055e 03C0000F 		.ascii	"\003\300\000\017\340\000\014p\000\0000\000\0000\000"
 6117      E0000C70 
 6117      00003000 
 6117      003000
 6118 056d 00600003 		.ascii	"\000`\000\003\300\000\003\340\000\000p\000\000\030\000"
 6118      C00003E0 
 6118      00007000 
 6118      001800
 6119 057c 00180000 		.ascii	"\000\030\000\000\030\000\0308\000\037\360\000\017\300"
ARM GAS  C:\Users\jisu8\AppData\Local\Temp\ccieva3z.s 			page 193


 6119      18001838 
 6119      001FF000 
 6119      0FC0
 6120 058a 00000000 		.ascii	"\000\000\000\000\000\000\000\000\000\000\000\000\000"
 6120      00000000 
 6120      00000000 
 6120      00
 6121 0597 00000000 		.ascii	"\000\000\000\000\000\000\000\000\000\000\000\000\000"
 6121      00000000 
 6121      00000000 
 6121      00
 6122 05a4 000000E0 		.ascii	"\000\000\000\340\000\001\340\000\001\340\000\003`\000"
 6122      0001E000 
 6122      01E00003 
 6122      6000
 6123 05b2 06600006 		.ascii	"\006`\000\006`\000\014`\000\014`\000\030`\0000`\000"
 6123      60000C60 
 6123      000C6000 
 6123      18600030 
 6123      6000
 6124 05c4 3FF8003F 		.ascii	"?\370\000?\370\000\000`\000\003\370\000\003\370\000"
 6124      F8000060 
 6124      0003F800 
 6124      03F800
 6125 05d3 00000000 		.ascii	"\000\000\000\000\000\000\000\000\000\000\000\000\000"
 6125      00000000 
 6125      00000000 
 6125      00
 6126 05e0 00000000 		.ascii	"\000\000\000\000\000\000\000\000\000\000\000\000\000"
 6126      00000000 
 6126      00000000 
 6126      00
 6127 05ed 001FF000 		.ascii	"\000\037\360\000\037\360\000\030\000\000\030\000\000"
 6127      1FF00018 
 6127      00001800 
 6127      00
 6128 05fa 1800001B 		.ascii	"\030\000\000\033\300\000\037\360\000\0340\000\000\030"
 6128      C0001FF0 
 6128      001C3000 
 6128      0018
 6129 0608 00001800 		.ascii	"\000\000\030\000\000\030\000\000\030\00000\000?\360"
 6129      00180000 
 6129      18003030 
 6129      003FF0
 6130 0617 000FC000 		.ascii	"\000\017\300\000\000\000\000\000\000\000\000\000\000"
 6130      00000000 
 6130      00000000 
 6130      00
 6131 0624 00000000 		.ascii	"\000\000\000\000\000\000\000\000\000\000\000\000\000"
 6131      00000000 
 6131      00000000 
 6131      00
 6132 0631 00000000 		.ascii	"\000\000\000\000\000\000\370\000\003\370\000\007\000"
 6132      0000F800 
 6132      03F80007 
 6132      00
 6133 063e 000E0000 		.ascii	"\000\016\000\000\014\000\000\030\000\000\033\300\000"
ARM GAS  C:\Users\jisu8\AppData\Local\Temp\ccieva3z.s 			page 194


 6133      0C000018 
 6133      00001BC0 
 6133      00
 6134 064b 1FF0001C 		.ascii	"\037\360\000\0340\000\030\030\000\030\030\000\030\030"
 6134      30001818 
 6134      00181800 
 6134      1818
 6135 0659 000C3800 		.ascii	"\000\0148\000\017\360\000\003\340\000\000\000\000\000"
 6135      0FF00003 
 6135      E0000000 
 6135      0000
 6136 0667 00000000 		.ascii	"\000\000\000\000\000\000\000\000\000\000\000\000\000"
 6136      00000000 
 6136      00000000 
 6136      00
 6137 0674 00000000 		.ascii	"\000\000\000\000\000\000\000\000\000\000\037\370\000"
 6137      00000000 
 6137      00001FF8 
 6137      00
 6138 0681 1FF80018 		.ascii	"\037\370\000\030\030\000\0308\000\0000\000\0000\000"
 6138      18001838 
 6138      00003000 
 6138      003000
 6139 0690 00700000 		.ascii	"\000p\000\000`\000\000`\000\000\340\000\000\300\000"
 6139      60000060 
 6139      0000E000 
 6139      00C000
 6140 069f 00C00001 		.ascii	"\000\300\000\001\300\000\001\200\000\001\200\000\000"
 6140      C0000180 
 6140      00018000 
 6140      00
 6141 06ac 00000000 		.ascii	"\000\000\000\000\000\000\000\000\000\000\000\000\000"
 6141      00000000 
 6141      00000000 
 6141      00
 6142 06b9 00000000 		.ascii	"\000\000\000\000\000\000\000\000\000\000\000\000\000"
 6142      00000000 
 6142      00000000 
 6142      00
 6143 06c6 07E0000F 		.ascii	"\007\340\000\017\360\000\0348\000\030\030\000\030\030"
 6143      F0001C38 
 6143      00181800 
 6143      1818
 6144 06d4 000C3000 		.ascii	"\000\0140\000\007\340\000\007\340\000\0140\000\030\030"
 6144      07E00007 
 6144      E0000C30 
 6144      001818
 6145 06e3 00181800 		.ascii	"\000\030\030\000\030\030\000\0348\000\017\360\000\007"
 6145      1818001C 
 6145      38000FF0 
 6145      0007
 6146 06f1 E0000000 		.ascii	"\340\000\000\000\000\000\000\000\000\000\000\000\000"
 6146      00000000 
 6146      00000000 
 6146      00
 6147 06fe 00000000 		.ascii	"\000\000\000\000\000\000\000\000\000\000\000\000\000"
 6147      00000000 
ARM GAS  C:\Users\jisu8\AppData\Local\Temp\ccieva3z.s 			page 195


 6147      00000000 
 6147      00
 6148 070b 00000007 		.ascii	"\000\000\000\007\300\000\017\360\000\0340\000\030\030"
 6148      C0000FF0 
 6148      001C3000 
 6148      1818
 6149 0719 00181800 		.ascii	"\000\030\030\000\030\030\000\0148\000\017\370\000\003"
 6149      1818000C 
 6149      38000FF8 
 6149      0003
 6150 0727 D8000018 		.ascii	"\330\000\000\030\000\0000\000\000p\000\000\340\000\037"
 6150      00003000 
 6150      00700000 
 6150      E0001F
 6151 0736 C0001F00 		.ascii	"\300\000\037\000\000\000\000\000\000\000\000\000\000"
 6151      00000000 
 6151      00000000 
 6151      00
 6152 0743 00000000 		.ascii	"\000\000\000\000\000\000\000\000\000\000\000\000\000"
 6152      00000000 
 6152      00000000 
 6152      00
 6153 0750 00000000 		.ascii	"\000\000\000\000\000\000\000\000\000\000\000\000\000"
 6153      00000000 
 6153      00000000 
 6153      00
 6154 075d 00000000 		.ascii	"\000\000\000\000\000\003\300\000\003\300\000\003\300"
 6154      0003C000 
 6154      03C00003 
 6154      C0
 6155 076a 00000000 		.ascii	"\000\000\000\000\000\000\000\000\000\000\000\000\000"
 6155      00000000 
 6155      00000000 
 6155      00
 6156 0777 00000003 		.ascii	"\000\000\000\003\300\000\003\300\000\003\300\000\000"
 6156      C00003C0 
 6156      0003C000 
 6156      00
 6157 0784 00000000 		.ascii	"\000\000\000\000\000\000\000\000\000\000\000\000\000"
 6157      00000000 
 6157      00000000 
 6157      00
 6158 0791 00000000 		.ascii	"\000\000\000\000\000\000\000\000\000\000\000\000\000"
 6158      00000000 
 6158      00000000 
 6158      00
 6159 079e 00000000 		.ascii	"\000\000\000\000\000\000\000\000\000\000\000\000\000"
 6159      00000000 
 6159      00000000 
 6159      00
 6160 07ab F00000F0 		.ascii	"\360\000\000\360\000\000\360\000\000\000\000\000\000"
 6160      0000F000 
 6160      00000000 
 6160      00
 6161 07b8 00000000 		.ascii	"\000\000\000\000\000\000\000\000\340\000\001\300\000"
 6161      00000000 
 6161      E00001C0 
ARM GAS  C:\Users\jisu8\AppData\Local\Temp\ccieva3z.s 			page 196


 6161      00
 6162 07c5 01800001 		.ascii	"\001\200\000\001\200\000\003\000\000\002\000"
 6162      80000300 
 6162      000200
 6163 07d0 00000000 		.ascii	"\000\000\000\000\000\000\000\000\000\000\000\000\000"
 6163      00000000 
 6163      00000000 
 6163      00
 6164 07dd 00000000 		.ascii	"\000\000\000\000\000\000\000\000\000\000\000\000\000"
 6164      00000000 
 6164      00000000 
 6164      00
 6165 07ea 0000001C 		.ascii	"\000\000\000\034\000\000<\000\000\360\000\003\300\000"
 6165      00003C00 
 6165      00F00003 
 6165      C000
 6166 07f8 0F00003C 		.ascii	"\017\000\000<\000\000\360\000\000<\000\000\017\000\000"
 6166      0000F000 
 6166      003C0000 
 6166      0F0000
 6167 0807 03C00000 		.ascii	"\003\300\000\000\360\000\000<\000\000\034\000\000\000"
 6167      F000003C 
 6167      00001C00 
 6167      0000
 6168 0815 00000000 		.ascii	"\000\000\000\000\000\000\000\000\000\000\000\000\000"
 6168      00000000 
 6168      00000000 
 6168      00
 6169 0822 00000000 		.ascii	"\000\000\000\000\000\000\000\000\000\000\000\000\000"
 6169      00000000 
 6169      00000000 
 6169      00
 6170 082f 00000000 		.ascii	"\000\000\000\000\000\000\000\000\000\000\000\000\000"
 6170      00000000 
 6170      00000000 
 6170      00
 6171 083c 007FFC00 		.ascii	"\000\177\374\000\177\374\000\000\000\000\000\000\000"
 6171      7FFC0000 
 6171      00000000 
 6171      00
 6172 0849 7FFC007F 		.ascii	"\177\374\000\177\374\000\000\000\000\000\000\000\000"
 6172      FC000000 
 6172      00000000 
 6172      00
 6173 0856 00000000 		.ascii	"\000\000\000\000\000\000\000\000\000\000\000\000\000"
 6173      00000000 
 6173      00000000 
 6173      00
 6174 0863 00000000 		.ascii	"\000\000\000\000\000\000\000\000\000\000\000\000\000"
 6174      00000000 
 6174      00000000 
 6174      00
 6175 0870 00000000 		.ascii	"\000\000\000\000\000\000\000\000\000\000\000\000p\000"
 6175      00000000 
 6175      00000000 
 6175      7000
 6176 087e 00780000 		.ascii	"\000x\000\000\036\000\000\007\200\000\001\340\000\000"
ARM GAS  C:\Users\jisu8\AppData\Local\Temp\ccieva3z.s 			page 197


 6176      1E000007 
 6176      800001E0 
 6176      0000
 6177 088c 7800001E 		.ascii	"x\000\000\036\000\000x\000\001\340\000\007\200\000\036"
 6177      00007800 
 6177      01E00007 
 6177      80001E
 6178 089b 00007800 		.ascii	"\000\000x\000\000p\000\000\000\000\000\000\000\000\000"
 6178      00700000 
 6178      00000000 
 6178      000000
 6179 08aa 00000000 		.ascii	"\000\000\000\000\000\000\000\000\000\000\000\000\000"
 6179      00000000 
 6179      00000000 
 6179      00
 6180 08b7 00000000 		.ascii	"\000\000\000\000\000\000\000\000\000\000\007\300\000"
 6180      00000000 
 6180      000007C0 
 6180      00
 6181 08c4 0FE00018 		.ascii	"\017\340\000\030p\000\0300\000\0300\000\000p\000\000"
 6181      70001830 
 6181      00183000 
 6181      00700000 
 6182 08d4 E00003C0 		.ascii	"\340\000\003\300\000\003\200\000\003\000\000\000\000"
 6182      00038000 
 6182      03000000 
 6182      00
 6183 08e1 00000000 		.ascii	"\000\000\000\000\007\000\000\007\000\000\000\000\000"
 6183      07000007 
 6183      00000000 
 6183      00
 6184 08ee 00000000 		.ascii	"\000\000\000\000\000\000\000\000\000\000\000\000\000"
 6184      00000000 
 6184      00000000 
 6184      00
 6185 08fb 00000000 		.ascii	"\000\000\000\000\000\000\000\000\000\000\000\003\340"
 6185      00000000 
 6185      00000003 
 6185      E0
 6186 0908 0007F000 		.ascii	"\000\007\360\000\0168\000\014\030\000\030x\000\030\370"
 6186      0E38000C 
 6186      18001878 
 6186      0018F8
 6187 0917 0019D800 		.ascii	"\000\031\330\000\031\230\000\031\230\000\031\230\000"
 6187      19980019 
 6187      98001998 
 6187      00
 6188 0924 18F80018 		.ascii	"\030\370\000\030x\000\030\000\000\014\000\000\016\030"
 6188      78001800 
 6188      000C0000 
 6188      0E18
 6189 0932 0007F800 		.ascii	"\000\007\370\000\003\340\000\000\000\000\000\000\000"
 6189      03E00000 
 6189      00000000 
 6189      00
 6190 093f 00000000 		.ascii	"\000\000\000\000\000\000\000\000\000\000\000\000\000"
 6190      00000000 
ARM GAS  C:\Users\jisu8\AppData\Local\Temp\ccieva3z.s 			page 198


 6190      00000000 
 6190      00
 6191 094c 00000000 		.ascii	"\000\000\000\000\000\037\200\000\037\300\000\001\300"
 6191      001F8000 
 6191      1FC00001 
 6191      C0
 6192 0959 00036000 		.ascii	"\000\003`\000\003`\000\0060\000\0060\000\0140\000\017"
 6192      03600006 
 6192      30000630 
 6192      000C3000 
 6192      0F
 6193 096a F8001FF8 		.ascii	"\370\000\037\370\000\030\014\0000\014\000\374\177\000"
 6193      00180C00 
 6193      300C00FC 
 6193      7F00
 6194 0978 FC7F0000 		.ascii	"\374\177\000\000\000\000\000\000\000\000\000\000\000"
 6194      00000000 
 6194      00000000 
 6194      00
 6195 0985 00000000 		.ascii	"\000\000\000\000\000\000\000\000\000\000\000\000\000"
 6195      00000000 
 6195      00000000 
 6195      00
 6196 0992 00000000 		.ascii	"\000\000\000\000\000\000\000\177\340\000\177\360\000"
 6196      0000007F 
 6196      E0007FF0 
 6196      00
 6197 099f 18380018 		.ascii	"\0308\000\030\030\000\030\030\000\0308\000\037\360\000"
 6197      18001818 
 6197      00183800 
 6197      1FF000
 6198 09ae 1FF80018 		.ascii	"\037\370\000\030\034\000\030\014\000\030\014\000\030"
 6198      1C00180C 
 6198      00180C00 
 6198      18
 6199 09bb 0C007FF8 		.ascii	"\014\000\177\370\000\177\360\000\000\000\000\000\000"
 6199      007FF000 
 6199      00000000 
 6199      00
 6200 09c8 00000000 		.ascii	"\000\000\000\000\000\000\000\000\000\000\000\000\000"
 6200      00000000 
 6200      00000000 
 6200      00
 6201 09d5 00000000 		.ascii	"\000\000\000\000\000\000\000\000\000\000\000\000\003"
 6201      00000000 
 6201      00000000 
 6201      03
 6202 09e2 EC000FFC 		.ascii	"\354\000\017\374\000\034\034\000\030\014\0000\014\000"
 6202      001C1C00 
 6202      180C0030 
 6202      0C00
 6203 09f0 30000030 		.ascii	"0\000\0000\000\0000\000\0000\000\0000\000\000\030\014"
 6203      00003000 
 6203      00300000 
 6203      30000018 
 6203      0C
 6204 0a01 001C1C00 		.ascii	"\000\034\034\000\017\370\000\003\360\000\000\000\000"
ARM GAS  C:\Users\jisu8\AppData\Local\Temp\ccieva3z.s 			page 199


 6204      0FF80003 
 6204      F0000000 
 6204      00
 6205 0a0e 00000000 		.ascii	"\000\000\000\000\000\000\000\000\000\000\000\000\000"
 6205      00000000 
 6205      00000000 
 6205      00
 6206 0a1b 00000000 		.ascii	"\000\000\000\000\000\000\000\000\000\000\000\000\000"
 6206      00000000 
 6206      00000000 
 6206      00
 6207 0a28 007FC000 		.ascii	"\000\177\300\000\177\360\000\0308\000\030\030\000\030"
 6207      7FF00018 
 6207      38001818 
 6207      0018
 6208 0a36 0C00180C 		.ascii	"\014\000\030\014\000\030\014\000\030\014\000\030\014"
 6208      00180C00 
 6208      180C0018 
 6208      0C
 6209 0a43 00180C00 		.ascii	"\000\030\014\000\030\030\000\0308\000\177\360\000\177"
 6209      18180018 
 6209      38007FF0 
 6209      007F
 6210 0a51 E0000000 		.ascii	"\340\000\000\000\000\000\000\000\000\000\000\000\000"
 6210      00000000 
 6210      00000000 
 6210      00
 6211 0a5e 00000000 		.ascii	"\000\000\000\000\000\000\000\000\000\000\000\000\000"
 6211      00000000 
 6211      00000000 
 6211      00
 6212 0a6b 00000000 		.ascii	"\000\000\000\000\000\000\177\370\000\177\370\000\030"
 6212      00007FF8 
 6212      007FF800 
 6212      18
 6213 0a78 18001818 		.ascii	"\030\000\030\030\000\031\230\000\031\200\000\037\200"
 6213      00199800 
 6213      1980001F 
 6213      80
 6214 0a85 001F8000 		.ascii	"\000\037\200\000\031\200\000\031\230\000\030\030\000"
 6214      19800019 
 6214      98001818 
 6214      00
 6215 0a92 1818007F 		.ascii	"\030\030\000\177\370\000\177\370\000\000\000\000\000"
 6215      F8007FF8 
 6215      00000000 
 6215      00
 6216 0a9f 00000000 		.ascii	"\000\000\000\000\000\000\000\000\000\000\000\000\000"
 6216      00000000 
 6216      00000000 
 6216      00
 6217 0aac 00000000 		.ascii	"\000\000\000\000\000\000\000\000\000\000\000\000\000"
 6217      00000000 
 6217      00000000 
 6217      00
 6218 0ab9 3FFC003F 		.ascii	"?\374\000?\374\000\014\014\000\014\014\000\014\314\000"
 6218      FC000C0C 
ARM GAS  C:\Users\jisu8\AppData\Local\Temp\ccieva3z.s 			page 200


 6218      000C0C00 
 6218      0CCC00
 6219 0ac8 0CC0000F 		.ascii	"\014\300\000\017\300\000\017\300\000\014\300\000\014"
 6219      C0000FC0 
 6219      000CC000 
 6219      0C
 6220 0ad5 C0000C00 		.ascii	"\300\000\014\000\000\014\000\000?\300\000?\300\000\000"
 6220      000C0000 
 6220      3FC0003F 
 6220      C00000
 6221 0ae4 00000000 		.ascii	"\000\000\000\000\000\000\000\000\000\000\000\000\000"
 6221      00000000 
 6221      00000000 
 6221      00
 6222 0af1 00000000 		.ascii	"\000\000\000\000\000\000\000\000\000\000\000\000\000"
 6222      00000000 
 6222      00000000 
 6222      00
 6223 0afe 00000003 		.ascii	"\000\000\000\003\354\000\017\374\000\034\034\000\030"
 6223      EC000FFC 
 6223      001C1C00 
 6223      18
 6224 0b0b 0C00300C 		.ascii	"\014\0000\014\0000\000\0000\000\0000\376\0000\376\000"
 6224      00300000 
 6224      30000030 
 6224      FE0030FE 
 6224      00
 6225 0b1c 300C0038 		.ascii	"0\014\0008\014\000\034\034\000\017\374\000\003\360\000"
 6225      0C001C1C 
 6225      000FFC00 
 6225      03F000
 6226 0b2b 00000000 		.ascii	"\000\000\000\000\000\000\000\000\000\000\000\000\000"
 6226      00000000 
 6226      00000000 
 6226      00
 6227 0b38 00000000 		.ascii	"\000\000\000\000\000\000\000\000\000\000\000\000\000"
 6227      00000000 
 6227      00000000 
 6227      00
 6228 0b45 00000000 		.ascii	"\000\000\000\000~~\000~~\000\030\030\000\030\030\000"
 6228      7E7E007E 
 6228      7E001818 
 6228      00181800 
 6229 0b55 18180018 		.ascii	"\030\030\000\030\030\000\037\370\000\037\370\000\030"
 6229      18001FF8 
 6229      001FF800 
 6229      18
 6230 0b62 18001818 		.ascii	"\030\000\030\030\000\030\030\000\030\030\000~~\000~"
 6230      00181800 
 6230      1818007E 
 6230      7E007E
 6231 0b71 7E000000 		.ascii	"~\000\000\000\000\000\000\000\000\000\000\000\000\000"
 6231      00000000 
 6231      00000000 
 6231      0000
 6232 0b7f 00000000 		.ascii	"\000\000\000\000\000\000\000\000\000\000\000\000\000"
 6232      00000000 
ARM GAS  C:\Users\jisu8\AppData\Local\Temp\ccieva3z.s 			page 201


 6232      00000000 
 6232      00
 6233 0b8c 00000000 		.ascii	"\000\000\000\000\000\037\370\000\037\370\000\001\200"
 6233      001FF800 
 6233      1FF80001 
 6233      80
 6234 0b99 00018000 		.ascii	"\000\001\200\000\001\200\000\001\200\000\001\200\000"
 6234      01800001 
 6234      80000180 
 6234      00
 6235 0ba6 01800001 		.ascii	"\001\200\000\001\200\000\001\200\000\001\200\000\001"
 6235      80000180 
 6235      00018000 
 6235      01
 6236 0bb3 80001FF8 		.ascii	"\200\000\037\370\000\037\370\000\000\000\000\000\000"
 6236      001FF800 
 6236      00000000 
 6236      00
 6237 0bc0 00000000 		.ascii	"\000\000\000\000\000\000\000\000\000\000\000\000\000"
 6237      00000000 
 6237      00000000 
 6237      00
 6238 0bcd 00000000 		.ascii	"\000\000\000\000\000\000\000\000\000\000\000\000\007"
 6238      00000000 
 6238      00000000 
 6238      07
 6239 0bda FE0007FE 		.ascii	"\376\000\007\376\000\0000\000\0000\000\0000\000\000"
 6239      00003000 
 6239      00300000 
 6239      300000
 6240 0be9 30000030 		.ascii	"0\000\0000\00000\00000\00000\00000\0000`\000?\340\000"
 6240      00303000 
 6240      30300030 
 6240      30003030 
 6240      00306000 
 6241 0c00 0F800000 		.ascii	"\017\200\000\000\000\000\000\000\000\000\000\000\000"
 6241      00000000 
 6241      00000000 
 6241      00
 6242 0c0d 00000000 		.ascii	"\000\000\000\000\000\000\000\000\000\000\000\000\000"
 6242      00000000 
 6242      00000000 
 6242      00
 6243 0c1a 00000000 		.ascii	"\000\000\000\000\000\000\000\177>\000\177>\000\0300"
 6243      0000007F 
 6243      3E007F3E 
 6243      001830
 6244 0c29 00186000 		.ascii	"\000\030`\000\030\300\000\031\200\000\033\200\000\037"
 6244      18C00019 
 6244      80001B80 
 6244      001F
 6245 0c37 C0001CE0 		.ascii	"\300\000\034\340\000\030p\000\0300\000\0308\000\177"
 6245      00187000 
 6245      18300018 
 6245      38007F
 6246 0c46 1F007F1F 		.ascii	"\037\000\177\037\000\000\000\000\000\000\000\000\000"
 6246      00000000 
ARM GAS  C:\Users\jisu8\AppData\Local\Temp\ccieva3z.s 			page 202


 6246      00000000 
 6246      00
 6247 0c53 00000000 		.ascii	"\000\000\000\000\000\000\000\000\000\000\000\000\000"
 6247      00000000 
 6247      00000000 
 6247      00
 6248 0c60 00000000 		.ascii	"\000\000\000\000\000\000\000\000\000\177\200\000\177"
 6248      00000000 
 6248      007F8000 
 6248      7F
 6249 0c6d 80000C00 		.ascii	"\200\000\014\000\000\014\000\000\014\000\000\014\000"
 6249      000C0000 
 6249      0C00000C 
 6249      00
 6250 0c7a 000C0000 		.ascii	"\000\014\000\000\014\000\000\014\014\000\014\014\000"
 6250      0C00000C 
 6250      0C000C0C 
 6250      00
 6251 0c87 0C0C000C 		.ascii	"\014\014\000\014\014\000\177\374\000\177\374\000\000"
 6251      0C007FFC 
 6251      007FFC00 
 6251      00
 6252 0c94 00000000 		.ascii	"\000\000\000\000\000\000\000\000\000\000\000\000\000"
 6252      00000000 
 6252      00000000 
 6252      00
 6253 0ca1 00000000 		.ascii	"\000\000\000\000\000\000\000\000\000\000\000\000\000"
 6253      00000000 
 6253      00000000 
 6253      00
 6254 0cae 000000F0 		.ascii	"\000\000\000\360\017\000\370\037\0008\034\000<<\000"
 6254      0F00F81F 
 6254      00381C00 
 6254      3C3C00
 6255 0cbd 3C3C0036 		.ascii	"<<\0006l\0006l\0003\314\0003\314\0001\214\0000\014\000"
 6255      6C00366C 
 6255      0033CC00 
 6255      33CC0031 
 6255      8C00300C 
 6256 0cd2 300C00FE 		.ascii	"0\014\000\376\177\000\376\177\000\000\000\000\000\000"
 6256      7F00FE7F 
 6256      00000000 
 6256      0000
 6257 0ce0 00000000 		.ascii	"\000\000\000\000\000\000\000\000\000\000\000\000\000"
 6257      00000000 
 6257      00000000 
 6257      00
 6258 0ced 00000000 		.ascii	"\000\000\000\000\000\000\000\000\000\000\000\000x\376"
 6258      00000000 
 6258      00000000 
 6258      78FE
 6259 0cfb 0078FE00 		.ascii	"\000x\376\000\034\030\000\036\030\000\037\030\000\033"
 6259      1C18001E 
 6259      18001F18 
 6259      001B
 6260 0d09 18001B98 		.ascii	"\030\000\033\230\000\031\330\000\030\330\000\030\370"
 6260      0019D800 
ARM GAS  C:\Users\jisu8\AppData\Local\Temp\ccieva3z.s 			page 203


 6260      18D80018 
 6260      F8
 6261 0d16 00187800 		.ascii	"\000\030x\000\0308\000\177\030\000\177\030\000\000\000"
 6261      1838007F 
 6261      18007F18 
 6261      000000
 6262 0d25 00000000 		.ascii	"\000\000\000\000\000\000\000\000\000\000\000\000\000"
 6262      00000000 
 6262      00000000 
 6262      00
 6263 0d32 00000000 		.ascii	"\000\000\000\000\000\000\000\000\000\000\000\000\000"
 6263      00000000 
 6263      00000000 
 6263      00
 6264 0d3f 000003C0 		.ascii	"\000\000\003\300\000\017\360\000\0348\000\030\030\000"
 6264      000FF000 
 6264      1C380018 
 6264      1800
 6265 0d4d 381C0030 		.ascii	"8\034\0000\014\0000\014\0000\014\0000\014\0008\034\000"
 6265      0C00300C 
 6265      00300C00 
 6265      300C0038 
 6265      1C00
 6266 0d5f 1818001C 		.ascii	"\030\030\000\0348\000\017\360\000\003\300\000\000\000"
 6266      38000FF0 
 6266      0003C000 
 6266      0000
 6267 0d6d 00000000 		.ascii	"\000\000\000\000\000\000\000\000\000\000\000\000\000"
 6267      00000000 
 6267      00000000 
 6267      00
 6268 0d7a 00000000 		.ascii	"\000\000\000\000\000\000\000\000\000\000\000\000\000"
 6268      00000000 
 6268      00000000 
 6268      00
 6269 0d87 00003FF0 		.ascii	"\000\000?\360\000?\370\000\014\034\000\014\014\000\014"
 6269      003FF800 
 6269      0C1C000C 
 6269      0C000C
 6270 0d96 0C000C0C 		.ascii	"\014\000\014\014\000\014\030\000\017\370\000\017\340"
 6270      000C1800 
 6270      0FF8000F 
 6270      E0
 6271 0da3 000C0000 		.ascii	"\000\014\000\000\014\000\000\014\000\000?\300\000?\300"
 6271      0C00000C 
 6271      00003FC0 
 6271      003FC0
 6272 0db2 00000000 		.ascii	"\000\000\000\000\000\000\000\000\000\000\000\000\000"
 6272      00000000 
 6272      00000000 
 6272      00
 6273 0dbf 00000000 		.ascii	"\000\000\000\000\000\000\000\000\000\000\000\000\000"
 6273      00000000 
 6273      00000000 
 6273      00
 6274 0dcc 00000000 		.ascii	"\000\000\000\000\000\003\300\000\017\360\000\0348\000"
 6274      0003C000 
ARM GAS  C:\Users\jisu8\AppData\Local\Temp\ccieva3z.s 			page 204


 6274      0FF0001C 
 6274      3800
 6275 0dda 18180038 		.ascii	"\030\030\0008\034\0000\014\0000\014\0000\014\0000\014"
 6275      1C00300C 
 6275      00300C00 
 6275      300C0030 
 6275      0C
 6276 0deb 00381C00 		.ascii	"\0008\034\000\030\030\000\0348\000\017\360\000\007\300"
 6276      1818001C 
 6276      38000FF0 
 6276      0007C0
 6277 0dfa 0007CC00 		.ascii	"\000\007\314\000\017\374\000\0148\000\000\000\000\000"
 6277      0FFC000C 
 6277      38000000 
 6277      0000
 6278 0e08 00000000 		.ascii	"\000\000\000\000\000\000\000\000\000\000\000\000\000"
 6278      00000000 
 6278      00000000 
 6278      00
 6279 0e15 00000000 		.ascii	"\000\000\000\000\177\340\000\177\360\000\0308\000\030"
 6279      7FE0007F 
 6279      F0001838 
 6279      0018
 6280 0e23 18001818 		.ascii	"\030\000\030\030\000\0308\000\037\360\000\037\300\000"
 6280      00183800 
 6280      1FF0001F 
 6280      C000
 6281 0e31 18E00018 		.ascii	"\030\340\000\030p\000\0300\000\0308\000\177\036\000"
 6281      70001830 
 6281      00183800 
 6281      7F1E00
 6282 0e40 7F0E0000 		.ascii	"\177\016\000\000\000\000\000\000\000\000\000\000\000"
 6282      00000000 
 6282      00000000 
 6282      00
 6283 0e4d 00000000 		.ascii	"\000\000\000\000\000\000\000\000\000\000\000\000\000"
 6283      00000000 
 6283      00000000 
 6283      00
 6284 0e5a 00000000 		.ascii	"\000\000\000\000\000\000\000\007\330\000\017\370\000"
 6284      00000007 
 6284      D8000FF8 
 6284      00
 6285 0e67 1C380018 		.ascii	"\0348\000\030\030\000\030\030\000\036\000\000\017\300"
 6285      18001818 
 6285      001E0000 
 6285      0FC0
 6286 0e75 0003F000 		.ascii	"\000\003\360\000\000x\000\030\030\000\030\030\000\034"
 6286      00780018 
 6286      18001818 
 6286      001C
 6287 0e83 38001FF0 		.ascii	"8\000\037\360\000\033\340\000\000\000\000\000\000\000"
 6287      001BE000 
 6287      00000000 
 6287      0000
 6288 0e91 00000000 		.ascii	"\000\000\000\000\000\000\000\000\000\000\000\000\000"
 6288      00000000 
ARM GAS  C:\Users\jisu8\AppData\Local\Temp\ccieva3z.s 			page 205


 6288      00000000 
 6288      00
 6289 0e9e 00000000 		.ascii	"\000\000\000\000\000\000\000\000\000\000\000?\374\000"
 6289      00000000 
 6289      0000003F 
 6289      FC00
 6290 0eac 3FFC0031 		.ascii	"?\374\0001\214\0001\214\0001\214\0001\214\000\001\200"
 6290      8C00318C 
 6290      00318C00 
 6290      318C0001 
 6290      80
 6291 0ebd 00018000 		.ascii	"\000\001\200\000\001\200\000\001\200\000\001\200\000"
 6291      01800001 
 6291      80000180 
 6291      00
 6292 0eca 0180000F 		.ascii	"\001\200\000\017\360\000\017\360\000\000\000\000\000"
 6292      F0000FF0 
 6292      00000000 
 6292      00
 6293 0ed7 00000000 		.ascii	"\000\000\000\000\000\000\000\000\000\000\000\000\000"
 6293      00000000 
 6293      00000000 
 6293      00
 6294 0ee4 00000000 		.ascii	"\000\000\000\000\000\000\000\000\000\000\000\000\000"
 6294      00000000 
 6294      00000000 
 6294      00
 6295 0ef1 7E7E007E 		.ascii	"~~\000~~\000\030\030\000\030\030\000\030\030\000\030"
 6295      7E001818 
 6295      00181800 
 6295      18180018 
 6296 0f01 18001818 		.ascii	"\030\000\030\030\000\030\030\000\030\030\000\030\030"
 6296      00181800 
 6296      18180018 
 6296      18
 6297 0f0e 00181800 		.ascii	"\000\030\030\000\0140\000\017\360\000\003\300\000\000"
 6297      0C30000F 
 6297      F00003C0 
 6297      0000
 6298 0f1c 00000000 		.ascii	"\000\000\000\000\000\000\000\000\000\000\000\000\000"
 6298      00000000 
 6298      00000000 
 6298      00
 6299 0f29 00000000 		.ascii	"\000\000\000\000\000\000\000\000\000\000\000\000\000"
 6299      00000000 
 6299      00000000 
 6299      00
 6300 0f36 0000007F 		.ascii	"\000\000\000\177\177\000\177\177\000\030\014\000\014"
 6300      7F007F7F 
 6300      00180C00 
 6300      0C
 6301 0f43 18000C18 		.ascii	"\030\000\014\030\000\014\030\000\0060\000\0060\000\003"
 6301      000C1800 
 6301      06300006 
 6301      300003
 6302 0f52 60000360 		.ascii	"`\000\003`\000\003`\000\001\300\000\001\300\000\000"
 6302      00036000 
ARM GAS  C:\Users\jisu8\AppData\Local\Temp\ccieva3z.s 			page 206


 6302      01C00001 
 6302      C00000
 6303 0f61 80000000 		.ascii	"\200\000\000\000\000\000\000\000\000\000\000\000\000"
 6303      00000000 
 6303      00000000 
 6303      00
 6304 0f6e 00000000 		.ascii	"\000\000\000\000\000\000\000\000\000\000\000\000\000"
 6304      00000000 
 6304      00000000 
 6304      00
 6305 0f7b 00000000 		.ascii	"\000\000\000\000\000\000\376?\200\376?\2000\006\000"
 6305      0000FE3F 
 6305      80FE3F80 
 6305      300600
 6306 0f8a 30060030 		.ascii	"0\006\0000\206\000\031\314\000\031\314\000\033l\000"
 6306      860019CC 
 6306      0019CC00 
 6306      1B6C00
 6307 0f99 1B6C001E 		.ascii	"\033l\000\036|\000\016"
 6307      7C000E
 6308 0fa0 38000E38 		.ascii	"8\000\0168\000\014\030\000\014\030\000\000\000\000\000"
 6308      000C1800 
 6308      0C180000 
 6308      000000
 6309 0faf 00000000 		.ascii	"\000\000\000\000\000\000\000\000\000\000\000\000\000"
 6309      00000000 
 6309      00000000 
 6309      00
 6310 0fbc 00000000 		.ascii	"\000\000\000\000\000\000\000\000\000\000\000\000\000"
 6310      00000000 
 6310      00000000 
 6310      00
 6311 0fc9 7E7E007E 		.ascii	"~~\000~~\000\030\030\000\0140\000\006`\000\003\300\000"
 6311      7E001818 
 6311      000C3000 
 6311      06600003 
 6311      C000
 6312 0fdb 01800001 		.ascii	"\001\200\000\001\200\000\003\300\000\006`\000\0140\000"
 6312      800003C0 
 6312      00066000 
 6312      0C3000
 6313 0fea 1818007E 		.ascii	"\030\030\000~~\000~~\000\000\000\000\000\000\000\000"
 6313      7E007E7E 
 6313      00000000 
 6313      00000000 
 6314 0ffa 00000000 		.ascii	"\000\000\000\000\000\000\000\000\000\000\000\000\000"
 6314      00000000 
 6314      00000000 
 6314      00
 6315 1007 00000000 		.ascii	"\000\000\000\000\000\000\000\000\000\000|~\000|~\000"
 6315      00000000 
 6315      00007C7E 
 6315      007C7E00 
 6316 1017 1818000C 		.ascii	"\030\030\000\0140\000\006`\000\006`\000\003\300\000"
 6316      30000660 
 6316      00066000 
 6316      03C000
ARM GAS  C:\Users\jisu8\AppData\Local\Temp\ccieva3z.s 			page 207


 6317 1026 01800001 		.ascii	"\001\200\000\001\200\000\001\200\000\001\200\000\001"
 6317      80000180 
 6317      00018000 
 6317      01
 6318 1033 80000FF0 		.ascii	"\200\000\017\360\000\017\360\000\000\000\000\000\000"
 6318      000FF000 
 6318      00000000 
 6318      00
 6319 1040 00000000 		.ascii	"\000\000\000\000\000\000\000\000\000\000\000\000\000"
 6319      00000000 
 6319      00000000 
 6319      00
 6320 104d 00000000 		.ascii	"\000\000\000\000\000\000\000\000\000\000\000\000\037"
 6320      00000000 
 6320      00000000 
 6320      1F
 6321 105a F8001FF8 		.ascii	"\370\000\037\370\000\030\030\000\0300\000\030`\000\030"
 6321      00181800 
 6321      18300018 
 6321      600018
 6322 1069 C0000180 		.ascii	"\300\000\001\200\000\003\000\000\006\030\000\014\030"
 6322      00030000 
 6322      0618000C 
 6322      18
 6323 1076 00181800 		.ascii	"\000\030\030\0000\030\000?\370\000?\370\000\000\000"
 6323      3018003F 
 6323      F8003FF8 
 6323      000000
 6324 1085 00000000 		.ascii	"\000\000\000\000\000\000\000\000\000\000\000\000\000"
 6324      00000000 
 6324      00000000 
 6324      00
 6325 1092 00000000 		.ascii	"\000\000\000\000\000\000\000\000\000\000\000\000\001"
 6325      00000000 
 6325      00000000 
 6325      01
 6326 109f F00001F0 		.ascii	"\360\000\001\360\000\001\200\000\001\200\000\001\200"
 6326      00018000 
 6326      01800001 
 6326      80
 6327 10ac 00018000 		.ascii	"\000\001\200\000\001\200\000\001\200\000\001\200\000"
 6327      01800001 
 6327      80000180 
 6327      00
 6328 10b9 01800001 		.ascii	"\001\200\000\001\200\000\001\200\000\001\200\000\001"
 6328      80000180 
 6328      00018000 
 6328      01
 6329 10c6 80000180 		.ascii	"\200\000\001\200\000\001\200\000\001\360\000\001\360"
 6329      00018000 
 6329      01F00001 
 6329      F0
 6330 10d3 00000000 		.ascii	"\000\000\000\000\000\000\000\000\000\000\000\000\000"
 6330      00000000 
 6330      00000000 
 6330      00
 6331 10e0 18000018 		.ascii	"\030\000\000\030\000\000\034\000\000\014\000\000\016"
ARM GAS  C:\Users\jisu8\AppData\Local\Temp\ccieva3z.s 			page 208


 6331      00001C00 
 6331      000C0000 
 6331      0E
 6332 10ed 00000600 		.ascii	"\000\000\006\000\000\006\000\000\003\000\000\003\000"
 6332      00060000 
 6332      03000003 
 6332      00
 6333 10fa 00018000 		.ascii	"\000\001\200\000\001\200\000\000\300\000\000\300\000"
 6333      01800000 
 6333      C00000C0 
 6333      00
 6334 1107 00600000 		.ascii	"\000`\000\000`\000\000p\000\0000\000\0008\000\000\030"
 6334      60000070 
 6334      00003000 
 6334      00380000 
 6334      18
 6335 1118 00001800 		.ascii	"\000\000\030\000\000\000\000\000\000\000\000\000\000"
 6335      00000000 
 6335      00000000 
 6335      00
 6336 1125 00000000 		.ascii	"\000\000\000\000\000\000\000\000\000\017\200\000\017"
 6336      00000000 
 6336      000F8000 
 6336      0F
 6337 1132 80000180 		.ascii	"\200\000\001\200\000\001\200\000\001\200\000\001\200"
 6337      00018000 
 6337      01800001 
 6337      80
 6338 113f 00018000 		.ascii	"\000\001\200\000\001\200\000\001\200\000\001\200\000"
 6338      01800001 
 6338      80000180 
 6338      00
 6339 114c 01800001 		.ascii	"\001\200\000\001\200\000\001\200\000\001\200\000\001"
 6339      80000180 
 6339      00018000 
 6339      01
 6340 1159 80000180 		.ascii	"\200\000\001\200\000\017\200\000\017\200\000\000\000"
 6340      000F8000 
 6340      0F800000 
 6340      00
 6341 1166 00000000 		.ascii	"\000\000\000\000\000\000\000\000\000\000\000\000\000"
 6341      00000000 
 6341      00000000 
 6341      00
 6342 1173 00800001 		.ascii	"\000\200\000\001\300\000\003\340\000\007p\000\0060\000"
 6342      C00003E0 
 6342      00077000 
 6342      063000
 6343 1182 0C180018 		.ascii	"\014\030\000\030\014\000\020\004\000\000\000\000\000"
 6343      0C001004 
 6343      00000000 
 6343      00
 6344 118f 00000000 		.ascii	"\000\000\000\000\000\000\000\000\000\000\000\000\000"
 6344      00000000 
 6344      00000000 
 6344      00
 6345 119c 00000000 		.ascii	"\000\000\000\000\000\000\000\000\000\000\000\000\000"
ARM GAS  C:\Users\jisu8\AppData\Local\Temp\ccieva3z.s 			page 209


 6345      00000000 
 6345      00000000 
 6345      00
 6346 11a9 00000000 		.ascii	"\000\000\000\000\000\000\000\000\000\000\000\000\000"
 6346      00000000 
 6346      00000000 
 6346      00
 6347 11b6 00000000 		.ascii	"\000\000\000\000\000\000\000\000\000\000\000\000\000"
 6347      00000000 
 6347      00000000 
 6347      00
 6348 11c3 00000000 		.ascii	"\000\000\000\000\000\000\000\000\000\000\000\000\000"
 6348      00000000 
 6348      00000000 
 6348      00
 6349 11d0 00000000 		.ascii	"\000\000\000\000\000\000\000\000\000\000\000\000\000"
 6349      00000000 
 6349      00000000 
 6349      00
 6350 11dd 00000000 		.ascii	"\000\000\000\000\000\000\000\000\000\000\000\000\000"
 6350      00000000 
 6350      00000000 
 6350      00
 6351 11ea 00000000 		.ascii	"\000\000\000\000\000\000\000\000\000\000\000\000\000"
 6351      00000000 
 6351      00000000 
 6351      00
 6352 11f7 000000FF 		.ascii	"\000\000\000\377\377\000\377\377\000\000\000\000\003"
 6352      FF00FFFF 
 6352      00000000 
 6352      03
 6353 1204 00000380 		.ascii	"\000\000\003\200\000\000\340\000\000`\000\000\000\000"
 6353      0000E000 
 6353      00600000 
 6353      0000
 6354 1212 00000000 		.ascii	"\000\000\000\000\000\000\000\000\000\000\000\000\000"
 6354      00000000 
 6354      00000000 
 6354      00
 6355 121f 00000000 		.ascii	"\000\000\000\000\000\000\000\000\000\000\000\000\000"
 6355      00000000 
 6355      00000000 
 6355      00
 6356 122c 00000000 		.ascii	"\000\000\000\000\000\000\000\000\000\000\000\000\000"
 6356      00000000 
 6356      00000000 
 6356      00
 6357 1239 00000000 		.ascii	"\000\000\000\000\000\000\000\000\000\000\000\000\000"
 6357      00000000 
 6357      00000000 
 6357      00
 6358 1246 00000000 		.ascii	"\000\000\000\000\000\000\000\000\000\000\000\000\000"
 6358      00000000 
 6358      00000000 
 6358      00
 6359 1253 00000000 		.ascii	"\000\000\000\000\000\000\000\017\300\000\037\340\000"
 6359      0000000F 
ARM GAS  C:\Users\jisu8\AppData\Local\Temp\ccieva3z.s 			page 210


 6359      C0001FE0 
 6359      00
 6360 1260 00300000 		.ascii	"\0000\000\0000\000\007\360\000\037\360\00080\00000\000"
 6360      300007F0 
 6360      001FF000 
 6360      38300030 
 6360      3000
 6361 1272 3070001F 		.ascii	"0p\000\037\374\000\017\274\000\000\000\000\000\000\000"
 6361      FC000FBC 
 6361      00000000 
 6361      000000
 6362 1281 00000000 		.ascii	"\000\000\000\000\000\000\000\000\000\000\000\000\000"
 6362      00000000 
 6362      00000000 
 6362      00
 6363 128e 00000000 		.ascii	"\000\000\000\000\000\000\000\000x\000\000x\000\000\030"
 6363      00000000 
 6363      78000078 
 6363      000018
 6364 129d 00001800 		.ascii	"\000\000\030\000\000\033\340\000\037\370\000\034\030"
 6364      001BE000 
 6364      1FF8001C 
 6364      18
 6365 12aa 00180C00 		.ascii	"\000\030\014\000\030\014\000\030\014\000\030\014\000"
 6365      180C0018 
 6365      0C00180C 
 6365      00
 6366 12b7 180C001C 		.ascii	"\030\014\000\034\030\000\177\370\000{\340\000\000\000"
 6366      18007FF8 
 6366      007BE000 
 6366      0000
 6367 12c5 00000000 		.ascii	"\000\000\000\000\000\000\000\000\000\000\000\000\000"
 6367      00000000 
 6367      00000000 
 6367      00
 6368 12d2 00000000 		.ascii	"\000\000\000\000\000\000\000\000\000\000\000\000\000"
 6368      00000000 
 6368      00000000 
 6368      00
 6369 12df 00000000 		.ascii	"\000\000\000\000\000\000\000\000\000\000\000\003\354"
 6369      00000000 
 6369      00000003 
 6369      EC
 6370 12ec 000FFC00 		.ascii	"\000\017\374\000\034\034\0008\014\0000\014\0000\000"
 6370      1C1C0038 
 6370      0C00300C 
 6370      003000
 6371 12fb 00300000 		.ascii	"\0000\000\0008\014\000\034\034\000\017\370\000\003\360"
 6371      380C001C 
 6371      1C000FF8 
 6371      0003F0
 6372 130a 00000000 		.ascii	"\000\000\000\000\000\000\000\000\000\000\000\000\000"
 6372      00000000 
 6372      00000000 
 6372      00
 6373 1317 00000000 		.ascii	"\000\000\000\000\000\000\000\000\000\000\000\000\000"
 6373      00000000 
ARM GAS  C:\Users\jisu8\AppData\Local\Temp\ccieva3z.s 			page 211


 6373      00000000 
 6373      00
 6374 1324 00000078 		.ascii	"\000\000\000x\000\000x\000\000\030\000\000\030\000\007"
 6374      00007800 
 6374      00180000 
 6374      180007
 6375 1333 D8001FF8 		.ascii	"\330\000\037\370\000\0308\0000\030\0000\030\0000\030"
 6375      00183800 
 6375      30180030 
 6375      18003018 
 6376 1343 00301800 		.ascii	"\0000\030\0000\030\000\0308\000\037\376\000\007\336"
 6376      30180018 
 6376      38001FFE 
 6376      0007DE
 6377 1352 00000000 		.ascii	"\000\000\000\000\000\000\000\000\000\000\000\000\000"
 6377      00000000 
 6377      00000000 
 6377      00
 6378 135f 00000000 		.ascii	"\000\000\000\000\000\000\000\000\000\000\000\000\000"
 6378      00000000 
 6378      00000000 
 6378      00
 6379 136c 00000000 		.ascii	"\000\000\000\000\000\000\000\000\000\000\000\000\000"
 6379      00000000 
 6379      00000000 
 6379      00
 6380 1379 0007E000 		.ascii	"\000\007\340\000\037\370\000\030\030\0000\014\000?\374"
 6380      1FF80018 
 6380      1800300C 
 6380      003FFC
 6381 1388 003FFC00 		.ascii	"\000?\374\0000\000\0000\000\000\030\014\000\037\374"
 6381      30000030 
 6381      0000180C 
 6381      001FFC
 6382 1397 0007F000 		.ascii	"\000\007\360\000\000\000\000\000\000\000\000\000\000"
 6382      00000000 
 6382      00000000 
 6382      00
 6383 13a4 00000000 		.ascii	"\000\000\000\000\000\000\000\000\000\000\000\000\000"
 6383      00000000 
 6383      00000000 
 6383      00
 6384 13b1 00000000 		.ascii	"\000\000\000\000\000\001\374\000\003\374\000\006\000"
 6384      0001FC00 
 6384      03FC0006 
 6384      00
 6385 13be 00060000 		.ascii	"\000\006\000\000?\370\000?\370\000\006\000\000\006\000"
 6385      3FF8003F 
 6385      F8000600 
 6385      000600
 6386 13cd 00060000 		.ascii	"\000\006\000\000\006\000\000\006\000\000\006\000\000"
 6386      06000006 
 6386      00000600 
 6386      00
 6387 13da 0600003F 		.ascii	"\006\000\000?\360\000?\360\000\000\000\000\000\000\000"
 6387      F0003FF0 
 6387      00000000 
ARM GAS  C:\Users\jisu8\AppData\Local\Temp\ccieva3z.s 			page 212


 6387      000000
 6388 13e9 00000000 		.ascii	"\000\000\000\000\000\000\000\000\000\000\000\000\000"
 6388      00000000 
 6388      00000000 
 6388      00
 6389 13f6 00000000 		.ascii	"\000\000\000\000\000\000\000\000\000\000\000\000\000"
 6389      00000000 
 6389      00000000 
 6389      00
 6390 1403 00000000 		.ascii	"\000\000\000\000\000\000\000\007\336\000\037\376\000"
 6390      00000007 
 6390      DE001FFE 
 6390      00
 6391 1410 18380030 		.ascii	"\0308\0000\030\0000\030\0000\030\0000\030\0000\030\000"
 6391      18003018 
 6391      00301800 
 6391      30180030 
 6391      1800
 6392 1422 1838001F 		.ascii	"\0308\000\037\370\000\007\330\000\000\030\000\000\030"
 6392      F80007D8 
 6392      00001800 
 6392      0018
 6393 1430 00003800 		.ascii	"\000\0008\000\017\360\000\017\300\000\000\000\000\000"
 6393      0FF0000F 
 6393      C0000000 
 6393      0000
 6394 143e 00000000 		.ascii	"\000\000\000\000\000\000\000\000x\000\000x\000\000\030"
 6394      00000000 
 6394      78000078 
 6394      000018
 6395 144d 00001800 		.ascii	"\000\000\030\000\000\033\340\000\037\360\000\0348\000"
 6395      001BE000 
 6395      1FF0001C 
 6395      3800
 6396 145b 18180018 		.ascii	"\030\030\000\030\030\000\030\030\000\030\030\000\030"
 6396      18001818 
 6396      00181800 
 6396      18
 6397 1468 18001818 		.ascii	"\030\000\030\030\000~~\000~~\000\000\000\000\000\000"
 6397      007E7E00 
 6397      7E7E0000 
 6397      00000000 
 6398 1478 00000000 		.ascii	"\000\000\000\000\000\000\000\000\000\000\000\000\000"
 6398      00000000 
 6398      00000000 
 6398      00
 6399 1485 00000000 		.ascii	"\000\000\000\000\000\000\000\000\000\001\200\000\001"
 6399      00000000 
 6399      00018000 
 6399      01
 6400 1492 80000000 		.ascii	"\200\000\000\000\000\000\000\000\037\200\000\037\200"
 6400      00000000 
 6400      1F80001F 
 6400      80
 6401 149f 00018000 		.ascii	"\000\001\200\000\001\200\000\001\200\000\001\200\000"
 6401      01800001 
 6401      80000180 
ARM GAS  C:\Users\jisu8\AppData\Local\Temp\ccieva3z.s 			page 213


 6401      00
 6402 14ac 01800001 		.ascii	"\001\200\000\001\200\000\001\200\000?\374\000?\374\000"
 6402      80000180 
 6402      003FFC00 
 6402      3FFC00
 6403 14bb 00000000 		.ascii	"\000\000\000\000\000\000\000\000\000\000\000\000\000"
 6403      00000000 
 6403      00000000 
 6403      00
 6404 14c8 00000000 		.ascii	"\000\000\000\000\000\000\000\000\000\000\000\000\000"
 6404      00000000 
 6404      00000000 
 6404      00
 6405 14d5 0000C000 		.ascii	"\000\000\300\000\000\300\000\000\000\000\000\000\000"
 6405      00C00000 
 6405      00000000 
 6405      00
 6406 14e2 1FF0001F 		.ascii	"\037\360\000\037\360\000\0000\000\0000\000\0000\000"
 6406      F0000030 
 6406      00003000 
 6406      003000
 6407 14f1 00300000 		.ascii	"\0000\000\0000\000\0000\000\0000\000\0000\000\0000\000"
 6407      30000030 
 6407      00003000 
 6407      00300000 
 6407      3000
 6408 1503 00300000 		.ascii	"\0000\000\0000\000\000p\000\037\340\000\037\200\000"
 6408      30000070 
 6408      001FE000 
 6408      1F8000
 6409 1512 00000000 		.ascii	"\000\000\000\000\000\000\000\000\000\000\000\000<\000"
 6409      00000000 
 6409      00000000 
 6409      3C00
 6410 1520 003C0000 		.ascii	"\000<\000\000\014\000\000\014\000\000\014\370\000\014"
 6410      0C00000C 
 6410      00000CF8 
 6410      000C
 6411 152e F8000CC0 		.ascii	"\370\000\014\300\000\015\200\000\017\200\000\017\000"
 6411      000D8000 
 6411      0F80000F 
 6411      00
 6412 153b 000F8000 		.ascii	"\000\017\200\000\015\300\000\014\340\000<|\000<|\000"
 6412      0DC0000C 
 6412      E0003C7C 
 6412      003C7C00 
 6413 154b 00000000 		.ascii	"\000\000\000\000\000\000\000\000\000\000\000\000\000"
 6413      00000000 
 6413      00000000 
 6413      00
 6414 1558 00000000 		.ascii	"\000\000\000\000\000\000\000\000\000\000\000\000\000"
 6414      00000000 
 6414      00000000 
 6414      00
 6415 1565 001F8000 		.ascii	"\000\037\200\000\037\200\000\001\200\000\001\200\000"
 6415      1F800001 
 6415      80000180 
ARM GAS  C:\Users\jisu8\AppData\Local\Temp\ccieva3z.s 			page 214


 6415      00
 6416 1572 01800001 		.ascii	"\001\200\000\001\200\000\001\200\000\001\200\000\001"
 6416      80000180 
 6416      00018000 
 6416      01
 6417 157f 80000180 		.ascii	"\200\000\001\200\000\001\200\000\001\200\000\001\200"
 6417      00018000 
 6417      01800001 
 6417      80
 6418 158c 003FFC00 		.ascii	"\000?\374\000?\374\000\000\000\000\000\000\000\000\000"
 6418      3FFC0000 
 6418      00000000 
 6418      000000
 6419 159b 00000000 		.ascii	"\000\000\000\000\000\000\000\000\000\000\000\000\000"
 6419      00000000 
 6419      00000000 
 6419      00
 6420 15a8 00000000 		.ascii	"\000\000\000\000\000\000\000\000\000\000\000\000\000"
 6420      00000000 
 6420      00000000 
 6420      00
 6421 15b5 00000000 		.ascii	"\000\000\000\000\000\367x\000\377\374\0009\314\0001"
 6421      00F77800 
 6421      FFFC0039 
 6421      CC0031
 6422 15c4 8C00318C 		.ascii	"\214\0001\214\0001\214\0001\214\0001\214\0001\214\000"
 6422      00318C00 
 6422      318C0031 
 6422      8C00318C 
 6422      00
 6423 15d5 FDEF00FD 		.ascii	"\375\357\000\375\357\000\000\000\000\000\000\000\000"
 6423      EF000000 
 6423      00000000 
 6423      00
 6424 15e2 00000000 		.ascii	"\000\000\000\000\000\000\000\000\000\000\000\000\000"
 6424      00000000 
 6424      00000000 
 6424      00
 6425 15ef 00000000 		.ascii	"\000\000\000\000\000\000\000\000\000\000\000\000\000"
 6425      00000000 
 6425      00000000 
 6425      00
 6426 15fc 00000000 		.ascii	"\000\000\000\000\000\000{\340\000\177\360\000\0348\000"
 6426      00007BE0 
 6426      007FF000 
 6426      1C3800
 6427 160b 18180018 		.ascii	"\030\030\000\030\030\000\030\030\000\030\030\000\030"
 6427      18001818 
 6427      00181800 
 6427      18
 6428 1618 18001818 		.ascii	"\030\000\030\030\000~~\000~~\000\000\000\000\000\000"
 6428      007E7E00 
 6428      7E7E0000 
 6428      00000000 
 6429 1628 00000000 		.ascii	"\000\000\000\000\000\000\000\000\000\000\000\000\000"
 6429      00000000 
 6429      00000000 
ARM GAS  C:\Users\jisu8\AppData\Local\Temp\ccieva3z.s 			page 215


 6429      00
 6430 1635 00000000 		.ascii	"\000\000\000\000\000\000\000\000\000\000\000\000\000"
 6430      00000000 
 6430      00000000 
 6430      00
 6431 1642 00000000 		.ascii	"\000\000\000\000\000\000\000\000\003\300\000\017\360"
 6431      00000000 
 6431      03C0000F 
 6431      F0
 6432 164f 001C3800 		.ascii	"\000\0348\0008\034\0000\014\0000\014\0000\014\0008\034"
 6432      381C0030 
 6432      0C00300C 
 6432      00300C00 
 6432      381C
 6433 1661 001C3800 		.ascii	"\000\0348\000\017\360\000\003\300\000\000\000\000\000"
 6433      0FF00003 
 6433      C0000000 
 6433      0000
 6434 166f 00000000 		.ascii	"\000\000\000\000\000\000\000\000\000\000\000\000\000"
 6434      00000000 
 6434      00000000 
 6434      00
 6435 167c 00000000 		.ascii	"\000\000\000\000\000\000\000\000\000\000\000\000\000"
 6435      00000000 
 6435      00000000 
 6435      00
 6436 1689 00000000 		.ascii	"\000\000\000\000\000\000\000\000\000{\340\000\177\370"
 6436      00000000 
 6436      007BE000 
 6436      7FF8
 6437 1697 001C1800 		.ascii	"\000\034\030\000\030\014\000\030\014\000\030\014\000"
 6437      180C0018 
 6437      0C00180C 
 6437      00
 6438 16a4 180C0018 		.ascii	"\030\014\000\030\014\000\034\030\000\037\370\000\033"
 6438      0C001C18 
 6438      001FF800 
 6438      1B
 6439 16b1 E0001800 		.ascii	"\340\000\030\000\000\030\000\000\030\000\000\177\000"
 6439      00180000 
 6439      1800007F 
 6439      00
 6440 16be 007F0000 		.ascii	"\000\177\000\000\000\000\000\000\000\000\000\000\000"
 6440      00000000 
 6440      00000000 
 6440      00
 6441 16cb 00000000 		.ascii	"\000\000\000\000\000\000\000\000\000\000\000\000\000"
 6441      00000000 
 6441      00000000 
 6441      00
 6442 16d8 000007DE 		.ascii	"\000\000\007\336\000\037\376\000\0308\0000\030\0000"
 6442      001FFE00 
 6442      18380030 
 6442      180030
 6443 16e7 18003018 		.ascii	"\030\0000\030\0000\030\0000\030\000\0308\000\037\370"
 6443      00301800 
 6443      30180018 
ARM GAS  C:\Users\jisu8\AppData\Local\Temp\ccieva3z.s 			page 216


 6443      38001FF8 
 6444 16f7 0007D800 		.ascii	"\000\007\330\000\000\030\000\000\030\000\000\030\000"
 6444      00180000 
 6444      18000018 
 6444      00
 6445 1704 00FE0000 		.ascii	"\000\376\000\000\376\000\000\000\000\000\000\000\000"
 6445      FE000000 
 6445      00000000 
 6445      00
 6446 1711 00000000 		.ascii	"\000\000\000\000\000\000\000\000\000\000\000\000\000"
 6446      00000000 
 6446      00000000 
 6446      00
 6447 171e 00000000 		.ascii	"\000\000\000\000>x\000>\374\000\007\314\000\007\000"
 6447      3E78003E 
 6447      FC0007CC 
 6447      000700
 6448 172d 00060000 		.ascii	"\000\006\000\000\006\000\000\006\000\000\006\000\000"
 6448      06000006 
 6448      00000600 
 6448      00
 6449 173a 0600003F 		.ascii	"\006\000\000?\360\000?\360\000\000\000\000\000\000\000"
 6449      F0003FF0 
 6449      00000000 
 6449      000000
 6450 1749 00000000 		.ascii	"\000\000\000\000\000\000\000\000\000\000\000\000\000"
 6450      00000000 
 6450      00000000 
 6450      00
 6451 1756 00000000 		.ascii	"\000\000\000\000\000\000\000\000\000\000\000\000\000"
 6451      00000000 
 6451      00000000 
 6451      00
 6452 1763 00000000 		.ascii	"\000\000\000\000\000\000\000\007\370\000\017\370\000"
 6452      00000007 
 6452      F8000FF8 
 6452      00
 6453 1770 18180018 		.ascii	"\030\030\000\030\030\000\037\200\000\017\360\000\000"
 6453      18001F80 
 6453      000FF000 
 6453      00
 6454 177d F8001818 		.ascii	"\370\000\030\030\000\0308\000\037\360\000\037\340\000"
 6454      00183800 
 6454      1FF0001F 
 6454      E000
 6455 178b 00000000 		.ascii	"\000\000\000\000\000\000\000\000\000\000\000\000\000"
 6455      00000000 
 6455      00000000 
 6455      00
 6456 1798 00000000 		.ascii	"\000\000\000\000\000\000\000\000\000\000\000\000\000"
 6456      00000000 
 6456      00000000 
 6456      00
 6457 17a5 000C0000 		.ascii	"\000\014\000\000\014\000\000\014\000\000\014\000\000"
 6457      0C00000C 
 6457      00000C00 
 6457      00
ARM GAS  C:\Users\jisu8\AppData\Local\Temp\ccieva3z.s 			page 217


 6458 17b2 3FF0003F 		.ascii	"?\360\000?\360\000\014\000\000\014\000\000\014\000\000"
 6458      F0000C00 
 6458      000C0000 
 6458      0C0000
 6459 17c1 0C00000C 		.ascii	"\014\000\000\014\000\000\014\000\000\014\034\000\007"
 6459      00000C00 
 6459      000C1C00 
 6459      07
 6460 17ce FC0003F0 		.ascii	"\374\000\003\360\000\000\000\000\000\000\000\000\000"
 6460      00000000 
 6460      00000000 
 6460      00
 6461 17db 00000000 		.ascii	"\000\000\000\000\000\000\000\000\000\000\000\000\000"
 6461      00000000 
 6461      00000000 
 6461      00
 6462 17e8 00000000 		.ascii	"\000\000\000\000\000\000\000\000\000\000\000\000\000"
 6462      00000000 
 6462      00000000 
 6462      00
 6463 17f5 00000000 		.ascii	"\000\000\000\000\000xx\000xx\000\030\030\000\030\030"
 6463      00787800 
 6463      78780018 
 6463      18001818 
 6464 1805 00181800 		.ascii	"\000\030\030\000\030\030\000\030\030\000\030\030\000"
 6464      18180018 
 6464      18001818 
 6464      00
 6465 1812 1838000F 		.ascii	"\0308\000\017\376\000\007\336\000\000\000\000\000\000"
 6465      FE0007DE 
 6465      00000000 
 6465      0000
 6466 1820 00000000 		.ascii	"\000\000\000\000\000\000\000\000\000\000\000\000\000"
 6466      00000000 
 6466      00000000 
 6466      00
 6467 182d 00000000 		.ascii	"\000\000\000\000\000\000\000\000\000\000\000\000\000"
 6467      00000000 
 6467      00000000 
 6467      00
 6468 183a 00000000 		.ascii	"\000\000\000\000\000\000\000\000|>\000|>\000\030\030"
 6468      00000000 
 6468      7C3E007C 
 6468      3E001818 
 6469 184a 00181800 		.ascii	"\000\030\030\000\0140\000\0140\000\006`\000\006`\000"
 6469      0C30000C 
 6469      30000660 
 6469      00066000 
 6470 185a 07E00003 		.ascii	"\007\340\000\003\300\000\003\300\000\000\000\000\000"
 6470      C00003C0 
 6470      00000000 
 6470      00
 6471 1867 00000000 		.ascii	"\000\000\000\000\000\000\000\000\000\000\000\000\000"
 6471      00000000 
 6471      00000000 
 6471      00
 6472 1874 00000000 		.ascii	"\000\000\000\000\000\000\000\000\000\000\000\000\000"
ARM GAS  C:\Users\jisu8\AppData\Local\Temp\ccieva3z.s 			page 218


 6472      00000000 
 6472      00000000 
 6472      00
 6473 1881 00000000 		.ascii	"\000\000\000\000\000\000\000\000\000x<\000x<\0001\030"
 6473      00000000 
 6473      00783C00 
 6473      783C0031 
 6473      18
 6474 1892 00339800 		.ascii	"\0003\230\0003\230\000\032\260\000\036\360\000\036\360"
 6474      3398001A 
 6474      B0001EF0 
 6474      001EF0
 6475 18a1 001C6000 		.ascii	"\000\034`\000\014`\000\014`\000\000\000\000\000\000"
 6475      0C60000C 
 6475      60000000 
 6475      000000
 6476 18b0 00000000 		.ascii	"\000\000\000\000\000\000\000\000\000\000\000\000\000"
 6476      00000000 
 6476      00000000 
 6476      00
 6477 18bd 00000000 		.ascii	"\000\000\000\000\000\000\000\000\000\000\000\000\000"
 6477      00000000 
 6477      00000000 
 6477      00
 6478 18ca 00000000 		.ascii	"\000\000\000\000\000\000\000\000>|\000>|\000\0140\000"
 6478      00000000 
 6478      3E7C003E 
 6478      7C000C30 
 6478      00
 6479 18db 06600003 		.ascii	"\006`\000\003\300\000\001\200\000\003\300\000\006`\000"
 6479      C0000180 
 6479      0003C000 
 6479      066000
 6480 18ea 0C30003E 		.ascii	"\0140\000>|\000>|\000\000\000\000\000\000\000\000\000"
 6480      7C003E7C 
 6480      00000000 
 6480      00000000 
 6480      00
 6481 18fb 00000000 		.ascii	"\000\000\000\000\000\000\000\000\000\000\000\000\000"
 6481      00000000 
 6481      00000000 
 6481      00
 6482 1908 00000000 		.ascii	"\000\000\000\000\000\000\000\000\000\000\000\000\000"
 6482      00000000 
 6482      00000000 
 6482      00
 6483 1915 00000000 		.ascii	"\000\000\000\000\000~\037\000~\037\000\030\014\000\014"
 6483      007E1F00 
 6483      7E1F0018 
 6483      0C000C
 6484 1924 18000C18 		.ascii	"\030\000\014\030\000\0060\000\0060\000\003`\000\003"
 6484      00063000 
 6484      06300003 
 6484      600003
 6485 1933 E00001C0 		.ascii	"\340\000\001\300\000\000\300\000\001\200\000\001\200"
 6485      0000C000 
 6485      01800001 
ARM GAS  C:\Users\jisu8\AppData\Local\Temp\ccieva3z.s 			page 219


 6485      80
 6486 1940 00030000 		.ascii	"\000\003\000\000?\300\000?\300\000\000\000\000\000\000"
 6486      3FC0003F 
 6486      C0000000 
 6486      000000
 6487 194f 00000000 		.ascii	"\000\000\000\000\000\000\000\000\000\000\000\000\000"
 6487      00000000 
 6487      00000000 
 6487      00
 6488 195c 00000000 		.ascii	"\000\000\000\000\000\000\037\370\000\037\370\000\030"
 6488      00001FF8 
 6488      001FF800 
 6488      18
 6489 1969 30001860 		.ascii	"0\000\030`\000\000\300\000\001\200\000\003\000\000\006"
 6489      0000C000 
 6489      01800003 
 6489      000006
 6490 1978 18000C18 		.ascii	"\030\000\014\030\000\037\370\000\037\370\000\000\000"
 6490      001FF800 
 6490      1FF80000 
 6490      00
 6491 1985 00000000 		.ascii	"\000\000\000\000\000\000\000\000\000\000\000\000\000"
 6491      00000000 
 6491      00000000 
 6491      00
 6492 1992 00000000 		.ascii	"\000\000\000\000\000\000\000\000\000\000\000\000\000"
 6492      00000000 
 6492      00000000 
 6492      00
 6493 199f E00001E0 		.ascii	"\340\000\001\340\000\001\200\000\001\200\000\001\200"
 6493      00018000 
 6493      01800001 
 6493      80
 6494 19ac 00018000 		.ascii	"\000\001\200\000\001\200\000\001\200\000\003\200\000"
 6494      01800001 
 6494      80000380 
 6494      00
 6495 19b9 07000003 		.ascii	"\007\000\000\003\200\000\001\200\000\001\200\000\001"
 6495      80000180 
 6495      00018000 
 6495      01
 6496 19c6 80000180 		.ascii	"\200\000\001\200\000\001\200\000\001\340\000\000\340"
 6496      00018000 
 6496      01E00000 
 6496      E0
 6497 19d3 00000000 		.ascii	"\000\000\000\000\000\000\000\000\000\000\000\000\000"
 6497      00000000 
 6497      00000000 
 6497      00
 6498 19e0 00000000 		.ascii	"\000\000\000\000\000\000\001\200\000\001\200\000\001"
 6498      00000180 
 6498      00018000 
 6498      01
 6499 19ed 80000180 		.ascii	"\200\000\001\200\000\001\200\000\001\200\000\001\200"
 6499      00018000 
 6499      01800001 
 6499      80
ARM GAS  C:\Users\jisu8\AppData\Local\Temp\ccieva3z.s 			page 220


 6500 19fa 00018000 		.ascii	"\000\001\200\000\001\200\000\001\200\000\001\200\000"
 6500      01800001 
 6500      80000180 
 6500      00
 6501 1a07 01800001 		.ascii	"\001\200\000\001\200\000\001\200\000\001\200\000\001"
 6501      80000180 
 6501      00018000 
 6501      01
 6502 1a14 80000180 		.ascii	"\200\000\001\200\000\001\200\000\000\000\000\000\000"
 6502      00018000 
 6502      00000000 
 6502      00
 6503 1a21 00000000 		.ascii	"\000\000\000\000\000\000\000\000\000\000\000\000\000"
 6503      00000000 
 6503      00000000 
 6503      00
 6504 1a2e 07000007 		.ascii	"\007\000\000\007\200\000\001\200\000\001\200\000\001"
 6504      80000180 
 6504      00018000 
 6504      01
 6505 1a3b 80000180 		.ascii	"\200\000\001\200\000\001\200\000\001\200\000\001\300"
 6505      00018000 
 6505      01800001 
 6505      C0
 6506 1a48 0000E000 		.ascii	"\000\000\340\000\001\300\000\001\200\000\001\200\000"
 6506      01C00001 
 6506      80000180 
 6506      00
 6507 1a55 01800001 		.ascii	"\001\200\000\001\200\000\001\200\000\007\200\000\007"
 6507      80000180 
 6507      00078000 
 6507      07
 6508 1a62 00000000 		.ascii	"\000\000\000\000\000\000\000\000\000\000\000\000\000"
 6508      00000000 
 6508      00000000 
 6508      00
 6509 1a6f 00000000 		.ascii	"\000\000\000\000\000\000\000\000\000\000\000\000\000"
 6509      00000000 
 6509      00000000 
 6509      00
 6510 1a7c 00000000 		.ascii	"\000\000\000\000\000\000\000\000\000\000\000\000\016"
 6510      00000000 
 6510      00000000 
 6510      0E
 6511 1a89 00001F18 		.ascii	"\000\000\037\030\000;\270\0001\360\000\000\340\000\000"
 6511      003BB800 
 6511      31F00000 
 6511      E00000
 6512 1a98 00000000 		.ascii	"\000\000\000\000\000\000\000\000\000\000\000\000\000"
 6512      00000000 
 6512      00000000 
 6512      00
 6513 1aa5 00000000 		.ascii	"\000\000\000\000\000\000\000\000\000\000\000\000\000"
 6513      00000000 
 6513      00000000 
 6513      00
 6514 1ab2 00000000 		.ascii	"\000\000\000\000\000\000"
ARM GAS  C:\Users\jisu8\AppData\Local\Temp\ccieva3z.s 			page 221


 6514      0000
 6515              		.section	.rodata.Font8_Table,"a"
 6516              		.align	2
 6519              	Font8_Table:
 6520 0000 00000000 		.ascii	"\000\000\000\000\000\000\000\000    \000 \000\000PP"
 6520      00000000 
 6520      20202020 
 6520      00200000 
 6520      5050
 6521 0012 00000000 		.ascii	"\000\000\000\000\000\000(P\370P\370P\240\000 0`0\020"
 6521      00002850 
 6521      F850F850 
 6521      A0002030 
 6521      603010
 6522 0025 60200020 		.ascii	"` \000  \030`\020\020\000\000\0008 `Px\000\000   \000"
 6522      20186010 
 6522      10000000 
 6522      38206050 
 6522      78000020 
 6523 003c 00000000 		.ascii	"\000\000\000\000\020     \020\000@     @\000 p P\000"
 6523      10202020 
 6523      20201000 
 6523      40202020 
 6523      20204000 
 6524 0055 00000000 		.ascii	"\000\000\000\000  \370  \000\000\000\000\000\000\020"
 6524      2020F820 
 6524      20000000 
 6524      00000010 
 6525 0065 20200000 		.ascii	"  \000\000\000\000p\000\000\000\000\000\000\000\000"
 6525      00007000 
 6525      00000000 
 6525      000000
 6526 0074 00200000 		.ascii	"\000 \000\000\020   @@\200\000 PPPP \000\000`    \370"
 6526      10202020 
 6526      40408000 
 6526      20505050 
 6526      50200000 
 6527 008e 00002050 		.ascii	"\000\000 P  @p\000\000 P\020 \020`\000\000\0200Px\020"
 6527      20204070 
 6527      00002050 
 6527      10201060 
 6527      00001030 
 6528 00a5 38000070 		.ascii	"8\000\000p@`\020P \000\0000@`PP`\000\000pP\020   \000"
 6528      40601050 
 6528      20000030 
 6528      40605050 
 6528      60000070 
 6529 00bf 00205020 		.ascii	"\000 P PP \000\0000PP0\020`\000\000\000\000 \000\000"
 6529      50502000 
 6529      00305050 
 6529      30106000 
 6529      00000020 
 6530 00d5 20000000 		.ascii	" \000\000\000\000\020\000\020 \000\000\000\020 \300"
 6530      00100010 
 6530      20000000 
 6530      1020C0
 6531 00e4 20100000 		.ascii	" \020\000\000\000p\000p\000\000\000\000\000@ \030 @"
ARM GAS  C:\Users\jisu8\AppData\Local\Temp\ccieva3z.s 			page 222


 6531      00700070 
 6531      00000000 
 6531      00402018 
 6531      2040
 6532 00f6 00002050 		.ascii	"\000\000 P\020 \000 \000\0000HHXH@8\000` Pp\210\330"
 6532      10200020 
 6532      00003048 
 6532      48584840 
 6532      38006020 
 6533 010e 0000F048 		.ascii	"\000\000\360HpHH\360\000\000pP@@@0\000\000\360HHHH\360"
 6533      704848F0 
 6533      00007050 
 6533      40404030 
 6533      0000F048 
 6534 0126 0000F848 		.ascii	"\000\000\370H`@H\370\000\000\370H`@@\340\000\000p@@"
 6534      604048F8 
 6534      0000F848 
 6534      604040E0 
 6534      00007040 
 6535 013b 58503000 		.ascii	"XP0\000\000\350HxHH\350\000\000p    p\000\0008\020\020"
 6535      00E84878 
 6535      4848E800 
 6535      00702020 
 6535      20207000 
 6536 0153 50502000 		.ascii	"PP \000\000\330P`pP\330\000\000\340@@@H\370\000\000"
 6536      00D85060 
 6536      7050D800 
 6536      00E04040 
 6536      4048F800 
 6537 0168 D8D8D8A8 		.ascii	"\330\330\330\250\210\330\000\000\330hhXX\350\000\000"
 6537      88D80000 
 6537      D8686858 
 6537      58E80000 
 6538 0178 30484848 		.ascii	"0HHHH0\000\000\360HHp@\340\000\0000HHHH0\030\000\360"
 6538      48300000 
 6538      F0484870 
 6538      40E00000 
 6538      30484848 
 6539 0191 48487048 		.ascii	"HHpH\350\000\000pP \020Pp\000\000\370\250   p\000\000"
 6539      E8000070 
 6539      50201050 
 6539      700000F8 
 6539      A8202020 
 6540 01a8 D8484848 		.ascii	"\330HHHH0\000\000\330\210HPP0\000\000\330\210\250\250"
 6540      48300000 
 6540      D8884850 
 6540      50300000 
 6540      D888A8A8 
 6541 01bc A8500000 		.ascii	"\250P\000\000\330P  P\330\000\000\330\210P  p\000\000"
 6541      D8502020 
 6541      50D80000 
 6541      D8885020 
 6541      20700000 
 6542 01d0 78481020 		.ascii	"xH\020 Hx\000\0000     0\000\200@@   \020\000`     "
 6542      48780000 
 6542      30202020 
 6542      20203000 
ARM GAS  C:\Users\jisu8\AppData\Local\Temp\ccieva3z.s 			page 223


 6542      80404020 
 6543 01ee 60002020 		.ascii	"`\000  P\000\000\000\000\000\000\000\000\000\000\000"
 6543      50000000 
 6543      00000000 
 6543      00000000 
 6544 01fe 00F82010 		.ascii	"\000\370 \020\000\000\000\000\000\000\000\0000\020p"
 6544      00000000 
 6544      00000000 
 6544      301070
 6545 020d 780000C0 		.ascii	"x\000\000\300@pHH\360\000\000\000\000p@@p\000\000\030"
 6545      40704848 
 6545      F0000000 
 6545      00704040 
 6545      70000018 
 6546 0221 08384848 		.ascii	"\0108HH8\000\000\000\000pp@0\000\000\020 p  p\000\000"
 6546      38000000 
 6546      00707040 
 6546      30000010 
 6546      20702020 
 6547 0238 00003848 		.ascii	"\000\0008HH8\0100\300@pHH\350\000\000 \000`  p\000\000"
 6547      48380830 
 6547      C0407048 
 6547      48E80000 
 6547      20006020 
 6548 0250 20007010 		.ascii	" \000p\020\020\020\020p\300@XpP\330\000\000`    p\000"
 6548      10101070 
 6548      C0405870 
 6548      50D80000 
 6548      60202020 
 6549 0267 000000D0 		.ascii	"\000\000\000\320\250\250\250\000\000\000\000\360HH\310"
 6549      A8A8A800 
 6549      000000F0 
 6549      4848C8
 6550 0276 00000000 		.ascii	"\000\000\000\0000HH0\000\000\000\000\360HHp@\340\000"
 6550      30484830 
 6550      00000000 
 6550      F0484870 
 6550      40E000
 6551 0289 00384848 		.ascii	"\0008HH8\010\030\000\000x  p\000\000\000\0000 \020`"
 6551      38081800 
 6551      00782020 
 6551      70000000 
 6551      00302010 
 6552 029e 00000040 		.ascii	"\000\000\000@\360@H0\000\000\000\000\330HH8\000\000"
 6552      F0404830 
 6552      00000000 
 6552      D8484838 
 6552      0000
 6553 02b0 0000C848 		.ascii	"\000\000\310H00\000\000\000\000\330\250\250P\000\000"
 6553      30300000 
 6553      0000D8A8 
 6553      A8500000 
 6554 02c0 00004830 		.ascii	"\000\000H00H\000\000\000\000\330PP  `\000\000xP(x\000"
 6554      30480000 
 6554      0000D850 
 6554      50202060 
 6554      00007850 
ARM GAS  C:\Users\jisu8\AppData\Local\Temp\ccieva3z.s 			page 224


 6555 02d7 00102020 		.ascii	"\000\020  `  \020\000       \000@  0  @\000\000\000"
 6555      60202010 
 6555      00202020 
 6555      20202020 
 6555      00402020 
 6556 02f2 00285000 		.ascii	"\000(P\000\000\000"
 6556      0000
 6557              		.text
 6558              	.Letext0:
 6559              		.file 2 "d:\\3.tools\\arm_gcc_toolchain\\arm-none-eabi\\include\\machine\\_default_types.h"
 6560              		.file 3 "d:\\3.tools\\arm_gcc_toolchain\\arm-none-eabi\\include\\sys\\_stdint.h"
 6561              		.file 4 "Drivers/CMSIS/Device/ST/STM32F7xx/Include/stm32f746xx.h"
 6562              		.file 5 "Drivers/CMSIS/Device/ST/STM32F7xx/Include/stm32f7xx.h"
 6563              		.file 6 "Drivers/STM32F7xx_HAL_Driver/Inc/stm32f7xx_hal_def.h"
 6564              		.file 7 "Drivers/STM32F7xx_HAL_Driver/Inc/stm32f7xx_hal_rcc_ex.h"
 6565              		.file 8 "Drivers/STM32F7xx_HAL_Driver/Inc/stm32f7xx_hal_gpio.h"
 6566              		.file 9 "Drivers/STM32F7xx_HAL_Driver/Inc/stm32f7xx_hal_dma2d.h"
 6567              		.file 10 "Drivers/STM32F7xx_HAL_Driver/Inc/stm32f7xx_hal_ltdc.h"
 6568              		.file 11 "Drivers/STM32F7xx_HAL_Driver/Inc/../../../Utilities/Fonts/fonts.h"
 6569              		.file 12 "Core/Inc/stm32746g_discovery_lcd.h"
 6570              		.file 13 "Drivers/STM32F7xx_HAL_Driver/Inc/../../../Utilities/Fonts/font24.c"
 6571              		.file 14 "Drivers/STM32F7xx_HAL_Driver/Inc/../../../Utilities/Fonts/font20.c"
 6572              		.file 15 "Drivers/STM32F7xx_HAL_Driver/Inc/../../../Utilities/Fonts/font16.c"
 6573              		.file 16 "Drivers/STM32F7xx_HAL_Driver/Inc/../../../Utilities/Fonts/font12.c"
 6574              		.file 17 "Drivers/STM32F7xx_HAL_Driver/Inc/../../../Utilities/Fonts/font8.c"
ARM GAS  C:\Users\jisu8\AppData\Local\Temp\ccieva3z.s 			page 225


DEFINED SYMBOLS
                            *ABS*:00000000 stm32746g_discovery_lcd.c
C:\Users\jisu8\AppData\Local\Temp\ccieva3z.s:20     .text.LL_FillBuffer:00000000 $t
C:\Users\jisu8\AppData\Local\Temp\ccieva3z.s:25     .text.LL_FillBuffer:00000000 LL_FillBuffer
C:\Users\jisu8\AppData\Local\Temp\ccieva3z.s:144    .text.LL_FillBuffer:0000007c $d
C:\Users\jisu8\AppData\Local\Temp\ccieva3z.s:152    .text.LL_ConvertLineToARGB8888:00000000 $t
C:\Users\jisu8\AppData\Local\Temp\ccieva3z.s:157    .text.LL_ConvertLineToARGB8888:00000000 LL_ConvertLineToARGB8888
C:\Users\jisu8\AppData\Local\Temp\ccieva3z.s:264    .text.LL_ConvertLineToARGB8888:0000005c $d
C:\Users\jisu8\AppData\Local\Temp\ccieva3z.s:270    .text.BSP_LCD_GetXSize:00000000 $t
C:\Users\jisu8\AppData\Local\Temp\ccieva3z.s:276    .text.BSP_LCD_GetXSize:00000000 BSP_LCD_GetXSize
C:\Users\jisu8\AppData\Local\Temp\ccieva3z.s:296    .text.BSP_LCD_GetXSize:00000010 $d
C:\Users\jisu8\AppData\Local\Temp\ccieva3z.s:302    .text.BSP_LCD_GetYSize:00000000 $t
C:\Users\jisu8\AppData\Local\Temp\ccieva3z.s:308    .text.BSP_LCD_GetYSize:00000000 BSP_LCD_GetYSize
C:\Users\jisu8\AppData\Local\Temp\ccieva3z.s:328    .text.BSP_LCD_GetYSize:00000010 $d
C:\Users\jisu8\AppData\Local\Temp\ccieva3z.s:334    .text.BSP_LCD_SetXSize:00000000 $t
C:\Users\jisu8\AppData\Local\Temp\ccieva3z.s:340    .text.BSP_LCD_SetXSize:00000000 BSP_LCD_SetXSize
C:\Users\jisu8\AppData\Local\Temp\ccieva3z.s:362    .text.BSP_LCD_SetXSize:00000010 $d
C:\Users\jisu8\AppData\Local\Temp\ccieva3z.s:368    .text.BSP_LCD_SetYSize:00000000 $t
C:\Users\jisu8\AppData\Local\Temp\ccieva3z.s:374    .text.BSP_LCD_SetYSize:00000000 BSP_LCD_SetYSize
C:\Users\jisu8\AppData\Local\Temp\ccieva3z.s:396    .text.BSP_LCD_SetYSize:00000010 $d
C:\Users\jisu8\AppData\Local\Temp\ccieva3z.s:402    .text.BSP_LCD_LayerDefaultInit:00000000 $t
C:\Users\jisu8\AppData\Local\Temp\ccieva3z.s:408    .text.BSP_LCD_LayerDefaultInit:00000000 BSP_LCD_LayerDefaultInit
C:\Users\jisu8\AppData\Local\Temp\ccieva3z.s:523    .text.BSP_LCD_LayerDefaultInit:00000074 $d
C:\Users\jisu8\AppData\Local\Temp\ccieva3z.s:530    .text.BSP_LCD_LayerRgb565Init:00000000 $t
C:\Users\jisu8\AppData\Local\Temp\ccieva3z.s:536    .text.BSP_LCD_LayerRgb565Init:00000000 BSP_LCD_LayerRgb565Init
C:\Users\jisu8\AppData\Local\Temp\ccieva3z.s:652    .text.BSP_LCD_LayerRgb565Init:00000078 $d
C:\Users\jisu8\AppData\Local\Temp\ccieva3z.s:659    .text.BSP_LCD_SelectLayer:00000000 $t
C:\Users\jisu8\AppData\Local\Temp\ccieva3z.s:665    .text.BSP_LCD_SelectLayer:00000000 BSP_LCD_SelectLayer
C:\Users\jisu8\AppData\Local\Temp\ccieva3z.s:682    .text.BSP_LCD_SelectLayer:00000008 $d
C:\Users\jisu8\AppData\Local\Temp\ccieva3z.s:687    .text.BSP_LCD_SetLayerVisible:00000000 $t
C:\Users\jisu8\AppData\Local\Temp\ccieva3z.s:693    .text.BSP_LCD_SetLayerVisible:00000000 BSP_LCD_SetLayerVisible
C:\Users\jisu8\AppData\Local\Temp\ccieva3z.s:738    .text.BSP_LCD_SetLayerVisible:0000003c $d
C:\Users\jisu8\AppData\Local\Temp\ccieva3z.s:743    .text.BSP_LCD_SetLayerVisible_NoReload:00000000 $t
C:\Users\jisu8\AppData\Local\Temp\ccieva3z.s:749    .text.BSP_LCD_SetLayerVisible_NoReload:00000000 BSP_LCD_SetLayerVisible_NoReload
C:\Users\jisu8\AppData\Local\Temp\ccieva3z.s:787    .text.BSP_LCD_SetLayerVisible_NoReload:00000030 $d
C:\Users\jisu8\AppData\Local\Temp\ccieva3z.s:792    .text.BSP_LCD_SetTransparency:00000000 $t
C:\Users\jisu8\AppData\Local\Temp\ccieva3z.s:798    .text.BSP_LCD_SetTransparency:00000000 BSP_LCD_SetTransparency
C:\Users\jisu8\AppData\Local\Temp\ccieva3z.s:823    .text.BSP_LCD_SetTransparency:0000000c $d
C:\Users\jisu8\AppData\Local\Temp\ccieva3z.s:828    .text.BSP_LCD_SetTransparency_NoReload:00000000 $t
C:\Users\jisu8\AppData\Local\Temp\ccieva3z.s:834    .text.BSP_LCD_SetTransparency_NoReload:00000000 BSP_LCD_SetTransparency_NoReload
C:\Users\jisu8\AppData\Local\Temp\ccieva3z.s:859    .text.BSP_LCD_SetTransparency_NoReload:0000000c $d
C:\Users\jisu8\AppData\Local\Temp\ccieva3z.s:864    .text.BSP_LCD_SetLayerAddress:00000000 $t
C:\Users\jisu8\AppData\Local\Temp\ccieva3z.s:870    .text.BSP_LCD_SetLayerAddress:00000000 BSP_LCD_SetLayerAddress
C:\Users\jisu8\AppData\Local\Temp\ccieva3z.s:895    .text.BSP_LCD_SetLayerAddress:0000000c $d
C:\Users\jisu8\AppData\Local\Temp\ccieva3z.s:900    .text.BSP_LCD_SetLayerAddress_NoReload:00000000 $t
C:\Users\jisu8\AppData\Local\Temp\ccieva3z.s:906    .text.BSP_LCD_SetLayerAddress_NoReload:00000000 BSP_LCD_SetLayerAddress_NoReload
C:\Users\jisu8\AppData\Local\Temp\ccieva3z.s:931    .text.BSP_LCD_SetLayerAddress_NoReload:0000000c $d
C:\Users\jisu8\AppData\Local\Temp\ccieva3z.s:936    .text.BSP_LCD_SetLayerWindow:00000000 $t
C:\Users\jisu8\AppData\Local\Temp\ccieva3z.s:942    .text.BSP_LCD_SetLayerWindow:00000000 BSP_LCD_SetLayerWindow
C:\Users\jisu8\AppData\Local\Temp\ccieva3z.s:991    .text.BSP_LCD_SetLayerWindow:00000028 $d
C:\Users\jisu8\AppData\Local\Temp\ccieva3z.s:996    .text.BSP_LCD_SetLayerWindow_NoReload:00000000 $t
C:\Users\jisu8\AppData\Local\Temp\ccieva3z.s:1002   .text.BSP_LCD_SetLayerWindow_NoReload:00000000 BSP_LCD_SetLayerWindow_NoReload
C:\Users\jisu8\AppData\Local\Temp\ccieva3z.s:1051   .text.BSP_LCD_SetLayerWindow_NoReload:00000028 $d
C:\Users\jisu8\AppData\Local\Temp\ccieva3z.s:1056   .text.BSP_LCD_SetColorKeying:00000000 $t
C:\Users\jisu8\AppData\Local\Temp\ccieva3z.s:1062   .text.BSP_LCD_SetColorKeying:00000000 BSP_LCD_SetColorKeying
C:\Users\jisu8\AppData\Local\Temp\ccieva3z.s:1098   .text.BSP_LCD_SetColorKeying:00000018 $d
C:\Users\jisu8\AppData\Local\Temp\ccieva3z.s:1103   .text.BSP_LCD_SetColorKeying_NoReload:00000000 $t
ARM GAS  C:\Users\jisu8\AppData\Local\Temp\ccieva3z.s 			page 226


C:\Users\jisu8\AppData\Local\Temp\ccieva3z.s:1109   .text.BSP_LCD_SetColorKeying_NoReload:00000000 BSP_LCD_SetColorKeying_NoReload
C:\Users\jisu8\AppData\Local\Temp\ccieva3z.s:1145   .text.BSP_LCD_SetColorKeying_NoReload:00000018 $d
C:\Users\jisu8\AppData\Local\Temp\ccieva3z.s:1150   .text.BSP_LCD_ResetColorKeying:00000000 $t
C:\Users\jisu8\AppData\Local\Temp\ccieva3z.s:1156   .text.BSP_LCD_ResetColorKeying:00000000 BSP_LCD_ResetColorKeying
C:\Users\jisu8\AppData\Local\Temp\ccieva3z.s:1181   .text.BSP_LCD_ResetColorKeying:0000000c $d
C:\Users\jisu8\AppData\Local\Temp\ccieva3z.s:1186   .text.BSP_LCD_ResetColorKeying_NoReload:00000000 $t
C:\Users\jisu8\AppData\Local\Temp\ccieva3z.s:1192   .text.BSP_LCD_ResetColorKeying_NoReload:00000000 BSP_LCD_ResetColorKeying_NoReload
C:\Users\jisu8\AppData\Local\Temp\ccieva3z.s:1217   .text.BSP_LCD_ResetColorKeying_NoReload:0000000c $d
C:\Users\jisu8\AppData\Local\Temp\ccieva3z.s:1222   .text.BSP_LCD_Reload:00000000 $t
C:\Users\jisu8\AppData\Local\Temp\ccieva3z.s:1228   .text.BSP_LCD_Reload:00000000 BSP_LCD_Reload
C:\Users\jisu8\AppData\Local\Temp\ccieva3z.s:1253   .text.BSP_LCD_Reload:0000000c $d
C:\Users\jisu8\AppData\Local\Temp\ccieva3z.s:1258   .text.BSP_LCD_SetTextColor:00000000 $t
C:\Users\jisu8\AppData\Local\Temp\ccieva3z.s:1264   .text.BSP_LCD_SetTextColor:00000000 BSP_LCD_SetTextColor
C:\Users\jisu8\AppData\Local\Temp\ccieva3z.s:1285   .text.BSP_LCD_SetTextColor:00000010 $d
C:\Users\jisu8\AppData\Local\Temp\ccieva3z.s:1291   .text.BSP_LCD_GetTextColor:00000000 $t
C:\Users\jisu8\AppData\Local\Temp\ccieva3z.s:1297   .text.BSP_LCD_GetTextColor:00000000 BSP_LCD_GetTextColor
C:\Users\jisu8\AppData\Local\Temp\ccieva3z.s:1317   .text.BSP_LCD_GetTextColor:00000010 $d
C:\Users\jisu8\AppData\Local\Temp\ccieva3z.s:1323   .text.BSP_LCD_SetBackColor:00000000 $t
C:\Users\jisu8\AppData\Local\Temp\ccieva3z.s:1329   .text.BSP_LCD_SetBackColor:00000000 BSP_LCD_SetBackColor
C:\Users\jisu8\AppData\Local\Temp\ccieva3z.s:1351   .text.BSP_LCD_SetBackColor:00000014 $d
C:\Users\jisu8\AppData\Local\Temp\ccieva3z.s:1357   .text.BSP_LCD_GetBackColor:00000000 $t
C:\Users\jisu8\AppData\Local\Temp\ccieva3z.s:1363   .text.BSP_LCD_GetBackColor:00000000 BSP_LCD_GetBackColor
C:\Users\jisu8\AppData\Local\Temp\ccieva3z.s:1384   .text.BSP_LCD_GetBackColor:00000014 $d
C:\Users\jisu8\AppData\Local\Temp\ccieva3z.s:1390   .text.BSP_LCD_SetFont:00000000 $t
C:\Users\jisu8\AppData\Local\Temp\ccieva3z.s:1396   .text.BSP_LCD_SetFont:00000000 BSP_LCD_SetFont
C:\Users\jisu8\AppData\Local\Temp\ccieva3z.s:1418   .text.BSP_LCD_SetFont:00000014 $d
C:\Users\jisu8\AppData\Local\Temp\ccieva3z.s:1424   .text.BSP_LCD_GetFont:00000000 $t
C:\Users\jisu8\AppData\Local\Temp\ccieva3z.s:1430   .text.BSP_LCD_GetFont:00000000 BSP_LCD_GetFont
C:\Users\jisu8\AppData\Local\Temp\ccieva3z.s:1451   .text.BSP_LCD_GetFont:00000014 $d
C:\Users\jisu8\AppData\Local\Temp\ccieva3z.s:1457   .text.BSP_LCD_ReadPixel:00000000 $t
C:\Users\jisu8\AppData\Local\Temp\ccieva3z.s:1463   .text.BSP_LCD_ReadPixel:00000000 BSP_LCD_ReadPixel
C:\Users\jisu8\AppData\Local\Temp\ccieva3z.s:1585   .text.BSP_LCD_ReadPixel:0000008c $d
C:\Users\jisu8\AppData\Local\Temp\ccieva3z.s:1591   .text.BSP_LCD_Clear:00000000 $t
C:\Users\jisu8\AppData\Local\Temp\ccieva3z.s:1597   .text.BSP_LCD_Clear:00000000 BSP_LCD_Clear
C:\Users\jisu8\AppData\Local\Temp\ccieva3z.s:1652   .text.BSP_LCD_Clear:00000034 $d
C:\Users\jisu8\AppData\Local\Temp\ccieva3z.s:1658   .text.BSP_LCD_DrawHLine:00000000 $t
C:\Users\jisu8\AppData\Local\Temp\ccieva3z.s:1664   .text.BSP_LCD_DrawHLine:00000000 BSP_LCD_DrawHLine
C:\Users\jisu8\AppData\Local\Temp\ccieva3z.s:1758   .text.BSP_LCD_DrawHLine:0000006c $d
C:\Users\jisu8\AppData\Local\Temp\ccieva3z.s:1765   .text.BSP_LCD_DrawVLine:00000000 $t
C:\Users\jisu8\AppData\Local\Temp\ccieva3z.s:1771   .text.BSP_LCD_DrawVLine:00000000 BSP_LCD_DrawVLine
C:\Users\jisu8\AppData\Local\Temp\ccieva3z.s:1870   .text.BSP_LCD_DrawVLine:00000070 $d
C:\Users\jisu8\AppData\Local\Temp\ccieva3z.s:1877   .text.BSP_LCD_DrawRect:00000000 $t
C:\Users\jisu8\AppData\Local\Temp\ccieva3z.s:1883   .text.BSP_LCD_DrawRect:00000000 BSP_LCD_DrawRect
C:\Users\jisu8\AppData\Local\Temp\ccieva3z.s:1933   .text.BSP_LCD_DrawPixel:00000000 $t
C:\Users\jisu8\AppData\Local\Temp\ccieva3z.s:1939   .text.BSP_LCD_DrawPixel:00000000 BSP_LCD_DrawPixel
C:\Users\jisu8\AppData\Local\Temp\ccieva3z.s:2012   .text.BSP_LCD_DrawPixel:0000004c $d
C:\Users\jisu8\AppData\Local\Temp\ccieva3z.s:2018   .text.DrawChar:00000000 $t
C:\Users\jisu8\AppData\Local\Temp\ccieva3z.s:2023   .text.DrawChar:00000000 DrawChar
C:\Users\jisu8\AppData\Local\Temp\ccieva3z.s:2230   .text.DrawChar:000000e0 $d
C:\Users\jisu8\AppData\Local\Temp\ccieva3z.s:2236   .text.BSP_LCD_DisplayChar:00000000 $t
C:\Users\jisu8\AppData\Local\Temp\ccieva3z.s:2242   .text.BSP_LCD_DisplayChar:00000000 BSP_LCD_DisplayChar
C:\Users\jisu8\AppData\Local\Temp\ccieva3z.s:2288   .text.BSP_LCD_DisplayChar:00000030 $d
C:\Users\jisu8\AppData\Local\Temp\ccieva3z.s:2294   .text.BSP_LCD_DisplayStringAt:00000000 $t
C:\Users\jisu8\AppData\Local\Temp\ccieva3z.s:2300   .text.BSP_LCD_DisplayStringAt:00000000 BSP_LCD_DisplayStringAt
C:\Users\jisu8\AppData\Local\Temp\ccieva3z.s:2490   .text.BSP_LCD_DisplayStringAt:000000cc $d
C:\Users\jisu8\AppData\Local\Temp\ccieva3z.s:2496   .text.BSP_LCD_DisplayStringAtLine:00000000 $t
C:\Users\jisu8\AppData\Local\Temp\ccieva3z.s:2502   .text.BSP_LCD_DisplayStringAtLine:00000000 BSP_LCD_DisplayStringAtLine
ARM GAS  C:\Users\jisu8\AppData\Local\Temp\ccieva3z.s 			page 227


C:\Users\jisu8\AppData\Local\Temp\ccieva3z.s:2540   .text.BSP_LCD_DrawLine:00000000 $t
C:\Users\jisu8\AppData\Local\Temp\ccieva3z.s:2546   .text.BSP_LCD_DrawLine:00000000 BSP_LCD_DrawLine
C:\Users\jisu8\AppData\Local\Temp\ccieva3z.s:2805   .text.BSP_LCD_DrawLine:000000f4 $d
C:\Users\jisu8\AppData\Local\Temp\ccieva3z.s:2811   .text.BSP_LCD_DrawPolygon:00000000 $t
C:\Users\jisu8\AppData\Local\Temp\ccieva3z.s:2817   .text.BSP_LCD_DrawPolygon:00000000 BSP_LCD_DrawPolygon
C:\Users\jisu8\AppData\Local\Temp\ccieva3z.s:2916   .text.FillTriangle:00000000 $t
C:\Users\jisu8\AppData\Local\Temp\ccieva3z.s:2921   .text.FillTriangle:00000000 FillTriangle
C:\Users\jisu8\AppData\Local\Temp\ccieva3z.s:3183   .text.BSP_LCD_DrawCircle:00000000 $t
C:\Users\jisu8\AppData\Local\Temp\ccieva3z.s:3189   .text.BSP_LCD_DrawCircle:00000000 BSP_LCD_DrawCircle
C:\Users\jisu8\AppData\Local\Temp\ccieva3z.s:3375   .text.BSP_LCD_DrawCircle:00000120 $d
C:\Users\jisu8\AppData\Local\Temp\ccieva3z.s:3381   .text.BSP_LCD_DrawEllipse:00000000 $t
C:\Users\jisu8\AppData\Local\Temp\ccieva3z.s:3387   .text.BSP_LCD_DrawEllipse:00000000 BSP_LCD_DrawEllipse
C:\Users\jisu8\AppData\Local\Temp\ccieva3z.s:3594   .text.BSP_LCD_DrawEllipse:0000010c $d
C:\Users\jisu8\AppData\Local\Temp\ccieva3z.s:3600   .text.BSP_LCD_DrawBitmap:00000000 $t
C:\Users\jisu8\AppData\Local\Temp\ccieva3z.s:3606   .text.BSP_LCD_DrawBitmap:00000000 BSP_LCD_DrawBitmap
C:\Users\jisu8\AppData\Local\Temp\ccieva3z.s:3791   .text.BSP_LCD_DrawBitmap:000000c4 $d
C:\Users\jisu8\AppData\Local\Temp\ccieva3z.s:3797   .text.BSP_LCD_FillRect:00000000 $t
C:\Users\jisu8\AppData\Local\Temp\ccieva3z.s:3803   .text.BSP_LCD_FillRect:00000000 BSP_LCD_FillRect
C:\Users\jisu8\AppData\Local\Temp\ccieva3z.s:3915   .text.BSP_LCD_FillRect:00000088 $d
C:\Users\jisu8\AppData\Local\Temp\ccieva3z.s:3922   .text.BSP_LCD_ClearStringLine:00000000 $t
C:\Users\jisu8\AppData\Local\Temp\ccieva3z.s:3928   .text.BSP_LCD_ClearStringLine:00000000 BSP_LCD_ClearStringLine
C:\Users\jisu8\AppData\Local\Temp\ccieva3z.s:3998   .text.BSP_LCD_ClearStringLine:00000054 $d
C:\Users\jisu8\AppData\Local\Temp\ccieva3z.s:4004   .text.BSP_LCD_FillCircle:00000000 $t
C:\Users\jisu8\AppData\Local\Temp\ccieva3z.s:4010   .text.BSP_LCD_FillCircle:00000000 BSP_LCD_FillCircle
C:\Users\jisu8\AppData\Local\Temp\ccieva3z.s:4182   .text.BSP_LCD_FillCircle:000000d0 $d
C:\Users\jisu8\AppData\Local\Temp\ccieva3z.s:4188   .text.BSP_LCD_FillPolygon:00000000 $t
C:\Users\jisu8\AppData\Local\Temp\ccieva3z.s:4194   .text.BSP_LCD_FillPolygon:00000000 BSP_LCD_FillPolygon
C:\Users\jisu8\AppData\Local\Temp\ccieva3z.s:4465   .text.BSP_LCD_FillEllipse:00000000 $t
C:\Users\jisu8\AppData\Local\Temp\ccieva3z.s:4471   .text.BSP_LCD_FillEllipse:00000000 BSP_LCD_FillEllipse
C:\Users\jisu8\AppData\Local\Temp\ccieva3z.s:4644   .text.BSP_LCD_DisplayOn:00000000 $t
C:\Users\jisu8\AppData\Local\Temp\ccieva3z.s:4650   .text.BSP_LCD_DisplayOn:00000000 BSP_LCD_DisplayOn
C:\Users\jisu8\AppData\Local\Temp\ccieva3z.s:4684   .text.BSP_LCD_DisplayOn:00000028 $d
C:\Users\jisu8\AppData\Local\Temp\ccieva3z.s:4691   .text.BSP_LCD_DisplayOff:00000000 $t
C:\Users\jisu8\AppData\Local\Temp\ccieva3z.s:4697   .text.BSP_LCD_DisplayOff:00000000 BSP_LCD_DisplayOff
C:\Users\jisu8\AppData\Local\Temp\ccieva3z.s:4731   .text.BSP_LCD_DisplayOff:00000028 $d
C:\Users\jisu8\AppData\Local\Temp\ccieva3z.s:4738   .text.BSP_LCD_MspInit:00000000 $t
C:\Users\jisu8\AppData\Local\Temp\ccieva3z.s:4744   .text.BSP_LCD_MspInit:00000000 BSP_LCD_MspInit
C:\Users\jisu8\AppData\Local\Temp\ccieva3z.s:5024   .text.BSP_LCD_MspInit:00000130 $d
C:\Users\jisu8\AppData\Local\Temp\ccieva3z.s:5034   .text.BSP_LCD_MspDeInit:00000000 $t
C:\Users\jisu8\AppData\Local\Temp\ccieva3z.s:5040   .text.BSP_LCD_MspDeInit:00000000 BSP_LCD_MspDeInit
C:\Users\jisu8\AppData\Local\Temp\ccieva3z.s:5119   .text.BSP_LCD_MspDeInit:00000058 $d
C:\Users\jisu8\AppData\Local\Temp\ccieva3z.s:5129   .text.BSP_LCD_DeInit:00000000 $t
C:\Users\jisu8\AppData\Local\Temp\ccieva3z.s:5135   .text.BSP_LCD_DeInit:00000000 BSP_LCD_DeInit
C:\Users\jisu8\AppData\Local\Temp\ccieva3z.s:5171   .text.BSP_LCD_DeInit:00000024 $d
C:\Users\jisu8\AppData\Local\Temp\ccieva3z.s:5177   .text.BSP_LCD_ClockConfig:00000000 $t
C:\Users\jisu8\AppData\Local\Temp\ccieva3z.s:5183   .text.BSP_LCD_ClockConfig:00000000 BSP_LCD_ClockConfig
C:\Users\jisu8\AppData\Local\Temp\ccieva3z.s:5224   .text.BSP_LCD_ClockConfig:0000001c $d
C:\Users\jisu8\AppData\Local\Temp\ccieva3z.s:5229   .text.BSP_LCD_Init:00000000 $t
C:\Users\jisu8\AppData\Local\Temp\ccieva3z.s:5235   .text.BSP_LCD_Init:00000000 BSP_LCD_Init
C:\Users\jisu8\AppData\Local\Temp\ccieva3z.s:5363   .text.BSP_LCD_Init:00000098 $d
C:\Users\jisu8\AppData\Local\Temp\ccieva3z.s:5408   .bss.hLtdcHandler:00000000 hLtdcHandler
C:\Users\jisu8\AppData\Local\Temp\ccieva3z.s:5454   .data.Font8:00000000 Font8
C:\Users\jisu8\AppData\Local\Temp\ccieva3z.s:6519   .rodata.Font8_Table:00000000 Font8_Table
C:\Users\jisu8\AppData\Local\Temp\ccieva3z.s:5421   .data.Font12:00000000 Font12
C:\Users\jisu8\AppData\Local\Temp\ccieva3z.s:5462   .rodata.Font12_Table:00000000 Font12_Table
C:\Users\jisu8\AppData\Local\Temp\ccieva3z.s:5429   .data.Font16:00000000 Font16
C:\Users\jisu8\AppData\Local\Temp\ccieva3z.s:5530   .rodata.Font16_Table:00000000 Font16_Table
ARM GAS  C:\Users\jisu8\AppData\Local\Temp\ccieva3z.s 			page 228


C:\Users\jisu8\AppData\Local\Temp\ccieva3z.s:5437   .data.Font20:00000000 Font20
C:\Users\jisu8\AppData\Local\Temp\ccieva3z.s:5747   .rodata.Font20_Table:00000000 Font20_Table
C:\Users\jisu8\AppData\Local\Temp\ccieva3z.s:5446   .data.Font24:00000000 Font24
C:\Users\jisu8\AppData\Local\Temp\ccieva3z.s:6014   .rodata.Font24_Table:00000000 Font24_Table
C:\Users\jisu8\AppData\Local\Temp\ccieva3z.s:5383   .bss.ActiveLayer:00000000 $d
C:\Users\jisu8\AppData\Local\Temp\ccieva3z.s:5387   .bss.ActiveLayer:00000000 ActiveLayer
C:\Users\jisu8\AppData\Local\Temp\ccieva3z.s:5390   .bss.DrawProp:00000000 $d
C:\Users\jisu8\AppData\Local\Temp\ccieva3z.s:5394   .bss.DrawProp:00000000 DrawProp
C:\Users\jisu8\AppData\Local\Temp\ccieva3z.s:5397   .bss.hDma2dHandler:00000000 $d
C:\Users\jisu8\AppData\Local\Temp\ccieva3z.s:5401   .bss.hDma2dHandler:00000000 hDma2dHandler
C:\Users\jisu8\AppData\Local\Temp\ccieva3z.s:5404   .bss.hLtdcHandler:00000000 $d
C:\Users\jisu8\AppData\Local\Temp\ccieva3z.s:5411   .bss.periph_clk_init_struct.0:00000000 $d
C:\Users\jisu8\AppData\Local\Temp\ccieva3z.s:5415   .bss.periph_clk_init_struct.0:00000000 periph_clk_init_struct.0
C:\Users\jisu8\AppData\Local\Temp\ccieva3z.s:5418   .data.Font12:00000000 $d
C:\Users\jisu8\AppData\Local\Temp\ccieva3z.s:5426   .data.Font16:00000000 $d
C:\Users\jisu8\AppData\Local\Temp\ccieva3z.s:5434   .data.Font20:00000000 $d
C:\Users\jisu8\AppData\Local\Temp\ccieva3z.s:5442   .data.Font24:00000000 $d
C:\Users\jisu8\AppData\Local\Temp\ccieva3z.s:5451   .data.Font8:00000000 $d
C:\Users\jisu8\AppData\Local\Temp\ccieva3z.s:5459   .rodata.Font12_Table:00000000 $d
C:\Users\jisu8\AppData\Local\Temp\ccieva3z.s:5527   .rodata.Font16_Table:00000000 $d
C:\Users\jisu8\AppData\Local\Temp\ccieva3z.s:5744   .rodata.Font20_Table:00000000 $d
C:\Users\jisu8\AppData\Local\Temp\ccieva3z.s:6011   .rodata.Font24_Table:00000000 $d
C:\Users\jisu8\AppData\Local\Temp\ccieva3z.s:6516   .rodata.Font8_Table:00000000 $d

UNDEFINED SYMBOLS
HAL_DMA2D_Init
HAL_DMA2D_ConfigLayer
HAL_DMA2D_Start
HAL_DMA2D_PollForTransfer
HAL_LTDC_ConfigLayer
HAL_LTDC_SetAlpha
HAL_LTDC_SetAlpha_NoReload
HAL_LTDC_SetAddress
HAL_LTDC_SetAddress_NoReload
HAL_LTDC_SetWindowSize
HAL_LTDC_SetWindowPosition
HAL_LTDC_SetWindowSize_NoReload
HAL_LTDC_SetWindowPosition_NoReload
HAL_LTDC_ConfigColorKeying
HAL_LTDC_EnableColorKeying
HAL_LTDC_ConfigColorKeying_NoReload
HAL_LTDC_EnableColorKeying_NoReload
HAL_LTDC_DisableColorKeying
HAL_LTDC_DisableColorKeying_NoReload
HAL_LTDC_Reload
HAL_GPIO_WritePin
HAL_GPIO_Init
HAL_GPIO_DeInit
HAL_LTDC_DeInit
HAL_RCCEx_PeriphCLKConfig
HAL_LTDC_GetState
HAL_LTDC_Init
BSP_SDRAM_Init
