ARM GAS  C:\Users\jisu8\AppData\Local\Temp\ccKgGJL7.s 			page 1


   1              		.cpu cortex-m7
   2              		.arch armv7e-m
   3              		.fpu fpv5-sp-d16
   4              		.eabi_attribute 27, 1
   5              		.eabi_attribute 28, 1
   6              		.eabi_attribute 20, 1
   7              		.eabi_attribute 21, 1
   8              		.eabi_attribute 23, 3
   9              		.eabi_attribute 24, 1
  10              		.eabi_attribute 25, 1
  11              		.eabi_attribute 26, 1
  12              		.eabi_attribute 30, 6
  13              		.eabi_attribute 34, 1
  14              		.eabi_attribute 18, 4
  15              		.file	"stm32f7xx_hal_msp.c"
  16              		.text
  17              	.Ltext0:
  18              		.cfi_sections	.debug_frame
  19              		.section	.text.HAL_MspInit,"ax",%progbits
  20              		.align	1
  21              		.global	HAL_MspInit
  22              		.syntax unified
  23              		.thumb
  24              		.thumb_func
  26              	HAL_MspInit:
  27              	.LFB144:
  28              		.file 1 "Core/Src/stm32f7xx_hal_msp.c"
   1:Core/Src/stm32f7xx_hal_msp.c **** /* USER CODE BEGIN Header */
   2:Core/Src/stm32f7xx_hal_msp.c **** /**
   3:Core/Src/stm32f7xx_hal_msp.c ****   ******************************************************************************
   4:Core/Src/stm32f7xx_hal_msp.c ****   * @file         stm32f7xx_hal_msp.c
   5:Core/Src/stm32f7xx_hal_msp.c ****   * @brief        This file provides code for the MSP Initialization
   6:Core/Src/stm32f7xx_hal_msp.c ****   *               and de-Initialization codes.
   7:Core/Src/stm32f7xx_hal_msp.c ****   ******************************************************************************
   8:Core/Src/stm32f7xx_hal_msp.c ****   * @attention
   9:Core/Src/stm32f7xx_hal_msp.c ****   *
  10:Core/Src/stm32f7xx_hal_msp.c ****   * Copyright (c) 2023 STMicroelectronics.
  11:Core/Src/stm32f7xx_hal_msp.c ****   * All rights reserved.
  12:Core/Src/stm32f7xx_hal_msp.c ****   *
  13:Core/Src/stm32f7xx_hal_msp.c ****   * This software is licensed under terms that can be found in the LICENSE file
  14:Core/Src/stm32f7xx_hal_msp.c ****   * in the root directory of this software component.
  15:Core/Src/stm32f7xx_hal_msp.c ****   * If no LICENSE file comes with this software, it is provided AS-IS.
  16:Core/Src/stm32f7xx_hal_msp.c ****   *
  17:Core/Src/stm32f7xx_hal_msp.c ****   ******************************************************************************
  18:Core/Src/stm32f7xx_hal_msp.c ****   */
  19:Core/Src/stm32f7xx_hal_msp.c **** /* USER CODE END Header */
  20:Core/Src/stm32f7xx_hal_msp.c **** 
  21:Core/Src/stm32f7xx_hal_msp.c **** /* Includes ------------------------------------------------------------------*/
  22:Core/Src/stm32f7xx_hal_msp.c **** #include "main.h"
  23:Core/Src/stm32f7xx_hal_msp.c **** /* USER CODE BEGIN Includes */
  24:Core/Src/stm32f7xx_hal_msp.c **** 
  25:Core/Src/stm32f7xx_hal_msp.c **** /* USER CODE END Includes */
  26:Core/Src/stm32f7xx_hal_msp.c **** extern DMA_HandleTypeDef hdma_sdmmc1_rx;
  27:Core/Src/stm32f7xx_hal_msp.c **** 
  28:Core/Src/stm32f7xx_hal_msp.c **** extern DMA_HandleTypeDef hdma_sdmmc1_tx;
  29:Core/Src/stm32f7xx_hal_msp.c **** extern SDRAM_HandleTypeDef hsdram1;
  30:Core/Src/stm32f7xx_hal_msp.c **** /* Private typedef -----------------------------------------------------------*/
ARM GAS  C:\Users\jisu8\AppData\Local\Temp\ccKgGJL7.s 			page 2


  31:Core/Src/stm32f7xx_hal_msp.c **** /* USER CODE BEGIN TD */
  32:Core/Src/stm32f7xx_hal_msp.c **** 
  33:Core/Src/stm32f7xx_hal_msp.c **** /* USER CODE END TD */
  34:Core/Src/stm32f7xx_hal_msp.c **** 
  35:Core/Src/stm32f7xx_hal_msp.c **** /* Private define ------------------------------------------------------------*/
  36:Core/Src/stm32f7xx_hal_msp.c **** /* USER CODE BEGIN Define */
  37:Core/Src/stm32f7xx_hal_msp.c **** 
  38:Core/Src/stm32f7xx_hal_msp.c **** /* USER CODE END Define */
  39:Core/Src/stm32f7xx_hal_msp.c **** 
  40:Core/Src/stm32f7xx_hal_msp.c **** /* Private macro -------------------------------------------------------------*/
  41:Core/Src/stm32f7xx_hal_msp.c **** /* USER CODE BEGIN Macro */
  42:Core/Src/stm32f7xx_hal_msp.c **** 
  43:Core/Src/stm32f7xx_hal_msp.c **** /* USER CODE END Macro */
  44:Core/Src/stm32f7xx_hal_msp.c **** 
  45:Core/Src/stm32f7xx_hal_msp.c **** /* Private variables ---------------------------------------------------------*/
  46:Core/Src/stm32f7xx_hal_msp.c **** /* USER CODE BEGIN PV */
  47:Core/Src/stm32f7xx_hal_msp.c **** 
  48:Core/Src/stm32f7xx_hal_msp.c **** /* USER CODE END PV */
  49:Core/Src/stm32f7xx_hal_msp.c **** 
  50:Core/Src/stm32f7xx_hal_msp.c **** /* Private function prototypes -----------------------------------------------*/
  51:Core/Src/stm32f7xx_hal_msp.c **** /* USER CODE BEGIN PFP */
  52:Core/Src/stm32f7xx_hal_msp.c **** 
  53:Core/Src/stm32f7xx_hal_msp.c **** /* USER CODE END PFP */
  54:Core/Src/stm32f7xx_hal_msp.c **** 
  55:Core/Src/stm32f7xx_hal_msp.c **** /* External functions --------------------------------------------------------*/
  56:Core/Src/stm32f7xx_hal_msp.c **** /* USER CODE BEGIN ExternalFunctions */
  57:Core/Src/stm32f7xx_hal_msp.c **** 
  58:Core/Src/stm32f7xx_hal_msp.c **** /* USER CODE END ExternalFunctions */
  59:Core/Src/stm32f7xx_hal_msp.c **** 
  60:Core/Src/stm32f7xx_hal_msp.c **** /* USER CODE BEGIN 0 */
  61:Core/Src/stm32f7xx_hal_msp.c **** 
  62:Core/Src/stm32f7xx_hal_msp.c **** /* USER CODE END 0 */
  63:Core/Src/stm32f7xx_hal_msp.c **** /**
  64:Core/Src/stm32f7xx_hal_msp.c ****   * Initializes the Global MSP.
  65:Core/Src/stm32f7xx_hal_msp.c ****   */
  66:Core/Src/stm32f7xx_hal_msp.c **** void HAL_MspInit(void)
  67:Core/Src/stm32f7xx_hal_msp.c **** {
  29              		.loc 1 67 1
  30              		.cfi_startproc
  31              		@ args = 0, pretend = 0, frame = 8
  32              		@ frame_needed = 1, uses_anonymous_args = 0
  33 0000 80B5     		push	{r7, lr}
  34              	.LCFI0:
  35              		.cfi_def_cfa_offset 8
  36              		.cfi_offset 7, -8
  37              		.cfi_offset 14, -4
  38 0002 82B0     		sub	sp, sp, #8
  39              	.LCFI1:
  40              		.cfi_def_cfa_offset 16
  41 0004 00AF     		add	r7, sp, #0
  42              	.LCFI2:
  43              		.cfi_def_cfa_register 7
  44              	.LBB2:
  68:Core/Src/stm32f7xx_hal_msp.c ****   /* USER CODE BEGIN MspInit 0 */
  69:Core/Src/stm32f7xx_hal_msp.c **** 
  70:Core/Src/stm32f7xx_hal_msp.c ****   /* USER CODE END MspInit 0 */
  71:Core/Src/stm32f7xx_hal_msp.c **** 
ARM GAS  C:\Users\jisu8\AppData\Local\Temp\ccKgGJL7.s 			page 3


  72:Core/Src/stm32f7xx_hal_msp.c ****   __HAL_RCC_PWR_CLK_ENABLE();
  45              		.loc 1 72 3
  46 0006 114B     		ldr	r3, .L2
  47 0008 1B6C     		ldr	r3, [r3, #64]
  48 000a 104A     		ldr	r2, .L2
  49 000c 43F08053 		orr	r3, r3, #268435456
  50 0010 1364     		str	r3, [r2, #64]
  51 0012 0E4B     		ldr	r3, .L2
  52 0014 1B6C     		ldr	r3, [r3, #64]
  53 0016 03F08053 		and	r3, r3, #268435456
  54 001a 7B60     		str	r3, [r7, #4]
  55 001c 7B68     		ldr	r3, [r7, #4]
  56              	.LBE2:
  57              	.LBB3:
  73:Core/Src/stm32f7xx_hal_msp.c ****   __HAL_RCC_SYSCFG_CLK_ENABLE();
  58              		.loc 1 73 3
  59 001e 0B4B     		ldr	r3, .L2
  60 0020 5B6C     		ldr	r3, [r3, #68]
  61 0022 0A4A     		ldr	r2, .L2
  62 0024 43F48043 		orr	r3, r3, #16384
  63 0028 5364     		str	r3, [r2, #68]
  64 002a 084B     		ldr	r3, .L2
  65 002c 5B6C     		ldr	r3, [r3, #68]
  66 002e 03F48043 		and	r3, r3, #16384
  67 0032 3B60     		str	r3, [r7]
  68 0034 3B68     		ldr	r3, [r7]
  69              	.LBE3:
  74:Core/Src/stm32f7xx_hal_msp.c **** 
  75:Core/Src/stm32f7xx_hal_msp.c ****   /* System interrupt init*/
  76:Core/Src/stm32f7xx_hal_msp.c ****   /* PendSV_IRQn interrupt configuration */
  77:Core/Src/stm32f7xx_hal_msp.c ****   HAL_NVIC_SetPriority(PendSV_IRQn, 15, 0);
  70              		.loc 1 77 3
  71 0036 0022     		movs	r2, #0
  72 0038 0F21     		movs	r1, #15
  73 003a 6FF00100 		mvn	r0, #1
  74 003e FFF7FEFF 		bl	HAL_NVIC_SetPriority
  78:Core/Src/stm32f7xx_hal_msp.c **** 
  79:Core/Src/stm32f7xx_hal_msp.c ****   /* USER CODE BEGIN MspInit 1 */
  80:Core/Src/stm32f7xx_hal_msp.c **** 
  81:Core/Src/stm32f7xx_hal_msp.c ****   /* USER CODE END MspInit 1 */
  82:Core/Src/stm32f7xx_hal_msp.c **** }
  75              		.loc 1 82 1
  76 0042 00BF     		nop
  77 0044 0837     		adds	r7, r7, #8
  78              	.LCFI3:
  79              		.cfi_def_cfa_offset 8
  80 0046 BD46     		mov	sp, r7
  81              	.LCFI4:
  82              		.cfi_def_cfa_register 13
  83              		@ sp needed
  84 0048 80BD     		pop	{r7, pc}
  85              	.L3:
  86 004a 00BF     		.align	2
  87              	.L2:
  88 004c 00380240 		.word	1073887232
  89              		.cfi_endproc
  90              	.LFE144:
ARM GAS  C:\Users\jisu8\AppData\Local\Temp\ccKgGJL7.s 			page 4


  92              		.section	.text.HAL_CRC_MspInit,"ax",%progbits
  93              		.align	1
  94              		.global	HAL_CRC_MspInit
  95              		.syntax unified
  96              		.thumb
  97              		.thumb_func
  99              	HAL_CRC_MspInit:
 100              	.LFB145:
  83:Core/Src/stm32f7xx_hal_msp.c **** 
  84:Core/Src/stm32f7xx_hal_msp.c **** /**
  85:Core/Src/stm32f7xx_hal_msp.c **** * @brief CRC MSP Initialization
  86:Core/Src/stm32f7xx_hal_msp.c **** * This function configures the hardware resources used in this example
  87:Core/Src/stm32f7xx_hal_msp.c **** * @param hcrc: CRC handle pointer
  88:Core/Src/stm32f7xx_hal_msp.c **** * @retval None
  89:Core/Src/stm32f7xx_hal_msp.c **** */
  90:Core/Src/stm32f7xx_hal_msp.c **** void HAL_CRC_MspInit(CRC_HandleTypeDef* hcrc)
  91:Core/Src/stm32f7xx_hal_msp.c **** {
 101              		.loc 1 91 1
 102              		.cfi_startproc
 103              		@ args = 0, pretend = 0, frame = 16
 104              		@ frame_needed = 1, uses_anonymous_args = 0
 105              		@ link register save eliminated.
 106 0000 80B4     		push	{r7}
 107              	.LCFI5:
 108              		.cfi_def_cfa_offset 4
 109              		.cfi_offset 7, -4
 110 0002 85B0     		sub	sp, sp, #20
 111              	.LCFI6:
 112              		.cfi_def_cfa_offset 24
 113 0004 00AF     		add	r7, sp, #0
 114              	.LCFI7:
 115              		.cfi_def_cfa_register 7
 116 0006 7860     		str	r0, [r7, #4]
  92:Core/Src/stm32f7xx_hal_msp.c ****   if(hcrc->Instance==CRC)
 117              		.loc 1 92 10
 118 0008 7B68     		ldr	r3, [r7, #4]
 119 000a 1B68     		ldr	r3, [r3]
 120              		.loc 1 92 5
 121 000c 0A4A     		ldr	r2, .L7
 122 000e 9342     		cmp	r3, r2
 123 0010 0BD1     		bne	.L6
 124              	.LBB4:
  93:Core/Src/stm32f7xx_hal_msp.c ****   {
  94:Core/Src/stm32f7xx_hal_msp.c ****   /* USER CODE BEGIN CRC_MspInit 0 */
  95:Core/Src/stm32f7xx_hal_msp.c **** 
  96:Core/Src/stm32f7xx_hal_msp.c ****   /* USER CODE END CRC_MspInit 0 */
  97:Core/Src/stm32f7xx_hal_msp.c ****     /* Peripheral clock enable */
  98:Core/Src/stm32f7xx_hal_msp.c ****     __HAL_RCC_CRC_CLK_ENABLE();
 125              		.loc 1 98 5
 126 0012 0A4B     		ldr	r3, .L7+4
 127 0014 1B6B     		ldr	r3, [r3, #48]
 128 0016 094A     		ldr	r2, .L7+4
 129 0018 43F48053 		orr	r3, r3, #4096
 130 001c 1363     		str	r3, [r2, #48]
 131 001e 074B     		ldr	r3, .L7+4
 132 0020 1B6B     		ldr	r3, [r3, #48]
 133 0022 03F48053 		and	r3, r3, #4096
ARM GAS  C:\Users\jisu8\AppData\Local\Temp\ccKgGJL7.s 			page 5


 134 0026 FB60     		str	r3, [r7, #12]
 135 0028 FB68     		ldr	r3, [r7, #12]
 136              	.L6:
 137              	.LBE4:
  99:Core/Src/stm32f7xx_hal_msp.c ****   /* USER CODE BEGIN CRC_MspInit 1 */
 100:Core/Src/stm32f7xx_hal_msp.c **** 
 101:Core/Src/stm32f7xx_hal_msp.c ****   /* USER CODE END CRC_MspInit 1 */
 102:Core/Src/stm32f7xx_hal_msp.c ****   }
 103:Core/Src/stm32f7xx_hal_msp.c **** 
 104:Core/Src/stm32f7xx_hal_msp.c **** }
 138              		.loc 1 104 1
 139 002a 00BF     		nop
 140 002c 1437     		adds	r7, r7, #20
 141              	.LCFI8:
 142              		.cfi_def_cfa_offset 4
 143 002e BD46     		mov	sp, r7
 144              	.LCFI9:
 145              		.cfi_def_cfa_register 13
 146              		@ sp needed
 147 0030 5DF8047B 		ldr	r7, [sp], #4
 148              	.LCFI10:
 149              		.cfi_restore 7
 150              		.cfi_def_cfa_offset 0
 151 0034 7047     		bx	lr
 152              	.L8:
 153 0036 00BF     		.align	2
 154              	.L7:
 155 0038 00300240 		.word	1073885184
 156 003c 00380240 		.word	1073887232
 157              		.cfi_endproc
 158              	.LFE145:
 160              		.section	.text.HAL_CRC_MspDeInit,"ax",%progbits
 161              		.align	1
 162              		.global	HAL_CRC_MspDeInit
 163              		.syntax unified
 164              		.thumb
 165              		.thumb_func
 167              	HAL_CRC_MspDeInit:
 168              	.LFB146:
 105:Core/Src/stm32f7xx_hal_msp.c **** 
 106:Core/Src/stm32f7xx_hal_msp.c **** /**
 107:Core/Src/stm32f7xx_hal_msp.c **** * @brief CRC MSP De-Initialization
 108:Core/Src/stm32f7xx_hal_msp.c **** * This function freeze the hardware resources used in this example
 109:Core/Src/stm32f7xx_hal_msp.c **** * @param hcrc: CRC handle pointer
 110:Core/Src/stm32f7xx_hal_msp.c **** * @retval None
 111:Core/Src/stm32f7xx_hal_msp.c **** */
 112:Core/Src/stm32f7xx_hal_msp.c **** void HAL_CRC_MspDeInit(CRC_HandleTypeDef* hcrc)
 113:Core/Src/stm32f7xx_hal_msp.c **** {
 169              		.loc 1 113 1
 170              		.cfi_startproc
 171              		@ args = 0, pretend = 0, frame = 8
 172              		@ frame_needed = 1, uses_anonymous_args = 0
 173              		@ link register save eliminated.
 174 0000 80B4     		push	{r7}
 175              	.LCFI11:
 176              		.cfi_def_cfa_offset 4
 177              		.cfi_offset 7, -4
ARM GAS  C:\Users\jisu8\AppData\Local\Temp\ccKgGJL7.s 			page 6


 178 0002 83B0     		sub	sp, sp, #12
 179              	.LCFI12:
 180              		.cfi_def_cfa_offset 16
 181 0004 00AF     		add	r7, sp, #0
 182              	.LCFI13:
 183              		.cfi_def_cfa_register 7
 184 0006 7860     		str	r0, [r7, #4]
 114:Core/Src/stm32f7xx_hal_msp.c ****   if(hcrc->Instance==CRC)
 185              		.loc 1 114 10
 186 0008 7B68     		ldr	r3, [r7, #4]
 187 000a 1B68     		ldr	r3, [r3]
 188              		.loc 1 114 5
 189 000c 074A     		ldr	r2, .L12
 190 000e 9342     		cmp	r3, r2
 191 0010 05D1     		bne	.L11
 115:Core/Src/stm32f7xx_hal_msp.c ****   {
 116:Core/Src/stm32f7xx_hal_msp.c ****   /* USER CODE BEGIN CRC_MspDeInit 0 */
 117:Core/Src/stm32f7xx_hal_msp.c **** 
 118:Core/Src/stm32f7xx_hal_msp.c ****   /* USER CODE END CRC_MspDeInit 0 */
 119:Core/Src/stm32f7xx_hal_msp.c ****     /* Peripheral clock disable */
 120:Core/Src/stm32f7xx_hal_msp.c ****     __HAL_RCC_CRC_CLK_DISABLE();
 192              		.loc 1 120 5
 193 0012 074B     		ldr	r3, .L12+4
 194 0014 1B6B     		ldr	r3, [r3, #48]
 195 0016 064A     		ldr	r2, .L12+4
 196 0018 23F48053 		bic	r3, r3, #4096
 197 001c 1363     		str	r3, [r2, #48]
 198              	.L11:
 121:Core/Src/stm32f7xx_hal_msp.c ****   /* USER CODE BEGIN CRC_MspDeInit 1 */
 122:Core/Src/stm32f7xx_hal_msp.c **** 
 123:Core/Src/stm32f7xx_hal_msp.c ****   /* USER CODE END CRC_MspDeInit 1 */
 124:Core/Src/stm32f7xx_hal_msp.c ****   }
 125:Core/Src/stm32f7xx_hal_msp.c **** 
 126:Core/Src/stm32f7xx_hal_msp.c **** }
 199              		.loc 1 126 1
 200 001e 00BF     		nop
 201 0020 0C37     		adds	r7, r7, #12
 202              	.LCFI14:
 203              		.cfi_def_cfa_offset 4
 204 0022 BD46     		mov	sp, r7
 205              	.LCFI15:
 206              		.cfi_def_cfa_register 13
 207              		@ sp needed
 208 0024 5DF8047B 		ldr	r7, [sp], #4
 209              	.LCFI16:
 210              		.cfi_restore 7
 211              		.cfi_def_cfa_offset 0
 212 0028 7047     		bx	lr
 213              	.L13:
 214 002a 00BF     		.align	2
 215              	.L12:
 216 002c 00300240 		.word	1073885184
 217 0030 00380240 		.word	1073887232
 218              		.cfi_endproc
 219              	.LFE146:
 221              		.section	.text.HAL_DMA2D_MspInit,"ax",%progbits
 222              		.align	1
ARM GAS  C:\Users\jisu8\AppData\Local\Temp\ccKgGJL7.s 			page 7


 223              		.global	HAL_DMA2D_MspInit
 224              		.syntax unified
 225              		.thumb
 226              		.thumb_func
 228              	HAL_DMA2D_MspInit:
 229              	.LFB147:
 127:Core/Src/stm32f7xx_hal_msp.c **** 
 128:Core/Src/stm32f7xx_hal_msp.c **** /**
 129:Core/Src/stm32f7xx_hal_msp.c **** * @brief DMA2D MSP Initialization
 130:Core/Src/stm32f7xx_hal_msp.c **** * This function configures the hardware resources used in this example
 131:Core/Src/stm32f7xx_hal_msp.c **** * @param hdma2d: DMA2D handle pointer
 132:Core/Src/stm32f7xx_hal_msp.c **** * @retval None
 133:Core/Src/stm32f7xx_hal_msp.c **** */
 134:Core/Src/stm32f7xx_hal_msp.c **** void HAL_DMA2D_MspInit(DMA2D_HandleTypeDef* hdma2d)
 135:Core/Src/stm32f7xx_hal_msp.c **** {
 230              		.loc 1 135 1
 231              		.cfi_startproc
 232              		@ args = 0, pretend = 0, frame = 16
 233              		@ frame_needed = 1, uses_anonymous_args = 0
 234 0000 80B5     		push	{r7, lr}
 235              	.LCFI17:
 236              		.cfi_def_cfa_offset 8
 237              		.cfi_offset 7, -8
 238              		.cfi_offset 14, -4
 239 0002 84B0     		sub	sp, sp, #16
 240              	.LCFI18:
 241              		.cfi_def_cfa_offset 24
 242 0004 00AF     		add	r7, sp, #0
 243              	.LCFI19:
 244              		.cfi_def_cfa_register 7
 245 0006 7860     		str	r0, [r7, #4]
 136:Core/Src/stm32f7xx_hal_msp.c ****   if(hdma2d->Instance==DMA2D)
 246              		.loc 1 136 12
 247 0008 7B68     		ldr	r3, [r7, #4]
 248 000a 1B68     		ldr	r3, [r3]
 249              		.loc 1 136 5
 250 000c 0D4A     		ldr	r2, .L17
 251 000e 9342     		cmp	r3, r2
 252 0010 13D1     		bne	.L16
 253              	.LBB5:
 137:Core/Src/stm32f7xx_hal_msp.c ****   {
 138:Core/Src/stm32f7xx_hal_msp.c ****   /* USER CODE BEGIN DMA2D_MspInit 0 */
 139:Core/Src/stm32f7xx_hal_msp.c **** 
 140:Core/Src/stm32f7xx_hal_msp.c ****   /* USER CODE END DMA2D_MspInit 0 */
 141:Core/Src/stm32f7xx_hal_msp.c ****     /* Peripheral clock enable */
 142:Core/Src/stm32f7xx_hal_msp.c ****     __HAL_RCC_DMA2D_CLK_ENABLE();
 254              		.loc 1 142 5
 255 0012 0D4B     		ldr	r3, .L17+4
 256 0014 1B6B     		ldr	r3, [r3, #48]
 257 0016 0C4A     		ldr	r2, .L17+4
 258 0018 43F40003 		orr	r3, r3, #8388608
 259 001c 1363     		str	r3, [r2, #48]
 260 001e 0A4B     		ldr	r3, .L17+4
 261 0020 1B6B     		ldr	r3, [r3, #48]
 262 0022 03F40003 		and	r3, r3, #8388608
 263 0026 FB60     		str	r3, [r7, #12]
 264 0028 FB68     		ldr	r3, [r7, #12]
ARM GAS  C:\Users\jisu8\AppData\Local\Temp\ccKgGJL7.s 			page 8


 265              	.LBE5:
 143:Core/Src/stm32f7xx_hal_msp.c ****     /* DMA2D interrupt Init */
 144:Core/Src/stm32f7xx_hal_msp.c ****     HAL_NVIC_SetPriority(DMA2D_IRQn, 5, 0);
 266              		.loc 1 144 5
 267 002a 0022     		movs	r2, #0
 268 002c 0521     		movs	r1, #5
 269 002e 5A20     		movs	r0, #90
 270 0030 FFF7FEFF 		bl	HAL_NVIC_SetPriority
 145:Core/Src/stm32f7xx_hal_msp.c ****     HAL_NVIC_EnableIRQ(DMA2D_IRQn);
 271              		.loc 1 145 5
 272 0034 5A20     		movs	r0, #90
 273 0036 FFF7FEFF 		bl	HAL_NVIC_EnableIRQ
 274              	.L16:
 146:Core/Src/stm32f7xx_hal_msp.c ****   /* USER CODE BEGIN DMA2D_MspInit 1 */
 147:Core/Src/stm32f7xx_hal_msp.c **** 
 148:Core/Src/stm32f7xx_hal_msp.c ****   /* USER CODE END DMA2D_MspInit 1 */
 149:Core/Src/stm32f7xx_hal_msp.c ****   }
 150:Core/Src/stm32f7xx_hal_msp.c **** 
 151:Core/Src/stm32f7xx_hal_msp.c **** }
 275              		.loc 1 151 1
 276 003a 00BF     		nop
 277 003c 1037     		adds	r7, r7, #16
 278              	.LCFI20:
 279              		.cfi_def_cfa_offset 8
 280 003e BD46     		mov	sp, r7
 281              	.LCFI21:
 282              		.cfi_def_cfa_register 13
 283              		@ sp needed
 284 0040 80BD     		pop	{r7, pc}
 285              	.L18:
 286 0042 00BF     		.align	2
 287              	.L17:
 288 0044 00B00240 		.word	1073917952
 289 0048 00380240 		.word	1073887232
 290              		.cfi_endproc
 291              	.LFE147:
 293              		.section	.text.HAL_DMA2D_MspDeInit,"ax",%progbits
 294              		.align	1
 295              		.global	HAL_DMA2D_MspDeInit
 296              		.syntax unified
 297              		.thumb
 298              		.thumb_func
 300              	HAL_DMA2D_MspDeInit:
 301              	.LFB148:
 152:Core/Src/stm32f7xx_hal_msp.c **** 
 153:Core/Src/stm32f7xx_hal_msp.c **** /**
 154:Core/Src/stm32f7xx_hal_msp.c **** * @brief DMA2D MSP De-Initialization
 155:Core/Src/stm32f7xx_hal_msp.c **** * This function freeze the hardware resources used in this example
 156:Core/Src/stm32f7xx_hal_msp.c **** * @param hdma2d: DMA2D handle pointer
 157:Core/Src/stm32f7xx_hal_msp.c **** * @retval None
 158:Core/Src/stm32f7xx_hal_msp.c **** */
 159:Core/Src/stm32f7xx_hal_msp.c **** void HAL_DMA2D_MspDeInit(DMA2D_HandleTypeDef* hdma2d)
 160:Core/Src/stm32f7xx_hal_msp.c **** {
 302              		.loc 1 160 1
 303              		.cfi_startproc
 304              		@ args = 0, pretend = 0, frame = 8
 305              		@ frame_needed = 1, uses_anonymous_args = 0
ARM GAS  C:\Users\jisu8\AppData\Local\Temp\ccKgGJL7.s 			page 9


 306 0000 80B5     		push	{r7, lr}
 307              	.LCFI22:
 308              		.cfi_def_cfa_offset 8
 309              		.cfi_offset 7, -8
 310              		.cfi_offset 14, -4
 311 0002 82B0     		sub	sp, sp, #8
 312              	.LCFI23:
 313              		.cfi_def_cfa_offset 16
 314 0004 00AF     		add	r7, sp, #0
 315              	.LCFI24:
 316              		.cfi_def_cfa_register 7
 317 0006 7860     		str	r0, [r7, #4]
 161:Core/Src/stm32f7xx_hal_msp.c ****   if(hdma2d->Instance==DMA2D)
 318              		.loc 1 161 12
 319 0008 7B68     		ldr	r3, [r7, #4]
 320 000a 1B68     		ldr	r3, [r3]
 321              		.loc 1 161 5
 322 000c 074A     		ldr	r2, .L22
 323 000e 9342     		cmp	r3, r2
 324 0010 08D1     		bne	.L21
 162:Core/Src/stm32f7xx_hal_msp.c ****   {
 163:Core/Src/stm32f7xx_hal_msp.c ****   /* USER CODE BEGIN DMA2D_MspDeInit 0 */
 164:Core/Src/stm32f7xx_hal_msp.c **** 
 165:Core/Src/stm32f7xx_hal_msp.c ****   /* USER CODE END DMA2D_MspDeInit 0 */
 166:Core/Src/stm32f7xx_hal_msp.c ****     /* Peripheral clock disable */
 167:Core/Src/stm32f7xx_hal_msp.c ****     __HAL_RCC_DMA2D_CLK_DISABLE();
 325              		.loc 1 167 5
 326 0012 074B     		ldr	r3, .L22+4
 327 0014 1B6B     		ldr	r3, [r3, #48]
 328 0016 064A     		ldr	r2, .L22+4
 329 0018 23F40003 		bic	r3, r3, #8388608
 330 001c 1363     		str	r3, [r2, #48]
 168:Core/Src/stm32f7xx_hal_msp.c **** 
 169:Core/Src/stm32f7xx_hal_msp.c ****     /* DMA2D interrupt DeInit */
 170:Core/Src/stm32f7xx_hal_msp.c ****     HAL_NVIC_DisableIRQ(DMA2D_IRQn);
 331              		.loc 1 170 5
 332 001e 5A20     		movs	r0, #90
 333 0020 FFF7FEFF 		bl	HAL_NVIC_DisableIRQ
 334              	.L21:
 171:Core/Src/stm32f7xx_hal_msp.c ****   /* USER CODE BEGIN DMA2D_MspDeInit 1 */
 172:Core/Src/stm32f7xx_hal_msp.c **** 
 173:Core/Src/stm32f7xx_hal_msp.c ****   /* USER CODE END DMA2D_MspDeInit 1 */
 174:Core/Src/stm32f7xx_hal_msp.c ****   }
 175:Core/Src/stm32f7xx_hal_msp.c **** 
 176:Core/Src/stm32f7xx_hal_msp.c **** }
 335              		.loc 1 176 1
 336 0024 00BF     		nop
 337 0026 0837     		adds	r7, r7, #8
 338              	.LCFI25:
 339              		.cfi_def_cfa_offset 8
 340 0028 BD46     		mov	sp, r7
 341              	.LCFI26:
 342              		.cfi_def_cfa_register 13
 343              		@ sp needed
 344 002a 80BD     		pop	{r7, pc}
 345              	.L23:
 346              		.align	2
ARM GAS  C:\Users\jisu8\AppData\Local\Temp\ccKgGJL7.s 			page 10


 347              	.L22:
 348 002c 00B00240 		.word	1073917952
 349 0030 00380240 		.word	1073887232
 350              		.cfi_endproc
 351              	.LFE148:
 353              		.section	.text.HAL_I2C_MspInit,"ax",%progbits
 354              		.align	1
 355              		.global	HAL_I2C_MspInit
 356              		.syntax unified
 357              		.thumb
 358              		.thumb_func
 360              	HAL_I2C_MspInit:
 361              	.LFB149:
 177:Core/Src/stm32f7xx_hal_msp.c **** 
 178:Core/Src/stm32f7xx_hal_msp.c **** /**
 179:Core/Src/stm32f7xx_hal_msp.c **** * @brief I2C MSP Initialization
 180:Core/Src/stm32f7xx_hal_msp.c **** * This function configures the hardware resources used in this example
 181:Core/Src/stm32f7xx_hal_msp.c **** * @param hi2c: I2C handle pointer
 182:Core/Src/stm32f7xx_hal_msp.c **** * @retval None
 183:Core/Src/stm32f7xx_hal_msp.c **** */
 184:Core/Src/stm32f7xx_hal_msp.c **** void HAL_I2C_MspInit(I2C_HandleTypeDef* hi2c)
 185:Core/Src/stm32f7xx_hal_msp.c **** {
 362              		.loc 1 185 1
 363              		.cfi_startproc
 364              		@ args = 0, pretend = 0, frame = 176
 365              		@ frame_needed = 1, uses_anonymous_args = 0
 366 0000 80B5     		push	{r7, lr}
 367              	.LCFI27:
 368              		.cfi_def_cfa_offset 8
 369              		.cfi_offset 7, -8
 370              		.cfi_offset 14, -4
 371 0002 ACB0     		sub	sp, sp, #176
 372              	.LCFI28:
 373              		.cfi_def_cfa_offset 184
 374 0004 00AF     		add	r7, sp, #0
 375              	.LCFI29:
 376              		.cfi_def_cfa_register 7
 377 0006 7860     		str	r0, [r7, #4]
 186:Core/Src/stm32f7xx_hal_msp.c ****   GPIO_InitTypeDef GPIO_InitStruct = {0};
 378              		.loc 1 186 20
 379 0008 07F19C03 		add	r3, r7, #156
 380 000c 0022     		movs	r2, #0
 381 000e 1A60     		str	r2, [r3]
 382 0010 5A60     		str	r2, [r3, #4]
 383 0012 9A60     		str	r2, [r3, #8]
 384 0014 DA60     		str	r2, [r3, #12]
 385 0016 1A61     		str	r2, [r3, #16]
 187:Core/Src/stm32f7xx_hal_msp.c ****   RCC_PeriphCLKInitTypeDef PeriphClkInitStruct = {0};
 386              		.loc 1 187 28
 387 0018 07F11803 		add	r3, r7, #24
 388 001c 8422     		movs	r2, #132
 389 001e 0021     		movs	r1, #0
 390 0020 1846     		mov	r0, r3
 391 0022 FFF7FEFF 		bl	memset
 188:Core/Src/stm32f7xx_hal_msp.c ****   if(hi2c->Instance==I2C1)
 392              		.loc 1 188 10
 393 0026 7B68     		ldr	r3, [r7, #4]
ARM GAS  C:\Users\jisu8\AppData\Local\Temp\ccKgGJL7.s 			page 11


 394 0028 1B68     		ldr	r3, [r3]
 395              		.loc 1 188 5
 396 002a 444A     		ldr	r2, .L30
 397 002c 9342     		cmp	r3, r2
 398 002e 3DD1     		bne	.L25
 189:Core/Src/stm32f7xx_hal_msp.c ****   {
 190:Core/Src/stm32f7xx_hal_msp.c ****   /* USER CODE BEGIN I2C1_MspInit 0 */
 191:Core/Src/stm32f7xx_hal_msp.c **** 
 192:Core/Src/stm32f7xx_hal_msp.c ****   /* USER CODE END I2C1_MspInit 0 */
 193:Core/Src/stm32f7xx_hal_msp.c **** 
 194:Core/Src/stm32f7xx_hal_msp.c ****   /** Initializes the peripherals clock
 195:Core/Src/stm32f7xx_hal_msp.c ****   */
 196:Core/Src/stm32f7xx_hal_msp.c ****     PeriphClkInitStruct.PeriphClockSelection = RCC_PERIPHCLK_I2C1;
 399              		.loc 1 196 46
 400 0030 4FF48043 		mov	r3, #16384
 401 0034 BB61     		str	r3, [r7, #24]
 197:Core/Src/stm32f7xx_hal_msp.c ****     PeriphClkInitStruct.I2c1ClockSelection = RCC_I2C1CLKSOURCE_PCLK1;
 402              		.loc 1 197 44
 403 0036 0023     		movs	r3, #0
 404 0038 FB67     		str	r3, [r7, #124]
 198:Core/Src/stm32f7xx_hal_msp.c ****     if (HAL_RCCEx_PeriphCLKConfig(&PeriphClkInitStruct) != HAL_OK)
 405              		.loc 1 198 9
 406 003a 07F11803 		add	r3, r7, #24
 407 003e 1846     		mov	r0, r3
 408 0040 FFF7FEFF 		bl	HAL_RCCEx_PeriphCLKConfig
 409 0044 0346     		mov	r3, r0
 410              		.loc 1 198 8
 411 0046 002B     		cmp	r3, #0
 412 0048 01D0     		beq	.L26
 199:Core/Src/stm32f7xx_hal_msp.c ****     {
 200:Core/Src/stm32f7xx_hal_msp.c ****       Error_Handler();
 413              		.loc 1 200 7
 414 004a FFF7FEFF 		bl	Error_Handler
 415              	.L26:
 416              	.LBB6:
 201:Core/Src/stm32f7xx_hal_msp.c ****     }
 202:Core/Src/stm32f7xx_hal_msp.c **** 
 203:Core/Src/stm32f7xx_hal_msp.c ****     __HAL_RCC_GPIOB_CLK_ENABLE();
 417              		.loc 1 203 5
 418 004e 3C4B     		ldr	r3, .L30+4
 419 0050 1B6B     		ldr	r3, [r3, #48]
 420 0052 3B4A     		ldr	r2, .L30+4
 421 0054 43F00203 		orr	r3, r3, #2
 422 0058 1363     		str	r3, [r2, #48]
 423 005a 394B     		ldr	r3, .L30+4
 424 005c 1B6B     		ldr	r3, [r3, #48]
 425 005e 03F00203 		and	r3, r3, #2
 426 0062 7B61     		str	r3, [r7, #20]
 427 0064 7B69     		ldr	r3, [r7, #20]
 428              	.LBE6:
 204:Core/Src/stm32f7xx_hal_msp.c ****     /**I2C1 GPIO Configuration
 205:Core/Src/stm32f7xx_hal_msp.c ****     PB8     ------> I2C1_SCL
 206:Core/Src/stm32f7xx_hal_msp.c ****     PB9     ------> I2C1_SDA
 207:Core/Src/stm32f7xx_hal_msp.c ****     */
 208:Core/Src/stm32f7xx_hal_msp.c ****     GPIO_InitStruct.Pin = ARDUINO_SCL_D15_Pin|ARDUINO_SDA_D14_Pin;
 429              		.loc 1 208 25
 430 0066 4FF44073 		mov	r3, #768
ARM GAS  C:\Users\jisu8\AppData\Local\Temp\ccKgGJL7.s 			page 12


 431 006a C7F89C30 		str	r3, [r7, #156]
 209:Core/Src/stm32f7xx_hal_msp.c ****     GPIO_InitStruct.Mode = GPIO_MODE_AF_OD;
 432              		.loc 1 209 26
 433 006e 1223     		movs	r3, #18
 434 0070 C7F8A030 		str	r3, [r7, #160]
 210:Core/Src/stm32f7xx_hal_msp.c ****     GPIO_InitStruct.Pull = GPIO_PULLUP;
 435              		.loc 1 210 26
 436 0074 0123     		movs	r3, #1
 437 0076 C7F8A430 		str	r3, [r7, #164]
 211:Core/Src/stm32f7xx_hal_msp.c ****     GPIO_InitStruct.Speed = GPIO_SPEED_FREQ_LOW;
 438              		.loc 1 211 27
 439 007a 0023     		movs	r3, #0
 440 007c C7F8A830 		str	r3, [r7, #168]
 212:Core/Src/stm32f7xx_hal_msp.c ****     GPIO_InitStruct.Alternate = GPIO_AF4_I2C1;
 441              		.loc 1 212 31
 442 0080 0423     		movs	r3, #4
 443 0082 C7F8AC30 		str	r3, [r7, #172]
 213:Core/Src/stm32f7xx_hal_msp.c ****     HAL_GPIO_Init(GPIOB, &GPIO_InitStruct);
 444              		.loc 1 213 5
 445 0086 07F19C03 		add	r3, r7, #156
 446 008a 1946     		mov	r1, r3
 447 008c 2D48     		ldr	r0, .L30+8
 448 008e FFF7FEFF 		bl	HAL_GPIO_Init
 449              	.LBB7:
 214:Core/Src/stm32f7xx_hal_msp.c **** 
 215:Core/Src/stm32f7xx_hal_msp.c ****     /* Peripheral clock enable */
 216:Core/Src/stm32f7xx_hal_msp.c ****     __HAL_RCC_I2C1_CLK_ENABLE();
 450              		.loc 1 216 5
 451 0092 2B4B     		ldr	r3, .L30+4
 452 0094 1B6C     		ldr	r3, [r3, #64]
 453 0096 2A4A     		ldr	r2, .L30+4
 454 0098 43F40013 		orr	r3, r3, #2097152
 455 009c 1364     		str	r3, [r2, #64]
 456 009e 284B     		ldr	r3, .L30+4
 457 00a0 1B6C     		ldr	r3, [r3, #64]
 458 00a2 03F40013 		and	r3, r3, #2097152
 459 00a6 3B61     		str	r3, [r7, #16]
 460 00a8 3B69     		ldr	r3, [r7, #16]
 461              	.LBE7:
 217:Core/Src/stm32f7xx_hal_msp.c ****   /* USER CODE BEGIN I2C1_MspInit 1 */
 218:Core/Src/stm32f7xx_hal_msp.c **** 
 219:Core/Src/stm32f7xx_hal_msp.c ****   /* USER CODE END I2C1_MspInit 1 */
 220:Core/Src/stm32f7xx_hal_msp.c ****   }
 221:Core/Src/stm32f7xx_hal_msp.c ****   else if(hi2c->Instance==I2C3)
 222:Core/Src/stm32f7xx_hal_msp.c ****   {
 223:Core/Src/stm32f7xx_hal_msp.c ****   /* USER CODE BEGIN I2C3_MspInit 0 */
 224:Core/Src/stm32f7xx_hal_msp.c **** 
 225:Core/Src/stm32f7xx_hal_msp.c ****   /* USER CODE END I2C3_MspInit 0 */
 226:Core/Src/stm32f7xx_hal_msp.c **** 
 227:Core/Src/stm32f7xx_hal_msp.c ****   /** Initializes the peripherals clock
 228:Core/Src/stm32f7xx_hal_msp.c ****   */
 229:Core/Src/stm32f7xx_hal_msp.c ****     PeriphClkInitStruct.PeriphClockSelection = RCC_PERIPHCLK_I2C3;
 230:Core/Src/stm32f7xx_hal_msp.c ****     PeriphClkInitStruct.I2c3ClockSelection = RCC_I2C3CLKSOURCE_PCLK1;
 231:Core/Src/stm32f7xx_hal_msp.c ****     if (HAL_RCCEx_PeriphCLKConfig(&PeriphClkInitStruct) != HAL_OK)
 232:Core/Src/stm32f7xx_hal_msp.c ****     {
 233:Core/Src/stm32f7xx_hal_msp.c ****       Error_Handler();
 234:Core/Src/stm32f7xx_hal_msp.c ****     }
ARM GAS  C:\Users\jisu8\AppData\Local\Temp\ccKgGJL7.s 			page 13


 235:Core/Src/stm32f7xx_hal_msp.c **** 
 236:Core/Src/stm32f7xx_hal_msp.c ****     __HAL_RCC_GPIOH_CLK_ENABLE();
 237:Core/Src/stm32f7xx_hal_msp.c ****     /**I2C3 GPIO Configuration
 238:Core/Src/stm32f7xx_hal_msp.c ****     PH7     ------> I2C3_SCL
 239:Core/Src/stm32f7xx_hal_msp.c ****     PH8     ------> I2C3_SDA
 240:Core/Src/stm32f7xx_hal_msp.c ****     */
 241:Core/Src/stm32f7xx_hal_msp.c ****     GPIO_InitStruct.Pin = LCD_SCL_Pin|LCD_SDA_Pin;
 242:Core/Src/stm32f7xx_hal_msp.c ****     GPIO_InitStruct.Mode = GPIO_MODE_AF_OD;
 243:Core/Src/stm32f7xx_hal_msp.c ****     GPIO_InitStruct.Pull = GPIO_PULLUP;
 244:Core/Src/stm32f7xx_hal_msp.c ****     GPIO_InitStruct.Speed = GPIO_SPEED_FREQ_VERY_HIGH;
 245:Core/Src/stm32f7xx_hal_msp.c ****     GPIO_InitStruct.Alternate = GPIO_AF4_I2C3;
 246:Core/Src/stm32f7xx_hal_msp.c ****     HAL_GPIO_Init(GPIOH, &GPIO_InitStruct);
 247:Core/Src/stm32f7xx_hal_msp.c **** 
 248:Core/Src/stm32f7xx_hal_msp.c ****     /* Peripheral clock enable */
 249:Core/Src/stm32f7xx_hal_msp.c ****     __HAL_RCC_I2C3_CLK_ENABLE();
 250:Core/Src/stm32f7xx_hal_msp.c ****   /* USER CODE BEGIN I2C3_MspInit 1 */
 251:Core/Src/stm32f7xx_hal_msp.c **** 
 252:Core/Src/stm32f7xx_hal_msp.c ****   /* USER CODE END I2C3_MspInit 1 */
 253:Core/Src/stm32f7xx_hal_msp.c ****   }
 254:Core/Src/stm32f7xx_hal_msp.c **** 
 255:Core/Src/stm32f7xx_hal_msp.c **** }
 462              		.loc 1 255 1
 463 00aa 42E0     		b	.L29
 464              	.L25:
 221:Core/Src/stm32f7xx_hal_msp.c ****   {
 465              		.loc 1 221 15
 466 00ac 7B68     		ldr	r3, [r7, #4]
 467 00ae 1B68     		ldr	r3, [r3]
 221:Core/Src/stm32f7xx_hal_msp.c ****   {
 468              		.loc 1 221 10
 469 00b0 254A     		ldr	r2, .L30+12
 470 00b2 9342     		cmp	r3, r2
 471 00b4 3DD1     		bne	.L29
 229:Core/Src/stm32f7xx_hal_msp.c ****     PeriphClkInitStruct.I2c3ClockSelection = RCC_I2C3CLKSOURCE_PCLK1;
 472              		.loc 1 229 46
 473 00b6 4FF48033 		mov	r3, #65536
 474 00ba BB61     		str	r3, [r7, #24]
 230:Core/Src/stm32f7xx_hal_msp.c ****     if (HAL_RCCEx_PeriphCLKConfig(&PeriphClkInitStruct) != HAL_OK)
 475              		.loc 1 230 44
 476 00bc 0023     		movs	r3, #0
 477 00be C7F88430 		str	r3, [r7, #132]
 231:Core/Src/stm32f7xx_hal_msp.c ****     {
 478              		.loc 1 231 9
 479 00c2 07F11803 		add	r3, r7, #24
 480 00c6 1846     		mov	r0, r3
 481 00c8 FFF7FEFF 		bl	HAL_RCCEx_PeriphCLKConfig
 482 00cc 0346     		mov	r3, r0
 231:Core/Src/stm32f7xx_hal_msp.c ****     {
 483              		.loc 1 231 8
 484 00ce 002B     		cmp	r3, #0
 485 00d0 01D0     		beq	.L28
 233:Core/Src/stm32f7xx_hal_msp.c ****     }
 486              		.loc 1 233 7
 487 00d2 FFF7FEFF 		bl	Error_Handler
 488              	.L28:
 489              	.LBB8:
 236:Core/Src/stm32f7xx_hal_msp.c ****     /**I2C3 GPIO Configuration
ARM GAS  C:\Users\jisu8\AppData\Local\Temp\ccKgGJL7.s 			page 14


 490              		.loc 1 236 5
 491 00d6 1A4B     		ldr	r3, .L30+4
 492 00d8 1B6B     		ldr	r3, [r3, #48]
 493 00da 194A     		ldr	r2, .L30+4
 494 00dc 43F08003 		orr	r3, r3, #128
 495 00e0 1363     		str	r3, [r2, #48]
 496 00e2 174B     		ldr	r3, .L30+4
 497 00e4 1B6B     		ldr	r3, [r3, #48]
 498 00e6 03F08003 		and	r3, r3, #128
 499 00ea FB60     		str	r3, [r7, #12]
 500 00ec FB68     		ldr	r3, [r7, #12]
 501              	.LBE8:
 241:Core/Src/stm32f7xx_hal_msp.c ****     GPIO_InitStruct.Mode = GPIO_MODE_AF_OD;
 502              		.loc 1 241 25
 503 00ee 4FF4C073 		mov	r3, #384
 504 00f2 C7F89C30 		str	r3, [r7, #156]
 242:Core/Src/stm32f7xx_hal_msp.c ****     GPIO_InitStruct.Pull = GPIO_PULLUP;
 505              		.loc 1 242 26
 506 00f6 1223     		movs	r3, #18
 507 00f8 C7F8A030 		str	r3, [r7, #160]
 243:Core/Src/stm32f7xx_hal_msp.c ****     GPIO_InitStruct.Speed = GPIO_SPEED_FREQ_VERY_HIGH;
 508              		.loc 1 243 26
 509 00fc 0123     		movs	r3, #1
 510 00fe C7F8A430 		str	r3, [r7, #164]
 244:Core/Src/stm32f7xx_hal_msp.c ****     GPIO_InitStruct.Alternate = GPIO_AF4_I2C3;
 511              		.loc 1 244 27
 512 0102 0323     		movs	r3, #3
 513 0104 C7F8A830 		str	r3, [r7, #168]
 245:Core/Src/stm32f7xx_hal_msp.c ****     HAL_GPIO_Init(GPIOH, &GPIO_InitStruct);
 514              		.loc 1 245 31
 515 0108 0423     		movs	r3, #4
 516 010a C7F8AC30 		str	r3, [r7, #172]
 246:Core/Src/stm32f7xx_hal_msp.c **** 
 517              		.loc 1 246 5
 518 010e 07F19C03 		add	r3, r7, #156
 519 0112 1946     		mov	r1, r3
 520 0114 0D48     		ldr	r0, .L30+16
 521 0116 FFF7FEFF 		bl	HAL_GPIO_Init
 522              	.LBB9:
 249:Core/Src/stm32f7xx_hal_msp.c ****   /* USER CODE BEGIN I2C3_MspInit 1 */
 523              		.loc 1 249 5
 524 011a 094B     		ldr	r3, .L30+4
 525 011c 1B6C     		ldr	r3, [r3, #64]
 526 011e 084A     		ldr	r2, .L30+4
 527 0120 43F40003 		orr	r3, r3, #8388608
 528 0124 1364     		str	r3, [r2, #64]
 529 0126 064B     		ldr	r3, .L30+4
 530 0128 1B6C     		ldr	r3, [r3, #64]
 531 012a 03F40003 		and	r3, r3, #8388608
 532 012e BB60     		str	r3, [r7, #8]
 533 0130 BB68     		ldr	r3, [r7, #8]
 534              	.L29:
 535              	.LBE9:
 536              		.loc 1 255 1
 537 0132 00BF     		nop
 538 0134 B037     		adds	r7, r7, #176
 539              	.LCFI30:
ARM GAS  C:\Users\jisu8\AppData\Local\Temp\ccKgGJL7.s 			page 15


 540              		.cfi_def_cfa_offset 8
 541 0136 BD46     		mov	sp, r7
 542              	.LCFI31:
 543              		.cfi_def_cfa_register 13
 544              		@ sp needed
 545 0138 80BD     		pop	{r7, pc}
 546              	.L31:
 547 013a 00BF     		.align	2
 548              	.L30:
 549 013c 00540040 		.word	1073763328
 550 0140 00380240 		.word	1073887232
 551 0144 00040240 		.word	1073873920
 552 0148 005C0040 		.word	1073765376
 553 014c 001C0240 		.word	1073880064
 554              		.cfi_endproc
 555              	.LFE149:
 557              		.section	.text.HAL_I2C_MspDeInit,"ax",%progbits
 558              		.align	1
 559              		.global	HAL_I2C_MspDeInit
 560              		.syntax unified
 561              		.thumb
 562              		.thumb_func
 564              	HAL_I2C_MspDeInit:
 565              	.LFB150:
 256:Core/Src/stm32f7xx_hal_msp.c **** 
 257:Core/Src/stm32f7xx_hal_msp.c **** /**
 258:Core/Src/stm32f7xx_hal_msp.c **** * @brief I2C MSP De-Initialization
 259:Core/Src/stm32f7xx_hal_msp.c **** * This function freeze the hardware resources used in this example
 260:Core/Src/stm32f7xx_hal_msp.c **** * @param hi2c: I2C handle pointer
 261:Core/Src/stm32f7xx_hal_msp.c **** * @retval None
 262:Core/Src/stm32f7xx_hal_msp.c **** */
 263:Core/Src/stm32f7xx_hal_msp.c **** void HAL_I2C_MspDeInit(I2C_HandleTypeDef* hi2c)
 264:Core/Src/stm32f7xx_hal_msp.c **** {
 566              		.loc 1 264 1
 567              		.cfi_startproc
 568              		@ args = 0, pretend = 0, frame = 8
 569              		@ frame_needed = 1, uses_anonymous_args = 0
 570 0000 80B5     		push	{r7, lr}
 571              	.LCFI32:
 572              		.cfi_def_cfa_offset 8
 573              		.cfi_offset 7, -8
 574              		.cfi_offset 14, -4
 575 0002 82B0     		sub	sp, sp, #8
 576              	.LCFI33:
 577              		.cfi_def_cfa_offset 16
 578 0004 00AF     		add	r7, sp, #0
 579              	.LCFI34:
 580              		.cfi_def_cfa_register 7
 581 0006 7860     		str	r0, [r7, #4]
 265:Core/Src/stm32f7xx_hal_msp.c ****   if(hi2c->Instance==I2C1)
 582              		.loc 1 265 10
 583 0008 7B68     		ldr	r3, [r7, #4]
 584 000a 1B68     		ldr	r3, [r3]
 585              		.loc 1 265 5
 586 000c 154A     		ldr	r2, .L36
 587 000e 9342     		cmp	r3, r2
 588 0010 10D1     		bne	.L33
ARM GAS  C:\Users\jisu8\AppData\Local\Temp\ccKgGJL7.s 			page 16


 266:Core/Src/stm32f7xx_hal_msp.c ****   {
 267:Core/Src/stm32f7xx_hal_msp.c ****   /* USER CODE BEGIN I2C1_MspDeInit 0 */
 268:Core/Src/stm32f7xx_hal_msp.c **** 
 269:Core/Src/stm32f7xx_hal_msp.c ****   /* USER CODE END I2C1_MspDeInit 0 */
 270:Core/Src/stm32f7xx_hal_msp.c ****     /* Peripheral clock disable */
 271:Core/Src/stm32f7xx_hal_msp.c ****     __HAL_RCC_I2C1_CLK_DISABLE();
 589              		.loc 1 271 5
 590 0012 154B     		ldr	r3, .L36+4
 591 0014 1B6C     		ldr	r3, [r3, #64]
 592 0016 144A     		ldr	r2, .L36+4
 593 0018 23F40013 		bic	r3, r3, #2097152
 594 001c 1364     		str	r3, [r2, #64]
 272:Core/Src/stm32f7xx_hal_msp.c **** 
 273:Core/Src/stm32f7xx_hal_msp.c ****     /**I2C1 GPIO Configuration
 274:Core/Src/stm32f7xx_hal_msp.c ****     PB8     ------> I2C1_SCL
 275:Core/Src/stm32f7xx_hal_msp.c ****     PB9     ------> I2C1_SDA
 276:Core/Src/stm32f7xx_hal_msp.c ****     */
 277:Core/Src/stm32f7xx_hal_msp.c ****     HAL_GPIO_DeInit(ARDUINO_SCL_D15_GPIO_Port, ARDUINO_SCL_D15_Pin);
 595              		.loc 1 277 5
 596 001e 4FF48071 		mov	r1, #256
 597 0022 1248     		ldr	r0, .L36+8
 598 0024 FFF7FEFF 		bl	HAL_GPIO_DeInit
 278:Core/Src/stm32f7xx_hal_msp.c **** 
 279:Core/Src/stm32f7xx_hal_msp.c ****     HAL_GPIO_DeInit(ARDUINO_SDA_D14_GPIO_Port, ARDUINO_SDA_D14_Pin);
 599              		.loc 1 279 5
 600 0028 4FF40071 		mov	r1, #512
 601 002c 0F48     		ldr	r0, .L36+8
 602 002e FFF7FEFF 		bl	HAL_GPIO_DeInit
 280:Core/Src/stm32f7xx_hal_msp.c **** 
 281:Core/Src/stm32f7xx_hal_msp.c ****   /* USER CODE BEGIN I2C1_MspDeInit 1 */
 282:Core/Src/stm32f7xx_hal_msp.c **** 
 283:Core/Src/stm32f7xx_hal_msp.c ****   /* USER CODE END I2C1_MspDeInit 1 */
 284:Core/Src/stm32f7xx_hal_msp.c ****   }
 285:Core/Src/stm32f7xx_hal_msp.c ****   else if(hi2c->Instance==I2C3)
 286:Core/Src/stm32f7xx_hal_msp.c ****   {
 287:Core/Src/stm32f7xx_hal_msp.c ****   /* USER CODE BEGIN I2C3_MspDeInit 0 */
 288:Core/Src/stm32f7xx_hal_msp.c **** 
 289:Core/Src/stm32f7xx_hal_msp.c ****   /* USER CODE END I2C3_MspDeInit 0 */
 290:Core/Src/stm32f7xx_hal_msp.c ****     /* Peripheral clock disable */
 291:Core/Src/stm32f7xx_hal_msp.c ****     __HAL_RCC_I2C3_CLK_DISABLE();
 292:Core/Src/stm32f7xx_hal_msp.c **** 
 293:Core/Src/stm32f7xx_hal_msp.c ****     /**I2C3 GPIO Configuration
 294:Core/Src/stm32f7xx_hal_msp.c ****     PH7     ------> I2C3_SCL
 295:Core/Src/stm32f7xx_hal_msp.c ****     PH8     ------> I2C3_SDA
 296:Core/Src/stm32f7xx_hal_msp.c ****     */
 297:Core/Src/stm32f7xx_hal_msp.c ****     HAL_GPIO_DeInit(LCD_SCL_GPIO_Port, LCD_SCL_Pin);
 298:Core/Src/stm32f7xx_hal_msp.c **** 
 299:Core/Src/stm32f7xx_hal_msp.c ****     HAL_GPIO_DeInit(LCD_SDA_GPIO_Port, LCD_SDA_Pin);
 300:Core/Src/stm32f7xx_hal_msp.c **** 
 301:Core/Src/stm32f7xx_hal_msp.c ****   /* USER CODE BEGIN I2C3_MspDeInit 1 */
 302:Core/Src/stm32f7xx_hal_msp.c **** 
 303:Core/Src/stm32f7xx_hal_msp.c ****   /* USER CODE END I2C3_MspDeInit 1 */
 304:Core/Src/stm32f7xx_hal_msp.c ****   }
 305:Core/Src/stm32f7xx_hal_msp.c **** 
 306:Core/Src/stm32f7xx_hal_msp.c **** }
 603              		.loc 1 306 1
 604 0032 13E0     		b	.L35
ARM GAS  C:\Users\jisu8\AppData\Local\Temp\ccKgGJL7.s 			page 17


 605              	.L33:
 285:Core/Src/stm32f7xx_hal_msp.c ****   {
 606              		.loc 1 285 15
 607 0034 7B68     		ldr	r3, [r7, #4]
 608 0036 1B68     		ldr	r3, [r3]
 285:Core/Src/stm32f7xx_hal_msp.c ****   {
 609              		.loc 1 285 10
 610 0038 0D4A     		ldr	r2, .L36+12
 611 003a 9342     		cmp	r3, r2
 612 003c 0ED1     		bne	.L35
 291:Core/Src/stm32f7xx_hal_msp.c **** 
 613              		.loc 1 291 5
 614 003e 0A4B     		ldr	r3, .L36+4
 615 0040 1B6C     		ldr	r3, [r3, #64]
 616 0042 094A     		ldr	r2, .L36+4
 617 0044 23F40003 		bic	r3, r3, #8388608
 618 0048 1364     		str	r3, [r2, #64]
 297:Core/Src/stm32f7xx_hal_msp.c **** 
 619              		.loc 1 297 5
 620 004a 8021     		movs	r1, #128
 621 004c 0948     		ldr	r0, .L36+16
 622 004e FFF7FEFF 		bl	HAL_GPIO_DeInit
 299:Core/Src/stm32f7xx_hal_msp.c **** 
 623              		.loc 1 299 5
 624 0052 4FF48071 		mov	r1, #256
 625 0056 0748     		ldr	r0, .L36+16
 626 0058 FFF7FEFF 		bl	HAL_GPIO_DeInit
 627              	.L35:
 628              		.loc 1 306 1
 629 005c 00BF     		nop
 630 005e 0837     		adds	r7, r7, #8
 631              	.LCFI35:
 632              		.cfi_def_cfa_offset 8
 633 0060 BD46     		mov	sp, r7
 634              	.LCFI36:
 635              		.cfi_def_cfa_register 13
 636              		@ sp needed
 637 0062 80BD     		pop	{r7, pc}
 638              	.L37:
 639              		.align	2
 640              	.L36:
 641 0064 00540040 		.word	1073763328
 642 0068 00380240 		.word	1073887232
 643 006c 00040240 		.word	1073873920
 644 0070 005C0040 		.word	1073765376
 645 0074 001C0240 		.word	1073880064
 646              		.cfi_endproc
 647              	.LFE150:
 649              		.section	.text.HAL_LTDC_MspInit,"ax",%progbits
 650              		.align	1
 651              		.global	HAL_LTDC_MspInit
 652              		.syntax unified
 653              		.thumb
 654              		.thumb_func
 656              	HAL_LTDC_MspInit:
 657              	.LFB151:
 307:Core/Src/stm32f7xx_hal_msp.c **** 
ARM GAS  C:\Users\jisu8\AppData\Local\Temp\ccKgGJL7.s 			page 18


 308:Core/Src/stm32f7xx_hal_msp.c **** /**
 309:Core/Src/stm32f7xx_hal_msp.c **** * @brief LTDC MSP Initialization
 310:Core/Src/stm32f7xx_hal_msp.c **** * This function configures the hardware resources used in this example
 311:Core/Src/stm32f7xx_hal_msp.c **** * @param hltdc: LTDC handle pointer
 312:Core/Src/stm32f7xx_hal_msp.c **** * @retval None
 313:Core/Src/stm32f7xx_hal_msp.c **** */
 314:Core/Src/stm32f7xx_hal_msp.c **** void HAL_LTDC_MspInit(LTDC_HandleTypeDef* hltdc)
 315:Core/Src/stm32f7xx_hal_msp.c **** {
 658              		.loc 1 315 1
 659              		.cfi_startproc
 660              		@ args = 0, pretend = 0, frame = 56
 661              		@ frame_needed = 1, uses_anonymous_args = 0
 662 0000 80B5     		push	{r7, lr}
 663              	.LCFI37:
 664              		.cfi_def_cfa_offset 8
 665              		.cfi_offset 7, -8
 666              		.cfi_offset 14, -4
 667 0002 8EB0     		sub	sp, sp, #56
 668              	.LCFI38:
 669              		.cfi_def_cfa_offset 64
 670 0004 00AF     		add	r7, sp, #0
 671              	.LCFI39:
 672              		.cfi_def_cfa_register 7
 673 0006 7860     		str	r0, [r7, #4]
 316:Core/Src/stm32f7xx_hal_msp.c ****   GPIO_InitTypeDef GPIO_InitStruct = {0};
 674              		.loc 1 316 20
 675 0008 07F12403 		add	r3, r7, #36
 676 000c 0022     		movs	r2, #0
 677 000e 1A60     		str	r2, [r3]
 678 0010 5A60     		str	r2, [r3, #4]
 679 0012 9A60     		str	r2, [r3, #8]
 680 0014 DA60     		str	r2, [r3, #12]
 681 0016 1A61     		str	r2, [r3, #16]
 317:Core/Src/stm32f7xx_hal_msp.c ****   if(hltdc->Instance==LTDC)
 682              		.loc 1 317 11
 683 0018 7B68     		ldr	r3, [r7, #4]
 684 001a 1B68     		ldr	r3, [r3]
 685              		.loc 1 317 5
 686 001c 554A     		ldr	r2, .L41
 687 001e 9342     		cmp	r3, r2
 688 0020 40F0A380 		bne	.L40
 689              	.LBB10:
 318:Core/Src/stm32f7xx_hal_msp.c ****   {
 319:Core/Src/stm32f7xx_hal_msp.c ****   /* USER CODE BEGIN LTDC_MspInit 0 */
 320:Core/Src/stm32f7xx_hal_msp.c **** 
 321:Core/Src/stm32f7xx_hal_msp.c ****   /* USER CODE END LTDC_MspInit 0 */
 322:Core/Src/stm32f7xx_hal_msp.c ****     /* Peripheral clock enable */
 323:Core/Src/stm32f7xx_hal_msp.c ****     __HAL_RCC_LTDC_CLK_ENABLE();
 690              		.loc 1 323 5
 691 0024 544B     		ldr	r3, .L41+4
 692 0026 5B6C     		ldr	r3, [r3, #68]
 693 0028 534A     		ldr	r2, .L41+4
 694 002a 43F08063 		orr	r3, r3, #67108864
 695 002e 5364     		str	r3, [r2, #68]
 696 0030 514B     		ldr	r3, .L41+4
 697 0032 5B6C     		ldr	r3, [r3, #68]
 698 0034 03F08063 		and	r3, r3, #67108864
ARM GAS  C:\Users\jisu8\AppData\Local\Temp\ccKgGJL7.s 			page 19


 699 0038 3B62     		str	r3, [r7, #32]
 700 003a 3B6A     		ldr	r3, [r7, #32]
 701              	.LBE10:
 702              	.LBB11:
 324:Core/Src/stm32f7xx_hal_msp.c **** 
 325:Core/Src/stm32f7xx_hal_msp.c ****     __HAL_RCC_GPIOE_CLK_ENABLE();
 703              		.loc 1 325 5
 704 003c 4E4B     		ldr	r3, .L41+4
 705 003e 1B6B     		ldr	r3, [r3, #48]
 706 0040 4D4A     		ldr	r2, .L41+4
 707 0042 43F01003 		orr	r3, r3, #16
 708 0046 1363     		str	r3, [r2, #48]
 709 0048 4B4B     		ldr	r3, .L41+4
 710 004a 1B6B     		ldr	r3, [r3, #48]
 711 004c 03F01003 		and	r3, r3, #16
 712 0050 FB61     		str	r3, [r7, #28]
 713 0052 FB69     		ldr	r3, [r7, #28]
 714              	.LBE11:
 715              	.LBB12:
 326:Core/Src/stm32f7xx_hal_msp.c ****     __HAL_RCC_GPIOJ_CLK_ENABLE();
 716              		.loc 1 326 5
 717 0054 484B     		ldr	r3, .L41+4
 718 0056 1B6B     		ldr	r3, [r3, #48]
 719 0058 474A     		ldr	r2, .L41+4
 720 005a 43F40073 		orr	r3, r3, #512
 721 005e 1363     		str	r3, [r2, #48]
 722 0060 454B     		ldr	r3, .L41+4
 723 0062 1B6B     		ldr	r3, [r3, #48]
 724 0064 03F40073 		and	r3, r3, #512
 725 0068 BB61     		str	r3, [r7, #24]
 726 006a BB69     		ldr	r3, [r7, #24]
 727              	.LBE12:
 728              	.LBB13:
 327:Core/Src/stm32f7xx_hal_msp.c ****     __HAL_RCC_GPIOK_CLK_ENABLE();
 729              		.loc 1 327 5
 730 006c 424B     		ldr	r3, .L41+4
 731 006e 1B6B     		ldr	r3, [r3, #48]
 732 0070 414A     		ldr	r2, .L41+4
 733 0072 43F48063 		orr	r3, r3, #1024
 734 0076 1363     		str	r3, [r2, #48]
 735 0078 3F4B     		ldr	r3, .L41+4
 736 007a 1B6B     		ldr	r3, [r3, #48]
 737 007c 03F48063 		and	r3, r3, #1024
 738 0080 7B61     		str	r3, [r7, #20]
 739 0082 7B69     		ldr	r3, [r7, #20]
 740              	.LBE13:
 741              	.LBB14:
 328:Core/Src/stm32f7xx_hal_msp.c ****     __HAL_RCC_GPIOG_CLK_ENABLE();
 742              		.loc 1 328 5
 743 0084 3C4B     		ldr	r3, .L41+4
 744 0086 1B6B     		ldr	r3, [r3, #48]
 745 0088 3B4A     		ldr	r2, .L41+4
 746 008a 43F04003 		orr	r3, r3, #64
 747 008e 1363     		str	r3, [r2, #48]
 748 0090 394B     		ldr	r3, .L41+4
 749 0092 1B6B     		ldr	r3, [r3, #48]
 750 0094 03F04003 		and	r3, r3, #64
ARM GAS  C:\Users\jisu8\AppData\Local\Temp\ccKgGJL7.s 			page 20


 751 0098 3B61     		str	r3, [r7, #16]
 752 009a 3B69     		ldr	r3, [r7, #16]
 753              	.LBE14:
 754              	.LBB15:
 329:Core/Src/stm32f7xx_hal_msp.c ****     __HAL_RCC_GPIOI_CLK_ENABLE();
 755              		.loc 1 329 5
 756 009c 364B     		ldr	r3, .L41+4
 757 009e 1B6B     		ldr	r3, [r3, #48]
 758 00a0 354A     		ldr	r2, .L41+4
 759 00a2 43F48073 		orr	r3, r3, #256
 760 00a6 1363     		str	r3, [r2, #48]
 761 00a8 334B     		ldr	r3, .L41+4
 762 00aa 1B6B     		ldr	r3, [r3, #48]
 763 00ac 03F48073 		and	r3, r3, #256
 764 00b0 FB60     		str	r3, [r7, #12]
 765 00b2 FB68     		ldr	r3, [r7, #12]
 766              	.LBE15:
 330:Core/Src/stm32f7xx_hal_msp.c ****     /**LTDC GPIO Configuration
 331:Core/Src/stm32f7xx_hal_msp.c ****     PE4     ------> LTDC_B0
 332:Core/Src/stm32f7xx_hal_msp.c ****     PJ13     ------> LTDC_B1
 333:Core/Src/stm32f7xx_hal_msp.c ****     PK7     ------> LTDC_DE
 334:Core/Src/stm32f7xx_hal_msp.c ****     PK6     ------> LTDC_B7
 335:Core/Src/stm32f7xx_hal_msp.c ****     PK5     ------> LTDC_B6
 336:Core/Src/stm32f7xx_hal_msp.c ****     PG12     ------> LTDC_B4
 337:Core/Src/stm32f7xx_hal_msp.c ****     PJ14     ------> LTDC_B2
 338:Core/Src/stm32f7xx_hal_msp.c ****     PI10     ------> LTDC_HSYNC
 339:Core/Src/stm32f7xx_hal_msp.c ****     PK4     ------> LTDC_B5
 340:Core/Src/stm32f7xx_hal_msp.c ****     PJ15     ------> LTDC_B3
 341:Core/Src/stm32f7xx_hal_msp.c ****     PI9     ------> LTDC_VSYNC
 342:Core/Src/stm32f7xx_hal_msp.c ****     PK1     ------> LTDC_G6
 343:Core/Src/stm32f7xx_hal_msp.c ****     PK2     ------> LTDC_G7
 344:Core/Src/stm32f7xx_hal_msp.c ****     PI15     ------> LTDC_R0
 345:Core/Src/stm32f7xx_hal_msp.c ****     PJ11     ------> LTDC_G4
 346:Core/Src/stm32f7xx_hal_msp.c ****     PK0     ------> LTDC_G5
 347:Core/Src/stm32f7xx_hal_msp.c ****     PI14     ------> LTDC_CLK
 348:Core/Src/stm32f7xx_hal_msp.c ****     PJ8     ------> LTDC_G1
 349:Core/Src/stm32f7xx_hal_msp.c ****     PJ10     ------> LTDC_G3
 350:Core/Src/stm32f7xx_hal_msp.c ****     PJ7     ------> LTDC_G0
 351:Core/Src/stm32f7xx_hal_msp.c ****     PJ9     ------> LTDC_G2
 352:Core/Src/stm32f7xx_hal_msp.c ****     PJ6     ------> LTDC_R7
 353:Core/Src/stm32f7xx_hal_msp.c ****     PJ4     ------> LTDC_R5
 354:Core/Src/stm32f7xx_hal_msp.c ****     PJ5     ------> LTDC_R6
 355:Core/Src/stm32f7xx_hal_msp.c ****     PJ3     ------> LTDC_R4
 356:Core/Src/stm32f7xx_hal_msp.c ****     PJ2     ------> LTDC_R3
 357:Core/Src/stm32f7xx_hal_msp.c ****     PJ0     ------> LTDC_R1
 358:Core/Src/stm32f7xx_hal_msp.c ****     PJ1     ------> LTDC_R2
 359:Core/Src/stm32f7xx_hal_msp.c ****     */
 360:Core/Src/stm32f7xx_hal_msp.c ****     GPIO_InitStruct.Pin = LCD_B0_Pin;
 767              		.loc 1 360 25
 768 00b4 1023     		movs	r3, #16
 769 00b6 7B62     		str	r3, [r7, #36]
 361:Core/Src/stm32f7xx_hal_msp.c ****     GPIO_InitStruct.Mode = GPIO_MODE_AF_PP;
 770              		.loc 1 361 26
 771 00b8 0223     		movs	r3, #2
 772 00ba BB62     		str	r3, [r7, #40]
 362:Core/Src/stm32f7xx_hal_msp.c ****     GPIO_InitStruct.Pull = GPIO_NOPULL;
 773              		.loc 1 362 26
ARM GAS  C:\Users\jisu8\AppData\Local\Temp\ccKgGJL7.s 			page 21


 774 00bc 0023     		movs	r3, #0
 775 00be FB62     		str	r3, [r7, #44]
 363:Core/Src/stm32f7xx_hal_msp.c ****     GPIO_InitStruct.Speed = GPIO_SPEED_FREQ_VERY_HIGH;
 776              		.loc 1 363 27
 777 00c0 0323     		movs	r3, #3
 778 00c2 3B63     		str	r3, [r7, #48]
 364:Core/Src/stm32f7xx_hal_msp.c ****     GPIO_InitStruct.Alternate = GPIO_AF14_LTDC;
 779              		.loc 1 364 31
 780 00c4 0E23     		movs	r3, #14
 781 00c6 7B63     		str	r3, [r7, #52]
 365:Core/Src/stm32f7xx_hal_msp.c ****     HAL_GPIO_Init(LCD_B0_GPIO_Port, &GPIO_InitStruct);
 782              		.loc 1 365 5
 783 00c8 07F12403 		add	r3, r7, #36
 784 00cc 1946     		mov	r1, r3
 785 00ce 2B48     		ldr	r0, .L41+8
 786 00d0 FFF7FEFF 		bl	HAL_GPIO_Init
 366:Core/Src/stm32f7xx_hal_msp.c **** 
 367:Core/Src/stm32f7xx_hal_msp.c ****     GPIO_InitStruct.Pin = LCD_B1_Pin|LCD_B2_Pin|LCD_B3_Pin|LCD_G4_Pin
 787              		.loc 1 367 25
 788 00d4 4EF6FF73 		movw	r3, #61439
 789 00d8 7B62     		str	r3, [r7, #36]
 368:Core/Src/stm32f7xx_hal_msp.c ****                           |LCD_G1_Pin|LCD_G3_Pin|LCD_G0_Pin|LCD_G2_Pin
 369:Core/Src/stm32f7xx_hal_msp.c ****                           |LCD_R7_Pin|LCD_R5_Pin|LCD_R6_Pin|LCD_R4_Pin
 370:Core/Src/stm32f7xx_hal_msp.c ****                           |LCD_R3_Pin|LCD_R1_Pin|LCD_R2_Pin;
 371:Core/Src/stm32f7xx_hal_msp.c ****     GPIO_InitStruct.Mode = GPIO_MODE_AF_PP;
 790              		.loc 1 371 26
 791 00da 0223     		movs	r3, #2
 792 00dc BB62     		str	r3, [r7, #40]
 372:Core/Src/stm32f7xx_hal_msp.c ****     GPIO_InitStruct.Pull = GPIO_NOPULL;
 793              		.loc 1 372 26
 794 00de 0023     		movs	r3, #0
 795 00e0 FB62     		str	r3, [r7, #44]
 373:Core/Src/stm32f7xx_hal_msp.c ****     GPIO_InitStruct.Speed = GPIO_SPEED_FREQ_VERY_HIGH;
 796              		.loc 1 373 27
 797 00e2 0323     		movs	r3, #3
 798 00e4 3B63     		str	r3, [r7, #48]
 374:Core/Src/stm32f7xx_hal_msp.c ****     GPIO_InitStruct.Alternate = GPIO_AF14_LTDC;
 799              		.loc 1 374 31
 800 00e6 0E23     		movs	r3, #14
 801 00e8 7B63     		str	r3, [r7, #52]
 375:Core/Src/stm32f7xx_hal_msp.c ****     HAL_GPIO_Init(GPIOJ, &GPIO_InitStruct);
 802              		.loc 1 375 5
 803 00ea 07F12403 		add	r3, r7, #36
 804 00ee 1946     		mov	r1, r3
 805 00f0 2348     		ldr	r0, .L41+12
 806 00f2 FFF7FEFF 		bl	HAL_GPIO_Init
 376:Core/Src/stm32f7xx_hal_msp.c **** 
 377:Core/Src/stm32f7xx_hal_msp.c ****     GPIO_InitStruct.Pin = LCD_DE_Pin|LCD_B7_Pin|LCD_B6_Pin|LCD_B5_Pin
 807              		.loc 1 377 25
 808 00f6 F723     		movs	r3, #247
 809 00f8 7B62     		str	r3, [r7, #36]
 378:Core/Src/stm32f7xx_hal_msp.c ****                           |LCD_G6_Pin|LCD_G7_Pin|LCD_G5_Pin;
 379:Core/Src/stm32f7xx_hal_msp.c ****     GPIO_InitStruct.Mode = GPIO_MODE_AF_PP;
 810              		.loc 1 379 26
 811 00fa 0223     		movs	r3, #2
 812 00fc BB62     		str	r3, [r7, #40]
 380:Core/Src/stm32f7xx_hal_msp.c ****     GPIO_InitStruct.Pull = GPIO_NOPULL;
ARM GAS  C:\Users\jisu8\AppData\Local\Temp\ccKgGJL7.s 			page 22


 813              		.loc 1 380 26
 814 00fe 0023     		movs	r3, #0
 815 0100 FB62     		str	r3, [r7, #44]
 381:Core/Src/stm32f7xx_hal_msp.c ****     GPIO_InitStruct.Speed = GPIO_SPEED_FREQ_VERY_HIGH;
 816              		.loc 1 381 27
 817 0102 0323     		movs	r3, #3
 818 0104 3B63     		str	r3, [r7, #48]
 382:Core/Src/stm32f7xx_hal_msp.c ****     GPIO_InitStruct.Alternate = GPIO_AF14_LTDC;
 819              		.loc 1 382 31
 820 0106 0E23     		movs	r3, #14
 821 0108 7B63     		str	r3, [r7, #52]
 383:Core/Src/stm32f7xx_hal_msp.c ****     HAL_GPIO_Init(GPIOK, &GPIO_InitStruct);
 822              		.loc 1 383 5
 823 010a 07F12403 		add	r3, r7, #36
 824 010e 1946     		mov	r1, r3
 825 0110 1C48     		ldr	r0, .L41+16
 826 0112 FFF7FEFF 		bl	HAL_GPIO_Init
 384:Core/Src/stm32f7xx_hal_msp.c **** 
 385:Core/Src/stm32f7xx_hal_msp.c ****     GPIO_InitStruct.Pin = LCD_B4_Pin;
 827              		.loc 1 385 25
 828 0116 4FF48053 		mov	r3, #4096
 829 011a 7B62     		str	r3, [r7, #36]
 386:Core/Src/stm32f7xx_hal_msp.c ****     GPIO_InitStruct.Mode = GPIO_MODE_AF_PP;
 830              		.loc 1 386 26
 831 011c 0223     		movs	r3, #2
 832 011e BB62     		str	r3, [r7, #40]
 387:Core/Src/stm32f7xx_hal_msp.c ****     GPIO_InitStruct.Pull = GPIO_NOPULL;
 833              		.loc 1 387 26
 834 0120 0023     		movs	r3, #0
 835 0122 FB62     		str	r3, [r7, #44]
 388:Core/Src/stm32f7xx_hal_msp.c ****     GPIO_InitStruct.Speed = GPIO_SPEED_FREQ_VERY_HIGH;
 836              		.loc 1 388 27
 837 0124 0323     		movs	r3, #3
 838 0126 3B63     		str	r3, [r7, #48]
 389:Core/Src/stm32f7xx_hal_msp.c ****     GPIO_InitStruct.Alternate = GPIO_AF9_LTDC;
 839              		.loc 1 389 31
 840 0128 0923     		movs	r3, #9
 841 012a 7B63     		str	r3, [r7, #52]
 390:Core/Src/stm32f7xx_hal_msp.c ****     HAL_GPIO_Init(LCD_B4_GPIO_Port, &GPIO_InitStruct);
 842              		.loc 1 390 5
 843 012c 07F12403 		add	r3, r7, #36
 844 0130 1946     		mov	r1, r3
 845 0132 1548     		ldr	r0, .L41+20
 846 0134 FFF7FEFF 		bl	HAL_GPIO_Init
 391:Core/Src/stm32f7xx_hal_msp.c **** 
 392:Core/Src/stm32f7xx_hal_msp.c ****     GPIO_InitStruct.Pin = LCD_HSYNC_Pin|LCD_VSYNC_Pin|LCD_R0_Pin|LCD_CLK_Pin;
 847              		.loc 1 392 25
 848 0138 4FF44643 		mov	r3, #50688
 849 013c 7B62     		str	r3, [r7, #36]
 393:Core/Src/stm32f7xx_hal_msp.c ****     GPIO_InitStruct.Mode = GPIO_MODE_AF_PP;
 850              		.loc 1 393 26
 851 013e 0223     		movs	r3, #2
 852 0140 BB62     		str	r3, [r7, #40]
 394:Core/Src/stm32f7xx_hal_msp.c ****     GPIO_InitStruct.Pull = GPIO_NOPULL;
 853              		.loc 1 394 26
 854 0142 0023     		movs	r3, #0
 855 0144 FB62     		str	r3, [r7, #44]
ARM GAS  C:\Users\jisu8\AppData\Local\Temp\ccKgGJL7.s 			page 23


 395:Core/Src/stm32f7xx_hal_msp.c ****     GPIO_InitStruct.Speed = GPIO_SPEED_FREQ_VERY_HIGH;
 856              		.loc 1 395 27
 857 0146 0323     		movs	r3, #3
 858 0148 3B63     		str	r3, [r7, #48]
 396:Core/Src/stm32f7xx_hal_msp.c ****     GPIO_InitStruct.Alternate = GPIO_AF14_LTDC;
 859              		.loc 1 396 31
 860 014a 0E23     		movs	r3, #14
 861 014c 7B63     		str	r3, [r7, #52]
 397:Core/Src/stm32f7xx_hal_msp.c ****     HAL_GPIO_Init(GPIOI, &GPIO_InitStruct);
 862              		.loc 1 397 5
 863 014e 07F12403 		add	r3, r7, #36
 864 0152 1946     		mov	r1, r3
 865 0154 0D48     		ldr	r0, .L41+24
 866 0156 FFF7FEFF 		bl	HAL_GPIO_Init
 398:Core/Src/stm32f7xx_hal_msp.c **** 
 399:Core/Src/stm32f7xx_hal_msp.c ****     /* LTDC interrupt Init */
 400:Core/Src/stm32f7xx_hal_msp.c ****     HAL_NVIC_SetPriority(LTDC_IRQn, 5, 0);
 867              		.loc 1 400 5
 868 015a 0022     		movs	r2, #0
 869 015c 0521     		movs	r1, #5
 870 015e 5820     		movs	r0, #88
 871 0160 FFF7FEFF 		bl	HAL_NVIC_SetPriority
 401:Core/Src/stm32f7xx_hal_msp.c ****     HAL_NVIC_EnableIRQ(LTDC_IRQn);
 872              		.loc 1 401 5
 873 0164 5820     		movs	r0, #88
 874 0166 FFF7FEFF 		bl	HAL_NVIC_EnableIRQ
 875              	.L40:
 402:Core/Src/stm32f7xx_hal_msp.c ****   /* USER CODE BEGIN LTDC_MspInit 1 */
 403:Core/Src/stm32f7xx_hal_msp.c **** 
 404:Core/Src/stm32f7xx_hal_msp.c ****   /* USER CODE END LTDC_MspInit 1 */
 405:Core/Src/stm32f7xx_hal_msp.c ****   }
 406:Core/Src/stm32f7xx_hal_msp.c **** 
 407:Core/Src/stm32f7xx_hal_msp.c **** }
 876              		.loc 1 407 1
 877 016a 00BF     		nop
 878 016c 3837     		adds	r7, r7, #56
 879              	.LCFI40:
 880              		.cfi_def_cfa_offset 8
 881 016e BD46     		mov	sp, r7
 882              	.LCFI41:
 883              		.cfi_def_cfa_register 13
 884              		@ sp needed
 885 0170 80BD     		pop	{r7, pc}
 886              	.L42:
 887 0172 00BF     		.align	2
 888              	.L41:
 889 0174 00680140 		.word	1073833984
 890 0178 00380240 		.word	1073887232
 891 017c 00100240 		.word	1073876992
 892 0180 00240240 		.word	1073882112
 893 0184 00280240 		.word	1073883136
 894 0188 00180240 		.word	1073879040
 895 018c 00200240 		.word	1073881088
 896              		.cfi_endproc
 897              	.LFE151:
 899              		.section	.text.HAL_LTDC_MspDeInit,"ax",%progbits
 900              		.align	1
ARM GAS  C:\Users\jisu8\AppData\Local\Temp\ccKgGJL7.s 			page 24


 901              		.global	HAL_LTDC_MspDeInit
 902              		.syntax unified
 903              		.thumb
 904              		.thumb_func
 906              	HAL_LTDC_MspDeInit:
 907              	.LFB152:
 408:Core/Src/stm32f7xx_hal_msp.c **** 
 409:Core/Src/stm32f7xx_hal_msp.c **** /**
 410:Core/Src/stm32f7xx_hal_msp.c **** * @brief LTDC MSP De-Initialization
 411:Core/Src/stm32f7xx_hal_msp.c **** * This function freeze the hardware resources used in this example
 412:Core/Src/stm32f7xx_hal_msp.c **** * @param hltdc: LTDC handle pointer
 413:Core/Src/stm32f7xx_hal_msp.c **** * @retval None
 414:Core/Src/stm32f7xx_hal_msp.c **** */
 415:Core/Src/stm32f7xx_hal_msp.c **** void HAL_LTDC_MspDeInit(LTDC_HandleTypeDef* hltdc)
 416:Core/Src/stm32f7xx_hal_msp.c **** {
 908              		.loc 1 416 1
 909              		.cfi_startproc
 910              		@ args = 0, pretend = 0, frame = 8
 911              		@ frame_needed = 1, uses_anonymous_args = 0
 912 0000 80B5     		push	{r7, lr}
 913              	.LCFI42:
 914              		.cfi_def_cfa_offset 8
 915              		.cfi_offset 7, -8
 916              		.cfi_offset 14, -4
 917 0002 82B0     		sub	sp, sp, #8
 918              	.LCFI43:
 919              		.cfi_def_cfa_offset 16
 920 0004 00AF     		add	r7, sp, #0
 921              	.LCFI44:
 922              		.cfi_def_cfa_register 7
 923 0006 7860     		str	r0, [r7, #4]
 417:Core/Src/stm32f7xx_hal_msp.c ****   if(hltdc->Instance==LTDC)
 924              		.loc 1 417 11
 925 0008 7B68     		ldr	r3, [r7, #4]
 926 000a 1B68     		ldr	r3, [r3]
 927              		.loc 1 417 5
 928 000c 134A     		ldr	r2, .L46
 929 000e 9342     		cmp	r3, r2
 930 0010 1FD1     		bne	.L45
 418:Core/Src/stm32f7xx_hal_msp.c ****   {
 419:Core/Src/stm32f7xx_hal_msp.c ****   /* USER CODE BEGIN LTDC_MspDeInit 0 */
 420:Core/Src/stm32f7xx_hal_msp.c **** 
 421:Core/Src/stm32f7xx_hal_msp.c ****   /* USER CODE END LTDC_MspDeInit 0 */
 422:Core/Src/stm32f7xx_hal_msp.c ****     /* Peripheral clock disable */
 423:Core/Src/stm32f7xx_hal_msp.c ****     __HAL_RCC_LTDC_CLK_DISABLE();
 931              		.loc 1 423 5
 932 0012 134B     		ldr	r3, .L46+4
 933 0014 5B6C     		ldr	r3, [r3, #68]
 934 0016 124A     		ldr	r2, .L46+4
 935 0018 23F08063 		bic	r3, r3, #67108864
 936 001c 5364     		str	r3, [r2, #68]
 424:Core/Src/stm32f7xx_hal_msp.c **** 
 425:Core/Src/stm32f7xx_hal_msp.c ****     /**LTDC GPIO Configuration
 426:Core/Src/stm32f7xx_hal_msp.c ****     PE4     ------> LTDC_B0
 427:Core/Src/stm32f7xx_hal_msp.c ****     PJ13     ------> LTDC_B1
 428:Core/Src/stm32f7xx_hal_msp.c ****     PK7     ------> LTDC_DE
 429:Core/Src/stm32f7xx_hal_msp.c ****     PK6     ------> LTDC_B7
ARM GAS  C:\Users\jisu8\AppData\Local\Temp\ccKgGJL7.s 			page 25


 430:Core/Src/stm32f7xx_hal_msp.c ****     PK5     ------> LTDC_B6
 431:Core/Src/stm32f7xx_hal_msp.c ****     PG12     ------> LTDC_B4
 432:Core/Src/stm32f7xx_hal_msp.c ****     PJ14     ------> LTDC_B2
 433:Core/Src/stm32f7xx_hal_msp.c ****     PI10     ------> LTDC_HSYNC
 434:Core/Src/stm32f7xx_hal_msp.c ****     PK4     ------> LTDC_B5
 435:Core/Src/stm32f7xx_hal_msp.c ****     PJ15     ------> LTDC_B3
 436:Core/Src/stm32f7xx_hal_msp.c ****     PI9     ------> LTDC_VSYNC
 437:Core/Src/stm32f7xx_hal_msp.c ****     PK1     ------> LTDC_G6
 438:Core/Src/stm32f7xx_hal_msp.c ****     PK2     ------> LTDC_G7
 439:Core/Src/stm32f7xx_hal_msp.c ****     PI15     ------> LTDC_R0
 440:Core/Src/stm32f7xx_hal_msp.c ****     PJ11     ------> LTDC_G4
 441:Core/Src/stm32f7xx_hal_msp.c ****     PK0     ------> LTDC_G5
 442:Core/Src/stm32f7xx_hal_msp.c ****     PI14     ------> LTDC_CLK
 443:Core/Src/stm32f7xx_hal_msp.c ****     PJ8     ------> LTDC_G1
 444:Core/Src/stm32f7xx_hal_msp.c ****     PJ10     ------> LTDC_G3
 445:Core/Src/stm32f7xx_hal_msp.c ****     PJ7     ------> LTDC_G0
 446:Core/Src/stm32f7xx_hal_msp.c ****     PJ9     ------> LTDC_G2
 447:Core/Src/stm32f7xx_hal_msp.c ****     PJ6     ------> LTDC_R7
 448:Core/Src/stm32f7xx_hal_msp.c ****     PJ4     ------> LTDC_R5
 449:Core/Src/stm32f7xx_hal_msp.c ****     PJ5     ------> LTDC_R6
 450:Core/Src/stm32f7xx_hal_msp.c ****     PJ3     ------> LTDC_R4
 451:Core/Src/stm32f7xx_hal_msp.c ****     PJ2     ------> LTDC_R3
 452:Core/Src/stm32f7xx_hal_msp.c ****     PJ0     ------> LTDC_R1
 453:Core/Src/stm32f7xx_hal_msp.c ****     PJ1     ------> LTDC_R2
 454:Core/Src/stm32f7xx_hal_msp.c ****     */
 455:Core/Src/stm32f7xx_hal_msp.c ****     HAL_GPIO_DeInit(LCD_B0_GPIO_Port, LCD_B0_Pin);
 937              		.loc 1 455 5
 938 001e 1021     		movs	r1, #16
 939 0020 1048     		ldr	r0, .L46+8
 940 0022 FFF7FEFF 		bl	HAL_GPIO_DeInit
 456:Core/Src/stm32f7xx_hal_msp.c **** 
 457:Core/Src/stm32f7xx_hal_msp.c ****     HAL_GPIO_DeInit(GPIOJ, LCD_B1_Pin|LCD_B2_Pin|LCD_B3_Pin|LCD_G4_Pin
 941              		.loc 1 457 5
 942 0026 4EF6FF71 		movw	r1, #61439
 943 002a 0F48     		ldr	r0, .L46+12
 944 002c FFF7FEFF 		bl	HAL_GPIO_DeInit
 458:Core/Src/stm32f7xx_hal_msp.c ****                           |LCD_G1_Pin|LCD_G3_Pin|LCD_G0_Pin|LCD_G2_Pin
 459:Core/Src/stm32f7xx_hal_msp.c ****                           |LCD_R7_Pin|LCD_R5_Pin|LCD_R6_Pin|LCD_R4_Pin
 460:Core/Src/stm32f7xx_hal_msp.c ****                           |LCD_R3_Pin|LCD_R1_Pin|LCD_R2_Pin);
 461:Core/Src/stm32f7xx_hal_msp.c **** 
 462:Core/Src/stm32f7xx_hal_msp.c ****     HAL_GPIO_DeInit(GPIOK, LCD_DE_Pin|LCD_B7_Pin|LCD_B6_Pin|LCD_B5_Pin
 945              		.loc 1 462 5
 946 0030 F721     		movs	r1, #247
 947 0032 0E48     		ldr	r0, .L46+16
 948 0034 FFF7FEFF 		bl	HAL_GPIO_DeInit
 463:Core/Src/stm32f7xx_hal_msp.c ****                           |LCD_G6_Pin|LCD_G7_Pin|LCD_G5_Pin);
 464:Core/Src/stm32f7xx_hal_msp.c **** 
 465:Core/Src/stm32f7xx_hal_msp.c ****     HAL_GPIO_DeInit(LCD_B4_GPIO_Port, LCD_B4_Pin);
 949              		.loc 1 465 5
 950 0038 4FF48051 		mov	r1, #4096
 951 003c 0C48     		ldr	r0, .L46+20
 952 003e FFF7FEFF 		bl	HAL_GPIO_DeInit
 466:Core/Src/stm32f7xx_hal_msp.c **** 
 467:Core/Src/stm32f7xx_hal_msp.c ****     HAL_GPIO_DeInit(GPIOI, LCD_HSYNC_Pin|LCD_VSYNC_Pin|LCD_R0_Pin|LCD_CLK_Pin);
 953              		.loc 1 467 5
 954 0042 4FF44641 		mov	r1, #50688
 955 0046 0B48     		ldr	r0, .L46+24
ARM GAS  C:\Users\jisu8\AppData\Local\Temp\ccKgGJL7.s 			page 26


 956 0048 FFF7FEFF 		bl	HAL_GPIO_DeInit
 468:Core/Src/stm32f7xx_hal_msp.c **** 
 469:Core/Src/stm32f7xx_hal_msp.c ****     /* LTDC interrupt DeInit */
 470:Core/Src/stm32f7xx_hal_msp.c ****     HAL_NVIC_DisableIRQ(LTDC_IRQn);
 957              		.loc 1 470 5
 958 004c 5820     		movs	r0, #88
 959 004e FFF7FEFF 		bl	HAL_NVIC_DisableIRQ
 960              	.L45:
 471:Core/Src/stm32f7xx_hal_msp.c ****   /* USER CODE BEGIN LTDC_MspDeInit 1 */
 472:Core/Src/stm32f7xx_hal_msp.c **** 
 473:Core/Src/stm32f7xx_hal_msp.c ****   /* USER CODE END LTDC_MspDeInit 1 */
 474:Core/Src/stm32f7xx_hal_msp.c ****   }
 475:Core/Src/stm32f7xx_hal_msp.c **** 
 476:Core/Src/stm32f7xx_hal_msp.c **** }
 961              		.loc 1 476 1
 962 0052 00BF     		nop
 963 0054 0837     		adds	r7, r7, #8
 964              	.LCFI45:
 965              		.cfi_def_cfa_offset 8
 966 0056 BD46     		mov	sp, r7
 967              	.LCFI46:
 968              		.cfi_def_cfa_register 13
 969              		@ sp needed
 970 0058 80BD     		pop	{r7, pc}
 971              	.L47:
 972 005a 00BF     		.align	2
 973              	.L46:
 974 005c 00680140 		.word	1073833984
 975 0060 00380240 		.word	1073887232
 976 0064 00100240 		.word	1073876992
 977 0068 00240240 		.word	1073882112
 978 006c 00280240 		.word	1073883136
 979 0070 00180240 		.word	1073879040
 980 0074 00200240 		.word	1073881088
 981              		.cfi_endproc
 982              	.LFE152:
 984              		.section	.text.HAL_QSPI_MspInit,"ax",%progbits
 985              		.align	1
 986              		.global	HAL_QSPI_MspInit
 987              		.syntax unified
 988              		.thumb
 989              		.thumb_func
 991              	HAL_QSPI_MspInit:
 992              	.LFB153:
 477:Core/Src/stm32f7xx_hal_msp.c **** 
 478:Core/Src/stm32f7xx_hal_msp.c **** /**
 479:Core/Src/stm32f7xx_hal_msp.c **** * @brief QSPI MSP Initialization
 480:Core/Src/stm32f7xx_hal_msp.c **** * This function configures the hardware resources used in this example
 481:Core/Src/stm32f7xx_hal_msp.c **** * @param hqspi: QSPI handle pointer
 482:Core/Src/stm32f7xx_hal_msp.c **** * @retval None
 483:Core/Src/stm32f7xx_hal_msp.c **** */
 484:Core/Src/stm32f7xx_hal_msp.c **** void HAL_QSPI_MspInit(QSPI_HandleTypeDef* hqspi)
 485:Core/Src/stm32f7xx_hal_msp.c **** {
 993              		.loc 1 485 1
 994              		.cfi_startproc
 995              		@ args = 0, pretend = 0, frame = 48
 996              		@ frame_needed = 1, uses_anonymous_args = 0
ARM GAS  C:\Users\jisu8\AppData\Local\Temp\ccKgGJL7.s 			page 27


 997 0000 80B5     		push	{r7, lr}
 998              	.LCFI47:
 999              		.cfi_def_cfa_offset 8
 1000              		.cfi_offset 7, -8
 1001              		.cfi_offset 14, -4
 1002 0002 8CB0     		sub	sp, sp, #48
 1003              	.LCFI48:
 1004              		.cfi_def_cfa_offset 56
 1005 0004 00AF     		add	r7, sp, #0
 1006              	.LCFI49:
 1007              		.cfi_def_cfa_register 7
 1008 0006 7860     		str	r0, [r7, #4]
 486:Core/Src/stm32f7xx_hal_msp.c ****   GPIO_InitTypeDef GPIO_InitStruct = {0};
 1009              		.loc 1 486 20
 1010 0008 07F11C03 		add	r3, r7, #28
 1011 000c 0022     		movs	r2, #0
 1012 000e 1A60     		str	r2, [r3]
 1013 0010 5A60     		str	r2, [r3, #4]
 1014 0012 9A60     		str	r2, [r3, #8]
 1015 0014 DA60     		str	r2, [r3, #12]
 1016 0016 1A61     		str	r2, [r3, #16]
 487:Core/Src/stm32f7xx_hal_msp.c ****   if(hqspi->Instance==QUADSPI)
 1017              		.loc 1 487 11
 1018 0018 7B68     		ldr	r3, [r7, #4]
 1019 001a 1B68     		ldr	r3, [r3]
 1020              		.loc 1 487 5
 1021 001c 3B4A     		ldr	r2, .L51
 1022 001e 9342     		cmp	r3, r2
 1023 0020 70D1     		bne	.L50
 1024              	.LBB16:
 488:Core/Src/stm32f7xx_hal_msp.c ****   {
 489:Core/Src/stm32f7xx_hal_msp.c ****   /* USER CODE BEGIN QUADSPI_MspInit 0 */
 490:Core/Src/stm32f7xx_hal_msp.c **** 
 491:Core/Src/stm32f7xx_hal_msp.c ****   /* USER CODE END QUADSPI_MspInit 0 */
 492:Core/Src/stm32f7xx_hal_msp.c ****     /* Peripheral clock enable */
 493:Core/Src/stm32f7xx_hal_msp.c ****     __HAL_RCC_QSPI_CLK_ENABLE();
 1025              		.loc 1 493 5
 1026 0022 3B4B     		ldr	r3, .L51+4
 1027 0024 9B6B     		ldr	r3, [r3, #56]
 1028 0026 3A4A     		ldr	r2, .L51+4
 1029 0028 43F00203 		orr	r3, r3, #2
 1030 002c 9363     		str	r3, [r2, #56]
 1031 002e 384B     		ldr	r3, .L51+4
 1032 0030 9B6B     		ldr	r3, [r3, #56]
 1033 0032 03F00203 		and	r3, r3, #2
 1034 0036 BB61     		str	r3, [r7, #24]
 1035 0038 BB69     		ldr	r3, [r7, #24]
 1036              	.LBE16:
 1037              	.LBB17:
 494:Core/Src/stm32f7xx_hal_msp.c **** 
 495:Core/Src/stm32f7xx_hal_msp.c ****     __HAL_RCC_GPIOE_CLK_ENABLE();
 1038              		.loc 1 495 5
 1039 003a 354B     		ldr	r3, .L51+4
 1040 003c 1B6B     		ldr	r3, [r3, #48]
 1041 003e 344A     		ldr	r2, .L51+4
 1042 0040 43F01003 		orr	r3, r3, #16
 1043 0044 1363     		str	r3, [r2, #48]
ARM GAS  C:\Users\jisu8\AppData\Local\Temp\ccKgGJL7.s 			page 28


 1044 0046 324B     		ldr	r3, .L51+4
 1045 0048 1B6B     		ldr	r3, [r3, #48]
 1046 004a 03F01003 		and	r3, r3, #16
 1047 004e 7B61     		str	r3, [r7, #20]
 1048 0050 7B69     		ldr	r3, [r7, #20]
 1049              	.LBE17:
 1050              	.LBB18:
 496:Core/Src/stm32f7xx_hal_msp.c ****     __HAL_RCC_GPIOB_CLK_ENABLE();
 1051              		.loc 1 496 5
 1052 0052 2F4B     		ldr	r3, .L51+4
 1053 0054 1B6B     		ldr	r3, [r3, #48]
 1054 0056 2E4A     		ldr	r2, .L51+4
 1055 0058 43F00203 		orr	r3, r3, #2
 1056 005c 1363     		str	r3, [r2, #48]
 1057 005e 2C4B     		ldr	r3, .L51+4
 1058 0060 1B6B     		ldr	r3, [r3, #48]
 1059 0062 03F00203 		and	r3, r3, #2
 1060 0066 3B61     		str	r3, [r7, #16]
 1061 0068 3B69     		ldr	r3, [r7, #16]
 1062              	.LBE18:
 1063              	.LBB19:
 497:Core/Src/stm32f7xx_hal_msp.c ****     __HAL_RCC_GPIOD_CLK_ENABLE();
 1064              		.loc 1 497 5
 1065 006a 294B     		ldr	r3, .L51+4
 1066 006c 1B6B     		ldr	r3, [r3, #48]
 1067 006e 284A     		ldr	r2, .L51+4
 1068 0070 43F00803 		orr	r3, r3, #8
 1069 0074 1363     		str	r3, [r2, #48]
 1070 0076 264B     		ldr	r3, .L51+4
 1071 0078 1B6B     		ldr	r3, [r3, #48]
 1072 007a 03F00803 		and	r3, r3, #8
 1073 007e FB60     		str	r3, [r7, #12]
 1074 0080 FB68     		ldr	r3, [r7, #12]
 1075              	.LBE19:
 498:Core/Src/stm32f7xx_hal_msp.c ****     /**QUADSPI GPIO Configuration
 499:Core/Src/stm32f7xx_hal_msp.c ****     PE2     ------> QUADSPI_BK1_IO2
 500:Core/Src/stm32f7xx_hal_msp.c ****     PB6     ------> QUADSPI_BK1_NCS
 501:Core/Src/stm32f7xx_hal_msp.c ****     PB2     ------> QUADSPI_CLK
 502:Core/Src/stm32f7xx_hal_msp.c ****     PD12     ------> QUADSPI_BK1_IO1
 503:Core/Src/stm32f7xx_hal_msp.c ****     PD13     ------> QUADSPI_BK1_IO3
 504:Core/Src/stm32f7xx_hal_msp.c ****     PD11     ------> QUADSPI_BK1_IO0
 505:Core/Src/stm32f7xx_hal_msp.c ****     */
 506:Core/Src/stm32f7xx_hal_msp.c ****     GPIO_InitStruct.Pin = QSPI_D2_Pin;
 1076              		.loc 1 506 25
 1077 0082 0423     		movs	r3, #4
 1078 0084 FB61     		str	r3, [r7, #28]
 507:Core/Src/stm32f7xx_hal_msp.c ****     GPIO_InitStruct.Mode = GPIO_MODE_AF_PP;
 1079              		.loc 1 507 26
 1080 0086 0223     		movs	r3, #2
 1081 0088 3B62     		str	r3, [r7, #32]
 508:Core/Src/stm32f7xx_hal_msp.c ****     GPIO_InitStruct.Pull = GPIO_NOPULL;
 1082              		.loc 1 508 26
 1083 008a 0023     		movs	r3, #0
 1084 008c 7B62     		str	r3, [r7, #36]
 509:Core/Src/stm32f7xx_hal_msp.c ****     GPIO_InitStruct.Speed = GPIO_SPEED_FREQ_VERY_HIGH;
 1085              		.loc 1 509 27
 1086 008e 0323     		movs	r3, #3
ARM GAS  C:\Users\jisu8\AppData\Local\Temp\ccKgGJL7.s 			page 29


 1087 0090 BB62     		str	r3, [r7, #40]
 510:Core/Src/stm32f7xx_hal_msp.c ****     GPIO_InitStruct.Alternate = GPIO_AF9_QUADSPI;
 1088              		.loc 1 510 31
 1089 0092 0923     		movs	r3, #9
 1090 0094 FB62     		str	r3, [r7, #44]
 511:Core/Src/stm32f7xx_hal_msp.c ****     HAL_GPIO_Init(QSPI_D2_GPIO_Port, &GPIO_InitStruct);
 1091              		.loc 1 511 5
 1092 0096 07F11C03 		add	r3, r7, #28
 1093 009a 1946     		mov	r1, r3
 1094 009c 1D48     		ldr	r0, .L51+8
 1095 009e FFF7FEFF 		bl	HAL_GPIO_Init
 512:Core/Src/stm32f7xx_hal_msp.c **** 
 513:Core/Src/stm32f7xx_hal_msp.c ****     GPIO_InitStruct.Pin = QSPI_NCS_Pin;
 1096              		.loc 1 513 25
 1097 00a2 4023     		movs	r3, #64
 1098 00a4 FB61     		str	r3, [r7, #28]
 514:Core/Src/stm32f7xx_hal_msp.c ****     GPIO_InitStruct.Mode = GPIO_MODE_AF_PP;
 1099              		.loc 1 514 26
 1100 00a6 0223     		movs	r3, #2
 1101 00a8 3B62     		str	r3, [r7, #32]
 515:Core/Src/stm32f7xx_hal_msp.c ****     GPIO_InitStruct.Pull = GPIO_NOPULL;
 1102              		.loc 1 515 26
 1103 00aa 0023     		movs	r3, #0
 1104 00ac 7B62     		str	r3, [r7, #36]
 516:Core/Src/stm32f7xx_hal_msp.c ****     GPIO_InitStruct.Speed = GPIO_SPEED_FREQ_VERY_HIGH;
 1105              		.loc 1 516 27
 1106 00ae 0323     		movs	r3, #3
 1107 00b0 BB62     		str	r3, [r7, #40]
 517:Core/Src/stm32f7xx_hal_msp.c ****     GPIO_InitStruct.Alternate = GPIO_AF10_QUADSPI;
 1108              		.loc 1 517 31
 1109 00b2 0A23     		movs	r3, #10
 1110 00b4 FB62     		str	r3, [r7, #44]
 518:Core/Src/stm32f7xx_hal_msp.c ****     HAL_GPIO_Init(QSPI_NCS_GPIO_Port, &GPIO_InitStruct);
 1111              		.loc 1 518 5
 1112 00b6 07F11C03 		add	r3, r7, #28
 1113 00ba 1946     		mov	r1, r3
 1114 00bc 1648     		ldr	r0, .L51+12
 1115 00be FFF7FEFF 		bl	HAL_GPIO_Init
 519:Core/Src/stm32f7xx_hal_msp.c **** 
 520:Core/Src/stm32f7xx_hal_msp.c ****     GPIO_InitStruct.Pin = GPIO_PIN_2;
 1116              		.loc 1 520 25
 1117 00c2 0423     		movs	r3, #4
 1118 00c4 FB61     		str	r3, [r7, #28]
 521:Core/Src/stm32f7xx_hal_msp.c ****     GPIO_InitStruct.Mode = GPIO_MODE_AF_PP;
 1119              		.loc 1 521 26
 1120 00c6 0223     		movs	r3, #2
 1121 00c8 3B62     		str	r3, [r7, #32]
 522:Core/Src/stm32f7xx_hal_msp.c ****     GPIO_InitStruct.Pull = GPIO_NOPULL;
 1122              		.loc 1 522 26
 1123 00ca 0023     		movs	r3, #0
 1124 00cc 7B62     		str	r3, [r7, #36]
 523:Core/Src/stm32f7xx_hal_msp.c ****     GPIO_InitStruct.Speed = GPIO_SPEED_FREQ_VERY_HIGH;
 1125              		.loc 1 523 27
 1126 00ce 0323     		movs	r3, #3
 1127 00d0 BB62     		str	r3, [r7, #40]
 524:Core/Src/stm32f7xx_hal_msp.c ****     GPIO_InitStruct.Alternate = GPIO_AF9_QUADSPI;
 1128              		.loc 1 524 31
ARM GAS  C:\Users\jisu8\AppData\Local\Temp\ccKgGJL7.s 			page 30


 1129 00d2 0923     		movs	r3, #9
 1130 00d4 FB62     		str	r3, [r7, #44]
 525:Core/Src/stm32f7xx_hal_msp.c ****     HAL_GPIO_Init(GPIOB, &GPIO_InitStruct);
 1131              		.loc 1 525 5
 1132 00d6 07F11C03 		add	r3, r7, #28
 1133 00da 1946     		mov	r1, r3
 1134 00dc 0E48     		ldr	r0, .L51+12
 1135 00de FFF7FEFF 		bl	HAL_GPIO_Init
 526:Core/Src/stm32f7xx_hal_msp.c **** 
 527:Core/Src/stm32f7xx_hal_msp.c ****     GPIO_InitStruct.Pin = QSPI_D1_Pin|QSPI_D3_Pin|QSPI_D0_Pin;
 1136              		.loc 1 527 25
 1137 00e2 4FF46053 		mov	r3, #14336
 1138 00e6 FB61     		str	r3, [r7, #28]
 528:Core/Src/stm32f7xx_hal_msp.c ****     GPIO_InitStruct.Mode = GPIO_MODE_AF_PP;
 1139              		.loc 1 528 26
 1140 00e8 0223     		movs	r3, #2
 1141 00ea 3B62     		str	r3, [r7, #32]
 529:Core/Src/stm32f7xx_hal_msp.c ****     GPIO_InitStruct.Pull = GPIO_NOPULL;
 1142              		.loc 1 529 26
 1143 00ec 0023     		movs	r3, #0
 1144 00ee 7B62     		str	r3, [r7, #36]
 530:Core/Src/stm32f7xx_hal_msp.c ****     GPIO_InitStruct.Speed = GPIO_SPEED_FREQ_VERY_HIGH;
 1145              		.loc 1 530 27
 1146 00f0 0323     		movs	r3, #3
 1147 00f2 BB62     		str	r3, [r7, #40]
 531:Core/Src/stm32f7xx_hal_msp.c ****     GPIO_InitStruct.Alternate = GPIO_AF9_QUADSPI;
 1148              		.loc 1 531 31
 1149 00f4 0923     		movs	r3, #9
 1150 00f6 FB62     		str	r3, [r7, #44]
 532:Core/Src/stm32f7xx_hal_msp.c ****     HAL_GPIO_Init(GPIOD, &GPIO_InitStruct);
 1151              		.loc 1 532 5
 1152 00f8 07F11C03 		add	r3, r7, #28
 1153 00fc 1946     		mov	r1, r3
 1154 00fe 0748     		ldr	r0, .L51+16
 1155 0100 FFF7FEFF 		bl	HAL_GPIO_Init
 1156              	.L50:
 533:Core/Src/stm32f7xx_hal_msp.c **** 
 534:Core/Src/stm32f7xx_hal_msp.c ****   /* USER CODE BEGIN QUADSPI_MspInit 1 */
 535:Core/Src/stm32f7xx_hal_msp.c **** 
 536:Core/Src/stm32f7xx_hal_msp.c ****   /* USER CODE END QUADSPI_MspInit 1 */
 537:Core/Src/stm32f7xx_hal_msp.c ****   }
 538:Core/Src/stm32f7xx_hal_msp.c **** 
 539:Core/Src/stm32f7xx_hal_msp.c **** }
 1157              		.loc 1 539 1
 1158 0104 00BF     		nop
 1159 0106 3037     		adds	r7, r7, #48
 1160              	.LCFI50:
 1161              		.cfi_def_cfa_offset 8
 1162 0108 BD46     		mov	sp, r7
 1163              	.LCFI51:
 1164              		.cfi_def_cfa_register 13
 1165              		@ sp needed
 1166 010a 80BD     		pop	{r7, pc}
 1167              	.L52:
 1168              		.align	2
 1169              	.L51:
 1170 010c 001000A0 		.word	-1610608640
ARM GAS  C:\Users\jisu8\AppData\Local\Temp\ccKgGJL7.s 			page 31


 1171 0110 00380240 		.word	1073887232
 1172 0114 00100240 		.word	1073876992
 1173 0118 00040240 		.word	1073873920
 1174 011c 000C0240 		.word	1073875968
 1175              		.cfi_endproc
 1176              	.LFE153:
 1178              		.section	.text.HAL_QSPI_MspDeInit,"ax",%progbits
 1179              		.align	1
 1180              		.global	HAL_QSPI_MspDeInit
 1181              		.syntax unified
 1182              		.thumb
 1183              		.thumb_func
 1185              	HAL_QSPI_MspDeInit:
 1186              	.LFB154:
 540:Core/Src/stm32f7xx_hal_msp.c **** 
 541:Core/Src/stm32f7xx_hal_msp.c **** /**
 542:Core/Src/stm32f7xx_hal_msp.c **** * @brief QSPI MSP De-Initialization
 543:Core/Src/stm32f7xx_hal_msp.c **** * This function freeze the hardware resources used in this example
 544:Core/Src/stm32f7xx_hal_msp.c **** * @param hqspi: QSPI handle pointer
 545:Core/Src/stm32f7xx_hal_msp.c **** * @retval None
 546:Core/Src/stm32f7xx_hal_msp.c **** */
 547:Core/Src/stm32f7xx_hal_msp.c **** void HAL_QSPI_MspDeInit(QSPI_HandleTypeDef* hqspi)
 548:Core/Src/stm32f7xx_hal_msp.c **** {
 1187              		.loc 1 548 1
 1188              		.cfi_startproc
 1189              		@ args = 0, pretend = 0, frame = 8
 1190              		@ frame_needed = 1, uses_anonymous_args = 0
 1191 0000 80B5     		push	{r7, lr}
 1192              	.LCFI52:
 1193              		.cfi_def_cfa_offset 8
 1194              		.cfi_offset 7, -8
 1195              		.cfi_offset 14, -4
 1196 0002 82B0     		sub	sp, sp, #8
 1197              	.LCFI53:
 1198              		.cfi_def_cfa_offset 16
 1199 0004 00AF     		add	r7, sp, #0
 1200              	.LCFI54:
 1201              		.cfi_def_cfa_register 7
 1202 0006 7860     		str	r0, [r7, #4]
 549:Core/Src/stm32f7xx_hal_msp.c ****   if(hqspi->Instance==QUADSPI)
 1203              		.loc 1 549 11
 1204 0008 7B68     		ldr	r3, [r7, #4]
 1205 000a 1B68     		ldr	r3, [r3]
 1206              		.loc 1 549 5
 1207 000c 0C4A     		ldr	r2, .L56
 1208 000e 9342     		cmp	r3, r2
 1209 0010 12D1     		bne	.L55
 550:Core/Src/stm32f7xx_hal_msp.c ****   {
 551:Core/Src/stm32f7xx_hal_msp.c ****   /* USER CODE BEGIN QUADSPI_MspDeInit 0 */
 552:Core/Src/stm32f7xx_hal_msp.c **** 
 553:Core/Src/stm32f7xx_hal_msp.c ****   /* USER CODE END QUADSPI_MspDeInit 0 */
 554:Core/Src/stm32f7xx_hal_msp.c ****     /* Peripheral clock disable */
 555:Core/Src/stm32f7xx_hal_msp.c ****     __HAL_RCC_QSPI_CLK_DISABLE();
 1210              		.loc 1 555 5
 1211 0012 0C4B     		ldr	r3, .L56+4
 1212 0014 9B6B     		ldr	r3, [r3, #56]
 1213 0016 0B4A     		ldr	r2, .L56+4
ARM GAS  C:\Users\jisu8\AppData\Local\Temp\ccKgGJL7.s 			page 32


 1214 0018 23F00203 		bic	r3, r3, #2
 1215 001c 9363     		str	r3, [r2, #56]
 556:Core/Src/stm32f7xx_hal_msp.c **** 
 557:Core/Src/stm32f7xx_hal_msp.c ****     /**QUADSPI GPIO Configuration
 558:Core/Src/stm32f7xx_hal_msp.c ****     PE2     ------> QUADSPI_BK1_IO2
 559:Core/Src/stm32f7xx_hal_msp.c ****     PB6     ------> QUADSPI_BK1_NCS
 560:Core/Src/stm32f7xx_hal_msp.c ****     PB2     ------> QUADSPI_CLK
 561:Core/Src/stm32f7xx_hal_msp.c ****     PD12     ------> QUADSPI_BK1_IO1
 562:Core/Src/stm32f7xx_hal_msp.c ****     PD13     ------> QUADSPI_BK1_IO3
 563:Core/Src/stm32f7xx_hal_msp.c ****     PD11     ------> QUADSPI_BK1_IO0
 564:Core/Src/stm32f7xx_hal_msp.c ****     */
 565:Core/Src/stm32f7xx_hal_msp.c ****     HAL_GPIO_DeInit(QSPI_D2_GPIO_Port, QSPI_D2_Pin);
 1216              		.loc 1 565 5
 1217 001e 0421     		movs	r1, #4
 1218 0020 0948     		ldr	r0, .L56+8
 1219 0022 FFF7FEFF 		bl	HAL_GPIO_DeInit
 566:Core/Src/stm32f7xx_hal_msp.c **** 
 567:Core/Src/stm32f7xx_hal_msp.c ****     HAL_GPIO_DeInit(GPIOB, QSPI_NCS_Pin|GPIO_PIN_2);
 1220              		.loc 1 567 5
 1221 0026 4421     		movs	r1, #68
 1222 0028 0848     		ldr	r0, .L56+12
 1223 002a FFF7FEFF 		bl	HAL_GPIO_DeInit
 568:Core/Src/stm32f7xx_hal_msp.c **** 
 569:Core/Src/stm32f7xx_hal_msp.c ****     HAL_GPIO_DeInit(GPIOD, QSPI_D1_Pin|QSPI_D3_Pin|QSPI_D0_Pin);
 1224              		.loc 1 569 5
 1225 002e 4FF46051 		mov	r1, #14336
 1226 0032 0748     		ldr	r0, .L56+16
 1227 0034 FFF7FEFF 		bl	HAL_GPIO_DeInit
 1228              	.L55:
 570:Core/Src/stm32f7xx_hal_msp.c **** 
 571:Core/Src/stm32f7xx_hal_msp.c ****   /* USER CODE BEGIN QUADSPI_MspDeInit 1 */
 572:Core/Src/stm32f7xx_hal_msp.c **** 
 573:Core/Src/stm32f7xx_hal_msp.c ****   /* USER CODE END QUADSPI_MspDeInit 1 */
 574:Core/Src/stm32f7xx_hal_msp.c ****   }
 575:Core/Src/stm32f7xx_hal_msp.c **** 
 576:Core/Src/stm32f7xx_hal_msp.c **** }
 1229              		.loc 1 576 1
 1230 0038 00BF     		nop
 1231 003a 0837     		adds	r7, r7, #8
 1232              	.LCFI55:
 1233              		.cfi_def_cfa_offset 8
 1234 003c BD46     		mov	sp, r7
 1235              	.LCFI56:
 1236              		.cfi_def_cfa_register 13
 1237              		@ sp needed
 1238 003e 80BD     		pop	{r7, pc}
 1239              	.L57:
 1240              		.align	2
 1241              	.L56:
 1242 0040 001000A0 		.word	-1610608640
 1243 0044 00380240 		.word	1073887232
 1244 0048 00100240 		.word	1073876992
 1245 004c 00040240 		.word	1073873920
 1246 0050 000C0240 		.word	1073875968
 1247              		.cfi_endproc
 1248              	.LFE154:
 1250              		.section	.text.HAL_SD_MspInit,"ax",%progbits
ARM GAS  C:\Users\jisu8\AppData\Local\Temp\ccKgGJL7.s 			page 33


 1251              		.align	1
 1252              		.global	HAL_SD_MspInit
 1253              		.syntax unified
 1254              		.thumb
 1255              		.thumb_func
 1257              	HAL_SD_MspInit:
 1258              	.LFB155:
 577:Core/Src/stm32f7xx_hal_msp.c **** 
 578:Core/Src/stm32f7xx_hal_msp.c **** /**
 579:Core/Src/stm32f7xx_hal_msp.c **** * @brief SD MSP Initialization
 580:Core/Src/stm32f7xx_hal_msp.c **** * This function configures the hardware resources used in this example
 581:Core/Src/stm32f7xx_hal_msp.c **** * @param hsd: SD handle pointer
 582:Core/Src/stm32f7xx_hal_msp.c **** * @retval None
 583:Core/Src/stm32f7xx_hal_msp.c **** */
 584:Core/Src/stm32f7xx_hal_msp.c **** void HAL_SD_MspInit(SD_HandleTypeDef* hsd)
 585:Core/Src/stm32f7xx_hal_msp.c **** {
 1259              		.loc 1 585 1
 1260              		.cfi_startproc
 1261              		@ args = 0, pretend = 0, frame = 40
 1262              		@ frame_needed = 1, uses_anonymous_args = 0
 1263 0000 80B5     		push	{r7, lr}
 1264              	.LCFI57:
 1265              		.cfi_def_cfa_offset 8
 1266              		.cfi_offset 7, -8
 1267              		.cfi_offset 14, -4
 1268 0002 8AB0     		sub	sp, sp, #40
 1269              	.LCFI58:
 1270              		.cfi_def_cfa_offset 48
 1271 0004 00AF     		add	r7, sp, #0
 1272              	.LCFI59:
 1273              		.cfi_def_cfa_register 7
 1274 0006 7860     		str	r0, [r7, #4]
 586:Core/Src/stm32f7xx_hal_msp.c ****   GPIO_InitTypeDef GPIO_InitStruct = {0};
 1275              		.loc 1 586 20
 1276 0008 07F11403 		add	r3, r7, #20
 1277 000c 0022     		movs	r2, #0
 1278 000e 1A60     		str	r2, [r3]
 1279 0010 5A60     		str	r2, [r3, #4]
 1280 0012 9A60     		str	r2, [r3, #8]
 1281 0014 DA60     		str	r2, [r3, #12]
 1282 0016 1A61     		str	r2, [r3, #16]
 587:Core/Src/stm32f7xx_hal_msp.c ****   if(hsd->Instance==SDMMC1)
 1283              		.loc 1 587 9
 1284 0018 7B68     		ldr	r3, [r7, #4]
 1285 001a 1B68     		ldr	r3, [r3]
 1286              		.loc 1 587 5
 1287 001c 664A     		ldr	r2, .L63
 1288 001e 9342     		cmp	r3, r2
 1289 0020 40F0C580 		bne	.L62
 1290              	.LBB20:
 588:Core/Src/stm32f7xx_hal_msp.c ****   {
 589:Core/Src/stm32f7xx_hal_msp.c ****   /* USER CODE BEGIN SDMMC1_MspInit 0 */
 590:Core/Src/stm32f7xx_hal_msp.c **** 
 591:Core/Src/stm32f7xx_hal_msp.c ****   /* USER CODE END SDMMC1_MspInit 0 */
 592:Core/Src/stm32f7xx_hal_msp.c ****     /* Peripheral clock enable */
 593:Core/Src/stm32f7xx_hal_msp.c ****     __HAL_RCC_SDMMC1_CLK_ENABLE();
 1291              		.loc 1 593 5
ARM GAS  C:\Users\jisu8\AppData\Local\Temp\ccKgGJL7.s 			page 34


 1292 0024 654B     		ldr	r3, .L63+4
 1293 0026 5B6C     		ldr	r3, [r3, #68]
 1294 0028 644A     		ldr	r2, .L63+4
 1295 002a 43F40063 		orr	r3, r3, #2048
 1296 002e 5364     		str	r3, [r2, #68]
 1297 0030 624B     		ldr	r3, .L63+4
 1298 0032 5B6C     		ldr	r3, [r3, #68]
 1299 0034 03F40063 		and	r3, r3, #2048
 1300 0038 3B61     		str	r3, [r7, #16]
 1301 003a 3B69     		ldr	r3, [r7, #16]
 1302              	.LBE20:
 1303              	.LBB21:
 594:Core/Src/stm32f7xx_hal_msp.c **** 
 595:Core/Src/stm32f7xx_hal_msp.c ****     __HAL_RCC_GPIOC_CLK_ENABLE();
 1304              		.loc 1 595 5
 1305 003c 5F4B     		ldr	r3, .L63+4
 1306 003e 1B6B     		ldr	r3, [r3, #48]
 1307 0040 5E4A     		ldr	r2, .L63+4
 1308 0042 43F00403 		orr	r3, r3, #4
 1309 0046 1363     		str	r3, [r2, #48]
 1310 0048 5C4B     		ldr	r3, .L63+4
 1311 004a 1B6B     		ldr	r3, [r3, #48]
 1312 004c 03F00403 		and	r3, r3, #4
 1313 0050 FB60     		str	r3, [r7, #12]
 1314 0052 FB68     		ldr	r3, [r7, #12]
 1315              	.LBE21:
 1316              	.LBB22:
 596:Core/Src/stm32f7xx_hal_msp.c ****     __HAL_RCC_GPIOD_CLK_ENABLE();
 1317              		.loc 1 596 5
 1318 0054 594B     		ldr	r3, .L63+4
 1319 0056 1B6B     		ldr	r3, [r3, #48]
 1320 0058 584A     		ldr	r2, .L63+4
 1321 005a 43F00803 		orr	r3, r3, #8
 1322 005e 1363     		str	r3, [r2, #48]
 1323 0060 564B     		ldr	r3, .L63+4
 1324 0062 1B6B     		ldr	r3, [r3, #48]
 1325 0064 03F00803 		and	r3, r3, #8
 1326 0068 BB60     		str	r3, [r7, #8]
 1327 006a BB68     		ldr	r3, [r7, #8]
 1328              	.LBE22:
 597:Core/Src/stm32f7xx_hal_msp.c ****     /**SDMMC1 GPIO Configuration
 598:Core/Src/stm32f7xx_hal_msp.c ****     PC12     ------> SDMMC1_CK
 599:Core/Src/stm32f7xx_hal_msp.c ****     PC11     ------> SDMMC1_D3
 600:Core/Src/stm32f7xx_hal_msp.c ****     PC10     ------> SDMMC1_D2
 601:Core/Src/stm32f7xx_hal_msp.c ****     PD2     ------> SDMMC1_CMD
 602:Core/Src/stm32f7xx_hal_msp.c ****     PC9     ------> SDMMC1_D1
 603:Core/Src/stm32f7xx_hal_msp.c ****     PC8     ------> SDMMC1_D0
 604:Core/Src/stm32f7xx_hal_msp.c ****     */
 605:Core/Src/stm32f7xx_hal_msp.c ****     GPIO_InitStruct.Pin = SDMMC_CK_Pin|SDMMC_D3_Pin|SDMMC_D2_Pin|GPIO_PIN_9
 1329              		.loc 1 605 25
 1330 006c 4FF4F853 		mov	r3, #7936
 1331 0070 7B61     		str	r3, [r7, #20]
 606:Core/Src/stm32f7xx_hal_msp.c ****                           |GPIO_PIN_8;
 607:Core/Src/stm32f7xx_hal_msp.c ****     GPIO_InitStruct.Mode = GPIO_MODE_AF_PP;
 1332              		.loc 1 607 26
 1333 0072 0223     		movs	r3, #2
 1334 0074 BB61     		str	r3, [r7, #24]
ARM GAS  C:\Users\jisu8\AppData\Local\Temp\ccKgGJL7.s 			page 35


 608:Core/Src/stm32f7xx_hal_msp.c ****     GPIO_InitStruct.Pull = GPIO_NOPULL;
 1335              		.loc 1 608 26
 1336 0076 0023     		movs	r3, #0
 1337 0078 FB61     		str	r3, [r7, #28]
 609:Core/Src/stm32f7xx_hal_msp.c ****     GPIO_InitStruct.Speed = GPIO_SPEED_FREQ_VERY_HIGH;
 1338              		.loc 1 609 27
 1339 007a 0323     		movs	r3, #3
 1340 007c 3B62     		str	r3, [r7, #32]
 610:Core/Src/stm32f7xx_hal_msp.c ****     GPIO_InitStruct.Alternate = GPIO_AF12_SDMMC1;
 1341              		.loc 1 610 31
 1342 007e 0C23     		movs	r3, #12
 1343 0080 7B62     		str	r3, [r7, #36]
 611:Core/Src/stm32f7xx_hal_msp.c ****     HAL_GPIO_Init(GPIOC, &GPIO_InitStruct);
 1344              		.loc 1 611 5
 1345 0082 07F11403 		add	r3, r7, #20
 1346 0086 1946     		mov	r1, r3
 1347 0088 4D48     		ldr	r0, .L63+8
 1348 008a FFF7FEFF 		bl	HAL_GPIO_Init
 612:Core/Src/stm32f7xx_hal_msp.c **** 
 613:Core/Src/stm32f7xx_hal_msp.c ****     GPIO_InitStruct.Pin = SDMMC_CMD_Pin;
 1349              		.loc 1 613 25
 1350 008e 0423     		movs	r3, #4
 1351 0090 7B61     		str	r3, [r7, #20]
 614:Core/Src/stm32f7xx_hal_msp.c ****     GPIO_InitStruct.Mode = GPIO_MODE_AF_PP;
 1352              		.loc 1 614 26
 1353 0092 0223     		movs	r3, #2
 1354 0094 BB61     		str	r3, [r7, #24]
 615:Core/Src/stm32f7xx_hal_msp.c ****     GPIO_InitStruct.Pull = GPIO_NOPULL;
 1355              		.loc 1 615 26
 1356 0096 0023     		movs	r3, #0
 1357 0098 FB61     		str	r3, [r7, #28]
 616:Core/Src/stm32f7xx_hal_msp.c ****     GPIO_InitStruct.Speed = GPIO_SPEED_FREQ_VERY_HIGH;
 1358              		.loc 1 616 27
 1359 009a 0323     		movs	r3, #3
 1360 009c 3B62     		str	r3, [r7, #32]
 617:Core/Src/stm32f7xx_hal_msp.c ****     GPIO_InitStruct.Alternate = GPIO_AF12_SDMMC1;
 1361              		.loc 1 617 31
 1362 009e 0C23     		movs	r3, #12
 1363 00a0 7B62     		str	r3, [r7, #36]
 618:Core/Src/stm32f7xx_hal_msp.c ****     HAL_GPIO_Init(SDMMC_CMD_GPIO_Port, &GPIO_InitStruct);
 1364              		.loc 1 618 5
 1365 00a2 07F11403 		add	r3, r7, #20
 1366 00a6 1946     		mov	r1, r3
 1367 00a8 4648     		ldr	r0, .L63+12
 1368 00aa FFF7FEFF 		bl	HAL_GPIO_Init
 619:Core/Src/stm32f7xx_hal_msp.c **** 
 620:Core/Src/stm32f7xx_hal_msp.c ****     /* SDMMC1 DMA Init */
 621:Core/Src/stm32f7xx_hal_msp.c ****     /* SDMMC1_RX Init */
 622:Core/Src/stm32f7xx_hal_msp.c ****     hdma_sdmmc1_rx.Instance = DMA2_Stream3;
 1369              		.loc 1 622 29
 1370 00ae 464B     		ldr	r3, .L63+16
 1371 00b0 464A     		ldr	r2, .L63+20
 1372 00b2 1A60     		str	r2, [r3]
 623:Core/Src/stm32f7xx_hal_msp.c ****     hdma_sdmmc1_rx.Init.Channel = DMA_CHANNEL_4;
 1373              		.loc 1 623 33
 1374 00b4 444B     		ldr	r3, .L63+16
 1375 00b6 4FF00062 		mov	r2, #134217728
ARM GAS  C:\Users\jisu8\AppData\Local\Temp\ccKgGJL7.s 			page 36


 1376 00ba 5A60     		str	r2, [r3, #4]
 624:Core/Src/stm32f7xx_hal_msp.c ****     hdma_sdmmc1_rx.Init.Direction = DMA_PERIPH_TO_MEMORY;
 1377              		.loc 1 624 35
 1378 00bc 424B     		ldr	r3, .L63+16
 1379 00be 0022     		movs	r2, #0
 1380 00c0 9A60     		str	r2, [r3, #8]
 625:Core/Src/stm32f7xx_hal_msp.c ****     hdma_sdmmc1_rx.Init.PeriphInc = DMA_PINC_DISABLE;
 1381              		.loc 1 625 35
 1382 00c2 414B     		ldr	r3, .L63+16
 1383 00c4 0022     		movs	r2, #0
 1384 00c6 DA60     		str	r2, [r3, #12]
 626:Core/Src/stm32f7xx_hal_msp.c ****     hdma_sdmmc1_rx.Init.MemInc = DMA_MINC_ENABLE;
 1385              		.loc 1 626 32
 1386 00c8 3F4B     		ldr	r3, .L63+16
 1387 00ca 4FF48062 		mov	r2, #1024
 1388 00ce 1A61     		str	r2, [r3, #16]
 627:Core/Src/stm32f7xx_hal_msp.c ****     hdma_sdmmc1_rx.Init.PeriphDataAlignment = DMA_PDATAALIGN_WORD;
 1389              		.loc 1 627 45
 1390 00d0 3D4B     		ldr	r3, .L63+16
 1391 00d2 4FF48052 		mov	r2, #4096
 1392 00d6 5A61     		str	r2, [r3, #20]
 628:Core/Src/stm32f7xx_hal_msp.c ****     hdma_sdmmc1_rx.Init.MemDataAlignment = DMA_MDATAALIGN_WORD;
 1393              		.loc 1 628 42
 1394 00d8 3B4B     		ldr	r3, .L63+16
 1395 00da 4FF48042 		mov	r2, #16384
 1396 00de 9A61     		str	r2, [r3, #24]
 629:Core/Src/stm32f7xx_hal_msp.c ****     hdma_sdmmc1_rx.Init.Mode = DMA_PFCTRL;
 1397              		.loc 1 629 30
 1398 00e0 394B     		ldr	r3, .L63+16
 1399 00e2 2022     		movs	r2, #32
 1400 00e4 DA61     		str	r2, [r3, #28]
 630:Core/Src/stm32f7xx_hal_msp.c ****     hdma_sdmmc1_rx.Init.Priority = DMA_PRIORITY_VERY_HIGH;
 1401              		.loc 1 630 34
 1402 00e6 384B     		ldr	r3, .L63+16
 1403 00e8 4FF44032 		mov	r2, #196608
 1404 00ec 1A62     		str	r2, [r3, #32]
 631:Core/Src/stm32f7xx_hal_msp.c ****     hdma_sdmmc1_rx.Init.FIFOMode = DMA_FIFOMODE_ENABLE;
 1405              		.loc 1 631 34
 1406 00ee 364B     		ldr	r3, .L63+16
 1407 00f0 0422     		movs	r2, #4
 1408 00f2 5A62     		str	r2, [r3, #36]
 632:Core/Src/stm32f7xx_hal_msp.c ****     hdma_sdmmc1_rx.Init.FIFOThreshold = DMA_FIFO_THRESHOLD_FULL;
 1409              		.loc 1 632 39
 1410 00f4 344B     		ldr	r3, .L63+16
 1411 00f6 0322     		movs	r2, #3
 1412 00f8 9A62     		str	r2, [r3, #40]
 633:Core/Src/stm32f7xx_hal_msp.c ****     hdma_sdmmc1_rx.Init.MemBurst = DMA_MBURST_INC4;
 1413              		.loc 1 633 34
 1414 00fa 334B     		ldr	r3, .L63+16
 1415 00fc 4FF40002 		mov	r2, #8388608
 1416 0100 DA62     		str	r2, [r3, #44]
 634:Core/Src/stm32f7xx_hal_msp.c ****     hdma_sdmmc1_rx.Init.PeriphBurst = DMA_PBURST_INC4;
 1417              		.loc 1 634 37
 1418 0102 314B     		ldr	r3, .L63+16
 1419 0104 4FF40012 		mov	r2, #2097152
 1420 0108 1A63     		str	r2, [r3, #48]
 635:Core/Src/stm32f7xx_hal_msp.c ****     if (HAL_DMA_Init(&hdma_sdmmc1_rx) != HAL_OK)
ARM GAS  C:\Users\jisu8\AppData\Local\Temp\ccKgGJL7.s 			page 37


 1421              		.loc 1 635 9
 1422 010a 2F48     		ldr	r0, .L63+16
 1423 010c FFF7FEFF 		bl	HAL_DMA_Init
 1424 0110 0346     		mov	r3, r0
 1425              		.loc 1 635 8
 1426 0112 002B     		cmp	r3, #0
 1427 0114 01D0     		beq	.L60
 636:Core/Src/stm32f7xx_hal_msp.c ****     {
 637:Core/Src/stm32f7xx_hal_msp.c ****       Error_Handler();
 1428              		.loc 1 637 7
 1429 0116 FFF7FEFF 		bl	Error_Handler
 1430              	.L60:
 638:Core/Src/stm32f7xx_hal_msp.c ****     }
 639:Core/Src/stm32f7xx_hal_msp.c **** 
 640:Core/Src/stm32f7xx_hal_msp.c ****     __HAL_LINKDMA(hsd,hdmarx,hdma_sdmmc1_rx);
 1431              		.loc 1 640 5
 1432 011a 7B68     		ldr	r3, [r7, #4]
 1433 011c 2A4A     		ldr	r2, .L63+16
 1434 011e 1A64     		str	r2, [r3, #64]
 1435 0120 294A     		ldr	r2, .L63+16
 1436 0122 7B68     		ldr	r3, [r7, #4]
 1437 0124 9363     		str	r3, [r2, #56]
 641:Core/Src/stm32f7xx_hal_msp.c **** 
 642:Core/Src/stm32f7xx_hal_msp.c ****     /* SDMMC1_TX Init */
 643:Core/Src/stm32f7xx_hal_msp.c ****     hdma_sdmmc1_tx.Instance = DMA2_Stream6;
 1438              		.loc 1 643 29
 1439 0126 2A4B     		ldr	r3, .L63+24
 1440 0128 2A4A     		ldr	r2, .L63+28
 1441 012a 1A60     		str	r2, [r3]
 644:Core/Src/stm32f7xx_hal_msp.c ****     hdma_sdmmc1_tx.Init.Channel = DMA_CHANNEL_4;
 1442              		.loc 1 644 33
 1443 012c 284B     		ldr	r3, .L63+24
 1444 012e 4FF00062 		mov	r2, #134217728
 1445 0132 5A60     		str	r2, [r3, #4]
 645:Core/Src/stm32f7xx_hal_msp.c ****     hdma_sdmmc1_tx.Init.Direction = DMA_MEMORY_TO_PERIPH;
 1446              		.loc 1 645 35
 1447 0134 264B     		ldr	r3, .L63+24
 1448 0136 4022     		movs	r2, #64
 1449 0138 9A60     		str	r2, [r3, #8]
 646:Core/Src/stm32f7xx_hal_msp.c ****     hdma_sdmmc1_tx.Init.PeriphInc = DMA_PINC_DISABLE;
 1450              		.loc 1 646 35
 1451 013a 254B     		ldr	r3, .L63+24
 1452 013c 0022     		movs	r2, #0
 1453 013e DA60     		str	r2, [r3, #12]
 647:Core/Src/stm32f7xx_hal_msp.c ****     hdma_sdmmc1_tx.Init.MemInc = DMA_MINC_ENABLE;
 1454              		.loc 1 647 32
 1455 0140 234B     		ldr	r3, .L63+24
 1456 0142 4FF48062 		mov	r2, #1024
 1457 0146 1A61     		str	r2, [r3, #16]
 648:Core/Src/stm32f7xx_hal_msp.c ****     hdma_sdmmc1_tx.Init.PeriphDataAlignment = DMA_PDATAALIGN_WORD;
 1458              		.loc 1 648 45
 1459 0148 214B     		ldr	r3, .L63+24
 1460 014a 4FF48052 		mov	r2, #4096
 1461 014e 5A61     		str	r2, [r3, #20]
 649:Core/Src/stm32f7xx_hal_msp.c ****     hdma_sdmmc1_tx.Init.MemDataAlignment = DMA_MDATAALIGN_WORD;
 1462              		.loc 1 649 42
 1463 0150 1F4B     		ldr	r3, .L63+24
ARM GAS  C:\Users\jisu8\AppData\Local\Temp\ccKgGJL7.s 			page 38


 1464 0152 4FF48042 		mov	r2, #16384
 1465 0156 9A61     		str	r2, [r3, #24]
 650:Core/Src/stm32f7xx_hal_msp.c ****     hdma_sdmmc1_tx.Init.Mode = DMA_PFCTRL;
 1466              		.loc 1 650 30
 1467 0158 1D4B     		ldr	r3, .L63+24
 1468 015a 2022     		movs	r2, #32
 1469 015c DA61     		str	r2, [r3, #28]
 651:Core/Src/stm32f7xx_hal_msp.c ****     hdma_sdmmc1_tx.Init.Priority = DMA_PRIORITY_VERY_HIGH;
 1470              		.loc 1 651 34
 1471 015e 1C4B     		ldr	r3, .L63+24
 1472 0160 4FF44032 		mov	r2, #196608
 1473 0164 1A62     		str	r2, [r3, #32]
 652:Core/Src/stm32f7xx_hal_msp.c ****     hdma_sdmmc1_tx.Init.FIFOMode = DMA_FIFOMODE_ENABLE;
 1474              		.loc 1 652 34
 1475 0166 1A4B     		ldr	r3, .L63+24
 1476 0168 0422     		movs	r2, #4
 1477 016a 5A62     		str	r2, [r3, #36]
 653:Core/Src/stm32f7xx_hal_msp.c ****     hdma_sdmmc1_tx.Init.FIFOThreshold = DMA_FIFO_THRESHOLD_FULL;
 1478              		.loc 1 653 39
 1479 016c 184B     		ldr	r3, .L63+24
 1480 016e 0322     		movs	r2, #3
 1481 0170 9A62     		str	r2, [r3, #40]
 654:Core/Src/stm32f7xx_hal_msp.c ****     hdma_sdmmc1_tx.Init.MemBurst = DMA_MBURST_INC4;
 1482              		.loc 1 654 34
 1483 0172 174B     		ldr	r3, .L63+24
 1484 0174 4FF40002 		mov	r2, #8388608
 1485 0178 DA62     		str	r2, [r3, #44]
 655:Core/Src/stm32f7xx_hal_msp.c ****     hdma_sdmmc1_tx.Init.PeriphBurst = DMA_PBURST_INC4;
 1486              		.loc 1 655 37
 1487 017a 154B     		ldr	r3, .L63+24
 1488 017c 4FF40012 		mov	r2, #2097152
 1489 0180 1A63     		str	r2, [r3, #48]
 656:Core/Src/stm32f7xx_hal_msp.c ****     if (HAL_DMA_Init(&hdma_sdmmc1_tx) != HAL_OK)
 1490              		.loc 1 656 9
 1491 0182 1348     		ldr	r0, .L63+24
 1492 0184 FFF7FEFF 		bl	HAL_DMA_Init
 1493 0188 0346     		mov	r3, r0
 1494              		.loc 1 656 8
 1495 018a 002B     		cmp	r3, #0
 1496 018c 01D0     		beq	.L61
 657:Core/Src/stm32f7xx_hal_msp.c ****     {
 658:Core/Src/stm32f7xx_hal_msp.c ****       Error_Handler();
 1497              		.loc 1 658 7
 1498 018e FFF7FEFF 		bl	Error_Handler
 1499              	.L61:
 659:Core/Src/stm32f7xx_hal_msp.c ****     }
 660:Core/Src/stm32f7xx_hal_msp.c **** 
 661:Core/Src/stm32f7xx_hal_msp.c ****     __HAL_LINKDMA(hsd,hdmatx,hdma_sdmmc1_tx);
 1500              		.loc 1 661 5
 1501 0192 7B68     		ldr	r3, [r7, #4]
 1502 0194 0E4A     		ldr	r2, .L63+24
 1503 0196 DA63     		str	r2, [r3, #60]
 1504 0198 0D4A     		ldr	r2, .L63+24
 1505 019a 7B68     		ldr	r3, [r7, #4]
 1506 019c 9363     		str	r3, [r2, #56]
 662:Core/Src/stm32f7xx_hal_msp.c **** 
 663:Core/Src/stm32f7xx_hal_msp.c ****     /* SDMMC1 interrupt Init */
ARM GAS  C:\Users\jisu8\AppData\Local\Temp\ccKgGJL7.s 			page 39


 664:Core/Src/stm32f7xx_hal_msp.c ****     HAL_NVIC_SetPriority(SDMMC1_IRQn, 5, 0);
 1507              		.loc 1 664 5
 1508 019e 0022     		movs	r2, #0
 1509 01a0 0521     		movs	r1, #5
 1510 01a2 3120     		movs	r0, #49
 1511 01a4 FFF7FEFF 		bl	HAL_NVIC_SetPriority
 665:Core/Src/stm32f7xx_hal_msp.c ****     HAL_NVIC_EnableIRQ(SDMMC1_IRQn);
 1512              		.loc 1 665 5
 1513 01a8 3120     		movs	r0, #49
 1514 01aa FFF7FEFF 		bl	HAL_NVIC_EnableIRQ
 1515              	.L62:
 666:Core/Src/stm32f7xx_hal_msp.c ****   /* USER CODE BEGIN SDMMC1_MspInit 1 */
 667:Core/Src/stm32f7xx_hal_msp.c **** 
 668:Core/Src/stm32f7xx_hal_msp.c ****   /* USER CODE END SDMMC1_MspInit 1 */
 669:Core/Src/stm32f7xx_hal_msp.c ****   }
 670:Core/Src/stm32f7xx_hal_msp.c **** 
 671:Core/Src/stm32f7xx_hal_msp.c **** }
 1516              		.loc 1 671 1
 1517 01ae 00BF     		nop
 1518 01b0 2837     		adds	r7, r7, #40
 1519              	.LCFI60:
 1520              		.cfi_def_cfa_offset 8
 1521 01b2 BD46     		mov	sp, r7
 1522              	.LCFI61:
 1523              		.cfi_def_cfa_register 13
 1524              		@ sp needed
 1525 01b4 80BD     		pop	{r7, pc}
 1526              	.L64:
 1527 01b6 00BF     		.align	2
 1528              	.L63:
 1529 01b8 002C0140 		.word	1073818624
 1530 01bc 00380240 		.word	1073887232
 1531 01c0 00080240 		.word	1073874944
 1532 01c4 000C0240 		.word	1073875968
 1533 01c8 00000000 		.word	hdma_sdmmc1_rx
 1534 01cc 58640240 		.word	1073898584
 1535 01d0 00000000 		.word	hdma_sdmmc1_tx
 1536 01d4 A0640240 		.word	1073898656
 1537              		.cfi_endproc
 1538              	.LFE155:
 1540              		.section	.text.HAL_SD_MspDeInit,"ax",%progbits
 1541              		.align	1
 1542              		.global	HAL_SD_MspDeInit
 1543              		.syntax unified
 1544              		.thumb
 1545              		.thumb_func
 1547              	HAL_SD_MspDeInit:
 1548              	.LFB156:
 672:Core/Src/stm32f7xx_hal_msp.c **** 
 673:Core/Src/stm32f7xx_hal_msp.c **** /**
 674:Core/Src/stm32f7xx_hal_msp.c **** * @brief SD MSP De-Initialization
 675:Core/Src/stm32f7xx_hal_msp.c **** * This function freeze the hardware resources used in this example
 676:Core/Src/stm32f7xx_hal_msp.c **** * @param hsd: SD handle pointer
 677:Core/Src/stm32f7xx_hal_msp.c **** * @retval None
 678:Core/Src/stm32f7xx_hal_msp.c **** */
 679:Core/Src/stm32f7xx_hal_msp.c **** void HAL_SD_MspDeInit(SD_HandleTypeDef* hsd)
 680:Core/Src/stm32f7xx_hal_msp.c **** {
ARM GAS  C:\Users\jisu8\AppData\Local\Temp\ccKgGJL7.s 			page 40


 1549              		.loc 1 680 1
 1550              		.cfi_startproc
 1551              		@ args = 0, pretend = 0, frame = 8
 1552              		@ frame_needed = 1, uses_anonymous_args = 0
 1553 0000 80B5     		push	{r7, lr}
 1554              	.LCFI62:
 1555              		.cfi_def_cfa_offset 8
 1556              		.cfi_offset 7, -8
 1557              		.cfi_offset 14, -4
 1558 0002 82B0     		sub	sp, sp, #8
 1559              	.LCFI63:
 1560              		.cfi_def_cfa_offset 16
 1561 0004 00AF     		add	r7, sp, #0
 1562              	.LCFI64:
 1563              		.cfi_def_cfa_register 7
 1564 0006 7860     		str	r0, [r7, #4]
 681:Core/Src/stm32f7xx_hal_msp.c ****   if(hsd->Instance==SDMMC1)
 1565              		.loc 1 681 9
 1566 0008 7B68     		ldr	r3, [r7, #4]
 1567 000a 1B68     		ldr	r3, [r3]
 1568              		.loc 1 681 5
 1569 000c 114A     		ldr	r2, .L68
 1570 000e 9342     		cmp	r3, r2
 1571 0010 1BD1     		bne	.L67
 682:Core/Src/stm32f7xx_hal_msp.c ****   {
 683:Core/Src/stm32f7xx_hal_msp.c ****   /* USER CODE BEGIN SDMMC1_MspDeInit 0 */
 684:Core/Src/stm32f7xx_hal_msp.c **** 
 685:Core/Src/stm32f7xx_hal_msp.c ****   /* USER CODE END SDMMC1_MspDeInit 0 */
 686:Core/Src/stm32f7xx_hal_msp.c ****     /* Peripheral clock disable */
 687:Core/Src/stm32f7xx_hal_msp.c ****     __HAL_RCC_SDMMC1_CLK_DISABLE();
 1572              		.loc 1 687 5
 1573 0012 114B     		ldr	r3, .L68+4
 1574 0014 5B6C     		ldr	r3, [r3, #68]
 1575 0016 104A     		ldr	r2, .L68+4
 1576 0018 23F40063 		bic	r3, r3, #2048
 1577 001c 5364     		str	r3, [r2, #68]
 688:Core/Src/stm32f7xx_hal_msp.c **** 
 689:Core/Src/stm32f7xx_hal_msp.c ****     /**SDMMC1 GPIO Configuration
 690:Core/Src/stm32f7xx_hal_msp.c ****     PC12     ------> SDMMC1_CK
 691:Core/Src/stm32f7xx_hal_msp.c ****     PC11     ------> SDMMC1_D3
 692:Core/Src/stm32f7xx_hal_msp.c ****     PC10     ------> SDMMC1_D2
 693:Core/Src/stm32f7xx_hal_msp.c ****     PD2     ------> SDMMC1_CMD
 694:Core/Src/stm32f7xx_hal_msp.c ****     PC9     ------> SDMMC1_D1
 695:Core/Src/stm32f7xx_hal_msp.c ****     PC8     ------> SDMMC1_D0
 696:Core/Src/stm32f7xx_hal_msp.c ****     */
 697:Core/Src/stm32f7xx_hal_msp.c ****     HAL_GPIO_DeInit(GPIOC, SDMMC_CK_Pin|SDMMC_D3_Pin|SDMMC_D2_Pin|GPIO_PIN_9
 1578              		.loc 1 697 5
 1579 001e 4FF4F851 		mov	r1, #7936
 1580 0022 0E48     		ldr	r0, .L68+8
 1581 0024 FFF7FEFF 		bl	HAL_GPIO_DeInit
 698:Core/Src/stm32f7xx_hal_msp.c ****                           |GPIO_PIN_8);
 699:Core/Src/stm32f7xx_hal_msp.c **** 
 700:Core/Src/stm32f7xx_hal_msp.c ****     HAL_GPIO_DeInit(SDMMC_CMD_GPIO_Port, SDMMC_CMD_Pin);
 1582              		.loc 1 700 5
 1583 0028 0421     		movs	r1, #4
 1584 002a 0D48     		ldr	r0, .L68+12
 1585 002c FFF7FEFF 		bl	HAL_GPIO_DeInit
ARM GAS  C:\Users\jisu8\AppData\Local\Temp\ccKgGJL7.s 			page 41


 701:Core/Src/stm32f7xx_hal_msp.c **** 
 702:Core/Src/stm32f7xx_hal_msp.c ****     /* SDMMC1 DMA DeInit */
 703:Core/Src/stm32f7xx_hal_msp.c ****     HAL_DMA_DeInit(hsd->hdmarx);
 1586              		.loc 1 703 5
 1587 0030 7B68     		ldr	r3, [r7, #4]
 1588 0032 1B6C     		ldr	r3, [r3, #64]
 1589 0034 1846     		mov	r0, r3
 1590 0036 FFF7FEFF 		bl	HAL_DMA_DeInit
 704:Core/Src/stm32f7xx_hal_msp.c ****     HAL_DMA_DeInit(hsd->hdmatx);
 1591              		.loc 1 704 5
 1592 003a 7B68     		ldr	r3, [r7, #4]
 1593 003c DB6B     		ldr	r3, [r3, #60]
 1594 003e 1846     		mov	r0, r3
 1595 0040 FFF7FEFF 		bl	HAL_DMA_DeInit
 705:Core/Src/stm32f7xx_hal_msp.c **** 
 706:Core/Src/stm32f7xx_hal_msp.c ****     /* SDMMC1 interrupt DeInit */
 707:Core/Src/stm32f7xx_hal_msp.c ****     HAL_NVIC_DisableIRQ(SDMMC1_IRQn);
 1596              		.loc 1 707 5
 1597 0044 3120     		movs	r0, #49
 1598 0046 FFF7FEFF 		bl	HAL_NVIC_DisableIRQ
 1599              	.L67:
 708:Core/Src/stm32f7xx_hal_msp.c ****   /* USER CODE BEGIN SDMMC1_MspDeInit 1 */
 709:Core/Src/stm32f7xx_hal_msp.c **** 
 710:Core/Src/stm32f7xx_hal_msp.c ****   /* USER CODE END SDMMC1_MspDeInit 1 */
 711:Core/Src/stm32f7xx_hal_msp.c ****   }
 712:Core/Src/stm32f7xx_hal_msp.c **** 
 713:Core/Src/stm32f7xx_hal_msp.c **** }
 1600              		.loc 1 713 1
 1601 004a 00BF     		nop
 1602 004c 0837     		adds	r7, r7, #8
 1603              	.LCFI65:
 1604              		.cfi_def_cfa_offset 8
 1605 004e BD46     		mov	sp, r7
 1606              	.LCFI66:
 1607              		.cfi_def_cfa_register 13
 1608              		@ sp needed
 1609 0050 80BD     		pop	{r7, pc}
 1610              	.L69:
 1611 0052 00BF     		.align	2
 1612              	.L68:
 1613 0054 002C0140 		.word	1073818624
 1614 0058 00380240 		.word	1073887232
 1615 005c 00080240 		.word	1073874944
 1616 0060 000C0240 		.word	1073875968
 1617              		.cfi_endproc
 1618              	.LFE156:
 1620              		.section	.text.HAL_SPI_MspInit,"ax",%progbits
 1621              		.align	1
 1622              		.global	HAL_SPI_MspInit
 1623              		.syntax unified
 1624              		.thumb
 1625              		.thumb_func
 1627              	HAL_SPI_MspInit:
 1628              	.LFB157:
 714:Core/Src/stm32f7xx_hal_msp.c **** 
 715:Core/Src/stm32f7xx_hal_msp.c **** /**
 716:Core/Src/stm32f7xx_hal_msp.c **** * @brief SPI MSP Initialization
ARM GAS  C:\Users\jisu8\AppData\Local\Temp\ccKgGJL7.s 			page 42


 717:Core/Src/stm32f7xx_hal_msp.c **** * This function configures the hardware resources used in this example
 718:Core/Src/stm32f7xx_hal_msp.c **** * @param hspi: SPI handle pointer
 719:Core/Src/stm32f7xx_hal_msp.c **** * @retval None
 720:Core/Src/stm32f7xx_hal_msp.c **** */
 721:Core/Src/stm32f7xx_hal_msp.c **** void HAL_SPI_MspInit(SPI_HandleTypeDef* hspi)
 722:Core/Src/stm32f7xx_hal_msp.c **** {
 1629              		.loc 1 722 1
 1630              		.cfi_startproc
 1631              		@ args = 0, pretend = 0, frame = 40
 1632              		@ frame_needed = 1, uses_anonymous_args = 0
 1633 0000 80B5     		push	{r7, lr}
 1634              	.LCFI67:
 1635              		.cfi_def_cfa_offset 8
 1636              		.cfi_offset 7, -8
 1637              		.cfi_offset 14, -4
 1638 0002 8AB0     		sub	sp, sp, #40
 1639              	.LCFI68:
 1640              		.cfi_def_cfa_offset 48
 1641 0004 00AF     		add	r7, sp, #0
 1642              	.LCFI69:
 1643              		.cfi_def_cfa_register 7
 1644 0006 7860     		str	r0, [r7, #4]
 723:Core/Src/stm32f7xx_hal_msp.c ****   GPIO_InitTypeDef GPIO_InitStruct = {0};
 1645              		.loc 1 723 20
 1646 0008 07F11403 		add	r3, r7, #20
 1647 000c 0022     		movs	r2, #0
 1648 000e 1A60     		str	r2, [r3]
 1649 0010 5A60     		str	r2, [r3, #4]
 1650 0012 9A60     		str	r2, [r3, #8]
 1651 0014 DA60     		str	r2, [r3, #12]
 1652 0016 1A61     		str	r2, [r3, #16]
 724:Core/Src/stm32f7xx_hal_msp.c ****   if(hspi->Instance==SPI2)
 1653              		.loc 1 724 10
 1654 0018 7B68     		ldr	r3, [r7, #4]
 1655 001a 1B68     		ldr	r3, [r3]
 1656              		.loc 1 724 5
 1657 001c 254A     		ldr	r2, .L73
 1658 001e 9342     		cmp	r3, r2
 1659 0020 44D1     		bne	.L72
 1660              	.LBB23:
 725:Core/Src/stm32f7xx_hal_msp.c ****   {
 726:Core/Src/stm32f7xx_hal_msp.c ****   /* USER CODE BEGIN SPI2_MspInit 0 */
 727:Core/Src/stm32f7xx_hal_msp.c **** 
 728:Core/Src/stm32f7xx_hal_msp.c ****   /* USER CODE END SPI2_MspInit 0 */
 729:Core/Src/stm32f7xx_hal_msp.c ****     /* Peripheral clock enable */
 730:Core/Src/stm32f7xx_hal_msp.c ****     __HAL_RCC_SPI2_CLK_ENABLE();
 1661              		.loc 1 730 5
 1662 0022 254B     		ldr	r3, .L73+4
 1663 0024 1B6C     		ldr	r3, [r3, #64]
 1664 0026 244A     		ldr	r2, .L73+4
 1665 0028 43F48043 		orr	r3, r3, #16384
 1666 002c 1364     		str	r3, [r2, #64]
 1667 002e 224B     		ldr	r3, .L73+4
 1668 0030 1B6C     		ldr	r3, [r3, #64]
 1669 0032 03F48043 		and	r3, r3, #16384
 1670 0036 3B61     		str	r3, [r7, #16]
 1671 0038 3B69     		ldr	r3, [r7, #16]
ARM GAS  C:\Users\jisu8\AppData\Local\Temp\ccKgGJL7.s 			page 43


 1672              	.LBE23:
 1673              	.LBB24:
 731:Core/Src/stm32f7xx_hal_msp.c **** 
 732:Core/Src/stm32f7xx_hal_msp.c ****     __HAL_RCC_GPIOI_CLK_ENABLE();
 1674              		.loc 1 732 5
 1675 003a 1F4B     		ldr	r3, .L73+4
 1676 003c 1B6B     		ldr	r3, [r3, #48]
 1677 003e 1E4A     		ldr	r2, .L73+4
 1678 0040 43F48073 		orr	r3, r3, #256
 1679 0044 1363     		str	r3, [r2, #48]
 1680 0046 1C4B     		ldr	r3, .L73+4
 1681 0048 1B6B     		ldr	r3, [r3, #48]
 1682 004a 03F48073 		and	r3, r3, #256
 1683 004e FB60     		str	r3, [r7, #12]
 1684 0050 FB68     		ldr	r3, [r7, #12]
 1685              	.LBE24:
 1686              	.LBB25:
 733:Core/Src/stm32f7xx_hal_msp.c ****     __HAL_RCC_GPIOB_CLK_ENABLE();
 1687              		.loc 1 733 5
 1688 0052 194B     		ldr	r3, .L73+4
 1689 0054 1B6B     		ldr	r3, [r3, #48]
 1690 0056 184A     		ldr	r2, .L73+4
 1691 0058 43F00203 		orr	r3, r3, #2
 1692 005c 1363     		str	r3, [r2, #48]
 1693 005e 164B     		ldr	r3, .L73+4
 1694 0060 1B6B     		ldr	r3, [r3, #48]
 1695 0062 03F00203 		and	r3, r3, #2
 1696 0066 BB60     		str	r3, [r7, #8]
 1697 0068 BB68     		ldr	r3, [r7, #8]
 1698              	.LBE25:
 734:Core/Src/stm32f7xx_hal_msp.c ****     /**SPI2 GPIO Configuration
 735:Core/Src/stm32f7xx_hal_msp.c ****     PI1     ------> SPI2_SCK
 736:Core/Src/stm32f7xx_hal_msp.c ****     PB14     ------> SPI2_MISO
 737:Core/Src/stm32f7xx_hal_msp.c ****     PB15     ------> SPI2_MOSI
 738:Core/Src/stm32f7xx_hal_msp.c ****     */
 739:Core/Src/stm32f7xx_hal_msp.c ****     GPIO_InitStruct.Pin = ARDUINO_SCK_D13_Pin;
 1699              		.loc 1 739 25
 1700 006a 0223     		movs	r3, #2
 1701 006c 7B61     		str	r3, [r7, #20]
 740:Core/Src/stm32f7xx_hal_msp.c ****     GPIO_InitStruct.Mode = GPIO_MODE_AF_PP;
 1702              		.loc 1 740 26
 1703 006e 0223     		movs	r3, #2
 1704 0070 BB61     		str	r3, [r7, #24]
 741:Core/Src/stm32f7xx_hal_msp.c ****     GPIO_InitStruct.Pull = GPIO_NOPULL;
 1705              		.loc 1 741 26
 1706 0072 0023     		movs	r3, #0
 1707 0074 FB61     		str	r3, [r7, #28]
 742:Core/Src/stm32f7xx_hal_msp.c ****     GPIO_InitStruct.Speed = GPIO_SPEED_FREQ_LOW;
 1708              		.loc 1 742 27
 1709 0076 0023     		movs	r3, #0
 1710 0078 3B62     		str	r3, [r7, #32]
 743:Core/Src/stm32f7xx_hal_msp.c ****     GPIO_InitStruct.Alternate = GPIO_AF5_SPI2;
 1711              		.loc 1 743 31
 1712 007a 0523     		movs	r3, #5
 1713 007c 7B62     		str	r3, [r7, #36]
 744:Core/Src/stm32f7xx_hal_msp.c ****     HAL_GPIO_Init(ARDUINO_SCK_D13_GPIO_Port, &GPIO_InitStruct);
 1714              		.loc 1 744 5
ARM GAS  C:\Users\jisu8\AppData\Local\Temp\ccKgGJL7.s 			page 44


 1715 007e 07F11403 		add	r3, r7, #20
 1716 0082 1946     		mov	r1, r3
 1717 0084 0D48     		ldr	r0, .L73+8
 1718 0086 FFF7FEFF 		bl	HAL_GPIO_Init
 745:Core/Src/stm32f7xx_hal_msp.c **** 
 746:Core/Src/stm32f7xx_hal_msp.c ****     GPIO_InitStruct.Pin = ARDUINO_MISO_D12_Pin|ARDUINO_MOSI_PWM_D11_Pin;
 1719              		.loc 1 746 25
 1720 008a 4FF44043 		mov	r3, #49152
 1721 008e 7B61     		str	r3, [r7, #20]
 747:Core/Src/stm32f7xx_hal_msp.c ****     GPIO_InitStruct.Mode = GPIO_MODE_AF_PP;
 1722              		.loc 1 747 26
 1723 0090 0223     		movs	r3, #2
 1724 0092 BB61     		str	r3, [r7, #24]
 748:Core/Src/stm32f7xx_hal_msp.c ****     GPIO_InitStruct.Pull = GPIO_NOPULL;
 1725              		.loc 1 748 26
 1726 0094 0023     		movs	r3, #0
 1727 0096 FB61     		str	r3, [r7, #28]
 749:Core/Src/stm32f7xx_hal_msp.c ****     GPIO_InitStruct.Speed = GPIO_SPEED_FREQ_LOW;
 1728              		.loc 1 749 27
 1729 0098 0023     		movs	r3, #0
 1730 009a 3B62     		str	r3, [r7, #32]
 750:Core/Src/stm32f7xx_hal_msp.c ****     GPIO_InitStruct.Alternate = GPIO_AF5_SPI2;
 1731              		.loc 1 750 31
 1732 009c 0523     		movs	r3, #5
 1733 009e 7B62     		str	r3, [r7, #36]
 751:Core/Src/stm32f7xx_hal_msp.c ****     HAL_GPIO_Init(GPIOB, &GPIO_InitStruct);
 1734              		.loc 1 751 5
 1735 00a0 07F11403 		add	r3, r7, #20
 1736 00a4 1946     		mov	r1, r3
 1737 00a6 0648     		ldr	r0, .L73+12
 1738 00a8 FFF7FEFF 		bl	HAL_GPIO_Init
 1739              	.L72:
 752:Core/Src/stm32f7xx_hal_msp.c **** 
 753:Core/Src/stm32f7xx_hal_msp.c ****   /* USER CODE BEGIN SPI2_MspInit 1 */
 754:Core/Src/stm32f7xx_hal_msp.c **** 
 755:Core/Src/stm32f7xx_hal_msp.c ****   /* USER CODE END SPI2_MspInit 1 */
 756:Core/Src/stm32f7xx_hal_msp.c ****   }
 757:Core/Src/stm32f7xx_hal_msp.c **** 
 758:Core/Src/stm32f7xx_hal_msp.c **** }
 1740              		.loc 1 758 1
 1741 00ac 00BF     		nop
 1742 00ae 2837     		adds	r7, r7, #40
 1743              	.LCFI70:
 1744              		.cfi_def_cfa_offset 8
 1745 00b0 BD46     		mov	sp, r7
 1746              	.LCFI71:
 1747              		.cfi_def_cfa_register 13
 1748              		@ sp needed
 1749 00b2 80BD     		pop	{r7, pc}
 1750              	.L74:
 1751              		.align	2
 1752              	.L73:
 1753 00b4 00380040 		.word	1073756160
 1754 00b8 00380240 		.word	1073887232
 1755 00bc 00200240 		.word	1073881088
 1756 00c0 00040240 		.word	1073873920
 1757              		.cfi_endproc
ARM GAS  C:\Users\jisu8\AppData\Local\Temp\ccKgGJL7.s 			page 45


 1758              	.LFE157:
 1760              		.section	.text.HAL_SPI_MspDeInit,"ax",%progbits
 1761              		.align	1
 1762              		.global	HAL_SPI_MspDeInit
 1763              		.syntax unified
 1764              		.thumb
 1765              		.thumb_func
 1767              	HAL_SPI_MspDeInit:
 1768              	.LFB158:
 759:Core/Src/stm32f7xx_hal_msp.c **** 
 760:Core/Src/stm32f7xx_hal_msp.c **** /**
 761:Core/Src/stm32f7xx_hal_msp.c **** * @brief SPI MSP De-Initialization
 762:Core/Src/stm32f7xx_hal_msp.c **** * This function freeze the hardware resources used in this example
 763:Core/Src/stm32f7xx_hal_msp.c **** * @param hspi: SPI handle pointer
 764:Core/Src/stm32f7xx_hal_msp.c **** * @retval None
 765:Core/Src/stm32f7xx_hal_msp.c **** */
 766:Core/Src/stm32f7xx_hal_msp.c **** void HAL_SPI_MspDeInit(SPI_HandleTypeDef* hspi)
 767:Core/Src/stm32f7xx_hal_msp.c **** {
 1769              		.loc 1 767 1
 1770              		.cfi_startproc
 1771              		@ args = 0, pretend = 0, frame = 8
 1772              		@ frame_needed = 1, uses_anonymous_args = 0
 1773 0000 80B5     		push	{r7, lr}
 1774              	.LCFI72:
 1775              		.cfi_def_cfa_offset 8
 1776              		.cfi_offset 7, -8
 1777              		.cfi_offset 14, -4
 1778 0002 82B0     		sub	sp, sp, #8
 1779              	.LCFI73:
 1780              		.cfi_def_cfa_offset 16
 1781 0004 00AF     		add	r7, sp, #0
 1782              	.LCFI74:
 1783              		.cfi_def_cfa_register 7
 1784 0006 7860     		str	r0, [r7, #4]
 768:Core/Src/stm32f7xx_hal_msp.c ****   if(hspi->Instance==SPI2)
 1785              		.loc 1 768 10
 1786 0008 7B68     		ldr	r3, [r7, #4]
 1787 000a 1B68     		ldr	r3, [r3]
 1788              		.loc 1 768 5
 1789 000c 0A4A     		ldr	r2, .L78
 1790 000e 9342     		cmp	r3, r2
 1791 0010 0ED1     		bne	.L77
 769:Core/Src/stm32f7xx_hal_msp.c ****   {
 770:Core/Src/stm32f7xx_hal_msp.c ****   /* USER CODE BEGIN SPI2_MspDeInit 0 */
 771:Core/Src/stm32f7xx_hal_msp.c **** 
 772:Core/Src/stm32f7xx_hal_msp.c ****   /* USER CODE END SPI2_MspDeInit 0 */
 773:Core/Src/stm32f7xx_hal_msp.c ****     /* Peripheral clock disable */
 774:Core/Src/stm32f7xx_hal_msp.c ****     __HAL_RCC_SPI2_CLK_DISABLE();
 1792              		.loc 1 774 5
 1793 0012 0A4B     		ldr	r3, .L78+4
 1794 0014 1B6C     		ldr	r3, [r3, #64]
 1795 0016 094A     		ldr	r2, .L78+4
 1796 0018 23F48043 		bic	r3, r3, #16384
 1797 001c 1364     		str	r3, [r2, #64]
 775:Core/Src/stm32f7xx_hal_msp.c **** 
 776:Core/Src/stm32f7xx_hal_msp.c ****     /**SPI2 GPIO Configuration
 777:Core/Src/stm32f7xx_hal_msp.c ****     PI1     ------> SPI2_SCK
ARM GAS  C:\Users\jisu8\AppData\Local\Temp\ccKgGJL7.s 			page 46


 778:Core/Src/stm32f7xx_hal_msp.c ****     PB14     ------> SPI2_MISO
 779:Core/Src/stm32f7xx_hal_msp.c ****     PB15     ------> SPI2_MOSI
 780:Core/Src/stm32f7xx_hal_msp.c ****     */
 781:Core/Src/stm32f7xx_hal_msp.c ****     HAL_GPIO_DeInit(ARDUINO_SCK_D13_GPIO_Port, ARDUINO_SCK_D13_Pin);
 1798              		.loc 1 781 5
 1799 001e 0221     		movs	r1, #2
 1800 0020 0748     		ldr	r0, .L78+8
 1801 0022 FFF7FEFF 		bl	HAL_GPIO_DeInit
 782:Core/Src/stm32f7xx_hal_msp.c **** 
 783:Core/Src/stm32f7xx_hal_msp.c ****     HAL_GPIO_DeInit(GPIOB, ARDUINO_MISO_D12_Pin|ARDUINO_MOSI_PWM_D11_Pin);
 1802              		.loc 1 783 5
 1803 0026 4FF44041 		mov	r1, #49152
 1804 002a 0648     		ldr	r0, .L78+12
 1805 002c FFF7FEFF 		bl	HAL_GPIO_DeInit
 1806              	.L77:
 784:Core/Src/stm32f7xx_hal_msp.c **** 
 785:Core/Src/stm32f7xx_hal_msp.c ****   /* USER CODE BEGIN SPI2_MspDeInit 1 */
 786:Core/Src/stm32f7xx_hal_msp.c **** 
 787:Core/Src/stm32f7xx_hal_msp.c ****   /* USER CODE END SPI2_MspDeInit 1 */
 788:Core/Src/stm32f7xx_hal_msp.c ****   }
 789:Core/Src/stm32f7xx_hal_msp.c **** 
 790:Core/Src/stm32f7xx_hal_msp.c **** }
 1807              		.loc 1 790 1
 1808 0030 00BF     		nop
 1809 0032 0837     		adds	r7, r7, #8
 1810              	.LCFI75:
 1811              		.cfi_def_cfa_offset 8
 1812 0034 BD46     		mov	sp, r7
 1813              	.LCFI76:
 1814              		.cfi_def_cfa_register 13
 1815              		@ sp needed
 1816 0036 80BD     		pop	{r7, pc}
 1817              	.L79:
 1818              		.align	2
 1819              	.L78:
 1820 0038 00380040 		.word	1073756160
 1821 003c 00380240 		.word	1073887232
 1822 0040 00200240 		.word	1073881088
 1823 0044 00040240 		.word	1073873920
 1824              		.cfi_endproc
 1825              	.LFE158:
 1827              		.section	.text.HAL_UART_MspInit,"ax",%progbits
 1828              		.align	1
 1829              		.global	HAL_UART_MspInit
 1830              		.syntax unified
 1831              		.thumb
 1832              		.thumb_func
 1834              	HAL_UART_MspInit:
 1835              	.LFB159:
 791:Core/Src/stm32f7xx_hal_msp.c **** 
 792:Core/Src/stm32f7xx_hal_msp.c **** /**
 793:Core/Src/stm32f7xx_hal_msp.c **** * @brief UART MSP Initialization
 794:Core/Src/stm32f7xx_hal_msp.c **** * This function configures the hardware resources used in this example
 795:Core/Src/stm32f7xx_hal_msp.c **** * @param huart: UART handle pointer
 796:Core/Src/stm32f7xx_hal_msp.c **** * @retval None
 797:Core/Src/stm32f7xx_hal_msp.c **** */
 798:Core/Src/stm32f7xx_hal_msp.c **** void HAL_UART_MspInit(UART_HandleTypeDef* huart)
ARM GAS  C:\Users\jisu8\AppData\Local\Temp\ccKgGJL7.s 			page 47


 799:Core/Src/stm32f7xx_hal_msp.c **** {
 1836              		.loc 1 799 1
 1837              		.cfi_startproc
 1838              		@ args = 0, pretend = 0, frame = 184
 1839              		@ frame_needed = 1, uses_anonymous_args = 0
 1840 0000 80B5     		push	{r7, lr}
 1841              	.LCFI77:
 1842              		.cfi_def_cfa_offset 8
 1843              		.cfi_offset 7, -8
 1844              		.cfi_offset 14, -4
 1845 0002 AEB0     		sub	sp, sp, #184
 1846              	.LCFI78:
 1847              		.cfi_def_cfa_offset 192
 1848 0004 00AF     		add	r7, sp, #0
 1849              	.LCFI79:
 1850              		.cfi_def_cfa_register 7
 1851 0006 7860     		str	r0, [r7, #4]
 800:Core/Src/stm32f7xx_hal_msp.c ****   GPIO_InitTypeDef GPIO_InitStruct = {0};
 1852              		.loc 1 800 20
 1853 0008 07F1A403 		add	r3, r7, #164
 1854 000c 0022     		movs	r2, #0
 1855 000e 1A60     		str	r2, [r3]
 1856 0010 5A60     		str	r2, [r3, #4]
 1857 0012 9A60     		str	r2, [r3, #8]
 1858 0014 DA60     		str	r2, [r3, #12]
 1859 0016 1A61     		str	r2, [r3, #16]
 801:Core/Src/stm32f7xx_hal_msp.c ****   RCC_PeriphCLKInitTypeDef PeriphClkInitStruct = {0};
 1860              		.loc 1 801 28
 1861 0018 07F12003 		add	r3, r7, #32
 1862 001c 8422     		movs	r2, #132
 1863 001e 0021     		movs	r1, #0
 1864 0020 1846     		mov	r0, r3
 1865 0022 FFF7FEFF 		bl	memset
 802:Core/Src/stm32f7xx_hal_msp.c ****   if(huart->Instance==USART1)
 1866              		.loc 1 802 11
 1867 0026 7B68     		ldr	r3, [r7, #4]
 1868 0028 1B68     		ldr	r3, [r3]
 1869              		.loc 1 802 5
 1870 002a 534A     		ldr	r2, .L86
 1871 002c 9342     		cmp	r3, r2
 1872 002e 5DD1     		bne	.L81
 803:Core/Src/stm32f7xx_hal_msp.c ****   {
 804:Core/Src/stm32f7xx_hal_msp.c ****   /* USER CODE BEGIN USART1_MspInit 0 */
 805:Core/Src/stm32f7xx_hal_msp.c **** 
 806:Core/Src/stm32f7xx_hal_msp.c ****   /* USER CODE END USART1_MspInit 0 */
 807:Core/Src/stm32f7xx_hal_msp.c **** 
 808:Core/Src/stm32f7xx_hal_msp.c ****   /** Initializes the peripherals clock
 809:Core/Src/stm32f7xx_hal_msp.c ****   */
 810:Core/Src/stm32f7xx_hal_msp.c ****     PeriphClkInitStruct.PeriphClockSelection = RCC_PERIPHCLK_USART1;
 1873              		.loc 1 810 46
 1874 0030 4023     		movs	r3, #64
 1875 0032 3B62     		str	r3, [r7, #32]
 811:Core/Src/stm32f7xx_hal_msp.c ****     PeriphClkInitStruct.Usart1ClockSelection = RCC_USART1CLKSOURCE_PCLK2;
 1876              		.loc 1 811 46
 1877 0034 0023     		movs	r3, #0
 1878 0036 7B66     		str	r3, [r7, #100]
 812:Core/Src/stm32f7xx_hal_msp.c ****     if (HAL_RCCEx_PeriphCLKConfig(&PeriphClkInitStruct) != HAL_OK)
ARM GAS  C:\Users\jisu8\AppData\Local\Temp\ccKgGJL7.s 			page 48


 1879              		.loc 1 812 9
 1880 0038 07F12003 		add	r3, r7, #32
 1881 003c 1846     		mov	r0, r3
 1882 003e FFF7FEFF 		bl	HAL_RCCEx_PeriphCLKConfig
 1883 0042 0346     		mov	r3, r0
 1884              		.loc 1 812 8
 1885 0044 002B     		cmp	r3, #0
 1886 0046 01D0     		beq	.L82
 813:Core/Src/stm32f7xx_hal_msp.c ****     {
 814:Core/Src/stm32f7xx_hal_msp.c ****       Error_Handler();
 1887              		.loc 1 814 7
 1888 0048 FFF7FEFF 		bl	Error_Handler
 1889              	.L82:
 1890              	.LBB26:
 815:Core/Src/stm32f7xx_hal_msp.c ****     }
 816:Core/Src/stm32f7xx_hal_msp.c **** 
 817:Core/Src/stm32f7xx_hal_msp.c ****     /* Peripheral clock enable */
 818:Core/Src/stm32f7xx_hal_msp.c ****     __HAL_RCC_USART1_CLK_ENABLE();
 1891              		.loc 1 818 5
 1892 004c 4B4B     		ldr	r3, .L86+4
 1893 004e 5B6C     		ldr	r3, [r3, #68]
 1894 0050 4A4A     		ldr	r2, .L86+4
 1895 0052 43F01003 		orr	r3, r3, #16
 1896 0056 5364     		str	r3, [r2, #68]
 1897 0058 484B     		ldr	r3, .L86+4
 1898 005a 5B6C     		ldr	r3, [r3, #68]
 1899 005c 03F01003 		and	r3, r3, #16
 1900 0060 FB61     		str	r3, [r7, #28]
 1901 0062 FB69     		ldr	r3, [r7, #28]
 1902              	.LBE26:
 1903              	.LBB27:
 819:Core/Src/stm32f7xx_hal_msp.c **** 
 820:Core/Src/stm32f7xx_hal_msp.c ****     __HAL_RCC_GPIOB_CLK_ENABLE();
 1904              		.loc 1 820 5
 1905 0064 454B     		ldr	r3, .L86+4
 1906 0066 1B6B     		ldr	r3, [r3, #48]
 1907 0068 444A     		ldr	r2, .L86+4
 1908 006a 43F00203 		orr	r3, r3, #2
 1909 006e 1363     		str	r3, [r2, #48]
 1910 0070 424B     		ldr	r3, .L86+4
 1911 0072 1B6B     		ldr	r3, [r3, #48]
 1912 0074 03F00203 		and	r3, r3, #2
 1913 0078 BB61     		str	r3, [r7, #24]
 1914 007a BB69     		ldr	r3, [r7, #24]
 1915              	.LBE27:
 1916              	.LBB28:
 821:Core/Src/stm32f7xx_hal_msp.c ****     __HAL_RCC_GPIOA_CLK_ENABLE();
 1917              		.loc 1 821 5
 1918 007c 3F4B     		ldr	r3, .L86+4
 1919 007e 1B6B     		ldr	r3, [r3, #48]
 1920 0080 3E4A     		ldr	r2, .L86+4
 1921 0082 43F00103 		orr	r3, r3, #1
 1922 0086 1363     		str	r3, [r2, #48]
 1923 0088 3C4B     		ldr	r3, .L86+4
 1924 008a 1B6B     		ldr	r3, [r3, #48]
 1925 008c 03F00103 		and	r3, r3, #1
 1926 0090 7B61     		str	r3, [r7, #20]
ARM GAS  C:\Users\jisu8\AppData\Local\Temp\ccKgGJL7.s 			page 49


 1927 0092 7B69     		ldr	r3, [r7, #20]
 1928              	.LBE28:
 822:Core/Src/stm32f7xx_hal_msp.c ****     /**USART1 GPIO Configuration
 823:Core/Src/stm32f7xx_hal_msp.c ****     PB7     ------> USART1_RX
 824:Core/Src/stm32f7xx_hal_msp.c ****     PA9     ------> USART1_TX
 825:Core/Src/stm32f7xx_hal_msp.c ****     */
 826:Core/Src/stm32f7xx_hal_msp.c ****     GPIO_InitStruct.Pin = VCP_RX_Pin;
 1929              		.loc 1 826 25
 1930 0094 8023     		movs	r3, #128
 1931 0096 C7F8A430 		str	r3, [r7, #164]
 827:Core/Src/stm32f7xx_hal_msp.c ****     GPIO_InitStruct.Mode = GPIO_MODE_AF_PP;
 1932              		.loc 1 827 26
 1933 009a 0223     		movs	r3, #2
 1934 009c C7F8A830 		str	r3, [r7, #168]
 828:Core/Src/stm32f7xx_hal_msp.c ****     GPIO_InitStruct.Pull = GPIO_NOPULL;
 1935              		.loc 1 828 26
 1936 00a0 0023     		movs	r3, #0
 1937 00a2 C7F8AC30 		str	r3, [r7, #172]
 829:Core/Src/stm32f7xx_hal_msp.c ****     GPIO_InitStruct.Speed = GPIO_SPEED_FREQ_LOW;
 1938              		.loc 1 829 27
 1939 00a6 0023     		movs	r3, #0
 1940 00a8 C7F8B030 		str	r3, [r7, #176]
 830:Core/Src/stm32f7xx_hal_msp.c ****     GPIO_InitStruct.Alternate = GPIO_AF7_USART1;
 1941              		.loc 1 830 31
 1942 00ac 0723     		movs	r3, #7
 1943 00ae C7F8B430 		str	r3, [r7, #180]
 831:Core/Src/stm32f7xx_hal_msp.c ****     HAL_GPIO_Init(VCP_RX_GPIO_Port, &GPIO_InitStruct);
 1944              		.loc 1 831 5
 1945 00b2 07F1A403 		add	r3, r7, #164
 1946 00b6 1946     		mov	r1, r3
 1947 00b8 3148     		ldr	r0, .L86+8
 1948 00ba FFF7FEFF 		bl	HAL_GPIO_Init
 832:Core/Src/stm32f7xx_hal_msp.c **** 
 833:Core/Src/stm32f7xx_hal_msp.c ****     GPIO_InitStruct.Pin = VCP_TX_Pin;
 1949              		.loc 1 833 25
 1950 00be 4FF40073 		mov	r3, #512
 1951 00c2 C7F8A430 		str	r3, [r7, #164]
 834:Core/Src/stm32f7xx_hal_msp.c ****     GPIO_InitStruct.Mode = GPIO_MODE_AF_PP;
 1952              		.loc 1 834 26
 1953 00c6 0223     		movs	r3, #2
 1954 00c8 C7F8A830 		str	r3, [r7, #168]
 835:Core/Src/stm32f7xx_hal_msp.c ****     GPIO_InitStruct.Pull = GPIO_NOPULL;
 1955              		.loc 1 835 26
 1956 00cc 0023     		movs	r3, #0
 1957 00ce C7F8AC30 		str	r3, [r7, #172]
 836:Core/Src/stm32f7xx_hal_msp.c ****     GPIO_InitStruct.Speed = GPIO_SPEED_FREQ_LOW;
 1958              		.loc 1 836 27
 1959 00d2 0023     		movs	r3, #0
 1960 00d4 C7F8B030 		str	r3, [r7, #176]
 837:Core/Src/stm32f7xx_hal_msp.c ****     GPIO_InitStruct.Alternate = GPIO_AF7_USART1;
 1961              		.loc 1 837 31
 1962 00d8 0723     		movs	r3, #7
 1963 00da C7F8B430 		str	r3, [r7, #180]
 838:Core/Src/stm32f7xx_hal_msp.c ****     HAL_GPIO_Init(VCP_TX_GPIO_Port, &GPIO_InitStruct);
 1964              		.loc 1 838 5
 1965 00de 07F1A403 		add	r3, r7, #164
 1966 00e2 1946     		mov	r1, r3
ARM GAS  C:\Users\jisu8\AppData\Local\Temp\ccKgGJL7.s 			page 50


 1967 00e4 2748     		ldr	r0, .L86+12
 1968 00e6 FFF7FEFF 		bl	HAL_GPIO_Init
 839:Core/Src/stm32f7xx_hal_msp.c **** 
 840:Core/Src/stm32f7xx_hal_msp.c ****   /* USER CODE BEGIN USART1_MspInit 1 */
 841:Core/Src/stm32f7xx_hal_msp.c **** 
 842:Core/Src/stm32f7xx_hal_msp.c ****   /* USER CODE END USART1_MspInit 1 */
 843:Core/Src/stm32f7xx_hal_msp.c ****   }
 844:Core/Src/stm32f7xx_hal_msp.c ****   else if(huart->Instance==USART6)
 845:Core/Src/stm32f7xx_hal_msp.c ****   {
 846:Core/Src/stm32f7xx_hal_msp.c ****   /* USER CODE BEGIN USART6_MspInit 0 */
 847:Core/Src/stm32f7xx_hal_msp.c **** 
 848:Core/Src/stm32f7xx_hal_msp.c ****   /* USER CODE END USART6_MspInit 0 */
 849:Core/Src/stm32f7xx_hal_msp.c **** 
 850:Core/Src/stm32f7xx_hal_msp.c ****   /** Initializes the peripherals clock
 851:Core/Src/stm32f7xx_hal_msp.c ****   */
 852:Core/Src/stm32f7xx_hal_msp.c ****     PeriphClkInitStruct.PeriphClockSelection = RCC_PERIPHCLK_USART6;
 853:Core/Src/stm32f7xx_hal_msp.c ****     PeriphClkInitStruct.Usart6ClockSelection = RCC_USART6CLKSOURCE_PCLK2;
 854:Core/Src/stm32f7xx_hal_msp.c ****     if (HAL_RCCEx_PeriphCLKConfig(&PeriphClkInitStruct) != HAL_OK)
 855:Core/Src/stm32f7xx_hal_msp.c ****     {
 856:Core/Src/stm32f7xx_hal_msp.c ****       Error_Handler();
 857:Core/Src/stm32f7xx_hal_msp.c ****     }
 858:Core/Src/stm32f7xx_hal_msp.c **** 
 859:Core/Src/stm32f7xx_hal_msp.c ****     /* Peripheral clock enable */
 860:Core/Src/stm32f7xx_hal_msp.c ****     __HAL_RCC_USART6_CLK_ENABLE();
 861:Core/Src/stm32f7xx_hal_msp.c **** 
 862:Core/Src/stm32f7xx_hal_msp.c ****     __HAL_RCC_GPIOC_CLK_ENABLE();
 863:Core/Src/stm32f7xx_hal_msp.c ****     /**USART6 GPIO Configuration
 864:Core/Src/stm32f7xx_hal_msp.c ****     PC7     ------> USART6_RX
 865:Core/Src/stm32f7xx_hal_msp.c ****     PC6     ------> USART6_TX
 866:Core/Src/stm32f7xx_hal_msp.c ****     */
 867:Core/Src/stm32f7xx_hal_msp.c ****     GPIO_InitStruct.Pin = ARDUINO_RX_D0_Pin|ARDUINO_TX_D1_Pin;
 868:Core/Src/stm32f7xx_hal_msp.c ****     GPIO_InitStruct.Mode = GPIO_MODE_AF_PP;
 869:Core/Src/stm32f7xx_hal_msp.c ****     GPIO_InitStruct.Pull = GPIO_NOPULL;
 870:Core/Src/stm32f7xx_hal_msp.c ****     GPIO_InitStruct.Speed = GPIO_SPEED_FREQ_VERY_HIGH;
 871:Core/Src/stm32f7xx_hal_msp.c ****     GPIO_InitStruct.Alternate = GPIO_AF8_USART6;
 872:Core/Src/stm32f7xx_hal_msp.c ****     HAL_GPIO_Init(GPIOC, &GPIO_InitStruct);
 873:Core/Src/stm32f7xx_hal_msp.c **** 
 874:Core/Src/stm32f7xx_hal_msp.c ****   /* USER CODE BEGIN USART6_MspInit 1 */
 875:Core/Src/stm32f7xx_hal_msp.c **** 
 876:Core/Src/stm32f7xx_hal_msp.c ****   /* USER CODE END USART6_MspInit 1 */
 877:Core/Src/stm32f7xx_hal_msp.c ****   }
 878:Core/Src/stm32f7xx_hal_msp.c **** 
 879:Core/Src/stm32f7xx_hal_msp.c **** }
 1969              		.loc 1 879 1
 1970 00ea 40E0     		b	.L85
 1971              	.L81:
 844:Core/Src/stm32f7xx_hal_msp.c ****   {
 1972              		.loc 1 844 16
 1973 00ec 7B68     		ldr	r3, [r7, #4]
 1974 00ee 1B68     		ldr	r3, [r3]
 844:Core/Src/stm32f7xx_hal_msp.c ****   {
 1975              		.loc 1 844 10
 1976 00f0 254A     		ldr	r2, .L86+16
 1977 00f2 9342     		cmp	r3, r2
 1978 00f4 3BD1     		bne	.L85
 852:Core/Src/stm32f7xx_hal_msp.c ****     PeriphClkInitStruct.Usart6ClockSelection = RCC_USART6CLKSOURCE_PCLK2;
 1979              		.loc 1 852 46
ARM GAS  C:\Users\jisu8\AppData\Local\Temp\ccKgGJL7.s 			page 51


 1980 00f6 4FF40063 		mov	r3, #2048
 1981 00fa 3B62     		str	r3, [r7, #32]
 853:Core/Src/stm32f7xx_hal_msp.c ****     if (HAL_RCCEx_PeriphCLKConfig(&PeriphClkInitStruct) != HAL_OK)
 1982              		.loc 1 853 46
 1983 00fc 0023     		movs	r3, #0
 1984 00fe BB67     		str	r3, [r7, #120]
 854:Core/Src/stm32f7xx_hal_msp.c ****     {
 1985              		.loc 1 854 9
 1986 0100 07F12003 		add	r3, r7, #32
 1987 0104 1846     		mov	r0, r3
 1988 0106 FFF7FEFF 		bl	HAL_RCCEx_PeriphCLKConfig
 1989 010a 0346     		mov	r3, r0
 854:Core/Src/stm32f7xx_hal_msp.c ****     {
 1990              		.loc 1 854 8
 1991 010c 002B     		cmp	r3, #0
 1992 010e 01D0     		beq	.L84
 856:Core/Src/stm32f7xx_hal_msp.c ****     }
 1993              		.loc 1 856 7
 1994 0110 FFF7FEFF 		bl	Error_Handler
 1995              	.L84:
 1996              	.LBB29:
 860:Core/Src/stm32f7xx_hal_msp.c **** 
 1997              		.loc 1 860 5
 1998 0114 194B     		ldr	r3, .L86+4
 1999 0116 5B6C     		ldr	r3, [r3, #68]
 2000 0118 184A     		ldr	r2, .L86+4
 2001 011a 43F02003 		orr	r3, r3, #32
 2002 011e 5364     		str	r3, [r2, #68]
 2003 0120 164B     		ldr	r3, .L86+4
 2004 0122 5B6C     		ldr	r3, [r3, #68]
 2005 0124 03F02003 		and	r3, r3, #32
 2006 0128 3B61     		str	r3, [r7, #16]
 2007 012a 3B69     		ldr	r3, [r7, #16]
 2008              	.LBE29:
 2009              	.LBB30:
 862:Core/Src/stm32f7xx_hal_msp.c ****     /**USART6 GPIO Configuration
 2010              		.loc 1 862 5
 2011 012c 134B     		ldr	r3, .L86+4
 2012 012e 1B6B     		ldr	r3, [r3, #48]
 2013 0130 124A     		ldr	r2, .L86+4
 2014 0132 43F00403 		orr	r3, r3, #4
 2015 0136 1363     		str	r3, [r2, #48]
 2016 0138 104B     		ldr	r3, .L86+4
 2017 013a 1B6B     		ldr	r3, [r3, #48]
 2018 013c 03F00403 		and	r3, r3, #4
 2019 0140 FB60     		str	r3, [r7, #12]
 2020 0142 FB68     		ldr	r3, [r7, #12]
 2021              	.LBE30:
 867:Core/Src/stm32f7xx_hal_msp.c ****     GPIO_InitStruct.Mode = GPIO_MODE_AF_PP;
 2022              		.loc 1 867 25
 2023 0144 C023     		movs	r3, #192
 2024 0146 C7F8A430 		str	r3, [r7, #164]
 868:Core/Src/stm32f7xx_hal_msp.c ****     GPIO_InitStruct.Pull = GPIO_NOPULL;
 2025              		.loc 1 868 26
 2026 014a 0223     		movs	r3, #2
 2027 014c C7F8A830 		str	r3, [r7, #168]
 869:Core/Src/stm32f7xx_hal_msp.c ****     GPIO_InitStruct.Speed = GPIO_SPEED_FREQ_VERY_HIGH;
ARM GAS  C:\Users\jisu8\AppData\Local\Temp\ccKgGJL7.s 			page 52


 2028              		.loc 1 869 26
 2029 0150 0023     		movs	r3, #0
 2030 0152 C7F8AC30 		str	r3, [r7, #172]
 870:Core/Src/stm32f7xx_hal_msp.c ****     GPIO_InitStruct.Alternate = GPIO_AF8_USART6;
 2031              		.loc 1 870 27
 2032 0156 0323     		movs	r3, #3
 2033 0158 C7F8B030 		str	r3, [r7, #176]
 871:Core/Src/stm32f7xx_hal_msp.c ****     HAL_GPIO_Init(GPIOC, &GPIO_InitStruct);
 2034              		.loc 1 871 31
 2035 015c 0823     		movs	r3, #8
 2036 015e C7F8B430 		str	r3, [r7, #180]
 872:Core/Src/stm32f7xx_hal_msp.c **** 
 2037              		.loc 1 872 5
 2038 0162 07F1A403 		add	r3, r7, #164
 2039 0166 1946     		mov	r1, r3
 2040 0168 0848     		ldr	r0, .L86+20
 2041 016a FFF7FEFF 		bl	HAL_GPIO_Init
 2042              	.L85:
 2043              		.loc 1 879 1
 2044 016e 00BF     		nop
 2045 0170 B837     		adds	r7, r7, #184
 2046              	.LCFI80:
 2047              		.cfi_def_cfa_offset 8
 2048 0172 BD46     		mov	sp, r7
 2049              	.LCFI81:
 2050              		.cfi_def_cfa_register 13
 2051              		@ sp needed
 2052 0174 80BD     		pop	{r7, pc}
 2053              	.L87:
 2054 0176 00BF     		.align	2
 2055              	.L86:
 2056 0178 00100140 		.word	1073811456
 2057 017c 00380240 		.word	1073887232
 2058 0180 00040240 		.word	1073873920
 2059 0184 00000240 		.word	1073872896
 2060 0188 00140140 		.word	1073812480
 2061 018c 00080240 		.word	1073874944
 2062              		.cfi_endproc
 2063              	.LFE159:
 2065              		.section	.text.HAL_UART_MspDeInit,"ax",%progbits
 2066              		.align	1
 2067              		.global	HAL_UART_MspDeInit
 2068              		.syntax unified
 2069              		.thumb
 2070              		.thumb_func
 2072              	HAL_UART_MspDeInit:
 2073              	.LFB160:
 880:Core/Src/stm32f7xx_hal_msp.c **** 
 881:Core/Src/stm32f7xx_hal_msp.c **** /**
 882:Core/Src/stm32f7xx_hal_msp.c **** * @brief UART MSP De-Initialization
 883:Core/Src/stm32f7xx_hal_msp.c **** * This function freeze the hardware resources used in this example
 884:Core/Src/stm32f7xx_hal_msp.c **** * @param huart: UART handle pointer
 885:Core/Src/stm32f7xx_hal_msp.c **** * @retval None
 886:Core/Src/stm32f7xx_hal_msp.c **** */
 887:Core/Src/stm32f7xx_hal_msp.c **** void HAL_UART_MspDeInit(UART_HandleTypeDef* huart)
 888:Core/Src/stm32f7xx_hal_msp.c **** {
 2074              		.loc 1 888 1
ARM GAS  C:\Users\jisu8\AppData\Local\Temp\ccKgGJL7.s 			page 53


 2075              		.cfi_startproc
 2076              		@ args = 0, pretend = 0, frame = 8
 2077              		@ frame_needed = 1, uses_anonymous_args = 0
 2078 0000 80B5     		push	{r7, lr}
 2079              	.LCFI82:
 2080              		.cfi_def_cfa_offset 8
 2081              		.cfi_offset 7, -8
 2082              		.cfi_offset 14, -4
 2083 0002 82B0     		sub	sp, sp, #8
 2084              	.LCFI83:
 2085              		.cfi_def_cfa_offset 16
 2086 0004 00AF     		add	r7, sp, #0
 2087              	.LCFI84:
 2088              		.cfi_def_cfa_register 7
 2089 0006 7860     		str	r0, [r7, #4]
 889:Core/Src/stm32f7xx_hal_msp.c ****   if(huart->Instance==USART1)
 2090              		.loc 1 889 11
 2091 0008 7B68     		ldr	r3, [r7, #4]
 2092 000a 1B68     		ldr	r3, [r3]
 2093              		.loc 1 889 5
 2094 000c 124A     		ldr	r2, .L92
 2095 000e 9342     		cmp	r3, r2
 2096 0010 0FD1     		bne	.L89
 890:Core/Src/stm32f7xx_hal_msp.c ****   {
 891:Core/Src/stm32f7xx_hal_msp.c ****   /* USER CODE BEGIN USART1_MspDeInit 0 */
 892:Core/Src/stm32f7xx_hal_msp.c **** 
 893:Core/Src/stm32f7xx_hal_msp.c ****   /* USER CODE END USART1_MspDeInit 0 */
 894:Core/Src/stm32f7xx_hal_msp.c ****     /* Peripheral clock disable */
 895:Core/Src/stm32f7xx_hal_msp.c ****     __HAL_RCC_USART1_CLK_DISABLE();
 2097              		.loc 1 895 5
 2098 0012 124B     		ldr	r3, .L92+4
 2099 0014 5B6C     		ldr	r3, [r3, #68]
 2100 0016 114A     		ldr	r2, .L92+4
 2101 0018 23F01003 		bic	r3, r3, #16
 2102 001c 5364     		str	r3, [r2, #68]
 896:Core/Src/stm32f7xx_hal_msp.c **** 
 897:Core/Src/stm32f7xx_hal_msp.c ****     /**USART1 GPIO Configuration
 898:Core/Src/stm32f7xx_hal_msp.c ****     PB7     ------> USART1_RX
 899:Core/Src/stm32f7xx_hal_msp.c ****     PA9     ------> USART1_TX
 900:Core/Src/stm32f7xx_hal_msp.c ****     */
 901:Core/Src/stm32f7xx_hal_msp.c ****     HAL_GPIO_DeInit(VCP_RX_GPIO_Port, VCP_RX_Pin);
 2103              		.loc 1 901 5
 2104 001e 8021     		movs	r1, #128
 2105 0020 0F48     		ldr	r0, .L92+8
 2106 0022 FFF7FEFF 		bl	HAL_GPIO_DeInit
 902:Core/Src/stm32f7xx_hal_msp.c **** 
 903:Core/Src/stm32f7xx_hal_msp.c ****     HAL_GPIO_DeInit(VCP_TX_GPIO_Port, VCP_TX_Pin);
 2107              		.loc 1 903 5
 2108 0026 4FF40071 		mov	r1, #512
 2109 002a 0E48     		ldr	r0, .L92+12
 2110 002c FFF7FEFF 		bl	HAL_GPIO_DeInit
 904:Core/Src/stm32f7xx_hal_msp.c **** 
 905:Core/Src/stm32f7xx_hal_msp.c ****   /* USER CODE BEGIN USART1_MspDeInit 1 */
 906:Core/Src/stm32f7xx_hal_msp.c **** 
 907:Core/Src/stm32f7xx_hal_msp.c ****   /* USER CODE END USART1_MspDeInit 1 */
 908:Core/Src/stm32f7xx_hal_msp.c ****   }
 909:Core/Src/stm32f7xx_hal_msp.c ****   else if(huart->Instance==USART6)
ARM GAS  C:\Users\jisu8\AppData\Local\Temp\ccKgGJL7.s 			page 54


 910:Core/Src/stm32f7xx_hal_msp.c ****   {
 911:Core/Src/stm32f7xx_hal_msp.c ****   /* USER CODE BEGIN USART6_MspDeInit 0 */
 912:Core/Src/stm32f7xx_hal_msp.c **** 
 913:Core/Src/stm32f7xx_hal_msp.c ****   /* USER CODE END USART6_MspDeInit 0 */
 914:Core/Src/stm32f7xx_hal_msp.c ****     /* Peripheral clock disable */
 915:Core/Src/stm32f7xx_hal_msp.c ****     __HAL_RCC_USART6_CLK_DISABLE();
 916:Core/Src/stm32f7xx_hal_msp.c **** 
 917:Core/Src/stm32f7xx_hal_msp.c ****     /**USART6 GPIO Configuration
 918:Core/Src/stm32f7xx_hal_msp.c ****     PC7     ------> USART6_RX
 919:Core/Src/stm32f7xx_hal_msp.c ****     PC6     ------> USART6_TX
 920:Core/Src/stm32f7xx_hal_msp.c ****     */
 921:Core/Src/stm32f7xx_hal_msp.c ****     HAL_GPIO_DeInit(GPIOC, ARDUINO_RX_D0_Pin|ARDUINO_TX_D1_Pin);
 922:Core/Src/stm32f7xx_hal_msp.c **** 
 923:Core/Src/stm32f7xx_hal_msp.c ****   /* USER CODE BEGIN USART6_MspDeInit 1 */
 924:Core/Src/stm32f7xx_hal_msp.c **** 
 925:Core/Src/stm32f7xx_hal_msp.c ****   /* USER CODE END USART6_MspDeInit 1 */
 926:Core/Src/stm32f7xx_hal_msp.c ****   }
 927:Core/Src/stm32f7xx_hal_msp.c **** 
 928:Core/Src/stm32f7xx_hal_msp.c **** }
 2111              		.loc 1 928 1
 2112 0030 0EE0     		b	.L91
 2113              	.L89:
 909:Core/Src/stm32f7xx_hal_msp.c ****   {
 2114              		.loc 1 909 16
 2115 0032 7B68     		ldr	r3, [r7, #4]
 2116 0034 1B68     		ldr	r3, [r3]
 909:Core/Src/stm32f7xx_hal_msp.c ****   {
 2117              		.loc 1 909 10
 2118 0036 0C4A     		ldr	r2, .L92+16
 2119 0038 9342     		cmp	r3, r2
 2120 003a 09D1     		bne	.L91
 915:Core/Src/stm32f7xx_hal_msp.c **** 
 2121              		.loc 1 915 5
 2122 003c 074B     		ldr	r3, .L92+4
 2123 003e 5B6C     		ldr	r3, [r3, #68]
 2124 0040 064A     		ldr	r2, .L92+4
 2125 0042 23F02003 		bic	r3, r3, #32
 2126 0046 5364     		str	r3, [r2, #68]
 921:Core/Src/stm32f7xx_hal_msp.c **** 
 2127              		.loc 1 921 5
 2128 0048 C021     		movs	r1, #192
 2129 004a 0848     		ldr	r0, .L92+20
 2130 004c FFF7FEFF 		bl	HAL_GPIO_DeInit
 2131              	.L91:
 2132              		.loc 1 928 1
 2133 0050 00BF     		nop
 2134 0052 0837     		adds	r7, r7, #8
 2135              	.LCFI85:
 2136              		.cfi_def_cfa_offset 8
 2137 0054 BD46     		mov	sp, r7
 2138              	.LCFI86:
 2139              		.cfi_def_cfa_register 13
 2140              		@ sp needed
 2141 0056 80BD     		pop	{r7, pc}
 2142              	.L93:
 2143              		.align	2
 2144              	.L92:
ARM GAS  C:\Users\jisu8\AppData\Local\Temp\ccKgGJL7.s 			page 55


 2145 0058 00100140 		.word	1073811456
 2146 005c 00380240 		.word	1073887232
 2147 0060 00040240 		.word	1073873920
 2148 0064 00000240 		.word	1073872896
 2149 0068 00140140 		.word	1073812480
 2150 006c 00080240 		.word	1073874944
 2151              		.cfi_endproc
 2152              	.LFE160:
 2154              		.section	.bss.FMC_Initialized,"aw",%nobits
 2155              		.align	2
 2158              	FMC_Initialized:
 2159 0000 00000000 		.space	4
 2160              		.section	.text.HAL_FMC_MspInit,"ax",%progbits
 2161              		.align	1
 2162              		.syntax unified
 2163              		.thumb
 2164              		.thumb_func
 2166              	HAL_FMC_MspInit:
 2167              	.LFB161:
 929:Core/Src/stm32f7xx_hal_msp.c **** 
 930:Core/Src/stm32f7xx_hal_msp.c **** static uint32_t FMC_Initialized = 0;
 931:Core/Src/stm32f7xx_hal_msp.c **** 
 932:Core/Src/stm32f7xx_hal_msp.c **** static void HAL_FMC_MspInit(void){
 2168              		.loc 1 932 34
 2169              		.cfi_startproc
 2170              		@ args = 0, pretend = 0, frame = 24
 2171              		@ frame_needed = 1, uses_anonymous_args = 0
 2172 0000 80B5     		push	{r7, lr}
 2173              	.LCFI87:
 2174              		.cfi_def_cfa_offset 8
 2175              		.cfi_offset 7, -8
 2176              		.cfi_offset 14, -4
 2177 0002 86B0     		sub	sp, sp, #24
 2178              	.LCFI88:
 2179              		.cfi_def_cfa_offset 32
 2180 0004 00AF     		add	r7, sp, #0
 2181              	.LCFI89:
 2182              		.cfi_def_cfa_register 7
 933:Core/Src/stm32f7xx_hal_msp.c ****   /* USER CODE BEGIN FMC_MspInit 0 */
 934:Core/Src/stm32f7xx_hal_msp.c ****   static DMA_HandleTypeDef dma_handle;
 935:Core/Src/stm32f7xx_hal_msp.c ****   /* USER CODE END FMC_MspInit 0 */
 936:Core/Src/stm32f7xx_hal_msp.c ****   GPIO_InitTypeDef GPIO_InitStruct ={0};
 2183              		.loc 1 936 20
 2184 0006 3B1D     		adds	r3, r7, #4
 2185 0008 0022     		movs	r2, #0
 2186 000a 1A60     		str	r2, [r3]
 2187 000c 5A60     		str	r2, [r3, #4]
 2188 000e 9A60     		str	r2, [r3, #8]
 2189 0010 DA60     		str	r2, [r3, #12]
 2190 0012 1A61     		str	r2, [r3, #16]
 937:Core/Src/stm32f7xx_hal_msp.c ****   if (FMC_Initialized) {
 2191              		.loc 1 937 7
 2192 0014 584B     		ldr	r3, .L99
 2193 0016 1B68     		ldr	r3, [r3]
 2194              		.loc 1 937 6
 2195 0018 002B     		cmp	r3, #0
 2196 001a 40F0A880 		bne	.L98
ARM GAS  C:\Users\jisu8\AppData\Local\Temp\ccKgGJL7.s 			page 56


 938:Core/Src/stm32f7xx_hal_msp.c ****     return;
 939:Core/Src/stm32f7xx_hal_msp.c ****   }
 940:Core/Src/stm32f7xx_hal_msp.c ****   FMC_Initialized = 1;
 2197              		.loc 1 940 19
 2198 001e 564B     		ldr	r3, .L99
 2199 0020 0122     		movs	r2, #1
 2200 0022 1A60     		str	r2, [r3]
 2201              	.LBB31:
 941:Core/Src/stm32f7xx_hal_msp.c **** 
 942:Core/Src/stm32f7xx_hal_msp.c ****   /* Peripheral clock enable */
 943:Core/Src/stm32f7xx_hal_msp.c ****   __HAL_RCC_FMC_CLK_ENABLE();
 2202              		.loc 1 943 3
 2203 0024 554B     		ldr	r3, .L99+4
 2204 0026 9B6B     		ldr	r3, [r3, #56]
 2205 0028 544A     		ldr	r2, .L99+4
 2206 002a 43F00103 		orr	r3, r3, #1
 2207 002e 9363     		str	r3, [r2, #56]
 2208 0030 524B     		ldr	r3, .L99+4
 2209 0032 9B6B     		ldr	r3, [r3, #56]
 2210 0034 03F00103 		and	r3, r3, #1
 2211 0038 3B60     		str	r3, [r7]
 2212 003a 3B68     		ldr	r3, [r7]
 2213              	.LBE31:
 944:Core/Src/stm32f7xx_hal_msp.c **** 
 945:Core/Src/stm32f7xx_hal_msp.c ****   /** FMC GPIO Configuration
 946:Core/Src/stm32f7xx_hal_msp.c ****   PE1   ------> FMC_NBL1
 947:Core/Src/stm32f7xx_hal_msp.c ****   PE0   ------> FMC_NBL0
 948:Core/Src/stm32f7xx_hal_msp.c ****   PG15   ------> FMC_SDNCAS
 949:Core/Src/stm32f7xx_hal_msp.c ****   PD0   ------> FMC_D2
 950:Core/Src/stm32f7xx_hal_msp.c ****   PD1   ------> FMC_D3
 951:Core/Src/stm32f7xx_hal_msp.c ****   PF0   ------> FMC_A0
 952:Core/Src/stm32f7xx_hal_msp.c ****   PF1   ------> FMC_A1
 953:Core/Src/stm32f7xx_hal_msp.c ****   PF2   ------> FMC_A2
 954:Core/Src/stm32f7xx_hal_msp.c ****   PF3   ------> FMC_A3
 955:Core/Src/stm32f7xx_hal_msp.c ****   PG8   ------> FMC_SDCLK
 956:Core/Src/stm32f7xx_hal_msp.c ****   PF4   ------> FMC_A4
 957:Core/Src/stm32f7xx_hal_msp.c ****   PH5   ------> FMC_SDNWE
 958:Core/Src/stm32f7xx_hal_msp.c ****   PH3   ------> FMC_SDNE0
 959:Core/Src/stm32f7xx_hal_msp.c ****   PF5   ------> FMC_A5
 960:Core/Src/stm32f7xx_hal_msp.c ****   PD15   ------> FMC_D1
 961:Core/Src/stm32f7xx_hal_msp.c ****   PD10   ------> FMC_D15
 962:Core/Src/stm32f7xx_hal_msp.c ****   PC3   ------> FMC_SDCKE0
 963:Core/Src/stm32f7xx_hal_msp.c ****   PD14   ------> FMC_D0
 964:Core/Src/stm32f7xx_hal_msp.c ****   PD9   ------> FMC_D14
 965:Core/Src/stm32f7xx_hal_msp.c ****   PD8   ------> FMC_D13
 966:Core/Src/stm32f7xx_hal_msp.c ****   PF12   ------> FMC_A6
 967:Core/Src/stm32f7xx_hal_msp.c ****   PG1   ------> FMC_A11
 968:Core/Src/stm32f7xx_hal_msp.c ****   PF15   ------> FMC_A9
 969:Core/Src/stm32f7xx_hal_msp.c ****   PF13   ------> FMC_A7
 970:Core/Src/stm32f7xx_hal_msp.c ****   PG0   ------> FMC_A10
 971:Core/Src/stm32f7xx_hal_msp.c ****   PE8   ------> FMC_D5
 972:Core/Src/stm32f7xx_hal_msp.c ****   PG5   ------> FMC_BA1
 973:Core/Src/stm32f7xx_hal_msp.c ****   PG4   ------> FMC_BA0
 974:Core/Src/stm32f7xx_hal_msp.c ****   PF14   ------> FMC_A8
 975:Core/Src/stm32f7xx_hal_msp.c ****   PF11   ------> FMC_SDNRAS
 976:Core/Src/stm32f7xx_hal_msp.c ****   PE9   ------> FMC_D6
 977:Core/Src/stm32f7xx_hal_msp.c ****   PE11   ------> FMC_D8
ARM GAS  C:\Users\jisu8\AppData\Local\Temp\ccKgGJL7.s 			page 57


 978:Core/Src/stm32f7xx_hal_msp.c ****   PE14   ------> FMC_D11
 979:Core/Src/stm32f7xx_hal_msp.c ****   PE7   ------> FMC_D4
 980:Core/Src/stm32f7xx_hal_msp.c ****   PE10   ------> FMC_D7
 981:Core/Src/stm32f7xx_hal_msp.c ****   PE12   ------> FMC_D9
 982:Core/Src/stm32f7xx_hal_msp.c ****   PE15   ------> FMC_D12
 983:Core/Src/stm32f7xx_hal_msp.c ****   PE13   ------> FMC_D10
 984:Core/Src/stm32f7xx_hal_msp.c ****   */
 985:Core/Src/stm32f7xx_hal_msp.c ****   GPIO_InitStruct.Pin = FMC_NBL1_Pin|FMC_NBL0_Pin|FMC_D5_Pin|FMC_D6_Pin
 2214              		.loc 1 985 23
 2215 003c 4FF68373 		movw	r3, #65411
 2216 0040 7B60     		str	r3, [r7, #4]
 986:Core/Src/stm32f7xx_hal_msp.c ****                           |FMC_D8_Pin|FMC_D11_Pin|FMC_D4_Pin|FMC_D7_Pin
 987:Core/Src/stm32f7xx_hal_msp.c ****                           |FMC_D9_Pin|FMC_D12_Pin|FMC_D10_Pin;
 988:Core/Src/stm32f7xx_hal_msp.c ****   GPIO_InitStruct.Mode = GPIO_MODE_AF_PP;
 2217              		.loc 1 988 24
 2218 0042 0223     		movs	r3, #2
 2219 0044 BB60     		str	r3, [r7, #8]
 989:Core/Src/stm32f7xx_hal_msp.c ****   GPIO_InitStruct.Pull = GPIO_NOPULL;
 2220              		.loc 1 989 24
 2221 0046 0023     		movs	r3, #0
 2222 0048 FB60     		str	r3, [r7, #12]
 990:Core/Src/stm32f7xx_hal_msp.c ****   GPIO_InitStruct.Speed = GPIO_SPEED_FREQ_VERY_HIGH;
 2223              		.loc 1 990 25
 2224 004a 0323     		movs	r3, #3
 2225 004c 3B61     		str	r3, [r7, #16]
 991:Core/Src/stm32f7xx_hal_msp.c ****   GPIO_InitStruct.Alternate = GPIO_AF12_FMC;
 2226              		.loc 1 991 29
 2227 004e 0C23     		movs	r3, #12
 2228 0050 7B61     		str	r3, [r7, #20]
 992:Core/Src/stm32f7xx_hal_msp.c ****   HAL_GPIO_Init(GPIOE, &GPIO_InitStruct);
 2229              		.loc 1 992 3
 2230 0052 3B1D     		adds	r3, r7, #4
 2231 0054 1946     		mov	r1, r3
 2232 0056 4A48     		ldr	r0, .L99+8
 2233 0058 FFF7FEFF 		bl	HAL_GPIO_Init
 993:Core/Src/stm32f7xx_hal_msp.c **** 
 994:Core/Src/stm32f7xx_hal_msp.c ****   GPIO_InitStruct.Pin = FMC_SDNCAS_Pin|FMC_SDCLK_Pin|FMC_A11_Pin|FMC_A10_Pin
 2234              		.loc 1 994 23
 2235 005c 48F23313 		movw	r3, #33075
 2236 0060 7B60     		str	r3, [r7, #4]
 995:Core/Src/stm32f7xx_hal_msp.c ****                           |FMC_BA1_Pin|FMC_BA0_Pin;
 996:Core/Src/stm32f7xx_hal_msp.c ****   GPIO_InitStruct.Mode = GPIO_MODE_AF_PP;
 2237              		.loc 1 996 24
 2238 0062 0223     		movs	r3, #2
 2239 0064 BB60     		str	r3, [r7, #8]
 997:Core/Src/stm32f7xx_hal_msp.c ****   GPIO_InitStruct.Pull = GPIO_NOPULL;
 2240              		.loc 1 997 24
 2241 0066 0023     		movs	r3, #0
 2242 0068 FB60     		str	r3, [r7, #12]
 998:Core/Src/stm32f7xx_hal_msp.c ****   GPIO_InitStruct.Speed = GPIO_SPEED_FREQ_VERY_HIGH;
 2243              		.loc 1 998 25
 2244 006a 0323     		movs	r3, #3
 2245 006c 3B61     		str	r3, [r7, #16]
 999:Core/Src/stm32f7xx_hal_msp.c ****   GPIO_InitStruct.Alternate = GPIO_AF12_FMC;
 2246              		.loc 1 999 29
 2247 006e 0C23     		movs	r3, #12
 2248 0070 7B61     		str	r3, [r7, #20]
ARM GAS  C:\Users\jisu8\AppData\Local\Temp\ccKgGJL7.s 			page 58


1000:Core/Src/stm32f7xx_hal_msp.c ****   HAL_GPIO_Init(GPIOG, &GPIO_InitStruct);
 2249              		.loc 1 1000 3
 2250 0072 3B1D     		adds	r3, r7, #4
 2251 0074 1946     		mov	r1, r3
 2252 0076 4348     		ldr	r0, .L99+12
 2253 0078 FFF7FEFF 		bl	HAL_GPIO_Init
1001:Core/Src/stm32f7xx_hal_msp.c **** 
1002:Core/Src/stm32f7xx_hal_msp.c ****   GPIO_InitStruct.Pin = FMC_D2_Pin|FMC_D3_Pin|FMC_D1_Pin|FMC_D15_Pin
 2254              		.loc 1 1002 23
 2255 007c 4CF20373 		movw	r3, #50947
 2256 0080 7B60     		str	r3, [r7, #4]
1003:Core/Src/stm32f7xx_hal_msp.c ****                           |FMC_D0_Pin|FMC_D14_Pin|FMC_D13_Pin;
1004:Core/Src/stm32f7xx_hal_msp.c ****   GPIO_InitStruct.Mode = GPIO_MODE_AF_PP;
 2257              		.loc 1 1004 24
 2258 0082 0223     		movs	r3, #2
 2259 0084 BB60     		str	r3, [r7, #8]
1005:Core/Src/stm32f7xx_hal_msp.c ****   GPIO_InitStruct.Pull = GPIO_NOPULL;
 2260              		.loc 1 1005 24
 2261 0086 0023     		movs	r3, #0
 2262 0088 FB60     		str	r3, [r7, #12]
1006:Core/Src/stm32f7xx_hal_msp.c ****   GPIO_InitStruct.Speed = GPIO_SPEED_FREQ_VERY_HIGH;
 2263              		.loc 1 1006 25
 2264 008a 0323     		movs	r3, #3
 2265 008c 3B61     		str	r3, [r7, #16]
1007:Core/Src/stm32f7xx_hal_msp.c ****   GPIO_InitStruct.Alternate = GPIO_AF12_FMC;
 2266              		.loc 1 1007 29
 2267 008e 0C23     		movs	r3, #12
 2268 0090 7B61     		str	r3, [r7, #20]
1008:Core/Src/stm32f7xx_hal_msp.c ****   HAL_GPIO_Init(GPIOD, &GPIO_InitStruct);
 2269              		.loc 1 1008 3
 2270 0092 3B1D     		adds	r3, r7, #4
 2271 0094 1946     		mov	r1, r3
 2272 0096 3C48     		ldr	r0, .L99+16
 2273 0098 FFF7FEFF 		bl	HAL_GPIO_Init
1009:Core/Src/stm32f7xx_hal_msp.c **** 
1010:Core/Src/stm32f7xx_hal_msp.c ****   GPIO_InitStruct.Pin = FMC_A0_Pin|FMC_A1_Pin|FMC_A2_Pin|FMC_A3_Pin
 2274              		.loc 1 1010 23
 2275 009c 4FF63F03 		movw	r3, #63551
 2276 00a0 7B60     		str	r3, [r7, #4]
1011:Core/Src/stm32f7xx_hal_msp.c ****                           |FMC_A4_Pin|FMC_A5_Pin|FMC_A6_Pin|FMC_A9_Pin
1012:Core/Src/stm32f7xx_hal_msp.c ****                           |FMC_A7_Pin|FMC_A8_Pin|FMC_SDNRAS_Pin;
1013:Core/Src/stm32f7xx_hal_msp.c ****   GPIO_InitStruct.Mode = GPIO_MODE_AF_PP;
 2277              		.loc 1 1013 24
 2278 00a2 0223     		movs	r3, #2
 2279 00a4 BB60     		str	r3, [r7, #8]
1014:Core/Src/stm32f7xx_hal_msp.c ****   GPIO_InitStruct.Pull = GPIO_NOPULL;
 2280              		.loc 1 1014 24
 2281 00a6 0023     		movs	r3, #0
 2282 00a8 FB60     		str	r3, [r7, #12]
1015:Core/Src/stm32f7xx_hal_msp.c ****   GPIO_InitStruct.Speed = GPIO_SPEED_FREQ_VERY_HIGH;
 2283              		.loc 1 1015 25
 2284 00aa 0323     		movs	r3, #3
 2285 00ac 3B61     		str	r3, [r7, #16]
1016:Core/Src/stm32f7xx_hal_msp.c ****   GPIO_InitStruct.Alternate = GPIO_AF12_FMC;
 2286              		.loc 1 1016 29
 2287 00ae 0C23     		movs	r3, #12
 2288 00b0 7B61     		str	r3, [r7, #20]
ARM GAS  C:\Users\jisu8\AppData\Local\Temp\ccKgGJL7.s 			page 59


1017:Core/Src/stm32f7xx_hal_msp.c ****   HAL_GPIO_Init(GPIOF, &GPIO_InitStruct);
 2289              		.loc 1 1017 3
 2290 00b2 3B1D     		adds	r3, r7, #4
 2291 00b4 1946     		mov	r1, r3
 2292 00b6 3548     		ldr	r0, .L99+20
 2293 00b8 FFF7FEFF 		bl	HAL_GPIO_Init
1018:Core/Src/stm32f7xx_hal_msp.c **** 
1019:Core/Src/stm32f7xx_hal_msp.c ****   GPIO_InitStruct.Pin = FMC_SDNME_Pin|FMC_SDNE0_Pin;
 2294              		.loc 1 1019 23
 2295 00bc 2823     		movs	r3, #40
 2296 00be 7B60     		str	r3, [r7, #4]
1020:Core/Src/stm32f7xx_hal_msp.c ****   GPIO_InitStruct.Mode = GPIO_MODE_AF_PP;
 2297              		.loc 1 1020 24
 2298 00c0 0223     		movs	r3, #2
 2299 00c2 BB60     		str	r3, [r7, #8]
1021:Core/Src/stm32f7xx_hal_msp.c ****   GPIO_InitStruct.Pull = GPIO_NOPULL;
 2300              		.loc 1 1021 24
 2301 00c4 0023     		movs	r3, #0
 2302 00c6 FB60     		str	r3, [r7, #12]
1022:Core/Src/stm32f7xx_hal_msp.c ****   GPIO_InitStruct.Speed = GPIO_SPEED_FREQ_VERY_HIGH;
 2303              		.loc 1 1022 25
 2304 00c8 0323     		movs	r3, #3
 2305 00ca 3B61     		str	r3, [r7, #16]
1023:Core/Src/stm32f7xx_hal_msp.c ****   GPIO_InitStruct.Alternate = GPIO_AF12_FMC;
 2306              		.loc 1 1023 29
 2307 00cc 0C23     		movs	r3, #12
 2308 00ce 7B61     		str	r3, [r7, #20]
1024:Core/Src/stm32f7xx_hal_msp.c ****   HAL_GPIO_Init(GPIOH, &GPIO_InitStruct);
 2309              		.loc 1 1024 3
 2310 00d0 3B1D     		adds	r3, r7, #4
 2311 00d2 1946     		mov	r1, r3
 2312 00d4 2E48     		ldr	r0, .L99+24
 2313 00d6 FFF7FEFF 		bl	HAL_GPIO_Init
1025:Core/Src/stm32f7xx_hal_msp.c **** 
1026:Core/Src/stm32f7xx_hal_msp.c ****   GPIO_InitStruct.Pin = FMC_SDCKE0_Pin;
 2314              		.loc 1 1026 23
 2315 00da 0823     		movs	r3, #8
 2316 00dc 7B60     		str	r3, [r7, #4]
1027:Core/Src/stm32f7xx_hal_msp.c ****   GPIO_InitStruct.Mode = GPIO_MODE_AF_PP;
 2317              		.loc 1 1027 24
 2318 00de 0223     		movs	r3, #2
 2319 00e0 BB60     		str	r3, [r7, #8]
1028:Core/Src/stm32f7xx_hal_msp.c ****   GPIO_InitStruct.Pull = GPIO_NOPULL;
 2320              		.loc 1 1028 24
 2321 00e2 0023     		movs	r3, #0
 2322 00e4 FB60     		str	r3, [r7, #12]
1029:Core/Src/stm32f7xx_hal_msp.c ****   GPIO_InitStruct.Speed = GPIO_SPEED_FREQ_VERY_HIGH;
 2323              		.loc 1 1029 25
 2324 00e6 0323     		movs	r3, #3
 2325 00e8 3B61     		str	r3, [r7, #16]
1030:Core/Src/stm32f7xx_hal_msp.c ****   GPIO_InitStruct.Alternate = GPIO_AF12_FMC;
 2326              		.loc 1 1030 29
 2327 00ea 0C23     		movs	r3, #12
 2328 00ec 7B61     		str	r3, [r7, #20]
1031:Core/Src/stm32f7xx_hal_msp.c ****   HAL_GPIO_Init(FMC_SDCKE0_GPIO_Port, &GPIO_InitStruct);
 2329              		.loc 1 1031 3
 2330 00ee 3B1D     		adds	r3, r7, #4
ARM GAS  C:\Users\jisu8\AppData\Local\Temp\ccKgGJL7.s 			page 60


 2331 00f0 1946     		mov	r1, r3
 2332 00f2 2848     		ldr	r0, .L99+28
 2333 00f4 FFF7FEFF 		bl	HAL_GPIO_Init
1032:Core/Src/stm32f7xx_hal_msp.c **** 
1033:Core/Src/stm32f7xx_hal_msp.c ****   /* USER CODE BEGIN FMC_MspInit 1 */
1034:Core/Src/stm32f7xx_hal_msp.c ****   /* Configure common DMA parameters */
1035:Core/Src/stm32f7xx_hal_msp.c ****   dma_handle.Instance = DMA2_Stream0;
 2334              		.loc 1 1035 23
 2335 00f8 274B     		ldr	r3, .L99+32
 2336 00fa 284A     		ldr	r2, .L99+36
 2337 00fc 1A60     		str	r2, [r3]
1036:Core/Src/stm32f7xx_hal_msp.c ****   dma_handle.Init.Channel = DMA_CHANNEL_0;
 2338              		.loc 1 1036 27
 2339 00fe 264B     		ldr	r3, .L99+32
 2340 0100 0022     		movs	r2, #0
 2341 0102 5A60     		str	r2, [r3, #4]
1037:Core/Src/stm32f7xx_hal_msp.c ****   dma_handle.Init.Direction = DMA_MEMORY_TO_MEMORY;
 2342              		.loc 1 1037 29
 2343 0104 244B     		ldr	r3, .L99+32
 2344 0106 8022     		movs	r2, #128
 2345 0108 9A60     		str	r2, [r3, #8]
1038:Core/Src/stm32f7xx_hal_msp.c ****   dma_handle.Init.PeriphInc = DMA_PINC_ENABLE;
 2346              		.loc 1 1038 29
 2347 010a 234B     		ldr	r3, .L99+32
 2348 010c 4FF40072 		mov	r2, #512
 2349 0110 DA60     		str	r2, [r3, #12]
1039:Core/Src/stm32f7xx_hal_msp.c ****   dma_handle.Init.MemInc = DMA_MINC_ENABLE;
 2350              		.loc 1 1039 26
 2351 0112 214B     		ldr	r3, .L99+32
 2352 0114 4FF48062 		mov	r2, #1024
 2353 0118 1A61     		str	r2, [r3, #16]
1040:Core/Src/stm32f7xx_hal_msp.c ****   dma_handle.Init.PeriphDataAlignment = DMA_PDATAALIGN_WORD;
 2354              		.loc 1 1040 39
 2355 011a 1F4B     		ldr	r3, .L99+32
 2356 011c 4FF48052 		mov	r2, #4096
 2357 0120 5A61     		str	r2, [r3, #20]
1041:Core/Src/stm32f7xx_hal_msp.c ****   dma_handle.Init.MemDataAlignment = DMA_MDATAALIGN_WORD;
 2358              		.loc 1 1041 36
 2359 0122 1D4B     		ldr	r3, .L99+32
 2360 0124 4FF48042 		mov	r2, #16384
 2361 0128 9A61     		str	r2, [r3, #24]
1042:Core/Src/stm32f7xx_hal_msp.c ****   dma_handle.Init.Mode = DMA_NORMAL;
 2362              		.loc 1 1042 24
 2363 012a 1B4B     		ldr	r3, .L99+32
 2364 012c 0022     		movs	r2, #0
 2365 012e DA61     		str	r2, [r3, #28]
1043:Core/Src/stm32f7xx_hal_msp.c ****   dma_handle.Init.Priority = DMA_PRIORITY_HIGH;
 2366              		.loc 1 1043 28
 2367 0130 194B     		ldr	r3, .L99+32
 2368 0132 4FF40032 		mov	r2, #131072
 2369 0136 1A62     		str	r2, [r3, #32]
1044:Core/Src/stm32f7xx_hal_msp.c ****   dma_handle.Init.FIFOMode = DMA_FIFOMODE_DISABLE;         
 2370              		.loc 1 1044 28
 2371 0138 174B     		ldr	r3, .L99+32
 2372 013a 0022     		movs	r2, #0
 2373 013c 5A62     		str	r2, [r3, #36]
1045:Core/Src/stm32f7xx_hal_msp.c ****   dma_handle.Init.FIFOThreshold = DMA_FIFO_THRESHOLD_FULL;
ARM GAS  C:\Users\jisu8\AppData\Local\Temp\ccKgGJL7.s 			page 61


 2374              		.loc 1 1045 33
 2375 013e 164B     		ldr	r3, .L99+32
 2376 0140 0322     		movs	r2, #3
 2377 0142 9A62     		str	r2, [r3, #40]
1046:Core/Src/stm32f7xx_hal_msp.c ****   dma_handle.Init.MemBurst = DMA_MBURST_SINGLE;
 2378              		.loc 1 1046 28
 2379 0144 144B     		ldr	r3, .L99+32
 2380 0146 0022     		movs	r2, #0
 2381 0148 DA62     		str	r2, [r3, #44]
1047:Core/Src/stm32f7xx_hal_msp.c ****   dma_handle.Init.PeriphBurst = DMA_PBURST_SINGLE; 
 2382              		.loc 1 1047 31
 2383 014a 134B     		ldr	r3, .L99+32
 2384 014c 0022     		movs	r2, #0
 2385 014e 1A63     		str	r2, [r3, #48]
1048:Core/Src/stm32f7xx_hal_msp.c ****   if (HAL_DMA_Init(&dma_handle) != HAL_OK)
 2386              		.loc 1 1048 7
 2387 0150 1148     		ldr	r0, .L99+32
 2388 0152 FFF7FEFF 		bl	HAL_DMA_Init
 2389 0156 0346     		mov	r3, r0
 2390              		.loc 1 1048 6
 2391 0158 002B     		cmp	r3, #0
 2392 015a 01D0     		beq	.L97
1049:Core/Src/stm32f7xx_hal_msp.c ****   {
1050:Core/Src/stm32f7xx_hal_msp.c ****     Error_Handler();
 2393              		.loc 1 1050 5
 2394 015c FFF7FEFF 		bl	Error_Handler
 2395              	.L97:
1051:Core/Src/stm32f7xx_hal_msp.c ****   }
1052:Core/Src/stm32f7xx_hal_msp.c ****    /* Associate the DMA handle */
1053:Core/Src/stm32f7xx_hal_msp.c ****   __HAL_LINKDMA(&hsdram1,hdma,dma_handle);
 2396              		.loc 1 1053 3
 2397 0160 0F4B     		ldr	r3, .L99+40
 2398 0162 0D4A     		ldr	r2, .L99+32
 2399 0164 1A63     		str	r2, [r3, #48]
 2400 0166 0C4B     		ldr	r3, .L99+32
 2401 0168 0D4A     		ldr	r2, .L99+40
 2402 016a 9A63     		str	r2, [r3, #56]
 2403 016c 00E0     		b	.L94
 2404              	.L98:
 938:Core/Src/stm32f7xx_hal_msp.c ****   }
 2405              		.loc 1 938 5
 2406 016e 00BF     		nop
 2407              	.L94:
1054:Core/Src/stm32f7xx_hal_msp.c ****   /* USER CODE END FMC_MspInit 1 */
1055:Core/Src/stm32f7xx_hal_msp.c **** }
 2408              		.loc 1 1055 1
 2409 0170 1837     		adds	r7, r7, #24
 2410              	.LCFI90:
 2411              		.cfi_def_cfa_offset 8
 2412 0172 BD46     		mov	sp, r7
 2413              	.LCFI91:
 2414              		.cfi_def_cfa_register 13
 2415              		@ sp needed
 2416 0174 80BD     		pop	{r7, pc}
 2417              	.L100:
 2418 0176 00BF     		.align	2
 2419              	.L99:
ARM GAS  C:\Users\jisu8\AppData\Local\Temp\ccKgGJL7.s 			page 62


 2420 0178 00000000 		.word	FMC_Initialized
 2421 017c 00380240 		.word	1073887232
 2422 0180 00100240 		.word	1073876992
 2423 0184 00180240 		.word	1073879040
 2424 0188 000C0240 		.word	1073875968
 2425 018c 00140240 		.word	1073878016
 2426 0190 001C0240 		.word	1073880064
 2427 0194 00080240 		.word	1073874944
 2428 0198 00000000 		.word	dma_handle.0
 2429 019c 10640240 		.word	1073898512
 2430 01a0 00000000 		.word	hsdram1
 2431              		.cfi_endproc
 2432              	.LFE161:
 2434              		.section	.text.HAL_SDRAM_MspInit,"ax",%progbits
 2435              		.align	1
 2436              		.global	HAL_SDRAM_MspInit
 2437              		.syntax unified
 2438              		.thumb
 2439              		.thumb_func
 2441              	HAL_SDRAM_MspInit:
 2442              	.LFB162:
1056:Core/Src/stm32f7xx_hal_msp.c **** 
1057:Core/Src/stm32f7xx_hal_msp.c **** void HAL_SDRAM_MspInit(SDRAM_HandleTypeDef* hsdram){
 2443              		.loc 1 1057 52
 2444              		.cfi_startproc
 2445              		@ args = 0, pretend = 0, frame = 8
 2446              		@ frame_needed = 1, uses_anonymous_args = 0
 2447 0000 80B5     		push	{r7, lr}
 2448              	.LCFI92:
 2449              		.cfi_def_cfa_offset 8
 2450              		.cfi_offset 7, -8
 2451              		.cfi_offset 14, -4
 2452 0002 82B0     		sub	sp, sp, #8
 2453              	.LCFI93:
 2454              		.cfi_def_cfa_offset 16
 2455 0004 00AF     		add	r7, sp, #0
 2456              	.LCFI94:
 2457              		.cfi_def_cfa_register 7
 2458 0006 7860     		str	r0, [r7, #4]
1058:Core/Src/stm32f7xx_hal_msp.c ****   /* USER CODE BEGIN SDRAM_MspInit 0 */
1059:Core/Src/stm32f7xx_hal_msp.c **** 
1060:Core/Src/stm32f7xx_hal_msp.c ****   /* USER CODE END SDRAM_MspInit 0 */
1061:Core/Src/stm32f7xx_hal_msp.c ****   HAL_FMC_MspInit();
 2459              		.loc 1 1061 3
 2460 0008 FFF7FEFF 		bl	HAL_FMC_MspInit
1062:Core/Src/stm32f7xx_hal_msp.c ****   /* USER CODE BEGIN SDRAM_MspInit 1 */
1063:Core/Src/stm32f7xx_hal_msp.c **** 
1064:Core/Src/stm32f7xx_hal_msp.c ****   /* USER CODE END SDRAM_MspInit 1 */
1065:Core/Src/stm32f7xx_hal_msp.c **** }
 2461              		.loc 1 1065 1
 2462 000c 00BF     		nop
 2463 000e 0837     		adds	r7, r7, #8
 2464              	.LCFI95:
 2465              		.cfi_def_cfa_offset 8
 2466 0010 BD46     		mov	sp, r7
 2467              	.LCFI96:
 2468              		.cfi_def_cfa_register 13
ARM GAS  C:\Users\jisu8\AppData\Local\Temp\ccKgGJL7.s 			page 63


 2469              		@ sp needed
 2470 0012 80BD     		pop	{r7, pc}
 2471              		.cfi_endproc
 2472              	.LFE162:
 2474              		.section	.bss.FMC_DeInitialized,"aw",%nobits
 2475              		.align	2
 2478              	FMC_DeInitialized:
 2479 0000 00000000 		.space	4
 2480              		.section	.text.HAL_FMC_MspDeInit,"ax",%progbits
 2481              		.align	1
 2482              		.syntax unified
 2483              		.thumb
 2484              		.thumb_func
 2486              	HAL_FMC_MspDeInit:
 2487              	.LFB163:
1066:Core/Src/stm32f7xx_hal_msp.c **** 
1067:Core/Src/stm32f7xx_hal_msp.c **** static uint32_t FMC_DeInitialized = 0;
1068:Core/Src/stm32f7xx_hal_msp.c **** 
1069:Core/Src/stm32f7xx_hal_msp.c **** static void HAL_FMC_MspDeInit(void){
 2488              		.loc 1 1069 36
 2489              		.cfi_startproc
 2490              		@ args = 0, pretend = 0, frame = 0
 2491              		@ frame_needed = 1, uses_anonymous_args = 0
 2492 0000 80B5     		push	{r7, lr}
 2493              	.LCFI97:
 2494              		.cfi_def_cfa_offset 8
 2495              		.cfi_offset 7, -8
 2496              		.cfi_offset 14, -4
 2497 0002 00AF     		add	r7, sp, #0
 2498              	.LCFI98:
 2499              		.cfi_def_cfa_register 7
1070:Core/Src/stm32f7xx_hal_msp.c ****   /* USER CODE BEGIN FMC_MspDeInit 0 */
1071:Core/Src/stm32f7xx_hal_msp.c **** 
1072:Core/Src/stm32f7xx_hal_msp.c ****   /* USER CODE END FMC_MspDeInit 0 */
1073:Core/Src/stm32f7xx_hal_msp.c ****   if (FMC_DeInitialized) {
 2500              		.loc 1 1073 7
 2501 0004 154B     		ldr	r3, .L106
 2502 0006 1B68     		ldr	r3, [r3]
 2503              		.loc 1 1073 6
 2504 0008 002B     		cmp	r3, #0
 2505 000a 25D1     		bne	.L105
1074:Core/Src/stm32f7xx_hal_msp.c ****     return;
1075:Core/Src/stm32f7xx_hal_msp.c ****   }
1076:Core/Src/stm32f7xx_hal_msp.c ****   FMC_DeInitialized = 1;
 2506              		.loc 1 1076 21
 2507 000c 134B     		ldr	r3, .L106
 2508 000e 0122     		movs	r2, #1
 2509 0010 1A60     		str	r2, [r3]
1077:Core/Src/stm32f7xx_hal_msp.c ****   /* Peripheral clock enable */
1078:Core/Src/stm32f7xx_hal_msp.c ****   __HAL_RCC_FMC_CLK_DISABLE();
 2510              		.loc 1 1078 3
 2511 0012 134B     		ldr	r3, .L106+4
 2512 0014 9B6B     		ldr	r3, [r3, #56]
 2513 0016 124A     		ldr	r2, .L106+4
 2514 0018 23F00103 		bic	r3, r3, #1
 2515 001c 9363     		str	r3, [r2, #56]
1079:Core/Src/stm32f7xx_hal_msp.c **** 
ARM GAS  C:\Users\jisu8\AppData\Local\Temp\ccKgGJL7.s 			page 64


1080:Core/Src/stm32f7xx_hal_msp.c ****   /** FMC GPIO Configuration
1081:Core/Src/stm32f7xx_hal_msp.c ****   PE1   ------> FMC_NBL1
1082:Core/Src/stm32f7xx_hal_msp.c ****   PE0   ------> FMC_NBL0
1083:Core/Src/stm32f7xx_hal_msp.c ****   PG15   ------> FMC_SDNCAS
1084:Core/Src/stm32f7xx_hal_msp.c ****   PD0   ------> FMC_D2
1085:Core/Src/stm32f7xx_hal_msp.c ****   PD1   ------> FMC_D3
1086:Core/Src/stm32f7xx_hal_msp.c ****   PF0   ------> FMC_A0
1087:Core/Src/stm32f7xx_hal_msp.c ****   PF1   ------> FMC_A1
1088:Core/Src/stm32f7xx_hal_msp.c ****   PF2   ------> FMC_A2
1089:Core/Src/stm32f7xx_hal_msp.c ****   PF3   ------> FMC_A3
1090:Core/Src/stm32f7xx_hal_msp.c ****   PG8   ------> FMC_SDCLK
1091:Core/Src/stm32f7xx_hal_msp.c ****   PF4   ------> FMC_A4
1092:Core/Src/stm32f7xx_hal_msp.c ****   PH5   ------> FMC_SDNWE
1093:Core/Src/stm32f7xx_hal_msp.c ****   PH3   ------> FMC_SDNE0
1094:Core/Src/stm32f7xx_hal_msp.c ****   PF5   ------> FMC_A5
1095:Core/Src/stm32f7xx_hal_msp.c ****   PD15   ------> FMC_D1
1096:Core/Src/stm32f7xx_hal_msp.c ****   PD10   ------> FMC_D15
1097:Core/Src/stm32f7xx_hal_msp.c ****   PC3   ------> FMC_SDCKE0
1098:Core/Src/stm32f7xx_hal_msp.c ****   PD14   ------> FMC_D0
1099:Core/Src/stm32f7xx_hal_msp.c ****   PD9   ------> FMC_D14
1100:Core/Src/stm32f7xx_hal_msp.c ****   PD8   ------> FMC_D13
1101:Core/Src/stm32f7xx_hal_msp.c ****   PF12   ------> FMC_A6
1102:Core/Src/stm32f7xx_hal_msp.c ****   PG1   ------> FMC_A11
1103:Core/Src/stm32f7xx_hal_msp.c ****   PF15   ------> FMC_A9
1104:Core/Src/stm32f7xx_hal_msp.c ****   PF13   ------> FMC_A7
1105:Core/Src/stm32f7xx_hal_msp.c ****   PG0   ------> FMC_A10
1106:Core/Src/stm32f7xx_hal_msp.c ****   PE8   ------> FMC_D5
1107:Core/Src/stm32f7xx_hal_msp.c ****   PG5   ------> FMC_BA1
1108:Core/Src/stm32f7xx_hal_msp.c ****   PG4   ------> FMC_BA0
1109:Core/Src/stm32f7xx_hal_msp.c ****   PF14   ------> FMC_A8
1110:Core/Src/stm32f7xx_hal_msp.c ****   PF11   ------> FMC_SDNRAS
1111:Core/Src/stm32f7xx_hal_msp.c ****   PE9   ------> FMC_D6
1112:Core/Src/stm32f7xx_hal_msp.c ****   PE11   ------> FMC_D8
1113:Core/Src/stm32f7xx_hal_msp.c ****   PE14   ------> FMC_D11
1114:Core/Src/stm32f7xx_hal_msp.c ****   PE7   ------> FMC_D4
1115:Core/Src/stm32f7xx_hal_msp.c ****   PE10   ------> FMC_D7
1116:Core/Src/stm32f7xx_hal_msp.c ****   PE12   ------> FMC_D9
1117:Core/Src/stm32f7xx_hal_msp.c ****   PE15   ------> FMC_D12
1118:Core/Src/stm32f7xx_hal_msp.c ****   PE13   ------> FMC_D10
1119:Core/Src/stm32f7xx_hal_msp.c ****   */
1120:Core/Src/stm32f7xx_hal_msp.c ****   HAL_GPIO_DeInit(GPIOE, FMC_NBL1_Pin|FMC_NBL0_Pin|FMC_D5_Pin|FMC_D6_Pin
 2516              		.loc 1 1120 3
 2517 001e 4FF68371 		movw	r1, #65411
 2518 0022 1048     		ldr	r0, .L106+8
 2519 0024 FFF7FEFF 		bl	HAL_GPIO_DeInit
1121:Core/Src/stm32f7xx_hal_msp.c ****                           |FMC_D8_Pin|FMC_D11_Pin|FMC_D4_Pin|FMC_D7_Pin
1122:Core/Src/stm32f7xx_hal_msp.c ****                           |FMC_D9_Pin|FMC_D12_Pin|FMC_D10_Pin);
1123:Core/Src/stm32f7xx_hal_msp.c **** 
1124:Core/Src/stm32f7xx_hal_msp.c ****   HAL_GPIO_DeInit(GPIOG, FMC_SDNCAS_Pin|FMC_SDCLK_Pin|FMC_A11_Pin|FMC_A10_Pin
 2520              		.loc 1 1124 3
 2521 0028 48F23311 		movw	r1, #33075
 2522 002c 0E48     		ldr	r0, .L106+12
 2523 002e FFF7FEFF 		bl	HAL_GPIO_DeInit
1125:Core/Src/stm32f7xx_hal_msp.c ****                           |FMC_BA1_Pin|FMC_BA0_Pin);
1126:Core/Src/stm32f7xx_hal_msp.c **** 
1127:Core/Src/stm32f7xx_hal_msp.c ****   HAL_GPIO_DeInit(GPIOD, FMC_D2_Pin|FMC_D3_Pin|FMC_D1_Pin|FMC_D15_Pin
 2524              		.loc 1 1127 3
ARM GAS  C:\Users\jisu8\AppData\Local\Temp\ccKgGJL7.s 			page 65


 2525 0032 4CF20371 		movw	r1, #50947
 2526 0036 0D48     		ldr	r0, .L106+16
 2527 0038 FFF7FEFF 		bl	HAL_GPIO_DeInit
1128:Core/Src/stm32f7xx_hal_msp.c ****                           |FMC_D0_Pin|FMC_D14_Pin|FMC_D13_Pin);
1129:Core/Src/stm32f7xx_hal_msp.c **** 
1130:Core/Src/stm32f7xx_hal_msp.c ****   HAL_GPIO_DeInit(GPIOF, FMC_A0_Pin|FMC_A1_Pin|FMC_A2_Pin|FMC_A3_Pin
 2528              		.loc 1 1130 3
 2529 003c 4FF63F01 		movw	r1, #63551
 2530 0040 0B48     		ldr	r0, .L106+20
 2531 0042 FFF7FEFF 		bl	HAL_GPIO_DeInit
1131:Core/Src/stm32f7xx_hal_msp.c ****                           |FMC_A4_Pin|FMC_A5_Pin|FMC_A6_Pin|FMC_A9_Pin
1132:Core/Src/stm32f7xx_hal_msp.c ****                           |FMC_A7_Pin|FMC_A8_Pin|FMC_SDNRAS_Pin);
1133:Core/Src/stm32f7xx_hal_msp.c **** 
1134:Core/Src/stm32f7xx_hal_msp.c ****   HAL_GPIO_DeInit(GPIOH, FMC_SDNME_Pin|FMC_SDNE0_Pin);
 2532              		.loc 1 1134 3
 2533 0046 2821     		movs	r1, #40
 2534 0048 0A48     		ldr	r0, .L106+24
 2535 004a FFF7FEFF 		bl	HAL_GPIO_DeInit
1135:Core/Src/stm32f7xx_hal_msp.c **** 
1136:Core/Src/stm32f7xx_hal_msp.c ****   HAL_GPIO_DeInit(FMC_SDCKE0_GPIO_Port, FMC_SDCKE0_Pin);
 2536              		.loc 1 1136 3
 2537 004e 0821     		movs	r1, #8
 2538 0050 0948     		ldr	r0, .L106+28
 2539 0052 FFF7FEFF 		bl	HAL_GPIO_DeInit
 2540 0056 00E0     		b	.L102
 2541              	.L105:
1074:Core/Src/stm32f7xx_hal_msp.c ****   }
 2542              		.loc 1 1074 5
 2543 0058 00BF     		nop
 2544              	.L102:
1137:Core/Src/stm32f7xx_hal_msp.c **** 
1138:Core/Src/stm32f7xx_hal_msp.c ****   /* USER CODE BEGIN FMC_MspDeInit 1 */
1139:Core/Src/stm32f7xx_hal_msp.c **** 
1140:Core/Src/stm32f7xx_hal_msp.c ****   /* USER CODE END FMC_MspDeInit 1 */
1141:Core/Src/stm32f7xx_hal_msp.c **** }
 2545              		.loc 1 1141 1
 2546 005a 80BD     		pop	{r7, pc}
 2547              	.L107:
 2548              		.align	2
 2549              	.L106:
 2550 005c 00000000 		.word	FMC_DeInitialized
 2551 0060 00380240 		.word	1073887232
 2552 0064 00100240 		.word	1073876992
 2553 0068 00180240 		.word	1073879040
 2554 006c 000C0240 		.word	1073875968
 2555 0070 00140240 		.word	1073878016
 2556 0074 001C0240 		.word	1073880064
 2557 0078 00080240 		.word	1073874944
 2558              		.cfi_endproc
 2559              	.LFE163:
 2561              		.section	.text.HAL_SDRAM_MspDeInit,"ax",%progbits
 2562              		.align	1
 2563              		.global	HAL_SDRAM_MspDeInit
 2564              		.syntax unified
 2565              		.thumb
 2566              		.thumb_func
 2568              	HAL_SDRAM_MspDeInit:
ARM GAS  C:\Users\jisu8\AppData\Local\Temp\ccKgGJL7.s 			page 66


 2569              	.LFB164:
1142:Core/Src/stm32f7xx_hal_msp.c **** 
1143:Core/Src/stm32f7xx_hal_msp.c **** void HAL_SDRAM_MspDeInit(SDRAM_HandleTypeDef* hsdram){
 2570              		.loc 1 1143 54
 2571              		.cfi_startproc
 2572              		@ args = 0, pretend = 0, frame = 8
 2573              		@ frame_needed = 1, uses_anonymous_args = 0
 2574 0000 80B5     		push	{r7, lr}
 2575              	.LCFI99:
 2576              		.cfi_def_cfa_offset 8
 2577              		.cfi_offset 7, -8
 2578              		.cfi_offset 14, -4
 2579 0002 82B0     		sub	sp, sp, #8
 2580              	.LCFI100:
 2581              		.cfi_def_cfa_offset 16
 2582 0004 00AF     		add	r7, sp, #0
 2583              	.LCFI101:
 2584              		.cfi_def_cfa_register 7
 2585 0006 7860     		str	r0, [r7, #4]
1144:Core/Src/stm32f7xx_hal_msp.c ****   /* USER CODE BEGIN SDRAM_MspDeInit 0 */
1145:Core/Src/stm32f7xx_hal_msp.c **** 
1146:Core/Src/stm32f7xx_hal_msp.c ****   /* USER CODE END SDRAM_MspDeInit 0 */
1147:Core/Src/stm32f7xx_hal_msp.c ****   HAL_FMC_MspDeInit();
 2586              		.loc 1 1147 3
 2587 0008 FFF7FEFF 		bl	HAL_FMC_MspDeInit
1148:Core/Src/stm32f7xx_hal_msp.c ****   /* USER CODE BEGIN SDRAM_MspDeInit 1 */
1149:Core/Src/stm32f7xx_hal_msp.c **** 
1150:Core/Src/stm32f7xx_hal_msp.c ****   /* USER CODE END SDRAM_MspDeInit 1 */
1151:Core/Src/stm32f7xx_hal_msp.c **** }
 2588              		.loc 1 1151 1
 2589 000c 00BF     		nop
 2590 000e 0837     		adds	r7, r7, #8
 2591              	.LCFI102:
 2592              		.cfi_def_cfa_offset 8
 2593 0010 BD46     		mov	sp, r7
 2594              	.LCFI103:
 2595              		.cfi_def_cfa_register 13
 2596              		@ sp needed
 2597 0012 80BD     		pop	{r7, pc}
 2598              		.cfi_endproc
 2599              	.LFE164:
 2601              		.section	.bss.dma_handle.0,"aw",%nobits
 2602              		.align	2
 2605              	dma_handle.0:
 2606 0000 00000000 		.space	96
 2606      00000000 
 2606      00000000 
 2606      00000000 
 2606      00000000 
 2607              		.text
 2608              	.Letext0:
 2609              		.file 2 "d:\\3.tools\\arm_gcc_toolchain\\arm-none-eabi\\include\\machine\\_default_types.h"
 2610              		.file 3 "d:\\3.tools\\arm_gcc_toolchain\\arm-none-eabi\\include\\sys\\_stdint.h"
 2611              		.file 4 "Drivers/CMSIS/Device/ST/STM32F7xx/Include/stm32f746xx.h"
 2612              		.file 5 "Drivers/STM32F7xx_HAL_Driver/Inc/stm32f7xx_hal_def.h"
 2613              		.file 6 "Drivers/STM32F7xx_HAL_Driver/Inc/stm32f7xx_hal_rcc_ex.h"
 2614              		.file 7 "Drivers/STM32F7xx_HAL_Driver/Inc/stm32f7xx_hal_gpio.h"
ARM GAS  C:\Users\jisu8\AppData\Local\Temp\ccKgGJL7.s 			page 67


 2615              		.file 8 "Drivers/STM32F7xx_HAL_Driver/Inc/stm32f7xx_hal_dma.h"
 2616              		.file 9 "Drivers/STM32F7xx_HAL_Driver/Inc/stm32f7xx_hal_crc.h"
 2617              		.file 10 "Drivers/STM32F7xx_HAL_Driver/Inc/stm32f7xx_hal_dma2d.h"
 2618              		.file 11 "Drivers/STM32F7xx_HAL_Driver/Inc/stm32f7xx_ll_fmc.h"
 2619              		.file 12 "Drivers/STM32F7xx_HAL_Driver/Inc/stm32f7xx_hal_sdram.h"
 2620              		.file 13 "Drivers/STM32F7xx_HAL_Driver/Inc/stm32f7xx_hal_i2c.h"
 2621              		.file 14 "Drivers/STM32F7xx_HAL_Driver/Inc/stm32f7xx_hal_ltdc.h"
 2622              		.file 15 "Drivers/STM32F7xx_HAL_Driver/Inc/stm32f7xx_hal_qspi.h"
 2623              		.file 16 "Drivers/STM32F7xx_HAL_Driver/Inc/stm32f7xx_ll_sdmmc.h"
 2624              		.file 17 "Drivers/STM32F7xx_HAL_Driver/Inc/stm32f7xx_hal_sd.h"
 2625              		.file 18 "Drivers/STM32F7xx_HAL_Driver/Inc/stm32f7xx_hal_spi.h"
 2626              		.file 19 "Drivers/STM32F7xx_HAL_Driver/Inc/stm32f7xx_hal_uart.h"
ARM GAS  C:\Users\jisu8\AppData\Local\Temp\ccKgGJL7.s 			page 68


DEFINED SYMBOLS
                            *ABS*:00000000 stm32f7xx_hal_msp.c
C:\Users\jisu8\AppData\Local\Temp\ccKgGJL7.s:20     .text.HAL_MspInit:00000000 $t
C:\Users\jisu8\AppData\Local\Temp\ccKgGJL7.s:26     .text.HAL_MspInit:00000000 HAL_MspInit
C:\Users\jisu8\AppData\Local\Temp\ccKgGJL7.s:88     .text.HAL_MspInit:0000004c $d
C:\Users\jisu8\AppData\Local\Temp\ccKgGJL7.s:93     .text.HAL_CRC_MspInit:00000000 $t
C:\Users\jisu8\AppData\Local\Temp\ccKgGJL7.s:99     .text.HAL_CRC_MspInit:00000000 HAL_CRC_MspInit
C:\Users\jisu8\AppData\Local\Temp\ccKgGJL7.s:155    .text.HAL_CRC_MspInit:00000038 $d
C:\Users\jisu8\AppData\Local\Temp\ccKgGJL7.s:161    .text.HAL_CRC_MspDeInit:00000000 $t
C:\Users\jisu8\AppData\Local\Temp\ccKgGJL7.s:167    .text.HAL_CRC_MspDeInit:00000000 HAL_CRC_MspDeInit
C:\Users\jisu8\AppData\Local\Temp\ccKgGJL7.s:216    .text.HAL_CRC_MspDeInit:0000002c $d
C:\Users\jisu8\AppData\Local\Temp\ccKgGJL7.s:222    .text.HAL_DMA2D_MspInit:00000000 $t
C:\Users\jisu8\AppData\Local\Temp\ccKgGJL7.s:228    .text.HAL_DMA2D_MspInit:00000000 HAL_DMA2D_MspInit
C:\Users\jisu8\AppData\Local\Temp\ccKgGJL7.s:288    .text.HAL_DMA2D_MspInit:00000044 $d
C:\Users\jisu8\AppData\Local\Temp\ccKgGJL7.s:294    .text.HAL_DMA2D_MspDeInit:00000000 $t
C:\Users\jisu8\AppData\Local\Temp\ccKgGJL7.s:300    .text.HAL_DMA2D_MspDeInit:00000000 HAL_DMA2D_MspDeInit
C:\Users\jisu8\AppData\Local\Temp\ccKgGJL7.s:348    .text.HAL_DMA2D_MspDeInit:0000002c $d
C:\Users\jisu8\AppData\Local\Temp\ccKgGJL7.s:354    .text.HAL_I2C_MspInit:00000000 $t
C:\Users\jisu8\AppData\Local\Temp\ccKgGJL7.s:360    .text.HAL_I2C_MspInit:00000000 HAL_I2C_MspInit
C:\Users\jisu8\AppData\Local\Temp\ccKgGJL7.s:549    .text.HAL_I2C_MspInit:0000013c $d
C:\Users\jisu8\AppData\Local\Temp\ccKgGJL7.s:558    .text.HAL_I2C_MspDeInit:00000000 $t
C:\Users\jisu8\AppData\Local\Temp\ccKgGJL7.s:564    .text.HAL_I2C_MspDeInit:00000000 HAL_I2C_MspDeInit
C:\Users\jisu8\AppData\Local\Temp\ccKgGJL7.s:641    .text.HAL_I2C_MspDeInit:00000064 $d
C:\Users\jisu8\AppData\Local\Temp\ccKgGJL7.s:650    .text.HAL_LTDC_MspInit:00000000 $t
C:\Users\jisu8\AppData\Local\Temp\ccKgGJL7.s:656    .text.HAL_LTDC_MspInit:00000000 HAL_LTDC_MspInit
C:\Users\jisu8\AppData\Local\Temp\ccKgGJL7.s:889    .text.HAL_LTDC_MspInit:00000174 $d
C:\Users\jisu8\AppData\Local\Temp\ccKgGJL7.s:900    .text.HAL_LTDC_MspDeInit:00000000 $t
C:\Users\jisu8\AppData\Local\Temp\ccKgGJL7.s:906    .text.HAL_LTDC_MspDeInit:00000000 HAL_LTDC_MspDeInit
C:\Users\jisu8\AppData\Local\Temp\ccKgGJL7.s:974    .text.HAL_LTDC_MspDeInit:0000005c $d
C:\Users\jisu8\AppData\Local\Temp\ccKgGJL7.s:985    .text.HAL_QSPI_MspInit:00000000 $t
C:\Users\jisu8\AppData\Local\Temp\ccKgGJL7.s:991    .text.HAL_QSPI_MspInit:00000000 HAL_QSPI_MspInit
C:\Users\jisu8\AppData\Local\Temp\ccKgGJL7.s:1170   .text.HAL_QSPI_MspInit:0000010c $d
C:\Users\jisu8\AppData\Local\Temp\ccKgGJL7.s:1179   .text.HAL_QSPI_MspDeInit:00000000 $t
C:\Users\jisu8\AppData\Local\Temp\ccKgGJL7.s:1185   .text.HAL_QSPI_MspDeInit:00000000 HAL_QSPI_MspDeInit
C:\Users\jisu8\AppData\Local\Temp\ccKgGJL7.s:1242   .text.HAL_QSPI_MspDeInit:00000040 $d
C:\Users\jisu8\AppData\Local\Temp\ccKgGJL7.s:1251   .text.HAL_SD_MspInit:00000000 $t
C:\Users\jisu8\AppData\Local\Temp\ccKgGJL7.s:1257   .text.HAL_SD_MspInit:00000000 HAL_SD_MspInit
C:\Users\jisu8\AppData\Local\Temp\ccKgGJL7.s:1529   .text.HAL_SD_MspInit:000001b8 $d
C:\Users\jisu8\AppData\Local\Temp\ccKgGJL7.s:1541   .text.HAL_SD_MspDeInit:00000000 $t
C:\Users\jisu8\AppData\Local\Temp\ccKgGJL7.s:1547   .text.HAL_SD_MspDeInit:00000000 HAL_SD_MspDeInit
C:\Users\jisu8\AppData\Local\Temp\ccKgGJL7.s:1613   .text.HAL_SD_MspDeInit:00000054 $d
C:\Users\jisu8\AppData\Local\Temp\ccKgGJL7.s:1621   .text.HAL_SPI_MspInit:00000000 $t
C:\Users\jisu8\AppData\Local\Temp\ccKgGJL7.s:1627   .text.HAL_SPI_MspInit:00000000 HAL_SPI_MspInit
C:\Users\jisu8\AppData\Local\Temp\ccKgGJL7.s:1753   .text.HAL_SPI_MspInit:000000b4 $d
C:\Users\jisu8\AppData\Local\Temp\ccKgGJL7.s:1761   .text.HAL_SPI_MspDeInit:00000000 $t
C:\Users\jisu8\AppData\Local\Temp\ccKgGJL7.s:1767   .text.HAL_SPI_MspDeInit:00000000 HAL_SPI_MspDeInit
C:\Users\jisu8\AppData\Local\Temp\ccKgGJL7.s:1820   .text.HAL_SPI_MspDeInit:00000038 $d
C:\Users\jisu8\AppData\Local\Temp\ccKgGJL7.s:1828   .text.HAL_UART_MspInit:00000000 $t
C:\Users\jisu8\AppData\Local\Temp\ccKgGJL7.s:1834   .text.HAL_UART_MspInit:00000000 HAL_UART_MspInit
C:\Users\jisu8\AppData\Local\Temp\ccKgGJL7.s:2056   .text.HAL_UART_MspInit:00000178 $d
C:\Users\jisu8\AppData\Local\Temp\ccKgGJL7.s:2066   .text.HAL_UART_MspDeInit:00000000 $t
C:\Users\jisu8\AppData\Local\Temp\ccKgGJL7.s:2072   .text.HAL_UART_MspDeInit:00000000 HAL_UART_MspDeInit
C:\Users\jisu8\AppData\Local\Temp\ccKgGJL7.s:2145   .text.HAL_UART_MspDeInit:00000058 $d
C:\Users\jisu8\AppData\Local\Temp\ccKgGJL7.s:2155   .bss.FMC_Initialized:00000000 $d
C:\Users\jisu8\AppData\Local\Temp\ccKgGJL7.s:2158   .bss.FMC_Initialized:00000000 FMC_Initialized
C:\Users\jisu8\AppData\Local\Temp\ccKgGJL7.s:2161   .text.HAL_FMC_MspInit:00000000 $t
C:\Users\jisu8\AppData\Local\Temp\ccKgGJL7.s:2166   .text.HAL_FMC_MspInit:00000000 HAL_FMC_MspInit
ARM GAS  C:\Users\jisu8\AppData\Local\Temp\ccKgGJL7.s 			page 69


C:\Users\jisu8\AppData\Local\Temp\ccKgGJL7.s:2420   .text.HAL_FMC_MspInit:00000178 $d
C:\Users\jisu8\AppData\Local\Temp\ccKgGJL7.s:2605   .bss.dma_handle.0:00000000 dma_handle.0
C:\Users\jisu8\AppData\Local\Temp\ccKgGJL7.s:2435   .text.HAL_SDRAM_MspInit:00000000 $t
C:\Users\jisu8\AppData\Local\Temp\ccKgGJL7.s:2441   .text.HAL_SDRAM_MspInit:00000000 HAL_SDRAM_MspInit
C:\Users\jisu8\AppData\Local\Temp\ccKgGJL7.s:2475   .bss.FMC_DeInitialized:00000000 $d
C:\Users\jisu8\AppData\Local\Temp\ccKgGJL7.s:2478   .bss.FMC_DeInitialized:00000000 FMC_DeInitialized
C:\Users\jisu8\AppData\Local\Temp\ccKgGJL7.s:2481   .text.HAL_FMC_MspDeInit:00000000 $t
C:\Users\jisu8\AppData\Local\Temp\ccKgGJL7.s:2486   .text.HAL_FMC_MspDeInit:00000000 HAL_FMC_MspDeInit
C:\Users\jisu8\AppData\Local\Temp\ccKgGJL7.s:2550   .text.HAL_FMC_MspDeInit:0000005c $d
C:\Users\jisu8\AppData\Local\Temp\ccKgGJL7.s:2562   .text.HAL_SDRAM_MspDeInit:00000000 $t
C:\Users\jisu8\AppData\Local\Temp\ccKgGJL7.s:2568   .text.HAL_SDRAM_MspDeInit:00000000 HAL_SDRAM_MspDeInit
C:\Users\jisu8\AppData\Local\Temp\ccKgGJL7.s:2602   .bss.dma_handle.0:00000000 $d

UNDEFINED SYMBOLS
HAL_NVIC_SetPriority
HAL_NVIC_EnableIRQ
HAL_NVIC_DisableIRQ
memset
HAL_RCCEx_PeriphCLKConfig
Error_Handler
HAL_GPIO_Init
HAL_GPIO_DeInit
HAL_DMA_Init
hdma_sdmmc1_rx
hdma_sdmmc1_tx
HAL_DMA_DeInit
hsdram1
