ARM GAS  C:\Users\jisu8\AppData\Local\Temp\cchBTxuu.s 			page 1


   1              		.cpu cortex-m7
   2              		.arch armv7e-m
   3              		.fpu fpv5-sp-d16
   4              		.eabi_attribute 27, 1
   5              		.eabi_attribute 28, 1
   6              		.eabi_attribute 20, 1
   7              		.eabi_attribute 21, 1
   8              		.eabi_attribute 23, 3
   9              		.eabi_attribute 24, 1
  10              		.eabi_attribute 25, 1
  11              		.eabi_attribute 26, 1
  12              		.eabi_attribute 30, 6
  13              		.eabi_attribute 34, 1
  14              		.eabi_attribute 18, 4
  15              		.file	"stm32f7xx_hal_ltdc.c"
  16              		.text
  17              	.Ltext0:
  18              		.cfi_sections	.debug_frame
  19              		.section	.text.HAL_LTDC_Init,"ax",%progbits
  20              		.align	1
  21              		.global	HAL_LTDC_Init
  22              		.syntax unified
  23              		.thumb
  24              		.thumb_func
  26              	HAL_LTDC_Init:
  27              	.LFB141:
  28              		.file 1 "Drivers/STM32F7xx_HAL_Driver/Src/stm32f7xx_hal_ltdc.c"
   1:Drivers/STM32F7xx_HAL_Driver/Src/stm32f7xx_hal_ltdc.c **** /**
   2:Drivers/STM32F7xx_HAL_Driver/Src/stm32f7xx_hal_ltdc.c ****   ******************************************************************************
   3:Drivers/STM32F7xx_HAL_Driver/Src/stm32f7xx_hal_ltdc.c ****   * @file    stm32f7xx_hal_ltdc.c
   4:Drivers/STM32F7xx_HAL_Driver/Src/stm32f7xx_hal_ltdc.c ****   * @author  MCD Application Team
   5:Drivers/STM32F7xx_HAL_Driver/Src/stm32f7xx_hal_ltdc.c ****   * @brief   LTDC HAL module driver.
   6:Drivers/STM32F7xx_HAL_Driver/Src/stm32f7xx_hal_ltdc.c ****   *          This file provides firmware functions to manage the following
   7:Drivers/STM32F7xx_HAL_Driver/Src/stm32f7xx_hal_ltdc.c ****   *          functionalities of the LTDC peripheral:
   8:Drivers/STM32F7xx_HAL_Driver/Src/stm32f7xx_hal_ltdc.c ****   *           + Initialization and de-initialization functions
   9:Drivers/STM32F7xx_HAL_Driver/Src/stm32f7xx_hal_ltdc.c ****   *           + IO operation functions
  10:Drivers/STM32F7xx_HAL_Driver/Src/stm32f7xx_hal_ltdc.c ****   *           + Peripheral Control functions
  11:Drivers/STM32F7xx_HAL_Driver/Src/stm32f7xx_hal_ltdc.c ****   *           + Peripheral State and Errors functions
  12:Drivers/STM32F7xx_HAL_Driver/Src/stm32f7xx_hal_ltdc.c ****   *
  13:Drivers/STM32F7xx_HAL_Driver/Src/stm32f7xx_hal_ltdc.c ****   ******************************************************************************
  14:Drivers/STM32F7xx_HAL_Driver/Src/stm32f7xx_hal_ltdc.c ****   * @attention
  15:Drivers/STM32F7xx_HAL_Driver/Src/stm32f7xx_hal_ltdc.c ****   *
  16:Drivers/STM32F7xx_HAL_Driver/Src/stm32f7xx_hal_ltdc.c ****   * Copyright (c) 2017 STMicroelectronics.
  17:Drivers/STM32F7xx_HAL_Driver/Src/stm32f7xx_hal_ltdc.c ****   * All rights reserved.
  18:Drivers/STM32F7xx_HAL_Driver/Src/stm32f7xx_hal_ltdc.c ****   *
  19:Drivers/STM32F7xx_HAL_Driver/Src/stm32f7xx_hal_ltdc.c ****   * This software is licensed under terms that can be found in the LICENSE file
  20:Drivers/STM32F7xx_HAL_Driver/Src/stm32f7xx_hal_ltdc.c ****   * in the root directory of this software component.
  21:Drivers/STM32F7xx_HAL_Driver/Src/stm32f7xx_hal_ltdc.c ****   * If no LICENSE file comes with this software, it is provided AS-IS.
  22:Drivers/STM32F7xx_HAL_Driver/Src/stm32f7xx_hal_ltdc.c ****   *
  23:Drivers/STM32F7xx_HAL_Driver/Src/stm32f7xx_hal_ltdc.c ****   ******************************************************************************
  24:Drivers/STM32F7xx_HAL_Driver/Src/stm32f7xx_hal_ltdc.c ****   @verbatim
  25:Drivers/STM32F7xx_HAL_Driver/Src/stm32f7xx_hal_ltdc.c ****   ==============================================================================
  26:Drivers/STM32F7xx_HAL_Driver/Src/stm32f7xx_hal_ltdc.c ****                         ##### How to use this driver #####
  27:Drivers/STM32F7xx_HAL_Driver/Src/stm32f7xx_hal_ltdc.c ****   ==============================================================================
  28:Drivers/STM32F7xx_HAL_Driver/Src/stm32f7xx_hal_ltdc.c ****      [..]
  29:Drivers/STM32F7xx_HAL_Driver/Src/stm32f7xx_hal_ltdc.c ****      The LTDC HAL driver can be used as follows:
  30:Drivers/STM32F7xx_HAL_Driver/Src/stm32f7xx_hal_ltdc.c **** 
ARM GAS  C:\Users\jisu8\AppData\Local\Temp\cchBTxuu.s 			page 2


  31:Drivers/STM32F7xx_HAL_Driver/Src/stm32f7xx_hal_ltdc.c ****      (#) Declare a LTDC_HandleTypeDef handle structure, for example: LTDC_HandleTypeDef  hltdc;
  32:Drivers/STM32F7xx_HAL_Driver/Src/stm32f7xx_hal_ltdc.c **** 
  33:Drivers/STM32F7xx_HAL_Driver/Src/stm32f7xx_hal_ltdc.c ****      (#) Initialize the LTDC low level resources by implementing the HAL_LTDC_MspInit() API:
  34:Drivers/STM32F7xx_HAL_Driver/Src/stm32f7xx_hal_ltdc.c ****          (##) Enable the LTDC interface clock
  35:Drivers/STM32F7xx_HAL_Driver/Src/stm32f7xx_hal_ltdc.c ****          (##) NVIC configuration if you need to use interrupt process
  36:Drivers/STM32F7xx_HAL_Driver/Src/stm32f7xx_hal_ltdc.c ****              (+++) Configure the LTDC interrupt priority
  37:Drivers/STM32F7xx_HAL_Driver/Src/stm32f7xx_hal_ltdc.c ****              (+++) Enable the NVIC LTDC IRQ Channel
  38:Drivers/STM32F7xx_HAL_Driver/Src/stm32f7xx_hal_ltdc.c **** 
  39:Drivers/STM32F7xx_HAL_Driver/Src/stm32f7xx_hal_ltdc.c ****      (#) Initialize the required configuration through the following parameters:
  40:Drivers/STM32F7xx_HAL_Driver/Src/stm32f7xx_hal_ltdc.c ****          the LTDC timing, the horizontal and vertical polarity, the pixel clock polarity,
  41:Drivers/STM32F7xx_HAL_Driver/Src/stm32f7xx_hal_ltdc.c ****          Data Enable polarity and the LTDC background color value using HAL_LTDC_Init() function
  42:Drivers/STM32F7xx_HAL_Driver/Src/stm32f7xx_hal_ltdc.c **** 
  43:Drivers/STM32F7xx_HAL_Driver/Src/stm32f7xx_hal_ltdc.c ****      *** Configuration ***
  44:Drivers/STM32F7xx_HAL_Driver/Src/stm32f7xx_hal_ltdc.c ****      =========================
  45:Drivers/STM32F7xx_HAL_Driver/Src/stm32f7xx_hal_ltdc.c ****      [..]
  46:Drivers/STM32F7xx_HAL_Driver/Src/stm32f7xx_hal_ltdc.c ****      (#) Program the required configuration through the following parameters:
  47:Drivers/STM32F7xx_HAL_Driver/Src/stm32f7xx_hal_ltdc.c ****          the pixel format, the blending factors, input alpha value, the window size
  48:Drivers/STM32F7xx_HAL_Driver/Src/stm32f7xx_hal_ltdc.c ****          and the image size using HAL_LTDC_ConfigLayer() function for foreground
  49:Drivers/STM32F7xx_HAL_Driver/Src/stm32f7xx_hal_ltdc.c ****          or/and background layer.
  50:Drivers/STM32F7xx_HAL_Driver/Src/stm32f7xx_hal_ltdc.c **** 
  51:Drivers/STM32F7xx_HAL_Driver/Src/stm32f7xx_hal_ltdc.c ****      (#) Optionally, configure and enable the CLUT using HAL_LTDC_ConfigCLUT() and
  52:Drivers/STM32F7xx_HAL_Driver/Src/stm32f7xx_hal_ltdc.c ****          HAL_LTDC_EnableCLUT functions.
  53:Drivers/STM32F7xx_HAL_Driver/Src/stm32f7xx_hal_ltdc.c **** 
  54:Drivers/STM32F7xx_HAL_Driver/Src/stm32f7xx_hal_ltdc.c ****      (#) Optionally, enable the Dither using HAL_LTDC_EnableDither().
  55:Drivers/STM32F7xx_HAL_Driver/Src/stm32f7xx_hal_ltdc.c **** 
  56:Drivers/STM32F7xx_HAL_Driver/Src/stm32f7xx_hal_ltdc.c ****      (#) Optionally, configure and enable the Color keying using HAL_LTDC_ConfigColorKeying()
  57:Drivers/STM32F7xx_HAL_Driver/Src/stm32f7xx_hal_ltdc.c ****          and HAL_LTDC_EnableColorKeying functions.
  58:Drivers/STM32F7xx_HAL_Driver/Src/stm32f7xx_hal_ltdc.c **** 
  59:Drivers/STM32F7xx_HAL_Driver/Src/stm32f7xx_hal_ltdc.c ****      (#) Optionally, configure LineInterrupt using HAL_LTDC_ProgramLineEvent()
  60:Drivers/STM32F7xx_HAL_Driver/Src/stm32f7xx_hal_ltdc.c ****          function
  61:Drivers/STM32F7xx_HAL_Driver/Src/stm32f7xx_hal_ltdc.c **** 
  62:Drivers/STM32F7xx_HAL_Driver/Src/stm32f7xx_hal_ltdc.c ****      (#) If needed, reconfigure and change the pixel format value, the alpha value
  63:Drivers/STM32F7xx_HAL_Driver/Src/stm32f7xx_hal_ltdc.c ****          value, the window size, the window position and the layer start address
  64:Drivers/STM32F7xx_HAL_Driver/Src/stm32f7xx_hal_ltdc.c ****          for foreground or/and background layer using respectively the following
  65:Drivers/STM32F7xx_HAL_Driver/Src/stm32f7xx_hal_ltdc.c ****          functions: HAL_LTDC_SetPixelFormat(), HAL_LTDC_SetAlpha(), HAL_LTDC_SetWindowSize(),
  66:Drivers/STM32F7xx_HAL_Driver/Src/stm32f7xx_hal_ltdc.c ****          HAL_LTDC_SetWindowPosition() and HAL_LTDC_SetAddress().
  67:Drivers/STM32F7xx_HAL_Driver/Src/stm32f7xx_hal_ltdc.c **** 
  68:Drivers/STM32F7xx_HAL_Driver/Src/stm32f7xx_hal_ltdc.c ****      (#) Variant functions with _NoReload suffix allows to set the LTDC configuration/settings with
  69:Drivers/STM32F7xx_HAL_Driver/Src/stm32f7xx_hal_ltdc.c ****          This is useful in case when the program requires to modify serval LTDC settings (on one or
  70:Drivers/STM32F7xx_HAL_Driver/Src/stm32f7xx_hal_ltdc.c ****          then applying(reload) these settings in one shot by calling the function HAL_LTDC_Reload()
  71:Drivers/STM32F7xx_HAL_Driver/Src/stm32f7xx_hal_ltdc.c **** 
  72:Drivers/STM32F7xx_HAL_Driver/Src/stm32f7xx_hal_ltdc.c ****          After calling the _NoReload functions to set different color/format/layer settings,
  73:Drivers/STM32F7xx_HAL_Driver/Src/stm32f7xx_hal_ltdc.c ****          the program shall call the function HAL_LTDC_Reload() to apply(reload) these settings.
  74:Drivers/STM32F7xx_HAL_Driver/Src/stm32f7xx_hal_ltdc.c ****          Function HAL_LTDC_Reload() can be called with the parameter ReloadType set to LTDC_RELOAD_
  75:Drivers/STM32F7xx_HAL_Driver/Src/stm32f7xx_hal_ltdc.c ****          an immediate reload is required.
  76:Drivers/STM32F7xx_HAL_Driver/Src/stm32f7xx_hal_ltdc.c ****          Function HAL_LTDC_Reload() can be called with the parameter ReloadType set to LTDC_RELOAD_
  77:Drivers/STM32F7xx_HAL_Driver/Src/stm32f7xx_hal_ltdc.c ****          the reload should be done in the next vertical blanking period,
  78:Drivers/STM32F7xx_HAL_Driver/Src/stm32f7xx_hal_ltdc.c ****          this option allows to avoid display flicker by applying the new settings during the vertic
  79:Drivers/STM32F7xx_HAL_Driver/Src/stm32f7xx_hal_ltdc.c **** 
  80:Drivers/STM32F7xx_HAL_Driver/Src/stm32f7xx_hal_ltdc.c **** 
  81:Drivers/STM32F7xx_HAL_Driver/Src/stm32f7xx_hal_ltdc.c ****      (#) To control LTDC state you can use the following function: HAL_LTDC_GetState()
  82:Drivers/STM32F7xx_HAL_Driver/Src/stm32f7xx_hal_ltdc.c **** 
  83:Drivers/STM32F7xx_HAL_Driver/Src/stm32f7xx_hal_ltdc.c ****      *** LTDC HAL driver macros list ***
  84:Drivers/STM32F7xx_HAL_Driver/Src/stm32f7xx_hal_ltdc.c ****      =============================================
  85:Drivers/STM32F7xx_HAL_Driver/Src/stm32f7xx_hal_ltdc.c ****      [..]
  86:Drivers/STM32F7xx_HAL_Driver/Src/stm32f7xx_hal_ltdc.c ****        Below the list of most used macros in LTDC HAL driver.
  87:Drivers/STM32F7xx_HAL_Driver/Src/stm32f7xx_hal_ltdc.c **** 
ARM GAS  C:\Users\jisu8\AppData\Local\Temp\cchBTxuu.s 			page 3


  88:Drivers/STM32F7xx_HAL_Driver/Src/stm32f7xx_hal_ltdc.c ****       (+) __HAL_LTDC_ENABLE: Enable the LTDC.
  89:Drivers/STM32F7xx_HAL_Driver/Src/stm32f7xx_hal_ltdc.c ****       (+) __HAL_LTDC_DISABLE: Disable the LTDC.
  90:Drivers/STM32F7xx_HAL_Driver/Src/stm32f7xx_hal_ltdc.c ****       (+) __HAL_LTDC_LAYER_ENABLE: Enable an LTDC Layer.
  91:Drivers/STM32F7xx_HAL_Driver/Src/stm32f7xx_hal_ltdc.c ****       (+) __HAL_LTDC_LAYER_DISABLE: Disable an LTDC Layer.
  92:Drivers/STM32F7xx_HAL_Driver/Src/stm32f7xx_hal_ltdc.c ****       (+) __HAL_LTDC_RELOAD_IMMEDIATE_CONFIG: Reload  Layer Configuration.
  93:Drivers/STM32F7xx_HAL_Driver/Src/stm32f7xx_hal_ltdc.c ****       (+) __HAL_LTDC_GET_FLAG: Get the LTDC pending flags.
  94:Drivers/STM32F7xx_HAL_Driver/Src/stm32f7xx_hal_ltdc.c ****       (+) __HAL_LTDC_CLEAR_FLAG: Clear the LTDC pending flags.
  95:Drivers/STM32F7xx_HAL_Driver/Src/stm32f7xx_hal_ltdc.c ****       (+) __HAL_LTDC_ENABLE_IT: Enable the specified LTDC interrupts.
  96:Drivers/STM32F7xx_HAL_Driver/Src/stm32f7xx_hal_ltdc.c ****       (+) __HAL_LTDC_DISABLE_IT: Disable the specified LTDC interrupts.
  97:Drivers/STM32F7xx_HAL_Driver/Src/stm32f7xx_hal_ltdc.c ****       (+) __HAL_LTDC_GET_IT_SOURCE: Check whether the specified LTDC interrupt has occurred or not.
  98:Drivers/STM32F7xx_HAL_Driver/Src/stm32f7xx_hal_ltdc.c **** 
  99:Drivers/STM32F7xx_HAL_Driver/Src/stm32f7xx_hal_ltdc.c ****      [..]
 100:Drivers/STM32F7xx_HAL_Driver/Src/stm32f7xx_hal_ltdc.c ****        (@) You can refer to the LTDC HAL driver header file for more useful macros
 101:Drivers/STM32F7xx_HAL_Driver/Src/stm32f7xx_hal_ltdc.c **** 
 102:Drivers/STM32F7xx_HAL_Driver/Src/stm32f7xx_hal_ltdc.c **** 
 103:Drivers/STM32F7xx_HAL_Driver/Src/stm32f7xx_hal_ltdc.c ****      *** Callback registration ***
 104:Drivers/STM32F7xx_HAL_Driver/Src/stm32f7xx_hal_ltdc.c ****      =============================================
 105:Drivers/STM32F7xx_HAL_Driver/Src/stm32f7xx_hal_ltdc.c ****      [..]
 106:Drivers/STM32F7xx_HAL_Driver/Src/stm32f7xx_hal_ltdc.c ****      The compilation define  USE_HAL_LTDC_REGISTER_CALLBACKS when set to 1
 107:Drivers/STM32F7xx_HAL_Driver/Src/stm32f7xx_hal_ltdc.c ****      allows the user to configure dynamically the driver callbacks.
 108:Drivers/STM32F7xx_HAL_Driver/Src/stm32f7xx_hal_ltdc.c ****      Use function HAL_LTDC_RegisterCallback() to register a callback.
 109:Drivers/STM32F7xx_HAL_Driver/Src/stm32f7xx_hal_ltdc.c **** 
 110:Drivers/STM32F7xx_HAL_Driver/Src/stm32f7xx_hal_ltdc.c ****     [..]
 111:Drivers/STM32F7xx_HAL_Driver/Src/stm32f7xx_hal_ltdc.c ****     Function HAL_LTDC_RegisterCallback() allows to register following callbacks:
 112:Drivers/STM32F7xx_HAL_Driver/Src/stm32f7xx_hal_ltdc.c ****       (+) LineEventCallback   : LTDC Line Event Callback.
 113:Drivers/STM32F7xx_HAL_Driver/Src/stm32f7xx_hal_ltdc.c ****       (+) ReloadEventCallback : LTDC Reload Event Callback.
 114:Drivers/STM32F7xx_HAL_Driver/Src/stm32f7xx_hal_ltdc.c ****       (+) ErrorCallback       : LTDC Error Callback
 115:Drivers/STM32F7xx_HAL_Driver/Src/stm32f7xx_hal_ltdc.c ****       (+) MspInitCallback     : LTDC MspInit.
 116:Drivers/STM32F7xx_HAL_Driver/Src/stm32f7xx_hal_ltdc.c ****       (+) MspDeInitCallback   : LTDC MspDeInit.
 117:Drivers/STM32F7xx_HAL_Driver/Src/stm32f7xx_hal_ltdc.c ****     [..]
 118:Drivers/STM32F7xx_HAL_Driver/Src/stm32f7xx_hal_ltdc.c ****     This function takes as parameters the HAL peripheral handle, the callback ID
 119:Drivers/STM32F7xx_HAL_Driver/Src/stm32f7xx_hal_ltdc.c ****     and a pointer to the user callback function.
 120:Drivers/STM32F7xx_HAL_Driver/Src/stm32f7xx_hal_ltdc.c **** 
 121:Drivers/STM32F7xx_HAL_Driver/Src/stm32f7xx_hal_ltdc.c ****     [..]
 122:Drivers/STM32F7xx_HAL_Driver/Src/stm32f7xx_hal_ltdc.c ****     Use function HAL_LTDC_UnRegisterCallback() to reset a callback to the default
 123:Drivers/STM32F7xx_HAL_Driver/Src/stm32f7xx_hal_ltdc.c ****     weak function.
 124:Drivers/STM32F7xx_HAL_Driver/Src/stm32f7xx_hal_ltdc.c ****     HAL_LTDC_UnRegisterCallback() takes as parameters the HAL peripheral handle
 125:Drivers/STM32F7xx_HAL_Driver/Src/stm32f7xx_hal_ltdc.c ****     and the callback ID.
 126:Drivers/STM32F7xx_HAL_Driver/Src/stm32f7xx_hal_ltdc.c ****     [..]
 127:Drivers/STM32F7xx_HAL_Driver/Src/stm32f7xx_hal_ltdc.c ****     This function allows to reset following callbacks:
 128:Drivers/STM32F7xx_HAL_Driver/Src/stm32f7xx_hal_ltdc.c ****       (+) LineEventCallback   : LTDC Line Event Callback
 129:Drivers/STM32F7xx_HAL_Driver/Src/stm32f7xx_hal_ltdc.c ****       (+) ReloadEventCallback : LTDC Reload Event Callback
 130:Drivers/STM32F7xx_HAL_Driver/Src/stm32f7xx_hal_ltdc.c ****       (+) ErrorCallback       : LTDC Error Callback
 131:Drivers/STM32F7xx_HAL_Driver/Src/stm32f7xx_hal_ltdc.c ****       (+) MspInitCallback     : LTDC MspInit
 132:Drivers/STM32F7xx_HAL_Driver/Src/stm32f7xx_hal_ltdc.c ****       (+) MspDeInitCallback   : LTDC MspDeInit.
 133:Drivers/STM32F7xx_HAL_Driver/Src/stm32f7xx_hal_ltdc.c **** 
 134:Drivers/STM32F7xx_HAL_Driver/Src/stm32f7xx_hal_ltdc.c ****     [..]
 135:Drivers/STM32F7xx_HAL_Driver/Src/stm32f7xx_hal_ltdc.c ****     By default, after the HAL_LTDC_Init and when the state is HAL_LTDC_STATE_RESET
 136:Drivers/STM32F7xx_HAL_Driver/Src/stm32f7xx_hal_ltdc.c ****     all callbacks are set to the corresponding weak functions:
 137:Drivers/STM32F7xx_HAL_Driver/Src/stm32f7xx_hal_ltdc.c ****     examples HAL_LTDC_LineEventCallback(), HAL_LTDC_ErrorCallback().
 138:Drivers/STM32F7xx_HAL_Driver/Src/stm32f7xx_hal_ltdc.c ****     Exception done for MspInit and MspDeInit functions that are
 139:Drivers/STM32F7xx_HAL_Driver/Src/stm32f7xx_hal_ltdc.c ****     reset to the legacy weak (surcharged) functions in the HAL_LTDC_Init() and HAL_LTDC_DeInit()
 140:Drivers/STM32F7xx_HAL_Driver/Src/stm32f7xx_hal_ltdc.c ****     only when these callbacks are null (not registered beforehand).
 141:Drivers/STM32F7xx_HAL_Driver/Src/stm32f7xx_hal_ltdc.c ****     If not, MspInit or MspDeInit are not null, the HAL_LTDC_Init() and HAL_LTDC_DeInit()
 142:Drivers/STM32F7xx_HAL_Driver/Src/stm32f7xx_hal_ltdc.c ****     keep and use the user MspInit/MspDeInit callbacks (registered beforehand).
 143:Drivers/STM32F7xx_HAL_Driver/Src/stm32f7xx_hal_ltdc.c **** 
 144:Drivers/STM32F7xx_HAL_Driver/Src/stm32f7xx_hal_ltdc.c ****     [..]
ARM GAS  C:\Users\jisu8\AppData\Local\Temp\cchBTxuu.s 			page 4


 145:Drivers/STM32F7xx_HAL_Driver/Src/stm32f7xx_hal_ltdc.c ****     Callbacks can be registered/unregistered in HAL_LTDC_STATE_READY state only.
 146:Drivers/STM32F7xx_HAL_Driver/Src/stm32f7xx_hal_ltdc.c ****     Exception done MspInit/MspDeInit that can be registered/unregistered
 147:Drivers/STM32F7xx_HAL_Driver/Src/stm32f7xx_hal_ltdc.c ****     in HAL_LTDC_STATE_READY or HAL_LTDC_STATE_RESET state,
 148:Drivers/STM32F7xx_HAL_Driver/Src/stm32f7xx_hal_ltdc.c ****     thus registered (user) MspInit/DeInit callbacks can be used during the Init/DeInit.
 149:Drivers/STM32F7xx_HAL_Driver/Src/stm32f7xx_hal_ltdc.c ****     In that case first register the MspInit/MspDeInit user callbacks
 150:Drivers/STM32F7xx_HAL_Driver/Src/stm32f7xx_hal_ltdc.c ****     using HAL_LTDC_RegisterCallback() before calling HAL_LTDC_DeInit()
 151:Drivers/STM32F7xx_HAL_Driver/Src/stm32f7xx_hal_ltdc.c ****     or HAL_LTDC_Init() function.
 152:Drivers/STM32F7xx_HAL_Driver/Src/stm32f7xx_hal_ltdc.c **** 
 153:Drivers/STM32F7xx_HAL_Driver/Src/stm32f7xx_hal_ltdc.c ****     [..]
 154:Drivers/STM32F7xx_HAL_Driver/Src/stm32f7xx_hal_ltdc.c ****     When the compilation define USE_HAL_LTDC_REGISTER_CALLBACKS is set to 0 or
 155:Drivers/STM32F7xx_HAL_Driver/Src/stm32f7xx_hal_ltdc.c ****     not defined, the callback registration feature is not available and all callbacks
 156:Drivers/STM32F7xx_HAL_Driver/Src/stm32f7xx_hal_ltdc.c ****     are set to the corresponding weak functions.
 157:Drivers/STM32F7xx_HAL_Driver/Src/stm32f7xx_hal_ltdc.c **** 
 158:Drivers/STM32F7xx_HAL_Driver/Src/stm32f7xx_hal_ltdc.c ****   @endverbatim
 159:Drivers/STM32F7xx_HAL_Driver/Src/stm32f7xx_hal_ltdc.c ****   ******************************************************************************
 160:Drivers/STM32F7xx_HAL_Driver/Src/stm32f7xx_hal_ltdc.c ****   */
 161:Drivers/STM32F7xx_HAL_Driver/Src/stm32f7xx_hal_ltdc.c **** 
 162:Drivers/STM32F7xx_HAL_Driver/Src/stm32f7xx_hal_ltdc.c **** /* Includes ------------------------------------------------------------------*/
 163:Drivers/STM32F7xx_HAL_Driver/Src/stm32f7xx_hal_ltdc.c **** #include "stm32f7xx_hal.h"
 164:Drivers/STM32F7xx_HAL_Driver/Src/stm32f7xx_hal_ltdc.c **** 
 165:Drivers/STM32F7xx_HAL_Driver/Src/stm32f7xx_hal_ltdc.c **** /** @addtogroup STM32F7xx_HAL_Driver
 166:Drivers/STM32F7xx_HAL_Driver/Src/stm32f7xx_hal_ltdc.c ****   * @{
 167:Drivers/STM32F7xx_HAL_Driver/Src/stm32f7xx_hal_ltdc.c ****   */
 168:Drivers/STM32F7xx_HAL_Driver/Src/stm32f7xx_hal_ltdc.c **** 
 169:Drivers/STM32F7xx_HAL_Driver/Src/stm32f7xx_hal_ltdc.c **** #ifdef HAL_LTDC_MODULE_ENABLED
 170:Drivers/STM32F7xx_HAL_Driver/Src/stm32f7xx_hal_ltdc.c **** 
 171:Drivers/STM32F7xx_HAL_Driver/Src/stm32f7xx_hal_ltdc.c **** #if defined (LTDC)
 172:Drivers/STM32F7xx_HAL_Driver/Src/stm32f7xx_hal_ltdc.c **** 
 173:Drivers/STM32F7xx_HAL_Driver/Src/stm32f7xx_hal_ltdc.c **** /** @defgroup LTDC LTDC
 174:Drivers/STM32F7xx_HAL_Driver/Src/stm32f7xx_hal_ltdc.c ****   * @brief LTDC HAL module driver
 175:Drivers/STM32F7xx_HAL_Driver/Src/stm32f7xx_hal_ltdc.c ****   * @{
 176:Drivers/STM32F7xx_HAL_Driver/Src/stm32f7xx_hal_ltdc.c ****   */
 177:Drivers/STM32F7xx_HAL_Driver/Src/stm32f7xx_hal_ltdc.c **** 
 178:Drivers/STM32F7xx_HAL_Driver/Src/stm32f7xx_hal_ltdc.c **** 
 179:Drivers/STM32F7xx_HAL_Driver/Src/stm32f7xx_hal_ltdc.c **** /* Private typedef -----------------------------------------------------------*/
 180:Drivers/STM32F7xx_HAL_Driver/Src/stm32f7xx_hal_ltdc.c **** /* Private define ------------------------------------------------------------*/
 181:Drivers/STM32F7xx_HAL_Driver/Src/stm32f7xx_hal_ltdc.c **** #define LTDC_TIMEOUT_VALUE ((uint32_t)100U)  /* 100ms */
 182:Drivers/STM32F7xx_HAL_Driver/Src/stm32f7xx_hal_ltdc.c **** /* Private macro -------------------------------------------------------------*/
 183:Drivers/STM32F7xx_HAL_Driver/Src/stm32f7xx_hal_ltdc.c **** /* Private variables ---------------------------------------------------------*/
 184:Drivers/STM32F7xx_HAL_Driver/Src/stm32f7xx_hal_ltdc.c **** /* Private function prototypes -----------------------------------------------*/
 185:Drivers/STM32F7xx_HAL_Driver/Src/stm32f7xx_hal_ltdc.c **** static void LTDC_SetConfig(LTDC_HandleTypeDef *hltdc, LTDC_LayerCfgTypeDef *pLayerCfg, uint32_t Lay
 186:Drivers/STM32F7xx_HAL_Driver/Src/stm32f7xx_hal_ltdc.c **** /* Private functions ---------------------------------------------------------*/
 187:Drivers/STM32F7xx_HAL_Driver/Src/stm32f7xx_hal_ltdc.c **** 
 188:Drivers/STM32F7xx_HAL_Driver/Src/stm32f7xx_hal_ltdc.c **** /** @defgroup LTDC_Exported_Functions LTDC Exported Functions
 189:Drivers/STM32F7xx_HAL_Driver/Src/stm32f7xx_hal_ltdc.c ****   * @{
 190:Drivers/STM32F7xx_HAL_Driver/Src/stm32f7xx_hal_ltdc.c ****   */
 191:Drivers/STM32F7xx_HAL_Driver/Src/stm32f7xx_hal_ltdc.c **** 
 192:Drivers/STM32F7xx_HAL_Driver/Src/stm32f7xx_hal_ltdc.c **** /** @defgroup LTDC_Exported_Functions_Group1 Initialization and Configuration functions
 193:Drivers/STM32F7xx_HAL_Driver/Src/stm32f7xx_hal_ltdc.c ****   *  @brief   Initialization and Configuration functions
 194:Drivers/STM32F7xx_HAL_Driver/Src/stm32f7xx_hal_ltdc.c ****   *
 195:Drivers/STM32F7xx_HAL_Driver/Src/stm32f7xx_hal_ltdc.c **** @verbatim
 196:Drivers/STM32F7xx_HAL_Driver/Src/stm32f7xx_hal_ltdc.c ****  ===============================================================================
 197:Drivers/STM32F7xx_HAL_Driver/Src/stm32f7xx_hal_ltdc.c ****                 ##### Initialization and Configuration functions #####
 198:Drivers/STM32F7xx_HAL_Driver/Src/stm32f7xx_hal_ltdc.c ****  ===============================================================================
 199:Drivers/STM32F7xx_HAL_Driver/Src/stm32f7xx_hal_ltdc.c ****     [..]  This section provides functions allowing to:
 200:Drivers/STM32F7xx_HAL_Driver/Src/stm32f7xx_hal_ltdc.c ****       (+) Initialize and configure the LTDC
 201:Drivers/STM32F7xx_HAL_Driver/Src/stm32f7xx_hal_ltdc.c ****       (+) De-initialize the LTDC
ARM GAS  C:\Users\jisu8\AppData\Local\Temp\cchBTxuu.s 			page 5


 202:Drivers/STM32F7xx_HAL_Driver/Src/stm32f7xx_hal_ltdc.c **** 
 203:Drivers/STM32F7xx_HAL_Driver/Src/stm32f7xx_hal_ltdc.c **** @endverbatim
 204:Drivers/STM32F7xx_HAL_Driver/Src/stm32f7xx_hal_ltdc.c ****   * @{
 205:Drivers/STM32F7xx_HAL_Driver/Src/stm32f7xx_hal_ltdc.c ****   */
 206:Drivers/STM32F7xx_HAL_Driver/Src/stm32f7xx_hal_ltdc.c **** 
 207:Drivers/STM32F7xx_HAL_Driver/Src/stm32f7xx_hal_ltdc.c **** /**
 208:Drivers/STM32F7xx_HAL_Driver/Src/stm32f7xx_hal_ltdc.c ****   * @brief  Initialize the LTDC according to the specified parameters in the LTDC_InitTypeDef.
 209:Drivers/STM32F7xx_HAL_Driver/Src/stm32f7xx_hal_ltdc.c ****   * @param  hltdc  pointer to a LTDC_HandleTypeDef structure that contains
 210:Drivers/STM32F7xx_HAL_Driver/Src/stm32f7xx_hal_ltdc.c ****   *                the configuration information for the LTDC.
 211:Drivers/STM32F7xx_HAL_Driver/Src/stm32f7xx_hal_ltdc.c ****   * @retval HAL status
 212:Drivers/STM32F7xx_HAL_Driver/Src/stm32f7xx_hal_ltdc.c ****   */
 213:Drivers/STM32F7xx_HAL_Driver/Src/stm32f7xx_hal_ltdc.c **** HAL_StatusTypeDef HAL_LTDC_Init(LTDC_HandleTypeDef *hltdc)
 214:Drivers/STM32F7xx_HAL_Driver/Src/stm32f7xx_hal_ltdc.c **** {
  29              		.loc 1 214 1
  30              		.cfi_startproc
  31              		@ args = 0, pretend = 0, frame = 16
  32              		@ frame_needed = 1, uses_anonymous_args = 0
  33 0000 80B5     		push	{r7, lr}
  34              	.LCFI0:
  35              		.cfi_def_cfa_offset 8
  36              		.cfi_offset 7, -8
  37              		.cfi_offset 14, -4
  38 0002 84B0     		sub	sp, sp, #16
  39              	.LCFI1:
  40              		.cfi_def_cfa_offset 24
  41 0004 00AF     		add	r7, sp, #0
  42              	.LCFI2:
  43              		.cfi_def_cfa_register 7
  44 0006 7860     		str	r0, [r7, #4]
 215:Drivers/STM32F7xx_HAL_Driver/Src/stm32f7xx_hal_ltdc.c ****   uint32_t tmp;
 216:Drivers/STM32F7xx_HAL_Driver/Src/stm32f7xx_hal_ltdc.c ****   uint32_t tmp1;
 217:Drivers/STM32F7xx_HAL_Driver/Src/stm32f7xx_hal_ltdc.c **** 
 218:Drivers/STM32F7xx_HAL_Driver/Src/stm32f7xx_hal_ltdc.c ****   /* Check the LTDC peripheral state */
 219:Drivers/STM32F7xx_HAL_Driver/Src/stm32f7xx_hal_ltdc.c ****   if (hltdc == NULL)
  45              		.loc 1 219 6
  46 0008 7B68     		ldr	r3, [r7, #4]
  47 000a 002B     		cmp	r3, #0
  48 000c 01D1     		bne	.L2
 220:Drivers/STM32F7xx_HAL_Driver/Src/stm32f7xx_hal_ltdc.c ****   {
 221:Drivers/STM32F7xx_HAL_Driver/Src/stm32f7xx_hal_ltdc.c ****     return HAL_ERROR;
  49              		.loc 1 221 12
  50 000e 0123     		movs	r3, #1
  51 0010 BFE0     		b	.L3
  52              	.L2:
 222:Drivers/STM32F7xx_HAL_Driver/Src/stm32f7xx_hal_ltdc.c ****   }
 223:Drivers/STM32F7xx_HAL_Driver/Src/stm32f7xx_hal_ltdc.c **** 
 224:Drivers/STM32F7xx_HAL_Driver/Src/stm32f7xx_hal_ltdc.c ****   /* Check function parameters */
 225:Drivers/STM32F7xx_HAL_Driver/Src/stm32f7xx_hal_ltdc.c ****   assert_param(IS_LTDC_ALL_INSTANCE(hltdc->Instance));
 226:Drivers/STM32F7xx_HAL_Driver/Src/stm32f7xx_hal_ltdc.c ****   assert_param(IS_LTDC_HSYNC(hltdc->Init.HorizontalSync));
 227:Drivers/STM32F7xx_HAL_Driver/Src/stm32f7xx_hal_ltdc.c ****   assert_param(IS_LTDC_VSYNC(hltdc->Init.VerticalSync));
 228:Drivers/STM32F7xx_HAL_Driver/Src/stm32f7xx_hal_ltdc.c ****   assert_param(IS_LTDC_AHBP(hltdc->Init.AccumulatedHBP));
 229:Drivers/STM32F7xx_HAL_Driver/Src/stm32f7xx_hal_ltdc.c ****   assert_param(IS_LTDC_AVBP(hltdc->Init.AccumulatedVBP));
 230:Drivers/STM32F7xx_HAL_Driver/Src/stm32f7xx_hal_ltdc.c ****   assert_param(IS_LTDC_AAH(hltdc->Init.AccumulatedActiveH));
 231:Drivers/STM32F7xx_HAL_Driver/Src/stm32f7xx_hal_ltdc.c ****   assert_param(IS_LTDC_AAW(hltdc->Init.AccumulatedActiveW));
 232:Drivers/STM32F7xx_HAL_Driver/Src/stm32f7xx_hal_ltdc.c ****   assert_param(IS_LTDC_TOTALH(hltdc->Init.TotalHeigh));
 233:Drivers/STM32F7xx_HAL_Driver/Src/stm32f7xx_hal_ltdc.c ****   assert_param(IS_LTDC_TOTALW(hltdc->Init.TotalWidth));
 234:Drivers/STM32F7xx_HAL_Driver/Src/stm32f7xx_hal_ltdc.c ****   assert_param(IS_LTDC_HSPOL(hltdc->Init.HSPolarity));
ARM GAS  C:\Users\jisu8\AppData\Local\Temp\cchBTxuu.s 			page 6


 235:Drivers/STM32F7xx_HAL_Driver/Src/stm32f7xx_hal_ltdc.c ****   assert_param(IS_LTDC_VSPOL(hltdc->Init.VSPolarity));
 236:Drivers/STM32F7xx_HAL_Driver/Src/stm32f7xx_hal_ltdc.c ****   assert_param(IS_LTDC_DEPOL(hltdc->Init.DEPolarity));
 237:Drivers/STM32F7xx_HAL_Driver/Src/stm32f7xx_hal_ltdc.c ****   assert_param(IS_LTDC_PCPOL(hltdc->Init.PCPolarity));
 238:Drivers/STM32F7xx_HAL_Driver/Src/stm32f7xx_hal_ltdc.c **** 
 239:Drivers/STM32F7xx_HAL_Driver/Src/stm32f7xx_hal_ltdc.c **** #if (USE_HAL_LTDC_REGISTER_CALLBACKS == 1)
 240:Drivers/STM32F7xx_HAL_Driver/Src/stm32f7xx_hal_ltdc.c ****   if (hltdc->State == HAL_LTDC_STATE_RESET)
 241:Drivers/STM32F7xx_HAL_Driver/Src/stm32f7xx_hal_ltdc.c ****   {
 242:Drivers/STM32F7xx_HAL_Driver/Src/stm32f7xx_hal_ltdc.c ****     /* Allocate lock resource and initialize it */
 243:Drivers/STM32F7xx_HAL_Driver/Src/stm32f7xx_hal_ltdc.c ****     hltdc->Lock = HAL_UNLOCKED;
 244:Drivers/STM32F7xx_HAL_Driver/Src/stm32f7xx_hal_ltdc.c **** 
 245:Drivers/STM32F7xx_HAL_Driver/Src/stm32f7xx_hal_ltdc.c ****     /* Reset the LTDC callback to the legacy weak callbacks */
 246:Drivers/STM32F7xx_HAL_Driver/Src/stm32f7xx_hal_ltdc.c ****     hltdc->LineEventCallback   = HAL_LTDC_LineEventCallback;    /* Legacy weak LineEventCallback   
 247:Drivers/STM32F7xx_HAL_Driver/Src/stm32f7xx_hal_ltdc.c ****     hltdc->ReloadEventCallback = HAL_LTDC_ReloadEventCallback;  /* Legacy weak ReloadEventCallback 
 248:Drivers/STM32F7xx_HAL_Driver/Src/stm32f7xx_hal_ltdc.c ****     hltdc->ErrorCallback       = HAL_LTDC_ErrorCallback;        /* Legacy weak ErrorCallback       
 249:Drivers/STM32F7xx_HAL_Driver/Src/stm32f7xx_hal_ltdc.c **** 
 250:Drivers/STM32F7xx_HAL_Driver/Src/stm32f7xx_hal_ltdc.c ****     if (hltdc->MspInitCallback == NULL)
 251:Drivers/STM32F7xx_HAL_Driver/Src/stm32f7xx_hal_ltdc.c ****     {
 252:Drivers/STM32F7xx_HAL_Driver/Src/stm32f7xx_hal_ltdc.c ****       hltdc->MspInitCallback = HAL_LTDC_MspInit;
 253:Drivers/STM32F7xx_HAL_Driver/Src/stm32f7xx_hal_ltdc.c ****     }
 254:Drivers/STM32F7xx_HAL_Driver/Src/stm32f7xx_hal_ltdc.c ****     /* Init the low level hardware */
 255:Drivers/STM32F7xx_HAL_Driver/Src/stm32f7xx_hal_ltdc.c ****     hltdc->MspInitCallback(hltdc);
 256:Drivers/STM32F7xx_HAL_Driver/Src/stm32f7xx_hal_ltdc.c ****   }
 257:Drivers/STM32F7xx_HAL_Driver/Src/stm32f7xx_hal_ltdc.c **** #else
 258:Drivers/STM32F7xx_HAL_Driver/Src/stm32f7xx_hal_ltdc.c ****   if (hltdc->State == HAL_LTDC_STATE_RESET)
  53              		.loc 1 258 12
  54 0012 7B68     		ldr	r3, [r7, #4]
  55 0014 93F8A130 		ldrb	r3, [r3, #161]
  56 0018 DBB2     		uxtb	r3, r3
  57              		.loc 1 258 6
  58 001a 002B     		cmp	r3, #0
  59 001c 06D1     		bne	.L4
 259:Drivers/STM32F7xx_HAL_Driver/Src/stm32f7xx_hal_ltdc.c ****   {
 260:Drivers/STM32F7xx_HAL_Driver/Src/stm32f7xx_hal_ltdc.c ****     /* Allocate lock resource and initialize it */
 261:Drivers/STM32F7xx_HAL_Driver/Src/stm32f7xx_hal_ltdc.c ****     hltdc->Lock = HAL_UNLOCKED;
  60              		.loc 1 261 17
  61 001e 7B68     		ldr	r3, [r7, #4]
  62 0020 0022     		movs	r2, #0
  63 0022 83F8A020 		strb	r2, [r3, #160]
 262:Drivers/STM32F7xx_HAL_Driver/Src/stm32f7xx_hal_ltdc.c ****     /* Init the low level hardware */
 263:Drivers/STM32F7xx_HAL_Driver/Src/stm32f7xx_hal_ltdc.c ****     HAL_LTDC_MspInit(hltdc);
  64              		.loc 1 263 5
  65 0026 7868     		ldr	r0, [r7, #4]
  66 0028 FFF7FEFF 		bl	HAL_LTDC_MspInit
  67              	.L4:
 264:Drivers/STM32F7xx_HAL_Driver/Src/stm32f7xx_hal_ltdc.c ****   }
 265:Drivers/STM32F7xx_HAL_Driver/Src/stm32f7xx_hal_ltdc.c **** #endif /* USE_HAL_LTDC_REGISTER_CALLBACKS */
 266:Drivers/STM32F7xx_HAL_Driver/Src/stm32f7xx_hal_ltdc.c **** 
 267:Drivers/STM32F7xx_HAL_Driver/Src/stm32f7xx_hal_ltdc.c ****   /* Change LTDC peripheral state */
 268:Drivers/STM32F7xx_HAL_Driver/Src/stm32f7xx_hal_ltdc.c ****   hltdc->State = HAL_LTDC_STATE_BUSY;
  68              		.loc 1 268 16
  69 002c 7B68     		ldr	r3, [r7, #4]
  70 002e 0222     		movs	r2, #2
  71 0030 83F8A120 		strb	r2, [r3, #161]
 269:Drivers/STM32F7xx_HAL_Driver/Src/stm32f7xx_hal_ltdc.c **** 
 270:Drivers/STM32F7xx_HAL_Driver/Src/stm32f7xx_hal_ltdc.c ****   /* Configure the HS, VS, DE and PC polarity */
 271:Drivers/STM32F7xx_HAL_Driver/Src/stm32f7xx_hal_ltdc.c ****   hltdc->Instance->GCR &= ~(LTDC_GCR_HSPOL | LTDC_GCR_VSPOL | LTDC_GCR_DEPOL | LTDC_GCR_PCPOL);
  72              		.loc 1 271 8
ARM GAS  C:\Users\jisu8\AppData\Local\Temp\cchBTxuu.s 			page 7


  73 0034 7B68     		ldr	r3, [r7, #4]
  74 0036 1B68     		ldr	r3, [r3]
  75              		.loc 1 271 24
  76 0038 9A69     		ldr	r2, [r3, #24]
  77              		.loc 1 271 8
  78 003a 7B68     		ldr	r3, [r7, #4]
  79 003c 1B68     		ldr	r3, [r3]
  80              		.loc 1 271 24
  81 003e 22F07042 		bic	r2, r2, #-268435456
  82 0042 9A61     		str	r2, [r3, #24]
 272:Drivers/STM32F7xx_HAL_Driver/Src/stm32f7xx_hal_ltdc.c ****   hltdc->Instance->GCR |= (uint32_t)(hltdc->Init.HSPolarity | hltdc->Init.VSPolarity | \
  83              		.loc 1 272 8
  84 0044 7B68     		ldr	r3, [r7, #4]
  85 0046 1B68     		ldr	r3, [r3]
  86              		.loc 1 272 24
  87 0048 9969     		ldr	r1, [r3, #24]
  88              		.loc 1 272 49
  89 004a 7B68     		ldr	r3, [r7, #4]
  90 004c 5A68     		ldr	r2, [r3, #4]
  91              		.loc 1 272 74
  92 004e 7B68     		ldr	r3, [r7, #4]
  93 0050 9B68     		ldr	r3, [r3, #8]
  94              		.loc 1 272 61
  95 0052 1A43     		orrs	r2, r2, r3
 273:Drivers/STM32F7xx_HAL_Driver/Src/stm32f7xx_hal_ltdc.c ****                                      hltdc->Init.DEPolarity | hltdc->Init.PCPolarity);
  96              		.loc 1 273 49
  97 0054 7B68     		ldr	r3, [r7, #4]
  98 0056 DB68     		ldr	r3, [r3, #12]
 272:Drivers/STM32F7xx_HAL_Driver/Src/stm32f7xx_hal_ltdc.c ****   hltdc->Instance->GCR |= (uint32_t)(hltdc->Init.HSPolarity | hltdc->Init.VSPolarity | \
  99              		.loc 1 272 86
 100 0058 1A43     		orrs	r2, r2, r3
 101              		.loc 1 273 74
 102 005a 7B68     		ldr	r3, [r7, #4]
 103 005c 1B69     		ldr	r3, [r3, #16]
 104              		.loc 1 273 61
 105 005e 1A43     		orrs	r2, r2, r3
 272:Drivers/STM32F7xx_HAL_Driver/Src/stm32f7xx_hal_ltdc.c ****   hltdc->Instance->GCR |= (uint32_t)(hltdc->Init.HSPolarity | hltdc->Init.VSPolarity | \
 106              		.loc 1 272 8
 107 0060 7B68     		ldr	r3, [r7, #4]
 108 0062 1B68     		ldr	r3, [r3]
 272:Drivers/STM32F7xx_HAL_Driver/Src/stm32f7xx_hal_ltdc.c ****   hltdc->Instance->GCR |= (uint32_t)(hltdc->Init.HSPolarity | hltdc->Init.VSPolarity | \
 109              		.loc 1 272 24
 110 0064 0A43     		orrs	r2, r2, r1
 111 0066 9A61     		str	r2, [r3, #24]
 274:Drivers/STM32F7xx_HAL_Driver/Src/stm32f7xx_hal_ltdc.c **** 
 275:Drivers/STM32F7xx_HAL_Driver/Src/stm32f7xx_hal_ltdc.c ****   /* Set Synchronization size */
 276:Drivers/STM32F7xx_HAL_Driver/Src/stm32f7xx_hal_ltdc.c ****   hltdc->Instance->SSCR &= ~(LTDC_SSCR_VSH | LTDC_SSCR_HSW);
 112              		.loc 1 276 8
 113 0068 7B68     		ldr	r3, [r7, #4]
 114 006a 1B68     		ldr	r3, [r3]
 115              		.loc 1 276 25
 116 006c 9968     		ldr	r1, [r3, #8]
 117              		.loc 1 276 8
 118 006e 7B68     		ldr	r3, [r7, #4]
 119 0070 1A68     		ldr	r2, [r3]
 120              		.loc 1 276 25
 121 0072 4A4B     		ldr	r3, .L5
ARM GAS  C:\Users\jisu8\AppData\Local\Temp\cchBTxuu.s 			page 8


 122 0074 0B40     		ands	r3, r3, r1
 123 0076 9360     		str	r3, [r2, #8]
 277:Drivers/STM32F7xx_HAL_Driver/Src/stm32f7xx_hal_ltdc.c ****   tmp = (hltdc->Init.HorizontalSync << 16U);
 124              		.loc 1 277 21
 125 0078 7B68     		ldr	r3, [r7, #4]
 126 007a 5B69     		ldr	r3, [r3, #20]
 127              		.loc 1 277 7
 128 007c 1B04     		lsls	r3, r3, #16
 129 007e FB60     		str	r3, [r7, #12]
 278:Drivers/STM32F7xx_HAL_Driver/Src/stm32f7xx_hal_ltdc.c ****   hltdc->Instance->SSCR |= (tmp | hltdc->Init.VerticalSync);
 130              		.loc 1 278 8
 131 0080 7B68     		ldr	r3, [r7, #4]
 132 0082 1B68     		ldr	r3, [r3]
 133              		.loc 1 278 25
 134 0084 9968     		ldr	r1, [r3, #8]
 135              		.loc 1 278 46
 136 0086 7B68     		ldr	r3, [r7, #4]
 137 0088 9A69     		ldr	r2, [r3, #24]
 138              		.loc 1 278 33
 139 008a FB68     		ldr	r3, [r7, #12]
 140 008c 1A43     		orrs	r2, r2, r3
 141              		.loc 1 278 8
 142 008e 7B68     		ldr	r3, [r7, #4]
 143 0090 1B68     		ldr	r3, [r3]
 144              		.loc 1 278 25
 145 0092 0A43     		orrs	r2, r2, r1
 146 0094 9A60     		str	r2, [r3, #8]
 279:Drivers/STM32F7xx_HAL_Driver/Src/stm32f7xx_hal_ltdc.c **** 
 280:Drivers/STM32F7xx_HAL_Driver/Src/stm32f7xx_hal_ltdc.c ****   /* Set Accumulated Back porch */
 281:Drivers/STM32F7xx_HAL_Driver/Src/stm32f7xx_hal_ltdc.c ****   hltdc->Instance->BPCR &= ~(LTDC_BPCR_AVBP | LTDC_BPCR_AHBP);
 147              		.loc 1 281 8
 148 0096 7B68     		ldr	r3, [r7, #4]
 149 0098 1B68     		ldr	r3, [r3]
 150              		.loc 1 281 25
 151 009a D968     		ldr	r1, [r3, #12]
 152              		.loc 1 281 8
 153 009c 7B68     		ldr	r3, [r7, #4]
 154 009e 1A68     		ldr	r2, [r3]
 155              		.loc 1 281 25
 156 00a0 3E4B     		ldr	r3, .L5
 157 00a2 0B40     		ands	r3, r3, r1
 158 00a4 D360     		str	r3, [r2, #12]
 282:Drivers/STM32F7xx_HAL_Driver/Src/stm32f7xx_hal_ltdc.c ****   tmp = (hltdc->Init.AccumulatedHBP << 16U);
 159              		.loc 1 282 21
 160 00a6 7B68     		ldr	r3, [r7, #4]
 161 00a8 DB69     		ldr	r3, [r3, #28]
 162              		.loc 1 282 7
 163 00aa 1B04     		lsls	r3, r3, #16
 164 00ac FB60     		str	r3, [r7, #12]
 283:Drivers/STM32F7xx_HAL_Driver/Src/stm32f7xx_hal_ltdc.c ****   hltdc->Instance->BPCR |= (tmp | hltdc->Init.AccumulatedVBP);
 165              		.loc 1 283 8
 166 00ae 7B68     		ldr	r3, [r7, #4]
 167 00b0 1B68     		ldr	r3, [r3]
 168              		.loc 1 283 25
 169 00b2 D968     		ldr	r1, [r3, #12]
 170              		.loc 1 283 46
 171 00b4 7B68     		ldr	r3, [r7, #4]
ARM GAS  C:\Users\jisu8\AppData\Local\Temp\cchBTxuu.s 			page 9


 172 00b6 1A6A     		ldr	r2, [r3, #32]
 173              		.loc 1 283 33
 174 00b8 FB68     		ldr	r3, [r7, #12]
 175 00ba 1A43     		orrs	r2, r2, r3
 176              		.loc 1 283 8
 177 00bc 7B68     		ldr	r3, [r7, #4]
 178 00be 1B68     		ldr	r3, [r3]
 179              		.loc 1 283 25
 180 00c0 0A43     		orrs	r2, r2, r1
 181 00c2 DA60     		str	r2, [r3, #12]
 284:Drivers/STM32F7xx_HAL_Driver/Src/stm32f7xx_hal_ltdc.c **** 
 285:Drivers/STM32F7xx_HAL_Driver/Src/stm32f7xx_hal_ltdc.c ****   /* Set Accumulated Active Width */
 286:Drivers/STM32F7xx_HAL_Driver/Src/stm32f7xx_hal_ltdc.c ****   hltdc->Instance->AWCR &= ~(LTDC_AWCR_AAH | LTDC_AWCR_AAW);
 182              		.loc 1 286 8
 183 00c4 7B68     		ldr	r3, [r7, #4]
 184 00c6 1B68     		ldr	r3, [r3]
 185              		.loc 1 286 25
 186 00c8 1969     		ldr	r1, [r3, #16]
 187              		.loc 1 286 8
 188 00ca 7B68     		ldr	r3, [r7, #4]
 189 00cc 1A68     		ldr	r2, [r3]
 190              		.loc 1 286 25
 191 00ce 334B     		ldr	r3, .L5
 192 00d0 0B40     		ands	r3, r3, r1
 193 00d2 1361     		str	r3, [r2, #16]
 287:Drivers/STM32F7xx_HAL_Driver/Src/stm32f7xx_hal_ltdc.c ****   tmp = (hltdc->Init.AccumulatedActiveW << 16U);
 194              		.loc 1 287 21
 195 00d4 7B68     		ldr	r3, [r7, #4]
 196 00d6 5B6A     		ldr	r3, [r3, #36]
 197              		.loc 1 287 7
 198 00d8 1B04     		lsls	r3, r3, #16
 199 00da FB60     		str	r3, [r7, #12]
 288:Drivers/STM32F7xx_HAL_Driver/Src/stm32f7xx_hal_ltdc.c ****   hltdc->Instance->AWCR |= (tmp | hltdc->Init.AccumulatedActiveH);
 200              		.loc 1 288 8
 201 00dc 7B68     		ldr	r3, [r7, #4]
 202 00de 1B68     		ldr	r3, [r3]
 203              		.loc 1 288 25
 204 00e0 1969     		ldr	r1, [r3, #16]
 205              		.loc 1 288 46
 206 00e2 7B68     		ldr	r3, [r7, #4]
 207 00e4 9A6A     		ldr	r2, [r3, #40]
 208              		.loc 1 288 33
 209 00e6 FB68     		ldr	r3, [r7, #12]
 210 00e8 1A43     		orrs	r2, r2, r3
 211              		.loc 1 288 8
 212 00ea 7B68     		ldr	r3, [r7, #4]
 213 00ec 1B68     		ldr	r3, [r3]
 214              		.loc 1 288 25
 215 00ee 0A43     		orrs	r2, r2, r1
 216 00f0 1A61     		str	r2, [r3, #16]
 289:Drivers/STM32F7xx_HAL_Driver/Src/stm32f7xx_hal_ltdc.c **** 
 290:Drivers/STM32F7xx_HAL_Driver/Src/stm32f7xx_hal_ltdc.c ****   /* Set Total Width */
 291:Drivers/STM32F7xx_HAL_Driver/Src/stm32f7xx_hal_ltdc.c ****   hltdc->Instance->TWCR &= ~(LTDC_TWCR_TOTALH | LTDC_TWCR_TOTALW);
 217              		.loc 1 291 8
 218 00f2 7B68     		ldr	r3, [r7, #4]
 219 00f4 1B68     		ldr	r3, [r3]
 220              		.loc 1 291 25
ARM GAS  C:\Users\jisu8\AppData\Local\Temp\cchBTxuu.s 			page 10


 221 00f6 5969     		ldr	r1, [r3, #20]
 222              		.loc 1 291 8
 223 00f8 7B68     		ldr	r3, [r7, #4]
 224 00fa 1A68     		ldr	r2, [r3]
 225              		.loc 1 291 25
 226 00fc 274B     		ldr	r3, .L5
 227 00fe 0B40     		ands	r3, r3, r1
 228 0100 5361     		str	r3, [r2, #20]
 292:Drivers/STM32F7xx_HAL_Driver/Src/stm32f7xx_hal_ltdc.c ****   tmp = (hltdc->Init.TotalWidth << 16U);
 229              		.loc 1 292 21
 230 0102 7B68     		ldr	r3, [r7, #4]
 231 0104 DB6A     		ldr	r3, [r3, #44]
 232              		.loc 1 292 7
 233 0106 1B04     		lsls	r3, r3, #16
 234 0108 FB60     		str	r3, [r7, #12]
 293:Drivers/STM32F7xx_HAL_Driver/Src/stm32f7xx_hal_ltdc.c ****   hltdc->Instance->TWCR |= (tmp | hltdc->Init.TotalHeigh);
 235              		.loc 1 293 8
 236 010a 7B68     		ldr	r3, [r7, #4]
 237 010c 1B68     		ldr	r3, [r3]
 238              		.loc 1 293 25
 239 010e 5969     		ldr	r1, [r3, #20]
 240              		.loc 1 293 46
 241 0110 7B68     		ldr	r3, [r7, #4]
 242 0112 1A6B     		ldr	r2, [r3, #48]
 243              		.loc 1 293 33
 244 0114 FB68     		ldr	r3, [r7, #12]
 245 0116 1A43     		orrs	r2, r2, r3
 246              		.loc 1 293 8
 247 0118 7B68     		ldr	r3, [r7, #4]
 248 011a 1B68     		ldr	r3, [r3]
 249              		.loc 1 293 25
 250 011c 0A43     		orrs	r2, r2, r1
 251 011e 5A61     		str	r2, [r3, #20]
 294:Drivers/STM32F7xx_HAL_Driver/Src/stm32f7xx_hal_ltdc.c **** 
 295:Drivers/STM32F7xx_HAL_Driver/Src/stm32f7xx_hal_ltdc.c ****   /* Set the background color value */
 296:Drivers/STM32F7xx_HAL_Driver/Src/stm32f7xx_hal_ltdc.c ****   tmp = ((uint32_t)(hltdc->Init.Backcolor.Green) << 8U);
 252              		.loc 1 296 42
 253 0120 7B68     		ldr	r3, [r7, #4]
 254 0122 93F83530 		ldrb	r3, [r3, #53]	@ zero_extendqisi2
 255              		.loc 1 296 7
 256 0126 1B02     		lsls	r3, r3, #8
 257 0128 FB60     		str	r3, [r7, #12]
 297:Drivers/STM32F7xx_HAL_Driver/Src/stm32f7xx_hal_ltdc.c ****   tmp1 = ((uint32_t)(hltdc->Init.Backcolor.Red) << 16U);
 258              		.loc 1 297 43
 259 012a 7B68     		ldr	r3, [r7, #4]
 260 012c 93F83630 		ldrb	r3, [r3, #54]	@ zero_extendqisi2
 261              		.loc 1 297 8
 262 0130 1B04     		lsls	r3, r3, #16
 263 0132 BB60     		str	r3, [r7, #8]
 298:Drivers/STM32F7xx_HAL_Driver/Src/stm32f7xx_hal_ltdc.c ****   hltdc->Instance->BCCR &= ~(LTDC_BCCR_BCBLUE | LTDC_BCCR_BCGREEN | LTDC_BCCR_BCRED);
 264              		.loc 1 298 8
 265 0134 7B68     		ldr	r3, [r7, #4]
 266 0136 1B68     		ldr	r3, [r3]
 267              		.loc 1 298 25
 268 0138 DA6A     		ldr	r2, [r3, #44]
 269              		.loc 1 298 8
 270 013a 7B68     		ldr	r3, [r7, #4]
ARM GAS  C:\Users\jisu8\AppData\Local\Temp\cchBTxuu.s 			page 11


 271 013c 1B68     		ldr	r3, [r3]
 272              		.loc 1 298 25
 273 013e 02F07F42 		and	r2, r2, #-16777216
 274 0142 DA62     		str	r2, [r3, #44]
 299:Drivers/STM32F7xx_HAL_Driver/Src/stm32f7xx_hal_ltdc.c ****   hltdc->Instance->BCCR |= (tmp1 | tmp | hltdc->Init.Backcolor.Blue);
 275              		.loc 1 299 8
 276 0144 7B68     		ldr	r3, [r7, #4]
 277 0146 1B68     		ldr	r3, [r3]
 278              		.loc 1 299 25
 279 0148 D96A     		ldr	r1, [r3, #44]
 280              		.loc 1 299 34
 281 014a BA68     		ldr	r2, [r7, #8]
 282 014c FB68     		ldr	r3, [r7, #12]
 283 014e 1343     		orrs	r3, r3, r2
 284              		.loc 1 299 63
 285 0150 7A68     		ldr	r2, [r7, #4]
 286 0152 92F83420 		ldrb	r2, [r2, #52]	@ zero_extendqisi2
 287              		.loc 1 299 40
 288 0156 1A43     		orrs	r2, r2, r3
 289              		.loc 1 299 8
 290 0158 7B68     		ldr	r3, [r7, #4]
 291 015a 1B68     		ldr	r3, [r3]
 292              		.loc 1 299 25
 293 015c 0A43     		orrs	r2, r2, r1
 294 015e DA62     		str	r2, [r3, #44]
 300:Drivers/STM32F7xx_HAL_Driver/Src/stm32f7xx_hal_ltdc.c **** 
 301:Drivers/STM32F7xx_HAL_Driver/Src/stm32f7xx_hal_ltdc.c ****   /* Enable the Transfer Error and FIFO underrun interrupts */
 302:Drivers/STM32F7xx_HAL_Driver/Src/stm32f7xx_hal_ltdc.c ****   __HAL_LTDC_ENABLE_IT(hltdc, LTDC_IT_TE | LTDC_IT_FU);
 295              		.loc 1 302 3
 296 0160 7B68     		ldr	r3, [r7, #4]
 297 0162 1B68     		ldr	r3, [r3]
 298 0164 5A6B     		ldr	r2, [r3, #52]
 299 0166 7B68     		ldr	r3, [r7, #4]
 300 0168 1B68     		ldr	r3, [r3]
 301 016a 42F00602 		orr	r2, r2, #6
 302 016e 5A63     		str	r2, [r3, #52]
 303:Drivers/STM32F7xx_HAL_Driver/Src/stm32f7xx_hal_ltdc.c **** 
 304:Drivers/STM32F7xx_HAL_Driver/Src/stm32f7xx_hal_ltdc.c ****   /* Enable LTDC by setting LTDCEN bit */
 305:Drivers/STM32F7xx_HAL_Driver/Src/stm32f7xx_hal_ltdc.c ****   __HAL_LTDC_ENABLE(hltdc);
 303              		.loc 1 305 3
 304 0170 7B68     		ldr	r3, [r7, #4]
 305 0172 1B68     		ldr	r3, [r3]
 306 0174 9A69     		ldr	r2, [r3, #24]
 307 0176 7B68     		ldr	r3, [r7, #4]
 308 0178 1B68     		ldr	r3, [r3]
 309 017a 42F00102 		orr	r2, r2, #1
 310 017e 9A61     		str	r2, [r3, #24]
 306:Drivers/STM32F7xx_HAL_Driver/Src/stm32f7xx_hal_ltdc.c **** 
 307:Drivers/STM32F7xx_HAL_Driver/Src/stm32f7xx_hal_ltdc.c ****   /* Initialize the error code */
 308:Drivers/STM32F7xx_HAL_Driver/Src/stm32f7xx_hal_ltdc.c ****   hltdc->ErrorCode = HAL_LTDC_ERROR_NONE;
 311              		.loc 1 308 20
 312 0180 7B68     		ldr	r3, [r7, #4]
 313 0182 0022     		movs	r2, #0
 314 0184 C3F8A420 		str	r2, [r3, #164]
 309:Drivers/STM32F7xx_HAL_Driver/Src/stm32f7xx_hal_ltdc.c **** 
 310:Drivers/STM32F7xx_HAL_Driver/Src/stm32f7xx_hal_ltdc.c ****   /* Initialize the LTDC state*/
 311:Drivers/STM32F7xx_HAL_Driver/Src/stm32f7xx_hal_ltdc.c ****   hltdc->State = HAL_LTDC_STATE_READY;
ARM GAS  C:\Users\jisu8\AppData\Local\Temp\cchBTxuu.s 			page 12


 315              		.loc 1 311 16
 316 0188 7B68     		ldr	r3, [r7, #4]
 317 018a 0122     		movs	r2, #1
 318 018c 83F8A120 		strb	r2, [r3, #161]
 312:Drivers/STM32F7xx_HAL_Driver/Src/stm32f7xx_hal_ltdc.c **** 
 313:Drivers/STM32F7xx_HAL_Driver/Src/stm32f7xx_hal_ltdc.c ****   return HAL_OK;
 319              		.loc 1 313 10
 320 0190 0023     		movs	r3, #0
 321              	.L3:
 314:Drivers/STM32F7xx_HAL_Driver/Src/stm32f7xx_hal_ltdc.c **** }
 322              		.loc 1 314 1
 323 0192 1846     		mov	r0, r3
 324 0194 1037     		adds	r7, r7, #16
 325              	.LCFI3:
 326              		.cfi_def_cfa_offset 8
 327 0196 BD46     		mov	sp, r7
 328              	.LCFI4:
 329              		.cfi_def_cfa_register 13
 330              		@ sp needed
 331 0198 80BD     		pop	{r7, pc}
 332              	.L6:
 333 019a 00BF     		.align	2
 334              	.L5:
 335 019c 00F800F0 		.word	-268371968
 336              		.cfi_endproc
 337              	.LFE141:
 339              		.section	.text.HAL_LTDC_DeInit,"ax",%progbits
 340              		.align	1
 341              		.global	HAL_LTDC_DeInit
 342              		.syntax unified
 343              		.thumb
 344              		.thumb_func
 346              	HAL_LTDC_DeInit:
 347              	.LFB142:
 315:Drivers/STM32F7xx_HAL_Driver/Src/stm32f7xx_hal_ltdc.c **** 
 316:Drivers/STM32F7xx_HAL_Driver/Src/stm32f7xx_hal_ltdc.c **** /**
 317:Drivers/STM32F7xx_HAL_Driver/Src/stm32f7xx_hal_ltdc.c ****   * @brief  De-initialize the LTDC peripheral.
 318:Drivers/STM32F7xx_HAL_Driver/Src/stm32f7xx_hal_ltdc.c ****   * @param  hltdc  pointer to a LTDC_HandleTypeDef structure that contains
 319:Drivers/STM32F7xx_HAL_Driver/Src/stm32f7xx_hal_ltdc.c ****   *                the configuration information for the LTDC.
 320:Drivers/STM32F7xx_HAL_Driver/Src/stm32f7xx_hal_ltdc.c ****   * @retval None
 321:Drivers/STM32F7xx_HAL_Driver/Src/stm32f7xx_hal_ltdc.c ****   */
 322:Drivers/STM32F7xx_HAL_Driver/Src/stm32f7xx_hal_ltdc.c **** 
 323:Drivers/STM32F7xx_HAL_Driver/Src/stm32f7xx_hal_ltdc.c **** HAL_StatusTypeDef HAL_LTDC_DeInit(LTDC_HandleTypeDef *hltdc)
 324:Drivers/STM32F7xx_HAL_Driver/Src/stm32f7xx_hal_ltdc.c **** {
 348              		.loc 1 324 1
 349              		.cfi_startproc
 350              		@ args = 0, pretend = 0, frame = 16
 351              		@ frame_needed = 1, uses_anonymous_args = 0
 352 0000 80B5     		push	{r7, lr}
 353              	.LCFI5:
 354              		.cfi_def_cfa_offset 8
 355              		.cfi_offset 7, -8
 356              		.cfi_offset 14, -4
 357 0002 84B0     		sub	sp, sp, #16
 358              	.LCFI6:
 359              		.cfi_def_cfa_offset 24
 360 0004 00AF     		add	r7, sp, #0
ARM GAS  C:\Users\jisu8\AppData\Local\Temp\cchBTxuu.s 			page 13


 361              	.LCFI7:
 362              		.cfi_def_cfa_register 7
 363 0006 7860     		str	r0, [r7, #4]
 325:Drivers/STM32F7xx_HAL_Driver/Src/stm32f7xx_hal_ltdc.c ****   uint32_t tickstart;
 326:Drivers/STM32F7xx_HAL_Driver/Src/stm32f7xx_hal_ltdc.c **** 
 327:Drivers/STM32F7xx_HAL_Driver/Src/stm32f7xx_hal_ltdc.c ****   /* Check the LTDC peripheral state */
 328:Drivers/STM32F7xx_HAL_Driver/Src/stm32f7xx_hal_ltdc.c ****   if (hltdc == NULL)
 364              		.loc 1 328 6
 365 0008 7B68     		ldr	r3, [r7, #4]
 366 000a 002B     		cmp	r3, #0
 367 000c 01D1     		bne	.L8
 329:Drivers/STM32F7xx_HAL_Driver/Src/stm32f7xx_hal_ltdc.c ****   {
 330:Drivers/STM32F7xx_HAL_Driver/Src/stm32f7xx_hal_ltdc.c ****     return HAL_ERROR;
 368              		.loc 1 330 12
 369 000e 0123     		movs	r3, #1
 370 0010 49E0     		b	.L9
 371              	.L8:
 331:Drivers/STM32F7xx_HAL_Driver/Src/stm32f7xx_hal_ltdc.c ****   }
 332:Drivers/STM32F7xx_HAL_Driver/Src/stm32f7xx_hal_ltdc.c **** 
 333:Drivers/STM32F7xx_HAL_Driver/Src/stm32f7xx_hal_ltdc.c ****   /* Check function parameters */
 334:Drivers/STM32F7xx_HAL_Driver/Src/stm32f7xx_hal_ltdc.c ****   assert_param(IS_LTDC_ALL_INSTANCE(hltdc->Instance));
 335:Drivers/STM32F7xx_HAL_Driver/Src/stm32f7xx_hal_ltdc.c **** 
 336:Drivers/STM32F7xx_HAL_Driver/Src/stm32f7xx_hal_ltdc.c ****   /* Disable LTDC Layer 1 */
 337:Drivers/STM32F7xx_HAL_Driver/Src/stm32f7xx_hal_ltdc.c ****   __HAL_LTDC_LAYER_DISABLE(hltdc, LTDC_LAYER_1);
 372              		.loc 1 337 3
 373 0012 7B68     		ldr	r3, [r7, #4]
 374 0014 1B68     		ldr	r3, [r3]
 375 0016 8433     		adds	r3, r3, #132
 376 0018 1B68     		ldr	r3, [r3]
 377 001a 7A68     		ldr	r2, [r7, #4]
 378 001c 1268     		ldr	r2, [r2]
 379 001e 8432     		adds	r2, r2, #132
 380 0020 23F00103 		bic	r3, r3, #1
 381 0024 1360     		str	r3, [r2]
 338:Drivers/STM32F7xx_HAL_Driver/Src/stm32f7xx_hal_ltdc.c **** 
 339:Drivers/STM32F7xx_HAL_Driver/Src/stm32f7xx_hal_ltdc.c **** #if defined(LTDC_Layer2_BASE)
 340:Drivers/STM32F7xx_HAL_Driver/Src/stm32f7xx_hal_ltdc.c ****   /* Disable LTDC Layer 2 */
 341:Drivers/STM32F7xx_HAL_Driver/Src/stm32f7xx_hal_ltdc.c ****   __HAL_LTDC_LAYER_DISABLE(hltdc, LTDC_LAYER_2);
 382              		.loc 1 341 3
 383 0026 7B68     		ldr	r3, [r7, #4]
 384 0028 1B68     		ldr	r3, [r3]
 385 002a 03F58273 		add	r3, r3, #260
 386 002e 1B68     		ldr	r3, [r3]
 387 0030 7A68     		ldr	r2, [r7, #4]
 388 0032 1268     		ldr	r2, [r2]
 389 0034 02F58272 		add	r2, r2, #260
 390 0038 23F00103 		bic	r3, r3, #1
 391 003c 1360     		str	r3, [r2]
 342:Drivers/STM32F7xx_HAL_Driver/Src/stm32f7xx_hal_ltdc.c **** #endif /* LTDC_Layer2_BASE */
 343:Drivers/STM32F7xx_HAL_Driver/Src/stm32f7xx_hal_ltdc.c **** 
 344:Drivers/STM32F7xx_HAL_Driver/Src/stm32f7xx_hal_ltdc.c ****   /* Reload during vertical blanking period */
 345:Drivers/STM32F7xx_HAL_Driver/Src/stm32f7xx_hal_ltdc.c ****   __HAL_LTDC_VERTICAL_BLANKING_RELOAD_CONFIG(hltdc);
 392              		.loc 1 345 3
 393 003e 7B68     		ldr	r3, [r7, #4]
 394 0040 1B68     		ldr	r3, [r3]
 395 0042 5A6A     		ldr	r2, [r3, #36]
 396 0044 7B68     		ldr	r3, [r7, #4]
ARM GAS  C:\Users\jisu8\AppData\Local\Temp\cchBTxuu.s 			page 14


 397 0046 1B68     		ldr	r3, [r3]
 398 0048 42F00202 		orr	r2, r2, #2
 399 004c 5A62     		str	r2, [r3, #36]
 346:Drivers/STM32F7xx_HAL_Driver/Src/stm32f7xx_hal_ltdc.c **** 
 347:Drivers/STM32F7xx_HAL_Driver/Src/stm32f7xx_hal_ltdc.c ****   /* Get tick */
 348:Drivers/STM32F7xx_HAL_Driver/Src/stm32f7xx_hal_ltdc.c ****   tickstart = HAL_GetTick();
 400              		.loc 1 348 15
 401 004e FFF7FEFF 		bl	HAL_GetTick
 402 0052 F860     		str	r0, [r7, #12]
 349:Drivers/STM32F7xx_HAL_Driver/Src/stm32f7xx_hal_ltdc.c **** 
 350:Drivers/STM32F7xx_HAL_Driver/Src/stm32f7xx_hal_ltdc.c ****   /* Wait for VSYNC Interrupt */
 351:Drivers/STM32F7xx_HAL_Driver/Src/stm32f7xx_hal_ltdc.c ****   while (READ_BIT(hltdc->Instance->CDSR, LTDC_CDSR_VSYNCS) == 0U)
 403              		.loc 1 351 9
 404 0054 06E0     		b	.L10
 405              	.L12:
 352:Drivers/STM32F7xx_HAL_Driver/Src/stm32f7xx_hal_ltdc.c ****   {
 353:Drivers/STM32F7xx_HAL_Driver/Src/stm32f7xx_hal_ltdc.c ****     /* Check for the Timeout */
 354:Drivers/STM32F7xx_HAL_Driver/Src/stm32f7xx_hal_ltdc.c ****     if ((HAL_GetTick() - tickstart) > LTDC_TIMEOUT_VALUE)
 406              		.loc 1 354 10
 407 0056 FFF7FEFF 		bl	HAL_GetTick
 408 005a 0246     		mov	r2, r0
 409              		.loc 1 354 24
 410 005c FB68     		ldr	r3, [r7, #12]
 411 005e D31A     		subs	r3, r2, r3
 412              		.loc 1 354 8
 413 0060 642B     		cmp	r3, #100
 414 0062 07D8     		bhi	.L13
 415              	.L10:
 351:Drivers/STM32F7xx_HAL_Driver/Src/stm32f7xx_hal_ltdc.c ****   {
 416              		.loc 1 351 10
 417 0064 7B68     		ldr	r3, [r7, #4]
 418 0066 1B68     		ldr	r3, [r3]
 419 0068 9B6C     		ldr	r3, [r3, #72]
 420 006a 03F00403 		and	r3, r3, #4
 351:Drivers/STM32F7xx_HAL_Driver/Src/stm32f7xx_hal_ltdc.c ****   {
 421              		.loc 1 351 9
 422 006e 002B     		cmp	r3, #0
 423 0070 F1D0     		beq	.L12
 424 0072 00E0     		b	.L11
 425              	.L13:
 355:Drivers/STM32F7xx_HAL_Driver/Src/stm32f7xx_hal_ltdc.c ****     {
 356:Drivers/STM32F7xx_HAL_Driver/Src/stm32f7xx_hal_ltdc.c ****       break;
 426              		.loc 1 356 7
 427 0074 00BF     		nop
 428              	.L11:
 357:Drivers/STM32F7xx_HAL_Driver/Src/stm32f7xx_hal_ltdc.c ****     }
 358:Drivers/STM32F7xx_HAL_Driver/Src/stm32f7xx_hal_ltdc.c ****   }
 359:Drivers/STM32F7xx_HAL_Driver/Src/stm32f7xx_hal_ltdc.c **** 
 360:Drivers/STM32F7xx_HAL_Driver/Src/stm32f7xx_hal_ltdc.c ****   /* Disable LTDC  */
 361:Drivers/STM32F7xx_HAL_Driver/Src/stm32f7xx_hal_ltdc.c ****   __HAL_LTDC_DISABLE(hltdc);
 429              		.loc 1 361 3
 430 0076 7B68     		ldr	r3, [r7, #4]
 431 0078 1B68     		ldr	r3, [r3]
 432 007a 9A69     		ldr	r2, [r3, #24]
 433 007c 7B68     		ldr	r3, [r7, #4]
 434 007e 1B68     		ldr	r3, [r3]
 435 0080 22F00102 		bic	r2, r2, #1
ARM GAS  C:\Users\jisu8\AppData\Local\Temp\cchBTxuu.s 			page 15


 436 0084 9A61     		str	r2, [r3, #24]
 362:Drivers/STM32F7xx_HAL_Driver/Src/stm32f7xx_hal_ltdc.c **** 
 363:Drivers/STM32F7xx_HAL_Driver/Src/stm32f7xx_hal_ltdc.c **** #if (USE_HAL_LTDC_REGISTER_CALLBACKS == 1)
 364:Drivers/STM32F7xx_HAL_Driver/Src/stm32f7xx_hal_ltdc.c ****   if (hltdc->MspDeInitCallback == NULL)
 365:Drivers/STM32F7xx_HAL_Driver/Src/stm32f7xx_hal_ltdc.c ****   {
 366:Drivers/STM32F7xx_HAL_Driver/Src/stm32f7xx_hal_ltdc.c ****     hltdc->MspDeInitCallback = HAL_LTDC_MspDeInit;
 367:Drivers/STM32F7xx_HAL_Driver/Src/stm32f7xx_hal_ltdc.c ****   }
 368:Drivers/STM32F7xx_HAL_Driver/Src/stm32f7xx_hal_ltdc.c ****   /* DeInit the low level hardware */
 369:Drivers/STM32F7xx_HAL_Driver/Src/stm32f7xx_hal_ltdc.c ****   hltdc->MspDeInitCallback(hltdc);
 370:Drivers/STM32F7xx_HAL_Driver/Src/stm32f7xx_hal_ltdc.c **** #else
 371:Drivers/STM32F7xx_HAL_Driver/Src/stm32f7xx_hal_ltdc.c ****   /* DeInit the low level hardware */
 372:Drivers/STM32F7xx_HAL_Driver/Src/stm32f7xx_hal_ltdc.c ****   HAL_LTDC_MspDeInit(hltdc);
 437              		.loc 1 372 3
 438 0086 7868     		ldr	r0, [r7, #4]
 439 0088 FFF7FEFF 		bl	HAL_LTDC_MspDeInit
 373:Drivers/STM32F7xx_HAL_Driver/Src/stm32f7xx_hal_ltdc.c **** #endif /* USE_HAL_LTDC_REGISTER_CALLBACKS */
 374:Drivers/STM32F7xx_HAL_Driver/Src/stm32f7xx_hal_ltdc.c **** 
 375:Drivers/STM32F7xx_HAL_Driver/Src/stm32f7xx_hal_ltdc.c ****   /* Initialize the error code */
 376:Drivers/STM32F7xx_HAL_Driver/Src/stm32f7xx_hal_ltdc.c ****   hltdc->ErrorCode = HAL_LTDC_ERROR_NONE;
 440              		.loc 1 376 20
 441 008c 7B68     		ldr	r3, [r7, #4]
 442 008e 0022     		movs	r2, #0
 443 0090 C3F8A420 		str	r2, [r3, #164]
 377:Drivers/STM32F7xx_HAL_Driver/Src/stm32f7xx_hal_ltdc.c **** 
 378:Drivers/STM32F7xx_HAL_Driver/Src/stm32f7xx_hal_ltdc.c ****   /* Initialize the LTDC state*/
 379:Drivers/STM32F7xx_HAL_Driver/Src/stm32f7xx_hal_ltdc.c ****   hltdc->State = HAL_LTDC_STATE_RESET;
 444              		.loc 1 379 16
 445 0094 7B68     		ldr	r3, [r7, #4]
 446 0096 0022     		movs	r2, #0
 447 0098 83F8A120 		strb	r2, [r3, #161]
 380:Drivers/STM32F7xx_HAL_Driver/Src/stm32f7xx_hal_ltdc.c **** 
 381:Drivers/STM32F7xx_HAL_Driver/Src/stm32f7xx_hal_ltdc.c ****   /* Release Lock */
 382:Drivers/STM32F7xx_HAL_Driver/Src/stm32f7xx_hal_ltdc.c ****   __HAL_UNLOCK(hltdc);
 448              		.loc 1 382 3
 449 009c 7B68     		ldr	r3, [r7, #4]
 450 009e 0022     		movs	r2, #0
 451 00a0 83F8A020 		strb	r2, [r3, #160]
 383:Drivers/STM32F7xx_HAL_Driver/Src/stm32f7xx_hal_ltdc.c **** 
 384:Drivers/STM32F7xx_HAL_Driver/Src/stm32f7xx_hal_ltdc.c ****   return HAL_OK;
 452              		.loc 1 384 10
 453 00a4 0023     		movs	r3, #0
 454              	.L9:
 385:Drivers/STM32F7xx_HAL_Driver/Src/stm32f7xx_hal_ltdc.c **** }
 455              		.loc 1 385 1
 456 00a6 1846     		mov	r0, r3
 457 00a8 1037     		adds	r7, r7, #16
 458              	.LCFI8:
 459              		.cfi_def_cfa_offset 8
 460 00aa BD46     		mov	sp, r7
 461              	.LCFI9:
 462              		.cfi_def_cfa_register 13
 463              		@ sp needed
 464 00ac 80BD     		pop	{r7, pc}
 465              		.cfi_endproc
 466              	.LFE142:
 468              		.section	.text.HAL_LTDC_MspInit,"ax",%progbits
 469              		.align	1
ARM GAS  C:\Users\jisu8\AppData\Local\Temp\cchBTxuu.s 			page 16


 470              		.weak	HAL_LTDC_MspInit
 471              		.syntax unified
 472              		.thumb
 473              		.thumb_func
 475              	HAL_LTDC_MspInit:
 476              	.LFB143:
 386:Drivers/STM32F7xx_HAL_Driver/Src/stm32f7xx_hal_ltdc.c **** 
 387:Drivers/STM32F7xx_HAL_Driver/Src/stm32f7xx_hal_ltdc.c **** /**
 388:Drivers/STM32F7xx_HAL_Driver/Src/stm32f7xx_hal_ltdc.c ****   * @brief  Initialize the LTDC MSP.
 389:Drivers/STM32F7xx_HAL_Driver/Src/stm32f7xx_hal_ltdc.c ****   * @param  hltdc  pointer to a LTDC_HandleTypeDef structure that contains
 390:Drivers/STM32F7xx_HAL_Driver/Src/stm32f7xx_hal_ltdc.c ****   *                the configuration information for the LTDC.
 391:Drivers/STM32F7xx_HAL_Driver/Src/stm32f7xx_hal_ltdc.c ****   * @retval None
 392:Drivers/STM32F7xx_HAL_Driver/Src/stm32f7xx_hal_ltdc.c ****   */
 393:Drivers/STM32F7xx_HAL_Driver/Src/stm32f7xx_hal_ltdc.c **** __weak void HAL_LTDC_MspInit(LTDC_HandleTypeDef *hltdc)
 394:Drivers/STM32F7xx_HAL_Driver/Src/stm32f7xx_hal_ltdc.c **** {
 477              		.loc 1 394 1
 478              		.cfi_startproc
 479              		@ args = 0, pretend = 0, frame = 8
 480              		@ frame_needed = 1, uses_anonymous_args = 0
 481              		@ link register save eliminated.
 482 0000 80B4     		push	{r7}
 483              	.LCFI10:
 484              		.cfi_def_cfa_offset 4
 485              		.cfi_offset 7, -4
 486 0002 83B0     		sub	sp, sp, #12
 487              	.LCFI11:
 488              		.cfi_def_cfa_offset 16
 489 0004 00AF     		add	r7, sp, #0
 490              	.LCFI12:
 491              		.cfi_def_cfa_register 7
 492 0006 7860     		str	r0, [r7, #4]
 395:Drivers/STM32F7xx_HAL_Driver/Src/stm32f7xx_hal_ltdc.c ****   /* Prevent unused argument(s) compilation warning */
 396:Drivers/STM32F7xx_HAL_Driver/Src/stm32f7xx_hal_ltdc.c ****   UNUSED(hltdc);
 397:Drivers/STM32F7xx_HAL_Driver/Src/stm32f7xx_hal_ltdc.c **** 
 398:Drivers/STM32F7xx_HAL_Driver/Src/stm32f7xx_hal_ltdc.c ****   /* NOTE : This function should not be modified, when the callback is needed,
 399:Drivers/STM32F7xx_HAL_Driver/Src/stm32f7xx_hal_ltdc.c ****             the HAL_LTDC_MspInit could be implemented in the user file
 400:Drivers/STM32F7xx_HAL_Driver/Src/stm32f7xx_hal_ltdc.c ****    */
 401:Drivers/STM32F7xx_HAL_Driver/Src/stm32f7xx_hal_ltdc.c **** }
 493              		.loc 1 401 1
 494 0008 00BF     		nop
 495 000a 0C37     		adds	r7, r7, #12
 496              	.LCFI13:
 497              		.cfi_def_cfa_offset 4
 498 000c BD46     		mov	sp, r7
 499              	.LCFI14:
 500              		.cfi_def_cfa_register 13
 501              		@ sp needed
 502 000e 5DF8047B 		ldr	r7, [sp], #4
 503              	.LCFI15:
 504              		.cfi_restore 7
 505              		.cfi_def_cfa_offset 0
 506 0012 7047     		bx	lr
 507              		.cfi_endproc
 508              	.LFE143:
 510              		.section	.text.HAL_LTDC_MspDeInit,"ax",%progbits
 511              		.align	1
 512              		.weak	HAL_LTDC_MspDeInit
ARM GAS  C:\Users\jisu8\AppData\Local\Temp\cchBTxuu.s 			page 17


 513              		.syntax unified
 514              		.thumb
 515              		.thumb_func
 517              	HAL_LTDC_MspDeInit:
 518              	.LFB144:
 402:Drivers/STM32F7xx_HAL_Driver/Src/stm32f7xx_hal_ltdc.c **** 
 403:Drivers/STM32F7xx_HAL_Driver/Src/stm32f7xx_hal_ltdc.c **** /**
 404:Drivers/STM32F7xx_HAL_Driver/Src/stm32f7xx_hal_ltdc.c ****   * @brief  De-initialize the LTDC MSP.
 405:Drivers/STM32F7xx_HAL_Driver/Src/stm32f7xx_hal_ltdc.c ****   * @param  hltdc  pointer to a LTDC_HandleTypeDef structure that contains
 406:Drivers/STM32F7xx_HAL_Driver/Src/stm32f7xx_hal_ltdc.c ****   *                the configuration information for the LTDC.
 407:Drivers/STM32F7xx_HAL_Driver/Src/stm32f7xx_hal_ltdc.c ****   * @retval None
 408:Drivers/STM32F7xx_HAL_Driver/Src/stm32f7xx_hal_ltdc.c ****   */
 409:Drivers/STM32F7xx_HAL_Driver/Src/stm32f7xx_hal_ltdc.c **** __weak void HAL_LTDC_MspDeInit(LTDC_HandleTypeDef *hltdc)
 410:Drivers/STM32F7xx_HAL_Driver/Src/stm32f7xx_hal_ltdc.c **** {
 519              		.loc 1 410 1
 520              		.cfi_startproc
 521              		@ args = 0, pretend = 0, frame = 8
 522              		@ frame_needed = 1, uses_anonymous_args = 0
 523              		@ link register save eliminated.
 524 0000 80B4     		push	{r7}
 525              	.LCFI16:
 526              		.cfi_def_cfa_offset 4
 527              		.cfi_offset 7, -4
 528 0002 83B0     		sub	sp, sp, #12
 529              	.LCFI17:
 530              		.cfi_def_cfa_offset 16
 531 0004 00AF     		add	r7, sp, #0
 532              	.LCFI18:
 533              		.cfi_def_cfa_register 7
 534 0006 7860     		str	r0, [r7, #4]
 411:Drivers/STM32F7xx_HAL_Driver/Src/stm32f7xx_hal_ltdc.c ****   /* Prevent unused argument(s) compilation warning */
 412:Drivers/STM32F7xx_HAL_Driver/Src/stm32f7xx_hal_ltdc.c ****   UNUSED(hltdc);
 413:Drivers/STM32F7xx_HAL_Driver/Src/stm32f7xx_hal_ltdc.c **** 
 414:Drivers/STM32F7xx_HAL_Driver/Src/stm32f7xx_hal_ltdc.c ****   /* NOTE : This function should not be modified, when the callback is needed,
 415:Drivers/STM32F7xx_HAL_Driver/Src/stm32f7xx_hal_ltdc.c ****             the HAL_LTDC_MspDeInit could be implemented in the user file
 416:Drivers/STM32F7xx_HAL_Driver/Src/stm32f7xx_hal_ltdc.c ****    */
 417:Drivers/STM32F7xx_HAL_Driver/Src/stm32f7xx_hal_ltdc.c **** }
 535              		.loc 1 417 1
 536 0008 00BF     		nop
 537 000a 0C37     		adds	r7, r7, #12
 538              	.LCFI19:
 539              		.cfi_def_cfa_offset 4
 540 000c BD46     		mov	sp, r7
 541              	.LCFI20:
 542              		.cfi_def_cfa_register 13
 543              		@ sp needed
 544 000e 5DF8047B 		ldr	r7, [sp], #4
 545              	.LCFI21:
 546              		.cfi_restore 7
 547              		.cfi_def_cfa_offset 0
 548 0012 7047     		bx	lr
 549              		.cfi_endproc
 550              	.LFE144:
 552              		.section	.text.HAL_LTDC_IRQHandler,"ax",%progbits
 553              		.align	1
 554              		.global	HAL_LTDC_IRQHandler
 555              		.syntax unified
ARM GAS  C:\Users\jisu8\AppData\Local\Temp\cchBTxuu.s 			page 18


 556              		.thumb
 557              		.thumb_func
 559              	HAL_LTDC_IRQHandler:
 560              	.LFB145:
 418:Drivers/STM32F7xx_HAL_Driver/Src/stm32f7xx_hal_ltdc.c **** 
 419:Drivers/STM32F7xx_HAL_Driver/Src/stm32f7xx_hal_ltdc.c **** #if (USE_HAL_LTDC_REGISTER_CALLBACKS == 1)
 420:Drivers/STM32F7xx_HAL_Driver/Src/stm32f7xx_hal_ltdc.c **** /**
 421:Drivers/STM32F7xx_HAL_Driver/Src/stm32f7xx_hal_ltdc.c ****   * @brief  Register a User LTDC Callback
 422:Drivers/STM32F7xx_HAL_Driver/Src/stm32f7xx_hal_ltdc.c ****   *         To be used instead of the weak predefined callback
 423:Drivers/STM32F7xx_HAL_Driver/Src/stm32f7xx_hal_ltdc.c ****   * @param hltdc ltdc handle
 424:Drivers/STM32F7xx_HAL_Driver/Src/stm32f7xx_hal_ltdc.c ****   * @param CallbackID ID of the callback to be registered
 425:Drivers/STM32F7xx_HAL_Driver/Src/stm32f7xx_hal_ltdc.c ****   *        This parameter can be one of the following values:
 426:Drivers/STM32F7xx_HAL_Driver/Src/stm32f7xx_hal_ltdc.c ****   *          @arg @ref HAL_LTDC_LINE_EVENT_CB_ID Line Event Callback ID
 427:Drivers/STM32F7xx_HAL_Driver/Src/stm32f7xx_hal_ltdc.c ****   *          @arg @ref HAL_LTDC_RELOAD_EVENT_CB_ID Reload Event Callback ID
 428:Drivers/STM32F7xx_HAL_Driver/Src/stm32f7xx_hal_ltdc.c ****   *          @arg @ref HAL_LTDC_ERROR_CB_ID Error Callback ID
 429:Drivers/STM32F7xx_HAL_Driver/Src/stm32f7xx_hal_ltdc.c ****   *          @arg @ref HAL_LTDC_MSPINIT_CB_ID MspInit callback ID
 430:Drivers/STM32F7xx_HAL_Driver/Src/stm32f7xx_hal_ltdc.c ****   *          @arg @ref HAL_LTDC_MSPDEINIT_CB_ID MspDeInit callback ID
 431:Drivers/STM32F7xx_HAL_Driver/Src/stm32f7xx_hal_ltdc.c ****   * @param pCallback pointer to the Callback function
 432:Drivers/STM32F7xx_HAL_Driver/Src/stm32f7xx_hal_ltdc.c ****   * @retval status
 433:Drivers/STM32F7xx_HAL_Driver/Src/stm32f7xx_hal_ltdc.c ****   */
 434:Drivers/STM32F7xx_HAL_Driver/Src/stm32f7xx_hal_ltdc.c **** HAL_StatusTypeDef HAL_LTDC_RegisterCallback(LTDC_HandleTypeDef *hltdc, HAL_LTDC_CallbackIDTypeDef C
 435:Drivers/STM32F7xx_HAL_Driver/Src/stm32f7xx_hal_ltdc.c ****                                             pLTDC_CallbackTypeDef pCallback)
 436:Drivers/STM32F7xx_HAL_Driver/Src/stm32f7xx_hal_ltdc.c **** {
 437:Drivers/STM32F7xx_HAL_Driver/Src/stm32f7xx_hal_ltdc.c ****   HAL_StatusTypeDef status = HAL_OK;
 438:Drivers/STM32F7xx_HAL_Driver/Src/stm32f7xx_hal_ltdc.c **** 
 439:Drivers/STM32F7xx_HAL_Driver/Src/stm32f7xx_hal_ltdc.c ****   if (pCallback == NULL)
 440:Drivers/STM32F7xx_HAL_Driver/Src/stm32f7xx_hal_ltdc.c ****   {
 441:Drivers/STM32F7xx_HAL_Driver/Src/stm32f7xx_hal_ltdc.c ****     /* Update the error code */
 442:Drivers/STM32F7xx_HAL_Driver/Src/stm32f7xx_hal_ltdc.c ****     hltdc->ErrorCode |= HAL_LTDC_ERROR_INVALID_CALLBACK;
 443:Drivers/STM32F7xx_HAL_Driver/Src/stm32f7xx_hal_ltdc.c **** 
 444:Drivers/STM32F7xx_HAL_Driver/Src/stm32f7xx_hal_ltdc.c ****     return HAL_ERROR;
 445:Drivers/STM32F7xx_HAL_Driver/Src/stm32f7xx_hal_ltdc.c ****   }
 446:Drivers/STM32F7xx_HAL_Driver/Src/stm32f7xx_hal_ltdc.c ****   /* Process locked */
 447:Drivers/STM32F7xx_HAL_Driver/Src/stm32f7xx_hal_ltdc.c ****   __HAL_LOCK(hltdc);
 448:Drivers/STM32F7xx_HAL_Driver/Src/stm32f7xx_hal_ltdc.c **** 
 449:Drivers/STM32F7xx_HAL_Driver/Src/stm32f7xx_hal_ltdc.c ****   if (hltdc->State == HAL_LTDC_STATE_READY)
 450:Drivers/STM32F7xx_HAL_Driver/Src/stm32f7xx_hal_ltdc.c ****   {
 451:Drivers/STM32F7xx_HAL_Driver/Src/stm32f7xx_hal_ltdc.c ****     switch (CallbackID)
 452:Drivers/STM32F7xx_HAL_Driver/Src/stm32f7xx_hal_ltdc.c ****     {
 453:Drivers/STM32F7xx_HAL_Driver/Src/stm32f7xx_hal_ltdc.c ****       case HAL_LTDC_LINE_EVENT_CB_ID :
 454:Drivers/STM32F7xx_HAL_Driver/Src/stm32f7xx_hal_ltdc.c ****         hltdc->LineEventCallback = pCallback;
 455:Drivers/STM32F7xx_HAL_Driver/Src/stm32f7xx_hal_ltdc.c ****         break;
 456:Drivers/STM32F7xx_HAL_Driver/Src/stm32f7xx_hal_ltdc.c **** 
 457:Drivers/STM32F7xx_HAL_Driver/Src/stm32f7xx_hal_ltdc.c ****       case HAL_LTDC_RELOAD_EVENT_CB_ID :
 458:Drivers/STM32F7xx_HAL_Driver/Src/stm32f7xx_hal_ltdc.c ****         hltdc->ReloadEventCallback = pCallback;
 459:Drivers/STM32F7xx_HAL_Driver/Src/stm32f7xx_hal_ltdc.c ****         break;
 460:Drivers/STM32F7xx_HAL_Driver/Src/stm32f7xx_hal_ltdc.c **** 
 461:Drivers/STM32F7xx_HAL_Driver/Src/stm32f7xx_hal_ltdc.c ****       case HAL_LTDC_ERROR_CB_ID :
 462:Drivers/STM32F7xx_HAL_Driver/Src/stm32f7xx_hal_ltdc.c ****         hltdc->ErrorCallback = pCallback;
 463:Drivers/STM32F7xx_HAL_Driver/Src/stm32f7xx_hal_ltdc.c ****         break;
 464:Drivers/STM32F7xx_HAL_Driver/Src/stm32f7xx_hal_ltdc.c **** 
 465:Drivers/STM32F7xx_HAL_Driver/Src/stm32f7xx_hal_ltdc.c ****       case HAL_LTDC_MSPINIT_CB_ID :
 466:Drivers/STM32F7xx_HAL_Driver/Src/stm32f7xx_hal_ltdc.c ****         hltdc->MspInitCallback = pCallback;
 467:Drivers/STM32F7xx_HAL_Driver/Src/stm32f7xx_hal_ltdc.c ****         break;
 468:Drivers/STM32F7xx_HAL_Driver/Src/stm32f7xx_hal_ltdc.c **** 
 469:Drivers/STM32F7xx_HAL_Driver/Src/stm32f7xx_hal_ltdc.c ****       case HAL_LTDC_MSPDEINIT_CB_ID :
 470:Drivers/STM32F7xx_HAL_Driver/Src/stm32f7xx_hal_ltdc.c ****         hltdc->MspDeInitCallback = pCallback;
ARM GAS  C:\Users\jisu8\AppData\Local\Temp\cchBTxuu.s 			page 19


 471:Drivers/STM32F7xx_HAL_Driver/Src/stm32f7xx_hal_ltdc.c ****         break;
 472:Drivers/STM32F7xx_HAL_Driver/Src/stm32f7xx_hal_ltdc.c **** 
 473:Drivers/STM32F7xx_HAL_Driver/Src/stm32f7xx_hal_ltdc.c ****       default :
 474:Drivers/STM32F7xx_HAL_Driver/Src/stm32f7xx_hal_ltdc.c ****         /* Update the error code */
 475:Drivers/STM32F7xx_HAL_Driver/Src/stm32f7xx_hal_ltdc.c ****         hltdc->ErrorCode |= HAL_LTDC_ERROR_INVALID_CALLBACK;
 476:Drivers/STM32F7xx_HAL_Driver/Src/stm32f7xx_hal_ltdc.c ****         /* Return error status */
 477:Drivers/STM32F7xx_HAL_Driver/Src/stm32f7xx_hal_ltdc.c ****         status =  HAL_ERROR;
 478:Drivers/STM32F7xx_HAL_Driver/Src/stm32f7xx_hal_ltdc.c ****         break;
 479:Drivers/STM32F7xx_HAL_Driver/Src/stm32f7xx_hal_ltdc.c ****     }
 480:Drivers/STM32F7xx_HAL_Driver/Src/stm32f7xx_hal_ltdc.c ****   }
 481:Drivers/STM32F7xx_HAL_Driver/Src/stm32f7xx_hal_ltdc.c ****   else if (hltdc->State == HAL_LTDC_STATE_RESET)
 482:Drivers/STM32F7xx_HAL_Driver/Src/stm32f7xx_hal_ltdc.c ****   {
 483:Drivers/STM32F7xx_HAL_Driver/Src/stm32f7xx_hal_ltdc.c ****     switch (CallbackID)
 484:Drivers/STM32F7xx_HAL_Driver/Src/stm32f7xx_hal_ltdc.c ****     {
 485:Drivers/STM32F7xx_HAL_Driver/Src/stm32f7xx_hal_ltdc.c ****       case HAL_LTDC_MSPINIT_CB_ID :
 486:Drivers/STM32F7xx_HAL_Driver/Src/stm32f7xx_hal_ltdc.c ****         hltdc->MspInitCallback = pCallback;
 487:Drivers/STM32F7xx_HAL_Driver/Src/stm32f7xx_hal_ltdc.c ****         break;
 488:Drivers/STM32F7xx_HAL_Driver/Src/stm32f7xx_hal_ltdc.c **** 
 489:Drivers/STM32F7xx_HAL_Driver/Src/stm32f7xx_hal_ltdc.c ****       case HAL_LTDC_MSPDEINIT_CB_ID :
 490:Drivers/STM32F7xx_HAL_Driver/Src/stm32f7xx_hal_ltdc.c ****         hltdc->MspDeInitCallback = pCallback;
 491:Drivers/STM32F7xx_HAL_Driver/Src/stm32f7xx_hal_ltdc.c ****         break;
 492:Drivers/STM32F7xx_HAL_Driver/Src/stm32f7xx_hal_ltdc.c **** 
 493:Drivers/STM32F7xx_HAL_Driver/Src/stm32f7xx_hal_ltdc.c ****       default :
 494:Drivers/STM32F7xx_HAL_Driver/Src/stm32f7xx_hal_ltdc.c ****         /* Update the error code */
 495:Drivers/STM32F7xx_HAL_Driver/Src/stm32f7xx_hal_ltdc.c ****         hltdc->ErrorCode |= HAL_LTDC_ERROR_INVALID_CALLBACK;
 496:Drivers/STM32F7xx_HAL_Driver/Src/stm32f7xx_hal_ltdc.c ****         /* Return error status */
 497:Drivers/STM32F7xx_HAL_Driver/Src/stm32f7xx_hal_ltdc.c ****         status =  HAL_ERROR;
 498:Drivers/STM32F7xx_HAL_Driver/Src/stm32f7xx_hal_ltdc.c ****         break;
 499:Drivers/STM32F7xx_HAL_Driver/Src/stm32f7xx_hal_ltdc.c ****     }
 500:Drivers/STM32F7xx_HAL_Driver/Src/stm32f7xx_hal_ltdc.c ****   }
 501:Drivers/STM32F7xx_HAL_Driver/Src/stm32f7xx_hal_ltdc.c ****   else
 502:Drivers/STM32F7xx_HAL_Driver/Src/stm32f7xx_hal_ltdc.c ****   {
 503:Drivers/STM32F7xx_HAL_Driver/Src/stm32f7xx_hal_ltdc.c ****     /* Update the error code */
 504:Drivers/STM32F7xx_HAL_Driver/Src/stm32f7xx_hal_ltdc.c ****     hltdc->ErrorCode |= HAL_LTDC_ERROR_INVALID_CALLBACK;
 505:Drivers/STM32F7xx_HAL_Driver/Src/stm32f7xx_hal_ltdc.c ****     /* Return error status */
 506:Drivers/STM32F7xx_HAL_Driver/Src/stm32f7xx_hal_ltdc.c ****     status =  HAL_ERROR;
 507:Drivers/STM32F7xx_HAL_Driver/Src/stm32f7xx_hal_ltdc.c ****   }
 508:Drivers/STM32F7xx_HAL_Driver/Src/stm32f7xx_hal_ltdc.c **** 
 509:Drivers/STM32F7xx_HAL_Driver/Src/stm32f7xx_hal_ltdc.c ****   /* Release Lock */
 510:Drivers/STM32F7xx_HAL_Driver/Src/stm32f7xx_hal_ltdc.c ****   __HAL_UNLOCK(hltdc);
 511:Drivers/STM32F7xx_HAL_Driver/Src/stm32f7xx_hal_ltdc.c **** 
 512:Drivers/STM32F7xx_HAL_Driver/Src/stm32f7xx_hal_ltdc.c ****   return status;
 513:Drivers/STM32F7xx_HAL_Driver/Src/stm32f7xx_hal_ltdc.c **** }
 514:Drivers/STM32F7xx_HAL_Driver/Src/stm32f7xx_hal_ltdc.c **** 
 515:Drivers/STM32F7xx_HAL_Driver/Src/stm32f7xx_hal_ltdc.c **** /**
 516:Drivers/STM32F7xx_HAL_Driver/Src/stm32f7xx_hal_ltdc.c ****   * @brief  Unregister an LTDC Callback
 517:Drivers/STM32F7xx_HAL_Driver/Src/stm32f7xx_hal_ltdc.c ****   *         LTDC callback is redirected to the weak predefined callback
 518:Drivers/STM32F7xx_HAL_Driver/Src/stm32f7xx_hal_ltdc.c ****   * @param hltdc ltdc handle
 519:Drivers/STM32F7xx_HAL_Driver/Src/stm32f7xx_hal_ltdc.c ****   * @param CallbackID ID of the callback to be unregistered
 520:Drivers/STM32F7xx_HAL_Driver/Src/stm32f7xx_hal_ltdc.c ****   *        This parameter can be one of the following values:
 521:Drivers/STM32F7xx_HAL_Driver/Src/stm32f7xx_hal_ltdc.c ****   *          @arg @ref HAL_LTDC_LINE_EVENT_CB_ID Line Event Callback ID
 522:Drivers/STM32F7xx_HAL_Driver/Src/stm32f7xx_hal_ltdc.c ****   *          @arg @ref HAL_LTDC_RELOAD_EVENT_CB_ID Reload Event Callback ID
 523:Drivers/STM32F7xx_HAL_Driver/Src/stm32f7xx_hal_ltdc.c ****   *          @arg @ref HAL_LTDC_ERROR_CB_ID Error Callback ID
 524:Drivers/STM32F7xx_HAL_Driver/Src/stm32f7xx_hal_ltdc.c ****   *          @arg @ref HAL_LTDC_MSPINIT_CB_ID MspInit callback ID
 525:Drivers/STM32F7xx_HAL_Driver/Src/stm32f7xx_hal_ltdc.c ****   *          @arg @ref HAL_LTDC_MSPDEINIT_CB_ID MspDeInit callback ID
 526:Drivers/STM32F7xx_HAL_Driver/Src/stm32f7xx_hal_ltdc.c ****   * @retval status
 527:Drivers/STM32F7xx_HAL_Driver/Src/stm32f7xx_hal_ltdc.c ****   */
ARM GAS  C:\Users\jisu8\AppData\Local\Temp\cchBTxuu.s 			page 20


 528:Drivers/STM32F7xx_HAL_Driver/Src/stm32f7xx_hal_ltdc.c **** HAL_StatusTypeDef HAL_LTDC_UnRegisterCallback(LTDC_HandleTypeDef *hltdc, HAL_LTDC_CallbackIDTypeDef
 529:Drivers/STM32F7xx_HAL_Driver/Src/stm32f7xx_hal_ltdc.c **** {
 530:Drivers/STM32F7xx_HAL_Driver/Src/stm32f7xx_hal_ltdc.c ****   HAL_StatusTypeDef status = HAL_OK;
 531:Drivers/STM32F7xx_HAL_Driver/Src/stm32f7xx_hal_ltdc.c **** 
 532:Drivers/STM32F7xx_HAL_Driver/Src/stm32f7xx_hal_ltdc.c ****   /* Process locked */
 533:Drivers/STM32F7xx_HAL_Driver/Src/stm32f7xx_hal_ltdc.c ****   __HAL_LOCK(hltdc);
 534:Drivers/STM32F7xx_HAL_Driver/Src/stm32f7xx_hal_ltdc.c **** 
 535:Drivers/STM32F7xx_HAL_Driver/Src/stm32f7xx_hal_ltdc.c ****   if (hltdc->State == HAL_LTDC_STATE_READY)
 536:Drivers/STM32F7xx_HAL_Driver/Src/stm32f7xx_hal_ltdc.c ****   {
 537:Drivers/STM32F7xx_HAL_Driver/Src/stm32f7xx_hal_ltdc.c ****     switch (CallbackID)
 538:Drivers/STM32F7xx_HAL_Driver/Src/stm32f7xx_hal_ltdc.c ****     {
 539:Drivers/STM32F7xx_HAL_Driver/Src/stm32f7xx_hal_ltdc.c ****       case HAL_LTDC_LINE_EVENT_CB_ID :
 540:Drivers/STM32F7xx_HAL_Driver/Src/stm32f7xx_hal_ltdc.c ****         hltdc->LineEventCallback = HAL_LTDC_LineEventCallback;      /* Legacy weak LineEventCallbac
 541:Drivers/STM32F7xx_HAL_Driver/Src/stm32f7xx_hal_ltdc.c ****         break;
 542:Drivers/STM32F7xx_HAL_Driver/Src/stm32f7xx_hal_ltdc.c **** 
 543:Drivers/STM32F7xx_HAL_Driver/Src/stm32f7xx_hal_ltdc.c ****       case HAL_LTDC_RELOAD_EVENT_CB_ID :
 544:Drivers/STM32F7xx_HAL_Driver/Src/stm32f7xx_hal_ltdc.c ****         hltdc->ReloadEventCallback = HAL_LTDC_ReloadEventCallback;  /* Legacy weak ReloadEventCallb
 545:Drivers/STM32F7xx_HAL_Driver/Src/stm32f7xx_hal_ltdc.c ****         break;
 546:Drivers/STM32F7xx_HAL_Driver/Src/stm32f7xx_hal_ltdc.c **** 
 547:Drivers/STM32F7xx_HAL_Driver/Src/stm32f7xx_hal_ltdc.c ****       case HAL_LTDC_ERROR_CB_ID :
 548:Drivers/STM32F7xx_HAL_Driver/Src/stm32f7xx_hal_ltdc.c ****         hltdc->ErrorCallback       = HAL_LTDC_ErrorCallback;        /* Legacy weak ErrorCallback   
 549:Drivers/STM32F7xx_HAL_Driver/Src/stm32f7xx_hal_ltdc.c ****         break;
 550:Drivers/STM32F7xx_HAL_Driver/Src/stm32f7xx_hal_ltdc.c **** 
 551:Drivers/STM32F7xx_HAL_Driver/Src/stm32f7xx_hal_ltdc.c ****       case HAL_LTDC_MSPINIT_CB_ID :
 552:Drivers/STM32F7xx_HAL_Driver/Src/stm32f7xx_hal_ltdc.c ****         hltdc->MspInitCallback = HAL_LTDC_MspInit;                  /* Legcay weak MspInit Callback
 553:Drivers/STM32F7xx_HAL_Driver/Src/stm32f7xx_hal_ltdc.c ****         break;
 554:Drivers/STM32F7xx_HAL_Driver/Src/stm32f7xx_hal_ltdc.c **** 
 555:Drivers/STM32F7xx_HAL_Driver/Src/stm32f7xx_hal_ltdc.c ****       case HAL_LTDC_MSPDEINIT_CB_ID :
 556:Drivers/STM32F7xx_HAL_Driver/Src/stm32f7xx_hal_ltdc.c ****         hltdc->MspDeInitCallback = HAL_LTDC_MspDeInit;              /* Legcay weak MspDeInit Callba
 557:Drivers/STM32F7xx_HAL_Driver/Src/stm32f7xx_hal_ltdc.c ****         break;
 558:Drivers/STM32F7xx_HAL_Driver/Src/stm32f7xx_hal_ltdc.c **** 
 559:Drivers/STM32F7xx_HAL_Driver/Src/stm32f7xx_hal_ltdc.c ****       default :
 560:Drivers/STM32F7xx_HAL_Driver/Src/stm32f7xx_hal_ltdc.c ****         /* Update the error code */
 561:Drivers/STM32F7xx_HAL_Driver/Src/stm32f7xx_hal_ltdc.c ****         hltdc->ErrorCode |= HAL_LTDC_ERROR_INVALID_CALLBACK;
 562:Drivers/STM32F7xx_HAL_Driver/Src/stm32f7xx_hal_ltdc.c ****         /* Return error status */
 563:Drivers/STM32F7xx_HAL_Driver/Src/stm32f7xx_hal_ltdc.c ****         status =  HAL_ERROR;
 564:Drivers/STM32F7xx_HAL_Driver/Src/stm32f7xx_hal_ltdc.c ****         break;
 565:Drivers/STM32F7xx_HAL_Driver/Src/stm32f7xx_hal_ltdc.c ****     }
 566:Drivers/STM32F7xx_HAL_Driver/Src/stm32f7xx_hal_ltdc.c ****   }
 567:Drivers/STM32F7xx_HAL_Driver/Src/stm32f7xx_hal_ltdc.c ****   else if (hltdc->State == HAL_LTDC_STATE_RESET)
 568:Drivers/STM32F7xx_HAL_Driver/Src/stm32f7xx_hal_ltdc.c ****   {
 569:Drivers/STM32F7xx_HAL_Driver/Src/stm32f7xx_hal_ltdc.c ****     switch (CallbackID)
 570:Drivers/STM32F7xx_HAL_Driver/Src/stm32f7xx_hal_ltdc.c ****     {
 571:Drivers/STM32F7xx_HAL_Driver/Src/stm32f7xx_hal_ltdc.c ****       case HAL_LTDC_MSPINIT_CB_ID :
 572:Drivers/STM32F7xx_HAL_Driver/Src/stm32f7xx_hal_ltdc.c ****         hltdc->MspInitCallback = HAL_LTDC_MspInit;                  /* Legcay weak MspInit Callback
 573:Drivers/STM32F7xx_HAL_Driver/Src/stm32f7xx_hal_ltdc.c ****         break;
 574:Drivers/STM32F7xx_HAL_Driver/Src/stm32f7xx_hal_ltdc.c **** 
 575:Drivers/STM32F7xx_HAL_Driver/Src/stm32f7xx_hal_ltdc.c ****       case HAL_LTDC_MSPDEINIT_CB_ID :
 576:Drivers/STM32F7xx_HAL_Driver/Src/stm32f7xx_hal_ltdc.c ****         hltdc->MspDeInitCallback = HAL_LTDC_MspDeInit;              /* Legcay weak MspDeInit Callba
 577:Drivers/STM32F7xx_HAL_Driver/Src/stm32f7xx_hal_ltdc.c ****         break;
 578:Drivers/STM32F7xx_HAL_Driver/Src/stm32f7xx_hal_ltdc.c **** 
 579:Drivers/STM32F7xx_HAL_Driver/Src/stm32f7xx_hal_ltdc.c ****       default :
 580:Drivers/STM32F7xx_HAL_Driver/Src/stm32f7xx_hal_ltdc.c ****         /* Update the error code */
 581:Drivers/STM32F7xx_HAL_Driver/Src/stm32f7xx_hal_ltdc.c ****         hltdc->ErrorCode |= HAL_LTDC_ERROR_INVALID_CALLBACK;
 582:Drivers/STM32F7xx_HAL_Driver/Src/stm32f7xx_hal_ltdc.c ****         /* Return error status */
 583:Drivers/STM32F7xx_HAL_Driver/Src/stm32f7xx_hal_ltdc.c ****         status =  HAL_ERROR;
 584:Drivers/STM32F7xx_HAL_Driver/Src/stm32f7xx_hal_ltdc.c ****         break;
ARM GAS  C:\Users\jisu8\AppData\Local\Temp\cchBTxuu.s 			page 21


 585:Drivers/STM32F7xx_HAL_Driver/Src/stm32f7xx_hal_ltdc.c ****     }
 586:Drivers/STM32F7xx_HAL_Driver/Src/stm32f7xx_hal_ltdc.c ****   }
 587:Drivers/STM32F7xx_HAL_Driver/Src/stm32f7xx_hal_ltdc.c ****   else
 588:Drivers/STM32F7xx_HAL_Driver/Src/stm32f7xx_hal_ltdc.c ****   {
 589:Drivers/STM32F7xx_HAL_Driver/Src/stm32f7xx_hal_ltdc.c ****     /* Update the error code */
 590:Drivers/STM32F7xx_HAL_Driver/Src/stm32f7xx_hal_ltdc.c ****     hltdc->ErrorCode |= HAL_LTDC_ERROR_INVALID_CALLBACK;
 591:Drivers/STM32F7xx_HAL_Driver/Src/stm32f7xx_hal_ltdc.c ****     /* Return error status */
 592:Drivers/STM32F7xx_HAL_Driver/Src/stm32f7xx_hal_ltdc.c ****     status =  HAL_ERROR;
 593:Drivers/STM32F7xx_HAL_Driver/Src/stm32f7xx_hal_ltdc.c ****   }
 594:Drivers/STM32F7xx_HAL_Driver/Src/stm32f7xx_hal_ltdc.c **** 
 595:Drivers/STM32F7xx_HAL_Driver/Src/stm32f7xx_hal_ltdc.c ****   /* Release Lock */
 596:Drivers/STM32F7xx_HAL_Driver/Src/stm32f7xx_hal_ltdc.c ****   __HAL_UNLOCK(hltdc);
 597:Drivers/STM32F7xx_HAL_Driver/Src/stm32f7xx_hal_ltdc.c **** 
 598:Drivers/STM32F7xx_HAL_Driver/Src/stm32f7xx_hal_ltdc.c ****   return status;
 599:Drivers/STM32F7xx_HAL_Driver/Src/stm32f7xx_hal_ltdc.c **** }
 600:Drivers/STM32F7xx_HAL_Driver/Src/stm32f7xx_hal_ltdc.c **** #endif /* USE_HAL_LTDC_REGISTER_CALLBACKS */
 601:Drivers/STM32F7xx_HAL_Driver/Src/stm32f7xx_hal_ltdc.c **** 
 602:Drivers/STM32F7xx_HAL_Driver/Src/stm32f7xx_hal_ltdc.c **** /**
 603:Drivers/STM32F7xx_HAL_Driver/Src/stm32f7xx_hal_ltdc.c ****   * @}
 604:Drivers/STM32F7xx_HAL_Driver/Src/stm32f7xx_hal_ltdc.c ****   */
 605:Drivers/STM32F7xx_HAL_Driver/Src/stm32f7xx_hal_ltdc.c **** 
 606:Drivers/STM32F7xx_HAL_Driver/Src/stm32f7xx_hal_ltdc.c **** /** @defgroup LTDC_Exported_Functions_Group2 IO operation functions
 607:Drivers/STM32F7xx_HAL_Driver/Src/stm32f7xx_hal_ltdc.c ****   *  @brief   IO operation functions
 608:Drivers/STM32F7xx_HAL_Driver/Src/stm32f7xx_hal_ltdc.c ****   *
 609:Drivers/STM32F7xx_HAL_Driver/Src/stm32f7xx_hal_ltdc.c **** @verbatim
 610:Drivers/STM32F7xx_HAL_Driver/Src/stm32f7xx_hal_ltdc.c ****  ===============================================================================
 611:Drivers/STM32F7xx_HAL_Driver/Src/stm32f7xx_hal_ltdc.c ****                       #####  IO operation functions  #####
 612:Drivers/STM32F7xx_HAL_Driver/Src/stm32f7xx_hal_ltdc.c ****  ===============================================================================
 613:Drivers/STM32F7xx_HAL_Driver/Src/stm32f7xx_hal_ltdc.c ****     [..]  This section provides function allowing to:
 614:Drivers/STM32F7xx_HAL_Driver/Src/stm32f7xx_hal_ltdc.c ****       (+) Handle LTDC interrupt request
 615:Drivers/STM32F7xx_HAL_Driver/Src/stm32f7xx_hal_ltdc.c **** 
 616:Drivers/STM32F7xx_HAL_Driver/Src/stm32f7xx_hal_ltdc.c **** @endverbatim
 617:Drivers/STM32F7xx_HAL_Driver/Src/stm32f7xx_hal_ltdc.c ****   * @{
 618:Drivers/STM32F7xx_HAL_Driver/Src/stm32f7xx_hal_ltdc.c ****   */
 619:Drivers/STM32F7xx_HAL_Driver/Src/stm32f7xx_hal_ltdc.c **** /**
 620:Drivers/STM32F7xx_HAL_Driver/Src/stm32f7xx_hal_ltdc.c ****   * @brief  Handle LTDC interrupt request.
 621:Drivers/STM32F7xx_HAL_Driver/Src/stm32f7xx_hal_ltdc.c ****   * @param  hltdc  pointer to a LTDC_HandleTypeDef structure that contains
 622:Drivers/STM32F7xx_HAL_Driver/Src/stm32f7xx_hal_ltdc.c ****   *                the configuration information for the LTDC.
 623:Drivers/STM32F7xx_HAL_Driver/Src/stm32f7xx_hal_ltdc.c ****   * @retval HAL status
 624:Drivers/STM32F7xx_HAL_Driver/Src/stm32f7xx_hal_ltdc.c ****   */
 625:Drivers/STM32F7xx_HAL_Driver/Src/stm32f7xx_hal_ltdc.c **** void HAL_LTDC_IRQHandler(LTDC_HandleTypeDef *hltdc)
 626:Drivers/STM32F7xx_HAL_Driver/Src/stm32f7xx_hal_ltdc.c **** {
 561              		.loc 1 626 1
 562              		.cfi_startproc
 563              		@ args = 0, pretend = 0, frame = 16
 564              		@ frame_needed = 1, uses_anonymous_args = 0
 565 0000 80B5     		push	{r7, lr}
 566              	.LCFI22:
 567              		.cfi_def_cfa_offset 8
 568              		.cfi_offset 7, -8
 569              		.cfi_offset 14, -4
 570 0002 84B0     		sub	sp, sp, #16
 571              	.LCFI23:
 572              		.cfi_def_cfa_offset 24
 573 0004 00AF     		add	r7, sp, #0
 574              	.LCFI24:
 575              		.cfi_def_cfa_register 7
ARM GAS  C:\Users\jisu8\AppData\Local\Temp\cchBTxuu.s 			page 22


 576 0006 7860     		str	r0, [r7, #4]
 627:Drivers/STM32F7xx_HAL_Driver/Src/stm32f7xx_hal_ltdc.c ****   uint32_t isrflags  = READ_REG(hltdc->Instance->ISR);
 577              		.loc 1 627 24
 578 0008 7B68     		ldr	r3, [r7, #4]
 579 000a 1B68     		ldr	r3, [r3]
 580              		.loc 1 627 12
 581 000c 9B6B     		ldr	r3, [r3, #56]
 582 000e FB60     		str	r3, [r7, #12]
 628:Drivers/STM32F7xx_HAL_Driver/Src/stm32f7xx_hal_ltdc.c ****   uint32_t itsources = READ_REG(hltdc->Instance->IER);
 583              		.loc 1 628 24
 584 0010 7B68     		ldr	r3, [r7, #4]
 585 0012 1B68     		ldr	r3, [r3]
 586              		.loc 1 628 12
 587 0014 5B6B     		ldr	r3, [r3, #52]
 588 0016 BB60     		str	r3, [r7, #8]
 629:Drivers/STM32F7xx_HAL_Driver/Src/stm32f7xx_hal_ltdc.c **** 
 630:Drivers/STM32F7xx_HAL_Driver/Src/stm32f7xx_hal_ltdc.c ****   /* Transfer Error Interrupt management ***************************************/
 631:Drivers/STM32F7xx_HAL_Driver/Src/stm32f7xx_hal_ltdc.c ****   if (((isrflags & LTDC_ISR_TERRIF) != 0U) && ((itsources & LTDC_IER_TERRIE) != 0U))
 589              		.loc 1 631 18
 590 0018 FB68     		ldr	r3, [r7, #12]
 591 001a 03F00403 		and	r3, r3, #4
 592              		.loc 1 631 6
 593 001e 002B     		cmp	r3, #0
 594 0020 23D0     		beq	.L17
 595              		.loc 1 631 59 discriminator 1
 596 0022 BB68     		ldr	r3, [r7, #8]
 597 0024 03F00403 		and	r3, r3, #4
 598              		.loc 1 631 44 discriminator 1
 599 0028 002B     		cmp	r3, #0
 600 002a 1ED0     		beq	.L17
 632:Drivers/STM32F7xx_HAL_Driver/Src/stm32f7xx_hal_ltdc.c ****   {
 633:Drivers/STM32F7xx_HAL_Driver/Src/stm32f7xx_hal_ltdc.c ****     /* Disable the transfer Error interrupt */
 634:Drivers/STM32F7xx_HAL_Driver/Src/stm32f7xx_hal_ltdc.c ****     __HAL_LTDC_DISABLE_IT(hltdc, LTDC_IT_TE);
 601              		.loc 1 634 5
 602 002c 7B68     		ldr	r3, [r7, #4]
 603 002e 1B68     		ldr	r3, [r3]
 604 0030 5A6B     		ldr	r2, [r3, #52]
 605 0032 7B68     		ldr	r3, [r7, #4]
 606 0034 1B68     		ldr	r3, [r3]
 607 0036 22F00402 		bic	r2, r2, #4
 608 003a 5A63     		str	r2, [r3, #52]
 635:Drivers/STM32F7xx_HAL_Driver/Src/stm32f7xx_hal_ltdc.c **** 
 636:Drivers/STM32F7xx_HAL_Driver/Src/stm32f7xx_hal_ltdc.c ****     /* Clear the transfer error flag */
 637:Drivers/STM32F7xx_HAL_Driver/Src/stm32f7xx_hal_ltdc.c ****     __HAL_LTDC_CLEAR_FLAG(hltdc, LTDC_FLAG_TE);
 609              		.loc 1 637 5
 610 003c 7B68     		ldr	r3, [r7, #4]
 611 003e 1B68     		ldr	r3, [r3]
 612 0040 0422     		movs	r2, #4
 613 0042 DA63     		str	r2, [r3, #60]
 638:Drivers/STM32F7xx_HAL_Driver/Src/stm32f7xx_hal_ltdc.c **** 
 639:Drivers/STM32F7xx_HAL_Driver/Src/stm32f7xx_hal_ltdc.c ****     /* Update error code */
 640:Drivers/STM32F7xx_HAL_Driver/Src/stm32f7xx_hal_ltdc.c ****     hltdc->ErrorCode |= HAL_LTDC_ERROR_TE;
 614              		.loc 1 640 22
 615 0044 7B68     		ldr	r3, [r7, #4]
 616 0046 D3F8A430 		ldr	r3, [r3, #164]
 617 004a 43F00102 		orr	r2, r3, #1
 618 004e 7B68     		ldr	r3, [r7, #4]
ARM GAS  C:\Users\jisu8\AppData\Local\Temp\cchBTxuu.s 			page 23


 619 0050 C3F8A420 		str	r2, [r3, #164]
 641:Drivers/STM32F7xx_HAL_Driver/Src/stm32f7xx_hal_ltdc.c **** 
 642:Drivers/STM32F7xx_HAL_Driver/Src/stm32f7xx_hal_ltdc.c ****     /* Change LTDC state */
 643:Drivers/STM32F7xx_HAL_Driver/Src/stm32f7xx_hal_ltdc.c ****     hltdc->State = HAL_LTDC_STATE_ERROR;
 620              		.loc 1 643 18
 621 0054 7B68     		ldr	r3, [r7, #4]
 622 0056 0422     		movs	r2, #4
 623 0058 83F8A120 		strb	r2, [r3, #161]
 644:Drivers/STM32F7xx_HAL_Driver/Src/stm32f7xx_hal_ltdc.c **** 
 645:Drivers/STM32F7xx_HAL_Driver/Src/stm32f7xx_hal_ltdc.c ****     /* Process unlocked */
 646:Drivers/STM32F7xx_HAL_Driver/Src/stm32f7xx_hal_ltdc.c ****     __HAL_UNLOCK(hltdc);
 624              		.loc 1 646 5
 625 005c 7B68     		ldr	r3, [r7, #4]
 626 005e 0022     		movs	r2, #0
 627 0060 83F8A020 		strb	r2, [r3, #160]
 647:Drivers/STM32F7xx_HAL_Driver/Src/stm32f7xx_hal_ltdc.c **** 
 648:Drivers/STM32F7xx_HAL_Driver/Src/stm32f7xx_hal_ltdc.c ****     /* Transfer error Callback */
 649:Drivers/STM32F7xx_HAL_Driver/Src/stm32f7xx_hal_ltdc.c **** #if (USE_HAL_LTDC_REGISTER_CALLBACKS == 1)
 650:Drivers/STM32F7xx_HAL_Driver/Src/stm32f7xx_hal_ltdc.c ****     /*Call registered error callback*/
 651:Drivers/STM32F7xx_HAL_Driver/Src/stm32f7xx_hal_ltdc.c ****     hltdc->ErrorCallback(hltdc);
 652:Drivers/STM32F7xx_HAL_Driver/Src/stm32f7xx_hal_ltdc.c **** #else
 653:Drivers/STM32F7xx_HAL_Driver/Src/stm32f7xx_hal_ltdc.c ****     /* Call legacy error callback*/
 654:Drivers/STM32F7xx_HAL_Driver/Src/stm32f7xx_hal_ltdc.c ****     HAL_LTDC_ErrorCallback(hltdc);
 628              		.loc 1 654 5
 629 0064 7868     		ldr	r0, [r7, #4]
 630 0066 FFF7FEFF 		bl	HAL_LTDC_ErrorCallback
 631              	.L17:
 655:Drivers/STM32F7xx_HAL_Driver/Src/stm32f7xx_hal_ltdc.c **** #endif /* USE_HAL_LTDC_REGISTER_CALLBACKS */
 656:Drivers/STM32F7xx_HAL_Driver/Src/stm32f7xx_hal_ltdc.c ****   }
 657:Drivers/STM32F7xx_HAL_Driver/Src/stm32f7xx_hal_ltdc.c **** 
 658:Drivers/STM32F7xx_HAL_Driver/Src/stm32f7xx_hal_ltdc.c ****   /* FIFO underrun Interrupt management ***************************************/
 659:Drivers/STM32F7xx_HAL_Driver/Src/stm32f7xx_hal_ltdc.c ****   if (((isrflags & LTDC_ISR_FUIF) != 0U) && ((itsources & LTDC_IER_FUIE) != 0U))
 632              		.loc 1 659 18
 633 006a FB68     		ldr	r3, [r7, #12]
 634 006c 03F00203 		and	r3, r3, #2
 635              		.loc 1 659 6
 636 0070 002B     		cmp	r3, #0
 637 0072 23D0     		beq	.L18
 638              		.loc 1 659 57 discriminator 1
 639 0074 BB68     		ldr	r3, [r7, #8]
 640 0076 03F00203 		and	r3, r3, #2
 641              		.loc 1 659 42 discriminator 1
 642 007a 002B     		cmp	r3, #0
 643 007c 1ED0     		beq	.L18
 660:Drivers/STM32F7xx_HAL_Driver/Src/stm32f7xx_hal_ltdc.c ****   {
 661:Drivers/STM32F7xx_HAL_Driver/Src/stm32f7xx_hal_ltdc.c ****     /* Disable the FIFO underrun interrupt */
 662:Drivers/STM32F7xx_HAL_Driver/Src/stm32f7xx_hal_ltdc.c ****     __HAL_LTDC_DISABLE_IT(hltdc, LTDC_IT_FU);
 644              		.loc 1 662 5
 645 007e 7B68     		ldr	r3, [r7, #4]
 646 0080 1B68     		ldr	r3, [r3]
 647 0082 5A6B     		ldr	r2, [r3, #52]
 648 0084 7B68     		ldr	r3, [r7, #4]
 649 0086 1B68     		ldr	r3, [r3]
 650 0088 22F00202 		bic	r2, r2, #2
 651 008c 5A63     		str	r2, [r3, #52]
 663:Drivers/STM32F7xx_HAL_Driver/Src/stm32f7xx_hal_ltdc.c **** 
 664:Drivers/STM32F7xx_HAL_Driver/Src/stm32f7xx_hal_ltdc.c ****     /* Clear the FIFO underrun flag */
ARM GAS  C:\Users\jisu8\AppData\Local\Temp\cchBTxuu.s 			page 24


 665:Drivers/STM32F7xx_HAL_Driver/Src/stm32f7xx_hal_ltdc.c ****     __HAL_LTDC_CLEAR_FLAG(hltdc, LTDC_FLAG_FU);
 652              		.loc 1 665 5
 653 008e 7B68     		ldr	r3, [r7, #4]
 654 0090 1B68     		ldr	r3, [r3]
 655 0092 0222     		movs	r2, #2
 656 0094 DA63     		str	r2, [r3, #60]
 666:Drivers/STM32F7xx_HAL_Driver/Src/stm32f7xx_hal_ltdc.c **** 
 667:Drivers/STM32F7xx_HAL_Driver/Src/stm32f7xx_hal_ltdc.c ****     /* Update error code */
 668:Drivers/STM32F7xx_HAL_Driver/Src/stm32f7xx_hal_ltdc.c ****     hltdc->ErrorCode |= HAL_LTDC_ERROR_FU;
 657              		.loc 1 668 22
 658 0096 7B68     		ldr	r3, [r7, #4]
 659 0098 D3F8A430 		ldr	r3, [r3, #164]
 660 009c 43F00202 		orr	r2, r3, #2
 661 00a0 7B68     		ldr	r3, [r7, #4]
 662 00a2 C3F8A420 		str	r2, [r3, #164]
 669:Drivers/STM32F7xx_HAL_Driver/Src/stm32f7xx_hal_ltdc.c **** 
 670:Drivers/STM32F7xx_HAL_Driver/Src/stm32f7xx_hal_ltdc.c ****     /* Change LTDC state */
 671:Drivers/STM32F7xx_HAL_Driver/Src/stm32f7xx_hal_ltdc.c ****     hltdc->State = HAL_LTDC_STATE_ERROR;
 663              		.loc 1 671 18
 664 00a6 7B68     		ldr	r3, [r7, #4]
 665 00a8 0422     		movs	r2, #4
 666 00aa 83F8A120 		strb	r2, [r3, #161]
 672:Drivers/STM32F7xx_HAL_Driver/Src/stm32f7xx_hal_ltdc.c **** 
 673:Drivers/STM32F7xx_HAL_Driver/Src/stm32f7xx_hal_ltdc.c ****     /* Process unlocked */
 674:Drivers/STM32F7xx_HAL_Driver/Src/stm32f7xx_hal_ltdc.c ****     __HAL_UNLOCK(hltdc);
 667              		.loc 1 674 5
 668 00ae 7B68     		ldr	r3, [r7, #4]
 669 00b0 0022     		movs	r2, #0
 670 00b2 83F8A020 		strb	r2, [r3, #160]
 675:Drivers/STM32F7xx_HAL_Driver/Src/stm32f7xx_hal_ltdc.c **** 
 676:Drivers/STM32F7xx_HAL_Driver/Src/stm32f7xx_hal_ltdc.c ****     /* Transfer error Callback */
 677:Drivers/STM32F7xx_HAL_Driver/Src/stm32f7xx_hal_ltdc.c **** #if (USE_HAL_LTDC_REGISTER_CALLBACKS == 1)
 678:Drivers/STM32F7xx_HAL_Driver/Src/stm32f7xx_hal_ltdc.c ****     /*Call registered error callback*/
 679:Drivers/STM32F7xx_HAL_Driver/Src/stm32f7xx_hal_ltdc.c ****     hltdc->ErrorCallback(hltdc);
 680:Drivers/STM32F7xx_HAL_Driver/Src/stm32f7xx_hal_ltdc.c **** #else
 681:Drivers/STM32F7xx_HAL_Driver/Src/stm32f7xx_hal_ltdc.c ****     /* Call legacy error callback*/
 682:Drivers/STM32F7xx_HAL_Driver/Src/stm32f7xx_hal_ltdc.c ****     HAL_LTDC_ErrorCallback(hltdc);
 671              		.loc 1 682 5
 672 00b6 7868     		ldr	r0, [r7, #4]
 673 00b8 FFF7FEFF 		bl	HAL_LTDC_ErrorCallback
 674              	.L18:
 683:Drivers/STM32F7xx_HAL_Driver/Src/stm32f7xx_hal_ltdc.c **** #endif /* USE_HAL_LTDC_REGISTER_CALLBACKS */
 684:Drivers/STM32F7xx_HAL_Driver/Src/stm32f7xx_hal_ltdc.c ****   }
 685:Drivers/STM32F7xx_HAL_Driver/Src/stm32f7xx_hal_ltdc.c **** 
 686:Drivers/STM32F7xx_HAL_Driver/Src/stm32f7xx_hal_ltdc.c ****   /* Line Interrupt management ************************************************/
 687:Drivers/STM32F7xx_HAL_Driver/Src/stm32f7xx_hal_ltdc.c ****   if (((isrflags & LTDC_ISR_LIF) != 0U) && ((itsources & LTDC_IER_LIE) != 0U))
 675              		.loc 1 687 18
 676 00bc FB68     		ldr	r3, [r7, #12]
 677 00be 03F00103 		and	r3, r3, #1
 678              		.loc 1 687 6
 679 00c2 002B     		cmp	r3, #0
 680 00c4 1BD0     		beq	.L19
 681              		.loc 1 687 56 discriminator 1
 682 00c6 BB68     		ldr	r3, [r7, #8]
 683 00c8 03F00103 		and	r3, r3, #1
 684              		.loc 1 687 41 discriminator 1
 685 00cc 002B     		cmp	r3, #0
ARM GAS  C:\Users\jisu8\AppData\Local\Temp\cchBTxuu.s 			page 25


 686 00ce 16D0     		beq	.L19
 688:Drivers/STM32F7xx_HAL_Driver/Src/stm32f7xx_hal_ltdc.c ****   {
 689:Drivers/STM32F7xx_HAL_Driver/Src/stm32f7xx_hal_ltdc.c ****     /* Disable the Line interrupt */
 690:Drivers/STM32F7xx_HAL_Driver/Src/stm32f7xx_hal_ltdc.c ****     __HAL_LTDC_DISABLE_IT(hltdc, LTDC_IT_LI);
 687              		.loc 1 690 5
 688 00d0 7B68     		ldr	r3, [r7, #4]
 689 00d2 1B68     		ldr	r3, [r3]
 690 00d4 5A6B     		ldr	r2, [r3, #52]
 691 00d6 7B68     		ldr	r3, [r7, #4]
 692 00d8 1B68     		ldr	r3, [r3]
 693 00da 22F00102 		bic	r2, r2, #1
 694 00de 5A63     		str	r2, [r3, #52]
 691:Drivers/STM32F7xx_HAL_Driver/Src/stm32f7xx_hal_ltdc.c **** 
 692:Drivers/STM32F7xx_HAL_Driver/Src/stm32f7xx_hal_ltdc.c ****     /* Clear the Line interrupt flag */
 693:Drivers/STM32F7xx_HAL_Driver/Src/stm32f7xx_hal_ltdc.c ****     __HAL_LTDC_CLEAR_FLAG(hltdc, LTDC_FLAG_LI);
 695              		.loc 1 693 5
 696 00e0 7B68     		ldr	r3, [r7, #4]
 697 00e2 1B68     		ldr	r3, [r3]
 698 00e4 0122     		movs	r2, #1
 699 00e6 DA63     		str	r2, [r3, #60]
 694:Drivers/STM32F7xx_HAL_Driver/Src/stm32f7xx_hal_ltdc.c **** 
 695:Drivers/STM32F7xx_HAL_Driver/Src/stm32f7xx_hal_ltdc.c ****     /* Change LTDC state */
 696:Drivers/STM32F7xx_HAL_Driver/Src/stm32f7xx_hal_ltdc.c ****     hltdc->State = HAL_LTDC_STATE_READY;
 700              		.loc 1 696 18
 701 00e8 7B68     		ldr	r3, [r7, #4]
 702 00ea 0122     		movs	r2, #1
 703 00ec 83F8A120 		strb	r2, [r3, #161]
 697:Drivers/STM32F7xx_HAL_Driver/Src/stm32f7xx_hal_ltdc.c **** 
 698:Drivers/STM32F7xx_HAL_Driver/Src/stm32f7xx_hal_ltdc.c ****     /* Process unlocked */
 699:Drivers/STM32F7xx_HAL_Driver/Src/stm32f7xx_hal_ltdc.c ****     __HAL_UNLOCK(hltdc);
 704              		.loc 1 699 5
 705 00f0 7B68     		ldr	r3, [r7, #4]
 706 00f2 0022     		movs	r2, #0
 707 00f4 83F8A020 		strb	r2, [r3, #160]
 700:Drivers/STM32F7xx_HAL_Driver/Src/stm32f7xx_hal_ltdc.c **** 
 701:Drivers/STM32F7xx_HAL_Driver/Src/stm32f7xx_hal_ltdc.c ****     /* Line interrupt Callback */
 702:Drivers/STM32F7xx_HAL_Driver/Src/stm32f7xx_hal_ltdc.c **** #if (USE_HAL_LTDC_REGISTER_CALLBACKS == 1)
 703:Drivers/STM32F7xx_HAL_Driver/Src/stm32f7xx_hal_ltdc.c ****     /*Call registered Line Event callback */
 704:Drivers/STM32F7xx_HAL_Driver/Src/stm32f7xx_hal_ltdc.c ****     hltdc->LineEventCallback(hltdc);
 705:Drivers/STM32F7xx_HAL_Driver/Src/stm32f7xx_hal_ltdc.c **** #else
 706:Drivers/STM32F7xx_HAL_Driver/Src/stm32f7xx_hal_ltdc.c ****     /*Call Legacy Line Event callback */
 707:Drivers/STM32F7xx_HAL_Driver/Src/stm32f7xx_hal_ltdc.c ****     HAL_LTDC_LineEventCallback(hltdc);
 708              		.loc 1 707 5
 709 00f8 7868     		ldr	r0, [r7, #4]
 710 00fa FFF7FEFF 		bl	HAL_LTDC_LineEventCallback
 711              	.L19:
 708:Drivers/STM32F7xx_HAL_Driver/Src/stm32f7xx_hal_ltdc.c **** #endif /* USE_HAL_LTDC_REGISTER_CALLBACKS */
 709:Drivers/STM32F7xx_HAL_Driver/Src/stm32f7xx_hal_ltdc.c ****   }
 710:Drivers/STM32F7xx_HAL_Driver/Src/stm32f7xx_hal_ltdc.c **** 
 711:Drivers/STM32F7xx_HAL_Driver/Src/stm32f7xx_hal_ltdc.c ****   /* Register reload Interrupt management ***************************************/
 712:Drivers/STM32F7xx_HAL_Driver/Src/stm32f7xx_hal_ltdc.c ****   if (((isrflags & LTDC_ISR_RRIF) != 0U) && ((itsources & LTDC_IER_RRIE) != 0U))
 712              		.loc 1 712 18
 713 00fe FB68     		ldr	r3, [r7, #12]
 714 0100 03F00803 		and	r3, r3, #8
 715              		.loc 1 712 6
 716 0104 002B     		cmp	r3, #0
 717 0106 1BD0     		beq	.L21
ARM GAS  C:\Users\jisu8\AppData\Local\Temp\cchBTxuu.s 			page 26


 718              		.loc 1 712 57 discriminator 1
 719 0108 BB68     		ldr	r3, [r7, #8]
 720 010a 03F00803 		and	r3, r3, #8
 721              		.loc 1 712 42 discriminator 1
 722 010e 002B     		cmp	r3, #0
 723 0110 16D0     		beq	.L21
 713:Drivers/STM32F7xx_HAL_Driver/Src/stm32f7xx_hal_ltdc.c ****   {
 714:Drivers/STM32F7xx_HAL_Driver/Src/stm32f7xx_hal_ltdc.c ****     /* Disable the register reload interrupt */
 715:Drivers/STM32F7xx_HAL_Driver/Src/stm32f7xx_hal_ltdc.c ****     __HAL_LTDC_DISABLE_IT(hltdc, LTDC_IT_RR);
 724              		.loc 1 715 5
 725 0112 7B68     		ldr	r3, [r7, #4]
 726 0114 1B68     		ldr	r3, [r3]
 727 0116 5A6B     		ldr	r2, [r3, #52]
 728 0118 7B68     		ldr	r3, [r7, #4]
 729 011a 1B68     		ldr	r3, [r3]
 730 011c 22F00802 		bic	r2, r2, #8
 731 0120 5A63     		str	r2, [r3, #52]
 716:Drivers/STM32F7xx_HAL_Driver/Src/stm32f7xx_hal_ltdc.c **** 
 717:Drivers/STM32F7xx_HAL_Driver/Src/stm32f7xx_hal_ltdc.c ****     /* Clear the register reload flag */
 718:Drivers/STM32F7xx_HAL_Driver/Src/stm32f7xx_hal_ltdc.c ****     __HAL_LTDC_CLEAR_FLAG(hltdc, LTDC_FLAG_RR);
 732              		.loc 1 718 5
 733 0122 7B68     		ldr	r3, [r7, #4]
 734 0124 1B68     		ldr	r3, [r3]
 735 0126 0822     		movs	r2, #8
 736 0128 DA63     		str	r2, [r3, #60]
 719:Drivers/STM32F7xx_HAL_Driver/Src/stm32f7xx_hal_ltdc.c **** 
 720:Drivers/STM32F7xx_HAL_Driver/Src/stm32f7xx_hal_ltdc.c ****     /* Change LTDC state */
 721:Drivers/STM32F7xx_HAL_Driver/Src/stm32f7xx_hal_ltdc.c ****     hltdc->State = HAL_LTDC_STATE_READY;
 737              		.loc 1 721 18
 738 012a 7B68     		ldr	r3, [r7, #4]
 739 012c 0122     		movs	r2, #1
 740 012e 83F8A120 		strb	r2, [r3, #161]
 722:Drivers/STM32F7xx_HAL_Driver/Src/stm32f7xx_hal_ltdc.c **** 
 723:Drivers/STM32F7xx_HAL_Driver/Src/stm32f7xx_hal_ltdc.c ****     /* Process unlocked */
 724:Drivers/STM32F7xx_HAL_Driver/Src/stm32f7xx_hal_ltdc.c ****     __HAL_UNLOCK(hltdc);
 741              		.loc 1 724 5
 742 0132 7B68     		ldr	r3, [r7, #4]
 743 0134 0022     		movs	r2, #0
 744 0136 83F8A020 		strb	r2, [r3, #160]
 725:Drivers/STM32F7xx_HAL_Driver/Src/stm32f7xx_hal_ltdc.c **** 
 726:Drivers/STM32F7xx_HAL_Driver/Src/stm32f7xx_hal_ltdc.c ****     /* Reload interrupt Callback */
 727:Drivers/STM32F7xx_HAL_Driver/Src/stm32f7xx_hal_ltdc.c **** #if (USE_HAL_LTDC_REGISTER_CALLBACKS == 1)
 728:Drivers/STM32F7xx_HAL_Driver/Src/stm32f7xx_hal_ltdc.c ****     /*Call registered reload Event callback */
 729:Drivers/STM32F7xx_HAL_Driver/Src/stm32f7xx_hal_ltdc.c ****     hltdc->ReloadEventCallback(hltdc);
 730:Drivers/STM32F7xx_HAL_Driver/Src/stm32f7xx_hal_ltdc.c **** #else
 731:Drivers/STM32F7xx_HAL_Driver/Src/stm32f7xx_hal_ltdc.c ****     /*Call Legacy Reload Event callback */
 732:Drivers/STM32F7xx_HAL_Driver/Src/stm32f7xx_hal_ltdc.c ****     HAL_LTDC_ReloadEventCallback(hltdc);
 745              		.loc 1 732 5
 746 013a 7868     		ldr	r0, [r7, #4]
 747 013c FFF7FEFF 		bl	HAL_LTDC_ReloadEventCallback
 748              	.L21:
 733:Drivers/STM32F7xx_HAL_Driver/Src/stm32f7xx_hal_ltdc.c **** #endif /* USE_HAL_LTDC_REGISTER_CALLBACKS */
 734:Drivers/STM32F7xx_HAL_Driver/Src/stm32f7xx_hal_ltdc.c ****   }
 735:Drivers/STM32F7xx_HAL_Driver/Src/stm32f7xx_hal_ltdc.c **** }
 749              		.loc 1 735 1
 750 0140 00BF     		nop
 751 0142 1037     		adds	r7, r7, #16
ARM GAS  C:\Users\jisu8\AppData\Local\Temp\cchBTxuu.s 			page 27


 752              	.LCFI25:
 753              		.cfi_def_cfa_offset 8
 754 0144 BD46     		mov	sp, r7
 755              	.LCFI26:
 756              		.cfi_def_cfa_register 13
 757              		@ sp needed
 758 0146 80BD     		pop	{r7, pc}
 759              		.cfi_endproc
 760              	.LFE145:
 762              		.section	.text.HAL_LTDC_ErrorCallback,"ax",%progbits
 763              		.align	1
 764              		.weak	HAL_LTDC_ErrorCallback
 765              		.syntax unified
 766              		.thumb
 767              		.thumb_func
 769              	HAL_LTDC_ErrorCallback:
 770              	.LFB146:
 736:Drivers/STM32F7xx_HAL_Driver/Src/stm32f7xx_hal_ltdc.c **** 
 737:Drivers/STM32F7xx_HAL_Driver/Src/stm32f7xx_hal_ltdc.c **** /**
 738:Drivers/STM32F7xx_HAL_Driver/Src/stm32f7xx_hal_ltdc.c ****   * @brief  Error LTDC callback.
 739:Drivers/STM32F7xx_HAL_Driver/Src/stm32f7xx_hal_ltdc.c ****   * @param  hltdc  pointer to a LTDC_HandleTypeDef structure that contains
 740:Drivers/STM32F7xx_HAL_Driver/Src/stm32f7xx_hal_ltdc.c ****   *                the configuration information for the LTDC.
 741:Drivers/STM32F7xx_HAL_Driver/Src/stm32f7xx_hal_ltdc.c ****   * @retval None
 742:Drivers/STM32F7xx_HAL_Driver/Src/stm32f7xx_hal_ltdc.c ****   */
 743:Drivers/STM32F7xx_HAL_Driver/Src/stm32f7xx_hal_ltdc.c **** __weak void HAL_LTDC_ErrorCallback(LTDC_HandleTypeDef *hltdc)
 744:Drivers/STM32F7xx_HAL_Driver/Src/stm32f7xx_hal_ltdc.c **** {
 771              		.loc 1 744 1
 772              		.cfi_startproc
 773              		@ args = 0, pretend = 0, frame = 8
 774              		@ frame_needed = 1, uses_anonymous_args = 0
 775              		@ link register save eliminated.
 776 0000 80B4     		push	{r7}
 777              	.LCFI27:
 778              		.cfi_def_cfa_offset 4
 779              		.cfi_offset 7, -4
 780 0002 83B0     		sub	sp, sp, #12
 781              	.LCFI28:
 782              		.cfi_def_cfa_offset 16
 783 0004 00AF     		add	r7, sp, #0
 784              	.LCFI29:
 785              		.cfi_def_cfa_register 7
 786 0006 7860     		str	r0, [r7, #4]
 745:Drivers/STM32F7xx_HAL_Driver/Src/stm32f7xx_hal_ltdc.c ****   /* Prevent unused argument(s) compilation warning */
 746:Drivers/STM32F7xx_HAL_Driver/Src/stm32f7xx_hal_ltdc.c ****   UNUSED(hltdc);
 747:Drivers/STM32F7xx_HAL_Driver/Src/stm32f7xx_hal_ltdc.c **** 
 748:Drivers/STM32F7xx_HAL_Driver/Src/stm32f7xx_hal_ltdc.c ****   /* NOTE : This function should not be modified, when the callback is needed,
 749:Drivers/STM32F7xx_HAL_Driver/Src/stm32f7xx_hal_ltdc.c ****             the HAL_LTDC_ErrorCallback could be implemented in the user file
 750:Drivers/STM32F7xx_HAL_Driver/Src/stm32f7xx_hal_ltdc.c ****    */
 751:Drivers/STM32F7xx_HAL_Driver/Src/stm32f7xx_hal_ltdc.c **** }
 787              		.loc 1 751 1
 788 0008 00BF     		nop
 789 000a 0C37     		adds	r7, r7, #12
 790              	.LCFI30:
 791              		.cfi_def_cfa_offset 4
 792 000c BD46     		mov	sp, r7
 793              	.LCFI31:
 794              		.cfi_def_cfa_register 13
ARM GAS  C:\Users\jisu8\AppData\Local\Temp\cchBTxuu.s 			page 28


 795              		@ sp needed
 796 000e 5DF8047B 		ldr	r7, [sp], #4
 797              	.LCFI32:
 798              		.cfi_restore 7
 799              		.cfi_def_cfa_offset 0
 800 0012 7047     		bx	lr
 801              		.cfi_endproc
 802              	.LFE146:
 804              		.section	.text.HAL_LTDC_LineEventCallback,"ax",%progbits
 805              		.align	1
 806              		.weak	HAL_LTDC_LineEventCallback
 807              		.syntax unified
 808              		.thumb
 809              		.thumb_func
 811              	HAL_LTDC_LineEventCallback:
 812              	.LFB147:
 752:Drivers/STM32F7xx_HAL_Driver/Src/stm32f7xx_hal_ltdc.c **** 
 753:Drivers/STM32F7xx_HAL_Driver/Src/stm32f7xx_hal_ltdc.c **** /**
 754:Drivers/STM32F7xx_HAL_Driver/Src/stm32f7xx_hal_ltdc.c ****   * @brief  Line Event callback.
 755:Drivers/STM32F7xx_HAL_Driver/Src/stm32f7xx_hal_ltdc.c ****   * @param  hltdc  pointer to a LTDC_HandleTypeDef structure that contains
 756:Drivers/STM32F7xx_HAL_Driver/Src/stm32f7xx_hal_ltdc.c ****   *                the configuration information for the LTDC.
 757:Drivers/STM32F7xx_HAL_Driver/Src/stm32f7xx_hal_ltdc.c ****   * @retval None
 758:Drivers/STM32F7xx_HAL_Driver/Src/stm32f7xx_hal_ltdc.c ****   */
 759:Drivers/STM32F7xx_HAL_Driver/Src/stm32f7xx_hal_ltdc.c **** __weak void HAL_LTDC_LineEventCallback(LTDC_HandleTypeDef *hltdc)
 760:Drivers/STM32F7xx_HAL_Driver/Src/stm32f7xx_hal_ltdc.c **** {
 813              		.loc 1 760 1
 814              		.cfi_startproc
 815              		@ args = 0, pretend = 0, frame = 8
 816              		@ frame_needed = 1, uses_anonymous_args = 0
 817              		@ link register save eliminated.
 818 0000 80B4     		push	{r7}
 819              	.LCFI33:
 820              		.cfi_def_cfa_offset 4
 821              		.cfi_offset 7, -4
 822 0002 83B0     		sub	sp, sp, #12
 823              	.LCFI34:
 824              		.cfi_def_cfa_offset 16
 825 0004 00AF     		add	r7, sp, #0
 826              	.LCFI35:
 827              		.cfi_def_cfa_register 7
 828 0006 7860     		str	r0, [r7, #4]
 761:Drivers/STM32F7xx_HAL_Driver/Src/stm32f7xx_hal_ltdc.c ****   /* Prevent unused argument(s) compilation warning */
 762:Drivers/STM32F7xx_HAL_Driver/Src/stm32f7xx_hal_ltdc.c ****   UNUSED(hltdc);
 763:Drivers/STM32F7xx_HAL_Driver/Src/stm32f7xx_hal_ltdc.c **** 
 764:Drivers/STM32F7xx_HAL_Driver/Src/stm32f7xx_hal_ltdc.c ****   /* NOTE : This function should not be modified, when the callback is needed,
 765:Drivers/STM32F7xx_HAL_Driver/Src/stm32f7xx_hal_ltdc.c ****             the HAL_LTDC_LineEventCallback could be implemented in the user file
 766:Drivers/STM32F7xx_HAL_Driver/Src/stm32f7xx_hal_ltdc.c ****    */
 767:Drivers/STM32F7xx_HAL_Driver/Src/stm32f7xx_hal_ltdc.c **** }
 829              		.loc 1 767 1
 830 0008 00BF     		nop
 831 000a 0C37     		adds	r7, r7, #12
 832              	.LCFI36:
 833              		.cfi_def_cfa_offset 4
 834 000c BD46     		mov	sp, r7
 835              	.LCFI37:
 836              		.cfi_def_cfa_register 13
 837              		@ sp needed
ARM GAS  C:\Users\jisu8\AppData\Local\Temp\cchBTxuu.s 			page 29


 838 000e 5DF8047B 		ldr	r7, [sp], #4
 839              	.LCFI38:
 840              		.cfi_restore 7
 841              		.cfi_def_cfa_offset 0
 842 0012 7047     		bx	lr
 843              		.cfi_endproc
 844              	.LFE147:
 846              		.section	.text.HAL_LTDC_ReloadEventCallback,"ax",%progbits
 847              		.align	1
 848              		.weak	HAL_LTDC_ReloadEventCallback
 849              		.syntax unified
 850              		.thumb
 851              		.thumb_func
 853              	HAL_LTDC_ReloadEventCallback:
 854              	.LFB148:
 768:Drivers/STM32F7xx_HAL_Driver/Src/stm32f7xx_hal_ltdc.c **** 
 769:Drivers/STM32F7xx_HAL_Driver/Src/stm32f7xx_hal_ltdc.c **** /**
 770:Drivers/STM32F7xx_HAL_Driver/Src/stm32f7xx_hal_ltdc.c ****   * @brief  Reload Event callback.
 771:Drivers/STM32F7xx_HAL_Driver/Src/stm32f7xx_hal_ltdc.c ****   * @param  hltdc  pointer to a LTDC_HandleTypeDef structure that contains
 772:Drivers/STM32F7xx_HAL_Driver/Src/stm32f7xx_hal_ltdc.c ****   *                the configuration information for the LTDC.
 773:Drivers/STM32F7xx_HAL_Driver/Src/stm32f7xx_hal_ltdc.c ****   * @retval None
 774:Drivers/STM32F7xx_HAL_Driver/Src/stm32f7xx_hal_ltdc.c ****   */
 775:Drivers/STM32F7xx_HAL_Driver/Src/stm32f7xx_hal_ltdc.c **** __weak void HAL_LTDC_ReloadEventCallback(LTDC_HandleTypeDef *hltdc)
 776:Drivers/STM32F7xx_HAL_Driver/Src/stm32f7xx_hal_ltdc.c **** {
 855              		.loc 1 776 1
 856              		.cfi_startproc
 857              		@ args = 0, pretend = 0, frame = 8
 858              		@ frame_needed = 1, uses_anonymous_args = 0
 859              		@ link register save eliminated.
 860 0000 80B4     		push	{r7}
 861              	.LCFI39:
 862              		.cfi_def_cfa_offset 4
 863              		.cfi_offset 7, -4
 864 0002 83B0     		sub	sp, sp, #12
 865              	.LCFI40:
 866              		.cfi_def_cfa_offset 16
 867 0004 00AF     		add	r7, sp, #0
 868              	.LCFI41:
 869              		.cfi_def_cfa_register 7
 870 0006 7860     		str	r0, [r7, #4]
 777:Drivers/STM32F7xx_HAL_Driver/Src/stm32f7xx_hal_ltdc.c ****   /* Prevent unused argument(s) compilation warning */
 778:Drivers/STM32F7xx_HAL_Driver/Src/stm32f7xx_hal_ltdc.c ****   UNUSED(hltdc);
 779:Drivers/STM32F7xx_HAL_Driver/Src/stm32f7xx_hal_ltdc.c **** 
 780:Drivers/STM32F7xx_HAL_Driver/Src/stm32f7xx_hal_ltdc.c ****   /* NOTE : This function should not be modified, when the callback is needed,
 781:Drivers/STM32F7xx_HAL_Driver/Src/stm32f7xx_hal_ltdc.c ****             the HAL_LTDC_ReloadEvenCallback could be implemented in the user file
 782:Drivers/STM32F7xx_HAL_Driver/Src/stm32f7xx_hal_ltdc.c ****    */
 783:Drivers/STM32F7xx_HAL_Driver/Src/stm32f7xx_hal_ltdc.c **** }
 871              		.loc 1 783 1
 872 0008 00BF     		nop
 873 000a 0C37     		adds	r7, r7, #12
 874              	.LCFI42:
 875              		.cfi_def_cfa_offset 4
 876 000c BD46     		mov	sp, r7
 877              	.LCFI43:
 878              		.cfi_def_cfa_register 13
 879              		@ sp needed
 880 000e 5DF8047B 		ldr	r7, [sp], #4
ARM GAS  C:\Users\jisu8\AppData\Local\Temp\cchBTxuu.s 			page 30


 881              	.LCFI44:
 882              		.cfi_restore 7
 883              		.cfi_def_cfa_offset 0
 884 0012 7047     		bx	lr
 885              		.cfi_endproc
 886              	.LFE148:
 888              		.section	.text.HAL_LTDC_ConfigLayer,"ax",%progbits
 889              		.align	1
 890              		.global	HAL_LTDC_ConfigLayer
 891              		.syntax unified
 892              		.thumb
 893              		.thumb_func
 895              	HAL_LTDC_ConfigLayer:
 896              	.LFB149:
 784:Drivers/STM32F7xx_HAL_Driver/Src/stm32f7xx_hal_ltdc.c **** 
 785:Drivers/STM32F7xx_HAL_Driver/Src/stm32f7xx_hal_ltdc.c **** /**
 786:Drivers/STM32F7xx_HAL_Driver/Src/stm32f7xx_hal_ltdc.c ****   * @}
 787:Drivers/STM32F7xx_HAL_Driver/Src/stm32f7xx_hal_ltdc.c ****   */
 788:Drivers/STM32F7xx_HAL_Driver/Src/stm32f7xx_hal_ltdc.c **** 
 789:Drivers/STM32F7xx_HAL_Driver/Src/stm32f7xx_hal_ltdc.c **** /** @defgroup LTDC_Exported_Functions_Group3 Peripheral Control functions
 790:Drivers/STM32F7xx_HAL_Driver/Src/stm32f7xx_hal_ltdc.c ****   *  @brief    Peripheral Control functions
 791:Drivers/STM32F7xx_HAL_Driver/Src/stm32f7xx_hal_ltdc.c ****   *
 792:Drivers/STM32F7xx_HAL_Driver/Src/stm32f7xx_hal_ltdc.c **** @verbatim
 793:Drivers/STM32F7xx_HAL_Driver/Src/stm32f7xx_hal_ltdc.c ****  ===============================================================================
 794:Drivers/STM32F7xx_HAL_Driver/Src/stm32f7xx_hal_ltdc.c ****                     ##### Peripheral Control functions #####
 795:Drivers/STM32F7xx_HAL_Driver/Src/stm32f7xx_hal_ltdc.c ****  ===============================================================================
 796:Drivers/STM32F7xx_HAL_Driver/Src/stm32f7xx_hal_ltdc.c ****     [..]  This section provides functions allowing to:
 797:Drivers/STM32F7xx_HAL_Driver/Src/stm32f7xx_hal_ltdc.c ****       (+) Configure the LTDC foreground or/and background parameters.
 798:Drivers/STM32F7xx_HAL_Driver/Src/stm32f7xx_hal_ltdc.c ****       (+) Set the active layer.
 799:Drivers/STM32F7xx_HAL_Driver/Src/stm32f7xx_hal_ltdc.c ****       (+) Configure the color keying.
 800:Drivers/STM32F7xx_HAL_Driver/Src/stm32f7xx_hal_ltdc.c ****       (+) Configure the C-LUT.
 801:Drivers/STM32F7xx_HAL_Driver/Src/stm32f7xx_hal_ltdc.c ****       (+) Enable / Disable the color keying.
 802:Drivers/STM32F7xx_HAL_Driver/Src/stm32f7xx_hal_ltdc.c ****       (+) Enable / Disable the C-LUT.
 803:Drivers/STM32F7xx_HAL_Driver/Src/stm32f7xx_hal_ltdc.c ****       (+) Update the layer position.
 804:Drivers/STM32F7xx_HAL_Driver/Src/stm32f7xx_hal_ltdc.c ****       (+) Update the layer size.
 805:Drivers/STM32F7xx_HAL_Driver/Src/stm32f7xx_hal_ltdc.c ****       (+) Update pixel format on the fly.
 806:Drivers/STM32F7xx_HAL_Driver/Src/stm32f7xx_hal_ltdc.c ****       (+) Update transparency on the fly.
 807:Drivers/STM32F7xx_HAL_Driver/Src/stm32f7xx_hal_ltdc.c ****       (+) Update address on the fly.
 808:Drivers/STM32F7xx_HAL_Driver/Src/stm32f7xx_hal_ltdc.c **** 
 809:Drivers/STM32F7xx_HAL_Driver/Src/stm32f7xx_hal_ltdc.c **** @endverbatim
 810:Drivers/STM32F7xx_HAL_Driver/Src/stm32f7xx_hal_ltdc.c ****   * @{
 811:Drivers/STM32F7xx_HAL_Driver/Src/stm32f7xx_hal_ltdc.c ****   */
 812:Drivers/STM32F7xx_HAL_Driver/Src/stm32f7xx_hal_ltdc.c **** 
 813:Drivers/STM32F7xx_HAL_Driver/Src/stm32f7xx_hal_ltdc.c **** /**
 814:Drivers/STM32F7xx_HAL_Driver/Src/stm32f7xx_hal_ltdc.c ****   * @brief  Configure the LTDC Layer according to the specified
 815:Drivers/STM32F7xx_HAL_Driver/Src/stm32f7xx_hal_ltdc.c ****   *         parameters in the LTDC_InitTypeDef and create the associated handle.
 816:Drivers/STM32F7xx_HAL_Driver/Src/stm32f7xx_hal_ltdc.c ****   * @param  hltdc      pointer to a LTDC_HandleTypeDef structure that contains
 817:Drivers/STM32F7xx_HAL_Driver/Src/stm32f7xx_hal_ltdc.c ****   *                    the configuration information for the LTDC.
 818:Drivers/STM32F7xx_HAL_Driver/Src/stm32f7xx_hal_ltdc.c ****   * @param  pLayerCfg  pointer to a LTDC_LayerCfgTypeDef structure that contains
 819:Drivers/STM32F7xx_HAL_Driver/Src/stm32f7xx_hal_ltdc.c ****   *                    the configuration information for the Layer.
 820:Drivers/STM32F7xx_HAL_Driver/Src/stm32f7xx_hal_ltdc.c ****   * @param  LayerIdx  LTDC Layer index.
 821:Drivers/STM32F7xx_HAL_Driver/Src/stm32f7xx_hal_ltdc.c ****   *                    This parameter can be one of the following values:
 822:Drivers/STM32F7xx_HAL_Driver/Src/stm32f7xx_hal_ltdc.c ****   *                    LTDC_LAYER_1 (0) or LTDC_LAYER_2 (1)
 823:Drivers/STM32F7xx_HAL_Driver/Src/stm32f7xx_hal_ltdc.c ****   * @retval HAL status
 824:Drivers/STM32F7xx_HAL_Driver/Src/stm32f7xx_hal_ltdc.c ****   */
 825:Drivers/STM32F7xx_HAL_Driver/Src/stm32f7xx_hal_ltdc.c **** HAL_StatusTypeDef HAL_LTDC_ConfigLayer(LTDC_HandleTypeDef *hltdc, LTDC_LayerCfgTypeDef *pLayerCfg, 
 826:Drivers/STM32F7xx_HAL_Driver/Src/stm32f7xx_hal_ltdc.c **** {
ARM GAS  C:\Users\jisu8\AppData\Local\Temp\cchBTxuu.s 			page 31


 897              		.loc 1 826 1
 898              		.cfi_startproc
 899              		@ args = 0, pretend = 0, frame = 16
 900              		@ frame_needed = 1, uses_anonymous_args = 0
 901 0000 B0B5     		push	{r4, r5, r7, lr}
 902              	.LCFI45:
 903              		.cfi_def_cfa_offset 16
 904              		.cfi_offset 4, -16
 905              		.cfi_offset 5, -12
 906              		.cfi_offset 7, -8
 907              		.cfi_offset 14, -4
 908 0002 84B0     		sub	sp, sp, #16
 909              	.LCFI46:
 910              		.cfi_def_cfa_offset 32
 911 0004 00AF     		add	r7, sp, #0
 912              	.LCFI47:
 913              		.cfi_def_cfa_register 7
 914 0006 F860     		str	r0, [r7, #12]
 915 0008 B960     		str	r1, [r7, #8]
 916 000a 7A60     		str	r2, [r7, #4]
 827:Drivers/STM32F7xx_HAL_Driver/Src/stm32f7xx_hal_ltdc.c ****   /* Check the parameters */
 828:Drivers/STM32F7xx_HAL_Driver/Src/stm32f7xx_hal_ltdc.c ****   assert_param(IS_LTDC_LAYER(LayerIdx));
 829:Drivers/STM32F7xx_HAL_Driver/Src/stm32f7xx_hal_ltdc.c ****   assert_param(IS_LTDC_HCONFIGST(pLayerCfg->WindowX0));
 830:Drivers/STM32F7xx_HAL_Driver/Src/stm32f7xx_hal_ltdc.c ****   assert_param(IS_LTDC_HCONFIGSP(pLayerCfg->WindowX1));
 831:Drivers/STM32F7xx_HAL_Driver/Src/stm32f7xx_hal_ltdc.c ****   assert_param(IS_LTDC_VCONFIGST(pLayerCfg->WindowY0));
 832:Drivers/STM32F7xx_HAL_Driver/Src/stm32f7xx_hal_ltdc.c ****   assert_param(IS_LTDC_VCONFIGSP(pLayerCfg->WindowY1));
 833:Drivers/STM32F7xx_HAL_Driver/Src/stm32f7xx_hal_ltdc.c ****   assert_param(IS_LTDC_PIXEL_FORMAT(pLayerCfg->PixelFormat));
 834:Drivers/STM32F7xx_HAL_Driver/Src/stm32f7xx_hal_ltdc.c ****   assert_param(IS_LTDC_ALPHA(pLayerCfg->Alpha));
 835:Drivers/STM32F7xx_HAL_Driver/Src/stm32f7xx_hal_ltdc.c ****   assert_param(IS_LTDC_ALPHA(pLayerCfg->Alpha0));
 836:Drivers/STM32F7xx_HAL_Driver/Src/stm32f7xx_hal_ltdc.c ****   assert_param(IS_LTDC_BLENDING_FACTOR1(pLayerCfg->BlendingFactor1));
 837:Drivers/STM32F7xx_HAL_Driver/Src/stm32f7xx_hal_ltdc.c ****   assert_param(IS_LTDC_BLENDING_FACTOR2(pLayerCfg->BlendingFactor2));
 838:Drivers/STM32F7xx_HAL_Driver/Src/stm32f7xx_hal_ltdc.c ****   assert_param(IS_LTDC_CFBLL(pLayerCfg->ImageWidth));
 839:Drivers/STM32F7xx_HAL_Driver/Src/stm32f7xx_hal_ltdc.c ****   assert_param(IS_LTDC_CFBLNBR(pLayerCfg->ImageHeight));
 840:Drivers/STM32F7xx_HAL_Driver/Src/stm32f7xx_hal_ltdc.c **** 
 841:Drivers/STM32F7xx_HAL_Driver/Src/stm32f7xx_hal_ltdc.c ****   /* Process locked */
 842:Drivers/STM32F7xx_HAL_Driver/Src/stm32f7xx_hal_ltdc.c ****   __HAL_LOCK(hltdc);
 917              		.loc 1 842 3
 918 000c FB68     		ldr	r3, [r7, #12]
 919 000e 93F8A030 		ldrb	r3, [r3, #160]	@ zero_extendqisi2
 920 0012 012B     		cmp	r3, #1
 921 0014 01D1     		bne	.L26
 922              		.loc 1 842 3 is_stmt 0 discriminator 1
 923 0016 0223     		movs	r3, #2
 924 0018 2CE0     		b	.L27
 925              	.L26:
 926              		.loc 1 842 3 discriminator 2
 927 001a FB68     		ldr	r3, [r7, #12]
 928 001c 0122     		movs	r2, #1
 929 001e 83F8A020 		strb	r2, [r3, #160]
 843:Drivers/STM32F7xx_HAL_Driver/Src/stm32f7xx_hal_ltdc.c **** 
 844:Drivers/STM32F7xx_HAL_Driver/Src/stm32f7xx_hal_ltdc.c ****   /* Change LTDC peripheral state */
 845:Drivers/STM32F7xx_HAL_Driver/Src/stm32f7xx_hal_ltdc.c ****   hltdc->State = HAL_LTDC_STATE_BUSY;
 930              		.loc 1 845 16 is_stmt 1 discriminator 2
 931 0022 FB68     		ldr	r3, [r7, #12]
 932 0024 0222     		movs	r2, #2
 933 0026 83F8A120 		strb	r2, [r3, #161]
 846:Drivers/STM32F7xx_HAL_Driver/Src/stm32f7xx_hal_ltdc.c **** 
ARM GAS  C:\Users\jisu8\AppData\Local\Temp\cchBTxuu.s 			page 32


 847:Drivers/STM32F7xx_HAL_Driver/Src/stm32f7xx_hal_ltdc.c ****   /* Copy new layer configuration into handle structure */
 848:Drivers/STM32F7xx_HAL_Driver/Src/stm32f7xx_hal_ltdc.c ****   hltdc->LayerCfg[LayerIdx] = *pLayerCfg;
 934              		.loc 1 848 29 discriminator 2
 935 002a FA68     		ldr	r2, [r7, #12]
 936 002c 7B68     		ldr	r3, [r7, #4]
 937 002e 3421     		movs	r1, #52
 938 0030 01FB03F3 		mul	r3, r1, r3
 939 0034 1344     		add	r3, r3, r2
 940 0036 03F13802 		add	r2, r3, #56
 941 003a BB68     		ldr	r3, [r7, #8]
 942 003c 1446     		mov	r4, r2
 943 003e 1D46     		mov	r5, r3
 944 0040 0FCD     		ldmia	r5!, {r0, r1, r2, r3}
 945 0042 0FC4     		stmia	r4!, {r0, r1, r2, r3}
 946 0044 0FCD     		ldmia	r5!, {r0, r1, r2, r3}
 947 0046 0FC4     		stmia	r4!, {r0, r1, r2, r3}
 948 0048 0FCD     		ldmia	r5!, {r0, r1, r2, r3}
 949 004a 0FC4     		stmia	r4!, {r0, r1, r2, r3}
 950 004c 2B68     		ldr	r3, [r5]
 951 004e 2360     		str	r3, [r4]
 849:Drivers/STM32F7xx_HAL_Driver/Src/stm32f7xx_hal_ltdc.c **** 
 850:Drivers/STM32F7xx_HAL_Driver/Src/stm32f7xx_hal_ltdc.c ****   /* Configure the LTDC Layer */
 851:Drivers/STM32F7xx_HAL_Driver/Src/stm32f7xx_hal_ltdc.c ****   LTDC_SetConfig(hltdc, pLayerCfg, LayerIdx);
 952              		.loc 1 851 3 discriminator 2
 953 0050 7A68     		ldr	r2, [r7, #4]
 954 0052 B968     		ldr	r1, [r7, #8]
 955 0054 F868     		ldr	r0, [r7, #12]
 956 0056 FFF7FEFF 		bl	LTDC_SetConfig
 852:Drivers/STM32F7xx_HAL_Driver/Src/stm32f7xx_hal_ltdc.c **** 
 853:Drivers/STM32F7xx_HAL_Driver/Src/stm32f7xx_hal_ltdc.c ****   /* Set the Immediate Reload type */
 854:Drivers/STM32F7xx_HAL_Driver/Src/stm32f7xx_hal_ltdc.c ****   hltdc->Instance->SRCR = LTDC_SRCR_IMR;
 957              		.loc 1 854 8 discriminator 2
 958 005a FB68     		ldr	r3, [r7, #12]
 959 005c 1B68     		ldr	r3, [r3]
 960              		.loc 1 854 25 discriminator 2
 961 005e 0122     		movs	r2, #1
 962 0060 5A62     		str	r2, [r3, #36]
 855:Drivers/STM32F7xx_HAL_Driver/Src/stm32f7xx_hal_ltdc.c **** 
 856:Drivers/STM32F7xx_HAL_Driver/Src/stm32f7xx_hal_ltdc.c ****   /* Initialize the LTDC state*/
 857:Drivers/STM32F7xx_HAL_Driver/Src/stm32f7xx_hal_ltdc.c ****   hltdc->State  = HAL_LTDC_STATE_READY;
 963              		.loc 1 857 17 discriminator 2
 964 0062 FB68     		ldr	r3, [r7, #12]
 965 0064 0122     		movs	r2, #1
 966 0066 83F8A120 		strb	r2, [r3, #161]
 858:Drivers/STM32F7xx_HAL_Driver/Src/stm32f7xx_hal_ltdc.c **** 
 859:Drivers/STM32F7xx_HAL_Driver/Src/stm32f7xx_hal_ltdc.c ****   /* Process unlocked */
 860:Drivers/STM32F7xx_HAL_Driver/Src/stm32f7xx_hal_ltdc.c ****   __HAL_UNLOCK(hltdc);
 967              		.loc 1 860 3 discriminator 2
 968 006a FB68     		ldr	r3, [r7, #12]
 969 006c 0022     		movs	r2, #0
 970 006e 83F8A020 		strb	r2, [r3, #160]
 861:Drivers/STM32F7xx_HAL_Driver/Src/stm32f7xx_hal_ltdc.c **** 
 862:Drivers/STM32F7xx_HAL_Driver/Src/stm32f7xx_hal_ltdc.c ****   return HAL_OK;
 971              		.loc 1 862 10 discriminator 2
 972 0072 0023     		movs	r3, #0
 973              	.L27:
 863:Drivers/STM32F7xx_HAL_Driver/Src/stm32f7xx_hal_ltdc.c **** }
ARM GAS  C:\Users\jisu8\AppData\Local\Temp\cchBTxuu.s 			page 33


 974              		.loc 1 863 1
 975 0074 1846     		mov	r0, r3
 976 0076 1037     		adds	r7, r7, #16
 977              	.LCFI48:
 978              		.cfi_def_cfa_offset 16
 979 0078 BD46     		mov	sp, r7
 980              	.LCFI49:
 981              		.cfi_def_cfa_register 13
 982              		@ sp needed
 983 007a B0BD     		pop	{r4, r5, r7, pc}
 984              		.cfi_endproc
 985              	.LFE149:
 987              		.section	.text.HAL_LTDC_ConfigColorKeying,"ax",%progbits
 988              		.align	1
 989              		.global	HAL_LTDC_ConfigColorKeying
 990              		.syntax unified
 991              		.thumb
 992              		.thumb_func
 994              	HAL_LTDC_ConfigColorKeying:
 995              	.LFB150:
 864:Drivers/STM32F7xx_HAL_Driver/Src/stm32f7xx_hal_ltdc.c **** 
 865:Drivers/STM32F7xx_HAL_Driver/Src/stm32f7xx_hal_ltdc.c **** /**
 866:Drivers/STM32F7xx_HAL_Driver/Src/stm32f7xx_hal_ltdc.c ****   * @brief  Configure the color keying.
 867:Drivers/STM32F7xx_HAL_Driver/Src/stm32f7xx_hal_ltdc.c ****   * @param  hltdc     pointer to a LTDC_HandleTypeDef structure that contains
 868:Drivers/STM32F7xx_HAL_Driver/Src/stm32f7xx_hal_ltdc.c ****   *                   the configuration information for the LTDC.
 869:Drivers/STM32F7xx_HAL_Driver/Src/stm32f7xx_hal_ltdc.c ****   * @param  RGBValue  the color key value
 870:Drivers/STM32F7xx_HAL_Driver/Src/stm32f7xx_hal_ltdc.c ****   * @param  LayerIdx  LTDC Layer index.
 871:Drivers/STM32F7xx_HAL_Driver/Src/stm32f7xx_hal_ltdc.c ****   *                   This parameter can be one of the following values:
 872:Drivers/STM32F7xx_HAL_Driver/Src/stm32f7xx_hal_ltdc.c ****   *                   LTDC_LAYER_1 (0) or LTDC_LAYER_2 (1)
 873:Drivers/STM32F7xx_HAL_Driver/Src/stm32f7xx_hal_ltdc.c ****   * @retval HAL status
 874:Drivers/STM32F7xx_HAL_Driver/Src/stm32f7xx_hal_ltdc.c ****   */
 875:Drivers/STM32F7xx_HAL_Driver/Src/stm32f7xx_hal_ltdc.c **** HAL_StatusTypeDef HAL_LTDC_ConfigColorKeying(LTDC_HandleTypeDef *hltdc, uint32_t RGBValue, uint32_t
 876:Drivers/STM32F7xx_HAL_Driver/Src/stm32f7xx_hal_ltdc.c **** {
 996              		.loc 1 876 1
 997              		.cfi_startproc
 998              		@ args = 0, pretend = 0, frame = 16
 999              		@ frame_needed = 1, uses_anonymous_args = 0
 1000              		@ link register save eliminated.
 1001 0000 80B4     		push	{r7}
 1002              	.LCFI50:
 1003              		.cfi_def_cfa_offset 4
 1004              		.cfi_offset 7, -4
 1005 0002 85B0     		sub	sp, sp, #20
 1006              	.LCFI51:
 1007              		.cfi_def_cfa_offset 24
 1008 0004 00AF     		add	r7, sp, #0
 1009              	.LCFI52:
 1010              		.cfi_def_cfa_register 7
 1011 0006 F860     		str	r0, [r7, #12]
 1012 0008 B960     		str	r1, [r7, #8]
 1013 000a 7A60     		str	r2, [r7, #4]
 877:Drivers/STM32F7xx_HAL_Driver/Src/stm32f7xx_hal_ltdc.c ****   /* Check the parameters */
 878:Drivers/STM32F7xx_HAL_Driver/Src/stm32f7xx_hal_ltdc.c ****   assert_param(IS_LTDC_LAYER(LayerIdx));
 879:Drivers/STM32F7xx_HAL_Driver/Src/stm32f7xx_hal_ltdc.c **** 
 880:Drivers/STM32F7xx_HAL_Driver/Src/stm32f7xx_hal_ltdc.c ****   /* Process locked */
 881:Drivers/STM32F7xx_HAL_Driver/Src/stm32f7xx_hal_ltdc.c ****   __HAL_LOCK(hltdc);
 1014              		.loc 1 881 3
ARM GAS  C:\Users\jisu8\AppData\Local\Temp\cchBTxuu.s 			page 34


 1015 000c FB68     		ldr	r3, [r7, #12]
 1016 000e 93F8A030 		ldrb	r3, [r3, #160]	@ zero_extendqisi2
 1017 0012 012B     		cmp	r3, #1
 1018 0014 01D1     		bne	.L29
 1019              		.loc 1 881 3 is_stmt 0 discriminator 1
 1020 0016 0223     		movs	r3, #2
 1021 0018 30E0     		b	.L30
 1022              	.L29:
 1023              		.loc 1 881 3 discriminator 2
 1024 001a FB68     		ldr	r3, [r7, #12]
 1025 001c 0122     		movs	r2, #1
 1026 001e 83F8A020 		strb	r2, [r3, #160]
 882:Drivers/STM32F7xx_HAL_Driver/Src/stm32f7xx_hal_ltdc.c **** 
 883:Drivers/STM32F7xx_HAL_Driver/Src/stm32f7xx_hal_ltdc.c ****   /* Change LTDC peripheral state */
 884:Drivers/STM32F7xx_HAL_Driver/Src/stm32f7xx_hal_ltdc.c ****   hltdc->State = HAL_LTDC_STATE_BUSY;
 1027              		.loc 1 884 16 is_stmt 1 discriminator 2
 1028 0022 FB68     		ldr	r3, [r7, #12]
 1029 0024 0222     		movs	r2, #2
 1030 0026 83F8A120 		strb	r2, [r3, #161]
 885:Drivers/STM32F7xx_HAL_Driver/Src/stm32f7xx_hal_ltdc.c **** 
 886:Drivers/STM32F7xx_HAL_Driver/Src/stm32f7xx_hal_ltdc.c ****   /* Configure the default color values */
 887:Drivers/STM32F7xx_HAL_Driver/Src/stm32f7xx_hal_ltdc.c ****   LTDC_LAYER(hltdc, LayerIdx)->CKCR &=  ~(LTDC_LxCKCR_CKBLUE | LTDC_LxCKCR_CKGREEN | LTDC_LxCKCR_CK
 1031              		.loc 1 887 3 discriminator 2
 1032 002a FB68     		ldr	r3, [r7, #12]
 1033 002c 1B68     		ldr	r3, [r3]
 1034              		.loc 1 887 37 discriminator 2
 1035 002e 1A46     		mov	r2, r3
 1036 0030 7B68     		ldr	r3, [r7, #4]
 1037 0032 DB01     		lsls	r3, r3, #7
 1038 0034 1344     		add	r3, r3, r2
 1039 0036 8433     		adds	r3, r3, #132
 1040 0038 DB68     		ldr	r3, [r3, #12]
 1041              		.loc 1 887 3 discriminator 2
 1042 003a FA68     		ldr	r2, [r7, #12]
 1043 003c 1268     		ldr	r2, [r2]
 1044              		.loc 1 887 37 discriminator 2
 1045 003e 1146     		mov	r1, r2
 1046 0040 7A68     		ldr	r2, [r7, #4]
 1047 0042 D201     		lsls	r2, r2, #7
 1048 0044 0A44     		add	r2, r2, r1
 1049 0046 8432     		adds	r2, r2, #132
 1050 0048 03F07F43 		and	r3, r3, #-16777216
 1051 004c D360     		str	r3, [r2, #12]
 888:Drivers/STM32F7xx_HAL_Driver/Src/stm32f7xx_hal_ltdc.c ****   LTDC_LAYER(hltdc, LayerIdx)->CKCR  = RGBValue;
 1052              		.loc 1 888 3 discriminator 2
 1053 004e FB68     		ldr	r3, [r7, #12]
 1054 0050 1B68     		ldr	r3, [r3]
 1055 0052 1A46     		mov	r2, r3
 1056 0054 7B68     		ldr	r3, [r7, #4]
 1057 0056 DB01     		lsls	r3, r3, #7
 1058 0058 1344     		add	r3, r3, r2
 1059 005a 8433     		adds	r3, r3, #132
 1060 005c 1A46     		mov	r2, r3
 1061              		.loc 1 888 38 discriminator 2
 1062 005e BB68     		ldr	r3, [r7, #8]
 1063 0060 D360     		str	r3, [r2, #12]
 889:Drivers/STM32F7xx_HAL_Driver/Src/stm32f7xx_hal_ltdc.c **** 
ARM GAS  C:\Users\jisu8\AppData\Local\Temp\cchBTxuu.s 			page 35


 890:Drivers/STM32F7xx_HAL_Driver/Src/stm32f7xx_hal_ltdc.c ****   /* Set the Immediate Reload type */
 891:Drivers/STM32F7xx_HAL_Driver/Src/stm32f7xx_hal_ltdc.c ****   hltdc->Instance->SRCR = LTDC_SRCR_IMR;
 1064              		.loc 1 891 8 discriminator 2
 1065 0062 FB68     		ldr	r3, [r7, #12]
 1066 0064 1B68     		ldr	r3, [r3]
 1067              		.loc 1 891 25 discriminator 2
 1068 0066 0122     		movs	r2, #1
 1069 0068 5A62     		str	r2, [r3, #36]
 892:Drivers/STM32F7xx_HAL_Driver/Src/stm32f7xx_hal_ltdc.c **** 
 893:Drivers/STM32F7xx_HAL_Driver/Src/stm32f7xx_hal_ltdc.c ****   /* Change the LTDC state*/
 894:Drivers/STM32F7xx_HAL_Driver/Src/stm32f7xx_hal_ltdc.c ****   hltdc->State = HAL_LTDC_STATE_READY;
 1070              		.loc 1 894 16 discriminator 2
 1071 006a FB68     		ldr	r3, [r7, #12]
 1072 006c 0122     		movs	r2, #1
 1073 006e 83F8A120 		strb	r2, [r3, #161]
 895:Drivers/STM32F7xx_HAL_Driver/Src/stm32f7xx_hal_ltdc.c **** 
 896:Drivers/STM32F7xx_HAL_Driver/Src/stm32f7xx_hal_ltdc.c ****   /* Process unlocked */
 897:Drivers/STM32F7xx_HAL_Driver/Src/stm32f7xx_hal_ltdc.c ****   __HAL_UNLOCK(hltdc);
 1074              		.loc 1 897 3 discriminator 2
 1075 0072 FB68     		ldr	r3, [r7, #12]
 1076 0074 0022     		movs	r2, #0
 1077 0076 83F8A020 		strb	r2, [r3, #160]
 898:Drivers/STM32F7xx_HAL_Driver/Src/stm32f7xx_hal_ltdc.c **** 
 899:Drivers/STM32F7xx_HAL_Driver/Src/stm32f7xx_hal_ltdc.c ****   return HAL_OK;
 1078              		.loc 1 899 10 discriminator 2
 1079 007a 0023     		movs	r3, #0
 1080              	.L30:
 900:Drivers/STM32F7xx_HAL_Driver/Src/stm32f7xx_hal_ltdc.c **** }
 1081              		.loc 1 900 1
 1082 007c 1846     		mov	r0, r3
 1083 007e 1437     		adds	r7, r7, #20
 1084              	.LCFI53:
 1085              		.cfi_def_cfa_offset 4
 1086 0080 BD46     		mov	sp, r7
 1087              	.LCFI54:
 1088              		.cfi_def_cfa_register 13
 1089              		@ sp needed
 1090 0082 5DF8047B 		ldr	r7, [sp], #4
 1091              	.LCFI55:
 1092              		.cfi_restore 7
 1093              		.cfi_def_cfa_offset 0
 1094 0086 7047     		bx	lr
 1095              		.cfi_endproc
 1096              	.LFE150:
 1098              		.section	.text.HAL_LTDC_ConfigCLUT,"ax",%progbits
 1099              		.align	1
 1100              		.global	HAL_LTDC_ConfigCLUT
 1101              		.syntax unified
 1102              		.thumb
 1103              		.thumb_func
 1105              	HAL_LTDC_ConfigCLUT:
 1106              	.LFB151:
 901:Drivers/STM32F7xx_HAL_Driver/Src/stm32f7xx_hal_ltdc.c **** 
 902:Drivers/STM32F7xx_HAL_Driver/Src/stm32f7xx_hal_ltdc.c **** /**
 903:Drivers/STM32F7xx_HAL_Driver/Src/stm32f7xx_hal_ltdc.c ****   * @brief  Load the color lookup table.
 904:Drivers/STM32F7xx_HAL_Driver/Src/stm32f7xx_hal_ltdc.c ****   * @param  hltdc     pointer to a LTDC_HandleTypeDef structure that contains
 905:Drivers/STM32F7xx_HAL_Driver/Src/stm32f7xx_hal_ltdc.c ****   *                   the configuration information for the LTDC.
ARM GAS  C:\Users\jisu8\AppData\Local\Temp\cchBTxuu.s 			page 36


 906:Drivers/STM32F7xx_HAL_Driver/Src/stm32f7xx_hal_ltdc.c ****   * @param  pCLUT     pointer to the color lookup table address.
 907:Drivers/STM32F7xx_HAL_Driver/Src/stm32f7xx_hal_ltdc.c ****   * @param  CLUTSize  the color lookup table size.
 908:Drivers/STM32F7xx_HAL_Driver/Src/stm32f7xx_hal_ltdc.c ****   * @param  LayerIdx  LTDC Layer index.
 909:Drivers/STM32F7xx_HAL_Driver/Src/stm32f7xx_hal_ltdc.c ****   *                   This parameter can be one of the following values:
 910:Drivers/STM32F7xx_HAL_Driver/Src/stm32f7xx_hal_ltdc.c ****   *                   LTDC_LAYER_1 (0) or LTDC_LAYER_2 (1)
 911:Drivers/STM32F7xx_HAL_Driver/Src/stm32f7xx_hal_ltdc.c ****   * @retval HAL status
 912:Drivers/STM32F7xx_HAL_Driver/Src/stm32f7xx_hal_ltdc.c ****   */
 913:Drivers/STM32F7xx_HAL_Driver/Src/stm32f7xx_hal_ltdc.c **** HAL_StatusTypeDef HAL_LTDC_ConfigCLUT(LTDC_HandleTypeDef *hltdc, uint32_t *pCLUT, uint32_t CLUTSize
 914:Drivers/STM32F7xx_HAL_Driver/Src/stm32f7xx_hal_ltdc.c **** {
 1107              		.loc 1 914 1
 1108              		.cfi_startproc
 1109              		@ args = 0, pretend = 0, frame = 32
 1110              		@ frame_needed = 1, uses_anonymous_args = 0
 1111              		@ link register save eliminated.
 1112 0000 80B4     		push	{r7}
 1113              	.LCFI56:
 1114              		.cfi_def_cfa_offset 4
 1115              		.cfi_offset 7, -4
 1116 0002 89B0     		sub	sp, sp, #36
 1117              	.LCFI57:
 1118              		.cfi_def_cfa_offset 40
 1119 0004 00AF     		add	r7, sp, #0
 1120              	.LCFI58:
 1121              		.cfi_def_cfa_register 7
 1122 0006 F860     		str	r0, [r7, #12]
 1123 0008 B960     		str	r1, [r7, #8]
 1124 000a 7A60     		str	r2, [r7, #4]
 1125 000c 3B60     		str	r3, [r7]
 915:Drivers/STM32F7xx_HAL_Driver/Src/stm32f7xx_hal_ltdc.c ****   uint32_t tmp;
 916:Drivers/STM32F7xx_HAL_Driver/Src/stm32f7xx_hal_ltdc.c ****   uint32_t counter;
 917:Drivers/STM32F7xx_HAL_Driver/Src/stm32f7xx_hal_ltdc.c ****   uint32_t *pcolorlut = pCLUT;
 1126              		.loc 1 917 13
 1127 000e BB68     		ldr	r3, [r7, #8]
 1128 0010 7B61     		str	r3, [r7, #20]
 918:Drivers/STM32F7xx_HAL_Driver/Src/stm32f7xx_hal_ltdc.c ****   /* Check the parameters */
 919:Drivers/STM32F7xx_HAL_Driver/Src/stm32f7xx_hal_ltdc.c ****   assert_param(IS_LTDC_LAYER(LayerIdx));
 920:Drivers/STM32F7xx_HAL_Driver/Src/stm32f7xx_hal_ltdc.c **** 
 921:Drivers/STM32F7xx_HAL_Driver/Src/stm32f7xx_hal_ltdc.c ****   /* Process locked */
 922:Drivers/STM32F7xx_HAL_Driver/Src/stm32f7xx_hal_ltdc.c ****   __HAL_LOCK(hltdc);
 1129              		.loc 1 922 3
 1130 0012 FB68     		ldr	r3, [r7, #12]
 1131 0014 93F8A030 		ldrb	r3, [r3, #160]	@ zero_extendqisi2
 1132 0018 012B     		cmp	r3, #1
 1133 001a 01D1     		bne	.L32
 1134              		.loc 1 922 3 is_stmt 0 discriminator 1
 1135 001c 0223     		movs	r3, #2
 1136 001e 57E0     		b	.L33
 1137              	.L32:
 1138              		.loc 1 922 3 discriminator 2
 1139 0020 FB68     		ldr	r3, [r7, #12]
 1140 0022 0122     		movs	r2, #1
 1141 0024 83F8A020 		strb	r2, [r3, #160]
 923:Drivers/STM32F7xx_HAL_Driver/Src/stm32f7xx_hal_ltdc.c **** 
 924:Drivers/STM32F7xx_HAL_Driver/Src/stm32f7xx_hal_ltdc.c ****   /* Change LTDC peripheral state */
 925:Drivers/STM32F7xx_HAL_Driver/Src/stm32f7xx_hal_ltdc.c ****   hltdc->State = HAL_LTDC_STATE_BUSY;
 1142              		.loc 1 925 16 is_stmt 1 discriminator 2
 1143 0028 FB68     		ldr	r3, [r7, #12]
ARM GAS  C:\Users\jisu8\AppData\Local\Temp\cchBTxuu.s 			page 37


 1144 002a 0222     		movs	r2, #2
 1145 002c 83F8A120 		strb	r2, [r3, #161]
 926:Drivers/STM32F7xx_HAL_Driver/Src/stm32f7xx_hal_ltdc.c **** 
 927:Drivers/STM32F7xx_HAL_Driver/Src/stm32f7xx_hal_ltdc.c ****   for (counter = 0U; (counter < CLUTSize); counter++)
 1146              		.loc 1 927 16 discriminator 2
 1147 0030 0023     		movs	r3, #0
 1148 0032 BB61     		str	r3, [r7, #24]
 1149              		.loc 1 927 3 discriminator 2
 1150 0034 3FE0     		b	.L34
 1151              	.L37:
 928:Drivers/STM32F7xx_HAL_Driver/Src/stm32f7xx_hal_ltdc.c ****   {
 929:Drivers/STM32F7xx_HAL_Driver/Src/stm32f7xx_hal_ltdc.c ****     if (hltdc->LayerCfg[LayerIdx].PixelFormat == LTDC_PIXEL_FORMAT_AL44)
 1152              		.loc 1 929 34
 1153 0036 FA68     		ldr	r2, [r7, #12]
 1154 0038 3B68     		ldr	r3, [r7]
 1155 003a 3421     		movs	r1, #52
 1156 003c 01FB03F3 		mul	r3, r1, r3
 1157 0040 1344     		add	r3, r3, r2
 1158 0042 4833     		adds	r3, r3, #72
 1159 0044 1B68     		ldr	r3, [r3]
 1160              		.loc 1 929 8
 1161 0046 062B     		cmp	r3, #6
 1162 0048 14D1     		bne	.L35
 930:Drivers/STM32F7xx_HAL_Driver/Src/stm32f7xx_hal_ltdc.c ****     {
 931:Drivers/STM32F7xx_HAL_Driver/Src/stm32f7xx_hal_ltdc.c ****       tmp  = (((counter + (16U * counter)) << 24U) | ((uint32_t)(*pcolorlut) & 0xFFU) | \
 1163              		.loc 1 931 25
 1164 004a BA69     		ldr	r2, [r7, #24]
 1165 004c 1346     		mov	r3, r2
 1166 004e 1B01     		lsls	r3, r3, #4
 1167 0050 1344     		add	r3, r3, r2
 1168              		.loc 1 931 44
 1169 0052 1A06     		lsls	r2, r3, #24
 1170              		.loc 1 931 55
 1171 0054 7B69     		ldr	r3, [r7, #20]
 1172 0056 1B68     		ldr	r3, [r3]
 1173              		.loc 1 931 78
 1174 0058 DBB2     		uxtb	r3, r3
 1175              		.loc 1 931 52
 1176 005a 1A43     		orrs	r2, r2, r3
 932:Drivers/STM32F7xx_HAL_Driver/Src/stm32f7xx_hal_ltdc.c ****               ((uint32_t)(*pcolorlut) & 0xFF00U) | ((uint32_t)(*pcolorlut) & 0xFF0000U));
 1177              		.loc 1 932 16
 1178 005c 7B69     		ldr	r3, [r7, #20]
 1179 005e 1B68     		ldr	r3, [r3]
 1180              		.loc 1 932 39
 1181 0060 03F47F43 		and	r3, r3, #65280
 931:Drivers/STM32F7xx_HAL_Driver/Src/stm32f7xx_hal_ltdc.c ****               ((uint32_t)(*pcolorlut) & 0xFF00U) | ((uint32_t)(*pcolorlut) & 0xFF0000U));
 1182              		.loc 1 931 87
 1183 0064 1A43     		orrs	r2, r2, r3
 1184              		.loc 1 932 53
 1185 0066 7B69     		ldr	r3, [r7, #20]
 1186 0068 1B68     		ldr	r3, [r3]
 1187              		.loc 1 932 76
 1188 006a 03F47F03 		and	r3, r3, #16711680
 931:Drivers/STM32F7xx_HAL_Driver/Src/stm32f7xx_hal_ltdc.c ****               ((uint32_t)(*pcolorlut) & 0xFF00U) | ((uint32_t)(*pcolorlut) & 0xFF0000U));
 1189              		.loc 1 931 12
 1190 006e 1343     		orrs	r3, r3, r2
 1191 0070 FB61     		str	r3, [r7, #28]
ARM GAS  C:\Users\jisu8\AppData\Local\Temp\cchBTxuu.s 			page 38


 1192 0072 10E0     		b	.L36
 1193              	.L35:
 933:Drivers/STM32F7xx_HAL_Driver/Src/stm32f7xx_hal_ltdc.c ****     }
 934:Drivers/STM32F7xx_HAL_Driver/Src/stm32f7xx_hal_ltdc.c ****     else
 935:Drivers/STM32F7xx_HAL_Driver/Src/stm32f7xx_hal_ltdc.c ****     {
 936:Drivers/STM32F7xx_HAL_Driver/Src/stm32f7xx_hal_ltdc.c ****       tmp  = ((counter << 24U) | ((uint32_t)(*pcolorlut) & 0xFFU) | \
 1194              		.loc 1 936 24
 1195 0074 BB69     		ldr	r3, [r7, #24]
 1196 0076 1A06     		lsls	r2, r3, #24
 1197              		.loc 1 936 35
 1198 0078 7B69     		ldr	r3, [r7, #20]
 1199 007a 1B68     		ldr	r3, [r3]
 1200              		.loc 1 936 58
 1201 007c DBB2     		uxtb	r3, r3
 1202              		.loc 1 936 32
 1203 007e 1A43     		orrs	r2, r2, r3
 937:Drivers/STM32F7xx_HAL_Driver/Src/stm32f7xx_hal_ltdc.c ****               ((uint32_t)(*pcolorlut) & 0xFF00U) | ((uint32_t)(*pcolorlut) & 0xFF0000U));
 1204              		.loc 1 937 16
 1205 0080 7B69     		ldr	r3, [r7, #20]
 1206 0082 1B68     		ldr	r3, [r3]
 1207              		.loc 1 937 39
 1208 0084 03F47F43 		and	r3, r3, #65280
 936:Drivers/STM32F7xx_HAL_Driver/Src/stm32f7xx_hal_ltdc.c ****               ((uint32_t)(*pcolorlut) & 0xFF00U) | ((uint32_t)(*pcolorlut) & 0xFF0000U));
 1209              		.loc 1 936 67
 1210 0088 1A43     		orrs	r2, r2, r3
 1211              		.loc 1 937 53
 1212 008a 7B69     		ldr	r3, [r7, #20]
 1213 008c 1B68     		ldr	r3, [r3]
 1214              		.loc 1 937 76
 1215 008e 03F47F03 		and	r3, r3, #16711680
 936:Drivers/STM32F7xx_HAL_Driver/Src/stm32f7xx_hal_ltdc.c ****               ((uint32_t)(*pcolorlut) & 0xFF00U) | ((uint32_t)(*pcolorlut) & 0xFF0000U));
 1216              		.loc 1 936 12
 1217 0092 1343     		orrs	r3, r3, r2
 1218 0094 FB61     		str	r3, [r7, #28]
 1219              	.L36:
 938:Drivers/STM32F7xx_HAL_Driver/Src/stm32f7xx_hal_ltdc.c ****     }
 939:Drivers/STM32F7xx_HAL_Driver/Src/stm32f7xx_hal_ltdc.c **** 
 940:Drivers/STM32F7xx_HAL_Driver/Src/stm32f7xx_hal_ltdc.c ****     pcolorlut++;
 1220              		.loc 1 940 14 discriminator 2
 1221 0096 7B69     		ldr	r3, [r7, #20]
 1222 0098 0433     		adds	r3, r3, #4
 1223 009a 7B61     		str	r3, [r7, #20]
 941:Drivers/STM32F7xx_HAL_Driver/Src/stm32f7xx_hal_ltdc.c **** 
 942:Drivers/STM32F7xx_HAL_Driver/Src/stm32f7xx_hal_ltdc.c ****     /* Specifies the C-LUT address and RGB value */
 943:Drivers/STM32F7xx_HAL_Driver/Src/stm32f7xx_hal_ltdc.c ****     LTDC_LAYER(hltdc, LayerIdx)->CLUTWR  = tmp;
 1224              		.loc 1 943 5 discriminator 2
 1225 009c FB68     		ldr	r3, [r7, #12]
 1226 009e 1B68     		ldr	r3, [r3]
 1227 00a0 1A46     		mov	r2, r3
 1228 00a2 3B68     		ldr	r3, [r7]
 1229 00a4 DB01     		lsls	r3, r3, #7
 1230 00a6 1344     		add	r3, r3, r2
 1231 00a8 8433     		adds	r3, r3, #132
 1232 00aa 1A46     		mov	r2, r3
 1233              		.loc 1 943 42 discriminator 2
 1234 00ac FB69     		ldr	r3, [r7, #28]
 1235 00ae 1364     		str	r3, [r2, #64]
ARM GAS  C:\Users\jisu8\AppData\Local\Temp\cchBTxuu.s 			page 39


 927:Drivers/STM32F7xx_HAL_Driver/Src/stm32f7xx_hal_ltdc.c ****   {
 1236              		.loc 1 927 51 discriminator 2
 1237 00b0 BB69     		ldr	r3, [r7, #24]
 1238 00b2 0133     		adds	r3, r3, #1
 1239 00b4 BB61     		str	r3, [r7, #24]
 1240              	.L34:
 927:Drivers/STM32F7xx_HAL_Driver/Src/stm32f7xx_hal_ltdc.c ****   {
 1241              		.loc 1 927 3 discriminator 1
 1242 00b6 BA69     		ldr	r2, [r7, #24]
 1243 00b8 7B68     		ldr	r3, [r7, #4]
 1244 00ba 9A42     		cmp	r2, r3
 1245 00bc BBD3     		bcc	.L37
 944:Drivers/STM32F7xx_HAL_Driver/Src/stm32f7xx_hal_ltdc.c ****   }
 945:Drivers/STM32F7xx_HAL_Driver/Src/stm32f7xx_hal_ltdc.c **** 
 946:Drivers/STM32F7xx_HAL_Driver/Src/stm32f7xx_hal_ltdc.c ****   /* Change the LTDC state*/
 947:Drivers/STM32F7xx_HAL_Driver/Src/stm32f7xx_hal_ltdc.c ****   hltdc->State = HAL_LTDC_STATE_READY;
 1246              		.loc 1 947 16
 1247 00be FB68     		ldr	r3, [r7, #12]
 1248 00c0 0122     		movs	r2, #1
 1249 00c2 83F8A120 		strb	r2, [r3, #161]
 948:Drivers/STM32F7xx_HAL_Driver/Src/stm32f7xx_hal_ltdc.c **** 
 949:Drivers/STM32F7xx_HAL_Driver/Src/stm32f7xx_hal_ltdc.c ****   /* Process unlocked */
 950:Drivers/STM32F7xx_HAL_Driver/Src/stm32f7xx_hal_ltdc.c ****   __HAL_UNLOCK(hltdc);
 1250              		.loc 1 950 3
 1251 00c6 FB68     		ldr	r3, [r7, #12]
 1252 00c8 0022     		movs	r2, #0
 1253 00ca 83F8A020 		strb	r2, [r3, #160]
 951:Drivers/STM32F7xx_HAL_Driver/Src/stm32f7xx_hal_ltdc.c **** 
 952:Drivers/STM32F7xx_HAL_Driver/Src/stm32f7xx_hal_ltdc.c ****   return HAL_OK;
 1254              		.loc 1 952 10
 1255 00ce 0023     		movs	r3, #0
 1256              	.L33:
 953:Drivers/STM32F7xx_HAL_Driver/Src/stm32f7xx_hal_ltdc.c **** }
 1257              		.loc 1 953 1
 1258 00d0 1846     		mov	r0, r3
 1259 00d2 2437     		adds	r7, r7, #36
 1260              	.LCFI59:
 1261              		.cfi_def_cfa_offset 4
 1262 00d4 BD46     		mov	sp, r7
 1263              	.LCFI60:
 1264              		.cfi_def_cfa_register 13
 1265              		@ sp needed
 1266 00d6 5DF8047B 		ldr	r7, [sp], #4
 1267              	.LCFI61:
 1268              		.cfi_restore 7
 1269              		.cfi_def_cfa_offset 0
 1270 00da 7047     		bx	lr
 1271              		.cfi_endproc
 1272              	.LFE151:
 1274              		.section	.text.HAL_LTDC_EnableColorKeying,"ax",%progbits
 1275              		.align	1
 1276              		.global	HAL_LTDC_EnableColorKeying
 1277              		.syntax unified
 1278              		.thumb
 1279              		.thumb_func
 1281              	HAL_LTDC_EnableColorKeying:
 1282              	.LFB152:
ARM GAS  C:\Users\jisu8\AppData\Local\Temp\cchBTxuu.s 			page 40


 954:Drivers/STM32F7xx_HAL_Driver/Src/stm32f7xx_hal_ltdc.c **** 
 955:Drivers/STM32F7xx_HAL_Driver/Src/stm32f7xx_hal_ltdc.c **** /**
 956:Drivers/STM32F7xx_HAL_Driver/Src/stm32f7xx_hal_ltdc.c ****   * @brief  Enable the color keying.
 957:Drivers/STM32F7xx_HAL_Driver/Src/stm32f7xx_hal_ltdc.c ****   * @param  hltdc     pointer to a LTDC_HandleTypeDef structure that contains
 958:Drivers/STM32F7xx_HAL_Driver/Src/stm32f7xx_hal_ltdc.c ****   *                   the configuration information for the LTDC.
 959:Drivers/STM32F7xx_HAL_Driver/Src/stm32f7xx_hal_ltdc.c ****   * @param  LayerIdx  LTDC Layer index.
 960:Drivers/STM32F7xx_HAL_Driver/Src/stm32f7xx_hal_ltdc.c ****   *                   This parameter can be one of the following values:
 961:Drivers/STM32F7xx_HAL_Driver/Src/stm32f7xx_hal_ltdc.c ****   *                   LTDC_LAYER_1 (0) or LTDC_LAYER_2 (1)
 962:Drivers/STM32F7xx_HAL_Driver/Src/stm32f7xx_hal_ltdc.c ****   * @retval  HAL status
 963:Drivers/STM32F7xx_HAL_Driver/Src/stm32f7xx_hal_ltdc.c ****   */
 964:Drivers/STM32F7xx_HAL_Driver/Src/stm32f7xx_hal_ltdc.c **** HAL_StatusTypeDef HAL_LTDC_EnableColorKeying(LTDC_HandleTypeDef *hltdc, uint32_t LayerIdx)
 965:Drivers/STM32F7xx_HAL_Driver/Src/stm32f7xx_hal_ltdc.c **** {
 1283              		.loc 1 965 1
 1284              		.cfi_startproc
 1285              		@ args = 0, pretend = 0, frame = 8
 1286              		@ frame_needed = 1, uses_anonymous_args = 0
 1287              		@ link register save eliminated.
 1288 0000 80B4     		push	{r7}
 1289              	.LCFI62:
 1290              		.cfi_def_cfa_offset 4
 1291              		.cfi_offset 7, -4
 1292 0002 83B0     		sub	sp, sp, #12
 1293              	.LCFI63:
 1294              		.cfi_def_cfa_offset 16
 1295 0004 00AF     		add	r7, sp, #0
 1296              	.LCFI64:
 1297              		.cfi_def_cfa_register 7
 1298 0006 7860     		str	r0, [r7, #4]
 1299 0008 3960     		str	r1, [r7]
 966:Drivers/STM32F7xx_HAL_Driver/Src/stm32f7xx_hal_ltdc.c ****   /* Check the parameters */
 967:Drivers/STM32F7xx_HAL_Driver/Src/stm32f7xx_hal_ltdc.c ****   assert_param(IS_LTDC_LAYER(LayerIdx));
 968:Drivers/STM32F7xx_HAL_Driver/Src/stm32f7xx_hal_ltdc.c **** 
 969:Drivers/STM32F7xx_HAL_Driver/Src/stm32f7xx_hal_ltdc.c ****   /* Process locked */
 970:Drivers/STM32F7xx_HAL_Driver/Src/stm32f7xx_hal_ltdc.c ****   __HAL_LOCK(hltdc);
 1300              		.loc 1 970 3
 1301 000a 7B68     		ldr	r3, [r7, #4]
 1302 000c 93F8A030 		ldrb	r3, [r3, #160]	@ zero_extendqisi2
 1303 0010 012B     		cmp	r3, #1
 1304 0012 01D1     		bne	.L39
 1305              		.loc 1 970 3 is_stmt 0 discriminator 1
 1306 0014 0223     		movs	r3, #2
 1307 0016 26E0     		b	.L40
 1308              	.L39:
 1309              		.loc 1 970 3 discriminator 2
 1310 0018 7B68     		ldr	r3, [r7, #4]
 1311 001a 0122     		movs	r2, #1
 1312 001c 83F8A020 		strb	r2, [r3, #160]
 971:Drivers/STM32F7xx_HAL_Driver/Src/stm32f7xx_hal_ltdc.c **** 
 972:Drivers/STM32F7xx_HAL_Driver/Src/stm32f7xx_hal_ltdc.c ****   /* Change LTDC peripheral state */
 973:Drivers/STM32F7xx_HAL_Driver/Src/stm32f7xx_hal_ltdc.c ****   hltdc->State = HAL_LTDC_STATE_BUSY;
 1313              		.loc 1 973 16 is_stmt 1 discriminator 2
 1314 0020 7B68     		ldr	r3, [r7, #4]
 1315 0022 0222     		movs	r2, #2
 1316 0024 83F8A120 		strb	r2, [r3, #161]
 974:Drivers/STM32F7xx_HAL_Driver/Src/stm32f7xx_hal_ltdc.c **** 
 975:Drivers/STM32F7xx_HAL_Driver/Src/stm32f7xx_hal_ltdc.c ****   /* Enable LTDC color keying by setting COLKEN bit */
 976:Drivers/STM32F7xx_HAL_Driver/Src/stm32f7xx_hal_ltdc.c ****   LTDC_LAYER(hltdc, LayerIdx)->CR |= (uint32_t)LTDC_LxCR_COLKEN;
ARM GAS  C:\Users\jisu8\AppData\Local\Temp\cchBTxuu.s 			page 41


 1317              		.loc 1 976 3 discriminator 2
 1318 0028 7B68     		ldr	r3, [r7, #4]
 1319 002a 1B68     		ldr	r3, [r3]
 1320              		.loc 1 976 35 discriminator 2
 1321 002c 1A46     		mov	r2, r3
 1322 002e 3B68     		ldr	r3, [r7]
 1323 0030 DB01     		lsls	r3, r3, #7
 1324 0032 1344     		add	r3, r3, r2
 1325 0034 8433     		adds	r3, r3, #132
 1326 0036 1B68     		ldr	r3, [r3]
 1327              		.loc 1 976 3 discriminator 2
 1328 0038 7A68     		ldr	r2, [r7, #4]
 1329 003a 1268     		ldr	r2, [r2]
 1330              		.loc 1 976 35 discriminator 2
 1331 003c 1146     		mov	r1, r2
 1332 003e 3A68     		ldr	r2, [r7]
 1333 0040 D201     		lsls	r2, r2, #7
 1334 0042 0A44     		add	r2, r2, r1
 1335 0044 8432     		adds	r2, r2, #132
 1336 0046 43F00203 		orr	r3, r3, #2
 1337 004a 1360     		str	r3, [r2]
 977:Drivers/STM32F7xx_HAL_Driver/Src/stm32f7xx_hal_ltdc.c **** 
 978:Drivers/STM32F7xx_HAL_Driver/Src/stm32f7xx_hal_ltdc.c ****   /* Set the Immediate Reload type */
 979:Drivers/STM32F7xx_HAL_Driver/Src/stm32f7xx_hal_ltdc.c ****   hltdc->Instance->SRCR = LTDC_SRCR_IMR;
 1338              		.loc 1 979 8 discriminator 2
 1339 004c 7B68     		ldr	r3, [r7, #4]
 1340 004e 1B68     		ldr	r3, [r3]
 1341              		.loc 1 979 25 discriminator 2
 1342 0050 0122     		movs	r2, #1
 1343 0052 5A62     		str	r2, [r3, #36]
 980:Drivers/STM32F7xx_HAL_Driver/Src/stm32f7xx_hal_ltdc.c **** 
 981:Drivers/STM32F7xx_HAL_Driver/Src/stm32f7xx_hal_ltdc.c ****   /* Change the LTDC state*/
 982:Drivers/STM32F7xx_HAL_Driver/Src/stm32f7xx_hal_ltdc.c ****   hltdc->State = HAL_LTDC_STATE_READY;
 1344              		.loc 1 982 16 discriminator 2
 1345 0054 7B68     		ldr	r3, [r7, #4]
 1346 0056 0122     		movs	r2, #1
 1347 0058 83F8A120 		strb	r2, [r3, #161]
 983:Drivers/STM32F7xx_HAL_Driver/Src/stm32f7xx_hal_ltdc.c **** 
 984:Drivers/STM32F7xx_HAL_Driver/Src/stm32f7xx_hal_ltdc.c ****   /* Process unlocked */
 985:Drivers/STM32F7xx_HAL_Driver/Src/stm32f7xx_hal_ltdc.c ****   __HAL_UNLOCK(hltdc);
 1348              		.loc 1 985 3 discriminator 2
 1349 005c 7B68     		ldr	r3, [r7, #4]
 1350 005e 0022     		movs	r2, #0
 1351 0060 83F8A020 		strb	r2, [r3, #160]
 986:Drivers/STM32F7xx_HAL_Driver/Src/stm32f7xx_hal_ltdc.c **** 
 987:Drivers/STM32F7xx_HAL_Driver/Src/stm32f7xx_hal_ltdc.c ****   return HAL_OK;
 1352              		.loc 1 987 10 discriminator 2
 1353 0064 0023     		movs	r3, #0
 1354              	.L40:
 988:Drivers/STM32F7xx_HAL_Driver/Src/stm32f7xx_hal_ltdc.c **** }
 1355              		.loc 1 988 1
 1356 0066 1846     		mov	r0, r3
 1357 0068 0C37     		adds	r7, r7, #12
 1358              	.LCFI65:
 1359              		.cfi_def_cfa_offset 4
 1360 006a BD46     		mov	sp, r7
 1361              	.LCFI66:
ARM GAS  C:\Users\jisu8\AppData\Local\Temp\cchBTxuu.s 			page 42


 1362              		.cfi_def_cfa_register 13
 1363              		@ sp needed
 1364 006c 5DF8047B 		ldr	r7, [sp], #4
 1365              	.LCFI67:
 1366              		.cfi_restore 7
 1367              		.cfi_def_cfa_offset 0
 1368 0070 7047     		bx	lr
 1369              		.cfi_endproc
 1370              	.LFE152:
 1372              		.section	.text.HAL_LTDC_DisableColorKeying,"ax",%progbits
 1373              		.align	1
 1374              		.global	HAL_LTDC_DisableColorKeying
 1375              		.syntax unified
 1376              		.thumb
 1377              		.thumb_func
 1379              	HAL_LTDC_DisableColorKeying:
 1380              	.LFB153:
 989:Drivers/STM32F7xx_HAL_Driver/Src/stm32f7xx_hal_ltdc.c **** 
 990:Drivers/STM32F7xx_HAL_Driver/Src/stm32f7xx_hal_ltdc.c **** /**
 991:Drivers/STM32F7xx_HAL_Driver/Src/stm32f7xx_hal_ltdc.c ****   * @brief  Disable the color keying.
 992:Drivers/STM32F7xx_HAL_Driver/Src/stm32f7xx_hal_ltdc.c ****   * @param  hltdc     pointer to a LTDC_HandleTypeDef structure that contains
 993:Drivers/STM32F7xx_HAL_Driver/Src/stm32f7xx_hal_ltdc.c ****   *                   the configuration information for the LTDC.
 994:Drivers/STM32F7xx_HAL_Driver/Src/stm32f7xx_hal_ltdc.c ****   * @param  LayerIdx  LTDC Layer index.
 995:Drivers/STM32F7xx_HAL_Driver/Src/stm32f7xx_hal_ltdc.c ****   *                   This parameter can be one of the following values:
 996:Drivers/STM32F7xx_HAL_Driver/Src/stm32f7xx_hal_ltdc.c ****   *                   LTDC_LAYER_1 (0) or LTDC_LAYER_2 (1)
 997:Drivers/STM32F7xx_HAL_Driver/Src/stm32f7xx_hal_ltdc.c ****   * @retval  HAL status
 998:Drivers/STM32F7xx_HAL_Driver/Src/stm32f7xx_hal_ltdc.c ****   */
 999:Drivers/STM32F7xx_HAL_Driver/Src/stm32f7xx_hal_ltdc.c **** HAL_StatusTypeDef HAL_LTDC_DisableColorKeying(LTDC_HandleTypeDef *hltdc, uint32_t LayerIdx)
1000:Drivers/STM32F7xx_HAL_Driver/Src/stm32f7xx_hal_ltdc.c **** {
 1381              		.loc 1 1000 1
 1382              		.cfi_startproc
 1383              		@ args = 0, pretend = 0, frame = 8
 1384              		@ frame_needed = 1, uses_anonymous_args = 0
 1385              		@ link register save eliminated.
 1386 0000 80B4     		push	{r7}
 1387              	.LCFI68:
 1388              		.cfi_def_cfa_offset 4
 1389              		.cfi_offset 7, -4
 1390 0002 83B0     		sub	sp, sp, #12
 1391              	.LCFI69:
 1392              		.cfi_def_cfa_offset 16
 1393 0004 00AF     		add	r7, sp, #0
 1394              	.LCFI70:
 1395              		.cfi_def_cfa_register 7
 1396 0006 7860     		str	r0, [r7, #4]
 1397 0008 3960     		str	r1, [r7]
1001:Drivers/STM32F7xx_HAL_Driver/Src/stm32f7xx_hal_ltdc.c ****   /* Check the parameters */
1002:Drivers/STM32F7xx_HAL_Driver/Src/stm32f7xx_hal_ltdc.c ****   assert_param(IS_LTDC_LAYER(LayerIdx));
1003:Drivers/STM32F7xx_HAL_Driver/Src/stm32f7xx_hal_ltdc.c **** 
1004:Drivers/STM32F7xx_HAL_Driver/Src/stm32f7xx_hal_ltdc.c ****   /* Process locked */
1005:Drivers/STM32F7xx_HAL_Driver/Src/stm32f7xx_hal_ltdc.c ****   __HAL_LOCK(hltdc);
 1398              		.loc 1 1005 3
 1399 000a 7B68     		ldr	r3, [r7, #4]
 1400 000c 93F8A030 		ldrb	r3, [r3, #160]	@ zero_extendqisi2
 1401 0010 012B     		cmp	r3, #1
 1402 0012 01D1     		bne	.L42
 1403              		.loc 1 1005 3 is_stmt 0 discriminator 1
ARM GAS  C:\Users\jisu8\AppData\Local\Temp\cchBTxuu.s 			page 43


 1404 0014 0223     		movs	r3, #2
 1405 0016 26E0     		b	.L43
 1406              	.L42:
 1407              		.loc 1 1005 3 discriminator 2
 1408 0018 7B68     		ldr	r3, [r7, #4]
 1409 001a 0122     		movs	r2, #1
 1410 001c 83F8A020 		strb	r2, [r3, #160]
1006:Drivers/STM32F7xx_HAL_Driver/Src/stm32f7xx_hal_ltdc.c **** 
1007:Drivers/STM32F7xx_HAL_Driver/Src/stm32f7xx_hal_ltdc.c ****   /* Change LTDC peripheral state */
1008:Drivers/STM32F7xx_HAL_Driver/Src/stm32f7xx_hal_ltdc.c ****   hltdc->State = HAL_LTDC_STATE_BUSY;
 1411              		.loc 1 1008 16 is_stmt 1 discriminator 2
 1412 0020 7B68     		ldr	r3, [r7, #4]
 1413 0022 0222     		movs	r2, #2
 1414 0024 83F8A120 		strb	r2, [r3, #161]
1009:Drivers/STM32F7xx_HAL_Driver/Src/stm32f7xx_hal_ltdc.c **** 
1010:Drivers/STM32F7xx_HAL_Driver/Src/stm32f7xx_hal_ltdc.c ****   /* Disable LTDC color keying by setting COLKEN bit */
1011:Drivers/STM32F7xx_HAL_Driver/Src/stm32f7xx_hal_ltdc.c ****   LTDC_LAYER(hltdc, LayerIdx)->CR &= ~(uint32_t)LTDC_LxCR_COLKEN;
 1415              		.loc 1 1011 3 discriminator 2
 1416 0028 7B68     		ldr	r3, [r7, #4]
 1417 002a 1B68     		ldr	r3, [r3]
 1418              		.loc 1 1011 35 discriminator 2
 1419 002c 1A46     		mov	r2, r3
 1420 002e 3B68     		ldr	r3, [r7]
 1421 0030 DB01     		lsls	r3, r3, #7
 1422 0032 1344     		add	r3, r3, r2
 1423 0034 8433     		adds	r3, r3, #132
 1424 0036 1B68     		ldr	r3, [r3]
 1425              		.loc 1 1011 3 discriminator 2
 1426 0038 7A68     		ldr	r2, [r7, #4]
 1427 003a 1268     		ldr	r2, [r2]
 1428              		.loc 1 1011 35 discriminator 2
 1429 003c 1146     		mov	r1, r2
 1430 003e 3A68     		ldr	r2, [r7]
 1431 0040 D201     		lsls	r2, r2, #7
 1432 0042 0A44     		add	r2, r2, r1
 1433 0044 8432     		adds	r2, r2, #132
 1434 0046 23F00203 		bic	r3, r3, #2
 1435 004a 1360     		str	r3, [r2]
1012:Drivers/STM32F7xx_HAL_Driver/Src/stm32f7xx_hal_ltdc.c **** 
1013:Drivers/STM32F7xx_HAL_Driver/Src/stm32f7xx_hal_ltdc.c ****   /* Set the Immediate Reload type */
1014:Drivers/STM32F7xx_HAL_Driver/Src/stm32f7xx_hal_ltdc.c ****   hltdc->Instance->SRCR = LTDC_SRCR_IMR;
 1436              		.loc 1 1014 8 discriminator 2
 1437 004c 7B68     		ldr	r3, [r7, #4]
 1438 004e 1B68     		ldr	r3, [r3]
 1439              		.loc 1 1014 25 discriminator 2
 1440 0050 0122     		movs	r2, #1
 1441 0052 5A62     		str	r2, [r3, #36]
1015:Drivers/STM32F7xx_HAL_Driver/Src/stm32f7xx_hal_ltdc.c **** 
1016:Drivers/STM32F7xx_HAL_Driver/Src/stm32f7xx_hal_ltdc.c ****   /* Change the LTDC state*/
1017:Drivers/STM32F7xx_HAL_Driver/Src/stm32f7xx_hal_ltdc.c ****   hltdc->State = HAL_LTDC_STATE_READY;
 1442              		.loc 1 1017 16 discriminator 2
 1443 0054 7B68     		ldr	r3, [r7, #4]
 1444 0056 0122     		movs	r2, #1
 1445 0058 83F8A120 		strb	r2, [r3, #161]
1018:Drivers/STM32F7xx_HAL_Driver/Src/stm32f7xx_hal_ltdc.c **** 
1019:Drivers/STM32F7xx_HAL_Driver/Src/stm32f7xx_hal_ltdc.c ****   /* Process unlocked */
1020:Drivers/STM32F7xx_HAL_Driver/Src/stm32f7xx_hal_ltdc.c ****   __HAL_UNLOCK(hltdc);
ARM GAS  C:\Users\jisu8\AppData\Local\Temp\cchBTxuu.s 			page 44


 1446              		.loc 1 1020 3 discriminator 2
 1447 005c 7B68     		ldr	r3, [r7, #4]
 1448 005e 0022     		movs	r2, #0
 1449 0060 83F8A020 		strb	r2, [r3, #160]
1021:Drivers/STM32F7xx_HAL_Driver/Src/stm32f7xx_hal_ltdc.c **** 
1022:Drivers/STM32F7xx_HAL_Driver/Src/stm32f7xx_hal_ltdc.c ****   return HAL_OK;
 1450              		.loc 1 1022 10 discriminator 2
 1451 0064 0023     		movs	r3, #0
 1452              	.L43:
1023:Drivers/STM32F7xx_HAL_Driver/Src/stm32f7xx_hal_ltdc.c **** }
 1453              		.loc 1 1023 1
 1454 0066 1846     		mov	r0, r3
 1455 0068 0C37     		adds	r7, r7, #12
 1456              	.LCFI71:
 1457              		.cfi_def_cfa_offset 4
 1458 006a BD46     		mov	sp, r7
 1459              	.LCFI72:
 1460              		.cfi_def_cfa_register 13
 1461              		@ sp needed
 1462 006c 5DF8047B 		ldr	r7, [sp], #4
 1463              	.LCFI73:
 1464              		.cfi_restore 7
 1465              		.cfi_def_cfa_offset 0
 1466 0070 7047     		bx	lr
 1467              		.cfi_endproc
 1468              	.LFE153:
 1470              		.section	.text.HAL_LTDC_EnableCLUT,"ax",%progbits
 1471              		.align	1
 1472              		.global	HAL_LTDC_EnableCLUT
 1473              		.syntax unified
 1474              		.thumb
 1475              		.thumb_func
 1477              	HAL_LTDC_EnableCLUT:
 1478              	.LFB154:
1024:Drivers/STM32F7xx_HAL_Driver/Src/stm32f7xx_hal_ltdc.c **** 
1025:Drivers/STM32F7xx_HAL_Driver/Src/stm32f7xx_hal_ltdc.c **** /**
1026:Drivers/STM32F7xx_HAL_Driver/Src/stm32f7xx_hal_ltdc.c ****   * @brief  Enable the color lookup table.
1027:Drivers/STM32F7xx_HAL_Driver/Src/stm32f7xx_hal_ltdc.c ****   * @param  hltdc     pointer to a LTDC_HandleTypeDef structure that contains
1028:Drivers/STM32F7xx_HAL_Driver/Src/stm32f7xx_hal_ltdc.c ****   *                   the configuration information for the LTDC.
1029:Drivers/STM32F7xx_HAL_Driver/Src/stm32f7xx_hal_ltdc.c ****   * @param  LayerIdx  LTDC Layer index.
1030:Drivers/STM32F7xx_HAL_Driver/Src/stm32f7xx_hal_ltdc.c ****   *                   This parameter can be one of the following values:
1031:Drivers/STM32F7xx_HAL_Driver/Src/stm32f7xx_hal_ltdc.c ****   *                   LTDC_LAYER_1 (0) or LTDC_LAYER_2 (1)
1032:Drivers/STM32F7xx_HAL_Driver/Src/stm32f7xx_hal_ltdc.c ****   * @retval  HAL status
1033:Drivers/STM32F7xx_HAL_Driver/Src/stm32f7xx_hal_ltdc.c ****   */
1034:Drivers/STM32F7xx_HAL_Driver/Src/stm32f7xx_hal_ltdc.c **** HAL_StatusTypeDef HAL_LTDC_EnableCLUT(LTDC_HandleTypeDef *hltdc, uint32_t LayerIdx)
1035:Drivers/STM32F7xx_HAL_Driver/Src/stm32f7xx_hal_ltdc.c **** {
 1479              		.loc 1 1035 1
 1480              		.cfi_startproc
 1481              		@ args = 0, pretend = 0, frame = 8
 1482              		@ frame_needed = 1, uses_anonymous_args = 0
 1483              		@ link register save eliminated.
 1484 0000 80B4     		push	{r7}
 1485              	.LCFI74:
 1486              		.cfi_def_cfa_offset 4
 1487              		.cfi_offset 7, -4
 1488 0002 83B0     		sub	sp, sp, #12
 1489              	.LCFI75:
ARM GAS  C:\Users\jisu8\AppData\Local\Temp\cchBTxuu.s 			page 45


 1490              		.cfi_def_cfa_offset 16
 1491 0004 00AF     		add	r7, sp, #0
 1492              	.LCFI76:
 1493              		.cfi_def_cfa_register 7
 1494 0006 7860     		str	r0, [r7, #4]
 1495 0008 3960     		str	r1, [r7]
1036:Drivers/STM32F7xx_HAL_Driver/Src/stm32f7xx_hal_ltdc.c ****   /* Check the parameters */
1037:Drivers/STM32F7xx_HAL_Driver/Src/stm32f7xx_hal_ltdc.c ****   assert_param(IS_LTDC_LAYER(LayerIdx));
1038:Drivers/STM32F7xx_HAL_Driver/Src/stm32f7xx_hal_ltdc.c **** 
1039:Drivers/STM32F7xx_HAL_Driver/Src/stm32f7xx_hal_ltdc.c ****   /* Process locked */
1040:Drivers/STM32F7xx_HAL_Driver/Src/stm32f7xx_hal_ltdc.c ****   __HAL_LOCK(hltdc);
 1496              		.loc 1 1040 3
 1497 000a 7B68     		ldr	r3, [r7, #4]
 1498 000c 93F8A030 		ldrb	r3, [r3, #160]	@ zero_extendqisi2
 1499 0010 012B     		cmp	r3, #1
 1500 0012 01D1     		bne	.L45
 1501              		.loc 1 1040 3 is_stmt 0 discriminator 1
 1502 0014 0223     		movs	r3, #2
 1503 0016 26E0     		b	.L46
 1504              	.L45:
 1505              		.loc 1 1040 3 discriminator 2
 1506 0018 7B68     		ldr	r3, [r7, #4]
 1507 001a 0122     		movs	r2, #1
 1508 001c 83F8A020 		strb	r2, [r3, #160]
1041:Drivers/STM32F7xx_HAL_Driver/Src/stm32f7xx_hal_ltdc.c **** 
1042:Drivers/STM32F7xx_HAL_Driver/Src/stm32f7xx_hal_ltdc.c ****   /* Change LTDC peripheral state */
1043:Drivers/STM32F7xx_HAL_Driver/Src/stm32f7xx_hal_ltdc.c ****   hltdc->State = HAL_LTDC_STATE_BUSY;
 1509              		.loc 1 1043 16 is_stmt 1 discriminator 2
 1510 0020 7B68     		ldr	r3, [r7, #4]
 1511 0022 0222     		movs	r2, #2
 1512 0024 83F8A120 		strb	r2, [r3, #161]
1044:Drivers/STM32F7xx_HAL_Driver/Src/stm32f7xx_hal_ltdc.c **** 
1045:Drivers/STM32F7xx_HAL_Driver/Src/stm32f7xx_hal_ltdc.c ****   /* Enable LTDC color lookup table by setting CLUTEN bit */
1046:Drivers/STM32F7xx_HAL_Driver/Src/stm32f7xx_hal_ltdc.c ****   LTDC_LAYER(hltdc, LayerIdx)->CR |= (uint32_t)LTDC_LxCR_CLUTEN;
 1513              		.loc 1 1046 3 discriminator 2
 1514 0028 7B68     		ldr	r3, [r7, #4]
 1515 002a 1B68     		ldr	r3, [r3]
 1516              		.loc 1 1046 35 discriminator 2
 1517 002c 1A46     		mov	r2, r3
 1518 002e 3B68     		ldr	r3, [r7]
 1519 0030 DB01     		lsls	r3, r3, #7
 1520 0032 1344     		add	r3, r3, r2
 1521 0034 8433     		adds	r3, r3, #132
 1522 0036 1B68     		ldr	r3, [r3]
 1523              		.loc 1 1046 3 discriminator 2
 1524 0038 7A68     		ldr	r2, [r7, #4]
 1525 003a 1268     		ldr	r2, [r2]
 1526              		.loc 1 1046 35 discriminator 2
 1527 003c 1146     		mov	r1, r2
 1528 003e 3A68     		ldr	r2, [r7]
 1529 0040 D201     		lsls	r2, r2, #7
 1530 0042 0A44     		add	r2, r2, r1
 1531 0044 8432     		adds	r2, r2, #132
 1532 0046 43F01003 		orr	r3, r3, #16
 1533 004a 1360     		str	r3, [r2]
1047:Drivers/STM32F7xx_HAL_Driver/Src/stm32f7xx_hal_ltdc.c **** 
1048:Drivers/STM32F7xx_HAL_Driver/Src/stm32f7xx_hal_ltdc.c ****   /* Set the Immediate Reload type */
ARM GAS  C:\Users\jisu8\AppData\Local\Temp\cchBTxuu.s 			page 46


1049:Drivers/STM32F7xx_HAL_Driver/Src/stm32f7xx_hal_ltdc.c ****   hltdc->Instance->SRCR = LTDC_SRCR_IMR;
 1534              		.loc 1 1049 8 discriminator 2
 1535 004c 7B68     		ldr	r3, [r7, #4]
 1536 004e 1B68     		ldr	r3, [r3]
 1537              		.loc 1 1049 25 discriminator 2
 1538 0050 0122     		movs	r2, #1
 1539 0052 5A62     		str	r2, [r3, #36]
1050:Drivers/STM32F7xx_HAL_Driver/Src/stm32f7xx_hal_ltdc.c **** 
1051:Drivers/STM32F7xx_HAL_Driver/Src/stm32f7xx_hal_ltdc.c ****   /* Change the LTDC state*/
1052:Drivers/STM32F7xx_HAL_Driver/Src/stm32f7xx_hal_ltdc.c ****   hltdc->State = HAL_LTDC_STATE_READY;
 1540              		.loc 1 1052 16 discriminator 2
 1541 0054 7B68     		ldr	r3, [r7, #4]
 1542 0056 0122     		movs	r2, #1
 1543 0058 83F8A120 		strb	r2, [r3, #161]
1053:Drivers/STM32F7xx_HAL_Driver/Src/stm32f7xx_hal_ltdc.c **** 
1054:Drivers/STM32F7xx_HAL_Driver/Src/stm32f7xx_hal_ltdc.c ****   /* Process unlocked */
1055:Drivers/STM32F7xx_HAL_Driver/Src/stm32f7xx_hal_ltdc.c ****   __HAL_UNLOCK(hltdc);
 1544              		.loc 1 1055 3 discriminator 2
 1545 005c 7B68     		ldr	r3, [r7, #4]
 1546 005e 0022     		movs	r2, #0
 1547 0060 83F8A020 		strb	r2, [r3, #160]
1056:Drivers/STM32F7xx_HAL_Driver/Src/stm32f7xx_hal_ltdc.c **** 
1057:Drivers/STM32F7xx_HAL_Driver/Src/stm32f7xx_hal_ltdc.c ****   return HAL_OK;
 1548              		.loc 1 1057 10 discriminator 2
 1549 0064 0023     		movs	r3, #0
 1550              	.L46:
1058:Drivers/STM32F7xx_HAL_Driver/Src/stm32f7xx_hal_ltdc.c **** }
 1551              		.loc 1 1058 1
 1552 0066 1846     		mov	r0, r3
 1553 0068 0C37     		adds	r7, r7, #12
 1554              	.LCFI77:
 1555              		.cfi_def_cfa_offset 4
 1556 006a BD46     		mov	sp, r7
 1557              	.LCFI78:
 1558              		.cfi_def_cfa_register 13
 1559              		@ sp needed
 1560 006c 5DF8047B 		ldr	r7, [sp], #4
 1561              	.LCFI79:
 1562              		.cfi_restore 7
 1563              		.cfi_def_cfa_offset 0
 1564 0070 7047     		bx	lr
 1565              		.cfi_endproc
 1566              	.LFE154:
 1568              		.section	.text.HAL_LTDC_DisableCLUT,"ax",%progbits
 1569              		.align	1
 1570              		.global	HAL_LTDC_DisableCLUT
 1571              		.syntax unified
 1572              		.thumb
 1573              		.thumb_func
 1575              	HAL_LTDC_DisableCLUT:
 1576              	.LFB155:
1059:Drivers/STM32F7xx_HAL_Driver/Src/stm32f7xx_hal_ltdc.c **** 
1060:Drivers/STM32F7xx_HAL_Driver/Src/stm32f7xx_hal_ltdc.c **** /**
1061:Drivers/STM32F7xx_HAL_Driver/Src/stm32f7xx_hal_ltdc.c ****   * @brief  Disable the color lookup table.
1062:Drivers/STM32F7xx_HAL_Driver/Src/stm32f7xx_hal_ltdc.c ****   * @param  hltdc     pointer to a LTDC_HandleTypeDef structure that contains
1063:Drivers/STM32F7xx_HAL_Driver/Src/stm32f7xx_hal_ltdc.c ****   *                   the configuration information for the LTDC.
1064:Drivers/STM32F7xx_HAL_Driver/Src/stm32f7xx_hal_ltdc.c ****   * @param  LayerIdx  LTDC Layer index.
ARM GAS  C:\Users\jisu8\AppData\Local\Temp\cchBTxuu.s 			page 47


1065:Drivers/STM32F7xx_HAL_Driver/Src/stm32f7xx_hal_ltdc.c ****   *                   This parameter can be one of the following values:
1066:Drivers/STM32F7xx_HAL_Driver/Src/stm32f7xx_hal_ltdc.c ****   *                   LTDC_LAYER_1 (0) or LTDC_LAYER_2 (1)
1067:Drivers/STM32F7xx_HAL_Driver/Src/stm32f7xx_hal_ltdc.c ****   * @retval  HAL status
1068:Drivers/STM32F7xx_HAL_Driver/Src/stm32f7xx_hal_ltdc.c ****   */
1069:Drivers/STM32F7xx_HAL_Driver/Src/stm32f7xx_hal_ltdc.c **** HAL_StatusTypeDef HAL_LTDC_DisableCLUT(LTDC_HandleTypeDef *hltdc, uint32_t LayerIdx)
1070:Drivers/STM32F7xx_HAL_Driver/Src/stm32f7xx_hal_ltdc.c **** {
 1577              		.loc 1 1070 1
 1578              		.cfi_startproc
 1579              		@ args = 0, pretend = 0, frame = 8
 1580              		@ frame_needed = 1, uses_anonymous_args = 0
 1581              		@ link register save eliminated.
 1582 0000 80B4     		push	{r7}
 1583              	.LCFI80:
 1584              		.cfi_def_cfa_offset 4
 1585              		.cfi_offset 7, -4
 1586 0002 83B0     		sub	sp, sp, #12
 1587              	.LCFI81:
 1588              		.cfi_def_cfa_offset 16
 1589 0004 00AF     		add	r7, sp, #0
 1590              	.LCFI82:
 1591              		.cfi_def_cfa_register 7
 1592 0006 7860     		str	r0, [r7, #4]
 1593 0008 3960     		str	r1, [r7]
1071:Drivers/STM32F7xx_HAL_Driver/Src/stm32f7xx_hal_ltdc.c ****   /* Check the parameters */
1072:Drivers/STM32F7xx_HAL_Driver/Src/stm32f7xx_hal_ltdc.c ****   assert_param(IS_LTDC_LAYER(LayerIdx));
1073:Drivers/STM32F7xx_HAL_Driver/Src/stm32f7xx_hal_ltdc.c **** 
1074:Drivers/STM32F7xx_HAL_Driver/Src/stm32f7xx_hal_ltdc.c ****   /* Process locked */
1075:Drivers/STM32F7xx_HAL_Driver/Src/stm32f7xx_hal_ltdc.c ****   __HAL_LOCK(hltdc);
 1594              		.loc 1 1075 3
 1595 000a 7B68     		ldr	r3, [r7, #4]
 1596 000c 93F8A030 		ldrb	r3, [r3, #160]	@ zero_extendqisi2
 1597 0010 012B     		cmp	r3, #1
 1598 0012 01D1     		bne	.L48
 1599              		.loc 1 1075 3 is_stmt 0 discriminator 1
 1600 0014 0223     		movs	r3, #2
 1601 0016 26E0     		b	.L49
 1602              	.L48:
 1603              		.loc 1 1075 3 discriminator 2
 1604 0018 7B68     		ldr	r3, [r7, #4]
 1605 001a 0122     		movs	r2, #1
 1606 001c 83F8A020 		strb	r2, [r3, #160]
1076:Drivers/STM32F7xx_HAL_Driver/Src/stm32f7xx_hal_ltdc.c **** 
1077:Drivers/STM32F7xx_HAL_Driver/Src/stm32f7xx_hal_ltdc.c ****   /* Change LTDC peripheral state */
1078:Drivers/STM32F7xx_HAL_Driver/Src/stm32f7xx_hal_ltdc.c ****   hltdc->State = HAL_LTDC_STATE_BUSY;
 1607              		.loc 1 1078 16 is_stmt 1 discriminator 2
 1608 0020 7B68     		ldr	r3, [r7, #4]
 1609 0022 0222     		movs	r2, #2
 1610 0024 83F8A120 		strb	r2, [r3, #161]
1079:Drivers/STM32F7xx_HAL_Driver/Src/stm32f7xx_hal_ltdc.c **** 
1080:Drivers/STM32F7xx_HAL_Driver/Src/stm32f7xx_hal_ltdc.c ****   /* Disable LTDC color lookup table by setting CLUTEN bit */
1081:Drivers/STM32F7xx_HAL_Driver/Src/stm32f7xx_hal_ltdc.c ****   LTDC_LAYER(hltdc, LayerIdx)->CR &= ~(uint32_t)LTDC_LxCR_CLUTEN;
 1611              		.loc 1 1081 3 discriminator 2
 1612 0028 7B68     		ldr	r3, [r7, #4]
 1613 002a 1B68     		ldr	r3, [r3]
 1614              		.loc 1 1081 35 discriminator 2
 1615 002c 1A46     		mov	r2, r3
 1616 002e 3B68     		ldr	r3, [r7]
ARM GAS  C:\Users\jisu8\AppData\Local\Temp\cchBTxuu.s 			page 48


 1617 0030 DB01     		lsls	r3, r3, #7
 1618 0032 1344     		add	r3, r3, r2
 1619 0034 8433     		adds	r3, r3, #132
 1620 0036 1B68     		ldr	r3, [r3]
 1621              		.loc 1 1081 3 discriminator 2
 1622 0038 7A68     		ldr	r2, [r7, #4]
 1623 003a 1268     		ldr	r2, [r2]
 1624              		.loc 1 1081 35 discriminator 2
 1625 003c 1146     		mov	r1, r2
 1626 003e 3A68     		ldr	r2, [r7]
 1627 0040 D201     		lsls	r2, r2, #7
 1628 0042 0A44     		add	r2, r2, r1
 1629 0044 8432     		adds	r2, r2, #132
 1630 0046 23F01003 		bic	r3, r3, #16
 1631 004a 1360     		str	r3, [r2]
1082:Drivers/STM32F7xx_HAL_Driver/Src/stm32f7xx_hal_ltdc.c **** 
1083:Drivers/STM32F7xx_HAL_Driver/Src/stm32f7xx_hal_ltdc.c ****   /* Set the Immediate Reload type */
1084:Drivers/STM32F7xx_HAL_Driver/Src/stm32f7xx_hal_ltdc.c ****   hltdc->Instance->SRCR = LTDC_SRCR_IMR;
 1632              		.loc 1 1084 8 discriminator 2
 1633 004c 7B68     		ldr	r3, [r7, #4]
 1634 004e 1B68     		ldr	r3, [r3]
 1635              		.loc 1 1084 25 discriminator 2
 1636 0050 0122     		movs	r2, #1
 1637 0052 5A62     		str	r2, [r3, #36]
1085:Drivers/STM32F7xx_HAL_Driver/Src/stm32f7xx_hal_ltdc.c **** 
1086:Drivers/STM32F7xx_HAL_Driver/Src/stm32f7xx_hal_ltdc.c ****   /* Change the LTDC state*/
1087:Drivers/STM32F7xx_HAL_Driver/Src/stm32f7xx_hal_ltdc.c ****   hltdc->State = HAL_LTDC_STATE_READY;
 1638              		.loc 1 1087 16 discriminator 2
 1639 0054 7B68     		ldr	r3, [r7, #4]
 1640 0056 0122     		movs	r2, #1
 1641 0058 83F8A120 		strb	r2, [r3, #161]
1088:Drivers/STM32F7xx_HAL_Driver/Src/stm32f7xx_hal_ltdc.c **** 
1089:Drivers/STM32F7xx_HAL_Driver/Src/stm32f7xx_hal_ltdc.c ****   /* Process unlocked */
1090:Drivers/STM32F7xx_HAL_Driver/Src/stm32f7xx_hal_ltdc.c ****   __HAL_UNLOCK(hltdc);
 1642              		.loc 1 1090 3 discriminator 2
 1643 005c 7B68     		ldr	r3, [r7, #4]
 1644 005e 0022     		movs	r2, #0
 1645 0060 83F8A020 		strb	r2, [r3, #160]
1091:Drivers/STM32F7xx_HAL_Driver/Src/stm32f7xx_hal_ltdc.c **** 
1092:Drivers/STM32F7xx_HAL_Driver/Src/stm32f7xx_hal_ltdc.c ****   return HAL_OK;
 1646              		.loc 1 1092 10 discriminator 2
 1647 0064 0023     		movs	r3, #0
 1648              	.L49:
1093:Drivers/STM32F7xx_HAL_Driver/Src/stm32f7xx_hal_ltdc.c **** }
 1649              		.loc 1 1093 1
 1650 0066 1846     		mov	r0, r3
 1651 0068 0C37     		adds	r7, r7, #12
 1652              	.LCFI83:
 1653              		.cfi_def_cfa_offset 4
 1654 006a BD46     		mov	sp, r7
 1655              	.LCFI84:
 1656              		.cfi_def_cfa_register 13
 1657              		@ sp needed
 1658 006c 5DF8047B 		ldr	r7, [sp], #4
 1659              	.LCFI85:
 1660              		.cfi_restore 7
 1661              		.cfi_def_cfa_offset 0
ARM GAS  C:\Users\jisu8\AppData\Local\Temp\cchBTxuu.s 			page 49


 1662 0070 7047     		bx	lr
 1663              		.cfi_endproc
 1664              	.LFE155:
 1666              		.section	.text.HAL_LTDC_EnableDither,"ax",%progbits
 1667              		.align	1
 1668              		.global	HAL_LTDC_EnableDither
 1669              		.syntax unified
 1670              		.thumb
 1671              		.thumb_func
 1673              	HAL_LTDC_EnableDither:
 1674              	.LFB156:
1094:Drivers/STM32F7xx_HAL_Driver/Src/stm32f7xx_hal_ltdc.c **** 
1095:Drivers/STM32F7xx_HAL_Driver/Src/stm32f7xx_hal_ltdc.c **** /**
1096:Drivers/STM32F7xx_HAL_Driver/Src/stm32f7xx_hal_ltdc.c ****   * @brief  Enable Dither.
1097:Drivers/STM32F7xx_HAL_Driver/Src/stm32f7xx_hal_ltdc.c ****   * @param  hltdc  pointer to a LTDC_HandleTypeDef structure that contains
1098:Drivers/STM32F7xx_HAL_Driver/Src/stm32f7xx_hal_ltdc.c ****   *                the configuration information for the LTDC.
1099:Drivers/STM32F7xx_HAL_Driver/Src/stm32f7xx_hal_ltdc.c ****   * @retval  HAL status
1100:Drivers/STM32F7xx_HAL_Driver/Src/stm32f7xx_hal_ltdc.c ****   */
1101:Drivers/STM32F7xx_HAL_Driver/Src/stm32f7xx_hal_ltdc.c **** 
1102:Drivers/STM32F7xx_HAL_Driver/Src/stm32f7xx_hal_ltdc.c **** HAL_StatusTypeDef HAL_LTDC_EnableDither(LTDC_HandleTypeDef *hltdc)
1103:Drivers/STM32F7xx_HAL_Driver/Src/stm32f7xx_hal_ltdc.c **** {
 1675              		.loc 1 1103 1
 1676              		.cfi_startproc
 1677              		@ args = 0, pretend = 0, frame = 8
 1678              		@ frame_needed = 1, uses_anonymous_args = 0
 1679              		@ link register save eliminated.
 1680 0000 80B4     		push	{r7}
 1681              	.LCFI86:
 1682              		.cfi_def_cfa_offset 4
 1683              		.cfi_offset 7, -4
 1684 0002 83B0     		sub	sp, sp, #12
 1685              	.LCFI87:
 1686              		.cfi_def_cfa_offset 16
 1687 0004 00AF     		add	r7, sp, #0
 1688              	.LCFI88:
 1689              		.cfi_def_cfa_register 7
 1690 0006 7860     		str	r0, [r7, #4]
1104:Drivers/STM32F7xx_HAL_Driver/Src/stm32f7xx_hal_ltdc.c ****   /* Process locked */
1105:Drivers/STM32F7xx_HAL_Driver/Src/stm32f7xx_hal_ltdc.c ****   __HAL_LOCK(hltdc);
 1691              		.loc 1 1105 3
 1692 0008 7B68     		ldr	r3, [r7, #4]
 1693 000a 93F8A030 		ldrb	r3, [r3, #160]	@ zero_extendqisi2
 1694 000e 012B     		cmp	r3, #1
 1695 0010 01D1     		bne	.L51
 1696              		.loc 1 1105 3 is_stmt 0 discriminator 1
 1697 0012 0223     		movs	r3, #2
 1698 0014 16E0     		b	.L52
 1699              	.L51:
 1700              		.loc 1 1105 3 discriminator 2
 1701 0016 7B68     		ldr	r3, [r7, #4]
 1702 0018 0122     		movs	r2, #1
 1703 001a 83F8A020 		strb	r2, [r3, #160]
1106:Drivers/STM32F7xx_HAL_Driver/Src/stm32f7xx_hal_ltdc.c **** 
1107:Drivers/STM32F7xx_HAL_Driver/Src/stm32f7xx_hal_ltdc.c ****   /* Change LTDC peripheral state */
1108:Drivers/STM32F7xx_HAL_Driver/Src/stm32f7xx_hal_ltdc.c ****   hltdc->State = HAL_LTDC_STATE_BUSY;
 1704              		.loc 1 1108 16 is_stmt 1 discriminator 2
 1705 001e 7B68     		ldr	r3, [r7, #4]
ARM GAS  C:\Users\jisu8\AppData\Local\Temp\cchBTxuu.s 			page 50


 1706 0020 0222     		movs	r2, #2
 1707 0022 83F8A120 		strb	r2, [r3, #161]
1109:Drivers/STM32F7xx_HAL_Driver/Src/stm32f7xx_hal_ltdc.c **** 
1110:Drivers/STM32F7xx_HAL_Driver/Src/stm32f7xx_hal_ltdc.c ****   /* Enable Dither by setting DTEN bit */
1111:Drivers/STM32F7xx_HAL_Driver/Src/stm32f7xx_hal_ltdc.c ****   LTDC->GCR |= (uint32_t)LTDC_GCR_DEN;
 1708              		.loc 1 1111 13 discriminator 2
 1709 0026 0A4B     		ldr	r3, .L53
 1710 0028 9B69     		ldr	r3, [r3, #24]
 1711 002a 094A     		ldr	r2, .L53
 1712 002c 43F48033 		orr	r3, r3, #65536
 1713 0030 9361     		str	r3, [r2, #24]
1112:Drivers/STM32F7xx_HAL_Driver/Src/stm32f7xx_hal_ltdc.c **** 
1113:Drivers/STM32F7xx_HAL_Driver/Src/stm32f7xx_hal_ltdc.c ****   /* Change the LTDC state*/
1114:Drivers/STM32F7xx_HAL_Driver/Src/stm32f7xx_hal_ltdc.c ****   hltdc->State = HAL_LTDC_STATE_READY;
 1714              		.loc 1 1114 16 discriminator 2
 1715 0032 7B68     		ldr	r3, [r7, #4]
 1716 0034 0122     		movs	r2, #1
 1717 0036 83F8A120 		strb	r2, [r3, #161]
1115:Drivers/STM32F7xx_HAL_Driver/Src/stm32f7xx_hal_ltdc.c **** 
1116:Drivers/STM32F7xx_HAL_Driver/Src/stm32f7xx_hal_ltdc.c ****   /* Process unlocked */
1117:Drivers/STM32F7xx_HAL_Driver/Src/stm32f7xx_hal_ltdc.c ****   __HAL_UNLOCK(hltdc);
 1718              		.loc 1 1117 3 discriminator 2
 1719 003a 7B68     		ldr	r3, [r7, #4]
 1720 003c 0022     		movs	r2, #0
 1721 003e 83F8A020 		strb	r2, [r3, #160]
1118:Drivers/STM32F7xx_HAL_Driver/Src/stm32f7xx_hal_ltdc.c **** 
1119:Drivers/STM32F7xx_HAL_Driver/Src/stm32f7xx_hal_ltdc.c ****   return HAL_OK;
 1722              		.loc 1 1119 10 discriminator 2
 1723 0042 0023     		movs	r3, #0
 1724              	.L52:
1120:Drivers/STM32F7xx_HAL_Driver/Src/stm32f7xx_hal_ltdc.c **** }
 1725              		.loc 1 1120 1
 1726 0044 1846     		mov	r0, r3
 1727 0046 0C37     		adds	r7, r7, #12
 1728              	.LCFI89:
 1729              		.cfi_def_cfa_offset 4
 1730 0048 BD46     		mov	sp, r7
 1731              	.LCFI90:
 1732              		.cfi_def_cfa_register 13
 1733              		@ sp needed
 1734 004a 5DF8047B 		ldr	r7, [sp], #4
 1735              	.LCFI91:
 1736              		.cfi_restore 7
 1737              		.cfi_def_cfa_offset 0
 1738 004e 7047     		bx	lr
 1739              	.L54:
 1740              		.align	2
 1741              	.L53:
 1742 0050 00680140 		.word	1073833984
 1743              		.cfi_endproc
 1744              	.LFE156:
 1746              		.section	.text.HAL_LTDC_DisableDither,"ax",%progbits
 1747              		.align	1
 1748              		.global	HAL_LTDC_DisableDither
 1749              		.syntax unified
 1750              		.thumb
 1751              		.thumb_func
ARM GAS  C:\Users\jisu8\AppData\Local\Temp\cchBTxuu.s 			page 51


 1753              	HAL_LTDC_DisableDither:
 1754              	.LFB157:
1121:Drivers/STM32F7xx_HAL_Driver/Src/stm32f7xx_hal_ltdc.c **** 
1122:Drivers/STM32F7xx_HAL_Driver/Src/stm32f7xx_hal_ltdc.c **** /**
1123:Drivers/STM32F7xx_HAL_Driver/Src/stm32f7xx_hal_ltdc.c ****   * @brief  Disable Dither.
1124:Drivers/STM32F7xx_HAL_Driver/Src/stm32f7xx_hal_ltdc.c ****   * @param  hltdc  pointer to a LTDC_HandleTypeDef structure that contains
1125:Drivers/STM32F7xx_HAL_Driver/Src/stm32f7xx_hal_ltdc.c ****   *                the configuration information for the LTDC.
1126:Drivers/STM32F7xx_HAL_Driver/Src/stm32f7xx_hal_ltdc.c ****   * @retval  HAL status
1127:Drivers/STM32F7xx_HAL_Driver/Src/stm32f7xx_hal_ltdc.c ****   */
1128:Drivers/STM32F7xx_HAL_Driver/Src/stm32f7xx_hal_ltdc.c **** 
1129:Drivers/STM32F7xx_HAL_Driver/Src/stm32f7xx_hal_ltdc.c **** HAL_StatusTypeDef HAL_LTDC_DisableDither(LTDC_HandleTypeDef *hltdc)
1130:Drivers/STM32F7xx_HAL_Driver/Src/stm32f7xx_hal_ltdc.c **** {
 1755              		.loc 1 1130 1
 1756              		.cfi_startproc
 1757              		@ args = 0, pretend = 0, frame = 8
 1758              		@ frame_needed = 1, uses_anonymous_args = 0
 1759              		@ link register save eliminated.
 1760 0000 80B4     		push	{r7}
 1761              	.LCFI92:
 1762              		.cfi_def_cfa_offset 4
 1763              		.cfi_offset 7, -4
 1764 0002 83B0     		sub	sp, sp, #12
 1765              	.LCFI93:
 1766              		.cfi_def_cfa_offset 16
 1767 0004 00AF     		add	r7, sp, #0
 1768              	.LCFI94:
 1769              		.cfi_def_cfa_register 7
 1770 0006 7860     		str	r0, [r7, #4]
1131:Drivers/STM32F7xx_HAL_Driver/Src/stm32f7xx_hal_ltdc.c ****   /* Process locked */
1132:Drivers/STM32F7xx_HAL_Driver/Src/stm32f7xx_hal_ltdc.c ****   __HAL_LOCK(hltdc);
 1771              		.loc 1 1132 3
 1772 0008 7B68     		ldr	r3, [r7, #4]
 1773 000a 93F8A030 		ldrb	r3, [r3, #160]	@ zero_extendqisi2
 1774 000e 012B     		cmp	r3, #1
 1775 0010 01D1     		bne	.L56
 1776              		.loc 1 1132 3 is_stmt 0 discriminator 1
 1777 0012 0223     		movs	r3, #2
 1778 0014 16E0     		b	.L57
 1779              	.L56:
 1780              		.loc 1 1132 3 discriminator 2
 1781 0016 7B68     		ldr	r3, [r7, #4]
 1782 0018 0122     		movs	r2, #1
 1783 001a 83F8A020 		strb	r2, [r3, #160]
1133:Drivers/STM32F7xx_HAL_Driver/Src/stm32f7xx_hal_ltdc.c **** 
1134:Drivers/STM32F7xx_HAL_Driver/Src/stm32f7xx_hal_ltdc.c ****   /* Change LTDC peripheral state */
1135:Drivers/STM32F7xx_HAL_Driver/Src/stm32f7xx_hal_ltdc.c ****   hltdc->State = HAL_LTDC_STATE_BUSY;
 1784              		.loc 1 1135 16 is_stmt 1 discriminator 2
 1785 001e 7B68     		ldr	r3, [r7, #4]
 1786 0020 0222     		movs	r2, #2
 1787 0022 83F8A120 		strb	r2, [r3, #161]
1136:Drivers/STM32F7xx_HAL_Driver/Src/stm32f7xx_hal_ltdc.c **** 
1137:Drivers/STM32F7xx_HAL_Driver/Src/stm32f7xx_hal_ltdc.c ****   /* Disable Dither by setting DTEN bit */
1138:Drivers/STM32F7xx_HAL_Driver/Src/stm32f7xx_hal_ltdc.c ****   LTDC->GCR &= ~(uint32_t)LTDC_GCR_DEN;
 1788              		.loc 1 1138 13 discriminator 2
 1789 0026 0A4B     		ldr	r3, .L58
 1790 0028 9B69     		ldr	r3, [r3, #24]
 1791 002a 094A     		ldr	r2, .L58
ARM GAS  C:\Users\jisu8\AppData\Local\Temp\cchBTxuu.s 			page 52


 1792 002c 23F48033 		bic	r3, r3, #65536
 1793 0030 9361     		str	r3, [r2, #24]
1139:Drivers/STM32F7xx_HAL_Driver/Src/stm32f7xx_hal_ltdc.c **** 
1140:Drivers/STM32F7xx_HAL_Driver/Src/stm32f7xx_hal_ltdc.c ****   /* Change the LTDC state*/
1141:Drivers/STM32F7xx_HAL_Driver/Src/stm32f7xx_hal_ltdc.c ****   hltdc->State = HAL_LTDC_STATE_READY;
 1794              		.loc 1 1141 16 discriminator 2
 1795 0032 7B68     		ldr	r3, [r7, #4]
 1796 0034 0122     		movs	r2, #1
 1797 0036 83F8A120 		strb	r2, [r3, #161]
1142:Drivers/STM32F7xx_HAL_Driver/Src/stm32f7xx_hal_ltdc.c **** 
1143:Drivers/STM32F7xx_HAL_Driver/Src/stm32f7xx_hal_ltdc.c ****   /* Process unlocked */
1144:Drivers/STM32F7xx_HAL_Driver/Src/stm32f7xx_hal_ltdc.c ****   __HAL_UNLOCK(hltdc);
 1798              		.loc 1 1144 3 discriminator 2
 1799 003a 7B68     		ldr	r3, [r7, #4]
 1800 003c 0022     		movs	r2, #0
 1801 003e 83F8A020 		strb	r2, [r3, #160]
1145:Drivers/STM32F7xx_HAL_Driver/Src/stm32f7xx_hal_ltdc.c **** 
1146:Drivers/STM32F7xx_HAL_Driver/Src/stm32f7xx_hal_ltdc.c ****   return HAL_OK;
 1802              		.loc 1 1146 10 discriminator 2
 1803 0042 0023     		movs	r3, #0
 1804              	.L57:
1147:Drivers/STM32F7xx_HAL_Driver/Src/stm32f7xx_hal_ltdc.c **** }
 1805              		.loc 1 1147 1
 1806 0044 1846     		mov	r0, r3
 1807 0046 0C37     		adds	r7, r7, #12
 1808              	.LCFI95:
 1809              		.cfi_def_cfa_offset 4
 1810 0048 BD46     		mov	sp, r7
 1811              	.LCFI96:
 1812              		.cfi_def_cfa_register 13
 1813              		@ sp needed
 1814 004a 5DF8047B 		ldr	r7, [sp], #4
 1815              	.LCFI97:
 1816              		.cfi_restore 7
 1817              		.cfi_def_cfa_offset 0
 1818 004e 7047     		bx	lr
 1819              	.L59:
 1820              		.align	2
 1821              	.L58:
 1822 0050 00680140 		.word	1073833984
 1823              		.cfi_endproc
 1824              	.LFE157:
 1826              		.section	.text.HAL_LTDC_SetWindowSize,"ax",%progbits
 1827              		.align	1
 1828              		.global	HAL_LTDC_SetWindowSize
 1829              		.syntax unified
 1830              		.thumb
 1831              		.thumb_func
 1833              	HAL_LTDC_SetWindowSize:
 1834              	.LFB158:
1148:Drivers/STM32F7xx_HAL_Driver/Src/stm32f7xx_hal_ltdc.c **** 
1149:Drivers/STM32F7xx_HAL_Driver/Src/stm32f7xx_hal_ltdc.c **** /**
1150:Drivers/STM32F7xx_HAL_Driver/Src/stm32f7xx_hal_ltdc.c ****   * @brief  Set the LTDC window size.
1151:Drivers/STM32F7xx_HAL_Driver/Src/stm32f7xx_hal_ltdc.c ****   * @param  hltdc     pointer to a LTDC_HandleTypeDef structure that contains
1152:Drivers/STM32F7xx_HAL_Driver/Src/stm32f7xx_hal_ltdc.c ****   *                   the configuration information for the LTDC.
1153:Drivers/STM32F7xx_HAL_Driver/Src/stm32f7xx_hal_ltdc.c ****   * @param  XSize     LTDC Pixel per line
1154:Drivers/STM32F7xx_HAL_Driver/Src/stm32f7xx_hal_ltdc.c ****   * @param  YSize     LTDC Line number
ARM GAS  C:\Users\jisu8\AppData\Local\Temp\cchBTxuu.s 			page 53


1155:Drivers/STM32F7xx_HAL_Driver/Src/stm32f7xx_hal_ltdc.c ****   * @param  LayerIdx  LTDC Layer index.
1156:Drivers/STM32F7xx_HAL_Driver/Src/stm32f7xx_hal_ltdc.c ****   *                   This parameter can be one of the following values:
1157:Drivers/STM32F7xx_HAL_Driver/Src/stm32f7xx_hal_ltdc.c ****   *                   LTDC_LAYER_1 (0) or LTDC_LAYER_2 (1)
1158:Drivers/STM32F7xx_HAL_Driver/Src/stm32f7xx_hal_ltdc.c ****   * @retval  HAL status
1159:Drivers/STM32F7xx_HAL_Driver/Src/stm32f7xx_hal_ltdc.c ****   */
1160:Drivers/STM32F7xx_HAL_Driver/Src/stm32f7xx_hal_ltdc.c **** HAL_StatusTypeDef HAL_LTDC_SetWindowSize(LTDC_HandleTypeDef *hltdc, uint32_t XSize, uint32_t YSize,
1161:Drivers/STM32F7xx_HAL_Driver/Src/stm32f7xx_hal_ltdc.c **** {
 1835              		.loc 1 1161 1
 1836              		.cfi_startproc
 1837              		@ args = 0, pretend = 0, frame = 24
 1838              		@ frame_needed = 1, uses_anonymous_args = 0
 1839 0000 80B5     		push	{r7, lr}
 1840              	.LCFI98:
 1841              		.cfi_def_cfa_offset 8
 1842              		.cfi_offset 7, -8
 1843              		.cfi_offset 14, -4
 1844 0002 86B0     		sub	sp, sp, #24
 1845              	.LCFI99:
 1846              		.cfi_def_cfa_offset 32
 1847 0004 00AF     		add	r7, sp, #0
 1848              	.LCFI100:
 1849              		.cfi_def_cfa_register 7
 1850 0006 F860     		str	r0, [r7, #12]
 1851 0008 B960     		str	r1, [r7, #8]
 1852 000a 7A60     		str	r2, [r7, #4]
 1853 000c 3B60     		str	r3, [r7]
1162:Drivers/STM32F7xx_HAL_Driver/Src/stm32f7xx_hal_ltdc.c ****   LTDC_LayerCfgTypeDef *pLayerCfg;
1163:Drivers/STM32F7xx_HAL_Driver/Src/stm32f7xx_hal_ltdc.c **** 
1164:Drivers/STM32F7xx_HAL_Driver/Src/stm32f7xx_hal_ltdc.c ****   /* Check the parameters (Layers parameters)*/
1165:Drivers/STM32F7xx_HAL_Driver/Src/stm32f7xx_hal_ltdc.c ****   assert_param(IS_LTDC_LAYER(LayerIdx));
1166:Drivers/STM32F7xx_HAL_Driver/Src/stm32f7xx_hal_ltdc.c ****   assert_param(IS_LTDC_CFBLL(XSize));
1167:Drivers/STM32F7xx_HAL_Driver/Src/stm32f7xx_hal_ltdc.c ****   assert_param(IS_LTDC_CFBLNBR(YSize));
1168:Drivers/STM32F7xx_HAL_Driver/Src/stm32f7xx_hal_ltdc.c **** 
1169:Drivers/STM32F7xx_HAL_Driver/Src/stm32f7xx_hal_ltdc.c ****   /* Process locked */
1170:Drivers/STM32F7xx_HAL_Driver/Src/stm32f7xx_hal_ltdc.c ****   __HAL_LOCK(hltdc);
 1854              		.loc 1 1170 3
 1855 000e FB68     		ldr	r3, [r7, #12]
 1856 0010 93F8A030 		ldrb	r3, [r3, #160]	@ zero_extendqisi2
 1857 0014 012B     		cmp	r3, #1
 1858 0016 01D1     		bne	.L61
 1859              		.loc 1 1170 3 is_stmt 0 discriminator 1
 1860 0018 0223     		movs	r3, #2
 1861 001a 33E0     		b	.L62
 1862              	.L61:
 1863              		.loc 1 1170 3 discriminator 2
 1864 001c FB68     		ldr	r3, [r7, #12]
 1865 001e 0122     		movs	r2, #1
 1866 0020 83F8A020 		strb	r2, [r3, #160]
1171:Drivers/STM32F7xx_HAL_Driver/Src/stm32f7xx_hal_ltdc.c **** 
1172:Drivers/STM32F7xx_HAL_Driver/Src/stm32f7xx_hal_ltdc.c ****   /* Change LTDC peripheral state */
1173:Drivers/STM32F7xx_HAL_Driver/Src/stm32f7xx_hal_ltdc.c ****   hltdc->State = HAL_LTDC_STATE_BUSY;
 1867              		.loc 1 1173 16 is_stmt 1 discriminator 2
 1868 0024 FB68     		ldr	r3, [r7, #12]
 1869 0026 0222     		movs	r2, #2
 1870 0028 83F8A120 		strb	r2, [r3, #161]
1174:Drivers/STM32F7xx_HAL_Driver/Src/stm32f7xx_hal_ltdc.c **** 
1175:Drivers/STM32F7xx_HAL_Driver/Src/stm32f7xx_hal_ltdc.c ****   /* Get layer configuration from handle structure */
ARM GAS  C:\Users\jisu8\AppData\Local\Temp\cchBTxuu.s 			page 54


1176:Drivers/STM32F7xx_HAL_Driver/Src/stm32f7xx_hal_ltdc.c ****   pLayerCfg = &hltdc->LayerCfg[LayerIdx];
 1871              		.loc 1 1176 13 discriminator 2
 1872 002c 3B68     		ldr	r3, [r7]
 1873 002e 3422     		movs	r2, #52
 1874 0030 02FB03F3 		mul	r3, r2, r3
 1875 0034 3833     		adds	r3, r3, #56
 1876 0036 FA68     		ldr	r2, [r7, #12]
 1877 0038 1344     		add	r3, r3, r2
 1878 003a 7B61     		str	r3, [r7, #20]
1177:Drivers/STM32F7xx_HAL_Driver/Src/stm32f7xx_hal_ltdc.c **** 
1178:Drivers/STM32F7xx_HAL_Driver/Src/stm32f7xx_hal_ltdc.c ****   /* update horizontal stop */
1179:Drivers/STM32F7xx_HAL_Driver/Src/stm32f7xx_hal_ltdc.c ****   pLayerCfg->WindowX1 = XSize + pLayerCfg->WindowX0;
 1879              		.loc 1 1179 42 discriminator 2
 1880 003c 7B69     		ldr	r3, [r7, #20]
 1881 003e 1A68     		ldr	r2, [r3]
 1882              		.loc 1 1179 31 discriminator 2
 1883 0040 BB68     		ldr	r3, [r7, #8]
 1884 0042 1A44     		add	r2, r2, r3
 1885              		.loc 1 1179 23 discriminator 2
 1886 0044 7B69     		ldr	r3, [r7, #20]
 1887 0046 5A60     		str	r2, [r3, #4]
1180:Drivers/STM32F7xx_HAL_Driver/Src/stm32f7xx_hal_ltdc.c **** 
1181:Drivers/STM32F7xx_HAL_Driver/Src/stm32f7xx_hal_ltdc.c ****   /* update vertical stop */
1182:Drivers/STM32F7xx_HAL_Driver/Src/stm32f7xx_hal_ltdc.c ****   pLayerCfg->WindowY1 = YSize + pLayerCfg->WindowY0;
 1888              		.loc 1 1182 42 discriminator 2
 1889 0048 7B69     		ldr	r3, [r7, #20]
 1890 004a 9A68     		ldr	r2, [r3, #8]
 1891              		.loc 1 1182 31 discriminator 2
 1892 004c 7B68     		ldr	r3, [r7, #4]
 1893 004e 1A44     		add	r2, r2, r3
 1894              		.loc 1 1182 23 discriminator 2
 1895 0050 7B69     		ldr	r3, [r7, #20]
 1896 0052 DA60     		str	r2, [r3, #12]
1183:Drivers/STM32F7xx_HAL_Driver/Src/stm32f7xx_hal_ltdc.c **** 
1184:Drivers/STM32F7xx_HAL_Driver/Src/stm32f7xx_hal_ltdc.c ****   /* Reconfigures the color frame buffer pitch in byte */
1185:Drivers/STM32F7xx_HAL_Driver/Src/stm32f7xx_hal_ltdc.c ****   pLayerCfg->ImageWidth = XSize;
 1897              		.loc 1 1185 25 discriminator 2
 1898 0054 7B69     		ldr	r3, [r7, #20]
 1899 0056 BA68     		ldr	r2, [r7, #8]
 1900 0058 9A62     		str	r2, [r3, #40]
1186:Drivers/STM32F7xx_HAL_Driver/Src/stm32f7xx_hal_ltdc.c **** 
1187:Drivers/STM32F7xx_HAL_Driver/Src/stm32f7xx_hal_ltdc.c ****   /* Reconfigures the frame buffer line number */
1188:Drivers/STM32F7xx_HAL_Driver/Src/stm32f7xx_hal_ltdc.c ****   pLayerCfg->ImageHeight = YSize;
 1901              		.loc 1 1188 26 discriminator 2
 1902 005a 7B69     		ldr	r3, [r7, #20]
 1903 005c 7A68     		ldr	r2, [r7, #4]
 1904 005e DA62     		str	r2, [r3, #44]
1189:Drivers/STM32F7xx_HAL_Driver/Src/stm32f7xx_hal_ltdc.c **** 
1190:Drivers/STM32F7xx_HAL_Driver/Src/stm32f7xx_hal_ltdc.c ****   /* Set LTDC parameters */
1191:Drivers/STM32F7xx_HAL_Driver/Src/stm32f7xx_hal_ltdc.c ****   LTDC_SetConfig(hltdc, pLayerCfg, LayerIdx);
 1905              		.loc 1 1191 3 discriminator 2
 1906 0060 3A68     		ldr	r2, [r7]
 1907 0062 7969     		ldr	r1, [r7, #20]
 1908 0064 F868     		ldr	r0, [r7, #12]
 1909 0066 FFF7FEFF 		bl	LTDC_SetConfig
1192:Drivers/STM32F7xx_HAL_Driver/Src/stm32f7xx_hal_ltdc.c **** 
1193:Drivers/STM32F7xx_HAL_Driver/Src/stm32f7xx_hal_ltdc.c ****   /* Set the Immediate Reload type */
ARM GAS  C:\Users\jisu8\AppData\Local\Temp\cchBTxuu.s 			page 55


1194:Drivers/STM32F7xx_HAL_Driver/Src/stm32f7xx_hal_ltdc.c ****   hltdc->Instance->SRCR = LTDC_SRCR_IMR;
 1910              		.loc 1 1194 8 discriminator 2
 1911 006a FB68     		ldr	r3, [r7, #12]
 1912 006c 1B68     		ldr	r3, [r3]
 1913              		.loc 1 1194 25 discriminator 2
 1914 006e 0122     		movs	r2, #1
 1915 0070 5A62     		str	r2, [r3, #36]
1195:Drivers/STM32F7xx_HAL_Driver/Src/stm32f7xx_hal_ltdc.c **** 
1196:Drivers/STM32F7xx_HAL_Driver/Src/stm32f7xx_hal_ltdc.c ****   /* Change the LTDC state*/
1197:Drivers/STM32F7xx_HAL_Driver/Src/stm32f7xx_hal_ltdc.c ****   hltdc->State = HAL_LTDC_STATE_READY;
 1916              		.loc 1 1197 16 discriminator 2
 1917 0072 FB68     		ldr	r3, [r7, #12]
 1918 0074 0122     		movs	r2, #1
 1919 0076 83F8A120 		strb	r2, [r3, #161]
1198:Drivers/STM32F7xx_HAL_Driver/Src/stm32f7xx_hal_ltdc.c **** 
1199:Drivers/STM32F7xx_HAL_Driver/Src/stm32f7xx_hal_ltdc.c ****   /* Process unlocked */
1200:Drivers/STM32F7xx_HAL_Driver/Src/stm32f7xx_hal_ltdc.c ****   __HAL_UNLOCK(hltdc);
 1920              		.loc 1 1200 3 discriminator 2
 1921 007a FB68     		ldr	r3, [r7, #12]
 1922 007c 0022     		movs	r2, #0
 1923 007e 83F8A020 		strb	r2, [r3, #160]
1201:Drivers/STM32F7xx_HAL_Driver/Src/stm32f7xx_hal_ltdc.c **** 
1202:Drivers/STM32F7xx_HAL_Driver/Src/stm32f7xx_hal_ltdc.c ****   return HAL_OK;
 1924              		.loc 1 1202 10 discriminator 2
 1925 0082 0023     		movs	r3, #0
 1926              	.L62:
1203:Drivers/STM32F7xx_HAL_Driver/Src/stm32f7xx_hal_ltdc.c **** }
 1927              		.loc 1 1203 1
 1928 0084 1846     		mov	r0, r3
 1929 0086 1837     		adds	r7, r7, #24
 1930              	.LCFI101:
 1931              		.cfi_def_cfa_offset 8
 1932 0088 BD46     		mov	sp, r7
 1933              	.LCFI102:
 1934              		.cfi_def_cfa_register 13
 1935              		@ sp needed
 1936 008a 80BD     		pop	{r7, pc}
 1937              		.cfi_endproc
 1938              	.LFE158:
 1940              		.section	.text.HAL_LTDC_SetWindowPosition,"ax",%progbits
 1941              		.align	1
 1942              		.global	HAL_LTDC_SetWindowPosition
 1943              		.syntax unified
 1944              		.thumb
 1945              		.thumb_func
 1947              	HAL_LTDC_SetWindowPosition:
 1948              	.LFB159:
1204:Drivers/STM32F7xx_HAL_Driver/Src/stm32f7xx_hal_ltdc.c **** 
1205:Drivers/STM32F7xx_HAL_Driver/Src/stm32f7xx_hal_ltdc.c **** /**
1206:Drivers/STM32F7xx_HAL_Driver/Src/stm32f7xx_hal_ltdc.c ****   * @brief  Set the LTDC window position.
1207:Drivers/STM32F7xx_HAL_Driver/Src/stm32f7xx_hal_ltdc.c ****   * @param  hltdc     pointer to a LTDC_HandleTypeDef structure that contains
1208:Drivers/STM32F7xx_HAL_Driver/Src/stm32f7xx_hal_ltdc.c ****   *                   the configuration information for the LTDC.
1209:Drivers/STM32F7xx_HAL_Driver/Src/stm32f7xx_hal_ltdc.c ****   * @param  X0        LTDC window X offset
1210:Drivers/STM32F7xx_HAL_Driver/Src/stm32f7xx_hal_ltdc.c ****   * @param  Y0        LTDC window Y offset
1211:Drivers/STM32F7xx_HAL_Driver/Src/stm32f7xx_hal_ltdc.c ****   * @param  LayerIdx  LTDC Layer index.
1212:Drivers/STM32F7xx_HAL_Driver/Src/stm32f7xx_hal_ltdc.c ****   *                         This parameter can be one of the following values:
1213:Drivers/STM32F7xx_HAL_Driver/Src/stm32f7xx_hal_ltdc.c ****   *                         LTDC_LAYER_1 (0) or LTDC_LAYER_2 (1)
ARM GAS  C:\Users\jisu8\AppData\Local\Temp\cchBTxuu.s 			page 56


1214:Drivers/STM32F7xx_HAL_Driver/Src/stm32f7xx_hal_ltdc.c ****   * @retval  HAL status
1215:Drivers/STM32F7xx_HAL_Driver/Src/stm32f7xx_hal_ltdc.c ****   */
1216:Drivers/STM32F7xx_HAL_Driver/Src/stm32f7xx_hal_ltdc.c **** HAL_StatusTypeDef HAL_LTDC_SetWindowPosition(LTDC_HandleTypeDef *hltdc, uint32_t X0, uint32_t Y0, u
1217:Drivers/STM32F7xx_HAL_Driver/Src/stm32f7xx_hal_ltdc.c **** {
 1949              		.loc 1 1217 1
 1950              		.cfi_startproc
 1951              		@ args = 0, pretend = 0, frame = 24
 1952              		@ frame_needed = 1, uses_anonymous_args = 0
 1953 0000 80B5     		push	{r7, lr}
 1954              	.LCFI103:
 1955              		.cfi_def_cfa_offset 8
 1956              		.cfi_offset 7, -8
 1957              		.cfi_offset 14, -4
 1958 0002 86B0     		sub	sp, sp, #24
 1959              	.LCFI104:
 1960              		.cfi_def_cfa_offset 32
 1961 0004 00AF     		add	r7, sp, #0
 1962              	.LCFI105:
 1963              		.cfi_def_cfa_register 7
 1964 0006 F860     		str	r0, [r7, #12]
 1965 0008 B960     		str	r1, [r7, #8]
 1966 000a 7A60     		str	r2, [r7, #4]
 1967 000c 3B60     		str	r3, [r7]
1218:Drivers/STM32F7xx_HAL_Driver/Src/stm32f7xx_hal_ltdc.c ****   LTDC_LayerCfgTypeDef *pLayerCfg;
1219:Drivers/STM32F7xx_HAL_Driver/Src/stm32f7xx_hal_ltdc.c **** 
1220:Drivers/STM32F7xx_HAL_Driver/Src/stm32f7xx_hal_ltdc.c ****   /* Check the parameters */
1221:Drivers/STM32F7xx_HAL_Driver/Src/stm32f7xx_hal_ltdc.c ****   assert_param(IS_LTDC_LAYER(LayerIdx));
1222:Drivers/STM32F7xx_HAL_Driver/Src/stm32f7xx_hal_ltdc.c ****   assert_param(IS_LTDC_CFBLL(X0));
1223:Drivers/STM32F7xx_HAL_Driver/Src/stm32f7xx_hal_ltdc.c ****   assert_param(IS_LTDC_CFBLNBR(Y0));
1224:Drivers/STM32F7xx_HAL_Driver/Src/stm32f7xx_hal_ltdc.c **** 
1225:Drivers/STM32F7xx_HAL_Driver/Src/stm32f7xx_hal_ltdc.c ****   /* Process locked */
1226:Drivers/STM32F7xx_HAL_Driver/Src/stm32f7xx_hal_ltdc.c ****   __HAL_LOCK(hltdc);
 1968              		.loc 1 1226 3
 1969 000e FB68     		ldr	r3, [r7, #12]
 1970 0010 93F8A030 		ldrb	r3, [r3, #160]	@ zero_extendqisi2
 1971 0014 012B     		cmp	r3, #1
 1972 0016 01D1     		bne	.L64
 1973              		.loc 1 1226 3 is_stmt 0 discriminator 1
 1974 0018 0223     		movs	r3, #2
 1975 001a 33E0     		b	.L65
 1976              	.L64:
 1977              		.loc 1 1226 3 discriminator 2
 1978 001c FB68     		ldr	r3, [r7, #12]
 1979 001e 0122     		movs	r2, #1
 1980 0020 83F8A020 		strb	r2, [r3, #160]
1227:Drivers/STM32F7xx_HAL_Driver/Src/stm32f7xx_hal_ltdc.c **** 
1228:Drivers/STM32F7xx_HAL_Driver/Src/stm32f7xx_hal_ltdc.c ****   /* Change LTDC peripheral state */
1229:Drivers/STM32F7xx_HAL_Driver/Src/stm32f7xx_hal_ltdc.c ****   hltdc->State = HAL_LTDC_STATE_BUSY;
 1981              		.loc 1 1229 16 is_stmt 1 discriminator 2
 1982 0024 FB68     		ldr	r3, [r7, #12]
 1983 0026 0222     		movs	r2, #2
 1984 0028 83F8A120 		strb	r2, [r3, #161]
1230:Drivers/STM32F7xx_HAL_Driver/Src/stm32f7xx_hal_ltdc.c **** 
1231:Drivers/STM32F7xx_HAL_Driver/Src/stm32f7xx_hal_ltdc.c ****   /* Get layer configuration from handle structure */
1232:Drivers/STM32F7xx_HAL_Driver/Src/stm32f7xx_hal_ltdc.c ****   pLayerCfg = &hltdc->LayerCfg[LayerIdx];
 1985              		.loc 1 1232 13 discriminator 2
 1986 002c 3B68     		ldr	r3, [r7]
ARM GAS  C:\Users\jisu8\AppData\Local\Temp\cchBTxuu.s 			page 57


 1987 002e 3422     		movs	r2, #52
 1988 0030 02FB03F3 		mul	r3, r2, r3
 1989 0034 3833     		adds	r3, r3, #56
 1990 0036 FA68     		ldr	r2, [r7, #12]
 1991 0038 1344     		add	r3, r3, r2
 1992 003a 7B61     		str	r3, [r7, #20]
1233:Drivers/STM32F7xx_HAL_Driver/Src/stm32f7xx_hal_ltdc.c **** 
1234:Drivers/STM32F7xx_HAL_Driver/Src/stm32f7xx_hal_ltdc.c ****   /* update horizontal start/stop */
1235:Drivers/STM32F7xx_HAL_Driver/Src/stm32f7xx_hal_ltdc.c ****   pLayerCfg->WindowX0 = X0;
 1993              		.loc 1 1235 23 discriminator 2
 1994 003c 7B69     		ldr	r3, [r7, #20]
 1995 003e BA68     		ldr	r2, [r7, #8]
 1996 0040 1A60     		str	r2, [r3]
1236:Drivers/STM32F7xx_HAL_Driver/Src/stm32f7xx_hal_ltdc.c ****   pLayerCfg->WindowX1 = X0 + pLayerCfg->ImageWidth;
 1997              		.loc 1 1236 39 discriminator 2
 1998 0042 7B69     		ldr	r3, [r7, #20]
 1999 0044 9A6A     		ldr	r2, [r3, #40]
 2000              		.loc 1 1236 28 discriminator 2
 2001 0046 BB68     		ldr	r3, [r7, #8]
 2002 0048 1A44     		add	r2, r2, r3
 2003              		.loc 1 1236 23 discriminator 2
 2004 004a 7B69     		ldr	r3, [r7, #20]
 2005 004c 5A60     		str	r2, [r3, #4]
1237:Drivers/STM32F7xx_HAL_Driver/Src/stm32f7xx_hal_ltdc.c **** 
1238:Drivers/STM32F7xx_HAL_Driver/Src/stm32f7xx_hal_ltdc.c ****   /* update vertical start/stop */
1239:Drivers/STM32F7xx_HAL_Driver/Src/stm32f7xx_hal_ltdc.c ****   pLayerCfg->WindowY0 = Y0;
 2006              		.loc 1 1239 23 discriminator 2
 2007 004e 7B69     		ldr	r3, [r7, #20]
 2008 0050 7A68     		ldr	r2, [r7, #4]
 2009 0052 9A60     		str	r2, [r3, #8]
1240:Drivers/STM32F7xx_HAL_Driver/Src/stm32f7xx_hal_ltdc.c ****   pLayerCfg->WindowY1 = Y0 + pLayerCfg->ImageHeight;
 2010              		.loc 1 1240 39 discriminator 2
 2011 0054 7B69     		ldr	r3, [r7, #20]
 2012 0056 DA6A     		ldr	r2, [r3, #44]
 2013              		.loc 1 1240 28 discriminator 2
 2014 0058 7B68     		ldr	r3, [r7, #4]
 2015 005a 1A44     		add	r2, r2, r3
 2016              		.loc 1 1240 23 discriminator 2
 2017 005c 7B69     		ldr	r3, [r7, #20]
 2018 005e DA60     		str	r2, [r3, #12]
1241:Drivers/STM32F7xx_HAL_Driver/Src/stm32f7xx_hal_ltdc.c **** 
1242:Drivers/STM32F7xx_HAL_Driver/Src/stm32f7xx_hal_ltdc.c ****   /* Set LTDC parameters */
1243:Drivers/STM32F7xx_HAL_Driver/Src/stm32f7xx_hal_ltdc.c ****   LTDC_SetConfig(hltdc, pLayerCfg, LayerIdx);
 2019              		.loc 1 1243 3 discriminator 2
 2020 0060 3A68     		ldr	r2, [r7]
 2021 0062 7969     		ldr	r1, [r7, #20]
 2022 0064 F868     		ldr	r0, [r7, #12]
 2023 0066 FFF7FEFF 		bl	LTDC_SetConfig
1244:Drivers/STM32F7xx_HAL_Driver/Src/stm32f7xx_hal_ltdc.c **** 
1245:Drivers/STM32F7xx_HAL_Driver/Src/stm32f7xx_hal_ltdc.c ****   /* Set the Immediate Reload type */
1246:Drivers/STM32F7xx_HAL_Driver/Src/stm32f7xx_hal_ltdc.c ****   hltdc->Instance->SRCR = LTDC_SRCR_IMR;
 2024              		.loc 1 1246 8 discriminator 2
 2025 006a FB68     		ldr	r3, [r7, #12]
 2026 006c 1B68     		ldr	r3, [r3]
 2027              		.loc 1 1246 25 discriminator 2
 2028 006e 0122     		movs	r2, #1
 2029 0070 5A62     		str	r2, [r3, #36]
ARM GAS  C:\Users\jisu8\AppData\Local\Temp\cchBTxuu.s 			page 58


1247:Drivers/STM32F7xx_HAL_Driver/Src/stm32f7xx_hal_ltdc.c **** 
1248:Drivers/STM32F7xx_HAL_Driver/Src/stm32f7xx_hal_ltdc.c ****   /* Change the LTDC state*/
1249:Drivers/STM32F7xx_HAL_Driver/Src/stm32f7xx_hal_ltdc.c ****   hltdc->State = HAL_LTDC_STATE_READY;
 2030              		.loc 1 1249 16 discriminator 2
 2031 0072 FB68     		ldr	r3, [r7, #12]
 2032 0074 0122     		movs	r2, #1
 2033 0076 83F8A120 		strb	r2, [r3, #161]
1250:Drivers/STM32F7xx_HAL_Driver/Src/stm32f7xx_hal_ltdc.c **** 
1251:Drivers/STM32F7xx_HAL_Driver/Src/stm32f7xx_hal_ltdc.c ****   /* Process unlocked */
1252:Drivers/STM32F7xx_HAL_Driver/Src/stm32f7xx_hal_ltdc.c ****   __HAL_UNLOCK(hltdc);
 2034              		.loc 1 1252 3 discriminator 2
 2035 007a FB68     		ldr	r3, [r7, #12]
 2036 007c 0022     		movs	r2, #0
 2037 007e 83F8A020 		strb	r2, [r3, #160]
1253:Drivers/STM32F7xx_HAL_Driver/Src/stm32f7xx_hal_ltdc.c **** 
1254:Drivers/STM32F7xx_HAL_Driver/Src/stm32f7xx_hal_ltdc.c ****   return HAL_OK;
 2038              		.loc 1 1254 10 discriminator 2
 2039 0082 0023     		movs	r3, #0
 2040              	.L65:
1255:Drivers/STM32F7xx_HAL_Driver/Src/stm32f7xx_hal_ltdc.c **** }
 2041              		.loc 1 1255 1
 2042 0084 1846     		mov	r0, r3
 2043 0086 1837     		adds	r7, r7, #24
 2044              	.LCFI106:
 2045              		.cfi_def_cfa_offset 8
 2046 0088 BD46     		mov	sp, r7
 2047              	.LCFI107:
 2048              		.cfi_def_cfa_register 13
 2049              		@ sp needed
 2050 008a 80BD     		pop	{r7, pc}
 2051              		.cfi_endproc
 2052              	.LFE159:
 2054              		.section	.text.HAL_LTDC_SetPixelFormat,"ax",%progbits
 2055              		.align	1
 2056              		.global	HAL_LTDC_SetPixelFormat
 2057              		.syntax unified
 2058              		.thumb
 2059              		.thumb_func
 2061              	HAL_LTDC_SetPixelFormat:
 2062              	.LFB160:
1256:Drivers/STM32F7xx_HAL_Driver/Src/stm32f7xx_hal_ltdc.c **** 
1257:Drivers/STM32F7xx_HAL_Driver/Src/stm32f7xx_hal_ltdc.c **** /**
1258:Drivers/STM32F7xx_HAL_Driver/Src/stm32f7xx_hal_ltdc.c ****   * @brief  Reconfigure the pixel format.
1259:Drivers/STM32F7xx_HAL_Driver/Src/stm32f7xx_hal_ltdc.c ****   * @param  hltdc        pointer to a LTDC_HandleTypeDef structure that contains
1260:Drivers/STM32F7xx_HAL_Driver/Src/stm32f7xx_hal_ltdc.c ****   *                      the configuration information for the LTDC.
1261:Drivers/STM32F7xx_HAL_Driver/Src/stm32f7xx_hal_ltdc.c ****   * @param  Pixelformat  new pixel format value.
1262:Drivers/STM32F7xx_HAL_Driver/Src/stm32f7xx_hal_ltdc.c ****   * @param  LayerIdx     LTDC Layer index.
1263:Drivers/STM32F7xx_HAL_Driver/Src/stm32f7xx_hal_ltdc.c ****   *                      This parameter can be one of the following values:
1264:Drivers/STM32F7xx_HAL_Driver/Src/stm32f7xx_hal_ltdc.c ****   *                      LTDC_LAYER_1 (0) or LTDC_LAYER_2 (1).
1265:Drivers/STM32F7xx_HAL_Driver/Src/stm32f7xx_hal_ltdc.c ****   * @retval  HAL status
1266:Drivers/STM32F7xx_HAL_Driver/Src/stm32f7xx_hal_ltdc.c ****   */
1267:Drivers/STM32F7xx_HAL_Driver/Src/stm32f7xx_hal_ltdc.c **** HAL_StatusTypeDef HAL_LTDC_SetPixelFormat(LTDC_HandleTypeDef *hltdc, uint32_t Pixelformat, uint32_t
1268:Drivers/STM32F7xx_HAL_Driver/Src/stm32f7xx_hal_ltdc.c **** {
 2063              		.loc 1 1268 1
 2064              		.cfi_startproc
 2065              		@ args = 0, pretend = 0, frame = 24
 2066              		@ frame_needed = 1, uses_anonymous_args = 0
ARM GAS  C:\Users\jisu8\AppData\Local\Temp\cchBTxuu.s 			page 59


 2067 0000 80B5     		push	{r7, lr}
 2068              	.LCFI108:
 2069              		.cfi_def_cfa_offset 8
 2070              		.cfi_offset 7, -8
 2071              		.cfi_offset 14, -4
 2072 0002 86B0     		sub	sp, sp, #24
 2073              	.LCFI109:
 2074              		.cfi_def_cfa_offset 32
 2075 0004 00AF     		add	r7, sp, #0
 2076              	.LCFI110:
 2077              		.cfi_def_cfa_register 7
 2078 0006 F860     		str	r0, [r7, #12]
 2079 0008 B960     		str	r1, [r7, #8]
 2080 000a 7A60     		str	r2, [r7, #4]
1269:Drivers/STM32F7xx_HAL_Driver/Src/stm32f7xx_hal_ltdc.c ****   LTDC_LayerCfgTypeDef *pLayerCfg;
1270:Drivers/STM32F7xx_HAL_Driver/Src/stm32f7xx_hal_ltdc.c **** 
1271:Drivers/STM32F7xx_HAL_Driver/Src/stm32f7xx_hal_ltdc.c ****   /* Check the parameters */
1272:Drivers/STM32F7xx_HAL_Driver/Src/stm32f7xx_hal_ltdc.c ****   assert_param(IS_LTDC_PIXEL_FORMAT(Pixelformat));
1273:Drivers/STM32F7xx_HAL_Driver/Src/stm32f7xx_hal_ltdc.c ****   assert_param(IS_LTDC_LAYER(LayerIdx));
1274:Drivers/STM32F7xx_HAL_Driver/Src/stm32f7xx_hal_ltdc.c **** 
1275:Drivers/STM32F7xx_HAL_Driver/Src/stm32f7xx_hal_ltdc.c ****   /* Process locked */
1276:Drivers/STM32F7xx_HAL_Driver/Src/stm32f7xx_hal_ltdc.c ****   __HAL_LOCK(hltdc);
 2081              		.loc 1 1276 3
 2082 000c FB68     		ldr	r3, [r7, #12]
 2083 000e 93F8A030 		ldrb	r3, [r3, #160]	@ zero_extendqisi2
 2084 0012 012B     		cmp	r3, #1
 2085 0014 01D1     		bne	.L67
 2086              		.loc 1 1276 3 is_stmt 0 discriminator 1
 2087 0016 0223     		movs	r3, #2
 2088 0018 24E0     		b	.L68
 2089              	.L67:
 2090              		.loc 1 1276 3 discriminator 2
 2091 001a FB68     		ldr	r3, [r7, #12]
 2092 001c 0122     		movs	r2, #1
 2093 001e 83F8A020 		strb	r2, [r3, #160]
1277:Drivers/STM32F7xx_HAL_Driver/Src/stm32f7xx_hal_ltdc.c **** 
1278:Drivers/STM32F7xx_HAL_Driver/Src/stm32f7xx_hal_ltdc.c ****   /* Change LTDC peripheral state */
1279:Drivers/STM32F7xx_HAL_Driver/Src/stm32f7xx_hal_ltdc.c ****   hltdc->State = HAL_LTDC_STATE_BUSY;
 2094              		.loc 1 1279 16 is_stmt 1 discriminator 2
 2095 0022 FB68     		ldr	r3, [r7, #12]
 2096 0024 0222     		movs	r2, #2
 2097 0026 83F8A120 		strb	r2, [r3, #161]
1280:Drivers/STM32F7xx_HAL_Driver/Src/stm32f7xx_hal_ltdc.c **** 
1281:Drivers/STM32F7xx_HAL_Driver/Src/stm32f7xx_hal_ltdc.c ****   /* Get layer configuration from handle structure */
1282:Drivers/STM32F7xx_HAL_Driver/Src/stm32f7xx_hal_ltdc.c ****   pLayerCfg = &hltdc->LayerCfg[LayerIdx];
 2098              		.loc 1 1282 13 discriminator 2
 2099 002a 7B68     		ldr	r3, [r7, #4]
 2100 002c 3422     		movs	r2, #52
 2101 002e 02FB03F3 		mul	r3, r2, r3
 2102 0032 3833     		adds	r3, r3, #56
 2103 0034 FA68     		ldr	r2, [r7, #12]
 2104 0036 1344     		add	r3, r3, r2
 2105 0038 7B61     		str	r3, [r7, #20]
1283:Drivers/STM32F7xx_HAL_Driver/Src/stm32f7xx_hal_ltdc.c **** 
1284:Drivers/STM32F7xx_HAL_Driver/Src/stm32f7xx_hal_ltdc.c ****   /* Reconfigure the pixel format */
1285:Drivers/STM32F7xx_HAL_Driver/Src/stm32f7xx_hal_ltdc.c ****   pLayerCfg->PixelFormat = Pixelformat;
 2106              		.loc 1 1285 26 discriminator 2
ARM GAS  C:\Users\jisu8\AppData\Local\Temp\cchBTxuu.s 			page 60


 2107 003a 7B69     		ldr	r3, [r7, #20]
 2108 003c BA68     		ldr	r2, [r7, #8]
 2109 003e 1A61     		str	r2, [r3, #16]
1286:Drivers/STM32F7xx_HAL_Driver/Src/stm32f7xx_hal_ltdc.c **** 
1287:Drivers/STM32F7xx_HAL_Driver/Src/stm32f7xx_hal_ltdc.c ****   /* Set LTDC parameters */
1288:Drivers/STM32F7xx_HAL_Driver/Src/stm32f7xx_hal_ltdc.c ****   LTDC_SetConfig(hltdc, pLayerCfg, LayerIdx);
 2110              		.loc 1 1288 3 discriminator 2
 2111 0040 7A68     		ldr	r2, [r7, #4]
 2112 0042 7969     		ldr	r1, [r7, #20]
 2113 0044 F868     		ldr	r0, [r7, #12]
 2114 0046 FFF7FEFF 		bl	LTDC_SetConfig
1289:Drivers/STM32F7xx_HAL_Driver/Src/stm32f7xx_hal_ltdc.c **** 
1290:Drivers/STM32F7xx_HAL_Driver/Src/stm32f7xx_hal_ltdc.c ****   /* Set the Immediate Reload type */
1291:Drivers/STM32F7xx_HAL_Driver/Src/stm32f7xx_hal_ltdc.c ****   hltdc->Instance->SRCR = LTDC_SRCR_IMR;
 2115              		.loc 1 1291 8 discriminator 2
 2116 004a FB68     		ldr	r3, [r7, #12]
 2117 004c 1B68     		ldr	r3, [r3]
 2118              		.loc 1 1291 25 discriminator 2
 2119 004e 0122     		movs	r2, #1
 2120 0050 5A62     		str	r2, [r3, #36]
1292:Drivers/STM32F7xx_HAL_Driver/Src/stm32f7xx_hal_ltdc.c **** 
1293:Drivers/STM32F7xx_HAL_Driver/Src/stm32f7xx_hal_ltdc.c ****   /* Change the LTDC state*/
1294:Drivers/STM32F7xx_HAL_Driver/Src/stm32f7xx_hal_ltdc.c ****   hltdc->State = HAL_LTDC_STATE_READY;
 2121              		.loc 1 1294 16 discriminator 2
 2122 0052 FB68     		ldr	r3, [r7, #12]
 2123 0054 0122     		movs	r2, #1
 2124 0056 83F8A120 		strb	r2, [r3, #161]
1295:Drivers/STM32F7xx_HAL_Driver/Src/stm32f7xx_hal_ltdc.c **** 
1296:Drivers/STM32F7xx_HAL_Driver/Src/stm32f7xx_hal_ltdc.c ****   /* Process unlocked */
1297:Drivers/STM32F7xx_HAL_Driver/Src/stm32f7xx_hal_ltdc.c ****   __HAL_UNLOCK(hltdc);
 2125              		.loc 1 1297 3 discriminator 2
 2126 005a FB68     		ldr	r3, [r7, #12]
 2127 005c 0022     		movs	r2, #0
 2128 005e 83F8A020 		strb	r2, [r3, #160]
1298:Drivers/STM32F7xx_HAL_Driver/Src/stm32f7xx_hal_ltdc.c **** 
1299:Drivers/STM32F7xx_HAL_Driver/Src/stm32f7xx_hal_ltdc.c ****   return HAL_OK;
 2129              		.loc 1 1299 10 discriminator 2
 2130 0062 0023     		movs	r3, #0
 2131              	.L68:
1300:Drivers/STM32F7xx_HAL_Driver/Src/stm32f7xx_hal_ltdc.c **** }
 2132              		.loc 1 1300 1
 2133 0064 1846     		mov	r0, r3
 2134 0066 1837     		adds	r7, r7, #24
 2135              	.LCFI111:
 2136              		.cfi_def_cfa_offset 8
 2137 0068 BD46     		mov	sp, r7
 2138              	.LCFI112:
 2139              		.cfi_def_cfa_register 13
 2140              		@ sp needed
 2141 006a 80BD     		pop	{r7, pc}
 2142              		.cfi_endproc
 2143              	.LFE160:
 2145              		.section	.text.HAL_LTDC_SetAlpha,"ax",%progbits
 2146              		.align	1
 2147              		.global	HAL_LTDC_SetAlpha
 2148              		.syntax unified
 2149              		.thumb
ARM GAS  C:\Users\jisu8\AppData\Local\Temp\cchBTxuu.s 			page 61


 2150              		.thumb_func
 2152              	HAL_LTDC_SetAlpha:
 2153              	.LFB161:
1301:Drivers/STM32F7xx_HAL_Driver/Src/stm32f7xx_hal_ltdc.c **** 
1302:Drivers/STM32F7xx_HAL_Driver/Src/stm32f7xx_hal_ltdc.c **** /**
1303:Drivers/STM32F7xx_HAL_Driver/Src/stm32f7xx_hal_ltdc.c ****   * @brief  Reconfigure the layer alpha value.
1304:Drivers/STM32F7xx_HAL_Driver/Src/stm32f7xx_hal_ltdc.c ****   * @param  hltdc     pointer to a LTDC_HandleTypeDef structure that contains
1305:Drivers/STM32F7xx_HAL_Driver/Src/stm32f7xx_hal_ltdc.c ****   *                   the configuration information for the LTDC.
1306:Drivers/STM32F7xx_HAL_Driver/Src/stm32f7xx_hal_ltdc.c ****   * @param  Alpha     new alpha value.
1307:Drivers/STM32F7xx_HAL_Driver/Src/stm32f7xx_hal_ltdc.c ****   * @param  LayerIdx  LTDC Layer index.
1308:Drivers/STM32F7xx_HAL_Driver/Src/stm32f7xx_hal_ltdc.c ****   *                   This parameter can be one of the following values:
1309:Drivers/STM32F7xx_HAL_Driver/Src/stm32f7xx_hal_ltdc.c ****   *                   LTDC_LAYER_1 (0) or LTDC_LAYER_2 (1)
1310:Drivers/STM32F7xx_HAL_Driver/Src/stm32f7xx_hal_ltdc.c ****   * @retval  HAL status
1311:Drivers/STM32F7xx_HAL_Driver/Src/stm32f7xx_hal_ltdc.c ****   */
1312:Drivers/STM32F7xx_HAL_Driver/Src/stm32f7xx_hal_ltdc.c **** HAL_StatusTypeDef HAL_LTDC_SetAlpha(LTDC_HandleTypeDef *hltdc, uint32_t Alpha, uint32_t LayerIdx)
1313:Drivers/STM32F7xx_HAL_Driver/Src/stm32f7xx_hal_ltdc.c **** {
 2154              		.loc 1 1313 1
 2155              		.cfi_startproc
 2156              		@ args = 0, pretend = 0, frame = 24
 2157              		@ frame_needed = 1, uses_anonymous_args = 0
 2158 0000 80B5     		push	{r7, lr}
 2159              	.LCFI113:
 2160              		.cfi_def_cfa_offset 8
 2161              		.cfi_offset 7, -8
 2162              		.cfi_offset 14, -4
 2163 0002 86B0     		sub	sp, sp, #24
 2164              	.LCFI114:
 2165              		.cfi_def_cfa_offset 32
 2166 0004 00AF     		add	r7, sp, #0
 2167              	.LCFI115:
 2168              		.cfi_def_cfa_register 7
 2169 0006 F860     		str	r0, [r7, #12]
 2170 0008 B960     		str	r1, [r7, #8]
 2171 000a 7A60     		str	r2, [r7, #4]
1314:Drivers/STM32F7xx_HAL_Driver/Src/stm32f7xx_hal_ltdc.c ****   LTDC_LayerCfgTypeDef *pLayerCfg;
1315:Drivers/STM32F7xx_HAL_Driver/Src/stm32f7xx_hal_ltdc.c **** 
1316:Drivers/STM32F7xx_HAL_Driver/Src/stm32f7xx_hal_ltdc.c ****   /* Check the parameters */
1317:Drivers/STM32F7xx_HAL_Driver/Src/stm32f7xx_hal_ltdc.c ****   assert_param(IS_LTDC_ALPHA(Alpha));
1318:Drivers/STM32F7xx_HAL_Driver/Src/stm32f7xx_hal_ltdc.c ****   assert_param(IS_LTDC_LAYER(LayerIdx));
1319:Drivers/STM32F7xx_HAL_Driver/Src/stm32f7xx_hal_ltdc.c **** 
1320:Drivers/STM32F7xx_HAL_Driver/Src/stm32f7xx_hal_ltdc.c ****   /* Process locked */
1321:Drivers/STM32F7xx_HAL_Driver/Src/stm32f7xx_hal_ltdc.c ****   __HAL_LOCK(hltdc);
 2172              		.loc 1 1321 3
 2173 000c FB68     		ldr	r3, [r7, #12]
 2174 000e 93F8A030 		ldrb	r3, [r3, #160]	@ zero_extendqisi2
 2175 0012 012B     		cmp	r3, #1
 2176 0014 01D1     		bne	.L70
 2177              		.loc 1 1321 3 is_stmt 0 discriminator 1
 2178 0016 0223     		movs	r3, #2
 2179 0018 24E0     		b	.L71
 2180              	.L70:
 2181              		.loc 1 1321 3 discriminator 2
 2182 001a FB68     		ldr	r3, [r7, #12]
 2183 001c 0122     		movs	r2, #1
 2184 001e 83F8A020 		strb	r2, [r3, #160]
1322:Drivers/STM32F7xx_HAL_Driver/Src/stm32f7xx_hal_ltdc.c **** 
1323:Drivers/STM32F7xx_HAL_Driver/Src/stm32f7xx_hal_ltdc.c ****   /* Change LTDC peripheral state */
ARM GAS  C:\Users\jisu8\AppData\Local\Temp\cchBTxuu.s 			page 62


1324:Drivers/STM32F7xx_HAL_Driver/Src/stm32f7xx_hal_ltdc.c ****   hltdc->State = HAL_LTDC_STATE_BUSY;
 2185              		.loc 1 1324 16 is_stmt 1 discriminator 2
 2186 0022 FB68     		ldr	r3, [r7, #12]
 2187 0024 0222     		movs	r2, #2
 2188 0026 83F8A120 		strb	r2, [r3, #161]
1325:Drivers/STM32F7xx_HAL_Driver/Src/stm32f7xx_hal_ltdc.c **** 
1326:Drivers/STM32F7xx_HAL_Driver/Src/stm32f7xx_hal_ltdc.c ****   /* Get layer configuration from handle structure */
1327:Drivers/STM32F7xx_HAL_Driver/Src/stm32f7xx_hal_ltdc.c ****   pLayerCfg = &hltdc->LayerCfg[LayerIdx];
 2189              		.loc 1 1327 13 discriminator 2
 2190 002a 7B68     		ldr	r3, [r7, #4]
 2191 002c 3422     		movs	r2, #52
 2192 002e 02FB03F3 		mul	r3, r2, r3
 2193 0032 3833     		adds	r3, r3, #56
 2194 0034 FA68     		ldr	r2, [r7, #12]
 2195 0036 1344     		add	r3, r3, r2
 2196 0038 7B61     		str	r3, [r7, #20]
1328:Drivers/STM32F7xx_HAL_Driver/Src/stm32f7xx_hal_ltdc.c **** 
1329:Drivers/STM32F7xx_HAL_Driver/Src/stm32f7xx_hal_ltdc.c ****   /* Reconfigure the Alpha value */
1330:Drivers/STM32F7xx_HAL_Driver/Src/stm32f7xx_hal_ltdc.c ****   pLayerCfg->Alpha = Alpha;
 2197              		.loc 1 1330 20 discriminator 2
 2198 003a 7B69     		ldr	r3, [r7, #20]
 2199 003c BA68     		ldr	r2, [r7, #8]
 2200 003e 5A61     		str	r2, [r3, #20]
1331:Drivers/STM32F7xx_HAL_Driver/Src/stm32f7xx_hal_ltdc.c **** 
1332:Drivers/STM32F7xx_HAL_Driver/Src/stm32f7xx_hal_ltdc.c ****   /* Set LTDC parameters */
1333:Drivers/STM32F7xx_HAL_Driver/Src/stm32f7xx_hal_ltdc.c ****   LTDC_SetConfig(hltdc, pLayerCfg, LayerIdx);
 2201              		.loc 1 1333 3 discriminator 2
 2202 0040 7A68     		ldr	r2, [r7, #4]
 2203 0042 7969     		ldr	r1, [r7, #20]
 2204 0044 F868     		ldr	r0, [r7, #12]
 2205 0046 FFF7FEFF 		bl	LTDC_SetConfig
1334:Drivers/STM32F7xx_HAL_Driver/Src/stm32f7xx_hal_ltdc.c **** 
1335:Drivers/STM32F7xx_HAL_Driver/Src/stm32f7xx_hal_ltdc.c ****   /* Set the Immediate Reload type */
1336:Drivers/STM32F7xx_HAL_Driver/Src/stm32f7xx_hal_ltdc.c ****   hltdc->Instance->SRCR = LTDC_SRCR_IMR;
 2206              		.loc 1 1336 8 discriminator 2
 2207 004a FB68     		ldr	r3, [r7, #12]
 2208 004c 1B68     		ldr	r3, [r3]
 2209              		.loc 1 1336 25 discriminator 2
 2210 004e 0122     		movs	r2, #1
 2211 0050 5A62     		str	r2, [r3, #36]
1337:Drivers/STM32F7xx_HAL_Driver/Src/stm32f7xx_hal_ltdc.c **** 
1338:Drivers/STM32F7xx_HAL_Driver/Src/stm32f7xx_hal_ltdc.c ****   /* Change the LTDC state*/
1339:Drivers/STM32F7xx_HAL_Driver/Src/stm32f7xx_hal_ltdc.c ****   hltdc->State = HAL_LTDC_STATE_READY;
 2212              		.loc 1 1339 16 discriminator 2
 2213 0052 FB68     		ldr	r3, [r7, #12]
 2214 0054 0122     		movs	r2, #1
 2215 0056 83F8A120 		strb	r2, [r3, #161]
1340:Drivers/STM32F7xx_HAL_Driver/Src/stm32f7xx_hal_ltdc.c **** 
1341:Drivers/STM32F7xx_HAL_Driver/Src/stm32f7xx_hal_ltdc.c ****   /* Process unlocked */
1342:Drivers/STM32F7xx_HAL_Driver/Src/stm32f7xx_hal_ltdc.c ****   __HAL_UNLOCK(hltdc);
 2216              		.loc 1 1342 3 discriminator 2
 2217 005a FB68     		ldr	r3, [r7, #12]
 2218 005c 0022     		movs	r2, #0
 2219 005e 83F8A020 		strb	r2, [r3, #160]
1343:Drivers/STM32F7xx_HAL_Driver/Src/stm32f7xx_hal_ltdc.c **** 
1344:Drivers/STM32F7xx_HAL_Driver/Src/stm32f7xx_hal_ltdc.c ****   return HAL_OK;
 2220              		.loc 1 1344 10 discriminator 2
ARM GAS  C:\Users\jisu8\AppData\Local\Temp\cchBTxuu.s 			page 63


 2221 0062 0023     		movs	r3, #0
 2222              	.L71:
1345:Drivers/STM32F7xx_HAL_Driver/Src/stm32f7xx_hal_ltdc.c **** }
 2223              		.loc 1 1345 1
 2224 0064 1846     		mov	r0, r3
 2225 0066 1837     		adds	r7, r7, #24
 2226              	.LCFI116:
 2227              		.cfi_def_cfa_offset 8
 2228 0068 BD46     		mov	sp, r7
 2229              	.LCFI117:
 2230              		.cfi_def_cfa_register 13
 2231              		@ sp needed
 2232 006a 80BD     		pop	{r7, pc}
 2233              		.cfi_endproc
 2234              	.LFE161:
 2236              		.section	.text.HAL_LTDC_SetAddress,"ax",%progbits
 2237              		.align	1
 2238              		.global	HAL_LTDC_SetAddress
 2239              		.syntax unified
 2240              		.thumb
 2241              		.thumb_func
 2243              	HAL_LTDC_SetAddress:
 2244              	.LFB162:
1346:Drivers/STM32F7xx_HAL_Driver/Src/stm32f7xx_hal_ltdc.c **** /**
1347:Drivers/STM32F7xx_HAL_Driver/Src/stm32f7xx_hal_ltdc.c ****   * @brief  Reconfigure the frame buffer Address.
1348:Drivers/STM32F7xx_HAL_Driver/Src/stm32f7xx_hal_ltdc.c ****   * @param  hltdc     pointer to a LTDC_HandleTypeDef structure that contains
1349:Drivers/STM32F7xx_HAL_Driver/Src/stm32f7xx_hal_ltdc.c ****   *                   the configuration information for the LTDC.
1350:Drivers/STM32F7xx_HAL_Driver/Src/stm32f7xx_hal_ltdc.c ****   * @param  Address   new address value.
1351:Drivers/STM32F7xx_HAL_Driver/Src/stm32f7xx_hal_ltdc.c ****   * @param  LayerIdx  LTDC Layer index.
1352:Drivers/STM32F7xx_HAL_Driver/Src/stm32f7xx_hal_ltdc.c ****   *                   This parameter can be one of the following values:
1353:Drivers/STM32F7xx_HAL_Driver/Src/stm32f7xx_hal_ltdc.c ****   *                   LTDC_LAYER_1 (0) or LTDC_LAYER_2 (1).
1354:Drivers/STM32F7xx_HAL_Driver/Src/stm32f7xx_hal_ltdc.c ****   * @retval  HAL status
1355:Drivers/STM32F7xx_HAL_Driver/Src/stm32f7xx_hal_ltdc.c ****   */
1356:Drivers/STM32F7xx_HAL_Driver/Src/stm32f7xx_hal_ltdc.c **** HAL_StatusTypeDef HAL_LTDC_SetAddress(LTDC_HandleTypeDef *hltdc, uint32_t Address, uint32_t LayerId
1357:Drivers/STM32F7xx_HAL_Driver/Src/stm32f7xx_hal_ltdc.c **** {
 2245              		.loc 1 1357 1
 2246              		.cfi_startproc
 2247              		@ args = 0, pretend = 0, frame = 24
 2248              		@ frame_needed = 1, uses_anonymous_args = 0
 2249 0000 80B5     		push	{r7, lr}
 2250              	.LCFI118:
 2251              		.cfi_def_cfa_offset 8
 2252              		.cfi_offset 7, -8
 2253              		.cfi_offset 14, -4
 2254 0002 86B0     		sub	sp, sp, #24
 2255              	.LCFI119:
 2256              		.cfi_def_cfa_offset 32
 2257 0004 00AF     		add	r7, sp, #0
 2258              	.LCFI120:
 2259              		.cfi_def_cfa_register 7
 2260 0006 F860     		str	r0, [r7, #12]
 2261 0008 B960     		str	r1, [r7, #8]
 2262 000a 7A60     		str	r2, [r7, #4]
1358:Drivers/STM32F7xx_HAL_Driver/Src/stm32f7xx_hal_ltdc.c ****   LTDC_LayerCfgTypeDef *pLayerCfg;
1359:Drivers/STM32F7xx_HAL_Driver/Src/stm32f7xx_hal_ltdc.c **** 
1360:Drivers/STM32F7xx_HAL_Driver/Src/stm32f7xx_hal_ltdc.c ****   /* Check the parameters */
1361:Drivers/STM32F7xx_HAL_Driver/Src/stm32f7xx_hal_ltdc.c ****   assert_param(IS_LTDC_LAYER(LayerIdx));
ARM GAS  C:\Users\jisu8\AppData\Local\Temp\cchBTxuu.s 			page 64


1362:Drivers/STM32F7xx_HAL_Driver/Src/stm32f7xx_hal_ltdc.c **** 
1363:Drivers/STM32F7xx_HAL_Driver/Src/stm32f7xx_hal_ltdc.c ****   /* Process locked */
1364:Drivers/STM32F7xx_HAL_Driver/Src/stm32f7xx_hal_ltdc.c ****   __HAL_LOCK(hltdc);
 2263              		.loc 1 1364 3
 2264 000c FB68     		ldr	r3, [r7, #12]
 2265 000e 93F8A030 		ldrb	r3, [r3, #160]	@ zero_extendqisi2
 2266 0012 012B     		cmp	r3, #1
 2267 0014 01D1     		bne	.L73
 2268              		.loc 1 1364 3 is_stmt 0 discriminator 1
 2269 0016 0223     		movs	r3, #2
 2270 0018 24E0     		b	.L74
 2271              	.L73:
 2272              		.loc 1 1364 3 discriminator 2
 2273 001a FB68     		ldr	r3, [r7, #12]
 2274 001c 0122     		movs	r2, #1
 2275 001e 83F8A020 		strb	r2, [r3, #160]
1365:Drivers/STM32F7xx_HAL_Driver/Src/stm32f7xx_hal_ltdc.c **** 
1366:Drivers/STM32F7xx_HAL_Driver/Src/stm32f7xx_hal_ltdc.c ****   /* Change LTDC peripheral state */
1367:Drivers/STM32F7xx_HAL_Driver/Src/stm32f7xx_hal_ltdc.c ****   hltdc->State = HAL_LTDC_STATE_BUSY;
 2276              		.loc 1 1367 16 is_stmt 1 discriminator 2
 2277 0022 FB68     		ldr	r3, [r7, #12]
 2278 0024 0222     		movs	r2, #2
 2279 0026 83F8A120 		strb	r2, [r3, #161]
1368:Drivers/STM32F7xx_HAL_Driver/Src/stm32f7xx_hal_ltdc.c **** 
1369:Drivers/STM32F7xx_HAL_Driver/Src/stm32f7xx_hal_ltdc.c ****   /* Get layer configuration from handle structure */
1370:Drivers/STM32F7xx_HAL_Driver/Src/stm32f7xx_hal_ltdc.c ****   pLayerCfg = &hltdc->LayerCfg[LayerIdx];
 2280              		.loc 1 1370 13 discriminator 2
 2281 002a 7B68     		ldr	r3, [r7, #4]
 2282 002c 3422     		movs	r2, #52
 2283 002e 02FB03F3 		mul	r3, r2, r3
 2284 0032 3833     		adds	r3, r3, #56
 2285 0034 FA68     		ldr	r2, [r7, #12]
 2286 0036 1344     		add	r3, r3, r2
 2287 0038 7B61     		str	r3, [r7, #20]
1371:Drivers/STM32F7xx_HAL_Driver/Src/stm32f7xx_hal_ltdc.c **** 
1372:Drivers/STM32F7xx_HAL_Driver/Src/stm32f7xx_hal_ltdc.c ****   /* Reconfigure the Address */
1373:Drivers/STM32F7xx_HAL_Driver/Src/stm32f7xx_hal_ltdc.c ****   pLayerCfg->FBStartAdress = Address;
 2288              		.loc 1 1373 28 discriminator 2
 2289 003a 7B69     		ldr	r3, [r7, #20]
 2290 003c BA68     		ldr	r2, [r7, #8]
 2291 003e 5A62     		str	r2, [r3, #36]
1374:Drivers/STM32F7xx_HAL_Driver/Src/stm32f7xx_hal_ltdc.c **** 
1375:Drivers/STM32F7xx_HAL_Driver/Src/stm32f7xx_hal_ltdc.c ****   /* Set LTDC parameters */
1376:Drivers/STM32F7xx_HAL_Driver/Src/stm32f7xx_hal_ltdc.c ****   LTDC_SetConfig(hltdc, pLayerCfg, LayerIdx);
 2292              		.loc 1 1376 3 discriminator 2
 2293 0040 7A68     		ldr	r2, [r7, #4]
 2294 0042 7969     		ldr	r1, [r7, #20]
 2295 0044 F868     		ldr	r0, [r7, #12]
 2296 0046 FFF7FEFF 		bl	LTDC_SetConfig
1377:Drivers/STM32F7xx_HAL_Driver/Src/stm32f7xx_hal_ltdc.c **** 
1378:Drivers/STM32F7xx_HAL_Driver/Src/stm32f7xx_hal_ltdc.c ****   /* Set the Immediate Reload type */
1379:Drivers/STM32F7xx_HAL_Driver/Src/stm32f7xx_hal_ltdc.c ****   hltdc->Instance->SRCR = LTDC_SRCR_IMR;
 2297              		.loc 1 1379 8 discriminator 2
 2298 004a FB68     		ldr	r3, [r7, #12]
 2299 004c 1B68     		ldr	r3, [r3]
 2300              		.loc 1 1379 25 discriminator 2
 2301 004e 0122     		movs	r2, #1
ARM GAS  C:\Users\jisu8\AppData\Local\Temp\cchBTxuu.s 			page 65


 2302 0050 5A62     		str	r2, [r3, #36]
1380:Drivers/STM32F7xx_HAL_Driver/Src/stm32f7xx_hal_ltdc.c **** 
1381:Drivers/STM32F7xx_HAL_Driver/Src/stm32f7xx_hal_ltdc.c ****   /* Change the LTDC state*/
1382:Drivers/STM32F7xx_HAL_Driver/Src/stm32f7xx_hal_ltdc.c ****   hltdc->State = HAL_LTDC_STATE_READY;
 2303              		.loc 1 1382 16 discriminator 2
 2304 0052 FB68     		ldr	r3, [r7, #12]
 2305 0054 0122     		movs	r2, #1
 2306 0056 83F8A120 		strb	r2, [r3, #161]
1383:Drivers/STM32F7xx_HAL_Driver/Src/stm32f7xx_hal_ltdc.c **** 
1384:Drivers/STM32F7xx_HAL_Driver/Src/stm32f7xx_hal_ltdc.c ****   /* Process unlocked */
1385:Drivers/STM32F7xx_HAL_Driver/Src/stm32f7xx_hal_ltdc.c ****   __HAL_UNLOCK(hltdc);
 2307              		.loc 1 1385 3 discriminator 2
 2308 005a FB68     		ldr	r3, [r7, #12]
 2309 005c 0022     		movs	r2, #0
 2310 005e 83F8A020 		strb	r2, [r3, #160]
1386:Drivers/STM32F7xx_HAL_Driver/Src/stm32f7xx_hal_ltdc.c **** 
1387:Drivers/STM32F7xx_HAL_Driver/Src/stm32f7xx_hal_ltdc.c ****   return HAL_OK;
 2311              		.loc 1 1387 10 discriminator 2
 2312 0062 0023     		movs	r3, #0
 2313              	.L74:
1388:Drivers/STM32F7xx_HAL_Driver/Src/stm32f7xx_hal_ltdc.c **** }
 2314              		.loc 1 1388 1
 2315 0064 1846     		mov	r0, r3
 2316 0066 1837     		adds	r7, r7, #24
 2317              	.LCFI121:
 2318              		.cfi_def_cfa_offset 8
 2319 0068 BD46     		mov	sp, r7
 2320              	.LCFI122:
 2321              		.cfi_def_cfa_register 13
 2322              		@ sp needed
 2323 006a 80BD     		pop	{r7, pc}
 2324              		.cfi_endproc
 2325              	.LFE162:
 2327              		.section	.text.HAL_LTDC_SetPitch,"ax",%progbits
 2328              		.align	1
 2329              		.global	HAL_LTDC_SetPitch
 2330              		.syntax unified
 2331              		.thumb
 2332              		.thumb_func
 2334              	HAL_LTDC_SetPitch:
 2335              	.LFB163:
1389:Drivers/STM32F7xx_HAL_Driver/Src/stm32f7xx_hal_ltdc.c **** 
1390:Drivers/STM32F7xx_HAL_Driver/Src/stm32f7xx_hal_ltdc.c **** /**
1391:Drivers/STM32F7xx_HAL_Driver/Src/stm32f7xx_hal_ltdc.c ****   * @brief  Function used to reconfigure the pitch for specific cases where the attached LayerIdx b
1392:Drivers/STM32F7xx_HAL_Driver/Src/stm32f7xx_hal_ltdc.c ****   *         that is larger than the one intended to be displayed on screen. Example of a buffer 800
1393:Drivers/STM32F7xx_HAL_Driver/Src/stm32f7xx_hal_ltdc.c ****   *         layer for which we want to read and display on screen only a portion 320x240 taken in t
1394:Drivers/STM32F7xx_HAL_Driver/Src/stm32f7xx_hal_ltdc.c ****   *         of the buffer.
1395:Drivers/STM32F7xx_HAL_Driver/Src/stm32f7xx_hal_ltdc.c ****   *         The pitch in pixels will be in that case 800 pixels and not 320 pixels as initially con
1396:Drivers/STM32F7xx_HAL_Driver/Src/stm32f7xx_hal_ltdc.c ****   *         call to HAL_LTDC_ConfigLayer().
1397:Drivers/STM32F7xx_HAL_Driver/Src/stm32f7xx_hal_ltdc.c ****   * @note   This function should be called only after a previous call to HAL_LTDC_ConfigLayer() to 
1398:Drivers/STM32F7xx_HAL_Driver/Src/stm32f7xx_hal_ltdc.c ****   *         pitch configured by HAL_LTDC_ConfigLayer() when required (refer to example described ju
1399:Drivers/STM32F7xx_HAL_Driver/Src/stm32f7xx_hal_ltdc.c ****   * @param  hltdc              pointer to a LTDC_HandleTypeDef structure that contains
1400:Drivers/STM32F7xx_HAL_Driver/Src/stm32f7xx_hal_ltdc.c ****   *                            the configuration information for the LTDC.
1401:Drivers/STM32F7xx_HAL_Driver/Src/stm32f7xx_hal_ltdc.c ****   * @param  LinePitchInPixels  New line pitch in pixels to configure for LTDC layer 'LayerIdx'.
1402:Drivers/STM32F7xx_HAL_Driver/Src/stm32f7xx_hal_ltdc.c ****   * @param  LayerIdx           LTDC layer index concerned by the modification of line pitch.
1403:Drivers/STM32F7xx_HAL_Driver/Src/stm32f7xx_hal_ltdc.c ****   * @retval HAL status
1404:Drivers/STM32F7xx_HAL_Driver/Src/stm32f7xx_hal_ltdc.c ****   */
ARM GAS  C:\Users\jisu8\AppData\Local\Temp\cchBTxuu.s 			page 66


1405:Drivers/STM32F7xx_HAL_Driver/Src/stm32f7xx_hal_ltdc.c **** HAL_StatusTypeDef HAL_LTDC_SetPitch(LTDC_HandleTypeDef *hltdc, uint32_t LinePitchInPixels, uint32_t
1406:Drivers/STM32F7xx_HAL_Driver/Src/stm32f7xx_hal_ltdc.c **** {
 2336              		.loc 1 1406 1
 2337              		.cfi_startproc
 2338              		@ args = 0, pretend = 0, frame = 32
 2339              		@ frame_needed = 1, uses_anonymous_args = 0
 2340              		@ link register save eliminated.
 2341 0000 80B4     		push	{r7}
 2342              	.LCFI123:
 2343              		.cfi_def_cfa_offset 4
 2344              		.cfi_offset 7, -4
 2345 0002 89B0     		sub	sp, sp, #36
 2346              	.LCFI124:
 2347              		.cfi_def_cfa_offset 40
 2348 0004 00AF     		add	r7, sp, #0
 2349              	.LCFI125:
 2350              		.cfi_def_cfa_register 7
 2351 0006 F860     		str	r0, [r7, #12]
 2352 0008 B960     		str	r1, [r7, #8]
 2353 000a 7A60     		str	r2, [r7, #4]
1407:Drivers/STM32F7xx_HAL_Driver/Src/stm32f7xx_hal_ltdc.c ****   uint32_t tmp;
1408:Drivers/STM32F7xx_HAL_Driver/Src/stm32f7xx_hal_ltdc.c ****   uint32_t pitchUpdate;
1409:Drivers/STM32F7xx_HAL_Driver/Src/stm32f7xx_hal_ltdc.c ****   uint32_t pixelFormat;
1410:Drivers/STM32F7xx_HAL_Driver/Src/stm32f7xx_hal_ltdc.c **** 
1411:Drivers/STM32F7xx_HAL_Driver/Src/stm32f7xx_hal_ltdc.c ****   /* Check the parameters */
1412:Drivers/STM32F7xx_HAL_Driver/Src/stm32f7xx_hal_ltdc.c ****   assert_param(IS_LTDC_LAYER(LayerIdx));
1413:Drivers/STM32F7xx_HAL_Driver/Src/stm32f7xx_hal_ltdc.c **** 
1414:Drivers/STM32F7xx_HAL_Driver/Src/stm32f7xx_hal_ltdc.c ****   /* Process locked */
1415:Drivers/STM32F7xx_HAL_Driver/Src/stm32f7xx_hal_ltdc.c ****   __HAL_LOCK(hltdc);
 2354              		.loc 1 1415 3
 2355 000c FB68     		ldr	r3, [r7, #12]
 2356 000e 93F8A030 		ldrb	r3, [r3, #160]	@ zero_extendqisi2
 2357 0012 012B     		cmp	r3, #1
 2358 0014 01D1     		bne	.L76
 2359              		.loc 1 1415 3 is_stmt 0 discriminator 1
 2360 0016 0223     		movs	r3, #2
 2361 0018 6EE0     		b	.L77
 2362              	.L76:
 2363              		.loc 1 1415 3 discriminator 2
 2364 001a FB68     		ldr	r3, [r7, #12]
 2365 001c 0122     		movs	r2, #1
 2366 001e 83F8A020 		strb	r2, [r3, #160]
1416:Drivers/STM32F7xx_HAL_Driver/Src/stm32f7xx_hal_ltdc.c **** 
1417:Drivers/STM32F7xx_HAL_Driver/Src/stm32f7xx_hal_ltdc.c ****   /* Change LTDC peripheral state */
1418:Drivers/STM32F7xx_HAL_Driver/Src/stm32f7xx_hal_ltdc.c ****   hltdc->State = HAL_LTDC_STATE_BUSY;
 2367              		.loc 1 1418 16 is_stmt 1 discriminator 2
 2368 0022 FB68     		ldr	r3, [r7, #12]
 2369 0024 0222     		movs	r2, #2
 2370 0026 83F8A120 		strb	r2, [r3, #161]
1419:Drivers/STM32F7xx_HAL_Driver/Src/stm32f7xx_hal_ltdc.c **** 
1420:Drivers/STM32F7xx_HAL_Driver/Src/stm32f7xx_hal_ltdc.c ****   /* get LayerIdx used pixel format */
1421:Drivers/STM32F7xx_HAL_Driver/Src/stm32f7xx_hal_ltdc.c ****   pixelFormat = hltdc->LayerCfg[LayerIdx].PixelFormat;
 2371              		.loc 1 1421 15 discriminator 2
 2372 002a FA68     		ldr	r2, [r7, #12]
 2373 002c 7B68     		ldr	r3, [r7, #4]
 2374 002e 3421     		movs	r1, #52
 2375 0030 01FB03F3 		mul	r3, r1, r3
ARM GAS  C:\Users\jisu8\AppData\Local\Temp\cchBTxuu.s 			page 67


 2376 0034 1344     		add	r3, r3, r2
 2377 0036 4833     		adds	r3, r3, #72
 2378 0038 1B68     		ldr	r3, [r3]
 2379 003a BB61     		str	r3, [r7, #24]
1422:Drivers/STM32F7xx_HAL_Driver/Src/stm32f7xx_hal_ltdc.c **** 
1423:Drivers/STM32F7xx_HAL_Driver/Src/stm32f7xx_hal_ltdc.c ****   if (pixelFormat == LTDC_PIXEL_FORMAT_ARGB8888)
 2380              		.loc 1 1423 6 discriminator 2
 2381 003c BB69     		ldr	r3, [r7, #24]
 2382 003e 002B     		cmp	r3, #0
 2383 0040 02D1     		bne	.L78
1424:Drivers/STM32F7xx_HAL_Driver/Src/stm32f7xx_hal_ltdc.c ****   {
1425:Drivers/STM32F7xx_HAL_Driver/Src/stm32f7xx_hal_ltdc.c ****     tmp = 4U;
 2384              		.loc 1 1425 9
 2385 0042 0423     		movs	r3, #4
 2386 0044 FB61     		str	r3, [r7, #28]
 2387 0046 16E0     		b	.L79
 2388              	.L78:
1426:Drivers/STM32F7xx_HAL_Driver/Src/stm32f7xx_hal_ltdc.c ****   }
1427:Drivers/STM32F7xx_HAL_Driver/Src/stm32f7xx_hal_ltdc.c ****   else if (pixelFormat == LTDC_PIXEL_FORMAT_RGB888)
 2389              		.loc 1 1427 11
 2390 0048 BB69     		ldr	r3, [r7, #24]
 2391 004a 012B     		cmp	r3, #1
 2392 004c 02D1     		bne	.L80
1428:Drivers/STM32F7xx_HAL_Driver/Src/stm32f7xx_hal_ltdc.c ****   {
1429:Drivers/STM32F7xx_HAL_Driver/Src/stm32f7xx_hal_ltdc.c ****     tmp = 3U;
 2393              		.loc 1 1429 9
 2394 004e 0323     		movs	r3, #3
 2395 0050 FB61     		str	r3, [r7, #28]
 2396 0052 10E0     		b	.L79
 2397              	.L80:
1430:Drivers/STM32F7xx_HAL_Driver/Src/stm32f7xx_hal_ltdc.c ****   }
1431:Drivers/STM32F7xx_HAL_Driver/Src/stm32f7xx_hal_ltdc.c ****   else if ((pixelFormat == LTDC_PIXEL_FORMAT_ARGB4444) || \
 2398              		.loc 1 1431 11
 2399 0054 BB69     		ldr	r3, [r7, #24]
 2400 0056 042B     		cmp	r3, #4
 2401 0058 08D0     		beq	.L81
 2402              		.loc 1 1431 56 discriminator 1
 2403 005a BB69     		ldr	r3, [r7, #24]
 2404 005c 022B     		cmp	r3, #2
 2405 005e 05D0     		beq	.L81
1432:Drivers/STM32F7xx_HAL_Driver/Src/stm32f7xx_hal_ltdc.c ****            (pixelFormat == LTDC_PIXEL_FORMAT_RGB565)   || \
 2406              		.loc 1 1432 56
 2407 0060 BB69     		ldr	r3, [r7, #24]
 2408 0062 032B     		cmp	r3, #3
 2409 0064 02D0     		beq	.L81
1433:Drivers/STM32F7xx_HAL_Driver/Src/stm32f7xx_hal_ltdc.c ****            (pixelFormat == LTDC_PIXEL_FORMAT_ARGB1555) || \
 2410              		.loc 1 1433 56
 2411 0066 BB69     		ldr	r3, [r7, #24]
 2412 0068 072B     		cmp	r3, #7
 2413 006a 02D1     		bne	.L82
 2414              	.L81:
1434:Drivers/STM32F7xx_HAL_Driver/Src/stm32f7xx_hal_ltdc.c ****            (pixelFormat == LTDC_PIXEL_FORMAT_AL88))
1435:Drivers/STM32F7xx_HAL_Driver/Src/stm32f7xx_hal_ltdc.c ****   {
1436:Drivers/STM32F7xx_HAL_Driver/Src/stm32f7xx_hal_ltdc.c ****     tmp = 2U;
 2415              		.loc 1 1436 9
 2416 006c 0223     		movs	r3, #2
 2417 006e FB61     		str	r3, [r7, #28]
ARM GAS  C:\Users\jisu8\AppData\Local\Temp\cchBTxuu.s 			page 68


 2418 0070 01E0     		b	.L79
 2419              	.L82:
1437:Drivers/STM32F7xx_HAL_Driver/Src/stm32f7xx_hal_ltdc.c ****   }
1438:Drivers/STM32F7xx_HAL_Driver/Src/stm32f7xx_hal_ltdc.c ****   else
1439:Drivers/STM32F7xx_HAL_Driver/Src/stm32f7xx_hal_ltdc.c ****   {
1440:Drivers/STM32F7xx_HAL_Driver/Src/stm32f7xx_hal_ltdc.c ****     tmp = 1U;
 2420              		.loc 1 1440 9
 2421 0072 0123     		movs	r3, #1
 2422 0074 FB61     		str	r3, [r7, #28]
 2423              	.L79:
1441:Drivers/STM32F7xx_HAL_Driver/Src/stm32f7xx_hal_ltdc.c ****   }
1442:Drivers/STM32F7xx_HAL_Driver/Src/stm32f7xx_hal_ltdc.c **** 
1443:Drivers/STM32F7xx_HAL_Driver/Src/stm32f7xx_hal_ltdc.c ****   pitchUpdate = ((LinePitchInPixels * tmp) << 16U);
 2424              		.loc 1 1443 37
 2425 0076 BB68     		ldr	r3, [r7, #8]
 2426 0078 FA69     		ldr	r2, [r7, #28]
 2427 007a 02FB03F3 		mul	r3, r2, r3
 2428              		.loc 1 1443 15
 2429 007e 1B04     		lsls	r3, r3, #16
 2430 0080 7B61     		str	r3, [r7, #20]
1444:Drivers/STM32F7xx_HAL_Driver/Src/stm32f7xx_hal_ltdc.c **** 
1445:Drivers/STM32F7xx_HAL_Driver/Src/stm32f7xx_hal_ltdc.c ****   /* Clear previously set standard pitch */
1446:Drivers/STM32F7xx_HAL_Driver/Src/stm32f7xx_hal_ltdc.c ****   LTDC_LAYER(hltdc, LayerIdx)->CFBLR &= ~LTDC_LxCFBLR_CFBP;
 2431              		.loc 1 1446 3
 2432 0082 FB68     		ldr	r3, [r7, #12]
 2433 0084 1B68     		ldr	r3, [r3]
 2434              		.loc 1 1446 38
 2435 0086 1A46     		mov	r2, r3
 2436 0088 7B68     		ldr	r3, [r7, #4]
 2437 008a DB01     		lsls	r3, r3, #7
 2438 008c 1344     		add	r3, r3, r2
 2439 008e 8433     		adds	r3, r3, #132
 2440 0090 DA6A     		ldr	r2, [r3, #44]
 2441              		.loc 1 1446 3
 2442 0092 FB68     		ldr	r3, [r7, #12]
 2443 0094 1B68     		ldr	r3, [r3]
 2444              		.loc 1 1446 38
 2445 0096 1946     		mov	r1, r3
 2446 0098 7B68     		ldr	r3, [r7, #4]
 2447 009a DB01     		lsls	r3, r3, #7
 2448 009c 0B44     		add	r3, r3, r1
 2449 009e 8433     		adds	r3, r3, #132
 2450 00a0 1946     		mov	r1, r3
 2451 00a2 184B     		ldr	r3, .L83
 2452 00a4 1340     		ands	r3, r3, r2
 2453 00a6 CB62     		str	r3, [r1, #44]
1447:Drivers/STM32F7xx_HAL_Driver/Src/stm32f7xx_hal_ltdc.c **** 
1448:Drivers/STM32F7xx_HAL_Driver/Src/stm32f7xx_hal_ltdc.c ****   /* Set the Reload type as immediate update of LTDC pitch configured above */
1449:Drivers/STM32F7xx_HAL_Driver/Src/stm32f7xx_hal_ltdc.c ****   LTDC->SRCR |= LTDC_SRCR_IMR;
 2454              		.loc 1 1449 14
 2455 00a8 174B     		ldr	r3, .L83+4
 2456 00aa 5B6A     		ldr	r3, [r3, #36]
 2457 00ac 164A     		ldr	r2, .L83+4
 2458 00ae 43F00103 		orr	r3, r3, #1
 2459 00b2 5362     		str	r3, [r2, #36]
1450:Drivers/STM32F7xx_HAL_Driver/Src/stm32f7xx_hal_ltdc.c **** 
1451:Drivers/STM32F7xx_HAL_Driver/Src/stm32f7xx_hal_ltdc.c ****   /* Set new line pitch value */
ARM GAS  C:\Users\jisu8\AppData\Local\Temp\cchBTxuu.s 			page 69


1452:Drivers/STM32F7xx_HAL_Driver/Src/stm32f7xx_hal_ltdc.c ****   LTDC_LAYER(hltdc, LayerIdx)->CFBLR |= pitchUpdate;
 2460              		.loc 1 1452 3
 2461 00b4 FB68     		ldr	r3, [r7, #12]
 2462 00b6 1B68     		ldr	r3, [r3]
 2463              		.loc 1 1452 38
 2464 00b8 1A46     		mov	r2, r3
 2465 00ba 7B68     		ldr	r3, [r7, #4]
 2466 00bc DB01     		lsls	r3, r3, #7
 2467 00be 1344     		add	r3, r3, r2
 2468 00c0 8433     		adds	r3, r3, #132
 2469 00c2 DA6A     		ldr	r2, [r3, #44]
 2470              		.loc 1 1452 3
 2471 00c4 FB68     		ldr	r3, [r7, #12]
 2472 00c6 1B68     		ldr	r3, [r3]
 2473              		.loc 1 1452 38
 2474 00c8 1946     		mov	r1, r3
 2475 00ca 7B68     		ldr	r3, [r7, #4]
 2476 00cc DB01     		lsls	r3, r3, #7
 2477 00ce 0B44     		add	r3, r3, r1
 2478 00d0 8433     		adds	r3, r3, #132
 2479 00d2 1946     		mov	r1, r3
 2480 00d4 7B69     		ldr	r3, [r7, #20]
 2481 00d6 1343     		orrs	r3, r3, r2
 2482 00d8 CB62     		str	r3, [r1, #44]
1453:Drivers/STM32F7xx_HAL_Driver/Src/stm32f7xx_hal_ltdc.c **** 
1454:Drivers/STM32F7xx_HAL_Driver/Src/stm32f7xx_hal_ltdc.c ****   /* Set the Reload type as immediate update of LTDC pitch configured above */
1455:Drivers/STM32F7xx_HAL_Driver/Src/stm32f7xx_hal_ltdc.c ****   LTDC->SRCR |= LTDC_SRCR_IMR;
 2483              		.loc 1 1455 14
 2484 00da 0B4B     		ldr	r3, .L83+4
 2485 00dc 5B6A     		ldr	r3, [r3, #36]
 2486 00de 0A4A     		ldr	r2, .L83+4
 2487 00e0 43F00103 		orr	r3, r3, #1
 2488 00e4 5362     		str	r3, [r2, #36]
1456:Drivers/STM32F7xx_HAL_Driver/Src/stm32f7xx_hal_ltdc.c **** 
1457:Drivers/STM32F7xx_HAL_Driver/Src/stm32f7xx_hal_ltdc.c ****   /* Change the LTDC state*/
1458:Drivers/STM32F7xx_HAL_Driver/Src/stm32f7xx_hal_ltdc.c ****   hltdc->State = HAL_LTDC_STATE_READY;
 2489              		.loc 1 1458 16
 2490 00e6 FB68     		ldr	r3, [r7, #12]
 2491 00e8 0122     		movs	r2, #1
 2492 00ea 83F8A120 		strb	r2, [r3, #161]
1459:Drivers/STM32F7xx_HAL_Driver/Src/stm32f7xx_hal_ltdc.c **** 
1460:Drivers/STM32F7xx_HAL_Driver/Src/stm32f7xx_hal_ltdc.c ****   /* Process unlocked */
1461:Drivers/STM32F7xx_HAL_Driver/Src/stm32f7xx_hal_ltdc.c ****   __HAL_UNLOCK(hltdc);
 2493              		.loc 1 1461 3
 2494 00ee FB68     		ldr	r3, [r7, #12]
 2495 00f0 0022     		movs	r2, #0
 2496 00f2 83F8A020 		strb	r2, [r3, #160]
1462:Drivers/STM32F7xx_HAL_Driver/Src/stm32f7xx_hal_ltdc.c **** 
1463:Drivers/STM32F7xx_HAL_Driver/Src/stm32f7xx_hal_ltdc.c ****   return HAL_OK;
 2497              		.loc 1 1463 10
 2498 00f6 0023     		movs	r3, #0
 2499              	.L77:
1464:Drivers/STM32F7xx_HAL_Driver/Src/stm32f7xx_hal_ltdc.c **** }
 2500              		.loc 1 1464 1
 2501 00f8 1846     		mov	r0, r3
 2502 00fa 2437     		adds	r7, r7, #36
 2503              	.LCFI126:
ARM GAS  C:\Users\jisu8\AppData\Local\Temp\cchBTxuu.s 			page 70


 2504              		.cfi_def_cfa_offset 4
 2505 00fc BD46     		mov	sp, r7
 2506              	.LCFI127:
 2507              		.cfi_def_cfa_register 13
 2508              		@ sp needed
 2509 00fe 5DF8047B 		ldr	r7, [sp], #4
 2510              	.LCFI128:
 2511              		.cfi_restore 7
 2512              		.cfi_def_cfa_offset 0
 2513 0102 7047     		bx	lr
 2514              	.L84:
 2515              		.align	2
 2516              	.L83:
 2517 0104 FFFF00E0 		.word	-536805377
 2518 0108 00680140 		.word	1073833984
 2519              		.cfi_endproc
 2520              	.LFE163:
 2522              		.section	.text.HAL_LTDC_ProgramLineEvent,"ax",%progbits
 2523              		.align	1
 2524              		.global	HAL_LTDC_ProgramLineEvent
 2525              		.syntax unified
 2526              		.thumb
 2527              		.thumb_func
 2529              	HAL_LTDC_ProgramLineEvent:
 2530              	.LFB164:
1465:Drivers/STM32F7xx_HAL_Driver/Src/stm32f7xx_hal_ltdc.c **** 
1466:Drivers/STM32F7xx_HAL_Driver/Src/stm32f7xx_hal_ltdc.c **** /**
1467:Drivers/STM32F7xx_HAL_Driver/Src/stm32f7xx_hal_ltdc.c ****   * @brief  Define the position of the line interrupt.
1468:Drivers/STM32F7xx_HAL_Driver/Src/stm32f7xx_hal_ltdc.c ****   * @param  hltdc   pointer to a LTDC_HandleTypeDef structure that contains
1469:Drivers/STM32F7xx_HAL_Driver/Src/stm32f7xx_hal_ltdc.c ****   *                 the configuration information for the LTDC.
1470:Drivers/STM32F7xx_HAL_Driver/Src/stm32f7xx_hal_ltdc.c ****   * @param  Line    Line Interrupt Position.
1471:Drivers/STM32F7xx_HAL_Driver/Src/stm32f7xx_hal_ltdc.c ****   * @note   User application may resort to HAL_LTDC_LineEventCallback() at line interrupt generatio
1472:Drivers/STM32F7xx_HAL_Driver/Src/stm32f7xx_hal_ltdc.c ****   * @retval  HAL status
1473:Drivers/STM32F7xx_HAL_Driver/Src/stm32f7xx_hal_ltdc.c ****   */
1474:Drivers/STM32F7xx_HAL_Driver/Src/stm32f7xx_hal_ltdc.c **** HAL_StatusTypeDef HAL_LTDC_ProgramLineEvent(LTDC_HandleTypeDef *hltdc, uint32_t Line)
1475:Drivers/STM32F7xx_HAL_Driver/Src/stm32f7xx_hal_ltdc.c **** {
 2531              		.loc 1 1475 1
 2532              		.cfi_startproc
 2533              		@ args = 0, pretend = 0, frame = 8
 2534              		@ frame_needed = 1, uses_anonymous_args = 0
 2535              		@ link register save eliminated.
 2536 0000 80B4     		push	{r7}
 2537              	.LCFI129:
 2538              		.cfi_def_cfa_offset 4
 2539              		.cfi_offset 7, -4
 2540 0002 83B0     		sub	sp, sp, #12
 2541              	.LCFI130:
 2542              		.cfi_def_cfa_offset 16
 2543 0004 00AF     		add	r7, sp, #0
 2544              	.LCFI131:
 2545              		.cfi_def_cfa_register 7
 2546 0006 7860     		str	r0, [r7, #4]
 2547 0008 3960     		str	r1, [r7]
1476:Drivers/STM32F7xx_HAL_Driver/Src/stm32f7xx_hal_ltdc.c ****   /* Check the parameters */
1477:Drivers/STM32F7xx_HAL_Driver/Src/stm32f7xx_hal_ltdc.c ****   assert_param(IS_LTDC_LIPOS(Line));
1478:Drivers/STM32F7xx_HAL_Driver/Src/stm32f7xx_hal_ltdc.c **** 
1479:Drivers/STM32F7xx_HAL_Driver/Src/stm32f7xx_hal_ltdc.c ****   /* Process locked */
ARM GAS  C:\Users\jisu8\AppData\Local\Temp\cchBTxuu.s 			page 71


1480:Drivers/STM32F7xx_HAL_Driver/Src/stm32f7xx_hal_ltdc.c ****   __HAL_LOCK(hltdc);
 2548              		.loc 1 1480 3
 2549 000a 7B68     		ldr	r3, [r7, #4]
 2550 000c 93F8A030 		ldrb	r3, [r3, #160]	@ zero_extendqisi2
 2551 0010 012B     		cmp	r3, #1
 2552 0012 01D1     		bne	.L86
 2553              		.loc 1 1480 3 is_stmt 0 discriminator 1
 2554 0014 0223     		movs	r3, #2
 2555 0016 23E0     		b	.L87
 2556              	.L86:
 2557              		.loc 1 1480 3 discriminator 2
 2558 0018 7B68     		ldr	r3, [r7, #4]
 2559 001a 0122     		movs	r2, #1
 2560 001c 83F8A020 		strb	r2, [r3, #160]
1481:Drivers/STM32F7xx_HAL_Driver/Src/stm32f7xx_hal_ltdc.c **** 
1482:Drivers/STM32F7xx_HAL_Driver/Src/stm32f7xx_hal_ltdc.c ****   /* Change LTDC peripheral state */
1483:Drivers/STM32F7xx_HAL_Driver/Src/stm32f7xx_hal_ltdc.c ****   hltdc->State = HAL_LTDC_STATE_BUSY;
 2561              		.loc 1 1483 16 is_stmt 1 discriminator 2
 2562 0020 7B68     		ldr	r3, [r7, #4]
 2563 0022 0222     		movs	r2, #2
 2564 0024 83F8A120 		strb	r2, [r3, #161]
1484:Drivers/STM32F7xx_HAL_Driver/Src/stm32f7xx_hal_ltdc.c **** 
1485:Drivers/STM32F7xx_HAL_Driver/Src/stm32f7xx_hal_ltdc.c ****   /* Disable the Line interrupt */
1486:Drivers/STM32F7xx_HAL_Driver/Src/stm32f7xx_hal_ltdc.c ****   __HAL_LTDC_DISABLE_IT(hltdc, LTDC_IT_LI);
 2565              		.loc 1 1486 3 discriminator 2
 2566 0028 7B68     		ldr	r3, [r7, #4]
 2567 002a 1B68     		ldr	r3, [r3]
 2568 002c 5A6B     		ldr	r2, [r3, #52]
 2569 002e 7B68     		ldr	r3, [r7, #4]
 2570 0030 1B68     		ldr	r3, [r3]
 2571 0032 22F00102 		bic	r2, r2, #1
 2572 0036 5A63     		str	r2, [r3, #52]
1487:Drivers/STM32F7xx_HAL_Driver/Src/stm32f7xx_hal_ltdc.c **** 
1488:Drivers/STM32F7xx_HAL_Driver/Src/stm32f7xx_hal_ltdc.c ****   /* Set the Line Interrupt position */
1489:Drivers/STM32F7xx_HAL_Driver/Src/stm32f7xx_hal_ltdc.c ****   LTDC->LIPCR = (uint32_t)Line;
 2573              		.loc 1 1489 7 discriminator 2
 2574 0038 0C4A     		ldr	r2, .L88
 2575              		.loc 1 1489 15 discriminator 2
 2576 003a 3B68     		ldr	r3, [r7]
 2577 003c 1364     		str	r3, [r2, #64]
1490:Drivers/STM32F7xx_HAL_Driver/Src/stm32f7xx_hal_ltdc.c **** 
1491:Drivers/STM32F7xx_HAL_Driver/Src/stm32f7xx_hal_ltdc.c ****   /* Enable the Line interrupt */
1492:Drivers/STM32F7xx_HAL_Driver/Src/stm32f7xx_hal_ltdc.c ****   __HAL_LTDC_ENABLE_IT(hltdc, LTDC_IT_LI);
 2578              		.loc 1 1492 3 discriminator 2
 2579 003e 7B68     		ldr	r3, [r7, #4]
 2580 0040 1B68     		ldr	r3, [r3]
 2581 0042 5A6B     		ldr	r2, [r3, #52]
 2582 0044 7B68     		ldr	r3, [r7, #4]
 2583 0046 1B68     		ldr	r3, [r3]
 2584 0048 42F00102 		orr	r2, r2, #1
 2585 004c 5A63     		str	r2, [r3, #52]
1493:Drivers/STM32F7xx_HAL_Driver/Src/stm32f7xx_hal_ltdc.c **** 
1494:Drivers/STM32F7xx_HAL_Driver/Src/stm32f7xx_hal_ltdc.c ****   /* Change the LTDC state*/
1495:Drivers/STM32F7xx_HAL_Driver/Src/stm32f7xx_hal_ltdc.c ****   hltdc->State = HAL_LTDC_STATE_READY;
 2586              		.loc 1 1495 16 discriminator 2
 2587 004e 7B68     		ldr	r3, [r7, #4]
 2588 0050 0122     		movs	r2, #1
ARM GAS  C:\Users\jisu8\AppData\Local\Temp\cchBTxuu.s 			page 72


 2589 0052 83F8A120 		strb	r2, [r3, #161]
1496:Drivers/STM32F7xx_HAL_Driver/Src/stm32f7xx_hal_ltdc.c **** 
1497:Drivers/STM32F7xx_HAL_Driver/Src/stm32f7xx_hal_ltdc.c ****   /* Process unlocked */
1498:Drivers/STM32F7xx_HAL_Driver/Src/stm32f7xx_hal_ltdc.c ****   __HAL_UNLOCK(hltdc);
 2590              		.loc 1 1498 3 discriminator 2
 2591 0056 7B68     		ldr	r3, [r7, #4]
 2592 0058 0022     		movs	r2, #0
 2593 005a 83F8A020 		strb	r2, [r3, #160]
1499:Drivers/STM32F7xx_HAL_Driver/Src/stm32f7xx_hal_ltdc.c **** 
1500:Drivers/STM32F7xx_HAL_Driver/Src/stm32f7xx_hal_ltdc.c ****   return HAL_OK;
 2594              		.loc 1 1500 10 discriminator 2
 2595 005e 0023     		movs	r3, #0
 2596              	.L87:
1501:Drivers/STM32F7xx_HAL_Driver/Src/stm32f7xx_hal_ltdc.c **** }
 2597              		.loc 1 1501 1
 2598 0060 1846     		mov	r0, r3
 2599 0062 0C37     		adds	r7, r7, #12
 2600              	.LCFI132:
 2601              		.cfi_def_cfa_offset 4
 2602 0064 BD46     		mov	sp, r7
 2603              	.LCFI133:
 2604              		.cfi_def_cfa_register 13
 2605              		@ sp needed
 2606 0066 5DF8047B 		ldr	r7, [sp], #4
 2607              	.LCFI134:
 2608              		.cfi_restore 7
 2609              		.cfi_def_cfa_offset 0
 2610 006a 7047     		bx	lr
 2611              	.L89:
 2612              		.align	2
 2613              	.L88:
 2614 006c 00680140 		.word	1073833984
 2615              		.cfi_endproc
 2616              	.LFE164:
 2618              		.section	.text.HAL_LTDC_Reload,"ax",%progbits
 2619              		.align	1
 2620              		.global	HAL_LTDC_Reload
 2621              		.syntax unified
 2622              		.thumb
 2623              		.thumb_func
 2625              	HAL_LTDC_Reload:
 2626              	.LFB165:
1502:Drivers/STM32F7xx_HAL_Driver/Src/stm32f7xx_hal_ltdc.c **** 
1503:Drivers/STM32F7xx_HAL_Driver/Src/stm32f7xx_hal_ltdc.c **** /**
1504:Drivers/STM32F7xx_HAL_Driver/Src/stm32f7xx_hal_ltdc.c ****   * @brief  Reload LTDC Layers configuration.
1505:Drivers/STM32F7xx_HAL_Driver/Src/stm32f7xx_hal_ltdc.c ****   * @param  hltdc      pointer to a LTDC_HandleTypeDef structure that contains
1506:Drivers/STM32F7xx_HAL_Driver/Src/stm32f7xx_hal_ltdc.c ****   *                    the configuration information for the LTDC.
1507:Drivers/STM32F7xx_HAL_Driver/Src/stm32f7xx_hal_ltdc.c ****   * @param  ReloadType This parameter can be one of the following values :
