ARM GAS  C:\Users\jisu8\AppData\Local\Temp\ccG1p0Yx.s 			page 1


   1              		.cpu cortex-m7
   2              		.arch armv7e-m
   3              		.fpu fpv5-sp-d16
   4              		.eabi_attribute 27, 1
   5              		.eabi_attribute 28, 1
   6              		.eabi_attribute 20, 1
   7              		.eabi_attribute 21, 1
   8              		.eabi_attribute 23, 3
   9              		.eabi_attribute 24, 1
  10              		.eabi_attribute 25, 1
  11              		.eabi_attribute 26, 1
  12              		.eabi_attribute 30, 6
  13              		.eabi_attribute 34, 1
  14              		.eabi_attribute 18, 4
  15              		.file	"stm32f7xx_ll_sdmmc.c"
  16              		.text
  17              	.Ltext0:
  18              		.cfi_sections	.debug_frame
  19              		.section	.text.SDMMC_Init,"ax",%progbits
  20              		.align	1
  21              		.global	SDMMC_Init
  22              		.syntax unified
  23              		.thumb
  24              		.thumb_func
  26              	SDMMC_Init:
  27              	.LFB141:
  28              		.file 1 "Drivers/STM32F7xx_HAL_Driver/Src/stm32f7xx_ll_sdmmc.c"
   1:Drivers/STM32F7xx_HAL_Driver/Src/stm32f7xx_ll_sdmmc.c **** /**
   2:Drivers/STM32F7xx_HAL_Driver/Src/stm32f7xx_ll_sdmmc.c ****   ******************************************************************************
   3:Drivers/STM32F7xx_HAL_Driver/Src/stm32f7xx_ll_sdmmc.c ****   * @file    stm32f7xx_ll_sdmmc.c
   4:Drivers/STM32F7xx_HAL_Driver/Src/stm32f7xx_ll_sdmmc.c ****   * @author  MCD Application Team
   5:Drivers/STM32F7xx_HAL_Driver/Src/stm32f7xx_ll_sdmmc.c ****   * @brief   SDMMC Low Layer HAL module driver.
   6:Drivers/STM32F7xx_HAL_Driver/Src/stm32f7xx_ll_sdmmc.c ****   *    
   7:Drivers/STM32F7xx_HAL_Driver/Src/stm32f7xx_ll_sdmmc.c ****   *          This file provides firmware functions to manage the following 
   8:Drivers/STM32F7xx_HAL_Driver/Src/stm32f7xx_ll_sdmmc.c ****   *          functionalities of the SDMMC peripheral:
   9:Drivers/STM32F7xx_HAL_Driver/Src/stm32f7xx_ll_sdmmc.c ****   *           + Initialization/de-initialization functions
  10:Drivers/STM32F7xx_HAL_Driver/Src/stm32f7xx_ll_sdmmc.c ****   *           + I/O operation functions
  11:Drivers/STM32F7xx_HAL_Driver/Src/stm32f7xx_ll_sdmmc.c ****   *           + Peripheral Control functions 
  12:Drivers/STM32F7xx_HAL_Driver/Src/stm32f7xx_ll_sdmmc.c ****   *           + Peripheral State functions
  13:Drivers/STM32F7xx_HAL_Driver/Src/stm32f7xx_ll_sdmmc.c ****   *         
  14:Drivers/STM32F7xx_HAL_Driver/Src/stm32f7xx_ll_sdmmc.c ****   ******************************************************************************
  15:Drivers/STM32F7xx_HAL_Driver/Src/stm32f7xx_ll_sdmmc.c ****   * @attention
  16:Drivers/STM32F7xx_HAL_Driver/Src/stm32f7xx_ll_sdmmc.c ****   *
  17:Drivers/STM32F7xx_HAL_Driver/Src/stm32f7xx_ll_sdmmc.c ****   * Copyright (c) 2017 STMicroelectronics.
  18:Drivers/STM32F7xx_HAL_Driver/Src/stm32f7xx_ll_sdmmc.c ****   * All rights reserved.
  19:Drivers/STM32F7xx_HAL_Driver/Src/stm32f7xx_ll_sdmmc.c ****   *
  20:Drivers/STM32F7xx_HAL_Driver/Src/stm32f7xx_ll_sdmmc.c ****   * This software is licensed under terms that can be found in the LICENSE file
  21:Drivers/STM32F7xx_HAL_Driver/Src/stm32f7xx_ll_sdmmc.c ****   * in the root directory of this software component.
  22:Drivers/STM32F7xx_HAL_Driver/Src/stm32f7xx_ll_sdmmc.c ****   * If no LICENSE file comes with this software, it is provided AS-IS.
  23:Drivers/STM32F7xx_HAL_Driver/Src/stm32f7xx_ll_sdmmc.c ****   *
  24:Drivers/STM32F7xx_HAL_Driver/Src/stm32f7xx_ll_sdmmc.c ****   ******************************************************************************
  25:Drivers/STM32F7xx_HAL_Driver/Src/stm32f7xx_ll_sdmmc.c ****   @verbatim
  26:Drivers/STM32F7xx_HAL_Driver/Src/stm32f7xx_ll_sdmmc.c ****   ==============================================================================
  27:Drivers/STM32F7xx_HAL_Driver/Src/stm32f7xx_ll_sdmmc.c ****                        ##### SDMMC peripheral features #####
  28:Drivers/STM32F7xx_HAL_Driver/Src/stm32f7xx_ll_sdmmc.c ****   ==============================================================================        
  29:Drivers/STM32F7xx_HAL_Driver/Src/stm32f7xx_ll_sdmmc.c ****     [..] The SD/SDMMC MMC card host interface (SDMMC) provides an interface between the AHB
  30:Drivers/STM32F7xx_HAL_Driver/Src/stm32f7xx_ll_sdmmc.c ****          peripheral bus and MultiMedia cards (MMCs), SD memory cards, SDMMC cards and CE-ATA
ARM GAS  C:\Users\jisu8\AppData\Local\Temp\ccG1p0Yx.s 			page 2


  31:Drivers/STM32F7xx_HAL_Driver/Src/stm32f7xx_ll_sdmmc.c ****          devices.
  32:Drivers/STM32F7xx_HAL_Driver/Src/stm32f7xx_ll_sdmmc.c ****     
  33:Drivers/STM32F7xx_HAL_Driver/Src/stm32f7xx_ll_sdmmc.c ****     [..] The SDMMC features include the following:
  34:Drivers/STM32F7xx_HAL_Driver/Src/stm32f7xx_ll_sdmmc.c ****          (+) Full compliance with MultiMedia Card System Specification Version 4.2. Card support
  35:Drivers/STM32F7xx_HAL_Driver/Src/stm32f7xx_ll_sdmmc.c ****              for three different databus modes: 1-bit (default), 4-bit and 8-bit
  36:Drivers/STM32F7xx_HAL_Driver/Src/stm32f7xx_ll_sdmmc.c ****          (+) Full compatibility with previous versions of MultiMedia Cards (forward compatibility)
  37:Drivers/STM32F7xx_HAL_Driver/Src/stm32f7xx_ll_sdmmc.c ****          (+) Full compliance with SD Memory Card Specifications Version 2.0
  38:Drivers/STM32F7xx_HAL_Driver/Src/stm32f7xx_ll_sdmmc.c ****          (+) Full compliance with SD I/O Card Specification Version 2.0: card support for two
  39:Drivers/STM32F7xx_HAL_Driver/Src/stm32f7xx_ll_sdmmc.c ****              different data bus modes: 1-bit (default) and 4-bit
  40:Drivers/STM32F7xx_HAL_Driver/Src/stm32f7xx_ll_sdmmc.c ****          (+) Full support of the CE-ATA features (full compliance with CE-ATA digital protocol
  41:Drivers/STM32F7xx_HAL_Driver/Src/stm32f7xx_ll_sdmmc.c ****              Rev1.1)
  42:Drivers/STM32F7xx_HAL_Driver/Src/stm32f7xx_ll_sdmmc.c ****          (+) Data transfer up to 48 MHz for the 8 bit mode
  43:Drivers/STM32F7xx_HAL_Driver/Src/stm32f7xx_ll_sdmmc.c ****          (+) Data and command output enable signals to control external bidirectional drivers
  44:Drivers/STM32F7xx_HAL_Driver/Src/stm32f7xx_ll_sdmmc.c ****    
  45:Drivers/STM32F7xx_HAL_Driver/Src/stm32f7xx_ll_sdmmc.c ****                            ##### How to use this driver #####
  46:Drivers/STM32F7xx_HAL_Driver/Src/stm32f7xx_ll_sdmmc.c ****   ==============================================================================
  47:Drivers/STM32F7xx_HAL_Driver/Src/stm32f7xx_ll_sdmmc.c ****     [..]
  48:Drivers/STM32F7xx_HAL_Driver/Src/stm32f7xx_ll_sdmmc.c ****       This driver is a considered as a driver of service for external devices drivers 
  49:Drivers/STM32F7xx_HAL_Driver/Src/stm32f7xx_ll_sdmmc.c ****       that interfaces with the SDMMC peripheral.
  50:Drivers/STM32F7xx_HAL_Driver/Src/stm32f7xx_ll_sdmmc.c ****       According to the device used (SD card/ MMC card / SDMMC card ...), a set of APIs 
  51:Drivers/STM32F7xx_HAL_Driver/Src/stm32f7xx_ll_sdmmc.c ****       is used in the device's driver to perform SDMMC operations and functionalities.
  52:Drivers/STM32F7xx_HAL_Driver/Src/stm32f7xx_ll_sdmmc.c ****    
  53:Drivers/STM32F7xx_HAL_Driver/Src/stm32f7xx_ll_sdmmc.c ****       This driver is almost transparent for the final user, it is only used to implement other
  54:Drivers/STM32F7xx_HAL_Driver/Src/stm32f7xx_ll_sdmmc.c ****       functionalities of the external device.
  55:Drivers/STM32F7xx_HAL_Driver/Src/stm32f7xx_ll_sdmmc.c ****    
  56:Drivers/STM32F7xx_HAL_Driver/Src/stm32f7xx_ll_sdmmc.c ****     [..]
  57:Drivers/STM32F7xx_HAL_Driver/Src/stm32f7xx_ll_sdmmc.c ****       (+) The SDMMC clock (SDMMCCLK = 48 MHz) is coming from a specific output (MSI, PLLUSB1CLK,
  58:Drivers/STM32F7xx_HAL_Driver/Src/stm32f7xx_ll_sdmmc.c ****           PLLUSB2CLK). Before start working with SDMMC peripheral make sure that the
  59:Drivers/STM32F7xx_HAL_Driver/Src/stm32f7xx_ll_sdmmc.c ****           PLL is well configured.
  60:Drivers/STM32F7xx_HAL_Driver/Src/stm32f7xx_ll_sdmmc.c ****           The SDMMC peripheral uses two clock signals:
  61:Drivers/STM32F7xx_HAL_Driver/Src/stm32f7xx_ll_sdmmc.c ****           (++) SDMMC adapter clock (SDMMCCLK = 48 MHz)
  62:Drivers/STM32F7xx_HAL_Driver/Src/stm32f7xx_ll_sdmmc.c ****           (++) APB2 bus clock (PCLK2)
  63:Drivers/STM32F7xx_HAL_Driver/Src/stm32f7xx_ll_sdmmc.c ****        
  64:Drivers/STM32F7xx_HAL_Driver/Src/stm32f7xx_ll_sdmmc.c ****           -@@- PCLK2 and SDMMC_CK clock frequencies must respect the following condition:
  65:Drivers/STM32F7xx_HAL_Driver/Src/stm32f7xx_ll_sdmmc.c ****                Frequency(PCLK2) >= (3 / 8 x Frequency(SDMMC_CK))
  66:Drivers/STM32F7xx_HAL_Driver/Src/stm32f7xx_ll_sdmmc.c ****   
  67:Drivers/STM32F7xx_HAL_Driver/Src/stm32f7xx_ll_sdmmc.c ****       (+) Enable/Disable peripheral clock using RCC peripheral macros related to SDMMC
  68:Drivers/STM32F7xx_HAL_Driver/Src/stm32f7xx_ll_sdmmc.c ****           peripheral.
  69:Drivers/STM32F7xx_HAL_Driver/Src/stm32f7xx_ll_sdmmc.c **** 
  70:Drivers/STM32F7xx_HAL_Driver/Src/stm32f7xx_ll_sdmmc.c ****       (+) Enable the Power ON State using the SDMMC_PowerState_ON() 
  71:Drivers/STM32F7xx_HAL_Driver/Src/stm32f7xx_ll_sdmmc.c ****           function and disable it using the function SDMMC_PowerState_OFF().
  72:Drivers/STM32F7xx_HAL_Driver/Src/stm32f7xx_ll_sdmmc.c ****                 
  73:Drivers/STM32F7xx_HAL_Driver/Src/stm32f7xx_ll_sdmmc.c ****       (+) Enable/Disable the clock using the __SDMMC_ENABLE()/__SDMMC_DISABLE() macros.
  74:Drivers/STM32F7xx_HAL_Driver/Src/stm32f7xx_ll_sdmmc.c ****   
  75:Drivers/STM32F7xx_HAL_Driver/Src/stm32f7xx_ll_sdmmc.c ****       (+) Enable/Disable the peripheral interrupts using the macros __SDMMC_ENABLE_IT() 
  76:Drivers/STM32F7xx_HAL_Driver/Src/stm32f7xx_ll_sdmmc.c ****           and __SDMMC_DISABLE_IT() if you need to use interrupt mode. 
  77:Drivers/STM32F7xx_HAL_Driver/Src/stm32f7xx_ll_sdmmc.c ****   
  78:Drivers/STM32F7xx_HAL_Driver/Src/stm32f7xx_ll_sdmmc.c ****       (+) When using the DMA mode 
  79:Drivers/STM32F7xx_HAL_Driver/Src/stm32f7xx_ll_sdmmc.c ****           (++) Configure the DMA in the MSP layer of the external device
  80:Drivers/STM32F7xx_HAL_Driver/Src/stm32f7xx_ll_sdmmc.c ****           (++) Active the needed channel Request 
  81:Drivers/STM32F7xx_HAL_Driver/Src/stm32f7xx_ll_sdmmc.c ****           (++) Enable the DMA using __SDMMC_DMA_ENABLE() macro or Disable it using the macro
  82:Drivers/STM32F7xx_HAL_Driver/Src/stm32f7xx_ll_sdmmc.c ****                __SDMMC_DMA_DISABLE().
  83:Drivers/STM32F7xx_HAL_Driver/Src/stm32f7xx_ll_sdmmc.c ****   
  84:Drivers/STM32F7xx_HAL_Driver/Src/stm32f7xx_ll_sdmmc.c ****       (+) To control the CPSM (Command Path State Machine) and send 
  85:Drivers/STM32F7xx_HAL_Driver/Src/stm32f7xx_ll_sdmmc.c ****           commands to the card use the SDMMC_SendCommand(), 
  86:Drivers/STM32F7xx_HAL_Driver/Src/stm32f7xx_ll_sdmmc.c ****           SDMMC_GetCommandResponse() and SDMMC_GetResponse() functions. First, user has
  87:Drivers/STM32F7xx_HAL_Driver/Src/stm32f7xx_ll_sdmmc.c ****           to fill the command structure (pointer to SDMMC_CmdInitTypeDef) according 
ARM GAS  C:\Users\jisu8\AppData\Local\Temp\ccG1p0Yx.s 			page 3


  88:Drivers/STM32F7xx_HAL_Driver/Src/stm32f7xx_ll_sdmmc.c ****           to the selected command to be sent.
  89:Drivers/STM32F7xx_HAL_Driver/Src/stm32f7xx_ll_sdmmc.c ****           The parameters that should be filled are:
  90:Drivers/STM32F7xx_HAL_Driver/Src/stm32f7xx_ll_sdmmc.c ****            (++) Command Argument
  91:Drivers/STM32F7xx_HAL_Driver/Src/stm32f7xx_ll_sdmmc.c ****            (++) Command Index
  92:Drivers/STM32F7xx_HAL_Driver/Src/stm32f7xx_ll_sdmmc.c ****            (++) Command Response type
  93:Drivers/STM32F7xx_HAL_Driver/Src/stm32f7xx_ll_sdmmc.c ****            (++) Command Wait
  94:Drivers/STM32F7xx_HAL_Driver/Src/stm32f7xx_ll_sdmmc.c ****            (++) CPSM Status (Enable or Disable).
  95:Drivers/STM32F7xx_HAL_Driver/Src/stm32f7xx_ll_sdmmc.c ****   
  96:Drivers/STM32F7xx_HAL_Driver/Src/stm32f7xx_ll_sdmmc.c ****           -@@- To check if the command is well received, read the SDMMC_CMDRESP
  97:Drivers/STM32F7xx_HAL_Driver/Src/stm32f7xx_ll_sdmmc.c ****               register using the SDMMC_GetCommandResponse().
  98:Drivers/STM32F7xx_HAL_Driver/Src/stm32f7xx_ll_sdmmc.c ****               The SDMMC responses registers (SDMMC_RESP1 to SDMMC_RESP2), use the
  99:Drivers/STM32F7xx_HAL_Driver/Src/stm32f7xx_ll_sdmmc.c ****               SDMMC_GetResponse() function.
 100:Drivers/STM32F7xx_HAL_Driver/Src/stm32f7xx_ll_sdmmc.c ****   
 101:Drivers/STM32F7xx_HAL_Driver/Src/stm32f7xx_ll_sdmmc.c ****       (+) To control the DPSM (Data Path State Machine) and send/receive 
 102:Drivers/STM32F7xx_HAL_Driver/Src/stm32f7xx_ll_sdmmc.c ****            data to/from the card use the SDMMC_DataConfig(), SDMMC_GetDataCounter(), 
 103:Drivers/STM32F7xx_HAL_Driver/Src/stm32f7xx_ll_sdmmc.c ****           SDMMC_ReadFIFO(), SDMMC_WriteFIFO() and SDMMC_GetFIFOCount() functions.
 104:Drivers/STM32F7xx_HAL_Driver/Src/stm32f7xx_ll_sdmmc.c ****   
 105:Drivers/STM32F7xx_HAL_Driver/Src/stm32f7xx_ll_sdmmc.c ****     *** Read Operations ***
 106:Drivers/STM32F7xx_HAL_Driver/Src/stm32f7xx_ll_sdmmc.c ****     =======================
 107:Drivers/STM32F7xx_HAL_Driver/Src/stm32f7xx_ll_sdmmc.c ****     [..]
 108:Drivers/STM32F7xx_HAL_Driver/Src/stm32f7xx_ll_sdmmc.c ****       (#) First, user has to fill the data structure (pointer to
 109:Drivers/STM32F7xx_HAL_Driver/Src/stm32f7xx_ll_sdmmc.c ****           SDMMC_DataInitTypeDef) according to the selected data type to be received.
 110:Drivers/STM32F7xx_HAL_Driver/Src/stm32f7xx_ll_sdmmc.c ****           The parameters that should be filled are:
 111:Drivers/STM32F7xx_HAL_Driver/Src/stm32f7xx_ll_sdmmc.c ****            (++) Data TimeOut
 112:Drivers/STM32F7xx_HAL_Driver/Src/stm32f7xx_ll_sdmmc.c ****            (++) Data Length
 113:Drivers/STM32F7xx_HAL_Driver/Src/stm32f7xx_ll_sdmmc.c ****            (++) Data Block size
 114:Drivers/STM32F7xx_HAL_Driver/Src/stm32f7xx_ll_sdmmc.c ****            (++) Data Transfer direction: should be from card (To SDMMC)
 115:Drivers/STM32F7xx_HAL_Driver/Src/stm32f7xx_ll_sdmmc.c ****            (++) Data Transfer mode
 116:Drivers/STM32F7xx_HAL_Driver/Src/stm32f7xx_ll_sdmmc.c ****            (++) DPSM Status (Enable or Disable)
 117:Drivers/STM32F7xx_HAL_Driver/Src/stm32f7xx_ll_sdmmc.c ****                                      
 118:Drivers/STM32F7xx_HAL_Driver/Src/stm32f7xx_ll_sdmmc.c ****       (#) Configure the SDMMC resources to receive the data from the card
 119:Drivers/STM32F7xx_HAL_Driver/Src/stm32f7xx_ll_sdmmc.c ****           according to selected transfer mode (Refer to Step 8, 9 and 10).
 120:Drivers/STM32F7xx_HAL_Driver/Src/stm32f7xx_ll_sdmmc.c ****   
 121:Drivers/STM32F7xx_HAL_Driver/Src/stm32f7xx_ll_sdmmc.c ****       (#) Send the selected Read command (refer to step 11).
 122:Drivers/STM32F7xx_HAL_Driver/Src/stm32f7xx_ll_sdmmc.c ****                     
 123:Drivers/STM32F7xx_HAL_Driver/Src/stm32f7xx_ll_sdmmc.c ****       (#) Use the SDMMC flags/interrupts to check the transfer status.
 124:Drivers/STM32F7xx_HAL_Driver/Src/stm32f7xx_ll_sdmmc.c ****   
 125:Drivers/STM32F7xx_HAL_Driver/Src/stm32f7xx_ll_sdmmc.c ****     *** Write Operations ***
 126:Drivers/STM32F7xx_HAL_Driver/Src/stm32f7xx_ll_sdmmc.c ****     ========================
 127:Drivers/STM32F7xx_HAL_Driver/Src/stm32f7xx_ll_sdmmc.c ****     [..]
 128:Drivers/STM32F7xx_HAL_Driver/Src/stm32f7xx_ll_sdmmc.c ****      (#) First, user has to fill the data structure (pointer to
 129:Drivers/STM32F7xx_HAL_Driver/Src/stm32f7xx_ll_sdmmc.c ****          SDMMC_DataInitTypeDef) according to the selected data type to be received.
 130:Drivers/STM32F7xx_HAL_Driver/Src/stm32f7xx_ll_sdmmc.c ****          The parameters that should be filled are:
 131:Drivers/STM32F7xx_HAL_Driver/Src/stm32f7xx_ll_sdmmc.c ****           (++) Data TimeOut
 132:Drivers/STM32F7xx_HAL_Driver/Src/stm32f7xx_ll_sdmmc.c ****           (++) Data Length
 133:Drivers/STM32F7xx_HAL_Driver/Src/stm32f7xx_ll_sdmmc.c ****           (++) Data Block size
 134:Drivers/STM32F7xx_HAL_Driver/Src/stm32f7xx_ll_sdmmc.c ****           (++) Data Transfer direction:  should be to card (To CARD)
 135:Drivers/STM32F7xx_HAL_Driver/Src/stm32f7xx_ll_sdmmc.c ****           (++) Data Transfer mode
 136:Drivers/STM32F7xx_HAL_Driver/Src/stm32f7xx_ll_sdmmc.c ****           (++) DPSM Status (Enable or Disable)
 137:Drivers/STM32F7xx_HAL_Driver/Src/stm32f7xx_ll_sdmmc.c ****   
 138:Drivers/STM32F7xx_HAL_Driver/Src/stm32f7xx_ll_sdmmc.c ****      (#) Configure the SDMMC resources to send the data to the card according to 
 139:Drivers/STM32F7xx_HAL_Driver/Src/stm32f7xx_ll_sdmmc.c ****          selected transfer mode.
 140:Drivers/STM32F7xx_HAL_Driver/Src/stm32f7xx_ll_sdmmc.c ****                      
 141:Drivers/STM32F7xx_HAL_Driver/Src/stm32f7xx_ll_sdmmc.c ****      (#) Send the selected Write command.
 142:Drivers/STM32F7xx_HAL_Driver/Src/stm32f7xx_ll_sdmmc.c ****                     
 143:Drivers/STM32F7xx_HAL_Driver/Src/stm32f7xx_ll_sdmmc.c ****      (#) Use the SDMMC flags/interrupts to check the transfer status.
 144:Drivers/STM32F7xx_HAL_Driver/Src/stm32f7xx_ll_sdmmc.c ****        
ARM GAS  C:\Users\jisu8\AppData\Local\Temp\ccG1p0Yx.s 			page 4


 145:Drivers/STM32F7xx_HAL_Driver/Src/stm32f7xx_ll_sdmmc.c ****     *** Command management operations ***
 146:Drivers/STM32F7xx_HAL_Driver/Src/stm32f7xx_ll_sdmmc.c ****     =====================================
 147:Drivers/STM32F7xx_HAL_Driver/Src/stm32f7xx_ll_sdmmc.c ****     [..]
 148:Drivers/STM32F7xx_HAL_Driver/Src/stm32f7xx_ll_sdmmc.c ****      (#) The commands used for Read/Write/Erase operations are managed in 
 149:Drivers/STM32F7xx_HAL_Driver/Src/stm32f7xx_ll_sdmmc.c ****          separate functions. 
 150:Drivers/STM32F7xx_HAL_Driver/Src/stm32f7xx_ll_sdmmc.c ****          Each function allows to send the needed command with the related argument,
 151:Drivers/STM32F7xx_HAL_Driver/Src/stm32f7xx_ll_sdmmc.c ****          then check the response.
 152:Drivers/STM32F7xx_HAL_Driver/Src/stm32f7xx_ll_sdmmc.c ****          By the same approach, you could implement a command and check the response.
 153:Drivers/STM32F7xx_HAL_Driver/Src/stm32f7xx_ll_sdmmc.c ****   
 154:Drivers/STM32F7xx_HAL_Driver/Src/stm32f7xx_ll_sdmmc.c ****   @endverbatim
 155:Drivers/STM32F7xx_HAL_Driver/Src/stm32f7xx_ll_sdmmc.c ****   ******************************************************************************
 156:Drivers/STM32F7xx_HAL_Driver/Src/stm32f7xx_ll_sdmmc.c ****   */ 
 157:Drivers/STM32F7xx_HAL_Driver/Src/stm32f7xx_ll_sdmmc.c **** 
 158:Drivers/STM32F7xx_HAL_Driver/Src/stm32f7xx_ll_sdmmc.c **** /* Includes ------------------------------------------------------------------*/
 159:Drivers/STM32F7xx_HAL_Driver/Src/stm32f7xx_ll_sdmmc.c **** #include "stm32f7xx_hal.h"
 160:Drivers/STM32F7xx_HAL_Driver/Src/stm32f7xx_ll_sdmmc.c **** 
 161:Drivers/STM32F7xx_HAL_Driver/Src/stm32f7xx_ll_sdmmc.c **** #if defined(SDMMC1)
 162:Drivers/STM32F7xx_HAL_Driver/Src/stm32f7xx_ll_sdmmc.c **** 
 163:Drivers/STM32F7xx_HAL_Driver/Src/stm32f7xx_ll_sdmmc.c **** /** @addtogroup STM32F7xx_HAL_Driver
 164:Drivers/STM32F7xx_HAL_Driver/Src/stm32f7xx_ll_sdmmc.c ****   * @{
 165:Drivers/STM32F7xx_HAL_Driver/Src/stm32f7xx_ll_sdmmc.c ****   */
 166:Drivers/STM32F7xx_HAL_Driver/Src/stm32f7xx_ll_sdmmc.c **** 
 167:Drivers/STM32F7xx_HAL_Driver/Src/stm32f7xx_ll_sdmmc.c **** /** @defgroup SDMMC_LL SDMMC Low Layer
 168:Drivers/STM32F7xx_HAL_Driver/Src/stm32f7xx_ll_sdmmc.c ****   * @brief Low layer module for SD
 169:Drivers/STM32F7xx_HAL_Driver/Src/stm32f7xx_ll_sdmmc.c ****   * @{
 170:Drivers/STM32F7xx_HAL_Driver/Src/stm32f7xx_ll_sdmmc.c ****   */
 171:Drivers/STM32F7xx_HAL_Driver/Src/stm32f7xx_ll_sdmmc.c **** 
 172:Drivers/STM32F7xx_HAL_Driver/Src/stm32f7xx_ll_sdmmc.c **** #if defined(HAL_SD_MODULE_ENABLED) || defined(HAL_MMC_MODULE_ENABLED)
 173:Drivers/STM32F7xx_HAL_Driver/Src/stm32f7xx_ll_sdmmc.c **** 
 174:Drivers/STM32F7xx_HAL_Driver/Src/stm32f7xx_ll_sdmmc.c **** /* Private typedef -----------------------------------------------------------*/
 175:Drivers/STM32F7xx_HAL_Driver/Src/stm32f7xx_ll_sdmmc.c **** /* Private define ------------------------------------------------------------*/
 176:Drivers/STM32F7xx_HAL_Driver/Src/stm32f7xx_ll_sdmmc.c **** /* Private macro -------------------------------------------------------------*/
 177:Drivers/STM32F7xx_HAL_Driver/Src/stm32f7xx_ll_sdmmc.c **** /* Private variables ---------------------------------------------------------*/
 178:Drivers/STM32F7xx_HAL_Driver/Src/stm32f7xx_ll_sdmmc.c **** /* Private function prototypes -----------------------------------------------*/
 179:Drivers/STM32F7xx_HAL_Driver/Src/stm32f7xx_ll_sdmmc.c **** static uint32_t SDMMC_GetCmdError(SDMMC_TypeDef *SDMMCx);
 180:Drivers/STM32F7xx_HAL_Driver/Src/stm32f7xx_ll_sdmmc.c **** 
 181:Drivers/STM32F7xx_HAL_Driver/Src/stm32f7xx_ll_sdmmc.c **** /* Exported functions --------------------------------------------------------*/
 182:Drivers/STM32F7xx_HAL_Driver/Src/stm32f7xx_ll_sdmmc.c **** 
 183:Drivers/STM32F7xx_HAL_Driver/Src/stm32f7xx_ll_sdmmc.c **** /** @defgroup SDMMC_LL_Exported_Functions SDMMC Low Layer Exported Functions
 184:Drivers/STM32F7xx_HAL_Driver/Src/stm32f7xx_ll_sdmmc.c ****   * @{
 185:Drivers/STM32F7xx_HAL_Driver/Src/stm32f7xx_ll_sdmmc.c ****   */
 186:Drivers/STM32F7xx_HAL_Driver/Src/stm32f7xx_ll_sdmmc.c **** 
 187:Drivers/STM32F7xx_HAL_Driver/Src/stm32f7xx_ll_sdmmc.c **** /** @defgroup HAL_SDMMC_LL_Group1 Initialization de-initialization functions 
 188:Drivers/STM32F7xx_HAL_Driver/Src/stm32f7xx_ll_sdmmc.c ****  *  @brief    Initialization and Configuration functions 
 189:Drivers/STM32F7xx_HAL_Driver/Src/stm32f7xx_ll_sdmmc.c ****  *
 190:Drivers/STM32F7xx_HAL_Driver/Src/stm32f7xx_ll_sdmmc.c **** @verbatim    
 191:Drivers/STM32F7xx_HAL_Driver/Src/stm32f7xx_ll_sdmmc.c ****  ===============================================================================
 192:Drivers/STM32F7xx_HAL_Driver/Src/stm32f7xx_ll_sdmmc.c ****               ##### Initialization/de-initialization functions #####
 193:Drivers/STM32F7xx_HAL_Driver/Src/stm32f7xx_ll_sdmmc.c ****  ===============================================================================
 194:Drivers/STM32F7xx_HAL_Driver/Src/stm32f7xx_ll_sdmmc.c ****     [..]  This section provides functions allowing to:
 195:Drivers/STM32F7xx_HAL_Driver/Src/stm32f7xx_ll_sdmmc.c ****  
 196:Drivers/STM32F7xx_HAL_Driver/Src/stm32f7xx_ll_sdmmc.c **** @endverbatim
 197:Drivers/STM32F7xx_HAL_Driver/Src/stm32f7xx_ll_sdmmc.c ****   * @{
 198:Drivers/STM32F7xx_HAL_Driver/Src/stm32f7xx_ll_sdmmc.c ****   */
 199:Drivers/STM32F7xx_HAL_Driver/Src/stm32f7xx_ll_sdmmc.c **** 
 200:Drivers/STM32F7xx_HAL_Driver/Src/stm32f7xx_ll_sdmmc.c **** /**
 201:Drivers/STM32F7xx_HAL_Driver/Src/stm32f7xx_ll_sdmmc.c ****   * @brief  Initializes the SDMMC according to the specified
ARM GAS  C:\Users\jisu8\AppData\Local\Temp\ccG1p0Yx.s 			page 5


 202:Drivers/STM32F7xx_HAL_Driver/Src/stm32f7xx_ll_sdmmc.c ****   *         parameters in the SDMMC_InitTypeDef and create the associated handle.
 203:Drivers/STM32F7xx_HAL_Driver/Src/stm32f7xx_ll_sdmmc.c ****   * @param  SDMMCx: Pointer to SDMMC register base
 204:Drivers/STM32F7xx_HAL_Driver/Src/stm32f7xx_ll_sdmmc.c ****   * @param  Init: SDMMC initialization structure   
 205:Drivers/STM32F7xx_HAL_Driver/Src/stm32f7xx_ll_sdmmc.c ****   * @retval HAL status
 206:Drivers/STM32F7xx_HAL_Driver/Src/stm32f7xx_ll_sdmmc.c ****   */
 207:Drivers/STM32F7xx_HAL_Driver/Src/stm32f7xx_ll_sdmmc.c **** HAL_StatusTypeDef SDMMC_Init(SDMMC_TypeDef *SDMMCx, SDMMC_InitTypeDef Init)
 208:Drivers/STM32F7xx_HAL_Driver/Src/stm32f7xx_ll_sdmmc.c **** {
  29              		.loc 1 208 1
  30              		.cfi_startproc
  31              		@ args = 28, pretend = 16, frame = 16
  32              		@ frame_needed = 1, uses_anonymous_args = 0
  33              		@ link register save eliminated.
  34 0000 84B0     		sub	sp, sp, #16
  35              	.LCFI0:
  36              		.cfi_def_cfa_offset 16
  37 0002 80B4     		push	{r7}
  38              	.LCFI1:
  39              		.cfi_def_cfa_offset 20
  40              		.cfi_offset 7, -20
  41 0004 85B0     		sub	sp, sp, #20
  42              	.LCFI2:
  43              		.cfi_def_cfa_offset 40
  44 0006 00AF     		add	r7, sp, #0
  45              	.LCFI3:
  46              		.cfi_def_cfa_register 7
  47 0008 7860     		str	r0, [r7, #4]
  48 000a 07F11C00 		add	r0, r7, #28
  49 000e 80E80E00 		stm	r0, {r1, r2, r3}
 209:Drivers/STM32F7xx_HAL_Driver/Src/stm32f7xx_ll_sdmmc.c ****   uint32_t tmpreg = 0;
  50              		.loc 1 209 12
  51 0012 0023     		movs	r3, #0
  52 0014 FB60     		str	r3, [r7, #12]
 210:Drivers/STM32F7xx_HAL_Driver/Src/stm32f7xx_ll_sdmmc.c **** 
 211:Drivers/STM32F7xx_HAL_Driver/Src/stm32f7xx_ll_sdmmc.c ****   /* Check the parameters */
 212:Drivers/STM32F7xx_HAL_Driver/Src/stm32f7xx_ll_sdmmc.c ****   assert_param(IS_SDMMC_ALL_INSTANCE(SDMMCx));
 213:Drivers/STM32F7xx_HAL_Driver/Src/stm32f7xx_ll_sdmmc.c ****   assert_param(IS_SDMMC_CLOCK_EDGE(Init.ClockEdge)); 
 214:Drivers/STM32F7xx_HAL_Driver/Src/stm32f7xx_ll_sdmmc.c ****   assert_param(IS_SDMMC_CLOCK_BYPASS(Init.ClockBypass));
 215:Drivers/STM32F7xx_HAL_Driver/Src/stm32f7xx_ll_sdmmc.c ****   assert_param(IS_SDMMC_CLOCK_POWER_SAVE(Init.ClockPowerSave));
 216:Drivers/STM32F7xx_HAL_Driver/Src/stm32f7xx_ll_sdmmc.c ****   assert_param(IS_SDMMC_BUS_WIDE(Init.BusWide));
 217:Drivers/STM32F7xx_HAL_Driver/Src/stm32f7xx_ll_sdmmc.c ****   assert_param(IS_SDMMC_HARDWARE_FLOW_CONTROL(Init.HardwareFlowControl));
 218:Drivers/STM32F7xx_HAL_Driver/Src/stm32f7xx_ll_sdmmc.c ****   assert_param(IS_SDMMC_CLKDIV(Init.ClockDiv));
 219:Drivers/STM32F7xx_HAL_Driver/Src/stm32f7xx_ll_sdmmc.c ****   
 220:Drivers/STM32F7xx_HAL_Driver/Src/stm32f7xx_ll_sdmmc.c ****   /* Set SDMMC configuration parameters */
 221:Drivers/STM32F7xx_HAL_Driver/Src/stm32f7xx_ll_sdmmc.c ****   tmpreg |= (Init.ClockEdge           |\
  53              		.loc 1 221 18
  54 0016 FA69     		ldr	r2, [r7, #28]
 222:Drivers/STM32F7xx_HAL_Driver/Src/stm32f7xx_ll_sdmmc.c ****              Init.ClockBypass         |\
  55              		.loc 1 222 18
  56 0018 3B6A     		ldr	r3, [r7, #32]
 221:Drivers/STM32F7xx_HAL_Driver/Src/stm32f7xx_ll_sdmmc.c ****              Init.ClockBypass         |\
  57              		.loc 1 221 39
  58 001a 1A43     		orrs	r2, r2, r3
 223:Drivers/STM32F7xx_HAL_Driver/Src/stm32f7xx_ll_sdmmc.c ****              Init.ClockPowerSave      |\
  59              		.loc 1 223 18
  60 001c 7B6A     		ldr	r3, [r7, #36]
 222:Drivers/STM32F7xx_HAL_Driver/Src/stm32f7xx_ll_sdmmc.c ****              Init.ClockBypass         |\
  61              		.loc 1 222 39
ARM GAS  C:\Users\jisu8\AppData\Local\Temp\ccG1p0Yx.s 			page 6


  62 001e 1A43     		orrs	r2, r2, r3
 224:Drivers/STM32F7xx_HAL_Driver/Src/stm32f7xx_ll_sdmmc.c ****              Init.BusWide             |\
  63              		.loc 1 224 18
  64 0020 BB6A     		ldr	r3, [r7, #40]
 223:Drivers/STM32F7xx_HAL_Driver/Src/stm32f7xx_ll_sdmmc.c ****              Init.ClockPowerSave      |\
  65              		.loc 1 223 39
  66 0022 1A43     		orrs	r2, r2, r3
 225:Drivers/STM32F7xx_HAL_Driver/Src/stm32f7xx_ll_sdmmc.c ****              Init.HardwareFlowControl |\
  67              		.loc 1 225 18
  68 0024 FB6A     		ldr	r3, [r7, #44]
 224:Drivers/STM32F7xx_HAL_Driver/Src/stm32f7xx_ll_sdmmc.c ****              Init.BusWide             |\
  69              		.loc 1 224 39
  70 0026 1A43     		orrs	r2, r2, r3
 226:Drivers/STM32F7xx_HAL_Driver/Src/stm32f7xx_ll_sdmmc.c ****              Init.ClockDiv
  71              		.loc 1 226 18
  72 0028 3B6B     		ldr	r3, [r7, #48]
 225:Drivers/STM32F7xx_HAL_Driver/Src/stm32f7xx_ll_sdmmc.c ****              Init.HardwareFlowControl |\
  73              		.loc 1 225 39
  74 002a 1343     		orrs	r3, r3, r2
 221:Drivers/STM32F7xx_HAL_Driver/Src/stm32f7xx_ll_sdmmc.c ****              Init.ClockBypass         |\
  75              		.loc 1 221 10
  76 002c FA68     		ldr	r2, [r7, #12]
  77 002e 1343     		orrs	r3, r3, r2
  78 0030 FB60     		str	r3, [r7, #12]
 227:Drivers/STM32F7xx_HAL_Driver/Src/stm32f7xx_ll_sdmmc.c ****              ); 
 228:Drivers/STM32F7xx_HAL_Driver/Src/stm32f7xx_ll_sdmmc.c ****   
 229:Drivers/STM32F7xx_HAL_Driver/Src/stm32f7xx_ll_sdmmc.c ****   /* Write to SDMMC CLKCR */
 230:Drivers/STM32F7xx_HAL_Driver/Src/stm32f7xx_ll_sdmmc.c ****   MODIFY_REG(SDMMCx->CLKCR, CLKCR_CLEAR_MASK, tmpreg);  
  79              		.loc 1 230 3
  80 0032 7B68     		ldr	r3, [r7, #4]
  81 0034 5A68     		ldr	r2, [r3, #4]
  82 0036 074B     		ldr	r3, .L3
  83 0038 1340     		ands	r3, r3, r2
  84 003a FA68     		ldr	r2, [r7, #12]
  85 003c 1A43     		orrs	r2, r2, r3
  86 003e 7B68     		ldr	r3, [r7, #4]
  87 0040 5A60     		str	r2, [r3, #4]
 231:Drivers/STM32F7xx_HAL_Driver/Src/stm32f7xx_ll_sdmmc.c **** 
 232:Drivers/STM32F7xx_HAL_Driver/Src/stm32f7xx_ll_sdmmc.c ****   return HAL_OK;
  88              		.loc 1 232 10
  89 0042 0023     		movs	r3, #0
 233:Drivers/STM32F7xx_HAL_Driver/Src/stm32f7xx_ll_sdmmc.c **** }
  90              		.loc 1 233 1
  91 0044 1846     		mov	r0, r3
  92 0046 1437     		adds	r7, r7, #20
  93              	.LCFI4:
  94              		.cfi_def_cfa_offset 20
  95 0048 BD46     		mov	sp, r7
  96              	.LCFI5:
  97              		.cfi_def_cfa_register 13
  98              		@ sp needed
  99 004a 5DF8047B 		ldr	r7, [sp], #4
 100              	.LCFI6:
 101              		.cfi_restore 7
 102              		.cfi_def_cfa_offset 16
 103 004e 04B0     		add	sp, sp, #16
 104              	.LCFI7:
ARM GAS  C:\Users\jisu8\AppData\Local\Temp\ccG1p0Yx.s 			page 7


 105              		.cfi_def_cfa_offset 0
 106 0050 7047     		bx	lr
 107              	.L4:
 108 0052 00BF     		.align	2
 109              	.L3:
 110 0054 0081FFFF 		.word	-32512
 111              		.cfi_endproc
 112              	.LFE141:
 114              		.section	.text.SDMMC_ReadFIFO,"ax",%progbits
 115              		.align	1
 116              		.global	SDMMC_ReadFIFO
 117              		.syntax unified
 118              		.thumb
 119              		.thumb_func
 121              	SDMMC_ReadFIFO:
 122              	.LFB142:
 234:Drivers/STM32F7xx_HAL_Driver/Src/stm32f7xx_ll_sdmmc.c **** 
 235:Drivers/STM32F7xx_HAL_Driver/Src/stm32f7xx_ll_sdmmc.c **** 
 236:Drivers/STM32F7xx_HAL_Driver/Src/stm32f7xx_ll_sdmmc.c **** /**
 237:Drivers/STM32F7xx_HAL_Driver/Src/stm32f7xx_ll_sdmmc.c ****   * @}
 238:Drivers/STM32F7xx_HAL_Driver/Src/stm32f7xx_ll_sdmmc.c ****   */
 239:Drivers/STM32F7xx_HAL_Driver/Src/stm32f7xx_ll_sdmmc.c **** 
 240:Drivers/STM32F7xx_HAL_Driver/Src/stm32f7xx_ll_sdmmc.c **** /** @defgroup HAL_SDMMC_LL_Group2 IO operation functions 
 241:Drivers/STM32F7xx_HAL_Driver/Src/stm32f7xx_ll_sdmmc.c ****  *  @brief   Data transfers functions 
 242:Drivers/STM32F7xx_HAL_Driver/Src/stm32f7xx_ll_sdmmc.c ****  *
 243:Drivers/STM32F7xx_HAL_Driver/Src/stm32f7xx_ll_sdmmc.c **** @verbatim   
 244:Drivers/STM32F7xx_HAL_Driver/Src/stm32f7xx_ll_sdmmc.c ****  ===============================================================================
 245:Drivers/STM32F7xx_HAL_Driver/Src/stm32f7xx_ll_sdmmc.c ****                       ##### I/O operation functions #####
 246:Drivers/STM32F7xx_HAL_Driver/Src/stm32f7xx_ll_sdmmc.c ****  ===============================================================================  
 247:Drivers/STM32F7xx_HAL_Driver/Src/stm32f7xx_ll_sdmmc.c ****     [..]
 248:Drivers/STM32F7xx_HAL_Driver/Src/stm32f7xx_ll_sdmmc.c ****     This subsection provides a set of functions allowing to manage the SDMMC data 
 249:Drivers/STM32F7xx_HAL_Driver/Src/stm32f7xx_ll_sdmmc.c ****     transfers.
 250:Drivers/STM32F7xx_HAL_Driver/Src/stm32f7xx_ll_sdmmc.c **** 
 251:Drivers/STM32F7xx_HAL_Driver/Src/stm32f7xx_ll_sdmmc.c **** @endverbatim
 252:Drivers/STM32F7xx_HAL_Driver/Src/stm32f7xx_ll_sdmmc.c ****   * @{
 253:Drivers/STM32F7xx_HAL_Driver/Src/stm32f7xx_ll_sdmmc.c ****   */
 254:Drivers/STM32F7xx_HAL_Driver/Src/stm32f7xx_ll_sdmmc.c **** 
 255:Drivers/STM32F7xx_HAL_Driver/Src/stm32f7xx_ll_sdmmc.c **** /**
 256:Drivers/STM32F7xx_HAL_Driver/Src/stm32f7xx_ll_sdmmc.c ****   * @brief  Read data (word) from Rx FIFO in blocking mode (polling) 
 257:Drivers/STM32F7xx_HAL_Driver/Src/stm32f7xx_ll_sdmmc.c ****   * @param  SDMMCx: Pointer to SDMMC register base
 258:Drivers/STM32F7xx_HAL_Driver/Src/stm32f7xx_ll_sdmmc.c ****   * @retval HAL status
 259:Drivers/STM32F7xx_HAL_Driver/Src/stm32f7xx_ll_sdmmc.c ****   */
 260:Drivers/STM32F7xx_HAL_Driver/Src/stm32f7xx_ll_sdmmc.c **** uint32_t SDMMC_ReadFIFO(SDMMC_TypeDef *SDMMCx)
 261:Drivers/STM32F7xx_HAL_Driver/Src/stm32f7xx_ll_sdmmc.c **** {
 123              		.loc 1 261 1
 124              		.cfi_startproc
 125              		@ args = 0, pretend = 0, frame = 8
 126              		@ frame_needed = 1, uses_anonymous_args = 0
 127              		@ link register save eliminated.
 128 0000 80B4     		push	{r7}
 129              	.LCFI8:
 130              		.cfi_def_cfa_offset 4
 131              		.cfi_offset 7, -4
 132 0002 83B0     		sub	sp, sp, #12
 133              	.LCFI9:
 134              		.cfi_def_cfa_offset 16
 135 0004 00AF     		add	r7, sp, #0
ARM GAS  C:\Users\jisu8\AppData\Local\Temp\ccG1p0Yx.s 			page 8


 136              	.LCFI10:
 137              		.cfi_def_cfa_register 7
 138 0006 7860     		str	r0, [r7, #4]
 262:Drivers/STM32F7xx_HAL_Driver/Src/stm32f7xx_ll_sdmmc.c ****   /* Read data from Rx FIFO */ 
 263:Drivers/STM32F7xx_HAL_Driver/Src/stm32f7xx_ll_sdmmc.c ****   return (SDMMCx->FIFO);
 139              		.loc 1 263 17
 140 0008 7B68     		ldr	r3, [r7, #4]
 141 000a D3F88030 		ldr	r3, [r3, #128]
 264:Drivers/STM32F7xx_HAL_Driver/Src/stm32f7xx_ll_sdmmc.c **** }
 142              		.loc 1 264 1
 143 000e 1846     		mov	r0, r3
 144 0010 0C37     		adds	r7, r7, #12
 145              	.LCFI11:
 146              		.cfi_def_cfa_offset 4
 147 0012 BD46     		mov	sp, r7
 148              	.LCFI12:
 149              		.cfi_def_cfa_register 13
 150              		@ sp needed
 151 0014 5DF8047B 		ldr	r7, [sp], #4
 152              	.LCFI13:
 153              		.cfi_restore 7
 154              		.cfi_def_cfa_offset 0
 155 0018 7047     		bx	lr
 156              		.cfi_endproc
 157              	.LFE142:
 159              		.section	.text.SDMMC_WriteFIFO,"ax",%progbits
 160              		.align	1
 161              		.global	SDMMC_WriteFIFO
 162              		.syntax unified
 163              		.thumb
 164              		.thumb_func
 166              	SDMMC_WriteFIFO:
 167              	.LFB143:
 265:Drivers/STM32F7xx_HAL_Driver/Src/stm32f7xx_ll_sdmmc.c **** 
 266:Drivers/STM32F7xx_HAL_Driver/Src/stm32f7xx_ll_sdmmc.c **** /**
 267:Drivers/STM32F7xx_HAL_Driver/Src/stm32f7xx_ll_sdmmc.c ****   * @brief  Write data (word) to Tx FIFO in blocking mode (polling) 
 268:Drivers/STM32F7xx_HAL_Driver/Src/stm32f7xx_ll_sdmmc.c ****   * @param  SDMMCx: Pointer to SDMMC register base
 269:Drivers/STM32F7xx_HAL_Driver/Src/stm32f7xx_ll_sdmmc.c ****   * @param  pWriteData: pointer to data to write
 270:Drivers/STM32F7xx_HAL_Driver/Src/stm32f7xx_ll_sdmmc.c ****   * @retval HAL status
 271:Drivers/STM32F7xx_HAL_Driver/Src/stm32f7xx_ll_sdmmc.c ****   */
 272:Drivers/STM32F7xx_HAL_Driver/Src/stm32f7xx_ll_sdmmc.c **** HAL_StatusTypeDef SDMMC_WriteFIFO(SDMMC_TypeDef *SDMMCx, uint32_t *pWriteData)
 273:Drivers/STM32F7xx_HAL_Driver/Src/stm32f7xx_ll_sdmmc.c **** { 
 168              		.loc 1 273 1
 169              		.cfi_startproc
 170              		@ args = 0, pretend = 0, frame = 8
 171              		@ frame_needed = 1, uses_anonymous_args = 0
 172              		@ link register save eliminated.
 173 0000 80B4     		push	{r7}
 174              	.LCFI14:
 175              		.cfi_def_cfa_offset 4
 176              		.cfi_offset 7, -4
 177 0002 83B0     		sub	sp, sp, #12
 178              	.LCFI15:
 179              		.cfi_def_cfa_offset 16
 180 0004 00AF     		add	r7, sp, #0
 181              	.LCFI16:
 182              		.cfi_def_cfa_register 7
ARM GAS  C:\Users\jisu8\AppData\Local\Temp\ccG1p0Yx.s 			page 9


 183 0006 7860     		str	r0, [r7, #4]
 184 0008 3960     		str	r1, [r7]
 274:Drivers/STM32F7xx_HAL_Driver/Src/stm32f7xx_ll_sdmmc.c ****   /* Write data to FIFO */ 
 275:Drivers/STM32F7xx_HAL_Driver/Src/stm32f7xx_ll_sdmmc.c ****   SDMMCx->FIFO = *pWriteData;
 185              		.loc 1 275 18
 186 000a 3B68     		ldr	r3, [r7]
 187 000c 1A68     		ldr	r2, [r3]
 188              		.loc 1 275 16
 189 000e 7B68     		ldr	r3, [r7, #4]
 190 0010 C3F88020 		str	r2, [r3, #128]
 276:Drivers/STM32F7xx_HAL_Driver/Src/stm32f7xx_ll_sdmmc.c **** 
 277:Drivers/STM32F7xx_HAL_Driver/Src/stm32f7xx_ll_sdmmc.c ****   return HAL_OK;
 191              		.loc 1 277 10
 192 0014 0023     		movs	r3, #0
 278:Drivers/STM32F7xx_HAL_Driver/Src/stm32f7xx_ll_sdmmc.c **** }
 193              		.loc 1 278 1
 194 0016 1846     		mov	r0, r3
 195 0018 0C37     		adds	r7, r7, #12
 196              	.LCFI17:
 197              		.cfi_def_cfa_offset 4
 198 001a BD46     		mov	sp, r7
 199              	.LCFI18:
 200              		.cfi_def_cfa_register 13
 201              		@ sp needed
 202 001c 5DF8047B 		ldr	r7, [sp], #4
 203              	.LCFI19:
 204              		.cfi_restore 7
 205              		.cfi_def_cfa_offset 0
 206 0020 7047     		bx	lr
 207              		.cfi_endproc
 208              	.LFE143:
 210              		.section	.text.SDMMC_PowerState_ON,"ax",%progbits
 211              		.align	1
 212              		.global	SDMMC_PowerState_ON
 213              		.syntax unified
 214              		.thumb
 215              		.thumb_func
 217              	SDMMC_PowerState_ON:
 218              	.LFB144:
 279:Drivers/STM32F7xx_HAL_Driver/Src/stm32f7xx_ll_sdmmc.c **** 
 280:Drivers/STM32F7xx_HAL_Driver/Src/stm32f7xx_ll_sdmmc.c **** /**
 281:Drivers/STM32F7xx_HAL_Driver/Src/stm32f7xx_ll_sdmmc.c ****   * @}
 282:Drivers/STM32F7xx_HAL_Driver/Src/stm32f7xx_ll_sdmmc.c ****   */
 283:Drivers/STM32F7xx_HAL_Driver/Src/stm32f7xx_ll_sdmmc.c **** 
 284:Drivers/STM32F7xx_HAL_Driver/Src/stm32f7xx_ll_sdmmc.c **** /** @defgroup HAL_SDMMC_LL_Group3 Peripheral Control functions 
 285:Drivers/STM32F7xx_HAL_Driver/Src/stm32f7xx_ll_sdmmc.c ****  *  @brief   management functions 
 286:Drivers/STM32F7xx_HAL_Driver/Src/stm32f7xx_ll_sdmmc.c ****  *
 287:Drivers/STM32F7xx_HAL_Driver/Src/stm32f7xx_ll_sdmmc.c **** @verbatim   
 288:Drivers/STM32F7xx_HAL_Driver/Src/stm32f7xx_ll_sdmmc.c ****  ===============================================================================
 289:Drivers/STM32F7xx_HAL_Driver/Src/stm32f7xx_ll_sdmmc.c ****                       ##### Peripheral Control functions #####
 290:Drivers/STM32F7xx_HAL_Driver/Src/stm32f7xx_ll_sdmmc.c ****  ===============================================================================  
 291:Drivers/STM32F7xx_HAL_Driver/Src/stm32f7xx_ll_sdmmc.c ****     [..]
 292:Drivers/STM32F7xx_HAL_Driver/Src/stm32f7xx_ll_sdmmc.c ****     This subsection provides a set of functions allowing to control the SDMMC data 
 293:Drivers/STM32F7xx_HAL_Driver/Src/stm32f7xx_ll_sdmmc.c ****     transfers.
 294:Drivers/STM32F7xx_HAL_Driver/Src/stm32f7xx_ll_sdmmc.c **** 
 295:Drivers/STM32F7xx_HAL_Driver/Src/stm32f7xx_ll_sdmmc.c **** @endverbatim
 296:Drivers/STM32F7xx_HAL_Driver/Src/stm32f7xx_ll_sdmmc.c ****   * @{
ARM GAS  C:\Users\jisu8\AppData\Local\Temp\ccG1p0Yx.s 			page 10


 297:Drivers/STM32F7xx_HAL_Driver/Src/stm32f7xx_ll_sdmmc.c ****   */
 298:Drivers/STM32F7xx_HAL_Driver/Src/stm32f7xx_ll_sdmmc.c **** 
 299:Drivers/STM32F7xx_HAL_Driver/Src/stm32f7xx_ll_sdmmc.c **** /**
 300:Drivers/STM32F7xx_HAL_Driver/Src/stm32f7xx_ll_sdmmc.c ****   * @brief  Set SDMMC Power state to ON. 
 301:Drivers/STM32F7xx_HAL_Driver/Src/stm32f7xx_ll_sdmmc.c ****   * @param  SDMMCx: Pointer to SDMMC register base
 302:Drivers/STM32F7xx_HAL_Driver/Src/stm32f7xx_ll_sdmmc.c ****   * @retval HAL status
 303:Drivers/STM32F7xx_HAL_Driver/Src/stm32f7xx_ll_sdmmc.c ****   */
 304:Drivers/STM32F7xx_HAL_Driver/Src/stm32f7xx_ll_sdmmc.c **** HAL_StatusTypeDef SDMMC_PowerState_ON(SDMMC_TypeDef *SDMMCx)
 305:Drivers/STM32F7xx_HAL_Driver/Src/stm32f7xx_ll_sdmmc.c **** {  
 219              		.loc 1 305 1
 220              		.cfi_startproc
 221              		@ args = 0, pretend = 0, frame = 8
 222              		@ frame_needed = 1, uses_anonymous_args = 0
 223              		@ link register save eliminated.
 224 0000 80B4     		push	{r7}
 225              	.LCFI20:
 226              		.cfi_def_cfa_offset 4
 227              		.cfi_offset 7, -4
 228 0002 83B0     		sub	sp, sp, #12
 229              	.LCFI21:
 230              		.cfi_def_cfa_offset 16
 231 0004 00AF     		add	r7, sp, #0
 232              	.LCFI22:
 233              		.cfi_def_cfa_register 7
 234 0006 7860     		str	r0, [r7, #4]
 306:Drivers/STM32F7xx_HAL_Driver/Src/stm32f7xx_ll_sdmmc.c ****   /* Set power state to ON */ 
 307:Drivers/STM32F7xx_HAL_Driver/Src/stm32f7xx_ll_sdmmc.c ****   SDMMCx->POWER = SDMMC_POWER_PWRCTRL;
 235              		.loc 1 307 17
 236 0008 7B68     		ldr	r3, [r7, #4]
 237 000a 0322     		movs	r2, #3
 238 000c 1A60     		str	r2, [r3]
 308:Drivers/STM32F7xx_HAL_Driver/Src/stm32f7xx_ll_sdmmc.c **** 
 309:Drivers/STM32F7xx_HAL_Driver/Src/stm32f7xx_ll_sdmmc.c ****   return HAL_OK;
 239              		.loc 1 309 10
 240 000e 0023     		movs	r3, #0
 310:Drivers/STM32F7xx_HAL_Driver/Src/stm32f7xx_ll_sdmmc.c **** }
 241              		.loc 1 310 1
 242 0010 1846     		mov	r0, r3
 243 0012 0C37     		adds	r7, r7, #12
 244              	.LCFI23:
 245              		.cfi_def_cfa_offset 4
 246 0014 BD46     		mov	sp, r7
 247              	.LCFI24:
 248              		.cfi_def_cfa_register 13
 249              		@ sp needed
 250 0016 5DF8047B 		ldr	r7, [sp], #4
 251              	.LCFI25:
 252              		.cfi_restore 7
 253              		.cfi_def_cfa_offset 0
 254 001a 7047     		bx	lr
 255              		.cfi_endproc
 256              	.LFE144:
 258              		.section	.text.SDMMC_PowerState_OFF,"ax",%progbits
 259              		.align	1
 260              		.global	SDMMC_PowerState_OFF
 261              		.syntax unified
 262              		.thumb
ARM GAS  C:\Users\jisu8\AppData\Local\Temp\ccG1p0Yx.s 			page 11


 263              		.thumb_func
 265              	SDMMC_PowerState_OFF:
 266              	.LFB145:
 311:Drivers/STM32F7xx_HAL_Driver/Src/stm32f7xx_ll_sdmmc.c **** 
 312:Drivers/STM32F7xx_HAL_Driver/Src/stm32f7xx_ll_sdmmc.c **** /**
 313:Drivers/STM32F7xx_HAL_Driver/Src/stm32f7xx_ll_sdmmc.c ****   * @brief  Set SDMMC Power state to OFF. 
 314:Drivers/STM32F7xx_HAL_Driver/Src/stm32f7xx_ll_sdmmc.c ****   * @param  SDMMCx: Pointer to SDMMC register base
 315:Drivers/STM32F7xx_HAL_Driver/Src/stm32f7xx_ll_sdmmc.c ****   * @retval HAL status
 316:Drivers/STM32F7xx_HAL_Driver/Src/stm32f7xx_ll_sdmmc.c ****   */
 317:Drivers/STM32F7xx_HAL_Driver/Src/stm32f7xx_ll_sdmmc.c **** HAL_StatusTypeDef SDMMC_PowerState_OFF(SDMMC_TypeDef *SDMMCx)
 318:Drivers/STM32F7xx_HAL_Driver/Src/stm32f7xx_ll_sdmmc.c **** {
 267              		.loc 1 318 1
 268              		.cfi_startproc
 269              		@ args = 0, pretend = 0, frame = 8
 270              		@ frame_needed = 1, uses_anonymous_args = 0
 271              		@ link register save eliminated.
 272 0000 80B4     		push	{r7}
 273              	.LCFI26:
 274              		.cfi_def_cfa_offset 4
 275              		.cfi_offset 7, -4
 276 0002 83B0     		sub	sp, sp, #12
 277              	.LCFI27:
 278              		.cfi_def_cfa_offset 16
 279 0004 00AF     		add	r7, sp, #0
 280              	.LCFI28:
 281              		.cfi_def_cfa_register 7
 282 0006 7860     		str	r0, [r7, #4]
 319:Drivers/STM32F7xx_HAL_Driver/Src/stm32f7xx_ll_sdmmc.c ****   /* Set power state to OFF */
 320:Drivers/STM32F7xx_HAL_Driver/Src/stm32f7xx_ll_sdmmc.c ****   SDMMCx->POWER = (uint32_t)0x00000000;
 283              		.loc 1 320 17
 284 0008 7B68     		ldr	r3, [r7, #4]
 285 000a 0022     		movs	r2, #0
 286 000c 1A60     		str	r2, [r3]
 321:Drivers/STM32F7xx_HAL_Driver/Src/stm32f7xx_ll_sdmmc.c ****   
 322:Drivers/STM32F7xx_HAL_Driver/Src/stm32f7xx_ll_sdmmc.c ****   return HAL_OK;
 287              		.loc 1 322 10
 288 000e 0023     		movs	r3, #0
 323:Drivers/STM32F7xx_HAL_Driver/Src/stm32f7xx_ll_sdmmc.c **** }
 289              		.loc 1 323 1
 290 0010 1846     		mov	r0, r3
 291 0012 0C37     		adds	r7, r7, #12
 292              	.LCFI29:
 293              		.cfi_def_cfa_offset 4
 294 0014 BD46     		mov	sp, r7
 295              	.LCFI30:
 296              		.cfi_def_cfa_register 13
 297              		@ sp needed
 298 0016 5DF8047B 		ldr	r7, [sp], #4
 299              	.LCFI31:
 300              		.cfi_restore 7
 301              		.cfi_def_cfa_offset 0
 302 001a 7047     		bx	lr
 303              		.cfi_endproc
 304              	.LFE145:
 306              		.section	.text.SDMMC_GetPowerState,"ax",%progbits
 307              		.align	1
 308              		.global	SDMMC_GetPowerState
ARM GAS  C:\Users\jisu8\AppData\Local\Temp\ccG1p0Yx.s 			page 12


 309              		.syntax unified
 310              		.thumb
 311              		.thumb_func
 313              	SDMMC_GetPowerState:
 314              	.LFB146:
 324:Drivers/STM32F7xx_HAL_Driver/Src/stm32f7xx_ll_sdmmc.c **** 
 325:Drivers/STM32F7xx_HAL_Driver/Src/stm32f7xx_ll_sdmmc.c **** /**
 326:Drivers/STM32F7xx_HAL_Driver/Src/stm32f7xx_ll_sdmmc.c ****   * @brief  Get SDMMC Power state. 
 327:Drivers/STM32F7xx_HAL_Driver/Src/stm32f7xx_ll_sdmmc.c ****   * @param  SDMMCx: Pointer to SDMMC register base
 328:Drivers/STM32F7xx_HAL_Driver/Src/stm32f7xx_ll_sdmmc.c ****   * @retval Power status of the controller. The returned value can be one of the 
 329:Drivers/STM32F7xx_HAL_Driver/Src/stm32f7xx_ll_sdmmc.c ****   *         following values:
 330:Drivers/STM32F7xx_HAL_Driver/Src/stm32f7xx_ll_sdmmc.c ****   *            - 0x00: Power OFF
 331:Drivers/STM32F7xx_HAL_Driver/Src/stm32f7xx_ll_sdmmc.c ****   *            - 0x02: Power UP
 332:Drivers/STM32F7xx_HAL_Driver/Src/stm32f7xx_ll_sdmmc.c ****   *            - 0x03: Power ON 
 333:Drivers/STM32F7xx_HAL_Driver/Src/stm32f7xx_ll_sdmmc.c ****   */
 334:Drivers/STM32F7xx_HAL_Driver/Src/stm32f7xx_ll_sdmmc.c **** uint32_t SDMMC_GetPowerState(SDMMC_TypeDef *SDMMCx)  
 335:Drivers/STM32F7xx_HAL_Driver/Src/stm32f7xx_ll_sdmmc.c **** {
 315              		.loc 1 335 1
 316              		.cfi_startproc
 317              		@ args = 0, pretend = 0, frame = 8
 318              		@ frame_needed = 1, uses_anonymous_args = 0
 319              		@ link register save eliminated.
 320 0000 80B4     		push	{r7}
 321              	.LCFI32:
 322              		.cfi_def_cfa_offset 4
 323              		.cfi_offset 7, -4
 324 0002 83B0     		sub	sp, sp, #12
 325              	.LCFI33:
 326              		.cfi_def_cfa_offset 16
 327 0004 00AF     		add	r7, sp, #0
 328              	.LCFI34:
 329              		.cfi_def_cfa_register 7
 330 0006 7860     		str	r0, [r7, #4]
 336:Drivers/STM32F7xx_HAL_Driver/Src/stm32f7xx_ll_sdmmc.c ****   return (SDMMCx->POWER & SDMMC_POWER_PWRCTRL);
 331              		.loc 1 336 17
 332 0008 7B68     		ldr	r3, [r7, #4]
 333 000a 1B68     		ldr	r3, [r3]
 334              		.loc 1 336 25
 335 000c 03F00303 		and	r3, r3, #3
 337:Drivers/STM32F7xx_HAL_Driver/Src/stm32f7xx_ll_sdmmc.c **** }
 336              		.loc 1 337 1
 337 0010 1846     		mov	r0, r3
 338 0012 0C37     		adds	r7, r7, #12
 339              	.LCFI35:
 340              		.cfi_def_cfa_offset 4
 341 0014 BD46     		mov	sp, r7
 342              	.LCFI36:
 343              		.cfi_def_cfa_register 13
 344              		@ sp needed
 345 0016 5DF8047B 		ldr	r7, [sp], #4
 346              	.LCFI37:
 347              		.cfi_restore 7
 348              		.cfi_def_cfa_offset 0
 349 001a 7047     		bx	lr
 350              		.cfi_endproc
 351              	.LFE146:
 353              		.section	.text.SDMMC_SendCommand,"ax",%progbits
ARM GAS  C:\Users\jisu8\AppData\Local\Temp\ccG1p0Yx.s 			page 13


 354              		.align	1
 355              		.global	SDMMC_SendCommand
 356              		.syntax unified
 357              		.thumb
 358              		.thumb_func
 360              	SDMMC_SendCommand:
 361              	.LFB147:
 338:Drivers/STM32F7xx_HAL_Driver/Src/stm32f7xx_ll_sdmmc.c **** 
 339:Drivers/STM32F7xx_HAL_Driver/Src/stm32f7xx_ll_sdmmc.c **** /**
 340:Drivers/STM32F7xx_HAL_Driver/Src/stm32f7xx_ll_sdmmc.c ****   * @brief  Configure the SDMMC command path according to the specified parameters in
 341:Drivers/STM32F7xx_HAL_Driver/Src/stm32f7xx_ll_sdmmc.c ****   *         SDMMC_CmdInitTypeDef structure and send the command 
 342:Drivers/STM32F7xx_HAL_Driver/Src/stm32f7xx_ll_sdmmc.c ****   * @param  SDMMCx: Pointer to SDMMC register base
 343:Drivers/STM32F7xx_HAL_Driver/Src/stm32f7xx_ll_sdmmc.c ****   * @param  Command: pointer to a SDMMC_CmdInitTypeDef structure that contains 
 344:Drivers/STM32F7xx_HAL_Driver/Src/stm32f7xx_ll_sdmmc.c ****   *         the configuration information for the SDMMC command
 345:Drivers/STM32F7xx_HAL_Driver/Src/stm32f7xx_ll_sdmmc.c ****   * @retval HAL status
 346:Drivers/STM32F7xx_HAL_Driver/Src/stm32f7xx_ll_sdmmc.c ****   */
 347:Drivers/STM32F7xx_HAL_Driver/Src/stm32f7xx_ll_sdmmc.c **** HAL_StatusTypeDef SDMMC_SendCommand(SDMMC_TypeDef *SDMMCx, SDMMC_CmdInitTypeDef *Command)
 348:Drivers/STM32F7xx_HAL_Driver/Src/stm32f7xx_ll_sdmmc.c **** {
 362              		.loc 1 348 1
 363              		.cfi_startproc
 364              		@ args = 0, pretend = 0, frame = 16
 365              		@ frame_needed = 1, uses_anonymous_args = 0
 366              		@ link register save eliminated.
 367 0000 80B4     		push	{r7}
 368              	.LCFI38:
 369              		.cfi_def_cfa_offset 4
 370              		.cfi_offset 7, -4
 371 0002 85B0     		sub	sp, sp, #20
 372              	.LCFI39:
 373              		.cfi_def_cfa_offset 24
 374 0004 00AF     		add	r7, sp, #0
 375              	.LCFI40:
 376              		.cfi_def_cfa_register 7
 377 0006 7860     		str	r0, [r7, #4]
 378 0008 3960     		str	r1, [r7]
 349:Drivers/STM32F7xx_HAL_Driver/Src/stm32f7xx_ll_sdmmc.c ****   uint32_t tmpreg = 0;
 379              		.loc 1 349 12
 380 000a 0023     		movs	r3, #0
 381 000c FB60     		str	r3, [r7, #12]
 350:Drivers/STM32F7xx_HAL_Driver/Src/stm32f7xx_ll_sdmmc.c ****   
 351:Drivers/STM32F7xx_HAL_Driver/Src/stm32f7xx_ll_sdmmc.c ****   /* Check the parameters */
 352:Drivers/STM32F7xx_HAL_Driver/Src/stm32f7xx_ll_sdmmc.c ****   assert_param(IS_SDMMC_CMD_INDEX(Command->CmdIndex));
 353:Drivers/STM32F7xx_HAL_Driver/Src/stm32f7xx_ll_sdmmc.c ****   assert_param(IS_SDMMC_RESPONSE(Command->Response));
 354:Drivers/STM32F7xx_HAL_Driver/Src/stm32f7xx_ll_sdmmc.c ****   assert_param(IS_SDMMC_WAIT(Command->WaitForInterrupt));
 355:Drivers/STM32F7xx_HAL_Driver/Src/stm32f7xx_ll_sdmmc.c ****   assert_param(IS_SDMMC_CPSM(Command->CPSM));
 356:Drivers/STM32F7xx_HAL_Driver/Src/stm32f7xx_ll_sdmmc.c **** 
 357:Drivers/STM32F7xx_HAL_Driver/Src/stm32f7xx_ll_sdmmc.c ****   /* Set the SDMMC Argument value */
 358:Drivers/STM32F7xx_HAL_Driver/Src/stm32f7xx_ll_sdmmc.c ****   SDMMCx->ARG = Command->Argument;
 382              		.loc 1 358 24
 383 000e 3B68     		ldr	r3, [r7]
 384 0010 1A68     		ldr	r2, [r3]
 385              		.loc 1 358 15
 386 0012 7B68     		ldr	r3, [r7, #4]
 387 0014 9A60     		str	r2, [r3, #8]
 359:Drivers/STM32F7xx_HAL_Driver/Src/stm32f7xx_ll_sdmmc.c **** 
 360:Drivers/STM32F7xx_HAL_Driver/Src/stm32f7xx_ll_sdmmc.c ****   /* Set SDMMC command parameters */
 361:Drivers/STM32F7xx_HAL_Driver/Src/stm32f7xx_ll_sdmmc.c ****   tmpreg |= (uint32_t)(Command->CmdIndex         |\
ARM GAS  C:\Users\jisu8\AppData\Local\Temp\ccG1p0Yx.s 			page 14


 388              		.loc 1 361 31
 389 0016 3B68     		ldr	r3, [r7]
 390 0018 5A68     		ldr	r2, [r3, #4]
 362:Drivers/STM32F7xx_HAL_Driver/Src/stm32f7xx_ll_sdmmc.c ****                        Command->Response         |\
 391              		.loc 1 362 31
 392 001a 3B68     		ldr	r3, [r7]
 393 001c 9B68     		ldr	r3, [r3, #8]
 361:Drivers/STM32F7xx_HAL_Driver/Src/stm32f7xx_ll_sdmmc.c ****                        Command->Response         |\
 394              		.loc 1 361 50
 395 001e 1A43     		orrs	r2, r2, r3
 363:Drivers/STM32F7xx_HAL_Driver/Src/stm32f7xx_ll_sdmmc.c ****                        Command->WaitForInterrupt |\
 396              		.loc 1 363 31
 397 0020 3B68     		ldr	r3, [r7]
 398 0022 DB68     		ldr	r3, [r3, #12]
 362:Drivers/STM32F7xx_HAL_Driver/Src/stm32f7xx_ll_sdmmc.c ****                        Command->Response         |\
 399              		.loc 1 362 50
 400 0024 1A43     		orrs	r2, r2, r3
 364:Drivers/STM32F7xx_HAL_Driver/Src/stm32f7xx_ll_sdmmc.c ****                        Command->CPSM);
 401              		.loc 1 364 31
 402 0026 3B68     		ldr	r3, [r7]
 403 0028 1B69     		ldr	r3, [r3, #16]
 363:Drivers/STM32F7xx_HAL_Driver/Src/stm32f7xx_ll_sdmmc.c ****                        Command->WaitForInterrupt |\
 404              		.loc 1 363 50
 405 002a 1343     		orrs	r3, r3, r2
 361:Drivers/STM32F7xx_HAL_Driver/Src/stm32f7xx_ll_sdmmc.c ****                        Command->Response         |\
 406              		.loc 1 361 10
 407 002c FA68     		ldr	r2, [r7, #12]
 408 002e 1343     		orrs	r3, r3, r2
 409 0030 FB60     		str	r3, [r7, #12]
 365:Drivers/STM32F7xx_HAL_Driver/Src/stm32f7xx_ll_sdmmc.c ****   
 366:Drivers/STM32F7xx_HAL_Driver/Src/stm32f7xx_ll_sdmmc.c ****   /* Write to SDMMC CMD register */
 367:Drivers/STM32F7xx_HAL_Driver/Src/stm32f7xx_ll_sdmmc.c ****   MODIFY_REG(SDMMCx->CMD, CMD_CLEAR_MASK, tmpreg); 
 410              		.loc 1 367 3
 411 0032 7B68     		ldr	r3, [r7, #4]
 412 0034 DA68     		ldr	r2, [r3, #12]
 413 0036 064B     		ldr	r3, .L17
 414 0038 1340     		ands	r3, r3, r2
 415 003a FA68     		ldr	r2, [r7, #12]
 416 003c 1A43     		orrs	r2, r2, r3
 417 003e 7B68     		ldr	r3, [r7, #4]
 418 0040 DA60     		str	r2, [r3, #12]
 368:Drivers/STM32F7xx_HAL_Driver/Src/stm32f7xx_ll_sdmmc.c ****   
 369:Drivers/STM32F7xx_HAL_Driver/Src/stm32f7xx_ll_sdmmc.c ****   return HAL_OK;  
 419              		.loc 1 369 10
 420 0042 0023     		movs	r3, #0
 370:Drivers/STM32F7xx_HAL_Driver/Src/stm32f7xx_ll_sdmmc.c **** }
 421              		.loc 1 370 1
 422 0044 1846     		mov	r0, r3
 423 0046 1437     		adds	r7, r7, #20
 424              	.LCFI41:
 425              		.cfi_def_cfa_offset 4
 426 0048 BD46     		mov	sp, r7
 427              	.LCFI42:
 428              		.cfi_def_cfa_register 13
 429              		@ sp needed
 430 004a 5DF8047B 		ldr	r7, [sp], #4
 431              	.LCFI43:
ARM GAS  C:\Users\jisu8\AppData\Local\Temp\ccG1p0Yx.s 			page 15


 432              		.cfi_restore 7
 433              		.cfi_def_cfa_offset 0
 434 004e 7047     		bx	lr
 435              	.L18:
 436              		.align	2
 437              	.L17:
 438 0050 00F0FFFF 		.word	-4096
 439              		.cfi_endproc
 440              	.LFE147:
 442              		.section	.text.SDMMC_GetCommandResponse,"ax",%progbits
 443              		.align	1
 444              		.global	SDMMC_GetCommandResponse
 445              		.syntax unified
 446              		.thumb
 447              		.thumb_func
 449              	SDMMC_GetCommandResponse:
 450              	.LFB148:
 371:Drivers/STM32F7xx_HAL_Driver/Src/stm32f7xx_ll_sdmmc.c **** 
 372:Drivers/STM32F7xx_HAL_Driver/Src/stm32f7xx_ll_sdmmc.c **** /**
 373:Drivers/STM32F7xx_HAL_Driver/Src/stm32f7xx_ll_sdmmc.c ****   * @brief  Return the command index of last command for which response received
 374:Drivers/STM32F7xx_HAL_Driver/Src/stm32f7xx_ll_sdmmc.c ****   * @param  SDMMCx: Pointer to SDMMC register base
 375:Drivers/STM32F7xx_HAL_Driver/Src/stm32f7xx_ll_sdmmc.c ****   * @retval Command index of the last command response received
 376:Drivers/STM32F7xx_HAL_Driver/Src/stm32f7xx_ll_sdmmc.c ****   */
 377:Drivers/STM32F7xx_HAL_Driver/Src/stm32f7xx_ll_sdmmc.c **** uint8_t SDMMC_GetCommandResponse(SDMMC_TypeDef *SDMMCx)
 378:Drivers/STM32F7xx_HAL_Driver/Src/stm32f7xx_ll_sdmmc.c **** {
 451              		.loc 1 378 1
 452              		.cfi_startproc
 453              		@ args = 0, pretend = 0, frame = 8
 454              		@ frame_needed = 1, uses_anonymous_args = 0
 455              		@ link register save eliminated.
 456 0000 80B4     		push	{r7}
 457              	.LCFI44:
 458              		.cfi_def_cfa_offset 4
 459              		.cfi_offset 7, -4
 460 0002 83B0     		sub	sp, sp, #12
 461              	.LCFI45:
 462              		.cfi_def_cfa_offset 16
 463 0004 00AF     		add	r7, sp, #0
 464              	.LCFI46:
 465              		.cfi_def_cfa_register 7
 466 0006 7860     		str	r0, [r7, #4]
 379:Drivers/STM32F7xx_HAL_Driver/Src/stm32f7xx_ll_sdmmc.c ****   return (uint8_t)(SDMMCx->RESPCMD);
 467              		.loc 1 379 26
 468 0008 7B68     		ldr	r3, [r7, #4]
 469 000a 1B69     		ldr	r3, [r3, #16]
 470              		.loc 1 379 10
 471 000c DBB2     		uxtb	r3, r3
 380:Drivers/STM32F7xx_HAL_Driver/Src/stm32f7xx_ll_sdmmc.c **** }
 472              		.loc 1 380 1
 473 000e 1846     		mov	r0, r3
 474 0010 0C37     		adds	r7, r7, #12
 475              	.LCFI47:
 476              		.cfi_def_cfa_offset 4
 477 0012 BD46     		mov	sp, r7
 478              	.LCFI48:
 479              		.cfi_def_cfa_register 13
 480              		@ sp needed
ARM GAS  C:\Users\jisu8\AppData\Local\Temp\ccG1p0Yx.s 			page 16


 481 0014 5DF8047B 		ldr	r7, [sp], #4
 482              	.LCFI49:
 483              		.cfi_restore 7
 484              		.cfi_def_cfa_offset 0
 485 0018 7047     		bx	lr
 486              		.cfi_endproc
 487              	.LFE148:
 489              		.section	.text.SDMMC_GetResponse,"ax",%progbits
 490              		.align	1
 491              		.global	SDMMC_GetResponse
 492              		.syntax unified
 493              		.thumb
 494              		.thumb_func
 496              	SDMMC_GetResponse:
 497              	.LFB149:
 381:Drivers/STM32F7xx_HAL_Driver/Src/stm32f7xx_ll_sdmmc.c **** 
 382:Drivers/STM32F7xx_HAL_Driver/Src/stm32f7xx_ll_sdmmc.c **** 
 383:Drivers/STM32F7xx_HAL_Driver/Src/stm32f7xx_ll_sdmmc.c **** /**
 384:Drivers/STM32F7xx_HAL_Driver/Src/stm32f7xx_ll_sdmmc.c ****   * @brief  Return the response received from the card for the last command
 385:Drivers/STM32F7xx_HAL_Driver/Src/stm32f7xx_ll_sdmmc.c ****   * @param  SDMMCx: Pointer to SDMMC register base    
 386:Drivers/STM32F7xx_HAL_Driver/Src/stm32f7xx_ll_sdmmc.c ****   * @param  Response: Specifies the SDMMC response register. 
 387:Drivers/STM32F7xx_HAL_Driver/Src/stm32f7xx_ll_sdmmc.c ****   *          This parameter can be one of the following values:
 388:Drivers/STM32F7xx_HAL_Driver/Src/stm32f7xx_ll_sdmmc.c ****   *            @arg SDMMC_RESP1: Response Register 1
 389:Drivers/STM32F7xx_HAL_Driver/Src/stm32f7xx_ll_sdmmc.c ****   *            @arg SDMMC_RESP2: Response Register 2
 390:Drivers/STM32F7xx_HAL_Driver/Src/stm32f7xx_ll_sdmmc.c ****   *            @arg SDMMC_RESP3: Response Register 3
 391:Drivers/STM32F7xx_HAL_Driver/Src/stm32f7xx_ll_sdmmc.c ****   *            @arg SDMMC_RESP4: Response Register 4  
 392:Drivers/STM32F7xx_HAL_Driver/Src/stm32f7xx_ll_sdmmc.c ****   * @retval The Corresponding response register value
 393:Drivers/STM32F7xx_HAL_Driver/Src/stm32f7xx_ll_sdmmc.c ****   */
 394:Drivers/STM32F7xx_HAL_Driver/Src/stm32f7xx_ll_sdmmc.c **** uint32_t SDMMC_GetResponse(SDMMC_TypeDef *SDMMCx, uint32_t Response)
 395:Drivers/STM32F7xx_HAL_Driver/Src/stm32f7xx_ll_sdmmc.c **** {
 498              		.loc 1 395 1
 499              		.cfi_startproc
 500              		@ args = 0, pretend = 0, frame = 16
 501              		@ frame_needed = 1, uses_anonymous_args = 0
 502              		@ link register save eliminated.
 503 0000 80B4     		push	{r7}
 504              	.LCFI50:
 505              		.cfi_def_cfa_offset 4
 506              		.cfi_offset 7, -4
 507 0002 85B0     		sub	sp, sp, #20
 508              	.LCFI51:
 509              		.cfi_def_cfa_offset 24
 510 0004 00AF     		add	r7, sp, #0
 511              	.LCFI52:
 512              		.cfi_def_cfa_register 7
 513 0006 7860     		str	r0, [r7, #4]
 514 0008 3960     		str	r1, [r7]
 396:Drivers/STM32F7xx_HAL_Driver/Src/stm32f7xx_ll_sdmmc.c ****   uint32_t tmp;
 397:Drivers/STM32F7xx_HAL_Driver/Src/stm32f7xx_ll_sdmmc.c **** 
 398:Drivers/STM32F7xx_HAL_Driver/Src/stm32f7xx_ll_sdmmc.c ****   /* Check the parameters */
 399:Drivers/STM32F7xx_HAL_Driver/Src/stm32f7xx_ll_sdmmc.c ****   assert_param(IS_SDMMC_RESP(Response));
 400:Drivers/STM32F7xx_HAL_Driver/Src/stm32f7xx_ll_sdmmc.c ****   
 401:Drivers/STM32F7xx_HAL_Driver/Src/stm32f7xx_ll_sdmmc.c ****   /* Get the response */
 402:Drivers/STM32F7xx_HAL_Driver/Src/stm32f7xx_ll_sdmmc.c ****   tmp = (uint32_t)(&(SDMMCx->RESP1)) + Response;
 515              		.loc 1 402 20
 516 000a 7B68     		ldr	r3, [r7, #4]
 517 000c 1433     		adds	r3, r3, #20
ARM GAS  C:\Users\jisu8\AppData\Local\Temp\ccG1p0Yx.s 			page 17


 518              		.loc 1 402 9
 519 000e 1A46     		mov	r2, r3
 520              		.loc 1 402 7
 521 0010 3B68     		ldr	r3, [r7]
 522 0012 1344     		add	r3, r3, r2
 523 0014 FB60     		str	r3, [r7, #12]
 403:Drivers/STM32F7xx_HAL_Driver/Src/stm32f7xx_ll_sdmmc.c ****   
 404:Drivers/STM32F7xx_HAL_Driver/Src/stm32f7xx_ll_sdmmc.c ****   return (*(__IO uint32_t *) tmp);
 524              		.loc 1 404 12
 525 0016 FB68     		ldr	r3, [r7, #12]
 526              		.loc 1 404 11
 527 0018 1B68     		ldr	r3, [r3]
 405:Drivers/STM32F7xx_HAL_Driver/Src/stm32f7xx_ll_sdmmc.c **** }  
 528              		.loc 1 405 1
 529 001a 1846     		mov	r0, r3
 530 001c 1437     		adds	r7, r7, #20
 531              	.LCFI53:
 532              		.cfi_def_cfa_offset 4
 533 001e BD46     		mov	sp, r7
 534              	.LCFI54:
 535              		.cfi_def_cfa_register 13
 536              		@ sp needed
 537 0020 5DF8047B 		ldr	r7, [sp], #4
 538              	.LCFI55:
 539              		.cfi_restore 7
 540              		.cfi_def_cfa_offset 0
 541 0024 7047     		bx	lr
 542              		.cfi_endproc
 543              	.LFE149:
 545              		.section	.text.SDMMC_ConfigData,"ax",%progbits
 546              		.align	1
 547              		.global	SDMMC_ConfigData
 548              		.syntax unified
 549              		.thumb
 550              		.thumb_func
 552              	SDMMC_ConfigData:
 553              	.LFB150:
 406:Drivers/STM32F7xx_HAL_Driver/Src/stm32f7xx_ll_sdmmc.c **** 
 407:Drivers/STM32F7xx_HAL_Driver/Src/stm32f7xx_ll_sdmmc.c **** /**
 408:Drivers/STM32F7xx_HAL_Driver/Src/stm32f7xx_ll_sdmmc.c ****   * @brief  Configure the SDMMC data path according to the specified 
 409:Drivers/STM32F7xx_HAL_Driver/Src/stm32f7xx_ll_sdmmc.c ****   *         parameters in the SDMMC_DataInitTypeDef.
 410:Drivers/STM32F7xx_HAL_Driver/Src/stm32f7xx_ll_sdmmc.c ****   * @param  SDMMCx: Pointer to SDMMC register base  
 411:Drivers/STM32F7xx_HAL_Driver/Src/stm32f7xx_ll_sdmmc.c ****   * @param  Data : pointer to a SDMMC_DataInitTypeDef structure 
 412:Drivers/STM32F7xx_HAL_Driver/Src/stm32f7xx_ll_sdmmc.c ****   *         that contains the configuration information for the SDMMC data.
 413:Drivers/STM32F7xx_HAL_Driver/Src/stm32f7xx_ll_sdmmc.c ****   * @retval HAL status
 414:Drivers/STM32F7xx_HAL_Driver/Src/stm32f7xx_ll_sdmmc.c ****   */
 415:Drivers/STM32F7xx_HAL_Driver/Src/stm32f7xx_ll_sdmmc.c **** HAL_StatusTypeDef SDMMC_ConfigData(SDMMC_TypeDef *SDMMCx, SDMMC_DataInitTypeDef* Data)
 416:Drivers/STM32F7xx_HAL_Driver/Src/stm32f7xx_ll_sdmmc.c **** {
 554              		.loc 1 416 1
 555              		.cfi_startproc
 556              		@ args = 0, pretend = 0, frame = 16
 557              		@ frame_needed = 1, uses_anonymous_args = 0
 558              		@ link register save eliminated.
 559 0000 80B4     		push	{r7}
 560              	.LCFI56:
 561              		.cfi_def_cfa_offset 4
 562              		.cfi_offset 7, -4
ARM GAS  C:\Users\jisu8\AppData\Local\Temp\ccG1p0Yx.s 			page 18


 563 0002 85B0     		sub	sp, sp, #20
 564              	.LCFI57:
 565              		.cfi_def_cfa_offset 24
 566 0004 00AF     		add	r7, sp, #0
 567              	.LCFI58:
 568              		.cfi_def_cfa_register 7
 569 0006 7860     		str	r0, [r7, #4]
 570 0008 3960     		str	r1, [r7]
 417:Drivers/STM32F7xx_HAL_Driver/Src/stm32f7xx_ll_sdmmc.c ****   uint32_t tmpreg = 0;
 571              		.loc 1 417 12
 572 000a 0023     		movs	r3, #0
 573 000c FB60     		str	r3, [r7, #12]
 418:Drivers/STM32F7xx_HAL_Driver/Src/stm32f7xx_ll_sdmmc.c ****   
 419:Drivers/STM32F7xx_HAL_Driver/Src/stm32f7xx_ll_sdmmc.c ****   /* Check the parameters */
 420:Drivers/STM32F7xx_HAL_Driver/Src/stm32f7xx_ll_sdmmc.c ****   assert_param(IS_SDMMC_DATA_LENGTH(Data->DataLength));
 421:Drivers/STM32F7xx_HAL_Driver/Src/stm32f7xx_ll_sdmmc.c ****   assert_param(IS_SDMMC_BLOCK_SIZE(Data->DataBlockSize));
 422:Drivers/STM32F7xx_HAL_Driver/Src/stm32f7xx_ll_sdmmc.c ****   assert_param(IS_SDMMC_TRANSFER_DIR(Data->TransferDir));
 423:Drivers/STM32F7xx_HAL_Driver/Src/stm32f7xx_ll_sdmmc.c ****   assert_param(IS_SDMMC_TRANSFER_MODE(Data->TransferMode));
 424:Drivers/STM32F7xx_HAL_Driver/Src/stm32f7xx_ll_sdmmc.c ****   assert_param(IS_SDMMC_DPSM(Data->DPSM));
 425:Drivers/STM32F7xx_HAL_Driver/Src/stm32f7xx_ll_sdmmc.c **** 
 426:Drivers/STM32F7xx_HAL_Driver/Src/stm32f7xx_ll_sdmmc.c ****   /* Set the SDMMC Data TimeOut value */
 427:Drivers/STM32F7xx_HAL_Driver/Src/stm32f7xx_ll_sdmmc.c ****   SDMMCx->DTIMER = Data->DataTimeOut;
 574              		.loc 1 427 24
 575 000e 3B68     		ldr	r3, [r7]
 576 0010 1A68     		ldr	r2, [r3]
 577              		.loc 1 427 18
 578 0012 7B68     		ldr	r3, [r7, #4]
 579 0014 5A62     		str	r2, [r3, #36]
 428:Drivers/STM32F7xx_HAL_Driver/Src/stm32f7xx_ll_sdmmc.c **** 
 429:Drivers/STM32F7xx_HAL_Driver/Src/stm32f7xx_ll_sdmmc.c ****   /* Set the SDMMC DataLength value */
 430:Drivers/STM32F7xx_HAL_Driver/Src/stm32f7xx_ll_sdmmc.c ****   SDMMCx->DLEN = Data->DataLength;
 580              		.loc 1 430 22
 581 0016 3B68     		ldr	r3, [r7]
 582 0018 5A68     		ldr	r2, [r3, #4]
 583              		.loc 1 430 16
 584 001a 7B68     		ldr	r3, [r7, #4]
 585 001c 9A62     		str	r2, [r3, #40]
 431:Drivers/STM32F7xx_HAL_Driver/Src/stm32f7xx_ll_sdmmc.c **** 
 432:Drivers/STM32F7xx_HAL_Driver/Src/stm32f7xx_ll_sdmmc.c ****   /* Set the SDMMC data configuration parameters */
 433:Drivers/STM32F7xx_HAL_Driver/Src/stm32f7xx_ll_sdmmc.c ****   tmpreg |= (uint32_t)(Data->DataBlockSize |\
 586              		.loc 1 433 28
 587 001e 3B68     		ldr	r3, [r7]
 588 0020 9A68     		ldr	r2, [r3, #8]
 434:Drivers/STM32F7xx_HAL_Driver/Src/stm32f7xx_ll_sdmmc.c ****                        Data->TransferDir   |\
 589              		.loc 1 434 28
 590 0022 3B68     		ldr	r3, [r7]
 591 0024 DB68     		ldr	r3, [r3, #12]
 433:Drivers/STM32F7xx_HAL_Driver/Src/stm32f7xx_ll_sdmmc.c ****                        Data->TransferDir   |\
 592              		.loc 1 433 44
 593 0026 1A43     		orrs	r2, r2, r3
 435:Drivers/STM32F7xx_HAL_Driver/Src/stm32f7xx_ll_sdmmc.c ****                        Data->TransferMode  |\
 594              		.loc 1 435 28
 595 0028 3B68     		ldr	r3, [r7]
 596 002a 1B69     		ldr	r3, [r3, #16]
 434:Drivers/STM32F7xx_HAL_Driver/Src/stm32f7xx_ll_sdmmc.c ****                        Data->TransferDir   |\
 597              		.loc 1 434 44
 598 002c 1A43     		orrs	r2, r2, r3
ARM GAS  C:\Users\jisu8\AppData\Local\Temp\ccG1p0Yx.s 			page 19


 436:Drivers/STM32F7xx_HAL_Driver/Src/stm32f7xx_ll_sdmmc.c ****                        Data->DPSM);
 599              		.loc 1 436 28
 600 002e 3B68     		ldr	r3, [r7]
 601 0030 5B69     		ldr	r3, [r3, #20]
 435:Drivers/STM32F7xx_HAL_Driver/Src/stm32f7xx_ll_sdmmc.c ****                        Data->TransferMode  |\
 602              		.loc 1 435 44
 603 0032 1343     		orrs	r3, r3, r2
 433:Drivers/STM32F7xx_HAL_Driver/Src/stm32f7xx_ll_sdmmc.c ****                        Data->TransferDir   |\
 604              		.loc 1 433 10
 605 0034 FA68     		ldr	r2, [r7, #12]
 606 0036 1343     		orrs	r3, r3, r2
 607 0038 FB60     		str	r3, [r7, #12]
 437:Drivers/STM32F7xx_HAL_Driver/Src/stm32f7xx_ll_sdmmc.c ****   
 438:Drivers/STM32F7xx_HAL_Driver/Src/stm32f7xx_ll_sdmmc.c ****   /* Write to SDMMC DCTRL */
 439:Drivers/STM32F7xx_HAL_Driver/Src/stm32f7xx_ll_sdmmc.c ****   MODIFY_REG(SDMMCx->DCTRL, DCTRL_CLEAR_MASK, tmpreg);
 608              		.loc 1 439 3
 609 003a 7B68     		ldr	r3, [r7, #4]
 610 003c DB6A     		ldr	r3, [r3, #44]
 611 003e 23F0F702 		bic	r2, r3, #247
 612 0042 FB68     		ldr	r3, [r7, #12]
 613 0044 1A43     		orrs	r2, r2, r3
 614 0046 7B68     		ldr	r3, [r7, #4]
 615 0048 DA62     		str	r2, [r3, #44]
 440:Drivers/STM32F7xx_HAL_Driver/Src/stm32f7xx_ll_sdmmc.c **** 
 441:Drivers/STM32F7xx_HAL_Driver/Src/stm32f7xx_ll_sdmmc.c ****   return HAL_OK;
 616              		.loc 1 441 10
 617 004a 0023     		movs	r3, #0
 442:Drivers/STM32F7xx_HAL_Driver/Src/stm32f7xx_ll_sdmmc.c **** 
 443:Drivers/STM32F7xx_HAL_Driver/Src/stm32f7xx_ll_sdmmc.c **** }
 618              		.loc 1 443 1
 619 004c 1846     		mov	r0, r3
 620 004e 1437     		adds	r7, r7, #20
 621              	.LCFI59:
 622              		.cfi_def_cfa_offset 4
 623 0050 BD46     		mov	sp, r7
 624              	.LCFI60:
 625              		.cfi_def_cfa_register 13
 626              		@ sp needed
 627 0052 5DF8047B 		ldr	r7, [sp], #4
 628              	.LCFI61:
 629              		.cfi_restore 7
 630              		.cfi_def_cfa_offset 0
 631 0056 7047     		bx	lr
 632              		.cfi_endproc
 633              	.LFE150:
 635              		.section	.text.SDMMC_GetDataCounter,"ax",%progbits
 636              		.align	1
 637              		.global	SDMMC_GetDataCounter
 638              		.syntax unified
 639              		.thumb
 640              		.thumb_func
 642              	SDMMC_GetDataCounter:
 643              	.LFB151:
 444:Drivers/STM32F7xx_HAL_Driver/Src/stm32f7xx_ll_sdmmc.c **** 
 445:Drivers/STM32F7xx_HAL_Driver/Src/stm32f7xx_ll_sdmmc.c **** /**
 446:Drivers/STM32F7xx_HAL_Driver/Src/stm32f7xx_ll_sdmmc.c ****   * @brief  Returns number of remaining data bytes to be transferred.
 447:Drivers/STM32F7xx_HAL_Driver/Src/stm32f7xx_ll_sdmmc.c ****   * @param  SDMMCx: Pointer to SDMMC register base
ARM GAS  C:\Users\jisu8\AppData\Local\Temp\ccG1p0Yx.s 			page 20


 448:Drivers/STM32F7xx_HAL_Driver/Src/stm32f7xx_ll_sdmmc.c ****   * @retval Number of remaining data bytes to be transferred
 449:Drivers/STM32F7xx_HAL_Driver/Src/stm32f7xx_ll_sdmmc.c ****   */
 450:Drivers/STM32F7xx_HAL_Driver/Src/stm32f7xx_ll_sdmmc.c **** uint32_t SDMMC_GetDataCounter(SDMMC_TypeDef *SDMMCx)
 451:Drivers/STM32F7xx_HAL_Driver/Src/stm32f7xx_ll_sdmmc.c **** {
 644              		.loc 1 451 1
 645              		.cfi_startproc
 646              		@ args = 0, pretend = 0, frame = 8
 647              		@ frame_needed = 1, uses_anonymous_args = 0
 648              		@ link register save eliminated.
 649 0000 80B4     		push	{r7}
 650              	.LCFI62:
 651              		.cfi_def_cfa_offset 4
 652              		.cfi_offset 7, -4
 653 0002 83B0     		sub	sp, sp, #12
 654              	.LCFI63:
 655              		.cfi_def_cfa_offset 16
 656 0004 00AF     		add	r7, sp, #0
 657              	.LCFI64:
 658              		.cfi_def_cfa_register 7
 659 0006 7860     		str	r0, [r7, #4]
 452:Drivers/STM32F7xx_HAL_Driver/Src/stm32f7xx_ll_sdmmc.c ****   return (SDMMCx->DCOUNT);
 660              		.loc 1 452 17
 661 0008 7B68     		ldr	r3, [r7, #4]
 662 000a 1B6B     		ldr	r3, [r3, #48]
 453:Drivers/STM32F7xx_HAL_Driver/Src/stm32f7xx_ll_sdmmc.c **** }
 663              		.loc 1 453 1
 664 000c 1846     		mov	r0, r3
 665 000e 0C37     		adds	r7, r7, #12
 666              	.LCFI65:
 667              		.cfi_def_cfa_offset 4
 668 0010 BD46     		mov	sp, r7
 669              	.LCFI66:
 670              		.cfi_def_cfa_register 13
 671              		@ sp needed
 672 0012 5DF8047B 		ldr	r7, [sp], #4
 673              	.LCFI67:
 674              		.cfi_restore 7
 675              		.cfi_def_cfa_offset 0
 676 0016 7047     		bx	lr
 677              		.cfi_endproc
 678              	.LFE151:
 680              		.section	.text.SDMMC_GetFIFOCount,"ax",%progbits
 681              		.align	1
 682              		.global	SDMMC_GetFIFOCount
 683              		.syntax unified
 684              		.thumb
 685              		.thumb_func
 687              	SDMMC_GetFIFOCount:
 688              	.LFB152:
 454:Drivers/STM32F7xx_HAL_Driver/Src/stm32f7xx_ll_sdmmc.c **** 
 455:Drivers/STM32F7xx_HAL_Driver/Src/stm32f7xx_ll_sdmmc.c **** /**
 456:Drivers/STM32F7xx_HAL_Driver/Src/stm32f7xx_ll_sdmmc.c ****   * @brief  Get the FIFO data
 457:Drivers/STM32F7xx_HAL_Driver/Src/stm32f7xx_ll_sdmmc.c ****   * @param  SDMMCx: Pointer to SDMMC register base 
 458:Drivers/STM32F7xx_HAL_Driver/Src/stm32f7xx_ll_sdmmc.c ****   * @retval Data received
 459:Drivers/STM32F7xx_HAL_Driver/Src/stm32f7xx_ll_sdmmc.c ****   */
 460:Drivers/STM32F7xx_HAL_Driver/Src/stm32f7xx_ll_sdmmc.c **** uint32_t SDMMC_GetFIFOCount(SDMMC_TypeDef *SDMMCx)
 461:Drivers/STM32F7xx_HAL_Driver/Src/stm32f7xx_ll_sdmmc.c **** {
ARM GAS  C:\Users\jisu8\AppData\Local\Temp\ccG1p0Yx.s 			page 21


 689              		.loc 1 461 1
 690              		.cfi_startproc
 691              		@ args = 0, pretend = 0, frame = 8
 692              		@ frame_needed = 1, uses_anonymous_args = 0
 693              		@ link register save eliminated.
 694 0000 80B4     		push	{r7}
 695              	.LCFI68:
 696              		.cfi_def_cfa_offset 4
 697              		.cfi_offset 7, -4
 698 0002 83B0     		sub	sp, sp, #12
 699              	.LCFI69:
 700              		.cfi_def_cfa_offset 16
 701 0004 00AF     		add	r7, sp, #0
 702              	.LCFI70:
 703              		.cfi_def_cfa_register 7
 704 0006 7860     		str	r0, [r7, #4]
 462:Drivers/STM32F7xx_HAL_Driver/Src/stm32f7xx_ll_sdmmc.c ****   return (SDMMCx->FIFO);
 705              		.loc 1 462 17
 706 0008 7B68     		ldr	r3, [r7, #4]
 707 000a D3F88030 		ldr	r3, [r3, #128]
 463:Drivers/STM32F7xx_HAL_Driver/Src/stm32f7xx_ll_sdmmc.c **** }
 708              		.loc 1 463 1
 709 000e 1846     		mov	r0, r3
 710 0010 0C37     		adds	r7, r7, #12
 711              	.LCFI71:
 712              		.cfi_def_cfa_offset 4
 713 0012 BD46     		mov	sp, r7
 714              	.LCFI72:
 715              		.cfi_def_cfa_register 13
 716              		@ sp needed
 717 0014 5DF8047B 		ldr	r7, [sp], #4
 718              	.LCFI73:
 719              		.cfi_restore 7
 720              		.cfi_def_cfa_offset 0
 721 0018 7047     		bx	lr
 722              		.cfi_endproc
 723              	.LFE152:
 725              		.section	.text.SDMMC_SetSDMMCReadWaitMode,"ax",%progbits
 726              		.align	1
 727              		.global	SDMMC_SetSDMMCReadWaitMode
 728              		.syntax unified
 729              		.thumb
 730              		.thumb_func
 732              	SDMMC_SetSDMMCReadWaitMode:
 733              	.LFB153:
 464:Drivers/STM32F7xx_HAL_Driver/Src/stm32f7xx_ll_sdmmc.c **** 
 465:Drivers/STM32F7xx_HAL_Driver/Src/stm32f7xx_ll_sdmmc.c **** /**
 466:Drivers/STM32F7xx_HAL_Driver/Src/stm32f7xx_ll_sdmmc.c ****   * @brief  Sets one of the two options of inserting read wait interval.
 467:Drivers/STM32F7xx_HAL_Driver/Src/stm32f7xx_ll_sdmmc.c ****   * @param  SDMMCx: Pointer to SDMMC register base   
 468:Drivers/STM32F7xx_HAL_Driver/Src/stm32f7xx_ll_sdmmc.c ****   * @param  SDMMC_ReadWaitMode: SDMMC Read Wait operation mode.
 469:Drivers/STM32F7xx_HAL_Driver/Src/stm32f7xx_ll_sdmmc.c ****   *          This parameter can be:
 470:Drivers/STM32F7xx_HAL_Driver/Src/stm32f7xx_ll_sdmmc.c ****   *            @arg SDMMC_READ_WAIT_MODE_CLK: Read Wait control by stopping SDMMCCLK
 471:Drivers/STM32F7xx_HAL_Driver/Src/stm32f7xx_ll_sdmmc.c ****   *            @arg SDMMC_READ_WAIT_MODE_DATA2: Read Wait control using SDMMC_DATA2
 472:Drivers/STM32F7xx_HAL_Driver/Src/stm32f7xx_ll_sdmmc.c ****   * @retval None
 473:Drivers/STM32F7xx_HAL_Driver/Src/stm32f7xx_ll_sdmmc.c ****   */
 474:Drivers/STM32F7xx_HAL_Driver/Src/stm32f7xx_ll_sdmmc.c **** HAL_StatusTypeDef SDMMC_SetSDMMCReadWaitMode(SDMMC_TypeDef *SDMMCx, uint32_t SDMMC_ReadWaitMode)
 475:Drivers/STM32F7xx_HAL_Driver/Src/stm32f7xx_ll_sdmmc.c **** {
ARM GAS  C:\Users\jisu8\AppData\Local\Temp\ccG1p0Yx.s 			page 22


 734              		.loc 1 475 1
 735              		.cfi_startproc
 736              		@ args = 0, pretend = 0, frame = 8
 737              		@ frame_needed = 1, uses_anonymous_args = 0
 738              		@ link register save eliminated.
 739 0000 80B4     		push	{r7}
 740              	.LCFI74:
 741              		.cfi_def_cfa_offset 4
 742              		.cfi_offset 7, -4
 743 0002 83B0     		sub	sp, sp, #12
 744              	.LCFI75:
 745              		.cfi_def_cfa_offset 16
 746 0004 00AF     		add	r7, sp, #0
 747              	.LCFI76:
 748              		.cfi_def_cfa_register 7
 749 0006 7860     		str	r0, [r7, #4]
 750 0008 3960     		str	r1, [r7]
 476:Drivers/STM32F7xx_HAL_Driver/Src/stm32f7xx_ll_sdmmc.c ****   /* Check the parameters */
 477:Drivers/STM32F7xx_HAL_Driver/Src/stm32f7xx_ll_sdmmc.c ****   assert_param(IS_SDMMC_READWAIT_MODE(SDMMC_ReadWaitMode));
 478:Drivers/STM32F7xx_HAL_Driver/Src/stm32f7xx_ll_sdmmc.c **** 
 479:Drivers/STM32F7xx_HAL_Driver/Src/stm32f7xx_ll_sdmmc.c ****   /* Set SDMMC read wait mode */
 480:Drivers/STM32F7xx_HAL_Driver/Src/stm32f7xx_ll_sdmmc.c ****   MODIFY_REG(SDMMCx->DCTRL, SDMMC_DCTRL_RWMOD, SDMMC_ReadWaitMode);
 751              		.loc 1 480 3
 752 000a 7B68     		ldr	r3, [r7, #4]
 753 000c DB6A     		ldr	r3, [r3, #44]
 754 000e 23F48062 		bic	r2, r3, #1024
 755 0012 3B68     		ldr	r3, [r7]
 756 0014 1A43     		orrs	r2, r2, r3
 757 0016 7B68     		ldr	r3, [r7, #4]
 758 0018 DA62     		str	r2, [r3, #44]
 481:Drivers/STM32F7xx_HAL_Driver/Src/stm32f7xx_ll_sdmmc.c ****   
 482:Drivers/STM32F7xx_HAL_Driver/Src/stm32f7xx_ll_sdmmc.c ****   return HAL_OK;  
 759              		.loc 1 482 10
 760 001a 0023     		movs	r3, #0
 483:Drivers/STM32F7xx_HAL_Driver/Src/stm32f7xx_ll_sdmmc.c **** }
 761              		.loc 1 483 1
 762 001c 1846     		mov	r0, r3
 763 001e 0C37     		adds	r7, r7, #12
 764              	.LCFI77:
 765              		.cfi_def_cfa_offset 4
 766 0020 BD46     		mov	sp, r7
 767              	.LCFI78:
 768              		.cfi_def_cfa_register 13
 769              		@ sp needed
 770 0022 5DF8047B 		ldr	r7, [sp], #4
 771              	.LCFI79:
 772              		.cfi_restore 7
 773              		.cfi_def_cfa_offset 0
 774 0026 7047     		bx	lr
 775              		.cfi_endproc
 776              	.LFE153:
 778              		.section	.text.SDMMC_CmdBlockLength,"ax",%progbits
 779              		.align	1
 780              		.global	SDMMC_CmdBlockLength
 781              		.syntax unified
 782              		.thumb
 783              		.thumb_func
ARM GAS  C:\Users\jisu8\AppData\Local\Temp\ccG1p0Yx.s 			page 23


 785              	SDMMC_CmdBlockLength:
 786              	.LFB154:
 484:Drivers/STM32F7xx_HAL_Driver/Src/stm32f7xx_ll_sdmmc.c **** 
 485:Drivers/STM32F7xx_HAL_Driver/Src/stm32f7xx_ll_sdmmc.c **** /**
 486:Drivers/STM32F7xx_HAL_Driver/Src/stm32f7xx_ll_sdmmc.c ****   * @}
 487:Drivers/STM32F7xx_HAL_Driver/Src/stm32f7xx_ll_sdmmc.c ****   */
 488:Drivers/STM32F7xx_HAL_Driver/Src/stm32f7xx_ll_sdmmc.c **** 
 489:Drivers/STM32F7xx_HAL_Driver/Src/stm32f7xx_ll_sdmmc.c **** 
 490:Drivers/STM32F7xx_HAL_Driver/Src/stm32f7xx_ll_sdmmc.c **** /** @defgroup HAL_SDMMC_LL_Group4 Command management functions 
 491:Drivers/STM32F7xx_HAL_Driver/Src/stm32f7xx_ll_sdmmc.c ****  *  @brief   Data transfers functions 
 492:Drivers/STM32F7xx_HAL_Driver/Src/stm32f7xx_ll_sdmmc.c ****  *
 493:Drivers/STM32F7xx_HAL_Driver/Src/stm32f7xx_ll_sdmmc.c **** @verbatim   
 494:Drivers/STM32F7xx_HAL_Driver/Src/stm32f7xx_ll_sdmmc.c ****  ===============================================================================
 495:Drivers/STM32F7xx_HAL_Driver/Src/stm32f7xx_ll_sdmmc.c ****                    ##### Commands management functions #####
 496:Drivers/STM32F7xx_HAL_Driver/Src/stm32f7xx_ll_sdmmc.c ****  ===============================================================================  
 497:Drivers/STM32F7xx_HAL_Driver/Src/stm32f7xx_ll_sdmmc.c ****     [..]
 498:Drivers/STM32F7xx_HAL_Driver/Src/stm32f7xx_ll_sdmmc.c ****     This subsection provides a set of functions allowing to manage the needed commands.
 499:Drivers/STM32F7xx_HAL_Driver/Src/stm32f7xx_ll_sdmmc.c **** 
 500:Drivers/STM32F7xx_HAL_Driver/Src/stm32f7xx_ll_sdmmc.c **** @endverbatim
 501:Drivers/STM32F7xx_HAL_Driver/Src/stm32f7xx_ll_sdmmc.c ****   * @{
 502:Drivers/STM32F7xx_HAL_Driver/Src/stm32f7xx_ll_sdmmc.c ****   */
 503:Drivers/STM32F7xx_HAL_Driver/Src/stm32f7xx_ll_sdmmc.c **** 
 504:Drivers/STM32F7xx_HAL_Driver/Src/stm32f7xx_ll_sdmmc.c **** /**
 505:Drivers/STM32F7xx_HAL_Driver/Src/stm32f7xx_ll_sdmmc.c ****   * @brief  Send the Data Block Length command and check the response
 506:Drivers/STM32F7xx_HAL_Driver/Src/stm32f7xx_ll_sdmmc.c ****   * @param  SDMMCx: Pointer to SDMMC register base 
 507:Drivers/STM32F7xx_HAL_Driver/Src/stm32f7xx_ll_sdmmc.c ****   * @retval HAL status
 508:Drivers/STM32F7xx_HAL_Driver/Src/stm32f7xx_ll_sdmmc.c ****   */
 509:Drivers/STM32F7xx_HAL_Driver/Src/stm32f7xx_ll_sdmmc.c **** uint32_t SDMMC_CmdBlockLength(SDMMC_TypeDef *SDMMCx, uint32_t BlockSize)
 510:Drivers/STM32F7xx_HAL_Driver/Src/stm32f7xx_ll_sdmmc.c **** {
 787              		.loc 1 510 1
 788              		.cfi_startproc
 789              		@ args = 0, pretend = 0, frame = 32
 790              		@ frame_needed = 1, uses_anonymous_args = 0
 791 0000 80B5     		push	{r7, lr}
 792              	.LCFI80:
 793              		.cfi_def_cfa_offset 8
 794              		.cfi_offset 7, -8
 795              		.cfi_offset 14, -4
 796 0002 88B0     		sub	sp, sp, #32
 797              	.LCFI81:
 798              		.cfi_def_cfa_offset 40
 799 0004 00AF     		add	r7, sp, #0
 800              	.LCFI82:
 801              		.cfi_def_cfa_register 7
 802 0006 7860     		str	r0, [r7, #4]
 803 0008 3960     		str	r1, [r7]
 511:Drivers/STM32F7xx_HAL_Driver/Src/stm32f7xx_ll_sdmmc.c ****   SDMMC_CmdInitTypeDef  sdmmc_cmdinit;
 512:Drivers/STM32F7xx_HAL_Driver/Src/stm32f7xx_ll_sdmmc.c ****   uint32_t errorstate;
 513:Drivers/STM32F7xx_HAL_Driver/Src/stm32f7xx_ll_sdmmc.c ****   
 514:Drivers/STM32F7xx_HAL_Driver/Src/stm32f7xx_ll_sdmmc.c ****   /* Set Block Size for Card */ 
 515:Drivers/STM32F7xx_HAL_Driver/Src/stm32f7xx_ll_sdmmc.c ****   sdmmc_cmdinit.Argument         = (uint32_t)BlockSize;
 804              		.loc 1 515 34
 805 000a 3B68     		ldr	r3, [r7]
 806 000c BB60     		str	r3, [r7, #8]
 516:Drivers/STM32F7xx_HAL_Driver/Src/stm32f7xx_ll_sdmmc.c ****   sdmmc_cmdinit.CmdIndex         = SDMMC_CMD_SET_BLOCKLEN;
 807              		.loc 1 516 34
 808 000e 1023     		movs	r3, #16
ARM GAS  C:\Users\jisu8\AppData\Local\Temp\ccG1p0Yx.s 			page 24


 809 0010 FB60     		str	r3, [r7, #12]
 517:Drivers/STM32F7xx_HAL_Driver/Src/stm32f7xx_ll_sdmmc.c ****   sdmmc_cmdinit.Response         = SDMMC_RESPONSE_SHORT;
 810              		.loc 1 517 34
 811 0012 4023     		movs	r3, #64
 812 0014 3B61     		str	r3, [r7, #16]
 518:Drivers/STM32F7xx_HAL_Driver/Src/stm32f7xx_ll_sdmmc.c ****   sdmmc_cmdinit.WaitForInterrupt = SDMMC_WAIT_NO;
 813              		.loc 1 518 34
 814 0016 0023     		movs	r3, #0
 815 0018 7B61     		str	r3, [r7, #20]
 519:Drivers/STM32F7xx_HAL_Driver/Src/stm32f7xx_ll_sdmmc.c ****   sdmmc_cmdinit.CPSM             = SDMMC_CPSM_ENABLE;
 816              		.loc 1 519 34
 817 001a 4FF48063 		mov	r3, #1024
 818 001e BB61     		str	r3, [r7, #24]
 520:Drivers/STM32F7xx_HAL_Driver/Src/stm32f7xx_ll_sdmmc.c ****   (void)SDMMC_SendCommand(SDMMCx, &sdmmc_cmdinit);
 819              		.loc 1 520 9
 820 0020 07F10803 		add	r3, r7, #8
 821 0024 1946     		mov	r1, r3
 822 0026 7868     		ldr	r0, [r7, #4]
 823 0028 FFF7FEFF 		bl	SDMMC_SendCommand
 521:Drivers/STM32F7xx_HAL_Driver/Src/stm32f7xx_ll_sdmmc.c ****   
 522:Drivers/STM32F7xx_HAL_Driver/Src/stm32f7xx_ll_sdmmc.c ****   /* Check for error conditions */
 523:Drivers/STM32F7xx_HAL_Driver/Src/stm32f7xx_ll_sdmmc.c ****   errorstate = SDMMC_GetCmdResp1(SDMMCx, SDMMC_CMD_SET_BLOCKLEN, SDMMC_CMDTIMEOUT);
 824              		.loc 1 523 16
 825 002c 41F28832 		movw	r2, #5000
 826 0030 1021     		movs	r1, #16
 827 0032 7868     		ldr	r0, [r7, #4]
 828 0034 FFF7FEFF 		bl	SDMMC_GetCmdResp1
 829 0038 F861     		str	r0, [r7, #28]
 524:Drivers/STM32F7xx_HAL_Driver/Src/stm32f7xx_ll_sdmmc.c **** 
 525:Drivers/STM32F7xx_HAL_Driver/Src/stm32f7xx_ll_sdmmc.c ****   return errorstate;
 830              		.loc 1 525 10
 831 003a FB69     		ldr	r3, [r7, #28]
 526:Drivers/STM32F7xx_HAL_Driver/Src/stm32f7xx_ll_sdmmc.c **** }
 832              		.loc 1 526 1
 833 003c 1846     		mov	r0, r3
 834 003e 2037     		adds	r7, r7, #32
 835              	.LCFI83:
 836              		.cfi_def_cfa_offset 8
 837 0040 BD46     		mov	sp, r7
 838              	.LCFI84:
 839              		.cfi_def_cfa_register 13
 840              		@ sp needed
 841 0042 80BD     		pop	{r7, pc}
 842              		.cfi_endproc
 843              	.LFE154:
 845              		.section	.text.SDMMC_CmdReadSingleBlock,"ax",%progbits
 846              		.align	1
 847              		.global	SDMMC_CmdReadSingleBlock
 848              		.syntax unified
 849              		.thumb
 850              		.thumb_func
 852              	SDMMC_CmdReadSingleBlock:
 853              	.LFB155:
 527:Drivers/STM32F7xx_HAL_Driver/Src/stm32f7xx_ll_sdmmc.c **** 
 528:Drivers/STM32F7xx_HAL_Driver/Src/stm32f7xx_ll_sdmmc.c **** /**
 529:Drivers/STM32F7xx_HAL_Driver/Src/stm32f7xx_ll_sdmmc.c ****   * @brief  Send the Read Single Block command and check the response
 530:Drivers/STM32F7xx_HAL_Driver/Src/stm32f7xx_ll_sdmmc.c ****   * @param  SDMMCx: Pointer to SDMMC register base 
ARM GAS  C:\Users\jisu8\AppData\Local\Temp\ccG1p0Yx.s 			page 25


 531:Drivers/STM32F7xx_HAL_Driver/Src/stm32f7xx_ll_sdmmc.c ****   * @retval HAL status
 532:Drivers/STM32F7xx_HAL_Driver/Src/stm32f7xx_ll_sdmmc.c ****   */
 533:Drivers/STM32F7xx_HAL_Driver/Src/stm32f7xx_ll_sdmmc.c **** uint32_t SDMMC_CmdReadSingleBlock(SDMMC_TypeDef *SDMMCx, uint32_t ReadAdd)
 534:Drivers/STM32F7xx_HAL_Driver/Src/stm32f7xx_ll_sdmmc.c **** {
 854              		.loc 1 534 1
 855              		.cfi_startproc
 856              		@ args = 0, pretend = 0, frame = 32
 857              		@ frame_needed = 1, uses_anonymous_args = 0
 858 0000 80B5     		push	{r7, lr}
 859              	.LCFI85:
 860              		.cfi_def_cfa_offset 8
 861              		.cfi_offset 7, -8
 862              		.cfi_offset 14, -4
 863 0002 88B0     		sub	sp, sp, #32
 864              	.LCFI86:
 865              		.cfi_def_cfa_offset 40
 866 0004 00AF     		add	r7, sp, #0
 867              	.LCFI87:
 868              		.cfi_def_cfa_register 7
 869 0006 7860     		str	r0, [r7, #4]
 870 0008 3960     		str	r1, [r7]
 535:Drivers/STM32F7xx_HAL_Driver/Src/stm32f7xx_ll_sdmmc.c ****   SDMMC_CmdInitTypeDef  sdmmc_cmdinit;
 536:Drivers/STM32F7xx_HAL_Driver/Src/stm32f7xx_ll_sdmmc.c ****   uint32_t errorstate;
 537:Drivers/STM32F7xx_HAL_Driver/Src/stm32f7xx_ll_sdmmc.c ****   
 538:Drivers/STM32F7xx_HAL_Driver/Src/stm32f7xx_ll_sdmmc.c ****   /* Set Block Size for Card */ 
 539:Drivers/STM32F7xx_HAL_Driver/Src/stm32f7xx_ll_sdmmc.c ****   sdmmc_cmdinit.Argument         = (uint32_t)ReadAdd;
 871              		.loc 1 539 34
 872 000a 3B68     		ldr	r3, [r7]
 873 000c BB60     		str	r3, [r7, #8]
 540:Drivers/STM32F7xx_HAL_Driver/Src/stm32f7xx_ll_sdmmc.c ****   sdmmc_cmdinit.CmdIndex         = SDMMC_CMD_READ_SINGLE_BLOCK;
 874              		.loc 1 540 34
 875 000e 1123     		movs	r3, #17
 876 0010 FB60     		str	r3, [r7, #12]
 541:Drivers/STM32F7xx_HAL_Driver/Src/stm32f7xx_ll_sdmmc.c ****   sdmmc_cmdinit.Response         = SDMMC_RESPONSE_SHORT;
 877              		.loc 1 541 34
 878 0012 4023     		movs	r3, #64
 879 0014 3B61     		str	r3, [r7, #16]
 542:Drivers/STM32F7xx_HAL_Driver/Src/stm32f7xx_ll_sdmmc.c ****   sdmmc_cmdinit.WaitForInterrupt = SDMMC_WAIT_NO;
 880              		.loc 1 542 34
 881 0016 0023     		movs	r3, #0
 882 0018 7B61     		str	r3, [r7, #20]
 543:Drivers/STM32F7xx_HAL_Driver/Src/stm32f7xx_ll_sdmmc.c ****   sdmmc_cmdinit.CPSM             = SDMMC_CPSM_ENABLE;
 883              		.loc 1 543 34
 884 001a 4FF48063 		mov	r3, #1024
 885 001e BB61     		str	r3, [r7, #24]
 544:Drivers/STM32F7xx_HAL_Driver/Src/stm32f7xx_ll_sdmmc.c ****   (void)SDMMC_SendCommand(SDMMCx, &sdmmc_cmdinit);
 886              		.loc 1 544 9
 887 0020 07F10803 		add	r3, r7, #8
 888 0024 1946     		mov	r1, r3
 889 0026 7868     		ldr	r0, [r7, #4]
 890 0028 FFF7FEFF 		bl	SDMMC_SendCommand
 545:Drivers/STM32F7xx_HAL_Driver/Src/stm32f7xx_ll_sdmmc.c ****   
 546:Drivers/STM32F7xx_HAL_Driver/Src/stm32f7xx_ll_sdmmc.c ****   /* Check for error conditions */
 547:Drivers/STM32F7xx_HAL_Driver/Src/stm32f7xx_ll_sdmmc.c ****   errorstate = SDMMC_GetCmdResp1(SDMMCx, SDMMC_CMD_READ_SINGLE_BLOCK, SDMMC_CMDTIMEOUT);
 891              		.loc 1 547 16
 892 002c 41F28832 		movw	r2, #5000
 893 0030 1121     		movs	r1, #17
ARM GAS  C:\Users\jisu8\AppData\Local\Temp\ccG1p0Yx.s 			page 26


 894 0032 7868     		ldr	r0, [r7, #4]
 895 0034 FFF7FEFF 		bl	SDMMC_GetCmdResp1
 896 0038 F861     		str	r0, [r7, #28]
 548:Drivers/STM32F7xx_HAL_Driver/Src/stm32f7xx_ll_sdmmc.c **** 
 549:Drivers/STM32F7xx_HAL_Driver/Src/stm32f7xx_ll_sdmmc.c ****   return errorstate;
 897              		.loc 1 549 10
 898 003a FB69     		ldr	r3, [r7, #28]
 550:Drivers/STM32F7xx_HAL_Driver/Src/stm32f7xx_ll_sdmmc.c **** }
 899              		.loc 1 550 1
 900 003c 1846     		mov	r0, r3
 901 003e 2037     		adds	r7, r7, #32
 902              	.LCFI88:
 903              		.cfi_def_cfa_offset 8
 904 0040 BD46     		mov	sp, r7
 905              	.LCFI89:
 906              		.cfi_def_cfa_register 13
 907              		@ sp needed
 908 0042 80BD     		pop	{r7, pc}
 909              		.cfi_endproc
 910              	.LFE155:
 912              		.section	.text.SDMMC_CmdReadMultiBlock,"ax",%progbits
 913              		.align	1
 914              		.global	SDMMC_CmdReadMultiBlock
 915              		.syntax unified
 916              		.thumb
 917              		.thumb_func
 919              	SDMMC_CmdReadMultiBlock:
 920              	.LFB156:
 551:Drivers/STM32F7xx_HAL_Driver/Src/stm32f7xx_ll_sdmmc.c **** 
 552:Drivers/STM32F7xx_HAL_Driver/Src/stm32f7xx_ll_sdmmc.c **** /**
 553:Drivers/STM32F7xx_HAL_Driver/Src/stm32f7xx_ll_sdmmc.c ****   * @brief  Send the Read Multi Block command and check the response
 554:Drivers/STM32F7xx_HAL_Driver/Src/stm32f7xx_ll_sdmmc.c ****   * @param  SDMMCx: Pointer to SDMMC register base 
 555:Drivers/STM32F7xx_HAL_Driver/Src/stm32f7xx_ll_sdmmc.c ****   * @retval HAL status
 556:Drivers/STM32F7xx_HAL_Driver/Src/stm32f7xx_ll_sdmmc.c ****   */
 557:Drivers/STM32F7xx_HAL_Driver/Src/stm32f7xx_ll_sdmmc.c **** uint32_t SDMMC_CmdReadMultiBlock(SDMMC_TypeDef *SDMMCx, uint32_t ReadAdd)
 558:Drivers/STM32F7xx_HAL_Driver/Src/stm32f7xx_ll_sdmmc.c **** {
 921              		.loc 1 558 1
 922              		.cfi_startproc
 923              		@ args = 0, pretend = 0, frame = 32
 924              		@ frame_needed = 1, uses_anonymous_args = 0
 925 0000 80B5     		push	{r7, lr}
 926              	.LCFI90:
 927              		.cfi_def_cfa_offset 8
 928              		.cfi_offset 7, -8
 929              		.cfi_offset 14, -4
 930 0002 88B0     		sub	sp, sp, #32
 931              	.LCFI91:
 932              		.cfi_def_cfa_offset 40
 933 0004 00AF     		add	r7, sp, #0
 934              	.LCFI92:
 935              		.cfi_def_cfa_register 7
 936 0006 7860     		str	r0, [r7, #4]
 937 0008 3960     		str	r1, [r7]
 559:Drivers/STM32F7xx_HAL_Driver/Src/stm32f7xx_ll_sdmmc.c ****   SDMMC_CmdInitTypeDef  sdmmc_cmdinit;
 560:Drivers/STM32F7xx_HAL_Driver/Src/stm32f7xx_ll_sdmmc.c ****   uint32_t errorstate;
 561:Drivers/STM32F7xx_HAL_Driver/Src/stm32f7xx_ll_sdmmc.c ****   
 562:Drivers/STM32F7xx_HAL_Driver/Src/stm32f7xx_ll_sdmmc.c ****   /* Set Block Size for Card */ 
ARM GAS  C:\Users\jisu8\AppData\Local\Temp\ccG1p0Yx.s 			page 27


 563:Drivers/STM32F7xx_HAL_Driver/Src/stm32f7xx_ll_sdmmc.c ****   sdmmc_cmdinit.Argument         = (uint32_t)ReadAdd;
 938              		.loc 1 563 34
 939 000a 3B68     		ldr	r3, [r7]
 940 000c BB60     		str	r3, [r7, #8]
 564:Drivers/STM32F7xx_HAL_Driver/Src/stm32f7xx_ll_sdmmc.c ****   sdmmc_cmdinit.CmdIndex         = SDMMC_CMD_READ_MULT_BLOCK;
 941              		.loc 1 564 34
 942 000e 1223     		movs	r3, #18
 943 0010 FB60     		str	r3, [r7, #12]
 565:Drivers/STM32F7xx_HAL_Driver/Src/stm32f7xx_ll_sdmmc.c ****   sdmmc_cmdinit.Response         = SDMMC_RESPONSE_SHORT;
 944              		.loc 1 565 34
 945 0012 4023     		movs	r3, #64
 946 0014 3B61     		str	r3, [r7, #16]
 566:Drivers/STM32F7xx_HAL_Driver/Src/stm32f7xx_ll_sdmmc.c ****   sdmmc_cmdinit.WaitForInterrupt = SDMMC_WAIT_NO;
 947              		.loc 1 566 34
 948 0016 0023     		movs	r3, #0
 949 0018 7B61     		str	r3, [r7, #20]
 567:Drivers/STM32F7xx_HAL_Driver/Src/stm32f7xx_ll_sdmmc.c ****   sdmmc_cmdinit.CPSM             = SDMMC_CPSM_ENABLE;
 950              		.loc 1 567 34
 951 001a 4FF48063 		mov	r3, #1024
 952 001e BB61     		str	r3, [r7, #24]
 568:Drivers/STM32F7xx_HAL_Driver/Src/stm32f7xx_ll_sdmmc.c ****   (void)SDMMC_SendCommand(SDMMCx, &sdmmc_cmdinit);
 953              		.loc 1 568 9
 954 0020 07F10803 		add	r3, r7, #8
 955 0024 1946     		mov	r1, r3
 956 0026 7868     		ldr	r0, [r7, #4]
 957 0028 FFF7FEFF 		bl	SDMMC_SendCommand
 569:Drivers/STM32F7xx_HAL_Driver/Src/stm32f7xx_ll_sdmmc.c ****   
 570:Drivers/STM32F7xx_HAL_Driver/Src/stm32f7xx_ll_sdmmc.c ****   /* Check for error conditions */
 571:Drivers/STM32F7xx_HAL_Driver/Src/stm32f7xx_ll_sdmmc.c ****   errorstate = SDMMC_GetCmdResp1(SDMMCx, SDMMC_CMD_READ_MULT_BLOCK, SDMMC_CMDTIMEOUT);
 958              		.loc 1 571 16
 959 002c 41F28832 		movw	r2, #5000
 960 0030 1221     		movs	r1, #18
 961 0032 7868     		ldr	r0, [r7, #4]
 962 0034 FFF7FEFF 		bl	SDMMC_GetCmdResp1
 963 0038 F861     		str	r0, [r7, #28]
 572:Drivers/STM32F7xx_HAL_Driver/Src/stm32f7xx_ll_sdmmc.c **** 
 573:Drivers/STM32F7xx_HAL_Driver/Src/stm32f7xx_ll_sdmmc.c ****   return errorstate;
 964              		.loc 1 573 10
 965 003a FB69     		ldr	r3, [r7, #28]
 574:Drivers/STM32F7xx_HAL_Driver/Src/stm32f7xx_ll_sdmmc.c **** }
 966              		.loc 1 574 1
 967 003c 1846     		mov	r0, r3
 968 003e 2037     		adds	r7, r7, #32
 969              	.LCFI93:
 970              		.cfi_def_cfa_offset 8
 971 0040 BD46     		mov	sp, r7
 972              	.LCFI94:
 973              		.cfi_def_cfa_register 13
 974              		@ sp needed
 975 0042 80BD     		pop	{r7, pc}
 976              		.cfi_endproc
 977              	.LFE156:
 979              		.section	.text.SDMMC_CmdWriteSingleBlock,"ax",%progbits
 980              		.align	1
 981              		.global	SDMMC_CmdWriteSingleBlock
 982              		.syntax unified
 983              		.thumb
ARM GAS  C:\Users\jisu8\AppData\Local\Temp\ccG1p0Yx.s 			page 28


 984              		.thumb_func
 986              	SDMMC_CmdWriteSingleBlock:
 987              	.LFB157:
 575:Drivers/STM32F7xx_HAL_Driver/Src/stm32f7xx_ll_sdmmc.c **** 
 576:Drivers/STM32F7xx_HAL_Driver/Src/stm32f7xx_ll_sdmmc.c **** /**
 577:Drivers/STM32F7xx_HAL_Driver/Src/stm32f7xx_ll_sdmmc.c ****   * @brief  Send the Write Single Block command and check the response
 578:Drivers/STM32F7xx_HAL_Driver/Src/stm32f7xx_ll_sdmmc.c ****   * @param  SDMMCx: Pointer to SDMMC register base 
 579:Drivers/STM32F7xx_HAL_Driver/Src/stm32f7xx_ll_sdmmc.c ****   * @retval HAL status
 580:Drivers/STM32F7xx_HAL_Driver/Src/stm32f7xx_ll_sdmmc.c ****   */
 581:Drivers/STM32F7xx_HAL_Driver/Src/stm32f7xx_ll_sdmmc.c **** uint32_t SDMMC_CmdWriteSingleBlock(SDMMC_TypeDef *SDMMCx, uint32_t WriteAdd)
 582:Drivers/STM32F7xx_HAL_Driver/Src/stm32f7xx_ll_sdmmc.c **** {
 988              		.loc 1 582 1
 989              		.cfi_startproc
 990              		@ args = 0, pretend = 0, frame = 32
 991              		@ frame_needed = 1, uses_anonymous_args = 0
 992 0000 80B5     		push	{r7, lr}
 993              	.LCFI95:
 994              		.cfi_def_cfa_offset 8
 995              		.cfi_offset 7, -8
 996              		.cfi_offset 14, -4
 997 0002 88B0     		sub	sp, sp, #32
 998              	.LCFI96:
 999              		.cfi_def_cfa_offset 40
 1000 0004 00AF     		add	r7, sp, #0
 1001              	.LCFI97:
 1002              		.cfi_def_cfa_register 7
 1003 0006 7860     		str	r0, [r7, #4]
 1004 0008 3960     		str	r1, [r7]
 583:Drivers/STM32F7xx_HAL_Driver/Src/stm32f7xx_ll_sdmmc.c ****   SDMMC_CmdInitTypeDef  sdmmc_cmdinit;
 584:Drivers/STM32F7xx_HAL_Driver/Src/stm32f7xx_ll_sdmmc.c ****   uint32_t errorstate;
 585:Drivers/STM32F7xx_HAL_Driver/Src/stm32f7xx_ll_sdmmc.c ****   
 586:Drivers/STM32F7xx_HAL_Driver/Src/stm32f7xx_ll_sdmmc.c ****   /* Set Block Size for Card */ 
 587:Drivers/STM32F7xx_HAL_Driver/Src/stm32f7xx_ll_sdmmc.c ****   sdmmc_cmdinit.Argument         = (uint32_t)WriteAdd;
 1005              		.loc 1 587 34
 1006 000a 3B68     		ldr	r3, [r7]
 1007 000c BB60     		str	r3, [r7, #8]
 588:Drivers/STM32F7xx_HAL_Driver/Src/stm32f7xx_ll_sdmmc.c ****   sdmmc_cmdinit.CmdIndex         = SDMMC_CMD_WRITE_SINGLE_BLOCK;
 1008              		.loc 1 588 34
 1009 000e 1823     		movs	r3, #24
 1010 0010 FB60     		str	r3, [r7, #12]
 589:Drivers/STM32F7xx_HAL_Driver/Src/stm32f7xx_ll_sdmmc.c ****   sdmmc_cmdinit.Response         = SDMMC_RESPONSE_SHORT;
 1011              		.loc 1 589 34
 1012 0012 4023     		movs	r3, #64
 1013 0014 3B61     		str	r3, [r7, #16]
 590:Drivers/STM32F7xx_HAL_Driver/Src/stm32f7xx_ll_sdmmc.c ****   sdmmc_cmdinit.WaitForInterrupt = SDMMC_WAIT_NO;
 1014              		.loc 1 590 34
 1015 0016 0023     		movs	r3, #0
 1016 0018 7B61     		str	r3, [r7, #20]
 591:Drivers/STM32F7xx_HAL_Driver/Src/stm32f7xx_ll_sdmmc.c ****   sdmmc_cmdinit.CPSM             = SDMMC_CPSM_ENABLE;
 1017              		.loc 1 591 34
 1018 001a 4FF48063 		mov	r3, #1024
 1019 001e BB61     		str	r3, [r7, #24]
 592:Drivers/STM32F7xx_HAL_Driver/Src/stm32f7xx_ll_sdmmc.c ****   (void)SDMMC_SendCommand(SDMMCx, &sdmmc_cmdinit);
 1020              		.loc 1 592 9
 1021 0020 07F10803 		add	r3, r7, #8
 1022 0024 1946     		mov	r1, r3
 1023 0026 7868     		ldr	r0, [r7, #4]
ARM GAS  C:\Users\jisu8\AppData\Local\Temp\ccG1p0Yx.s 			page 29


 1024 0028 FFF7FEFF 		bl	SDMMC_SendCommand
 593:Drivers/STM32F7xx_HAL_Driver/Src/stm32f7xx_ll_sdmmc.c ****   
 594:Drivers/STM32F7xx_HAL_Driver/Src/stm32f7xx_ll_sdmmc.c ****   /* Check for error conditions */
 595:Drivers/STM32F7xx_HAL_Driver/Src/stm32f7xx_ll_sdmmc.c ****   errorstate = SDMMC_GetCmdResp1(SDMMCx, SDMMC_CMD_WRITE_SINGLE_BLOCK, SDMMC_CMDTIMEOUT);
 1025              		.loc 1 595 16
 1026 002c 41F28832 		movw	r2, #5000
 1027 0030 1821     		movs	r1, #24
 1028 0032 7868     		ldr	r0, [r7, #4]
 1029 0034 FFF7FEFF 		bl	SDMMC_GetCmdResp1
 1030 0038 F861     		str	r0, [r7, #28]
 596:Drivers/STM32F7xx_HAL_Driver/Src/stm32f7xx_ll_sdmmc.c **** 
 597:Drivers/STM32F7xx_HAL_Driver/Src/stm32f7xx_ll_sdmmc.c ****   return errorstate;
 1031              		.loc 1 597 10
 1032 003a FB69     		ldr	r3, [r7, #28]
 598:Drivers/STM32F7xx_HAL_Driver/Src/stm32f7xx_ll_sdmmc.c **** }
 1033              		.loc 1 598 1
 1034 003c 1846     		mov	r0, r3
 1035 003e 2037     		adds	r7, r7, #32
 1036              	.LCFI98:
 1037              		.cfi_def_cfa_offset 8
 1038 0040 BD46     		mov	sp, r7
 1039              	.LCFI99:
 1040              		.cfi_def_cfa_register 13
 1041              		@ sp needed
 1042 0042 80BD     		pop	{r7, pc}
 1043              		.cfi_endproc
 1044              	.LFE157:
 1046              		.section	.text.SDMMC_CmdWriteMultiBlock,"ax",%progbits
 1047              		.align	1
 1048              		.global	SDMMC_CmdWriteMultiBlock
 1049              		.syntax unified
 1050              		.thumb
 1051              		.thumb_func
 1053              	SDMMC_CmdWriteMultiBlock:
 1054              	.LFB158:
 599:Drivers/STM32F7xx_HAL_Driver/Src/stm32f7xx_ll_sdmmc.c **** 
 600:Drivers/STM32F7xx_HAL_Driver/Src/stm32f7xx_ll_sdmmc.c **** /**
 601:Drivers/STM32F7xx_HAL_Driver/Src/stm32f7xx_ll_sdmmc.c ****   * @brief  Send the Write Multi Block command and check the response
 602:Drivers/STM32F7xx_HAL_Driver/Src/stm32f7xx_ll_sdmmc.c ****   * @param  SDMMCx: Pointer to SDMMC register base 
 603:Drivers/STM32F7xx_HAL_Driver/Src/stm32f7xx_ll_sdmmc.c ****   * @retval HAL status
 604:Drivers/STM32F7xx_HAL_Driver/Src/stm32f7xx_ll_sdmmc.c ****   */
 605:Drivers/STM32F7xx_HAL_Driver/Src/stm32f7xx_ll_sdmmc.c **** uint32_t SDMMC_CmdWriteMultiBlock(SDMMC_TypeDef *SDMMCx, uint32_t WriteAdd)
 606:Drivers/STM32F7xx_HAL_Driver/Src/stm32f7xx_ll_sdmmc.c **** {
 1055              		.loc 1 606 1
 1056              		.cfi_startproc
 1057              		@ args = 0, pretend = 0, frame = 32
 1058              		@ frame_needed = 1, uses_anonymous_args = 0
 1059 0000 80B5     		push	{r7, lr}
 1060              	.LCFI100:
 1061              		.cfi_def_cfa_offset 8
 1062              		.cfi_offset 7, -8
 1063              		.cfi_offset 14, -4
 1064 0002 88B0     		sub	sp, sp, #32
 1065              	.LCFI101:
 1066              		.cfi_def_cfa_offset 40
 1067 0004 00AF     		add	r7, sp, #0
 1068              	.LCFI102:
ARM GAS  C:\Users\jisu8\AppData\Local\Temp\ccG1p0Yx.s 			page 30


 1069              		.cfi_def_cfa_register 7
 1070 0006 7860     		str	r0, [r7, #4]
 1071 0008 3960     		str	r1, [r7]
 607:Drivers/STM32F7xx_HAL_Driver/Src/stm32f7xx_ll_sdmmc.c ****   SDMMC_CmdInitTypeDef  sdmmc_cmdinit;
 608:Drivers/STM32F7xx_HAL_Driver/Src/stm32f7xx_ll_sdmmc.c ****   uint32_t errorstate;
 609:Drivers/STM32F7xx_HAL_Driver/Src/stm32f7xx_ll_sdmmc.c ****   
 610:Drivers/STM32F7xx_HAL_Driver/Src/stm32f7xx_ll_sdmmc.c ****   /* Set Block Size for Card */ 
 611:Drivers/STM32F7xx_HAL_Driver/Src/stm32f7xx_ll_sdmmc.c ****   sdmmc_cmdinit.Argument         = (uint32_t)WriteAdd;
 1072              		.loc 1 611 34
 1073 000a 3B68     		ldr	r3, [r7]
 1074 000c BB60     		str	r3, [r7, #8]
 612:Drivers/STM32F7xx_HAL_Driver/Src/stm32f7xx_ll_sdmmc.c ****   sdmmc_cmdinit.CmdIndex         = SDMMC_CMD_WRITE_MULT_BLOCK;
 1075              		.loc 1 612 34
 1076 000e 1923     		movs	r3, #25
 1077 0010 FB60     		str	r3, [r7, #12]
 613:Drivers/STM32F7xx_HAL_Driver/Src/stm32f7xx_ll_sdmmc.c ****   sdmmc_cmdinit.Response         = SDMMC_RESPONSE_SHORT;
 1078              		.loc 1 613 34
 1079 0012 4023     		movs	r3, #64
 1080 0014 3B61     		str	r3, [r7, #16]
 614:Drivers/STM32F7xx_HAL_Driver/Src/stm32f7xx_ll_sdmmc.c ****   sdmmc_cmdinit.WaitForInterrupt = SDMMC_WAIT_NO;
 1081              		.loc 1 614 34
 1082 0016 0023     		movs	r3, #0
 1083 0018 7B61     		str	r3, [r7, #20]
 615:Drivers/STM32F7xx_HAL_Driver/Src/stm32f7xx_ll_sdmmc.c ****   sdmmc_cmdinit.CPSM             = SDMMC_CPSM_ENABLE;
 1084              		.loc 1 615 34
 1085 001a 4FF48063 		mov	r3, #1024
 1086 001e BB61     		str	r3, [r7, #24]
 616:Drivers/STM32F7xx_HAL_Driver/Src/stm32f7xx_ll_sdmmc.c ****   (void)SDMMC_SendCommand(SDMMCx, &sdmmc_cmdinit);
 1087              		.loc 1 616 9
 1088 0020 07F10803 		add	r3, r7, #8
 1089 0024 1946     		mov	r1, r3
 1090 0026 7868     		ldr	r0, [r7, #4]
 1091 0028 FFF7FEFF 		bl	SDMMC_SendCommand
 617:Drivers/STM32F7xx_HAL_Driver/Src/stm32f7xx_ll_sdmmc.c ****   
 618:Drivers/STM32F7xx_HAL_Driver/Src/stm32f7xx_ll_sdmmc.c ****   /* Check for error conditions */
 619:Drivers/STM32F7xx_HAL_Driver/Src/stm32f7xx_ll_sdmmc.c ****   errorstate = SDMMC_GetCmdResp1(SDMMCx, SDMMC_CMD_WRITE_MULT_BLOCK, SDMMC_CMDTIMEOUT);
 1092              		.loc 1 619 16
 1093 002c 41F28832 		movw	r2, #5000
 1094 0030 1921     		movs	r1, #25
 1095 0032 7868     		ldr	r0, [r7, #4]
 1096 0034 FFF7FEFF 		bl	SDMMC_GetCmdResp1
 1097 0038 F861     		str	r0, [r7, #28]
 620:Drivers/STM32F7xx_HAL_Driver/Src/stm32f7xx_ll_sdmmc.c **** 
 621:Drivers/STM32F7xx_HAL_Driver/Src/stm32f7xx_ll_sdmmc.c ****   return errorstate;
 1098              		.loc 1 621 10
 1099 003a FB69     		ldr	r3, [r7, #28]
 622:Drivers/STM32F7xx_HAL_Driver/Src/stm32f7xx_ll_sdmmc.c **** }
 1100              		.loc 1 622 1
 1101 003c 1846     		mov	r0, r3
 1102 003e 2037     		adds	r7, r7, #32
 1103              	.LCFI103:
 1104              		.cfi_def_cfa_offset 8
 1105 0040 BD46     		mov	sp, r7
 1106              	.LCFI104:
 1107              		.cfi_def_cfa_register 13
 1108              		@ sp needed
 1109 0042 80BD     		pop	{r7, pc}
ARM GAS  C:\Users\jisu8\AppData\Local\Temp\ccG1p0Yx.s 			page 31


 1110              		.cfi_endproc
 1111              	.LFE158:
 1113              		.section	.text.SDMMC_CmdSDEraseStartAdd,"ax",%progbits
 1114              		.align	1
 1115              		.global	SDMMC_CmdSDEraseStartAdd
 1116              		.syntax unified
 1117              		.thumb
 1118              		.thumb_func
 1120              	SDMMC_CmdSDEraseStartAdd:
 1121              	.LFB159:
 623:Drivers/STM32F7xx_HAL_Driver/Src/stm32f7xx_ll_sdmmc.c **** 
 624:Drivers/STM32F7xx_HAL_Driver/Src/stm32f7xx_ll_sdmmc.c **** /**
 625:Drivers/STM32F7xx_HAL_Driver/Src/stm32f7xx_ll_sdmmc.c ****   * @brief  Send the Start Address Erase command for SD and check the response
 626:Drivers/STM32F7xx_HAL_Driver/Src/stm32f7xx_ll_sdmmc.c ****   * @param  SDMMCx: Pointer to SDMMC register base 
 627:Drivers/STM32F7xx_HAL_Driver/Src/stm32f7xx_ll_sdmmc.c ****   * @retval HAL status
 628:Drivers/STM32F7xx_HAL_Driver/Src/stm32f7xx_ll_sdmmc.c ****   */
 629:Drivers/STM32F7xx_HAL_Driver/Src/stm32f7xx_ll_sdmmc.c **** uint32_t SDMMC_CmdSDEraseStartAdd(SDMMC_TypeDef *SDMMCx, uint32_t StartAdd)
 630:Drivers/STM32F7xx_HAL_Driver/Src/stm32f7xx_ll_sdmmc.c **** {
 1122              		.loc 1 630 1
 1123              		.cfi_startproc
 1124              		@ args = 0, pretend = 0, frame = 32
 1125              		@ frame_needed = 1, uses_anonymous_args = 0
 1126 0000 80B5     		push	{r7, lr}
 1127              	.LCFI105:
 1128              		.cfi_def_cfa_offset 8
 1129              		.cfi_offset 7, -8
 1130              		.cfi_offset 14, -4
 1131 0002 88B0     		sub	sp, sp, #32
 1132              	.LCFI106:
 1133              		.cfi_def_cfa_offset 40
 1134 0004 00AF     		add	r7, sp, #0
 1135              	.LCFI107:
 1136              		.cfi_def_cfa_register 7
 1137 0006 7860     		str	r0, [r7, #4]
 1138 0008 3960     		str	r1, [r7]
 631:Drivers/STM32F7xx_HAL_Driver/Src/stm32f7xx_ll_sdmmc.c ****   SDMMC_CmdInitTypeDef  sdmmc_cmdinit;
 632:Drivers/STM32F7xx_HAL_Driver/Src/stm32f7xx_ll_sdmmc.c ****   uint32_t errorstate;
 633:Drivers/STM32F7xx_HAL_Driver/Src/stm32f7xx_ll_sdmmc.c ****   
 634:Drivers/STM32F7xx_HAL_Driver/Src/stm32f7xx_ll_sdmmc.c ****   /* Set Block Size for Card */ 
 635:Drivers/STM32F7xx_HAL_Driver/Src/stm32f7xx_ll_sdmmc.c ****   sdmmc_cmdinit.Argument         = (uint32_t)StartAdd;
 1139              		.loc 1 635 34
 1140 000a 3B68     		ldr	r3, [r7]
 1141 000c BB60     		str	r3, [r7, #8]
 636:Drivers/STM32F7xx_HAL_Driver/Src/stm32f7xx_ll_sdmmc.c ****   sdmmc_cmdinit.CmdIndex         = SDMMC_CMD_SD_ERASE_GRP_START;
 1142              		.loc 1 636 34
 1143 000e 2023     		movs	r3, #32
 1144 0010 FB60     		str	r3, [r7, #12]
 637:Drivers/STM32F7xx_HAL_Driver/Src/stm32f7xx_ll_sdmmc.c ****   sdmmc_cmdinit.Response         = SDMMC_RESPONSE_SHORT;
 1145              		.loc 1 637 34
 1146 0012 4023     		movs	r3, #64
 1147 0014 3B61     		str	r3, [r7, #16]
 638:Drivers/STM32F7xx_HAL_Driver/Src/stm32f7xx_ll_sdmmc.c ****   sdmmc_cmdinit.WaitForInterrupt = SDMMC_WAIT_NO;
 1148              		.loc 1 638 34
 1149 0016 0023     		movs	r3, #0
 1150 0018 7B61     		str	r3, [r7, #20]
 639:Drivers/STM32F7xx_HAL_Driver/Src/stm32f7xx_ll_sdmmc.c ****   sdmmc_cmdinit.CPSM             = SDMMC_CPSM_ENABLE;
 1151              		.loc 1 639 34
ARM GAS  C:\Users\jisu8\AppData\Local\Temp\ccG1p0Yx.s 			page 32


 1152 001a 4FF48063 		mov	r3, #1024
 1153 001e BB61     		str	r3, [r7, #24]
 640:Drivers/STM32F7xx_HAL_Driver/Src/stm32f7xx_ll_sdmmc.c ****   (void)SDMMC_SendCommand(SDMMCx, &sdmmc_cmdinit);
 1154              		.loc 1 640 9
 1155 0020 07F10803 		add	r3, r7, #8
 1156 0024 1946     		mov	r1, r3
 1157 0026 7868     		ldr	r0, [r7, #4]
 1158 0028 FFF7FEFF 		bl	SDMMC_SendCommand
 641:Drivers/STM32F7xx_HAL_Driver/Src/stm32f7xx_ll_sdmmc.c ****   
 642:Drivers/STM32F7xx_HAL_Driver/Src/stm32f7xx_ll_sdmmc.c ****   /* Check for error conditions */
 643:Drivers/STM32F7xx_HAL_Driver/Src/stm32f7xx_ll_sdmmc.c ****   errorstate = SDMMC_GetCmdResp1(SDMMCx, SDMMC_CMD_SD_ERASE_GRP_START, SDMMC_CMDTIMEOUT);
 1159              		.loc 1 643 16
 1160 002c 41F28832 		movw	r2, #5000
 1161 0030 2021     		movs	r1, #32
 1162 0032 7868     		ldr	r0, [r7, #4]
 1163 0034 FFF7FEFF 		bl	SDMMC_GetCmdResp1
 1164 0038 F861     		str	r0, [r7, #28]
 644:Drivers/STM32F7xx_HAL_Driver/Src/stm32f7xx_ll_sdmmc.c **** 
 645:Drivers/STM32F7xx_HAL_Driver/Src/stm32f7xx_ll_sdmmc.c ****   return errorstate;
 1165              		.loc 1 645 10
 1166 003a FB69     		ldr	r3, [r7, #28]
 646:Drivers/STM32F7xx_HAL_Driver/Src/stm32f7xx_ll_sdmmc.c **** }
 1167              		.loc 1 646 1
 1168 003c 1846     		mov	r0, r3
 1169 003e 2037     		adds	r7, r7, #32
 1170              	.LCFI108:
 1171              		.cfi_def_cfa_offset 8
 1172 0040 BD46     		mov	sp, r7
 1173              	.LCFI109:
 1174              		.cfi_def_cfa_register 13
 1175              		@ sp needed
 1176 0042 80BD     		pop	{r7, pc}
 1177              		.cfi_endproc
 1178              	.LFE159:
 1180              		.section	.text.SDMMC_CmdSDEraseEndAdd,"ax",%progbits
 1181              		.align	1
 1182              		.global	SDMMC_CmdSDEraseEndAdd
 1183              		.syntax unified
 1184              		.thumb
 1185              		.thumb_func
 1187              	SDMMC_CmdSDEraseEndAdd:
 1188              	.LFB160:
 647:Drivers/STM32F7xx_HAL_Driver/Src/stm32f7xx_ll_sdmmc.c **** 
 648:Drivers/STM32F7xx_HAL_Driver/Src/stm32f7xx_ll_sdmmc.c **** /**
 649:Drivers/STM32F7xx_HAL_Driver/Src/stm32f7xx_ll_sdmmc.c ****   * @brief  Send the End Address Erase command for SD and check the response
 650:Drivers/STM32F7xx_HAL_Driver/Src/stm32f7xx_ll_sdmmc.c ****   * @param  SDMMCx: Pointer to SDMMC register base 
 651:Drivers/STM32F7xx_HAL_Driver/Src/stm32f7xx_ll_sdmmc.c ****   * @retval HAL status
 652:Drivers/STM32F7xx_HAL_Driver/Src/stm32f7xx_ll_sdmmc.c ****   */
 653:Drivers/STM32F7xx_HAL_Driver/Src/stm32f7xx_ll_sdmmc.c **** uint32_t SDMMC_CmdSDEraseEndAdd(SDMMC_TypeDef *SDMMCx, uint32_t EndAdd)
 654:Drivers/STM32F7xx_HAL_Driver/Src/stm32f7xx_ll_sdmmc.c **** {
 1189              		.loc 1 654 1
 1190              		.cfi_startproc
 1191              		@ args = 0, pretend = 0, frame = 32
 1192              		@ frame_needed = 1, uses_anonymous_args = 0
 1193 0000 80B5     		push	{r7, lr}
 1194              	.LCFI110:
 1195              		.cfi_def_cfa_offset 8
ARM GAS  C:\Users\jisu8\AppData\Local\Temp\ccG1p0Yx.s 			page 33


 1196              		.cfi_offset 7, -8
 1197              		.cfi_offset 14, -4
 1198 0002 88B0     		sub	sp, sp, #32
 1199              	.LCFI111:
 1200              		.cfi_def_cfa_offset 40
 1201 0004 00AF     		add	r7, sp, #0
 1202              	.LCFI112:
 1203              		.cfi_def_cfa_register 7
 1204 0006 7860     		str	r0, [r7, #4]
 1205 0008 3960     		str	r1, [r7]
 655:Drivers/STM32F7xx_HAL_Driver/Src/stm32f7xx_ll_sdmmc.c ****   SDMMC_CmdInitTypeDef  sdmmc_cmdinit;
 656:Drivers/STM32F7xx_HAL_Driver/Src/stm32f7xx_ll_sdmmc.c ****   uint32_t errorstate;
 657:Drivers/STM32F7xx_HAL_Driver/Src/stm32f7xx_ll_sdmmc.c ****   
 658:Drivers/STM32F7xx_HAL_Driver/Src/stm32f7xx_ll_sdmmc.c ****   /* Set Block Size for Card */ 
 659:Drivers/STM32F7xx_HAL_Driver/Src/stm32f7xx_ll_sdmmc.c ****   sdmmc_cmdinit.Argument         = (uint32_t)EndAdd;
 1206              		.loc 1 659 34
 1207 000a 3B68     		ldr	r3, [r7]
 1208 000c BB60     		str	r3, [r7, #8]
 660:Drivers/STM32F7xx_HAL_Driver/Src/stm32f7xx_ll_sdmmc.c ****   sdmmc_cmdinit.CmdIndex         = SDMMC_CMD_SD_ERASE_GRP_END;
 1209              		.loc 1 660 34
 1210 000e 2123     		movs	r3, #33
 1211 0010 FB60     		str	r3, [r7, #12]
 661:Drivers/STM32F7xx_HAL_Driver/Src/stm32f7xx_ll_sdmmc.c ****   sdmmc_cmdinit.Response         = SDMMC_RESPONSE_SHORT;
 1212              		.loc 1 661 34
 1213 0012 4023     		movs	r3, #64
 1214 0014 3B61     		str	r3, [r7, #16]
 662:Drivers/STM32F7xx_HAL_Driver/Src/stm32f7xx_ll_sdmmc.c ****   sdmmc_cmdinit.WaitForInterrupt = SDMMC_WAIT_NO;
 1215              		.loc 1 662 34
 1216 0016 0023     		movs	r3, #0
 1217 0018 7B61     		str	r3, [r7, #20]
 663:Drivers/STM32F7xx_HAL_Driver/Src/stm32f7xx_ll_sdmmc.c ****   sdmmc_cmdinit.CPSM             = SDMMC_CPSM_ENABLE;
 1218              		.loc 1 663 34
 1219 001a 4FF48063 		mov	r3, #1024
 1220 001e BB61     		str	r3, [r7, #24]
 664:Drivers/STM32F7xx_HAL_Driver/Src/stm32f7xx_ll_sdmmc.c ****   (void)SDMMC_SendCommand(SDMMCx, &sdmmc_cmdinit);
 1221              		.loc 1 664 9
 1222 0020 07F10803 		add	r3, r7, #8
 1223 0024 1946     		mov	r1, r3
 1224 0026 7868     		ldr	r0, [r7, #4]
 1225 0028 FFF7FEFF 		bl	SDMMC_SendCommand
 665:Drivers/STM32F7xx_HAL_Driver/Src/stm32f7xx_ll_sdmmc.c ****   
 666:Drivers/STM32F7xx_HAL_Driver/Src/stm32f7xx_ll_sdmmc.c ****   /* Check for error conditions */
 667:Drivers/STM32F7xx_HAL_Driver/Src/stm32f7xx_ll_sdmmc.c ****   errorstate = SDMMC_GetCmdResp1(SDMMCx, SDMMC_CMD_SD_ERASE_GRP_END, SDMMC_CMDTIMEOUT);
 1226              		.loc 1 667 16
 1227 002c 41F28832 		movw	r2, #5000
 1228 0030 2121     		movs	r1, #33
 1229 0032 7868     		ldr	r0, [r7, #4]
 1230 0034 FFF7FEFF 		bl	SDMMC_GetCmdResp1
 1231 0038 F861     		str	r0, [r7, #28]
 668:Drivers/STM32F7xx_HAL_Driver/Src/stm32f7xx_ll_sdmmc.c **** 
 669:Drivers/STM32F7xx_HAL_Driver/Src/stm32f7xx_ll_sdmmc.c ****   return errorstate;
 1232              		.loc 1 669 10
 1233 003a FB69     		ldr	r3, [r7, #28]
 670:Drivers/STM32F7xx_HAL_Driver/Src/stm32f7xx_ll_sdmmc.c **** }
 1234              		.loc 1 670 1
 1235 003c 1846     		mov	r0, r3
 1236 003e 2037     		adds	r7, r7, #32
ARM GAS  C:\Users\jisu8\AppData\Local\Temp\ccG1p0Yx.s 			page 34


 1237              	.LCFI113:
 1238              		.cfi_def_cfa_offset 8
 1239 0040 BD46     		mov	sp, r7
 1240              	.LCFI114:
 1241              		.cfi_def_cfa_register 13
 1242              		@ sp needed
 1243 0042 80BD     		pop	{r7, pc}
 1244              		.cfi_endproc
 1245              	.LFE160:
 1247              		.section	.text.SDMMC_CmdEraseStartAdd,"ax",%progbits
 1248              		.align	1
 1249              		.global	SDMMC_CmdEraseStartAdd
 1250              		.syntax unified
 1251              		.thumb
 1252              		.thumb_func
 1254              	SDMMC_CmdEraseStartAdd:
 1255              	.LFB161:
 671:Drivers/STM32F7xx_HAL_Driver/Src/stm32f7xx_ll_sdmmc.c **** 
 672:Drivers/STM32F7xx_HAL_Driver/Src/stm32f7xx_ll_sdmmc.c **** /**
 673:Drivers/STM32F7xx_HAL_Driver/Src/stm32f7xx_ll_sdmmc.c ****   * @brief  Send the Start Address Erase command and check the response
 674:Drivers/STM32F7xx_HAL_Driver/Src/stm32f7xx_ll_sdmmc.c ****   * @param  SDMMCx: Pointer to SDMMC register base 
 675:Drivers/STM32F7xx_HAL_Driver/Src/stm32f7xx_ll_sdmmc.c ****   * @retval HAL status
 676:Drivers/STM32F7xx_HAL_Driver/Src/stm32f7xx_ll_sdmmc.c ****   */
 677:Drivers/STM32F7xx_HAL_Driver/Src/stm32f7xx_ll_sdmmc.c **** uint32_t SDMMC_CmdEraseStartAdd(SDMMC_TypeDef *SDMMCx, uint32_t StartAdd)
 678:Drivers/STM32F7xx_HAL_Driver/Src/stm32f7xx_ll_sdmmc.c **** {
 1256              		.loc 1 678 1
 1257              		.cfi_startproc
 1258              		@ args = 0, pretend = 0, frame = 32
 1259              		@ frame_needed = 1, uses_anonymous_args = 0
 1260 0000 80B5     		push	{r7, lr}
 1261              	.LCFI115:
 1262              		.cfi_def_cfa_offset 8
 1263              		.cfi_offset 7, -8
 1264              		.cfi_offset 14, -4
 1265 0002 88B0     		sub	sp, sp, #32
 1266              	.LCFI116:
 1267              		.cfi_def_cfa_offset 40
 1268 0004 00AF     		add	r7, sp, #0
 1269              	.LCFI117:
 1270              		.cfi_def_cfa_register 7
 1271 0006 7860     		str	r0, [r7, #4]
 1272 0008 3960     		str	r1, [r7]
 679:Drivers/STM32F7xx_HAL_Driver/Src/stm32f7xx_ll_sdmmc.c ****   SDMMC_CmdInitTypeDef  sdmmc_cmdinit;
 680:Drivers/STM32F7xx_HAL_Driver/Src/stm32f7xx_ll_sdmmc.c ****   uint32_t errorstate;
 681:Drivers/STM32F7xx_HAL_Driver/Src/stm32f7xx_ll_sdmmc.c ****   
 682:Drivers/STM32F7xx_HAL_Driver/Src/stm32f7xx_ll_sdmmc.c ****   /* Set Block Size for Card */ 
 683:Drivers/STM32F7xx_HAL_Driver/Src/stm32f7xx_ll_sdmmc.c ****   sdmmc_cmdinit.Argument         = (uint32_t)StartAdd;
 1273              		.loc 1 683 34
 1274 000a 3B68     		ldr	r3, [r7]
 1275 000c BB60     		str	r3, [r7, #8]
 684:Drivers/STM32F7xx_HAL_Driver/Src/stm32f7xx_ll_sdmmc.c ****   sdmmc_cmdinit.CmdIndex         = SDMMC_CMD_ERASE_GRP_START;
 1276              		.loc 1 684 34
 1277 000e 2323     		movs	r3, #35
 1278 0010 FB60     		str	r3, [r7, #12]
 685:Drivers/STM32F7xx_HAL_Driver/Src/stm32f7xx_ll_sdmmc.c ****   sdmmc_cmdinit.Response         = SDMMC_RESPONSE_SHORT;
 1279              		.loc 1 685 34
 1280 0012 4023     		movs	r3, #64
ARM GAS  C:\Users\jisu8\AppData\Local\Temp\ccG1p0Yx.s 			page 35


 1281 0014 3B61     		str	r3, [r7, #16]
 686:Drivers/STM32F7xx_HAL_Driver/Src/stm32f7xx_ll_sdmmc.c ****   sdmmc_cmdinit.WaitForInterrupt = SDMMC_WAIT_NO;
 1282              		.loc 1 686 34
 1283 0016 0023     		movs	r3, #0
 1284 0018 7B61     		str	r3, [r7, #20]
 687:Drivers/STM32F7xx_HAL_Driver/Src/stm32f7xx_ll_sdmmc.c ****   sdmmc_cmdinit.CPSM             = SDMMC_CPSM_ENABLE;
 1285              		.loc 1 687 34
 1286 001a 4FF48063 		mov	r3, #1024
 1287 001e BB61     		str	r3, [r7, #24]
 688:Drivers/STM32F7xx_HAL_Driver/Src/stm32f7xx_ll_sdmmc.c ****   (void)SDMMC_SendCommand(SDMMCx, &sdmmc_cmdinit);
 1288              		.loc 1 688 9
 1289 0020 07F10803 		add	r3, r7, #8
 1290 0024 1946     		mov	r1, r3
 1291 0026 7868     		ldr	r0, [r7, #4]
 1292 0028 FFF7FEFF 		bl	SDMMC_SendCommand
 689:Drivers/STM32F7xx_HAL_Driver/Src/stm32f7xx_ll_sdmmc.c ****   
 690:Drivers/STM32F7xx_HAL_Driver/Src/stm32f7xx_ll_sdmmc.c ****   /* Check for error conditions */
 691:Drivers/STM32F7xx_HAL_Driver/Src/stm32f7xx_ll_sdmmc.c ****   errorstate = SDMMC_GetCmdResp1(SDMMCx, SDMMC_CMD_ERASE_GRP_START, SDMMC_CMDTIMEOUT);
 1293              		.loc 1 691 16
 1294 002c 41F28832 		movw	r2, #5000
 1295 0030 2321     		movs	r1, #35
 1296 0032 7868     		ldr	r0, [r7, #4]
 1297 0034 FFF7FEFF 		bl	SDMMC_GetCmdResp1
 1298 0038 F861     		str	r0, [r7, #28]
 692:Drivers/STM32F7xx_HAL_Driver/Src/stm32f7xx_ll_sdmmc.c **** 
 693:Drivers/STM32F7xx_HAL_Driver/Src/stm32f7xx_ll_sdmmc.c ****   return errorstate;
 1299              		.loc 1 693 10
 1300 003a FB69     		ldr	r3, [r7, #28]
 694:Drivers/STM32F7xx_HAL_Driver/Src/stm32f7xx_ll_sdmmc.c **** }
 1301              		.loc 1 694 1
 1302 003c 1846     		mov	r0, r3
 1303 003e 2037     		adds	r7, r7, #32
 1304              	.LCFI118:
 1305              		.cfi_def_cfa_offset 8
 1306 0040 BD46     		mov	sp, r7
 1307              	.LCFI119:
 1308              		.cfi_def_cfa_register 13
 1309              		@ sp needed
 1310 0042 80BD     		pop	{r7, pc}
 1311              		.cfi_endproc
 1312              	.LFE161:
 1314              		.section	.text.SDMMC_CmdEraseEndAdd,"ax",%progbits
 1315              		.align	1
 1316              		.global	SDMMC_CmdEraseEndAdd
 1317              		.syntax unified
 1318              		.thumb
 1319              		.thumb_func
 1321              	SDMMC_CmdEraseEndAdd:
 1322              	.LFB162:
 695:Drivers/STM32F7xx_HAL_Driver/Src/stm32f7xx_ll_sdmmc.c **** 
 696:Drivers/STM32F7xx_HAL_Driver/Src/stm32f7xx_ll_sdmmc.c **** /**
 697:Drivers/STM32F7xx_HAL_Driver/Src/stm32f7xx_ll_sdmmc.c ****   * @brief  Send the End Address Erase command and check the response
 698:Drivers/STM32F7xx_HAL_Driver/Src/stm32f7xx_ll_sdmmc.c ****   * @param  SDMMCx: Pointer to SDMMC register base 
 699:Drivers/STM32F7xx_HAL_Driver/Src/stm32f7xx_ll_sdmmc.c ****   * @retval HAL status
 700:Drivers/STM32F7xx_HAL_Driver/Src/stm32f7xx_ll_sdmmc.c ****   */
 701:Drivers/STM32F7xx_HAL_Driver/Src/stm32f7xx_ll_sdmmc.c **** uint32_t SDMMC_CmdEraseEndAdd(SDMMC_TypeDef *SDMMCx, uint32_t EndAdd)
 702:Drivers/STM32F7xx_HAL_Driver/Src/stm32f7xx_ll_sdmmc.c **** {
ARM GAS  C:\Users\jisu8\AppData\Local\Temp\ccG1p0Yx.s 			page 36


 1323              		.loc 1 702 1
 1324              		.cfi_startproc
 1325              		@ args = 0, pretend = 0, frame = 32
 1326              		@ frame_needed = 1, uses_anonymous_args = 0
 1327 0000 80B5     		push	{r7, lr}
 1328              	.LCFI120:
 1329              		.cfi_def_cfa_offset 8
 1330              		.cfi_offset 7, -8
 1331              		.cfi_offset 14, -4
 1332 0002 88B0     		sub	sp, sp, #32
 1333              	.LCFI121:
 1334              		.cfi_def_cfa_offset 40
 1335 0004 00AF     		add	r7, sp, #0
 1336              	.LCFI122:
 1337              		.cfi_def_cfa_register 7
 1338 0006 7860     		str	r0, [r7, #4]
 1339 0008 3960     		str	r1, [r7]
 703:Drivers/STM32F7xx_HAL_Driver/Src/stm32f7xx_ll_sdmmc.c ****   SDMMC_CmdInitTypeDef  sdmmc_cmdinit;
 704:Drivers/STM32F7xx_HAL_Driver/Src/stm32f7xx_ll_sdmmc.c ****   uint32_t errorstate;
 705:Drivers/STM32F7xx_HAL_Driver/Src/stm32f7xx_ll_sdmmc.c ****   
 706:Drivers/STM32F7xx_HAL_Driver/Src/stm32f7xx_ll_sdmmc.c ****   /* Set Block Size for Card */ 
 707:Drivers/STM32F7xx_HAL_Driver/Src/stm32f7xx_ll_sdmmc.c ****   sdmmc_cmdinit.Argument         = (uint32_t)EndAdd;
 1340              		.loc 1 707 34
 1341 000a 3B68     		ldr	r3, [r7]
 1342 000c BB60     		str	r3, [r7, #8]
 708:Drivers/STM32F7xx_HAL_Driver/Src/stm32f7xx_ll_sdmmc.c ****   sdmmc_cmdinit.CmdIndex         = SDMMC_CMD_ERASE_GRP_END;
 1343              		.loc 1 708 34
 1344 000e 2423     		movs	r3, #36
 1345 0010 FB60     		str	r3, [r7, #12]
 709:Drivers/STM32F7xx_HAL_Driver/Src/stm32f7xx_ll_sdmmc.c ****   sdmmc_cmdinit.Response         = SDMMC_RESPONSE_SHORT;
 1346              		.loc 1 709 34
 1347 0012 4023     		movs	r3, #64
 1348 0014 3B61     		str	r3, [r7, #16]
 710:Drivers/STM32F7xx_HAL_Driver/Src/stm32f7xx_ll_sdmmc.c ****   sdmmc_cmdinit.WaitForInterrupt = SDMMC_WAIT_NO;
 1349              		.loc 1 710 34
 1350 0016 0023     		movs	r3, #0
 1351 0018 7B61     		str	r3, [r7, #20]
 711:Drivers/STM32F7xx_HAL_Driver/Src/stm32f7xx_ll_sdmmc.c ****   sdmmc_cmdinit.CPSM             = SDMMC_CPSM_ENABLE;
 1352              		.loc 1 711 34
 1353 001a 4FF48063 		mov	r3, #1024
 1354 001e BB61     		str	r3, [r7, #24]
 712:Drivers/STM32F7xx_HAL_Driver/Src/stm32f7xx_ll_sdmmc.c ****   (void)SDMMC_SendCommand(SDMMCx, &sdmmc_cmdinit);
 1355              		.loc 1 712 9
 1356 0020 07F10803 		add	r3, r7, #8
 1357 0024 1946     		mov	r1, r3
 1358 0026 7868     		ldr	r0, [r7, #4]
 1359 0028 FFF7FEFF 		bl	SDMMC_SendCommand
 713:Drivers/STM32F7xx_HAL_Driver/Src/stm32f7xx_ll_sdmmc.c ****   
 714:Drivers/STM32F7xx_HAL_Driver/Src/stm32f7xx_ll_sdmmc.c ****   /* Check for error conditions */
 715:Drivers/STM32F7xx_HAL_Driver/Src/stm32f7xx_ll_sdmmc.c ****   errorstate = SDMMC_GetCmdResp1(SDMMCx, SDMMC_CMD_ERASE_GRP_END, SDMMC_CMDTIMEOUT);
 1360              		.loc 1 715 16
 1361 002c 41F28832 		movw	r2, #5000
 1362 0030 2421     		movs	r1, #36
 1363 0032 7868     		ldr	r0, [r7, #4]
 1364 0034 FFF7FEFF 		bl	SDMMC_GetCmdResp1
 1365 0038 F861     		str	r0, [r7, #28]
 716:Drivers/STM32F7xx_HAL_Driver/Src/stm32f7xx_ll_sdmmc.c **** 
ARM GAS  C:\Users\jisu8\AppData\Local\Temp\ccG1p0Yx.s 			page 37


 717:Drivers/STM32F7xx_HAL_Driver/Src/stm32f7xx_ll_sdmmc.c ****   return errorstate;
 1366              		.loc 1 717 10
 1367 003a FB69     		ldr	r3, [r7, #28]
 718:Drivers/STM32F7xx_HAL_Driver/Src/stm32f7xx_ll_sdmmc.c **** }
 1368              		.loc 1 718 1
 1369 003c 1846     		mov	r0, r3
 1370 003e 2037     		adds	r7, r7, #32
 1371              	.LCFI123:
 1372              		.cfi_def_cfa_offset 8
 1373 0040 BD46     		mov	sp, r7
 1374              	.LCFI124:
 1375              		.cfi_def_cfa_register 13
 1376              		@ sp needed
 1377 0042 80BD     		pop	{r7, pc}
 1378              		.cfi_endproc
 1379              	.LFE162:
 1381              		.section	.text.SDMMC_CmdErase,"ax",%progbits
 1382              		.align	1
 1383              		.global	SDMMC_CmdErase
 1384              		.syntax unified
 1385              		.thumb
 1386              		.thumb_func
 1388              	SDMMC_CmdErase:
 1389              	.LFB163:
 719:Drivers/STM32F7xx_HAL_Driver/Src/stm32f7xx_ll_sdmmc.c **** 
 720:Drivers/STM32F7xx_HAL_Driver/Src/stm32f7xx_ll_sdmmc.c **** /**
 721:Drivers/STM32F7xx_HAL_Driver/Src/stm32f7xx_ll_sdmmc.c ****   * @brief  Send the Erase command and check the response
 722:Drivers/STM32F7xx_HAL_Driver/Src/stm32f7xx_ll_sdmmc.c ****   * @param  SDMMCx: Pointer to SDMMC register base 
 723:Drivers/STM32F7xx_HAL_Driver/Src/stm32f7xx_ll_sdmmc.c ****   * @retval HAL status
 724:Drivers/STM32F7xx_HAL_Driver/Src/stm32f7xx_ll_sdmmc.c ****   */
 725:Drivers/STM32F7xx_HAL_Driver/Src/stm32f7xx_ll_sdmmc.c **** uint32_t SDMMC_CmdErase(SDMMC_TypeDef *SDMMCx)
 726:Drivers/STM32F7xx_HAL_Driver/Src/stm32f7xx_ll_sdmmc.c **** {
 1390              		.loc 1 726 1
 1391              		.cfi_startproc
 1392              		@ args = 0, pretend = 0, frame = 32
 1393              		@ frame_needed = 1, uses_anonymous_args = 0
 1394 0000 80B5     		push	{r7, lr}
 1395              	.LCFI125:
 1396              		.cfi_def_cfa_offset 8
 1397              		.cfi_offset 7, -8
 1398              		.cfi_offset 14, -4
 1399 0002 88B0     		sub	sp, sp, #32
 1400              	.LCFI126:
 1401              		.cfi_def_cfa_offset 40
 1402 0004 00AF     		add	r7, sp, #0
 1403              	.LCFI127:
 1404              		.cfi_def_cfa_register 7
 1405 0006 7860     		str	r0, [r7, #4]
 727:Drivers/STM32F7xx_HAL_Driver/Src/stm32f7xx_ll_sdmmc.c ****   SDMMC_CmdInitTypeDef  sdmmc_cmdinit;
 728:Drivers/STM32F7xx_HAL_Driver/Src/stm32f7xx_ll_sdmmc.c ****   uint32_t errorstate;
 729:Drivers/STM32F7xx_HAL_Driver/Src/stm32f7xx_ll_sdmmc.c ****   
 730:Drivers/STM32F7xx_HAL_Driver/Src/stm32f7xx_ll_sdmmc.c ****   /* Set Block Size for Card */ 
 731:Drivers/STM32F7xx_HAL_Driver/Src/stm32f7xx_ll_sdmmc.c ****   sdmmc_cmdinit.Argument         = 0U;
 1406              		.loc 1 731 34
 1407 0008 0023     		movs	r3, #0
 1408 000a BB60     		str	r3, [r7, #8]
 732:Drivers/STM32F7xx_HAL_Driver/Src/stm32f7xx_ll_sdmmc.c ****   sdmmc_cmdinit.CmdIndex         = SDMMC_CMD_ERASE;
ARM GAS  C:\Users\jisu8\AppData\Local\Temp\ccG1p0Yx.s 			page 38


 1409              		.loc 1 732 34
 1410 000c 2623     		movs	r3, #38
 1411 000e FB60     		str	r3, [r7, #12]
 733:Drivers/STM32F7xx_HAL_Driver/Src/stm32f7xx_ll_sdmmc.c ****   sdmmc_cmdinit.Response         = SDMMC_RESPONSE_SHORT;
 1412              		.loc 1 733 34
 1413 0010 4023     		movs	r3, #64
 1414 0012 3B61     		str	r3, [r7, #16]
 734:Drivers/STM32F7xx_HAL_Driver/Src/stm32f7xx_ll_sdmmc.c ****   sdmmc_cmdinit.WaitForInterrupt = SDMMC_WAIT_NO;
 1415              		.loc 1 734 34
 1416 0014 0023     		movs	r3, #0
 1417 0016 7B61     		str	r3, [r7, #20]
 735:Drivers/STM32F7xx_HAL_Driver/Src/stm32f7xx_ll_sdmmc.c ****   sdmmc_cmdinit.CPSM             = SDMMC_CPSM_ENABLE;
 1418              		.loc 1 735 34
 1419 0018 4FF48063 		mov	r3, #1024
 1420 001c BB61     		str	r3, [r7, #24]
 736:Drivers/STM32F7xx_HAL_Driver/Src/stm32f7xx_ll_sdmmc.c ****   (void)SDMMC_SendCommand(SDMMCx, &sdmmc_cmdinit);
 1421              		.loc 1 736 9
 1422 001e 07F10803 		add	r3, r7, #8
 1423 0022 1946     		mov	r1, r3
 1424 0024 7868     		ldr	r0, [r7, #4]
 1425 0026 FFF7FEFF 		bl	SDMMC_SendCommand
 737:Drivers/STM32F7xx_HAL_Driver/Src/stm32f7xx_ll_sdmmc.c ****   
 738:Drivers/STM32F7xx_HAL_Driver/Src/stm32f7xx_ll_sdmmc.c ****   /* Check for error conditions */
 739:Drivers/STM32F7xx_HAL_Driver/Src/stm32f7xx_ll_sdmmc.c ****   errorstate = SDMMC_GetCmdResp1(SDMMCx, SDMMC_CMD_ERASE, SDMMC_MAXERASETIMEOUT);
 1426              		.loc 1 739 16
 1427 002a 4FF21862 		movw	r2, #63000
 1428 002e 2621     		movs	r1, #38
 1429 0030 7868     		ldr	r0, [r7, #4]
 1430 0032 FFF7FEFF 		bl	SDMMC_GetCmdResp1
 1431 0036 F861     		str	r0, [r7, #28]
 740:Drivers/STM32F7xx_HAL_Driver/Src/stm32f7xx_ll_sdmmc.c **** 
 741:Drivers/STM32F7xx_HAL_Driver/Src/stm32f7xx_ll_sdmmc.c ****   return errorstate;
 1432              		.loc 1 741 10
 1433 0038 FB69     		ldr	r3, [r7, #28]
 742:Drivers/STM32F7xx_HAL_Driver/Src/stm32f7xx_ll_sdmmc.c **** }
 1434              		.loc 1 742 1
 1435 003a 1846     		mov	r0, r3
 1436 003c 2037     		adds	r7, r7, #32
 1437              	.LCFI128:
 1438              		.cfi_def_cfa_offset 8
 1439 003e BD46     		mov	sp, r7
 1440              	.LCFI129:
 1441              		.cfi_def_cfa_register 13
 1442              		@ sp needed
 1443 0040 80BD     		pop	{r7, pc}
 1444              		.cfi_endproc
 1445              	.LFE163:
 1447              		.section	.text.SDMMC_CmdStopTransfer,"ax",%progbits
 1448              		.align	1
 1449              		.global	SDMMC_CmdStopTransfer
 1450              		.syntax unified
 1451              		.thumb
 1452              		.thumb_func
 1454              	SDMMC_CmdStopTransfer:
 1455              	.LFB164:
 743:Drivers/STM32F7xx_HAL_Driver/Src/stm32f7xx_ll_sdmmc.c **** 
 744:Drivers/STM32F7xx_HAL_Driver/Src/stm32f7xx_ll_sdmmc.c **** /**
ARM GAS  C:\Users\jisu8\AppData\Local\Temp\ccG1p0Yx.s 			page 39


 745:Drivers/STM32F7xx_HAL_Driver/Src/stm32f7xx_ll_sdmmc.c ****   * @brief  Send the Stop Transfer command and check the response.
 746:Drivers/STM32F7xx_HAL_Driver/Src/stm32f7xx_ll_sdmmc.c ****   * @param  SDMMCx: Pointer to SDMMC register base 
 747:Drivers/STM32F7xx_HAL_Driver/Src/stm32f7xx_ll_sdmmc.c ****   * @retval HAL status
 748:Drivers/STM32F7xx_HAL_Driver/Src/stm32f7xx_ll_sdmmc.c ****   */
 749:Drivers/STM32F7xx_HAL_Driver/Src/stm32f7xx_ll_sdmmc.c **** uint32_t SDMMC_CmdStopTransfer(SDMMC_TypeDef *SDMMCx)
 750:Drivers/STM32F7xx_HAL_Driver/Src/stm32f7xx_ll_sdmmc.c **** {
 1456              		.loc 1 750 1
 1457              		.cfi_startproc
 1458              		@ args = 0, pretend = 0, frame = 32
 1459              		@ frame_needed = 1, uses_anonymous_args = 0
 1460 0000 80B5     		push	{r7, lr}
 1461              	.LCFI130:
 1462              		.cfi_def_cfa_offset 8
 1463              		.cfi_offset 7, -8
 1464              		.cfi_offset 14, -4
 1465 0002 88B0     		sub	sp, sp, #32
 1466              	.LCFI131:
 1467              		.cfi_def_cfa_offset 40
 1468 0004 00AF     		add	r7, sp, #0
 1469              	.LCFI132:
 1470              		.cfi_def_cfa_register 7
 1471 0006 7860     		str	r0, [r7, #4]
 751:Drivers/STM32F7xx_HAL_Driver/Src/stm32f7xx_ll_sdmmc.c ****   SDMMC_CmdInitTypeDef  sdmmc_cmdinit;
 752:Drivers/STM32F7xx_HAL_Driver/Src/stm32f7xx_ll_sdmmc.c ****   uint32_t errorstate;
 753:Drivers/STM32F7xx_HAL_Driver/Src/stm32f7xx_ll_sdmmc.c ****   
 754:Drivers/STM32F7xx_HAL_Driver/Src/stm32f7xx_ll_sdmmc.c ****   /* Send CMD12 STOP_TRANSMISSION  */
 755:Drivers/STM32F7xx_HAL_Driver/Src/stm32f7xx_ll_sdmmc.c ****   sdmmc_cmdinit.Argument         = 0U;
 1472              		.loc 1 755 34
 1473 0008 0023     		movs	r3, #0
 1474 000a BB60     		str	r3, [r7, #8]
 756:Drivers/STM32F7xx_HAL_Driver/Src/stm32f7xx_ll_sdmmc.c ****   sdmmc_cmdinit.CmdIndex         = SDMMC_CMD_STOP_TRANSMISSION;
 1475              		.loc 1 756 34
 1476 000c 0C23     		movs	r3, #12
 1477 000e FB60     		str	r3, [r7, #12]
 757:Drivers/STM32F7xx_HAL_Driver/Src/stm32f7xx_ll_sdmmc.c ****   sdmmc_cmdinit.Response         = SDMMC_RESPONSE_SHORT;
 1478              		.loc 1 757 34
 1479 0010 4023     		movs	r3, #64
 1480 0012 3B61     		str	r3, [r7, #16]
 758:Drivers/STM32F7xx_HAL_Driver/Src/stm32f7xx_ll_sdmmc.c ****   sdmmc_cmdinit.WaitForInterrupt = SDMMC_WAIT_NO;
 1481              		.loc 1 758 34
 1482 0014 0023     		movs	r3, #0
 1483 0016 7B61     		str	r3, [r7, #20]
 759:Drivers/STM32F7xx_HAL_Driver/Src/stm32f7xx_ll_sdmmc.c ****   sdmmc_cmdinit.CPSM             = SDMMC_CPSM_ENABLE;
 1484              		.loc 1 759 34
 1485 0018 4FF48063 		mov	r3, #1024
 1486 001c BB61     		str	r3, [r7, #24]
 760:Drivers/STM32F7xx_HAL_Driver/Src/stm32f7xx_ll_sdmmc.c ****   (void)SDMMC_SendCommand(SDMMCx, &sdmmc_cmdinit);
 1487              		.loc 1 760 9
 1488 001e 07F10803 		add	r3, r7, #8
 1489 0022 1946     		mov	r1, r3
 1490 0024 7868     		ldr	r0, [r7, #4]
 1491 0026 FFF7FEFF 		bl	SDMMC_SendCommand
 761:Drivers/STM32F7xx_HAL_Driver/Src/stm32f7xx_ll_sdmmc.c ****   
 762:Drivers/STM32F7xx_HAL_Driver/Src/stm32f7xx_ll_sdmmc.c ****   /* Check for error conditions */
 763:Drivers/STM32F7xx_HAL_Driver/Src/stm32f7xx_ll_sdmmc.c ****   errorstate = SDMMC_GetCmdResp1(SDMMCx, SDMMC_CMD_STOP_TRANSMISSION, SDMMC_STOPTRANSFERTIMEOUT);
 1492              		.loc 1 763 16
 1493 002a 054A     		ldr	r2, .L53
ARM GAS  C:\Users\jisu8\AppData\Local\Temp\ccG1p0Yx.s 			page 40


 1494 002c 0C21     		movs	r1, #12
 1495 002e 7868     		ldr	r0, [r7, #4]
 1496 0030 FFF7FEFF 		bl	SDMMC_GetCmdResp1
 1497 0034 F861     		str	r0, [r7, #28]
 764:Drivers/STM32F7xx_HAL_Driver/Src/stm32f7xx_ll_sdmmc.c **** 
 765:Drivers/STM32F7xx_HAL_Driver/Src/stm32f7xx_ll_sdmmc.c ****   return errorstate;
 1498              		.loc 1 765 10
 1499 0036 FB69     		ldr	r3, [r7, #28]
 766:Drivers/STM32F7xx_HAL_Driver/Src/stm32f7xx_ll_sdmmc.c **** }
 1500              		.loc 1 766 1
 1501 0038 1846     		mov	r0, r3
 1502 003a 2037     		adds	r7, r7, #32
 1503              	.LCFI133:
 1504              		.cfi_def_cfa_offset 8
 1505 003c BD46     		mov	sp, r7
 1506              	.LCFI134:
 1507              		.cfi_def_cfa_register 13
 1508              		@ sp needed
 1509 003e 80BD     		pop	{r7, pc}
 1510              	.L54:
 1511              		.align	2
 1512              	.L53:
 1513 0040 00E1F505 		.word	100000000
 1514              		.cfi_endproc
 1515              	.LFE164:
 1517              		.section	.text.SDMMC_CmdSelDesel,"ax",%progbits
 1518              		.align	1
 1519              		.global	SDMMC_CmdSelDesel
 1520              		.syntax unified
 1521              		.thumb
 1522              		.thumb_func
 1524              	SDMMC_CmdSelDesel:
 1525              	.LFB165:
 767:Drivers/STM32F7xx_HAL_Driver/Src/stm32f7xx_ll_sdmmc.c **** 
 768:Drivers/STM32F7xx_HAL_Driver/Src/stm32f7xx_ll_sdmmc.c **** /**
 769:Drivers/STM32F7xx_HAL_Driver/Src/stm32f7xx_ll_sdmmc.c ****   * @brief  Send the Select Deselect command and check the response.
 770:Drivers/STM32F7xx_HAL_Driver/Src/stm32f7xx_ll_sdmmc.c ****   * @param  SDMMCx: Pointer to SDMMC register base 
 771:Drivers/STM32F7xx_HAL_Driver/Src/stm32f7xx_ll_sdmmc.c ****   * @param  addr: Address of the card to be selected  
 772:Drivers/STM32F7xx_HAL_Driver/Src/stm32f7xx_ll_sdmmc.c ****   * @retval HAL status
 773:Drivers/STM32F7xx_HAL_Driver/Src/stm32f7xx_ll_sdmmc.c ****   */
 774:Drivers/STM32F7xx_HAL_Driver/Src/stm32f7xx_ll_sdmmc.c **** uint32_t SDMMC_CmdSelDesel(SDMMC_TypeDef *SDMMCx, uint64_t Addr)
 775:Drivers/STM32F7xx_HAL_Driver/Src/stm32f7xx_ll_sdmmc.c **** {
 1526              		.loc 1 775 1
 1527              		.cfi_startproc
 1528              		@ args = 0, pretend = 0, frame = 40
 1529              		@ frame_needed = 1, uses_anonymous_args = 0
 1530 0000 80B5     		push	{r7, lr}
 1531              	.LCFI135:
 1532              		.cfi_def_cfa_offset 8
 1533              		.cfi_offset 7, -8
 1534              		.cfi_offset 14, -4
 1535 0002 8AB0     		sub	sp, sp, #40
 1536              	.LCFI136:
 1537              		.cfi_def_cfa_offset 48
 1538 0004 00AF     		add	r7, sp, #0
 1539              	.LCFI137:
 1540              		.cfi_def_cfa_register 7
ARM GAS  C:\Users\jisu8\AppData\Local\Temp\ccG1p0Yx.s 			page 41


 1541 0006 F860     		str	r0, [r7, #12]
 1542 0008 C7E90023 		strd	r2, [r7]
 776:Drivers/STM32F7xx_HAL_Driver/Src/stm32f7xx_ll_sdmmc.c ****   SDMMC_CmdInitTypeDef  sdmmc_cmdinit;
 777:Drivers/STM32F7xx_HAL_Driver/Src/stm32f7xx_ll_sdmmc.c ****   uint32_t errorstate;
 778:Drivers/STM32F7xx_HAL_Driver/Src/stm32f7xx_ll_sdmmc.c ****   
 779:Drivers/STM32F7xx_HAL_Driver/Src/stm32f7xx_ll_sdmmc.c ****   /* Send CMD7 SDMMC_SEL_DESEL_CARD */
 780:Drivers/STM32F7xx_HAL_Driver/Src/stm32f7xx_ll_sdmmc.c ****   sdmmc_cmdinit.Argument         = (uint32_t)Addr;
 1543              		.loc 1 780 36
 1544 000c 3B68     		ldr	r3, [r7]
 1545              		.loc 1 780 34
 1546 000e 3B61     		str	r3, [r7, #16]
 781:Drivers/STM32F7xx_HAL_Driver/Src/stm32f7xx_ll_sdmmc.c ****   sdmmc_cmdinit.CmdIndex         = SDMMC_CMD_SEL_DESEL_CARD;
 1547              		.loc 1 781 34
 1548 0010 0723     		movs	r3, #7
 1549 0012 7B61     		str	r3, [r7, #20]
 782:Drivers/STM32F7xx_HAL_Driver/Src/stm32f7xx_ll_sdmmc.c ****   sdmmc_cmdinit.Response         = SDMMC_RESPONSE_SHORT;
 1550              		.loc 1 782 34
 1551 0014 4023     		movs	r3, #64
 1552 0016 BB61     		str	r3, [r7, #24]
 783:Drivers/STM32F7xx_HAL_Driver/Src/stm32f7xx_ll_sdmmc.c ****   sdmmc_cmdinit.WaitForInterrupt = SDMMC_WAIT_NO;
 1553              		.loc 1 783 34
 1554 0018 0023     		movs	r3, #0
 1555 001a FB61     		str	r3, [r7, #28]
 784:Drivers/STM32F7xx_HAL_Driver/Src/stm32f7xx_ll_sdmmc.c ****   sdmmc_cmdinit.CPSM             = SDMMC_CPSM_ENABLE;
 1556              		.loc 1 784 34
 1557 001c 4FF48063 		mov	r3, #1024
 1558 0020 3B62     		str	r3, [r7, #32]
 785:Drivers/STM32F7xx_HAL_Driver/Src/stm32f7xx_ll_sdmmc.c ****   (void)SDMMC_SendCommand(SDMMCx, &sdmmc_cmdinit);
 1559              		.loc 1 785 9
 1560 0022 07F11003 		add	r3, r7, #16
 1561 0026 1946     		mov	r1, r3
 1562 0028 F868     		ldr	r0, [r7, #12]
 1563 002a FFF7FEFF 		bl	SDMMC_SendCommand
 786:Drivers/STM32F7xx_HAL_Driver/Src/stm32f7xx_ll_sdmmc.c ****   
 787:Drivers/STM32F7xx_HAL_Driver/Src/stm32f7xx_ll_sdmmc.c ****   /* Check for error conditions */
 788:Drivers/STM32F7xx_HAL_Driver/Src/stm32f7xx_ll_sdmmc.c ****   errorstate = SDMMC_GetCmdResp1(SDMMCx, SDMMC_CMD_SEL_DESEL_CARD, SDMMC_CMDTIMEOUT);
 1564              		.loc 1 788 16
 1565 002e 41F28832 		movw	r2, #5000
 1566 0032 0721     		movs	r1, #7
 1567 0034 F868     		ldr	r0, [r7, #12]
 1568 0036 FFF7FEFF 		bl	SDMMC_GetCmdResp1
 1569 003a 7862     		str	r0, [r7, #36]
 789:Drivers/STM32F7xx_HAL_Driver/Src/stm32f7xx_ll_sdmmc.c **** 
 790:Drivers/STM32F7xx_HAL_Driver/Src/stm32f7xx_ll_sdmmc.c ****   return errorstate;
 1570              		.loc 1 790 10
 1571 003c 7B6A     		ldr	r3, [r7, #36]
 791:Drivers/STM32F7xx_HAL_Driver/Src/stm32f7xx_ll_sdmmc.c **** }
 1572              		.loc 1 791 1
 1573 003e 1846     		mov	r0, r3
 1574 0040 2837     		adds	r7, r7, #40
 1575              	.LCFI138:
 1576              		.cfi_def_cfa_offset 8
 1577 0042 BD46     		mov	sp, r7
 1578              	.LCFI139:
 1579              		.cfi_def_cfa_register 13
 1580              		@ sp needed
 1581 0044 80BD     		pop	{r7, pc}
ARM GAS  C:\Users\jisu8\AppData\Local\Temp\ccG1p0Yx.s 			page 42


 1582              		.cfi_endproc
 1583              	.LFE165:
 1585              		.section	.text.SDMMC_CmdGoIdleState,"ax",%progbits
 1586              		.align	1
 1587              		.global	SDMMC_CmdGoIdleState
 1588              		.syntax unified
 1589              		.thumb
 1590              		.thumb_func
 1592              	SDMMC_CmdGoIdleState:
 1593              	.LFB166:
 792:Drivers/STM32F7xx_HAL_Driver/Src/stm32f7xx_ll_sdmmc.c **** 
 793:Drivers/STM32F7xx_HAL_Driver/Src/stm32f7xx_ll_sdmmc.c **** /**
 794:Drivers/STM32F7xx_HAL_Driver/Src/stm32f7xx_ll_sdmmc.c ****   * @brief  Send the Go Idle State command and check the response.
 795:Drivers/STM32F7xx_HAL_Driver/Src/stm32f7xx_ll_sdmmc.c ****   * @param  SDMMCx: Pointer to SDMMC register base 
 796:Drivers/STM32F7xx_HAL_Driver/Src/stm32f7xx_ll_sdmmc.c ****   * @retval HAL status
 797:Drivers/STM32F7xx_HAL_Driver/Src/stm32f7xx_ll_sdmmc.c ****   */
 798:Drivers/STM32F7xx_HAL_Driver/Src/stm32f7xx_ll_sdmmc.c **** uint32_t SDMMC_CmdGoIdleState(SDMMC_TypeDef *SDMMCx)
 799:Drivers/STM32F7xx_HAL_Driver/Src/stm32f7xx_ll_sdmmc.c **** {
 1594              		.loc 1 799 1
 1595              		.cfi_startproc
 1596              		@ args = 0, pretend = 0, frame = 32
 1597              		@ frame_needed = 1, uses_anonymous_args = 0
 1598 0000 80B5     		push	{r7, lr}
 1599              	.LCFI140:
 1600              		.cfi_def_cfa_offset 8
 1601              		.cfi_offset 7, -8
 1602              		.cfi_offset 14, -4
 1603 0002 88B0     		sub	sp, sp, #32
 1604              	.LCFI141:
 1605              		.cfi_def_cfa_offset 40
 1606 0004 00AF     		add	r7, sp, #0
 1607              	.LCFI142:
 1608              		.cfi_def_cfa_register 7
 1609 0006 7860     		str	r0, [r7, #4]
 800:Drivers/STM32F7xx_HAL_Driver/Src/stm32f7xx_ll_sdmmc.c ****   SDMMC_CmdInitTypeDef  sdmmc_cmdinit;
 801:Drivers/STM32F7xx_HAL_Driver/Src/stm32f7xx_ll_sdmmc.c ****   uint32_t errorstate;
 802:Drivers/STM32F7xx_HAL_Driver/Src/stm32f7xx_ll_sdmmc.c ****   
 803:Drivers/STM32F7xx_HAL_Driver/Src/stm32f7xx_ll_sdmmc.c ****   sdmmc_cmdinit.Argument         = 0U;
 1610              		.loc 1 803 34
 1611 0008 0023     		movs	r3, #0
 1612 000a BB60     		str	r3, [r7, #8]
 804:Drivers/STM32F7xx_HAL_Driver/Src/stm32f7xx_ll_sdmmc.c ****   sdmmc_cmdinit.CmdIndex         = SDMMC_CMD_GO_IDLE_STATE;
 1613              		.loc 1 804 34
 1614 000c 0023     		movs	r3, #0
 1615 000e FB60     		str	r3, [r7, #12]
 805:Drivers/STM32F7xx_HAL_Driver/Src/stm32f7xx_ll_sdmmc.c ****   sdmmc_cmdinit.Response         = SDMMC_RESPONSE_NO;
 1616              		.loc 1 805 34
 1617 0010 0023     		movs	r3, #0
 1618 0012 3B61     		str	r3, [r7, #16]
 806:Drivers/STM32F7xx_HAL_Driver/Src/stm32f7xx_ll_sdmmc.c ****   sdmmc_cmdinit.WaitForInterrupt = SDMMC_WAIT_NO;
 1619              		.loc 1 806 34
 1620 0014 0023     		movs	r3, #0
 1621 0016 7B61     		str	r3, [r7, #20]
 807:Drivers/STM32F7xx_HAL_Driver/Src/stm32f7xx_ll_sdmmc.c ****   sdmmc_cmdinit.CPSM             = SDMMC_CPSM_ENABLE;
 1622              		.loc 1 807 34
 1623 0018 4FF48063 		mov	r3, #1024
 1624 001c BB61     		str	r3, [r7, #24]
ARM GAS  C:\Users\jisu8\AppData\Local\Temp\ccG1p0Yx.s 			page 43


 808:Drivers/STM32F7xx_HAL_Driver/Src/stm32f7xx_ll_sdmmc.c ****   (void)SDMMC_SendCommand(SDMMCx, &sdmmc_cmdinit);
 1625              		.loc 1 808 9
 1626 001e 07F10803 		add	r3, r7, #8
 1627 0022 1946     		mov	r1, r3
 1628 0024 7868     		ldr	r0, [r7, #4]
 1629 0026 FFF7FEFF 		bl	SDMMC_SendCommand
 809:Drivers/STM32F7xx_HAL_Driver/Src/stm32f7xx_ll_sdmmc.c ****   
 810:Drivers/STM32F7xx_HAL_Driver/Src/stm32f7xx_ll_sdmmc.c ****   /* Check for error conditions */
 811:Drivers/STM32F7xx_HAL_Driver/Src/stm32f7xx_ll_sdmmc.c ****   errorstate = SDMMC_GetCmdError(SDMMCx);
 1630              		.loc 1 811 16
 1631 002a 7868     		ldr	r0, [r7, #4]
 1632 002c FFF7FEFF 		bl	SDMMC_GetCmdError
 1633 0030 F861     		str	r0, [r7, #28]
 812:Drivers/STM32F7xx_HAL_Driver/Src/stm32f7xx_ll_sdmmc.c **** 
 813:Drivers/STM32F7xx_HAL_Driver/Src/stm32f7xx_ll_sdmmc.c ****   return errorstate;
 1634              		.loc 1 813 10
 1635 0032 FB69     		ldr	r3, [r7, #28]
 814:Drivers/STM32F7xx_HAL_Driver/Src/stm32f7xx_ll_sdmmc.c **** }
 1636              		.loc 1 814 1
 1637 0034 1846     		mov	r0, r3
 1638 0036 2037     		adds	r7, r7, #32
 1639              	.LCFI143:
 1640              		.cfi_def_cfa_offset 8
 1641 0038 BD46     		mov	sp, r7
 1642              	.LCFI144:
 1643              		.cfi_def_cfa_register 13
 1644              		@ sp needed
 1645 003a 80BD     		pop	{r7, pc}
 1646              		.cfi_endproc
 1647              	.LFE166:
 1649              		.section	.text.SDMMC_CmdOperCond,"ax",%progbits
 1650              		.align	1
 1651              		.global	SDMMC_CmdOperCond
 1652              		.syntax unified
 1653              		.thumb
 1654              		.thumb_func
 1656              	SDMMC_CmdOperCond:
 1657              	.LFB167:
 815:Drivers/STM32F7xx_HAL_Driver/Src/stm32f7xx_ll_sdmmc.c **** 
 816:Drivers/STM32F7xx_HAL_Driver/Src/stm32f7xx_ll_sdmmc.c **** /**
 817:Drivers/STM32F7xx_HAL_Driver/Src/stm32f7xx_ll_sdmmc.c ****   * @brief  Send the Operating Condition command and check the response.
 818:Drivers/STM32F7xx_HAL_Driver/Src/stm32f7xx_ll_sdmmc.c ****   * @param  SDMMCx: Pointer to SDMMC register base 
 819:Drivers/STM32F7xx_HAL_Driver/Src/stm32f7xx_ll_sdmmc.c ****   * @retval HAL status
 820:Drivers/STM32F7xx_HAL_Driver/Src/stm32f7xx_ll_sdmmc.c ****   */
 821:Drivers/STM32F7xx_HAL_Driver/Src/stm32f7xx_ll_sdmmc.c **** uint32_t SDMMC_CmdOperCond(SDMMC_TypeDef *SDMMCx)
 822:Drivers/STM32F7xx_HAL_Driver/Src/stm32f7xx_ll_sdmmc.c **** {
 1658              		.loc 1 822 1
 1659              		.cfi_startproc
 1660              		@ args = 0, pretend = 0, frame = 32
 1661              		@ frame_needed = 1, uses_anonymous_args = 0
 1662 0000 80B5     		push	{r7, lr}
 1663              	.LCFI145:
 1664              		.cfi_def_cfa_offset 8
 1665              		.cfi_offset 7, -8
 1666              		.cfi_offset 14, -4
 1667 0002 88B0     		sub	sp, sp, #32
 1668              	.LCFI146:
ARM GAS  C:\Users\jisu8\AppData\Local\Temp\ccG1p0Yx.s 			page 44


 1669              		.cfi_def_cfa_offset 40
 1670 0004 00AF     		add	r7, sp, #0
 1671              	.LCFI147:
 1672              		.cfi_def_cfa_register 7
 1673 0006 7860     		str	r0, [r7, #4]
 823:Drivers/STM32F7xx_HAL_Driver/Src/stm32f7xx_ll_sdmmc.c ****   SDMMC_CmdInitTypeDef  sdmmc_cmdinit;
 824:Drivers/STM32F7xx_HAL_Driver/Src/stm32f7xx_ll_sdmmc.c ****   uint32_t errorstate;
 825:Drivers/STM32F7xx_HAL_Driver/Src/stm32f7xx_ll_sdmmc.c ****   
 826:Drivers/STM32F7xx_HAL_Driver/Src/stm32f7xx_ll_sdmmc.c ****   /* Send CMD8 to verify SD card interface operating condition */
 827:Drivers/STM32F7xx_HAL_Driver/Src/stm32f7xx_ll_sdmmc.c ****   /* Argument: - [31:12]: Reserved (shall be set to '0')
 828:Drivers/STM32F7xx_HAL_Driver/Src/stm32f7xx_ll_sdmmc.c ****   - [11:8]: Supply Voltage (VHS) 0x1 (Range: 2.7-3.6 V)
 829:Drivers/STM32F7xx_HAL_Driver/Src/stm32f7xx_ll_sdmmc.c ****   - [7:0]: Check Pattern (recommended 0xAA) */
 830:Drivers/STM32F7xx_HAL_Driver/Src/stm32f7xx_ll_sdmmc.c ****   /* CMD Response: R7 */
 831:Drivers/STM32F7xx_HAL_Driver/Src/stm32f7xx_ll_sdmmc.c ****   sdmmc_cmdinit.Argument         = SDMMC_CHECK_PATTERN;
 1674              		.loc 1 831 34
 1675 0008 4FF4D573 		mov	r3, #426
 1676 000c BB60     		str	r3, [r7, #8]
 832:Drivers/STM32F7xx_HAL_Driver/Src/stm32f7xx_ll_sdmmc.c ****   sdmmc_cmdinit.CmdIndex         = SDMMC_CMD_HS_SEND_EXT_CSD;
 1677              		.loc 1 832 34
 1678 000e 0823     		movs	r3, #8
 1679 0010 FB60     		str	r3, [r7, #12]
 833:Drivers/STM32F7xx_HAL_Driver/Src/stm32f7xx_ll_sdmmc.c ****   sdmmc_cmdinit.Response         = SDMMC_RESPONSE_SHORT;
 1680              		.loc 1 833 34
 1681 0012 4023     		movs	r3, #64
 1682 0014 3B61     		str	r3, [r7, #16]
 834:Drivers/STM32F7xx_HAL_Driver/Src/stm32f7xx_ll_sdmmc.c ****   sdmmc_cmdinit.WaitForInterrupt = SDMMC_WAIT_NO;
 1683              		.loc 1 834 34
 1684 0016 0023     		movs	r3, #0
 1685 0018 7B61     		str	r3, [r7, #20]
 835:Drivers/STM32F7xx_HAL_Driver/Src/stm32f7xx_ll_sdmmc.c ****   sdmmc_cmdinit.CPSM             = SDMMC_CPSM_ENABLE;
 1686              		.loc 1 835 34
 1687 001a 4FF48063 		mov	r3, #1024
 1688 001e BB61     		str	r3, [r7, #24]
 836:Drivers/STM32F7xx_HAL_Driver/Src/stm32f7xx_ll_sdmmc.c ****   (void)SDMMC_SendCommand(SDMMCx, &sdmmc_cmdinit);
 1689              		.loc 1 836 9
 1690 0020 07F10803 		add	r3, r7, #8
 1691 0024 1946     		mov	r1, r3
 1692 0026 7868     		ldr	r0, [r7, #4]
 1693 0028 FFF7FEFF 		bl	SDMMC_SendCommand
 837:Drivers/STM32F7xx_HAL_Driver/Src/stm32f7xx_ll_sdmmc.c ****   
 838:Drivers/STM32F7xx_HAL_Driver/Src/stm32f7xx_ll_sdmmc.c ****   /* Check for error conditions */
 839:Drivers/STM32F7xx_HAL_Driver/Src/stm32f7xx_ll_sdmmc.c ****   errorstate = SDMMC_GetCmdResp7(SDMMCx);
 1694              		.loc 1 839 16
 1695 002c 7868     		ldr	r0, [r7, #4]
 1696 002e FFF7FEFF 		bl	SDMMC_GetCmdResp7
 1697 0032 F861     		str	r0, [r7, #28]
 840:Drivers/STM32F7xx_HAL_Driver/Src/stm32f7xx_ll_sdmmc.c **** 
 841:Drivers/STM32F7xx_HAL_Driver/Src/stm32f7xx_ll_sdmmc.c ****   return errorstate;
 1698              		.loc 1 841 10
 1699 0034 FB69     		ldr	r3, [r7, #28]
 842:Drivers/STM32F7xx_HAL_Driver/Src/stm32f7xx_ll_sdmmc.c **** }
 1700              		.loc 1 842 1
 1701 0036 1846     		mov	r0, r3
 1702 0038 2037     		adds	r7, r7, #32
 1703              	.LCFI148:
 1704              		.cfi_def_cfa_offset 8
 1705 003a BD46     		mov	sp, r7
ARM GAS  C:\Users\jisu8\AppData\Local\Temp\ccG1p0Yx.s 			page 45


 1706              	.LCFI149:
 1707              		.cfi_def_cfa_register 13
 1708              		@ sp needed
 1709 003c 80BD     		pop	{r7, pc}
 1710              		.cfi_endproc
 1711              	.LFE167:
 1713              		.section	.text.SDMMC_CmdAppCommand,"ax",%progbits
 1714              		.align	1
 1715              		.global	SDMMC_CmdAppCommand
 1716              		.syntax unified
 1717              		.thumb
 1718              		.thumb_func
 1720              	SDMMC_CmdAppCommand:
 1721              	.LFB168:
 843:Drivers/STM32F7xx_HAL_Driver/Src/stm32f7xx_ll_sdmmc.c **** 
 844:Drivers/STM32F7xx_HAL_Driver/Src/stm32f7xx_ll_sdmmc.c **** /**
 845:Drivers/STM32F7xx_HAL_Driver/Src/stm32f7xx_ll_sdmmc.c ****   * @brief  Send the Application command to verify that that the next command 
 846:Drivers/STM32F7xx_HAL_Driver/Src/stm32f7xx_ll_sdmmc.c ****   *         is an application specific com-mand rather than a standard command
 847:Drivers/STM32F7xx_HAL_Driver/Src/stm32f7xx_ll_sdmmc.c ****   *         and check the response.
 848:Drivers/STM32F7xx_HAL_Driver/Src/stm32f7xx_ll_sdmmc.c ****   * @param  SDMMCx: Pointer to SDMMC register base 
 849:Drivers/STM32F7xx_HAL_Driver/Src/stm32f7xx_ll_sdmmc.c ****   * @param  Argument: Command Argument 
 850:Drivers/STM32F7xx_HAL_Driver/Src/stm32f7xx_ll_sdmmc.c ****   * @retval HAL status
 851:Drivers/STM32F7xx_HAL_Driver/Src/stm32f7xx_ll_sdmmc.c ****   */
 852:Drivers/STM32F7xx_HAL_Driver/Src/stm32f7xx_ll_sdmmc.c **** uint32_t SDMMC_CmdAppCommand(SDMMC_TypeDef *SDMMCx, uint32_t Argument)
 853:Drivers/STM32F7xx_HAL_Driver/Src/stm32f7xx_ll_sdmmc.c **** {
 1722              		.loc 1 853 1
 1723              		.cfi_startproc
 1724              		@ args = 0, pretend = 0, frame = 32
 1725              		@ frame_needed = 1, uses_anonymous_args = 0
 1726 0000 80B5     		push	{r7, lr}
 1727              	.LCFI150:
 1728              		.cfi_def_cfa_offset 8
 1729              		.cfi_offset 7, -8
 1730              		.cfi_offset 14, -4
 1731 0002 88B0     		sub	sp, sp, #32
 1732              	.LCFI151:
 1733              		.cfi_def_cfa_offset 40
 1734 0004 00AF     		add	r7, sp, #0
 1735              	.LCFI152:
 1736              		.cfi_def_cfa_register 7
 1737 0006 7860     		str	r0, [r7, #4]
 1738 0008 3960     		str	r1, [r7]
 854:Drivers/STM32F7xx_HAL_Driver/Src/stm32f7xx_ll_sdmmc.c ****   SDMMC_CmdInitTypeDef  sdmmc_cmdinit;
 855:Drivers/STM32F7xx_HAL_Driver/Src/stm32f7xx_ll_sdmmc.c ****   uint32_t errorstate;
 856:Drivers/STM32F7xx_HAL_Driver/Src/stm32f7xx_ll_sdmmc.c ****   
 857:Drivers/STM32F7xx_HAL_Driver/Src/stm32f7xx_ll_sdmmc.c ****   sdmmc_cmdinit.Argument         = (uint32_t)Argument;
 1739              		.loc 1 857 34
 1740 000a 3B68     		ldr	r3, [r7]
 1741 000c BB60     		str	r3, [r7, #8]
 858:Drivers/STM32F7xx_HAL_Driver/Src/stm32f7xx_ll_sdmmc.c ****   sdmmc_cmdinit.CmdIndex         = SDMMC_CMD_APP_CMD;
 1742              		.loc 1 858 34
 1743 000e 3723     		movs	r3, #55
 1744 0010 FB60     		str	r3, [r7, #12]
 859:Drivers/STM32F7xx_HAL_Driver/Src/stm32f7xx_ll_sdmmc.c ****   sdmmc_cmdinit.Response         = SDMMC_RESPONSE_SHORT;
 1745              		.loc 1 859 34
 1746 0012 4023     		movs	r3, #64
 1747 0014 3B61     		str	r3, [r7, #16]
ARM GAS  C:\Users\jisu8\AppData\Local\Temp\ccG1p0Yx.s 			page 46


 860:Drivers/STM32F7xx_HAL_Driver/Src/stm32f7xx_ll_sdmmc.c ****   sdmmc_cmdinit.WaitForInterrupt = SDMMC_WAIT_NO;
 1748              		.loc 1 860 34
 1749 0016 0023     		movs	r3, #0
 1750 0018 7B61     		str	r3, [r7, #20]
 861:Drivers/STM32F7xx_HAL_Driver/Src/stm32f7xx_ll_sdmmc.c ****   sdmmc_cmdinit.CPSM             = SDMMC_CPSM_ENABLE;
 1751              		.loc 1 861 34
 1752 001a 4FF48063 		mov	r3, #1024
 1753 001e BB61     		str	r3, [r7, #24]
 862:Drivers/STM32F7xx_HAL_Driver/Src/stm32f7xx_ll_sdmmc.c ****   (void)SDMMC_SendCommand(SDMMCx, &sdmmc_cmdinit);
 1754              		.loc 1 862 9
 1755 0020 07F10803 		add	r3, r7, #8
 1756 0024 1946     		mov	r1, r3
 1757 0026 7868     		ldr	r0, [r7, #4]
 1758 0028 FFF7FEFF 		bl	SDMMC_SendCommand
 863:Drivers/STM32F7xx_HAL_Driver/Src/stm32f7xx_ll_sdmmc.c ****   
 864:Drivers/STM32F7xx_HAL_Driver/Src/stm32f7xx_ll_sdmmc.c ****   /* Check for error conditions */
 865:Drivers/STM32F7xx_HAL_Driver/Src/stm32f7xx_ll_sdmmc.c ****   /* If there is a HAL_ERROR, it is a MMC card, else
 866:Drivers/STM32F7xx_HAL_Driver/Src/stm32f7xx_ll_sdmmc.c ****   it is a SD card: SD card 2.0 (voltage range mismatch)
 867:Drivers/STM32F7xx_HAL_Driver/Src/stm32f7xx_ll_sdmmc.c ****      or SD card 1.x */
 868:Drivers/STM32F7xx_HAL_Driver/Src/stm32f7xx_ll_sdmmc.c ****   errorstate = SDMMC_GetCmdResp1(SDMMCx, SDMMC_CMD_APP_CMD, SDMMC_CMDTIMEOUT);
 1759              		.loc 1 868 16
 1760 002c 41F28832 		movw	r2, #5000
 1761 0030 3721     		movs	r1, #55
 1762 0032 7868     		ldr	r0, [r7, #4]
 1763 0034 FFF7FEFF 		bl	SDMMC_GetCmdResp1
 1764 0038 F861     		str	r0, [r7, #28]
 869:Drivers/STM32F7xx_HAL_Driver/Src/stm32f7xx_ll_sdmmc.c **** 
 870:Drivers/STM32F7xx_HAL_Driver/Src/stm32f7xx_ll_sdmmc.c ****   return errorstate;
 1765              		.loc 1 870 10
 1766 003a FB69     		ldr	r3, [r7, #28]
 871:Drivers/STM32F7xx_HAL_Driver/Src/stm32f7xx_ll_sdmmc.c **** }
 1767              		.loc 1 871 1
 1768 003c 1846     		mov	r0, r3
 1769 003e 2037     		adds	r7, r7, #32
 1770              	.LCFI153:
 1771              		.cfi_def_cfa_offset 8
 1772 0040 BD46     		mov	sp, r7
 1773              	.LCFI154:
 1774              		.cfi_def_cfa_register 13
 1775              		@ sp needed
 1776 0042 80BD     		pop	{r7, pc}
 1777              		.cfi_endproc
 1778              	.LFE168:
 1780              		.section	.text.SDMMC_CmdAppOperCommand,"ax",%progbits
 1781              		.align	1
 1782              		.global	SDMMC_CmdAppOperCommand
 1783              		.syntax unified
 1784              		.thumb
 1785              		.thumb_func
 1787              	SDMMC_CmdAppOperCommand:
 1788              	.LFB169:
 872:Drivers/STM32F7xx_HAL_Driver/Src/stm32f7xx_ll_sdmmc.c **** 
 873:Drivers/STM32F7xx_HAL_Driver/Src/stm32f7xx_ll_sdmmc.c **** /**
 874:Drivers/STM32F7xx_HAL_Driver/Src/stm32f7xx_ll_sdmmc.c ****   * @brief  Send the command asking the accessed card to send its operating 
 875:Drivers/STM32F7xx_HAL_Driver/Src/stm32f7xx_ll_sdmmc.c ****   *         condition register (OCR)
 876:Drivers/STM32F7xx_HAL_Driver/Src/stm32f7xx_ll_sdmmc.c ****   * @param  SDMMCx: Pointer to SDMMC register base 
 877:Drivers/STM32F7xx_HAL_Driver/Src/stm32f7xx_ll_sdmmc.c ****   * @param  Argument: Command Argument
ARM GAS  C:\Users\jisu8\AppData\Local\Temp\ccG1p0Yx.s 			page 47


 878:Drivers/STM32F7xx_HAL_Driver/Src/stm32f7xx_ll_sdmmc.c ****   * @retval HAL status
 879:Drivers/STM32F7xx_HAL_Driver/Src/stm32f7xx_ll_sdmmc.c ****   */
 880:Drivers/STM32F7xx_HAL_Driver/Src/stm32f7xx_ll_sdmmc.c **** uint32_t SDMMC_CmdAppOperCommand(SDMMC_TypeDef *SDMMCx, uint32_t Argument)
 881:Drivers/STM32F7xx_HAL_Driver/Src/stm32f7xx_ll_sdmmc.c **** {
 1789              		.loc 1 881 1
 1790              		.cfi_startproc
 1791              		@ args = 0, pretend = 0, frame = 32
 1792              		@ frame_needed = 1, uses_anonymous_args = 0
 1793 0000 80B5     		push	{r7, lr}
 1794              	.LCFI155:
 1795              		.cfi_def_cfa_offset 8
 1796              		.cfi_offset 7, -8
 1797              		.cfi_offset 14, -4
 1798 0002 88B0     		sub	sp, sp, #32
 1799              	.LCFI156:
 1800              		.cfi_def_cfa_offset 40
 1801 0004 00AF     		add	r7, sp, #0
 1802              	.LCFI157:
 1803              		.cfi_def_cfa_register 7
 1804 0006 7860     		str	r0, [r7, #4]
 1805 0008 3960     		str	r1, [r7]
 882:Drivers/STM32F7xx_HAL_Driver/Src/stm32f7xx_ll_sdmmc.c ****   SDMMC_CmdInitTypeDef  sdmmc_cmdinit;
 883:Drivers/STM32F7xx_HAL_Driver/Src/stm32f7xx_ll_sdmmc.c ****   uint32_t errorstate;
 884:Drivers/STM32F7xx_HAL_Driver/Src/stm32f7xx_ll_sdmmc.c ****   
 885:Drivers/STM32F7xx_HAL_Driver/Src/stm32f7xx_ll_sdmmc.c ****   sdmmc_cmdinit.Argument         = SDMMC_VOLTAGE_WINDOW_SD | Argument;
 1806              		.loc 1 885 60
 1807 000a 3A68     		ldr	r2, [r7]
 1808 000c 0D4B     		ldr	r3, .L65
 1809 000e 1343     		orrs	r3, r3, r2
 1810              		.loc 1 885 34
 1811 0010 BB60     		str	r3, [r7, #8]
 886:Drivers/STM32F7xx_HAL_Driver/Src/stm32f7xx_ll_sdmmc.c ****   sdmmc_cmdinit.CmdIndex         = SDMMC_CMD_SD_APP_OP_COND;
 1812              		.loc 1 886 34
 1813 0012 2923     		movs	r3, #41
 1814 0014 FB60     		str	r3, [r7, #12]
 887:Drivers/STM32F7xx_HAL_Driver/Src/stm32f7xx_ll_sdmmc.c ****   sdmmc_cmdinit.Response         = SDMMC_RESPONSE_SHORT;
 1815              		.loc 1 887 34
 1816 0016 4023     		movs	r3, #64
 1817 0018 3B61     		str	r3, [r7, #16]
 888:Drivers/STM32F7xx_HAL_Driver/Src/stm32f7xx_ll_sdmmc.c ****   sdmmc_cmdinit.WaitForInterrupt = SDMMC_WAIT_NO;
 1818              		.loc 1 888 34
 1819 001a 0023     		movs	r3, #0
 1820 001c 7B61     		str	r3, [r7, #20]
 889:Drivers/STM32F7xx_HAL_Driver/Src/stm32f7xx_ll_sdmmc.c ****   sdmmc_cmdinit.CPSM             = SDMMC_CPSM_ENABLE;
 1821              		.loc 1 889 34
 1822 001e 4FF48063 		mov	r3, #1024
 1823 0022 BB61     		str	r3, [r7, #24]
 890:Drivers/STM32F7xx_HAL_Driver/Src/stm32f7xx_ll_sdmmc.c ****   (void)SDMMC_SendCommand(SDMMCx, &sdmmc_cmdinit);
 1824              		.loc 1 890 9
 1825 0024 07F10803 		add	r3, r7, #8
 1826 0028 1946     		mov	r1, r3
 1827 002a 7868     		ldr	r0, [r7, #4]
 1828 002c FFF7FEFF 		bl	SDMMC_SendCommand
 891:Drivers/STM32F7xx_HAL_Driver/Src/stm32f7xx_ll_sdmmc.c ****   
 892:Drivers/STM32F7xx_HAL_Driver/Src/stm32f7xx_ll_sdmmc.c ****   /* Check for error conditions */
 893:Drivers/STM32F7xx_HAL_Driver/Src/stm32f7xx_ll_sdmmc.c ****   errorstate = SDMMC_GetCmdResp3(SDMMCx);
 1829              		.loc 1 893 16
ARM GAS  C:\Users\jisu8\AppData\Local\Temp\ccG1p0Yx.s 			page 48


 1830 0030 7868     		ldr	r0, [r7, #4]
 1831 0032 FFF7FEFF 		bl	SDMMC_GetCmdResp3
 1832 0036 F861     		str	r0, [r7, #28]
 894:Drivers/STM32F7xx_HAL_Driver/Src/stm32f7xx_ll_sdmmc.c **** 
 895:Drivers/STM32F7xx_HAL_Driver/Src/stm32f7xx_ll_sdmmc.c ****   return errorstate;
 1833              		.loc 1 895 10
 1834 0038 FB69     		ldr	r3, [r7, #28]
 896:Drivers/STM32F7xx_HAL_Driver/Src/stm32f7xx_ll_sdmmc.c **** }
 1835              		.loc 1 896 1
 1836 003a 1846     		mov	r0, r3
 1837 003c 2037     		adds	r7, r7, #32
 1838              	.LCFI158:
 1839              		.cfi_def_cfa_offset 8
 1840 003e BD46     		mov	sp, r7
 1841              	.LCFI159:
 1842              		.cfi_def_cfa_register 13
 1843              		@ sp needed
 1844 0040 80BD     		pop	{r7, pc}
 1845              	.L66:
 1846 0042 00BF     		.align	2
 1847              	.L65:
 1848 0044 00001080 		.word	-2146435072
 1849              		.cfi_endproc
 1850              	.LFE169:
 1852              		.section	.text.SDMMC_CmdBusWidth,"ax",%progbits
 1853              		.align	1
 1854              		.global	SDMMC_CmdBusWidth
 1855              		.syntax unified
 1856              		.thumb
 1857              		.thumb_func
 1859              	SDMMC_CmdBusWidth:
 1860              	.LFB170:
 897:Drivers/STM32F7xx_HAL_Driver/Src/stm32f7xx_ll_sdmmc.c **** 
 898:Drivers/STM32F7xx_HAL_Driver/Src/stm32f7xx_ll_sdmmc.c **** /**
 899:Drivers/STM32F7xx_HAL_Driver/Src/stm32f7xx_ll_sdmmc.c ****   * @brief  Send the Bus Width command and check the response.
 900:Drivers/STM32F7xx_HAL_Driver/Src/stm32f7xx_ll_sdmmc.c ****   * @param  SDMMCx: Pointer to SDMMC register base 
 901:Drivers/STM32F7xx_HAL_Driver/Src/stm32f7xx_ll_sdmmc.c ****   * @param  BusWidth: BusWidth
 902:Drivers/STM32F7xx_HAL_Driver/Src/stm32f7xx_ll_sdmmc.c ****   * @retval HAL status
 903:Drivers/STM32F7xx_HAL_Driver/Src/stm32f7xx_ll_sdmmc.c ****   */
 904:Drivers/STM32F7xx_HAL_Driver/Src/stm32f7xx_ll_sdmmc.c **** uint32_t SDMMC_CmdBusWidth(SDMMC_TypeDef *SDMMCx, uint32_t BusWidth)
 905:Drivers/STM32F7xx_HAL_Driver/Src/stm32f7xx_ll_sdmmc.c **** {
 1861              		.loc 1 905 1
 1862              		.cfi_startproc
 1863              		@ args = 0, pretend = 0, frame = 32
 1864              		@ frame_needed = 1, uses_anonymous_args = 0
 1865 0000 80B5     		push	{r7, lr}
 1866              	.LCFI160:
 1867              		.cfi_def_cfa_offset 8
 1868              		.cfi_offset 7, -8
 1869              		.cfi_offset 14, -4
 1870 0002 88B0     		sub	sp, sp, #32
 1871              	.LCFI161:
 1872              		.cfi_def_cfa_offset 40
 1873 0004 00AF     		add	r7, sp, #0
 1874              	.LCFI162:
 1875              		.cfi_def_cfa_register 7
 1876 0006 7860     		str	r0, [r7, #4]
ARM GAS  C:\Users\jisu8\AppData\Local\Temp\ccG1p0Yx.s 			page 49


 1877 0008 3960     		str	r1, [r7]
 906:Drivers/STM32F7xx_HAL_Driver/Src/stm32f7xx_ll_sdmmc.c ****   SDMMC_CmdInitTypeDef  sdmmc_cmdinit;
 907:Drivers/STM32F7xx_HAL_Driver/Src/stm32f7xx_ll_sdmmc.c ****   uint32_t errorstate;
 908:Drivers/STM32F7xx_HAL_Driver/Src/stm32f7xx_ll_sdmmc.c ****   
 909:Drivers/STM32F7xx_HAL_Driver/Src/stm32f7xx_ll_sdmmc.c ****   sdmmc_cmdinit.Argument         = (uint32_t)BusWidth;
 1878              		.loc 1 909 34
 1879 000a 3B68     		ldr	r3, [r7]
 1880 000c BB60     		str	r3, [r7, #8]
 910:Drivers/STM32F7xx_HAL_Driver/Src/stm32f7xx_ll_sdmmc.c ****   sdmmc_cmdinit.CmdIndex         = SDMMC_CMD_APP_SD_SET_BUSWIDTH;
 1881              		.loc 1 910 34
 1882 000e 0623     		movs	r3, #6
 1883 0010 FB60     		str	r3, [r7, #12]
 911:Drivers/STM32F7xx_HAL_Driver/Src/stm32f7xx_ll_sdmmc.c ****   sdmmc_cmdinit.Response         = SDMMC_RESPONSE_SHORT;
 1884              		.loc 1 911 34
 1885 0012 4023     		movs	r3, #64
 1886 0014 3B61     		str	r3, [r7, #16]
 912:Drivers/STM32F7xx_HAL_Driver/Src/stm32f7xx_ll_sdmmc.c ****   sdmmc_cmdinit.WaitForInterrupt = SDMMC_WAIT_NO;
 1887              		.loc 1 912 34
 1888 0016 0023     		movs	r3, #0
 1889 0018 7B61     		str	r3, [r7, #20]
 913:Drivers/STM32F7xx_HAL_Driver/Src/stm32f7xx_ll_sdmmc.c ****   sdmmc_cmdinit.CPSM             = SDMMC_CPSM_ENABLE;
 1890              		.loc 1 913 34
 1891 001a 4FF48063 		mov	r3, #1024
 1892 001e BB61     		str	r3, [r7, #24]
 914:Drivers/STM32F7xx_HAL_Driver/Src/stm32f7xx_ll_sdmmc.c ****   (void)SDMMC_SendCommand(SDMMCx, &sdmmc_cmdinit);
 1893              		.loc 1 914 9
 1894 0020 07F10803 		add	r3, r7, #8
 1895 0024 1946     		mov	r1, r3
 1896 0026 7868     		ldr	r0, [r7, #4]
 1897 0028 FFF7FEFF 		bl	SDMMC_SendCommand
 915:Drivers/STM32F7xx_HAL_Driver/Src/stm32f7xx_ll_sdmmc.c ****   
 916:Drivers/STM32F7xx_HAL_Driver/Src/stm32f7xx_ll_sdmmc.c ****   /* Check for error conditions */
 917:Drivers/STM32F7xx_HAL_Driver/Src/stm32f7xx_ll_sdmmc.c ****   errorstate = SDMMC_GetCmdResp1(SDMMCx, SDMMC_CMD_APP_SD_SET_BUSWIDTH, SDMMC_CMDTIMEOUT);
 1898              		.loc 1 917 16
 1899 002c 41F28832 		movw	r2, #5000
 1900 0030 0621     		movs	r1, #6
 1901 0032 7868     		ldr	r0, [r7, #4]
 1902 0034 FFF7FEFF 		bl	SDMMC_GetCmdResp1
 1903 0038 F861     		str	r0, [r7, #28]
 918:Drivers/STM32F7xx_HAL_Driver/Src/stm32f7xx_ll_sdmmc.c **** 
 919:Drivers/STM32F7xx_HAL_Driver/Src/stm32f7xx_ll_sdmmc.c ****   return errorstate;
 1904              		.loc 1 919 10
 1905 003a FB69     		ldr	r3, [r7, #28]
 920:Drivers/STM32F7xx_HAL_Driver/Src/stm32f7xx_ll_sdmmc.c **** }
 1906              		.loc 1 920 1
 1907 003c 1846     		mov	r0, r3
 1908 003e 2037     		adds	r7, r7, #32
 1909              	.LCFI163:
 1910              		.cfi_def_cfa_offset 8
 1911 0040 BD46     		mov	sp, r7
 1912              	.LCFI164:
 1913              		.cfi_def_cfa_register 13
 1914              		@ sp needed
 1915 0042 80BD     		pop	{r7, pc}
 1916              		.cfi_endproc
 1917              	.LFE170:
 1919              		.section	.text.SDMMC_CmdSendSCR,"ax",%progbits
ARM GAS  C:\Users\jisu8\AppData\Local\Temp\ccG1p0Yx.s 			page 50


 1920              		.align	1
 1921              		.global	SDMMC_CmdSendSCR
 1922              		.syntax unified
 1923              		.thumb
 1924              		.thumb_func
 1926              	SDMMC_CmdSendSCR:
 1927              	.LFB171:
 921:Drivers/STM32F7xx_HAL_Driver/Src/stm32f7xx_ll_sdmmc.c **** 
 922:Drivers/STM32F7xx_HAL_Driver/Src/stm32f7xx_ll_sdmmc.c **** /**
 923:Drivers/STM32F7xx_HAL_Driver/Src/stm32f7xx_ll_sdmmc.c ****   * @brief  Send the Send SCR command and check the response.
 924:Drivers/STM32F7xx_HAL_Driver/Src/stm32f7xx_ll_sdmmc.c ****   * @param  SDMMCx: Pointer to SDMMC register base 
 925:Drivers/STM32F7xx_HAL_Driver/Src/stm32f7xx_ll_sdmmc.c ****   * @retval HAL status
 926:Drivers/STM32F7xx_HAL_Driver/Src/stm32f7xx_ll_sdmmc.c ****   */
 927:Drivers/STM32F7xx_HAL_Driver/Src/stm32f7xx_ll_sdmmc.c **** uint32_t SDMMC_CmdSendSCR(SDMMC_TypeDef *SDMMCx)
 928:Drivers/STM32F7xx_HAL_Driver/Src/stm32f7xx_ll_sdmmc.c **** {
 1928              		.loc 1 928 1
 1929              		.cfi_startproc
 1930              		@ args = 0, pretend = 0, frame = 32
 1931              		@ frame_needed = 1, uses_anonymous_args = 0
 1932 0000 80B5     		push	{r7, lr}
 1933              	.LCFI165:
 1934              		.cfi_def_cfa_offset 8
 1935              		.cfi_offset 7, -8
 1936              		.cfi_offset 14, -4
 1937 0002 88B0     		sub	sp, sp, #32
 1938              	.LCFI166:
 1939              		.cfi_def_cfa_offset 40
 1940 0004 00AF     		add	r7, sp, #0
 1941              	.LCFI167:
 1942              		.cfi_def_cfa_register 7
 1943 0006 7860     		str	r0, [r7, #4]
 929:Drivers/STM32F7xx_HAL_Driver/Src/stm32f7xx_ll_sdmmc.c ****   SDMMC_CmdInitTypeDef  sdmmc_cmdinit;
 930:Drivers/STM32F7xx_HAL_Driver/Src/stm32f7xx_ll_sdmmc.c ****   uint32_t errorstate;
 931:Drivers/STM32F7xx_HAL_Driver/Src/stm32f7xx_ll_sdmmc.c ****   
 932:Drivers/STM32F7xx_HAL_Driver/Src/stm32f7xx_ll_sdmmc.c ****   /* Send CMD51 SD_APP_SEND_SCR */
 933:Drivers/STM32F7xx_HAL_Driver/Src/stm32f7xx_ll_sdmmc.c ****   sdmmc_cmdinit.Argument         = 0U;
 1944              		.loc 1 933 34
 1945 0008 0023     		movs	r3, #0
 1946 000a BB60     		str	r3, [r7, #8]
 934:Drivers/STM32F7xx_HAL_Driver/Src/stm32f7xx_ll_sdmmc.c ****   sdmmc_cmdinit.CmdIndex         = SDMMC_CMD_SD_APP_SEND_SCR;
 1947              		.loc 1 934 34
 1948 000c 3323     		movs	r3, #51
 1949 000e FB60     		str	r3, [r7, #12]
 935:Drivers/STM32F7xx_HAL_Driver/Src/stm32f7xx_ll_sdmmc.c ****   sdmmc_cmdinit.Response         = SDMMC_RESPONSE_SHORT;
 1950              		.loc 1 935 34
 1951 0010 4023     		movs	r3, #64
 1952 0012 3B61     		str	r3, [r7, #16]
 936:Drivers/STM32F7xx_HAL_Driver/Src/stm32f7xx_ll_sdmmc.c ****   sdmmc_cmdinit.WaitForInterrupt = SDMMC_WAIT_NO;
 1953              		.loc 1 936 34
 1954 0014 0023     		movs	r3, #0
 1955 0016 7B61     		str	r3, [r7, #20]
 937:Drivers/STM32F7xx_HAL_Driver/Src/stm32f7xx_ll_sdmmc.c ****   sdmmc_cmdinit.CPSM             = SDMMC_CPSM_ENABLE;
 1956              		.loc 1 937 34
 1957 0018 4FF48063 		mov	r3, #1024
 1958 001c BB61     		str	r3, [r7, #24]
 938:Drivers/STM32F7xx_HAL_Driver/Src/stm32f7xx_ll_sdmmc.c ****   (void)SDMMC_SendCommand(SDMMCx, &sdmmc_cmdinit);
 1959              		.loc 1 938 9
ARM GAS  C:\Users\jisu8\AppData\Local\Temp\ccG1p0Yx.s 			page 51


 1960 001e 07F10803 		add	r3, r7, #8
 1961 0022 1946     		mov	r1, r3
 1962 0024 7868     		ldr	r0, [r7, #4]
 1963 0026 FFF7FEFF 		bl	SDMMC_SendCommand
 939:Drivers/STM32F7xx_HAL_Driver/Src/stm32f7xx_ll_sdmmc.c ****   
 940:Drivers/STM32F7xx_HAL_Driver/Src/stm32f7xx_ll_sdmmc.c ****   /* Check for error conditions */
 941:Drivers/STM32F7xx_HAL_Driver/Src/stm32f7xx_ll_sdmmc.c ****   errorstate = SDMMC_GetCmdResp1(SDMMCx, SDMMC_CMD_SD_APP_SEND_SCR, SDMMC_CMDTIMEOUT);
 1964              		.loc 1 941 16
 1965 002a 41F28832 		movw	r2, #5000
 1966 002e 3321     		movs	r1, #51
 1967 0030 7868     		ldr	r0, [r7, #4]
 1968 0032 FFF7FEFF 		bl	SDMMC_GetCmdResp1
 1969 0036 F861     		str	r0, [r7, #28]
 942:Drivers/STM32F7xx_HAL_Driver/Src/stm32f7xx_ll_sdmmc.c **** 
 943:Drivers/STM32F7xx_HAL_Driver/Src/stm32f7xx_ll_sdmmc.c ****   return errorstate;
 1970              		.loc 1 943 10
 1971 0038 FB69     		ldr	r3, [r7, #28]
 944:Drivers/STM32F7xx_HAL_Driver/Src/stm32f7xx_ll_sdmmc.c **** }
 1972              		.loc 1 944 1
 1973 003a 1846     		mov	r0, r3
 1974 003c 2037     		adds	r7, r7, #32
 1975              	.LCFI168:
 1976              		.cfi_def_cfa_offset 8
 1977 003e BD46     		mov	sp, r7
 1978              	.LCFI169:
 1979              		.cfi_def_cfa_register 13
 1980              		@ sp needed
 1981 0040 80BD     		pop	{r7, pc}
 1982              		.cfi_endproc
 1983              	.LFE171:
 1985              		.section	.text.SDMMC_CmdSendCID,"ax",%progbits
 1986              		.align	1
 1987              		.global	SDMMC_CmdSendCID
 1988              		.syntax unified
 1989              		.thumb
 1990              		.thumb_func
 1992              	SDMMC_CmdSendCID:
 1993              	.LFB172:
 945:Drivers/STM32F7xx_HAL_Driver/Src/stm32f7xx_ll_sdmmc.c **** 
 946:Drivers/STM32F7xx_HAL_Driver/Src/stm32f7xx_ll_sdmmc.c **** /**
 947:Drivers/STM32F7xx_HAL_Driver/Src/stm32f7xx_ll_sdmmc.c ****   * @brief  Send the Send CID command and check the response.
 948:Drivers/STM32F7xx_HAL_Driver/Src/stm32f7xx_ll_sdmmc.c ****   * @param  SDMMCx: Pointer to SDMMC register base 
 949:Drivers/STM32F7xx_HAL_Driver/Src/stm32f7xx_ll_sdmmc.c ****   * @retval HAL status
 950:Drivers/STM32F7xx_HAL_Driver/Src/stm32f7xx_ll_sdmmc.c ****   */
 951:Drivers/STM32F7xx_HAL_Driver/Src/stm32f7xx_ll_sdmmc.c **** uint32_t SDMMC_CmdSendCID(SDMMC_TypeDef *SDMMCx)
 952:Drivers/STM32F7xx_HAL_Driver/Src/stm32f7xx_ll_sdmmc.c **** {
 1994              		.loc 1 952 1
 1995              		.cfi_startproc
 1996              		@ args = 0, pretend = 0, frame = 32
 1997              		@ frame_needed = 1, uses_anonymous_args = 0
 1998 0000 80B5     		push	{r7, lr}
 1999              	.LCFI170:
 2000              		.cfi_def_cfa_offset 8
 2001              		.cfi_offset 7, -8
 2002              		.cfi_offset 14, -4
 2003 0002 88B0     		sub	sp, sp, #32
 2004              	.LCFI171:
ARM GAS  C:\Users\jisu8\AppData\Local\Temp\ccG1p0Yx.s 			page 52


 2005              		.cfi_def_cfa_offset 40
 2006 0004 00AF     		add	r7, sp, #0
 2007              	.LCFI172:
 2008              		.cfi_def_cfa_register 7
 2009 0006 7860     		str	r0, [r7, #4]
 953:Drivers/STM32F7xx_HAL_Driver/Src/stm32f7xx_ll_sdmmc.c ****   SDMMC_CmdInitTypeDef  sdmmc_cmdinit;
 954:Drivers/STM32F7xx_HAL_Driver/Src/stm32f7xx_ll_sdmmc.c ****   uint32_t errorstate;
 955:Drivers/STM32F7xx_HAL_Driver/Src/stm32f7xx_ll_sdmmc.c ****   
 956:Drivers/STM32F7xx_HAL_Driver/Src/stm32f7xx_ll_sdmmc.c ****   /* Send CMD2 ALL_SEND_CID */
 957:Drivers/STM32F7xx_HAL_Driver/Src/stm32f7xx_ll_sdmmc.c ****   sdmmc_cmdinit.Argument         = 0U;
 2010              		.loc 1 957 34
 2011 0008 0023     		movs	r3, #0
 2012 000a BB60     		str	r3, [r7, #8]
 958:Drivers/STM32F7xx_HAL_Driver/Src/stm32f7xx_ll_sdmmc.c ****   sdmmc_cmdinit.CmdIndex         = SDMMC_CMD_ALL_SEND_CID;
 2013              		.loc 1 958 34
 2014 000c 0223     		movs	r3, #2
 2015 000e FB60     		str	r3, [r7, #12]
 959:Drivers/STM32F7xx_HAL_Driver/Src/stm32f7xx_ll_sdmmc.c ****   sdmmc_cmdinit.Response         = SDMMC_RESPONSE_LONG;
 2016              		.loc 1 959 34
 2017 0010 C023     		movs	r3, #192
 2018 0012 3B61     		str	r3, [r7, #16]
 960:Drivers/STM32F7xx_HAL_Driver/Src/stm32f7xx_ll_sdmmc.c ****   sdmmc_cmdinit.WaitForInterrupt = SDMMC_WAIT_NO;
 2019              		.loc 1 960 34
 2020 0014 0023     		movs	r3, #0
 2021 0016 7B61     		str	r3, [r7, #20]
 961:Drivers/STM32F7xx_HAL_Driver/Src/stm32f7xx_ll_sdmmc.c ****   sdmmc_cmdinit.CPSM             = SDMMC_CPSM_ENABLE;
 2022              		.loc 1 961 34
 2023 0018 4FF48063 		mov	r3, #1024
 2024 001c BB61     		str	r3, [r7, #24]
 962:Drivers/STM32F7xx_HAL_Driver/Src/stm32f7xx_ll_sdmmc.c ****   (void)SDMMC_SendCommand(SDMMCx, &sdmmc_cmdinit);
 2025              		.loc 1 962 9
 2026 001e 07F10803 		add	r3, r7, #8
 2027 0022 1946     		mov	r1, r3
 2028 0024 7868     		ldr	r0, [r7, #4]
 2029 0026 FFF7FEFF 		bl	SDMMC_SendCommand
 963:Drivers/STM32F7xx_HAL_Driver/Src/stm32f7xx_ll_sdmmc.c ****   
 964:Drivers/STM32F7xx_HAL_Driver/Src/stm32f7xx_ll_sdmmc.c ****   /* Check for error conditions */
 965:Drivers/STM32F7xx_HAL_Driver/Src/stm32f7xx_ll_sdmmc.c ****   errorstate = SDMMC_GetCmdResp2(SDMMCx);
 2030              		.loc 1 965 16
 2031 002a 7868     		ldr	r0, [r7, #4]
 2032 002c FFF7FEFF 		bl	SDMMC_GetCmdResp2
 2033 0030 F861     		str	r0, [r7, #28]
 966:Drivers/STM32F7xx_HAL_Driver/Src/stm32f7xx_ll_sdmmc.c **** 
 967:Drivers/STM32F7xx_HAL_Driver/Src/stm32f7xx_ll_sdmmc.c ****   return errorstate;
 2034              		.loc 1 967 10
 2035 0032 FB69     		ldr	r3, [r7, #28]
 968:Drivers/STM32F7xx_HAL_Driver/Src/stm32f7xx_ll_sdmmc.c **** }
 2036              		.loc 1 968 1
 2037 0034 1846     		mov	r0, r3
 2038 0036 2037     		adds	r7, r7, #32
 2039              	.LCFI173:
 2040              		.cfi_def_cfa_offset 8
 2041 0038 BD46     		mov	sp, r7
 2042              	.LCFI174:
 2043              		.cfi_def_cfa_register 13
 2044              		@ sp needed
 2045 003a 80BD     		pop	{r7, pc}
ARM GAS  C:\Users\jisu8\AppData\Local\Temp\ccG1p0Yx.s 			page 53


 2046              		.cfi_endproc
 2047              	.LFE172:
 2049              		.section	.text.SDMMC_CmdSendCSD,"ax",%progbits
 2050              		.align	1
 2051              		.global	SDMMC_CmdSendCSD
 2052              		.syntax unified
 2053              		.thumb
 2054              		.thumb_func
 2056              	SDMMC_CmdSendCSD:
 2057              	.LFB173:
 969:Drivers/STM32F7xx_HAL_Driver/Src/stm32f7xx_ll_sdmmc.c **** 
 970:Drivers/STM32F7xx_HAL_Driver/Src/stm32f7xx_ll_sdmmc.c **** /**
 971:Drivers/STM32F7xx_HAL_Driver/Src/stm32f7xx_ll_sdmmc.c ****   * @brief  Send the Send CSD command and check the response.
 972:Drivers/STM32F7xx_HAL_Driver/Src/stm32f7xx_ll_sdmmc.c ****   * @param  SDMMCx: Pointer to SDMMC register base 
 973:Drivers/STM32F7xx_HAL_Driver/Src/stm32f7xx_ll_sdmmc.c ****   * @param  Argument: Command Argument
 974:Drivers/STM32F7xx_HAL_Driver/Src/stm32f7xx_ll_sdmmc.c ****   * @retval HAL status
 975:Drivers/STM32F7xx_HAL_Driver/Src/stm32f7xx_ll_sdmmc.c ****   */
 976:Drivers/STM32F7xx_HAL_Driver/Src/stm32f7xx_ll_sdmmc.c **** uint32_t SDMMC_CmdSendCSD(SDMMC_TypeDef *SDMMCx, uint32_t Argument)
 977:Drivers/STM32F7xx_HAL_Driver/Src/stm32f7xx_ll_sdmmc.c **** {
 2058              		.loc 1 977 1
 2059              		.cfi_startproc
 2060              		@ args = 0, pretend = 0, frame = 32
 2061              		@ frame_needed = 1, uses_anonymous_args = 0
 2062 0000 80B5     		push	{r7, lr}
 2063              	.LCFI175:
 2064              		.cfi_def_cfa_offset 8
 2065              		.cfi_offset 7, -8
 2066              		.cfi_offset 14, -4
 2067 0002 88B0     		sub	sp, sp, #32
 2068              	.LCFI176:
 2069              		.cfi_def_cfa_offset 40
 2070 0004 00AF     		add	r7, sp, #0
 2071              	.LCFI177:
 2072              		.cfi_def_cfa_register 7
 2073 0006 7860     		str	r0, [r7, #4]
 2074 0008 3960     		str	r1, [r7]
 978:Drivers/STM32F7xx_HAL_Driver/Src/stm32f7xx_ll_sdmmc.c ****   SDMMC_CmdInitTypeDef  sdmmc_cmdinit;
 979:Drivers/STM32F7xx_HAL_Driver/Src/stm32f7xx_ll_sdmmc.c ****   uint32_t errorstate;
 980:Drivers/STM32F7xx_HAL_Driver/Src/stm32f7xx_ll_sdmmc.c ****   
 981:Drivers/STM32F7xx_HAL_Driver/Src/stm32f7xx_ll_sdmmc.c ****   /* Send CMD9 SEND_CSD */
 982:Drivers/STM32F7xx_HAL_Driver/Src/stm32f7xx_ll_sdmmc.c ****   sdmmc_cmdinit.Argument         = Argument;
 2075              		.loc 1 982 34
 2076 000a 3B68     		ldr	r3, [r7]
 2077 000c BB60     		str	r3, [r7, #8]
 983:Drivers/STM32F7xx_HAL_Driver/Src/stm32f7xx_ll_sdmmc.c ****   sdmmc_cmdinit.CmdIndex         = SDMMC_CMD_SEND_CSD;
 2078              		.loc 1 983 34
 2079 000e 0923     		movs	r3, #9
 2080 0010 FB60     		str	r3, [r7, #12]
 984:Drivers/STM32F7xx_HAL_Driver/Src/stm32f7xx_ll_sdmmc.c ****   sdmmc_cmdinit.Response         = SDMMC_RESPONSE_LONG;
 2081              		.loc 1 984 34
 2082 0012 C023     		movs	r3, #192
 2083 0014 3B61     		str	r3, [r7, #16]
 985:Drivers/STM32F7xx_HAL_Driver/Src/stm32f7xx_ll_sdmmc.c ****   sdmmc_cmdinit.WaitForInterrupt = SDMMC_WAIT_NO;
 2084              		.loc 1 985 34
 2085 0016 0023     		movs	r3, #0
 2086 0018 7B61     		str	r3, [r7, #20]
 986:Drivers/STM32F7xx_HAL_Driver/Src/stm32f7xx_ll_sdmmc.c ****   sdmmc_cmdinit.CPSM             = SDMMC_CPSM_ENABLE;
ARM GAS  C:\Users\jisu8\AppData\Local\Temp\ccG1p0Yx.s 			page 54


 2087              		.loc 1 986 34
 2088 001a 4FF48063 		mov	r3, #1024
 2089 001e BB61     		str	r3, [r7, #24]
 987:Drivers/STM32F7xx_HAL_Driver/Src/stm32f7xx_ll_sdmmc.c ****   (void)SDMMC_SendCommand(SDMMCx, &sdmmc_cmdinit);
 2090              		.loc 1 987 9
 2091 0020 07F10803 		add	r3, r7, #8
 2092 0024 1946     		mov	r1, r3
 2093 0026 7868     		ldr	r0, [r7, #4]
 2094 0028 FFF7FEFF 		bl	SDMMC_SendCommand
 988:Drivers/STM32F7xx_HAL_Driver/Src/stm32f7xx_ll_sdmmc.c ****   
 989:Drivers/STM32F7xx_HAL_Driver/Src/stm32f7xx_ll_sdmmc.c ****   /* Check for error conditions */
 990:Drivers/STM32F7xx_HAL_Driver/Src/stm32f7xx_ll_sdmmc.c ****   errorstate = SDMMC_GetCmdResp2(SDMMCx);
 2095              		.loc 1 990 16
 2096 002c 7868     		ldr	r0, [r7, #4]
 2097 002e FFF7FEFF 		bl	SDMMC_GetCmdResp2
 2098 0032 F861     		str	r0, [r7, #28]
 991:Drivers/STM32F7xx_HAL_Driver/Src/stm32f7xx_ll_sdmmc.c **** 
 992:Drivers/STM32F7xx_HAL_Driver/Src/stm32f7xx_ll_sdmmc.c ****   return errorstate;
 2099              		.loc 1 992 10
 2100 0034 FB69     		ldr	r3, [r7, #28]
 993:Drivers/STM32F7xx_HAL_Driver/Src/stm32f7xx_ll_sdmmc.c **** }
 2101              		.loc 1 993 1
 2102 0036 1846     		mov	r0, r3
 2103 0038 2037     		adds	r7, r7, #32
 2104              	.LCFI178:
 2105              		.cfi_def_cfa_offset 8
 2106 003a BD46     		mov	sp, r7
 2107              	.LCFI179:
 2108              		.cfi_def_cfa_register 13
 2109              		@ sp needed
 2110 003c 80BD     		pop	{r7, pc}
 2111              		.cfi_endproc
 2112              	.LFE173:
 2114              		.section	.text.SDMMC_CmdSetRelAdd,"ax",%progbits
 2115              		.align	1
 2116              		.global	SDMMC_CmdSetRelAdd
 2117              		.syntax unified
 2118              		.thumb
 2119              		.thumb_func
 2121              	SDMMC_CmdSetRelAdd:
 2122              	.LFB174:
 994:Drivers/STM32F7xx_HAL_Driver/Src/stm32f7xx_ll_sdmmc.c **** 
 995:Drivers/STM32F7xx_HAL_Driver/Src/stm32f7xx_ll_sdmmc.c **** /**
 996:Drivers/STM32F7xx_HAL_Driver/Src/stm32f7xx_ll_sdmmc.c ****   * @brief  Send the Send CSD command and check the response.
 997:Drivers/STM32F7xx_HAL_Driver/Src/stm32f7xx_ll_sdmmc.c ****   * @param  SDMMCx: Pointer to SDMMC register base 
 998:Drivers/STM32F7xx_HAL_Driver/Src/stm32f7xx_ll_sdmmc.c ****   * @param  pRCA: Card RCA  
 999:Drivers/STM32F7xx_HAL_Driver/Src/stm32f7xx_ll_sdmmc.c ****   * @retval HAL status
1000:Drivers/STM32F7xx_HAL_Driver/Src/stm32f7xx_ll_sdmmc.c ****   */
1001:Drivers/STM32F7xx_HAL_Driver/Src/stm32f7xx_ll_sdmmc.c **** uint32_t SDMMC_CmdSetRelAdd(SDMMC_TypeDef *SDMMCx, uint16_t *pRCA)
1002:Drivers/STM32F7xx_HAL_Driver/Src/stm32f7xx_ll_sdmmc.c **** {
 2123              		.loc 1 1002 1
 2124              		.cfi_startproc
 2125              		@ args = 0, pretend = 0, frame = 32
 2126              		@ frame_needed = 1, uses_anonymous_args = 0
 2127 0000 80B5     		push	{r7, lr}
 2128              	.LCFI180:
 2129              		.cfi_def_cfa_offset 8
ARM GAS  C:\Users\jisu8\AppData\Local\Temp\ccG1p0Yx.s 			page 55


 2130              		.cfi_offset 7, -8
 2131              		.cfi_offset 14, -4
 2132 0002 88B0     		sub	sp, sp, #32
 2133              	.LCFI181:
 2134              		.cfi_def_cfa_offset 40
 2135 0004 00AF     		add	r7, sp, #0
 2136              	.LCFI182:
 2137              		.cfi_def_cfa_register 7
 2138 0006 7860     		str	r0, [r7, #4]
 2139 0008 3960     		str	r1, [r7]
1003:Drivers/STM32F7xx_HAL_Driver/Src/stm32f7xx_ll_sdmmc.c ****   SDMMC_CmdInitTypeDef  sdmmc_cmdinit;
1004:Drivers/STM32F7xx_HAL_Driver/Src/stm32f7xx_ll_sdmmc.c ****   uint32_t errorstate;
1005:Drivers/STM32F7xx_HAL_Driver/Src/stm32f7xx_ll_sdmmc.c ****   
1006:Drivers/STM32F7xx_HAL_Driver/Src/stm32f7xx_ll_sdmmc.c ****   /* Send CMD3 SD_CMD_SET_REL_ADDR */
1007:Drivers/STM32F7xx_HAL_Driver/Src/stm32f7xx_ll_sdmmc.c ****   sdmmc_cmdinit.Argument         = 0U;
 2140              		.loc 1 1007 34
 2141 000a 0023     		movs	r3, #0
 2142 000c BB60     		str	r3, [r7, #8]
1008:Drivers/STM32F7xx_HAL_Driver/Src/stm32f7xx_ll_sdmmc.c ****   sdmmc_cmdinit.CmdIndex         = SDMMC_CMD_SET_REL_ADDR;
 2143              		.loc 1 1008 34
 2144 000e 0323     		movs	r3, #3
 2145 0010 FB60     		str	r3, [r7, #12]
1009:Drivers/STM32F7xx_HAL_Driver/Src/stm32f7xx_ll_sdmmc.c ****   sdmmc_cmdinit.Response         = SDMMC_RESPONSE_SHORT;
 2146              		.loc 1 1009 34
 2147 0012 4023     		movs	r3, #64
 2148 0014 3B61     		str	r3, [r7, #16]
1010:Drivers/STM32F7xx_HAL_Driver/Src/stm32f7xx_ll_sdmmc.c ****   sdmmc_cmdinit.WaitForInterrupt = SDMMC_WAIT_NO;
 2149              		.loc 1 1010 34
 2150 0016 0023     		movs	r3, #0
 2151 0018 7B61     		str	r3, [r7, #20]
1011:Drivers/STM32F7xx_HAL_Driver/Src/stm32f7xx_ll_sdmmc.c ****   sdmmc_cmdinit.CPSM             = SDMMC_CPSM_ENABLE;
 2152              		.loc 1 1011 34
 2153 001a 4FF48063 		mov	r3, #1024
 2154 001e BB61     		str	r3, [r7, #24]
1012:Drivers/STM32F7xx_HAL_Driver/Src/stm32f7xx_ll_sdmmc.c ****   (void)SDMMC_SendCommand(SDMMCx, &sdmmc_cmdinit);
 2155              		.loc 1 1012 9
 2156 0020 07F10803 		add	r3, r7, #8
 2157 0024 1946     		mov	r1, r3
 2158 0026 7868     		ldr	r0, [r7, #4]
 2159 0028 FFF7FEFF 		bl	SDMMC_SendCommand
1013:Drivers/STM32F7xx_HAL_Driver/Src/stm32f7xx_ll_sdmmc.c ****   
1014:Drivers/STM32F7xx_HAL_Driver/Src/stm32f7xx_ll_sdmmc.c ****   /* Check for error conditions */
1015:Drivers/STM32F7xx_HAL_Driver/Src/stm32f7xx_ll_sdmmc.c ****   errorstate = SDMMC_GetCmdResp6(SDMMCx, SDMMC_CMD_SET_REL_ADDR, pRCA);
 2160              		.loc 1 1015 16
 2161 002c 3A68     		ldr	r2, [r7]
 2162 002e 0321     		movs	r1, #3
 2163 0030 7868     		ldr	r0, [r7, #4]
 2164 0032 FFF7FEFF 		bl	SDMMC_GetCmdResp6
 2165 0036 F861     		str	r0, [r7, #28]
1016:Drivers/STM32F7xx_HAL_Driver/Src/stm32f7xx_ll_sdmmc.c **** 
1017:Drivers/STM32F7xx_HAL_Driver/Src/stm32f7xx_ll_sdmmc.c ****   return errorstate;
 2166              		.loc 1 1017 10
 2167 0038 FB69     		ldr	r3, [r7, #28]
1018:Drivers/STM32F7xx_HAL_Driver/Src/stm32f7xx_ll_sdmmc.c **** }
 2168              		.loc 1 1018 1
 2169 003a 1846     		mov	r0, r3
 2170 003c 2037     		adds	r7, r7, #32
ARM GAS  C:\Users\jisu8\AppData\Local\Temp\ccG1p0Yx.s 			page 56


 2171              	.LCFI183:
 2172              		.cfi_def_cfa_offset 8
 2173 003e BD46     		mov	sp, r7
 2174              	.LCFI184:
 2175              		.cfi_def_cfa_register 13
 2176              		@ sp needed
 2177 0040 80BD     		pop	{r7, pc}
 2178              		.cfi_endproc
 2179              	.LFE174:
 2181              		.section	.text.SDMMC_CmdSetRelAddMmc,"ax",%progbits
 2182              		.align	1
 2183              		.global	SDMMC_CmdSetRelAddMmc
 2184              		.syntax unified
 2185              		.thumb
 2186              		.thumb_func
 2188              	SDMMC_CmdSetRelAddMmc:
 2189              	.LFB175:
1019:Drivers/STM32F7xx_HAL_Driver/Src/stm32f7xx_ll_sdmmc.c **** 
1020:Drivers/STM32F7xx_HAL_Driver/Src/stm32f7xx_ll_sdmmc.c **** /**
1021:Drivers/STM32F7xx_HAL_Driver/Src/stm32f7xx_ll_sdmmc.c ****   * @brief  Send the Set Relative Address command to MMC card (not SD card).
1022:Drivers/STM32F7xx_HAL_Driver/Src/stm32f7xx_ll_sdmmc.c ****   * @param  SDMMCx Pointer to SDMMC register base
1023:Drivers/STM32F7xx_HAL_Driver/Src/stm32f7xx_ll_sdmmc.c ****   * @param  RCA Card RCA
1024:Drivers/STM32F7xx_HAL_Driver/Src/stm32f7xx_ll_sdmmc.c ****   * @retval HAL status
1025:Drivers/STM32F7xx_HAL_Driver/Src/stm32f7xx_ll_sdmmc.c ****   */
1026:Drivers/STM32F7xx_HAL_Driver/Src/stm32f7xx_ll_sdmmc.c **** uint32_t SDMMC_CmdSetRelAddMmc(SDMMC_TypeDef *SDMMCx, uint16_t RCA)
1027:Drivers/STM32F7xx_HAL_Driver/Src/stm32f7xx_ll_sdmmc.c **** {
 2190              		.loc 1 1027 1
 2191              		.cfi_startproc
 2192              		@ args = 0, pretend = 0, frame = 32
 2193              		@ frame_needed = 1, uses_anonymous_args = 0
 2194 0000 80B5     		push	{r7, lr}
 2195              	.LCFI185:
 2196              		.cfi_def_cfa_offset 8
 2197              		.cfi_offset 7, -8
 2198              		.cfi_offset 14, -4
 2199 0002 88B0     		sub	sp, sp, #32
 2200              	.LCFI186:
 2201              		.cfi_def_cfa_offset 40
 2202 0004 00AF     		add	r7, sp, #0
 2203              	.LCFI187:
 2204              		.cfi_def_cfa_register 7
 2205 0006 7860     		str	r0, [r7, #4]
 2206 0008 0B46     		mov	r3, r1
 2207 000a 7B80     		strh	r3, [r7, #2]	@ movhi
1028:Drivers/STM32F7xx_HAL_Driver/Src/stm32f7xx_ll_sdmmc.c ****   SDMMC_CmdInitTypeDef  sdmmc_cmdinit;
1029:Drivers/STM32F7xx_HAL_Driver/Src/stm32f7xx_ll_sdmmc.c ****   uint32_t errorstate;
1030:Drivers/STM32F7xx_HAL_Driver/Src/stm32f7xx_ll_sdmmc.c **** 
1031:Drivers/STM32F7xx_HAL_Driver/Src/stm32f7xx_ll_sdmmc.c ****   /* Send CMD3 SD_CMD_SET_REL_ADDR */
1032:Drivers/STM32F7xx_HAL_Driver/Src/stm32f7xx_ll_sdmmc.c ****   sdmmc_cmdinit.Argument         = ((uint32_t)RCA << 16U);
 2208              		.loc 1 1032 37
 2209 000c 7B88     		ldrh	r3, [r7, #2]
 2210              		.loc 1 1032 51
 2211 000e 1B04     		lsls	r3, r3, #16
 2212              		.loc 1 1032 34
 2213 0010 BB60     		str	r3, [r7, #8]
1033:Drivers/STM32F7xx_HAL_Driver/Src/stm32f7xx_ll_sdmmc.c ****   sdmmc_cmdinit.CmdIndex         = SDMMC_CMD_SET_REL_ADDR;
 2214              		.loc 1 1033 34
ARM GAS  C:\Users\jisu8\AppData\Local\Temp\ccG1p0Yx.s 			page 57


 2215 0012 0323     		movs	r3, #3
 2216 0014 FB60     		str	r3, [r7, #12]
1034:Drivers/STM32F7xx_HAL_Driver/Src/stm32f7xx_ll_sdmmc.c ****   sdmmc_cmdinit.Response         = SDMMC_RESPONSE_SHORT;
 2217              		.loc 1 1034 34
 2218 0016 4023     		movs	r3, #64
 2219 0018 3B61     		str	r3, [r7, #16]
1035:Drivers/STM32F7xx_HAL_Driver/Src/stm32f7xx_ll_sdmmc.c ****   sdmmc_cmdinit.WaitForInterrupt = SDMMC_WAIT_NO;
 2220              		.loc 1 1035 34
 2221 001a 0023     		movs	r3, #0
 2222 001c 7B61     		str	r3, [r7, #20]
1036:Drivers/STM32F7xx_HAL_Driver/Src/stm32f7xx_ll_sdmmc.c ****   sdmmc_cmdinit.CPSM             = SDMMC_CPSM_ENABLE;
 2223              		.loc 1 1036 34
 2224 001e 4FF48063 		mov	r3, #1024
 2225 0022 BB61     		str	r3, [r7, #24]
1037:Drivers/STM32F7xx_HAL_Driver/Src/stm32f7xx_ll_sdmmc.c ****   (void)SDMMC_SendCommand(SDMMCx, &sdmmc_cmdinit);
 2226              		.loc 1 1037 9
 2227 0024 07F10803 		add	r3, r7, #8
 2228 0028 1946     		mov	r1, r3
 2229 002a 7868     		ldr	r0, [r7, #4]
 2230 002c FFF7FEFF 		bl	SDMMC_SendCommand
1038:Drivers/STM32F7xx_HAL_Driver/Src/stm32f7xx_ll_sdmmc.c **** 
1039:Drivers/STM32F7xx_HAL_Driver/Src/stm32f7xx_ll_sdmmc.c ****   /* Check for error conditions */
1040:Drivers/STM32F7xx_HAL_Driver/Src/stm32f7xx_ll_sdmmc.c ****   errorstate = SDMMC_GetCmdResp1(SDMMCx, SDMMC_CMD_SET_REL_ADDR, SDMMC_CMDTIMEOUT);
 2231              		.loc 1 1040 16
 2232 0030 41F28832 		movw	r2, #5000
 2233 0034 0321     		movs	r1, #3
 2234 0036 7868     		ldr	r0, [r7, #4]
 2235 0038 FFF7FEFF 		bl	SDMMC_GetCmdResp1
 2236 003c F861     		str	r0, [r7, #28]
1041:Drivers/STM32F7xx_HAL_Driver/Src/stm32f7xx_ll_sdmmc.c **** 
1042:Drivers/STM32F7xx_HAL_Driver/Src/stm32f7xx_ll_sdmmc.c ****   return errorstate;
 2237              		.loc 1 1042 10
 2238 003e FB69     		ldr	r3, [r7, #28]
1043:Drivers/STM32F7xx_HAL_Driver/Src/stm32f7xx_ll_sdmmc.c **** }
 2239              		.loc 1 1043 1
 2240 0040 1846     		mov	r0, r3
 2241 0042 2037     		adds	r7, r7, #32
 2242              	.LCFI188:
 2243              		.cfi_def_cfa_offset 8
 2244 0044 BD46     		mov	sp, r7
 2245              	.LCFI189:
 2246              		.cfi_def_cfa_register 13
 2247              		@ sp needed
 2248 0046 80BD     		pop	{r7, pc}
 2249              		.cfi_endproc
 2250              	.LFE175:
 2252              		.section	.text.SDMMC_CmdSendStatus,"ax",%progbits
 2253              		.align	1
 2254              		.global	SDMMC_CmdSendStatus
 2255              		.syntax unified
 2256              		.thumb
 2257              		.thumb_func
 2259              	SDMMC_CmdSendStatus:
 2260              	.LFB176:
1044:Drivers/STM32F7xx_HAL_Driver/Src/stm32f7xx_ll_sdmmc.c **** 
1045:Drivers/STM32F7xx_HAL_Driver/Src/stm32f7xx_ll_sdmmc.c **** /**
1046:Drivers/STM32F7xx_HAL_Driver/Src/stm32f7xx_ll_sdmmc.c ****   * @brief  Send the Status command and check the response.
ARM GAS  C:\Users\jisu8\AppData\Local\Temp\ccG1p0Yx.s 			page 58


1047:Drivers/STM32F7xx_HAL_Driver/Src/stm32f7xx_ll_sdmmc.c ****   * @param  SDMMCx: Pointer to SDMMC register base 
1048:Drivers/STM32F7xx_HAL_Driver/Src/stm32f7xx_ll_sdmmc.c ****   * @param  Argument: Command Argument
1049:Drivers/STM32F7xx_HAL_Driver/Src/stm32f7xx_ll_sdmmc.c ****   * @retval HAL status
1050:Drivers/STM32F7xx_HAL_Driver/Src/stm32f7xx_ll_sdmmc.c ****   */
1051:Drivers/STM32F7xx_HAL_Driver/Src/stm32f7xx_ll_sdmmc.c **** uint32_t SDMMC_CmdSendStatus(SDMMC_TypeDef *SDMMCx, uint32_t Argument)
1052:Drivers/STM32F7xx_HAL_Driver/Src/stm32f7xx_ll_sdmmc.c **** {
 2261              		.loc 1 1052 1
 2262              		.cfi_startproc
 2263              		@ args = 0, pretend = 0, frame = 32
 2264              		@ frame_needed = 1, uses_anonymous_args = 0
 2265 0000 80B5     		push	{r7, lr}
 2266              	.LCFI190:
 2267              		.cfi_def_cfa_offset 8
 2268              		.cfi_offset 7, -8
 2269              		.cfi_offset 14, -4
 2270 0002 88B0     		sub	sp, sp, #32
 2271              	.LCFI191:
 2272              		.cfi_def_cfa_offset 40
 2273 0004 00AF     		add	r7, sp, #0
 2274              	.LCFI192:
 2275              		.cfi_def_cfa_register 7
 2276 0006 7860     		str	r0, [r7, #4]
 2277 0008 3960     		str	r1, [r7]
1053:Drivers/STM32F7xx_HAL_Driver/Src/stm32f7xx_ll_sdmmc.c ****   SDMMC_CmdInitTypeDef  sdmmc_cmdinit;
1054:Drivers/STM32F7xx_HAL_Driver/Src/stm32f7xx_ll_sdmmc.c ****   uint32_t errorstate;
1055:Drivers/STM32F7xx_HAL_Driver/Src/stm32f7xx_ll_sdmmc.c ****   
1056:Drivers/STM32F7xx_HAL_Driver/Src/stm32f7xx_ll_sdmmc.c ****   sdmmc_cmdinit.Argument         = Argument;
 2278              		.loc 1 1056 34
 2279 000a 3B68     		ldr	r3, [r7]
 2280 000c BB60     		str	r3, [r7, #8]
1057:Drivers/STM32F7xx_HAL_Driver/Src/stm32f7xx_ll_sdmmc.c ****   sdmmc_cmdinit.CmdIndex         = SDMMC_CMD_SEND_STATUS;
 2281              		.loc 1 1057 34
 2282 000e 0D23     		movs	r3, #13
 2283 0010 FB60     		str	r3, [r7, #12]
1058:Drivers/STM32F7xx_HAL_Driver/Src/stm32f7xx_ll_sdmmc.c ****   sdmmc_cmdinit.Response         = SDMMC_RESPONSE_SHORT;
 2284              		.loc 1 1058 34
 2285 0012 4023     		movs	r3, #64
 2286 0014 3B61     		str	r3, [r7, #16]
1059:Drivers/STM32F7xx_HAL_Driver/Src/stm32f7xx_ll_sdmmc.c ****   sdmmc_cmdinit.WaitForInterrupt = SDMMC_WAIT_NO;
 2287              		.loc 1 1059 34
 2288 0016 0023     		movs	r3, #0
 2289 0018 7B61     		str	r3, [r7, #20]
1060:Drivers/STM32F7xx_HAL_Driver/Src/stm32f7xx_ll_sdmmc.c ****   sdmmc_cmdinit.CPSM             = SDMMC_CPSM_ENABLE;
 2290              		.loc 1 1060 34
 2291 001a 4FF48063 		mov	r3, #1024
 2292 001e BB61     		str	r3, [r7, #24]
1061:Drivers/STM32F7xx_HAL_Driver/Src/stm32f7xx_ll_sdmmc.c ****   (void)SDMMC_SendCommand(SDMMCx, &sdmmc_cmdinit);
 2293              		.loc 1 1061 9
 2294 0020 07F10803 		add	r3, r7, #8
 2295 0024 1946     		mov	r1, r3
 2296 0026 7868     		ldr	r0, [r7, #4]
 2297 0028 FFF7FEFF 		bl	SDMMC_SendCommand
1062:Drivers/STM32F7xx_HAL_Driver/Src/stm32f7xx_ll_sdmmc.c ****   HAL_Delay(1);
 2298              		.loc 1 1062 3
 2299 002c 0120     		movs	r0, #1
 2300 002e FFF7FEFF 		bl	HAL_Delay
1063:Drivers/STM32F7xx_HAL_Driver/Src/stm32f7xx_ll_sdmmc.c ****   /* Check for error conditions */
ARM GAS  C:\Users\jisu8\AppData\Local\Temp\ccG1p0Yx.s 			page 59


1064:Drivers/STM32F7xx_HAL_Driver/Src/stm32f7xx_ll_sdmmc.c ****   errorstate = SDMMC_GetCmdResp1(SDMMCx, SDMMC_CMD_SEND_STATUS, SDMMC_CMDTIMEOUT);
 2301              		.loc 1 1064 16
 2302 0032 41F28832 		movw	r2, #5000
 2303 0036 0D21     		movs	r1, #13
 2304 0038 7868     		ldr	r0, [r7, #4]
 2305 003a FFF7FEFF 		bl	SDMMC_GetCmdResp1
 2306 003e F861     		str	r0, [r7, #28]
1065:Drivers/STM32F7xx_HAL_Driver/Src/stm32f7xx_ll_sdmmc.c **** 
1066:Drivers/STM32F7xx_HAL_Driver/Src/stm32f7xx_ll_sdmmc.c ****   return errorstate;
 2307              		.loc 1 1066 10
 2308 0040 FB69     		ldr	r3, [r7, #28]
1067:Drivers/STM32F7xx_HAL_Driver/Src/stm32f7xx_ll_sdmmc.c **** }
 2309              		.loc 1 1067 1
 2310 0042 1846     		mov	r0, r3
 2311 0044 2037     		adds	r7, r7, #32
 2312              	.LCFI193:
 2313              		.cfi_def_cfa_offset 8
 2314 0046 BD46     		mov	sp, r7
 2315              	.LCFI194:
 2316              		.cfi_def_cfa_register 13
 2317              		@ sp needed
 2318 0048 80BD     		pop	{r7, pc}
 2319              		.cfi_endproc
 2320              	.LFE176:
 2322              		.section	.text.SDMMC_CmdStatusRegister,"ax",%progbits
 2323              		.align	1
 2324              		.global	SDMMC_CmdStatusRegister
 2325              		.syntax unified
 2326              		.thumb
 2327              		.thumb_func
 2329              	SDMMC_CmdStatusRegister:
 2330              	.LFB177:
1068:Drivers/STM32F7xx_HAL_Driver/Src/stm32f7xx_ll_sdmmc.c **** 
1069:Drivers/STM32F7xx_HAL_Driver/Src/stm32f7xx_ll_sdmmc.c **** /**
1070:Drivers/STM32F7xx_HAL_Driver/Src/stm32f7xx_ll_sdmmc.c ****   * @brief  Send the Status register command and check the response.
1071:Drivers/STM32F7xx_HAL_Driver/Src/stm32f7xx_ll_sdmmc.c ****   * @param  SDMMCx: Pointer to SDMMC register base 
1072:Drivers/STM32F7xx_HAL_Driver/Src/stm32f7xx_ll_sdmmc.c ****   * @retval HAL status
1073:Drivers/STM32F7xx_HAL_Driver/Src/stm32f7xx_ll_sdmmc.c ****   */
1074:Drivers/STM32F7xx_HAL_Driver/Src/stm32f7xx_ll_sdmmc.c **** uint32_t SDMMC_CmdStatusRegister(SDMMC_TypeDef *SDMMCx)
1075:Drivers/STM32F7xx_HAL_Driver/Src/stm32f7xx_ll_sdmmc.c **** {
 2331              		.loc 1 1075 1
 2332              		.cfi_startproc
 2333              		@ args = 0, pretend = 0, frame = 32
 2334              		@ frame_needed = 1, uses_anonymous_args = 0
 2335 0000 80B5     		push	{r7, lr}
 2336              	.LCFI195:
 2337              		.cfi_def_cfa_offset 8
 2338              		.cfi_offset 7, -8
 2339              		.cfi_offset 14, -4
 2340 0002 88B0     		sub	sp, sp, #32
 2341              	.LCFI196:
 2342              		.cfi_def_cfa_offset 40
 2343 0004 00AF     		add	r7, sp, #0
 2344              	.LCFI197:
 2345              		.cfi_def_cfa_register 7
 2346 0006 7860     		str	r0, [r7, #4]
1076:Drivers/STM32F7xx_HAL_Driver/Src/stm32f7xx_ll_sdmmc.c ****   SDMMC_CmdInitTypeDef  sdmmc_cmdinit;
ARM GAS  C:\Users\jisu8\AppData\Local\Temp\ccG1p0Yx.s 			page 60


1077:Drivers/STM32F7xx_HAL_Driver/Src/stm32f7xx_ll_sdmmc.c ****   uint32_t errorstate;
1078:Drivers/STM32F7xx_HAL_Driver/Src/stm32f7xx_ll_sdmmc.c ****   
1079:Drivers/STM32F7xx_HAL_Driver/Src/stm32f7xx_ll_sdmmc.c ****   sdmmc_cmdinit.Argument         = 0U;
 2347              		.loc 1 1079 34
 2348 0008 0023     		movs	r3, #0
 2349 000a BB60     		str	r3, [r7, #8]
1080:Drivers/STM32F7xx_HAL_Driver/Src/stm32f7xx_ll_sdmmc.c ****   sdmmc_cmdinit.CmdIndex         = SDMMC_CMD_SD_APP_STATUS;
 2350              		.loc 1 1080 34
 2351 000c 0D23     		movs	r3, #13
 2352 000e FB60     		str	r3, [r7, #12]
1081:Drivers/STM32F7xx_HAL_Driver/Src/stm32f7xx_ll_sdmmc.c ****   sdmmc_cmdinit.Response         = SDMMC_RESPONSE_SHORT;
 2353              		.loc 1 1081 34
 2354 0010 4023     		movs	r3, #64
 2355 0012 3B61     		str	r3, [r7, #16]
1082:Drivers/STM32F7xx_HAL_Driver/Src/stm32f7xx_ll_sdmmc.c ****   sdmmc_cmdinit.WaitForInterrupt = SDMMC_WAIT_NO;
 2356              		.loc 1 1082 34
 2357 0014 0023     		movs	r3, #0
 2358 0016 7B61     		str	r3, [r7, #20]
1083:Drivers/STM32F7xx_HAL_Driver/Src/stm32f7xx_ll_sdmmc.c ****   sdmmc_cmdinit.CPSM             = SDMMC_CPSM_ENABLE;
 2359              		.loc 1 1083 34
 2360 0018 4FF48063 		mov	r3, #1024
 2361 001c BB61     		str	r3, [r7, #24]
1084:Drivers/STM32F7xx_HAL_Driver/Src/stm32f7xx_ll_sdmmc.c ****   (void)SDMMC_SendCommand(SDMMCx, &sdmmc_cmdinit);
 2362              		.loc 1 1084 9
 2363 001e 07F10803 		add	r3, r7, #8
 2364 0022 1946     		mov	r1, r3
 2365 0024 7868     		ldr	r0, [r7, #4]
 2366 0026 FFF7FEFF 		bl	SDMMC_SendCommand
1085:Drivers/STM32F7xx_HAL_Driver/Src/stm32f7xx_ll_sdmmc.c ****   
1086:Drivers/STM32F7xx_HAL_Driver/Src/stm32f7xx_ll_sdmmc.c ****   /* Check for error conditions */
1087:Drivers/STM32F7xx_HAL_Driver/Src/stm32f7xx_ll_sdmmc.c ****   errorstate = SDMMC_GetCmdResp1(SDMMCx, SDMMC_CMD_SD_APP_STATUS, SDMMC_CMDTIMEOUT);
 2367              		.loc 1 1087 16
 2368 002a 41F28832 		movw	r2, #5000
 2369 002e 0D21     		movs	r1, #13
 2370 0030 7868     		ldr	r0, [r7, #4]
 2371 0032 FFF7FEFF 		bl	SDMMC_GetCmdResp1
 2372 0036 F861     		str	r0, [r7, #28]
1088:Drivers/STM32F7xx_HAL_Driver/Src/stm32f7xx_ll_sdmmc.c **** 
1089:Drivers/STM32F7xx_HAL_Driver/Src/stm32f7xx_ll_sdmmc.c ****   return errorstate;
 2373              		.loc 1 1089 10
 2374 0038 FB69     		ldr	r3, [r7, #28]
1090:Drivers/STM32F7xx_HAL_Driver/Src/stm32f7xx_ll_sdmmc.c **** }
 2375              		.loc 1 1090 1
 2376 003a 1846     		mov	r0, r3
 2377 003c 2037     		adds	r7, r7, #32
 2378              	.LCFI198:
 2379              		.cfi_def_cfa_offset 8
 2380 003e BD46     		mov	sp, r7
 2381              	.LCFI199:
 2382              		.cfi_def_cfa_register 13
 2383              		@ sp needed
 2384 0040 80BD     		pop	{r7, pc}
 2385              		.cfi_endproc
 2386              	.LFE177:
 2388              		.section	.text.SDMMC_CmdOpCondition,"ax",%progbits
 2389              		.align	1
 2390              		.global	SDMMC_CmdOpCondition
ARM GAS  C:\Users\jisu8\AppData\Local\Temp\ccG1p0Yx.s 			page 61


 2391              		.syntax unified
 2392              		.thumb
 2393              		.thumb_func
 2395              	SDMMC_CmdOpCondition:
 2396              	.LFB178:
1091:Drivers/STM32F7xx_HAL_Driver/Src/stm32f7xx_ll_sdmmc.c **** 
1092:Drivers/STM32F7xx_HAL_Driver/Src/stm32f7xx_ll_sdmmc.c **** /**
1093:Drivers/STM32F7xx_HAL_Driver/Src/stm32f7xx_ll_sdmmc.c ****   * @brief  Sends host capacity support information and activates the card's 
1094:Drivers/STM32F7xx_HAL_Driver/Src/stm32f7xx_ll_sdmmc.c ****   *         initialization process. Send SDMMC_CMD_SEND_OP_COND command
1095:Drivers/STM32F7xx_HAL_Driver/Src/stm32f7xx_ll_sdmmc.c ****   * @param  SDMMCx: Pointer to SDMMC register base 
1096:Drivers/STM32F7xx_HAL_Driver/Src/stm32f7xx_ll_sdmmc.c ****   * @parame Argument: Argument used for the command
1097:Drivers/STM32F7xx_HAL_Driver/Src/stm32f7xx_ll_sdmmc.c ****   * @retval HAL status
1098:Drivers/STM32F7xx_HAL_Driver/Src/stm32f7xx_ll_sdmmc.c ****   */
1099:Drivers/STM32F7xx_HAL_Driver/Src/stm32f7xx_ll_sdmmc.c **** uint32_t SDMMC_CmdOpCondition(SDMMC_TypeDef *SDMMCx, uint32_t Argument)
1100:Drivers/STM32F7xx_HAL_Driver/Src/stm32f7xx_ll_sdmmc.c **** {
 2397              		.loc 1 1100 1
 2398              		.cfi_startproc
 2399              		@ args = 0, pretend = 0, frame = 32
 2400              		@ frame_needed = 1, uses_anonymous_args = 0
 2401 0000 80B5     		push	{r7, lr}
 2402              	.LCFI200:
 2403              		.cfi_def_cfa_offset 8
 2404              		.cfi_offset 7, -8
 2405              		.cfi_offset 14, -4
 2406 0002 88B0     		sub	sp, sp, #32
 2407              	.LCFI201:
 2408              		.cfi_def_cfa_offset 40
 2409 0004 00AF     		add	r7, sp, #0
 2410              	.LCFI202:
 2411              		.cfi_def_cfa_register 7
 2412 0006 7860     		str	r0, [r7, #4]
 2413 0008 3960     		str	r1, [r7]
1101:Drivers/STM32F7xx_HAL_Driver/Src/stm32f7xx_ll_sdmmc.c ****   SDMMC_CmdInitTypeDef  sdmmc_cmdinit;
1102:Drivers/STM32F7xx_HAL_Driver/Src/stm32f7xx_ll_sdmmc.c ****   uint32_t errorstate;
1103:Drivers/STM32F7xx_HAL_Driver/Src/stm32f7xx_ll_sdmmc.c ****   
1104:Drivers/STM32F7xx_HAL_Driver/Src/stm32f7xx_ll_sdmmc.c ****   sdmmc_cmdinit.Argument         = Argument;
 2414              		.loc 1 1104 34
 2415 000a 3B68     		ldr	r3, [r7]
 2416 000c BB60     		str	r3, [r7, #8]
1105:Drivers/STM32F7xx_HAL_Driver/Src/stm32f7xx_ll_sdmmc.c ****   sdmmc_cmdinit.CmdIndex         = SDMMC_CMD_SEND_OP_COND;
 2417              		.loc 1 1105 34
 2418 000e 0123     		movs	r3, #1
 2419 0010 FB60     		str	r3, [r7, #12]
1106:Drivers/STM32F7xx_HAL_Driver/Src/stm32f7xx_ll_sdmmc.c ****   sdmmc_cmdinit.Response         = SDMMC_RESPONSE_SHORT;
 2420              		.loc 1 1106 34
 2421 0012 4023     		movs	r3, #64
 2422 0014 3B61     		str	r3, [r7, #16]
1107:Drivers/STM32F7xx_HAL_Driver/Src/stm32f7xx_ll_sdmmc.c ****   sdmmc_cmdinit.WaitForInterrupt = SDMMC_WAIT_NO;
 2423              		.loc 1 1107 34
 2424 0016 0023     		movs	r3, #0
 2425 0018 7B61     		str	r3, [r7, #20]
1108:Drivers/STM32F7xx_HAL_Driver/Src/stm32f7xx_ll_sdmmc.c ****   sdmmc_cmdinit.CPSM             = SDMMC_CPSM_ENABLE;
 2426              		.loc 1 1108 34
 2427 001a 4FF48063 		mov	r3, #1024
 2428 001e BB61     		str	r3, [r7, #24]
1109:Drivers/STM32F7xx_HAL_Driver/Src/stm32f7xx_ll_sdmmc.c ****   (void)SDMMC_SendCommand(SDMMCx, &sdmmc_cmdinit);
 2429              		.loc 1 1109 9
ARM GAS  C:\Users\jisu8\AppData\Local\Temp\ccG1p0Yx.s 			page 62


 2430 0020 07F10803 		add	r3, r7, #8
 2431 0024 1946     		mov	r1, r3
 2432 0026 7868     		ldr	r0, [r7, #4]
 2433 0028 FFF7FEFF 		bl	SDMMC_SendCommand
1110:Drivers/STM32F7xx_HAL_Driver/Src/stm32f7xx_ll_sdmmc.c ****   
1111:Drivers/STM32F7xx_HAL_Driver/Src/stm32f7xx_ll_sdmmc.c ****   /* Check for error conditions */
1112:Drivers/STM32F7xx_HAL_Driver/Src/stm32f7xx_ll_sdmmc.c ****   errorstate = SDMMC_GetCmdResp3(SDMMCx);
 2434              		.loc 1 1112 16
 2435 002c 7868     		ldr	r0, [r7, #4]
 2436 002e FFF7FEFF 		bl	SDMMC_GetCmdResp3
 2437 0032 F861     		str	r0, [r7, #28]
1113:Drivers/STM32F7xx_HAL_Driver/Src/stm32f7xx_ll_sdmmc.c **** 
1114:Drivers/STM32F7xx_HAL_Driver/Src/stm32f7xx_ll_sdmmc.c ****   return errorstate;
 2438              		.loc 1 1114 10
 2439 0034 FB69     		ldr	r3, [r7, #28]
1115:Drivers/STM32F7xx_HAL_Driver/Src/stm32f7xx_ll_sdmmc.c **** }
 2440              		.loc 1 1115 1
 2441 0036 1846     		mov	r0, r3
 2442 0038 2037     		adds	r7, r7, #32
 2443              	.LCFI203:
 2444              		.cfi_def_cfa_offset 8
 2445 003a BD46     		mov	sp, r7
 2446              	.LCFI204:
 2447              		.cfi_def_cfa_register 13
 2448              		@ sp needed
 2449 003c 80BD     		pop	{r7, pc}
 2450              		.cfi_endproc
 2451              	.LFE178:
 2453              		.section	.text.SDMMC_CmdSwitch,"ax",%progbits
 2454              		.align	1
 2455              		.global	SDMMC_CmdSwitch
 2456              		.syntax unified
 2457              		.thumb
 2458              		.thumb_func
 2460              	SDMMC_CmdSwitch:
 2461              	.LFB179:
1116:Drivers/STM32F7xx_HAL_Driver/Src/stm32f7xx_ll_sdmmc.c **** 
1117:Drivers/STM32F7xx_HAL_Driver/Src/stm32f7xx_ll_sdmmc.c **** /**
1118:Drivers/STM32F7xx_HAL_Driver/Src/stm32f7xx_ll_sdmmc.c ****   * @brief  Checks switchable function and switch card function. SDMMC_CMD_HS_SWITCH command
1119:Drivers/STM32F7xx_HAL_Driver/Src/stm32f7xx_ll_sdmmc.c ****   * @param  SDMMCx: Pointer to SDMMC register base 
1120:Drivers/STM32F7xx_HAL_Driver/Src/stm32f7xx_ll_sdmmc.c ****   * @parame Argument: Argument used for the command
1121:Drivers/STM32F7xx_HAL_Driver/Src/stm32f7xx_ll_sdmmc.c ****   * @retval HAL status
1122:Drivers/STM32F7xx_HAL_Driver/Src/stm32f7xx_ll_sdmmc.c ****   */
1123:Drivers/STM32F7xx_HAL_Driver/Src/stm32f7xx_ll_sdmmc.c **** uint32_t SDMMC_CmdSwitch(SDMMC_TypeDef *SDMMCx, uint32_t Argument)
1124:Drivers/STM32F7xx_HAL_Driver/Src/stm32f7xx_ll_sdmmc.c **** {
 2462              		.loc 1 1124 1
 2463              		.cfi_startproc
 2464              		@ args = 0, pretend = 0, frame = 32
 2465              		@ frame_needed = 1, uses_anonymous_args = 0
 2466 0000 80B5     		push	{r7, lr}
 2467              	.LCFI205:
 2468              		.cfi_def_cfa_offset 8
 2469              		.cfi_offset 7, -8
 2470              		.cfi_offset 14, -4
 2471 0002 88B0     		sub	sp, sp, #32
 2472              	.LCFI206:
 2473              		.cfi_def_cfa_offset 40
ARM GAS  C:\Users\jisu8\AppData\Local\Temp\ccG1p0Yx.s 			page 63


 2474 0004 00AF     		add	r7, sp, #0
 2475              	.LCFI207:
 2476              		.cfi_def_cfa_register 7
 2477 0006 7860     		str	r0, [r7, #4]
 2478 0008 3960     		str	r1, [r7]
1125:Drivers/STM32F7xx_HAL_Driver/Src/stm32f7xx_ll_sdmmc.c ****   SDMMC_CmdInitTypeDef  sdmmc_cmdinit;
1126:Drivers/STM32F7xx_HAL_Driver/Src/stm32f7xx_ll_sdmmc.c ****   uint32_t errorstate;
1127:Drivers/STM32F7xx_HAL_Driver/Src/stm32f7xx_ll_sdmmc.c ****   
1128:Drivers/STM32F7xx_HAL_Driver/Src/stm32f7xx_ll_sdmmc.c ****   /* Send CMD6 to activate SDR50 Mode and Power Limit 1.44W */
1129:Drivers/STM32F7xx_HAL_Driver/Src/stm32f7xx_ll_sdmmc.c ****   /* CMD Response: R1 */
1130:Drivers/STM32F7xx_HAL_Driver/Src/stm32f7xx_ll_sdmmc.c ****   sdmmc_cmdinit.Argument         = Argument; /* SDMMC_SDR25_SWITCH_PATTERN */
 2479              		.loc 1 1130 34
 2480 000a 3B68     		ldr	r3, [r7]
 2481 000c BB60     		str	r3, [r7, #8]
1131:Drivers/STM32F7xx_HAL_Driver/Src/stm32f7xx_ll_sdmmc.c ****   sdmmc_cmdinit.CmdIndex         = SDMMC_CMD_HS_SWITCH;
 2482              		.loc 1 1131 34
 2483 000e 0623     		movs	r3, #6
 2484 0010 FB60     		str	r3, [r7, #12]
1132:Drivers/STM32F7xx_HAL_Driver/Src/stm32f7xx_ll_sdmmc.c ****   sdmmc_cmdinit.Response         = SDMMC_RESPONSE_SHORT;
 2485              		.loc 1 1132 34
 2486 0012 4023     		movs	r3, #64
 2487 0014 3B61     		str	r3, [r7, #16]
1133:Drivers/STM32F7xx_HAL_Driver/Src/stm32f7xx_ll_sdmmc.c ****   sdmmc_cmdinit.WaitForInterrupt = SDMMC_WAIT_NO;
 2488              		.loc 1 1133 34
 2489 0016 0023     		movs	r3, #0
 2490 0018 7B61     		str	r3, [r7, #20]
1134:Drivers/STM32F7xx_HAL_Driver/Src/stm32f7xx_ll_sdmmc.c ****   sdmmc_cmdinit.CPSM             = SDMMC_CPSM_ENABLE;
 2491              		.loc 1 1134 34
 2492 001a 4FF48063 		mov	r3, #1024
 2493 001e BB61     		str	r3, [r7, #24]
1135:Drivers/STM32F7xx_HAL_Driver/Src/stm32f7xx_ll_sdmmc.c ****   (void)SDMMC_SendCommand(SDMMCx, &sdmmc_cmdinit);
 2494              		.loc 1 1135 9
 2495 0020 07F10803 		add	r3, r7, #8
 2496 0024 1946     		mov	r1, r3
 2497 0026 7868     		ldr	r0, [r7, #4]
 2498 0028 FFF7FEFF 		bl	SDMMC_SendCommand
1136:Drivers/STM32F7xx_HAL_Driver/Src/stm32f7xx_ll_sdmmc.c ****   
1137:Drivers/STM32F7xx_HAL_Driver/Src/stm32f7xx_ll_sdmmc.c ****   /* Check for error conditions */
1138:Drivers/STM32F7xx_HAL_Driver/Src/stm32f7xx_ll_sdmmc.c ****   errorstate = SDMMC_GetCmdResp1(SDMMCx, SDMMC_CMD_HS_SWITCH, SDMMC_CMDTIMEOUT);
 2499              		.loc 1 1138 16
 2500 002c 41F28832 		movw	r2, #5000
 2501 0030 0621     		movs	r1, #6
 2502 0032 7868     		ldr	r0, [r7, #4]
 2503 0034 FFF7FEFF 		bl	SDMMC_GetCmdResp1
 2504 0038 F861     		str	r0, [r7, #28]
1139:Drivers/STM32F7xx_HAL_Driver/Src/stm32f7xx_ll_sdmmc.c **** 
1140:Drivers/STM32F7xx_HAL_Driver/Src/stm32f7xx_ll_sdmmc.c ****   return errorstate;
 2505              		.loc 1 1140 10
 2506 003a FB69     		ldr	r3, [r7, #28]
1141:Drivers/STM32F7xx_HAL_Driver/Src/stm32f7xx_ll_sdmmc.c **** }
 2507              		.loc 1 1141 1
 2508 003c 1846     		mov	r0, r3
 2509 003e 2037     		adds	r7, r7, #32
 2510              	.LCFI208:
 2511              		.cfi_def_cfa_offset 8
 2512 0040 BD46     		mov	sp, r7
 2513              	.LCFI209:
ARM GAS  C:\Users\jisu8\AppData\Local\Temp\ccG1p0Yx.s 			page 64


 2514              		.cfi_def_cfa_register 13
 2515              		@ sp needed
 2516 0042 80BD     		pop	{r7, pc}
 2517              		.cfi_endproc
 2518              	.LFE179:
 2520              		.section	.text.SDMMC_CmdSendEXTCSD,"ax",%progbits
 2521              		.align	1
 2522              		.global	SDMMC_CmdSendEXTCSD
 2523              		.syntax unified
 2524              		.thumb
 2525              		.thumb_func
 2527              	SDMMC_CmdSendEXTCSD:
 2528              	.LFB180:
1142:Drivers/STM32F7xx_HAL_Driver/Src/stm32f7xx_ll_sdmmc.c **** 
1143:Drivers/STM32F7xx_HAL_Driver/Src/stm32f7xx_ll_sdmmc.c **** /**
1144:Drivers/STM32F7xx_HAL_Driver/Src/stm32f7xx_ll_sdmmc.c ****   * @brief  Send the Send EXT_CSD command and check the response.
1145:Drivers/STM32F7xx_HAL_Driver/Src/stm32f7xx_ll_sdmmc.c ****   * @param  SDMMCx Pointer to SDMMC register base
1146:Drivers/STM32F7xx_HAL_Driver/Src/stm32f7xx_ll_sdmmc.c ****   * @param  Argument Command Argument
1147:Drivers/STM32F7xx_HAL_Driver/Src/stm32f7xx_ll_sdmmc.c ****   * @retval HAL status
1148:Drivers/STM32F7xx_HAL_Driver/Src/stm32f7xx_ll_sdmmc.c ****   */
1149:Drivers/STM32F7xx_HAL_Driver/Src/stm32f7xx_ll_sdmmc.c **** uint32_t SDMMC_CmdSendEXTCSD(SDMMC_TypeDef *SDMMCx, uint32_t Argument)
1150:Drivers/STM32F7xx_HAL_Driver/Src/stm32f7xx_ll_sdmmc.c **** {
 2529              		.loc 1 1150 1
 2530              		.cfi_startproc
 2531              		@ args = 0, pretend = 0, frame = 32
 2532              		@ frame_needed = 1, uses_anonymous_args = 0
 2533 0000 80B5     		push	{r7, lr}
 2534              	.LCFI210:
 2535              		.cfi_def_cfa_offset 8
 2536              		.cfi_offset 7, -8
 2537              		.cfi_offset 14, -4
 2538 0002 88B0     		sub	sp, sp, #32
 2539              	.LCFI211:
 2540              		.cfi_def_cfa_offset 40
 2541 0004 00AF     		add	r7, sp, #0
 2542              	.LCFI212:
 2543              		.cfi_def_cfa_register 7
 2544 0006 7860     		str	r0, [r7, #4]
 2545 0008 3960     		str	r1, [r7]
1151:Drivers/STM32F7xx_HAL_Driver/Src/stm32f7xx_ll_sdmmc.c ****   SDMMC_CmdInitTypeDef  sdmmc_cmdinit;
1152:Drivers/STM32F7xx_HAL_Driver/Src/stm32f7xx_ll_sdmmc.c ****   uint32_t errorstate;
1153:Drivers/STM32F7xx_HAL_Driver/Src/stm32f7xx_ll_sdmmc.c **** 
1154:Drivers/STM32F7xx_HAL_Driver/Src/stm32f7xx_ll_sdmmc.c ****   /* Send CMD9 SEND_CSD */
1155:Drivers/STM32F7xx_HAL_Driver/Src/stm32f7xx_ll_sdmmc.c ****   sdmmc_cmdinit.Argument         = Argument;
 2546              		.loc 1 1155 34
 2547 000a 3B68     		ldr	r3, [r7]
 2548 000c BB60     		str	r3, [r7, #8]
1156:Drivers/STM32F7xx_HAL_Driver/Src/stm32f7xx_ll_sdmmc.c ****   sdmmc_cmdinit.CmdIndex         = SDMMC_CMD_HS_SEND_EXT_CSD;
 2549              		.loc 1 1156 34
 2550 000e 0823     		movs	r3, #8
 2551 0010 FB60     		str	r3, [r7, #12]
1157:Drivers/STM32F7xx_HAL_Driver/Src/stm32f7xx_ll_sdmmc.c ****   sdmmc_cmdinit.Response         = SDMMC_RESPONSE_SHORT;
 2552              		.loc 1 1157 34
 2553 0012 4023     		movs	r3, #64
 2554 0014 3B61     		str	r3, [r7, #16]
1158:Drivers/STM32F7xx_HAL_Driver/Src/stm32f7xx_ll_sdmmc.c ****   sdmmc_cmdinit.WaitForInterrupt = SDMMC_WAIT_NO;
 2555              		.loc 1 1158 34
ARM GAS  C:\Users\jisu8\AppData\Local\Temp\ccG1p0Yx.s 			page 65


 2556 0016 0023     		movs	r3, #0
 2557 0018 7B61     		str	r3, [r7, #20]
1159:Drivers/STM32F7xx_HAL_Driver/Src/stm32f7xx_ll_sdmmc.c ****   sdmmc_cmdinit.CPSM             = SDMMC_CPSM_ENABLE;
 2558              		.loc 1 1159 34
 2559 001a 4FF48063 		mov	r3, #1024
 2560 001e BB61     		str	r3, [r7, #24]
1160:Drivers/STM32F7xx_HAL_Driver/Src/stm32f7xx_ll_sdmmc.c ****   (void)SDMMC_SendCommand(SDMMCx, &sdmmc_cmdinit);
 2561              		.loc 1 1160 9
 2562 0020 07F10803 		add	r3, r7, #8
 2563 0024 1946     		mov	r1, r3
 2564 0026 7868     		ldr	r0, [r7, #4]
 2565 0028 FFF7FEFF 		bl	SDMMC_SendCommand
1161:Drivers/STM32F7xx_HAL_Driver/Src/stm32f7xx_ll_sdmmc.c **** 
1162:Drivers/STM32F7xx_HAL_Driver/Src/stm32f7xx_ll_sdmmc.c ****   /* Check for error conditions */
1163:Drivers/STM32F7xx_HAL_Driver/Src/stm32f7xx_ll_sdmmc.c ****   errorstate = SDMMC_GetCmdResp1(SDMMCx, SDMMC_CMD_HS_SEND_EXT_CSD,SDMMC_CMDTIMEOUT);
 2566              		.loc 1 1163 16
 2567 002c 41F28832 		movw	r2, #5000
 2568 0030 0821     		movs	r1, #8
 2569 0032 7868     		ldr	r0, [r7, #4]
 2570 0034 FFF7FEFF 		bl	SDMMC_GetCmdResp1
 2571 0038 F861     		str	r0, [r7, #28]
1164:Drivers/STM32F7xx_HAL_Driver/Src/stm32f7xx_ll_sdmmc.c **** 
1165:Drivers/STM32F7xx_HAL_Driver/Src/stm32f7xx_ll_sdmmc.c ****   return errorstate;
 2572              		.loc 1 1165 10
 2573 003a FB69     		ldr	r3, [r7, #28]
1166:Drivers/STM32F7xx_HAL_Driver/Src/stm32f7xx_ll_sdmmc.c **** }
 2574              		.loc 1 1166 1
 2575 003c 1846     		mov	r0, r3
 2576 003e 2037     		adds	r7, r7, #32
 2577              	.LCFI213:
 2578              		.cfi_def_cfa_offset 8
 2579 0040 BD46     		mov	sp, r7
 2580              	.LCFI214:
 2581              		.cfi_def_cfa_register 13
 2582              		@ sp needed
 2583 0042 80BD     		pop	{r7, pc}
 2584              		.cfi_endproc
 2585              	.LFE180:
 2587              		.section	.text.SDMMC_GetCmdResp1,"ax",%progbits
 2588              		.align	1
 2589              		.global	SDMMC_GetCmdResp1
 2590              		.syntax unified
 2591              		.thumb
 2592              		.thumb_func
 2594              	SDMMC_GetCmdResp1:
 2595              	.LFB181:
1167:Drivers/STM32F7xx_HAL_Driver/Src/stm32f7xx_ll_sdmmc.c **** 
1168:Drivers/STM32F7xx_HAL_Driver/Src/stm32f7xx_ll_sdmmc.c **** /**
1169:Drivers/STM32F7xx_HAL_Driver/Src/stm32f7xx_ll_sdmmc.c ****   * @}
1170:Drivers/STM32F7xx_HAL_Driver/Src/stm32f7xx_ll_sdmmc.c ****   */
1171:Drivers/STM32F7xx_HAL_Driver/Src/stm32f7xx_ll_sdmmc.c **** 
1172:Drivers/STM32F7xx_HAL_Driver/Src/stm32f7xx_ll_sdmmc.c **** /** @defgroup HAL_SDMMC_LL_Group5 Responses management functions
1173:Drivers/STM32F7xx_HAL_Driver/Src/stm32f7xx_ll_sdmmc.c ****  *  @brief   Responses functions
1174:Drivers/STM32F7xx_HAL_Driver/Src/stm32f7xx_ll_sdmmc.c ****  *
1175:Drivers/STM32F7xx_HAL_Driver/Src/stm32f7xx_ll_sdmmc.c **** @verbatim
1176:Drivers/STM32F7xx_HAL_Driver/Src/stm32f7xx_ll_sdmmc.c ****  ===============================================================================
1177:Drivers/STM32F7xx_HAL_Driver/Src/stm32f7xx_ll_sdmmc.c ****                    ##### Responses management functions #####
ARM GAS  C:\Users\jisu8\AppData\Local\Temp\ccG1p0Yx.s 			page 66


1178:Drivers/STM32F7xx_HAL_Driver/Src/stm32f7xx_ll_sdmmc.c ****  ===============================================================================
1179:Drivers/STM32F7xx_HAL_Driver/Src/stm32f7xx_ll_sdmmc.c ****     [..]
1180:Drivers/STM32F7xx_HAL_Driver/Src/stm32f7xx_ll_sdmmc.c ****     This subsection provides a set of functions allowing to manage the needed responses.
1181:Drivers/STM32F7xx_HAL_Driver/Src/stm32f7xx_ll_sdmmc.c **** 
1182:Drivers/STM32F7xx_HAL_Driver/Src/stm32f7xx_ll_sdmmc.c **** @endverbatim
1183:Drivers/STM32F7xx_HAL_Driver/Src/stm32f7xx_ll_sdmmc.c ****   * @{
1184:Drivers/STM32F7xx_HAL_Driver/Src/stm32f7xx_ll_sdmmc.c ****   */
1185:Drivers/STM32F7xx_HAL_Driver/Src/stm32f7xx_ll_sdmmc.c **** /**
1186:Drivers/STM32F7xx_HAL_Driver/Src/stm32f7xx_ll_sdmmc.c ****   * @brief  Checks for error conditions for R1 response.
1187:Drivers/STM32F7xx_HAL_Driver/Src/stm32f7xx_ll_sdmmc.c ****   * @param  SDMMCx Pointer to SDMMC register base
1188:Drivers/STM32F7xx_HAL_Driver/Src/stm32f7xx_ll_sdmmc.c ****   * @param  SD_CMD: The sent command index  
1189:Drivers/STM32F7xx_HAL_Driver/Src/stm32f7xx_ll_sdmmc.c ****   * @retval SD Card error state
1190:Drivers/STM32F7xx_HAL_Driver/Src/stm32f7xx_ll_sdmmc.c ****   */
1191:Drivers/STM32F7xx_HAL_Driver/Src/stm32f7xx_ll_sdmmc.c **** uint32_t SDMMC_GetCmdResp1(SDMMC_TypeDef *SDMMCx, uint8_t SD_CMD, uint32_t Timeout)
1192:Drivers/STM32F7xx_HAL_Driver/Src/stm32f7xx_ll_sdmmc.c **** {
 2596              		.loc 1 1192 1
 2597              		.cfi_startproc
 2598              		@ args = 0, pretend = 0, frame = 32
 2599              		@ frame_needed = 1, uses_anonymous_args = 0
 2600 0000 80B5     		push	{r7, lr}
 2601              	.LCFI215:
 2602              		.cfi_def_cfa_offset 8
 2603              		.cfi_offset 7, -8
 2604              		.cfi_offset 14, -4
 2605 0002 88B0     		sub	sp, sp, #32
 2606              	.LCFI216:
 2607              		.cfi_def_cfa_offset 40
 2608 0004 00AF     		add	r7, sp, #0
 2609              	.LCFI217:
 2610              		.cfi_def_cfa_register 7
 2611 0006 F860     		str	r0, [r7, #12]
 2612 0008 0B46     		mov	r3, r1
 2613 000a 7A60     		str	r2, [r7, #4]
 2614 000c FB72     		strb	r3, [r7, #11]
1193:Drivers/STM32F7xx_HAL_Driver/Src/stm32f7xx_ll_sdmmc.c ****   uint32_t response_r1;
1194:Drivers/STM32F7xx_HAL_Driver/Src/stm32f7xx_ll_sdmmc.c ****   uint32_t sta_reg;
1195:Drivers/STM32F7xx_HAL_Driver/Src/stm32f7xx_ll_sdmmc.c ****   
1196:Drivers/STM32F7xx_HAL_Driver/Src/stm32f7xx_ll_sdmmc.c ****   /* 8 is the number of required instructions cycles for the below loop statement.
1197:Drivers/STM32F7xx_HAL_Driver/Src/stm32f7xx_ll_sdmmc.c ****   The Timeout is expressed in ms */
1198:Drivers/STM32F7xx_HAL_Driver/Src/stm32f7xx_ll_sdmmc.c ****   uint32_t count = Timeout * (SystemCoreClock / 8U /1000U);
 2615              		.loc 1 1198 52
 2616 000e 704B     		ldr	r3, .L115
 2617 0010 1B68     		ldr	r3, [r3]
 2618 0012 704A     		ldr	r2, .L115+4
 2619 0014 A2FB0323 		umull	r2, r3, r2, r3
 2620 0018 5A0A     		lsrs	r2, r3, #9
 2621              		.loc 1 1198 12
 2622 001a 7B68     		ldr	r3, [r7, #4]
 2623 001c 02FB03F3 		mul	r3, r2, r3
 2624 0020 FB61     		str	r3, [r7, #28]
 2625              	.L92:
1199:Drivers/STM32F7xx_HAL_Driver/Src/stm32f7xx_ll_sdmmc.c ****   
1200:Drivers/STM32F7xx_HAL_Driver/Src/stm32f7xx_ll_sdmmc.c ****   do
1201:Drivers/STM32F7xx_HAL_Driver/Src/stm32f7xx_ll_sdmmc.c ****   {
1202:Drivers/STM32F7xx_HAL_Driver/Src/stm32f7xx_ll_sdmmc.c ****     if (count-- == 0U)
 2626              		.loc 1 1202 14
 2627 0022 FB69     		ldr	r3, [r7, #28]
ARM GAS  C:\Users\jisu8\AppData\Local\Temp\ccG1p0Yx.s 			page 67


 2628 0024 5A1E     		subs	r2, r3, #1
 2629 0026 FA61     		str	r2, [r7, #28]
 2630              		.loc 1 1202 8
 2631 0028 002B     		cmp	r3, #0
 2632 002a 02D1     		bne	.L90
1203:Drivers/STM32F7xx_HAL_Driver/Src/stm32f7xx_ll_sdmmc.c ****     {
1204:Drivers/STM32F7xx_HAL_Driver/Src/stm32f7xx_ll_sdmmc.c ****       return SDMMC_ERROR_TIMEOUT;
 2633              		.loc 1 1204 14
 2634 002c 4FF00043 		mov	r3, #-2147483648
 2635 0030 C9E0     		b	.L91
 2636              	.L90:
1205:Drivers/STM32F7xx_HAL_Driver/Src/stm32f7xx_ll_sdmmc.c ****     }
1206:Drivers/STM32F7xx_HAL_Driver/Src/stm32f7xx_ll_sdmmc.c ****     sta_reg = SDMMCx->STA;
 2637              		.loc 1 1206 13
 2638 0032 FB68     		ldr	r3, [r7, #12]
 2639 0034 5B6B     		ldr	r3, [r3, #52]
 2640 0036 BB61     		str	r3, [r7, #24]
1207:Drivers/STM32F7xx_HAL_Driver/Src/stm32f7xx_ll_sdmmc.c ****   }while(((sta_reg & (SDMMC_FLAG_CCRCFAIL | SDMMC_FLAG_CMDREND | SDMMC_FLAG_CTIMEOUT)) == 0U) ||
 2641              		.loc 1 1207 20
 2642 0038 BB69     		ldr	r3, [r7, #24]
 2643 003a 03F04503 		and	r3, r3, #69
1208:Drivers/STM32F7xx_HAL_Driver/Src/stm32f7xx_ll_sdmmc.c ****          ((sta_reg & SDMMC_FLAG_CMDACT) != 0U ));
 2644              		.loc 1 1208 10
 2645 003e 002B     		cmp	r3, #0
 2646 0040 EFD0     		beq	.L92
 2647              		.loc 1 1208 20 discriminator 1
 2648 0042 BB69     		ldr	r3, [r7, #24]
 2649 0044 03F40063 		and	r3, r3, #2048
1207:Drivers/STM32F7xx_HAL_Driver/Src/stm32f7xx_ll_sdmmc.c ****   }while(((sta_reg & (SDMMC_FLAG_CCRCFAIL | SDMMC_FLAG_CMDREND | SDMMC_FLAG_CTIMEOUT)) == 0U) ||
 2650              		.loc 1 1207 95 discriminator 1
 2651 0048 002B     		cmp	r3, #0
 2652 004a EAD1     		bne	.L92
1209:Drivers/STM32F7xx_HAL_Driver/Src/stm32f7xx_ll_sdmmc.c ****     
1210:Drivers/STM32F7xx_HAL_Driver/Src/stm32f7xx_ll_sdmmc.c ****   if(__SDMMC_GET_FLAG(SDMMCx, SDMMC_FLAG_CTIMEOUT))
 2653              		.loc 1 1210 6
 2654 004c FB68     		ldr	r3, [r7, #12]
 2655 004e 5B6B     		ldr	r3, [r3, #52]
 2656 0050 03F00403 		and	r3, r3, #4
 2657              		.loc 1 1210 5
 2658 0054 002B     		cmp	r3, #0
 2659 0056 04D0     		beq	.L93
1211:Drivers/STM32F7xx_HAL_Driver/Src/stm32f7xx_ll_sdmmc.c ****   {
1212:Drivers/STM32F7xx_HAL_Driver/Src/stm32f7xx_ll_sdmmc.c ****     __SDMMC_CLEAR_FLAG(SDMMCx, SDMMC_FLAG_CTIMEOUT);
 2660              		.loc 1 1212 5
 2661 0058 FB68     		ldr	r3, [r7, #12]
 2662 005a 0422     		movs	r2, #4
 2663 005c 9A63     		str	r2, [r3, #56]
1213:Drivers/STM32F7xx_HAL_Driver/Src/stm32f7xx_ll_sdmmc.c ****     
1214:Drivers/STM32F7xx_HAL_Driver/Src/stm32f7xx_ll_sdmmc.c ****     return SDMMC_ERROR_CMD_RSP_TIMEOUT;
 2664              		.loc 1 1214 12
 2665 005e 0423     		movs	r3, #4
 2666 0060 B1E0     		b	.L91
 2667              	.L93:
1215:Drivers/STM32F7xx_HAL_Driver/Src/stm32f7xx_ll_sdmmc.c ****   }
1216:Drivers/STM32F7xx_HAL_Driver/Src/stm32f7xx_ll_sdmmc.c ****   else if(__SDMMC_GET_FLAG(SDMMCx, SDMMC_FLAG_CCRCFAIL))
 2668              		.loc 1 1216 11
 2669 0062 FB68     		ldr	r3, [r7, #12]
ARM GAS  C:\Users\jisu8\AppData\Local\Temp\ccG1p0Yx.s 			page 68


 2670 0064 5B6B     		ldr	r3, [r3, #52]
 2671 0066 03F00103 		and	r3, r3, #1
 2672              		.loc 1 1216 10
 2673 006a 002B     		cmp	r3, #0
 2674 006c 04D0     		beq	.L94
1217:Drivers/STM32F7xx_HAL_Driver/Src/stm32f7xx_ll_sdmmc.c ****   {
1218:Drivers/STM32F7xx_HAL_Driver/Src/stm32f7xx_ll_sdmmc.c ****     __SDMMC_CLEAR_FLAG(SDMMCx, SDMMC_FLAG_CCRCFAIL);
 2675              		.loc 1 1218 5
 2676 006e FB68     		ldr	r3, [r7, #12]
 2677 0070 0122     		movs	r2, #1
 2678 0072 9A63     		str	r2, [r3, #56]
1219:Drivers/STM32F7xx_HAL_Driver/Src/stm32f7xx_ll_sdmmc.c ****     
1220:Drivers/STM32F7xx_HAL_Driver/Src/stm32f7xx_ll_sdmmc.c ****     return SDMMC_ERROR_CMD_CRC_FAIL;
 2679              		.loc 1 1220 12
 2680 0074 0123     		movs	r3, #1
 2681 0076 A6E0     		b	.L91
 2682              	.L94:
1221:Drivers/STM32F7xx_HAL_Driver/Src/stm32f7xx_ll_sdmmc.c ****   }
1222:Drivers/STM32F7xx_HAL_Driver/Src/stm32f7xx_ll_sdmmc.c ****   else
1223:Drivers/STM32F7xx_HAL_Driver/Src/stm32f7xx_ll_sdmmc.c ****   {
1224:Drivers/STM32F7xx_HAL_Driver/Src/stm32f7xx_ll_sdmmc.c ****     /* Nothing to do */
1225:Drivers/STM32F7xx_HAL_Driver/Src/stm32f7xx_ll_sdmmc.c ****   }
1226:Drivers/STM32F7xx_HAL_Driver/Src/stm32f7xx_ll_sdmmc.c ****   
1227:Drivers/STM32F7xx_HAL_Driver/Src/stm32f7xx_ll_sdmmc.c ****   /* Clear all the static flags */
1228:Drivers/STM32F7xx_HAL_Driver/Src/stm32f7xx_ll_sdmmc.c ****   __SDMMC_CLEAR_FLAG(SDMMCx, SDMMC_STATIC_CMD_FLAGS);
 2683              		.loc 1 1228 3
 2684 0078 FB68     		ldr	r3, [r7, #12]
 2685 007a C522     		movs	r2, #197
 2686 007c 9A63     		str	r2, [r3, #56]
1229:Drivers/STM32F7xx_HAL_Driver/Src/stm32f7xx_ll_sdmmc.c ****   
1230:Drivers/STM32F7xx_HAL_Driver/Src/stm32f7xx_ll_sdmmc.c ****   /* Check response received is of desired command */
1231:Drivers/STM32F7xx_HAL_Driver/Src/stm32f7xx_ll_sdmmc.c ****   if(SDMMC_GetCommandResponse(SDMMCx) != SD_CMD)
 2687              		.loc 1 1231 6
 2688 007e F868     		ldr	r0, [r7, #12]
 2689 0080 FFF7FEFF 		bl	SDMMC_GetCommandResponse
 2690 0084 0346     		mov	r3, r0
 2691 0086 1A46     		mov	r2, r3
 2692              		.loc 1 1231 5
 2693 0088 FB7A     		ldrb	r3, [r7, #11]	@ zero_extendqisi2
 2694 008a 9342     		cmp	r3, r2
 2695 008c 01D0     		beq	.L95
1232:Drivers/STM32F7xx_HAL_Driver/Src/stm32f7xx_ll_sdmmc.c ****   {
1233:Drivers/STM32F7xx_HAL_Driver/Src/stm32f7xx_ll_sdmmc.c ****     return SDMMC_ERROR_CMD_CRC_FAIL;
 2696              		.loc 1 1233 12
 2697 008e 0123     		movs	r3, #1
 2698 0090 99E0     		b	.L91
 2699              	.L95:
1234:Drivers/STM32F7xx_HAL_Driver/Src/stm32f7xx_ll_sdmmc.c ****   }
1235:Drivers/STM32F7xx_HAL_Driver/Src/stm32f7xx_ll_sdmmc.c ****   
1236:Drivers/STM32F7xx_HAL_Driver/Src/stm32f7xx_ll_sdmmc.c ****   /* We have received response, retrieve it for analysis  */
1237:Drivers/STM32F7xx_HAL_Driver/Src/stm32f7xx_ll_sdmmc.c ****   response_r1 = SDMMC_GetResponse(SDMMCx, SDMMC_RESP1);
 2700              		.loc 1 1237 17
 2701 0092 0021     		movs	r1, #0
 2702 0094 F868     		ldr	r0, [r7, #12]
 2703 0096 FFF7FEFF 		bl	SDMMC_GetResponse
 2704 009a 7861     		str	r0, [r7, #20]
1238:Drivers/STM32F7xx_HAL_Driver/Src/stm32f7xx_ll_sdmmc.c ****   
ARM GAS  C:\Users\jisu8\AppData\Local\Temp\ccG1p0Yx.s 			page 69


1239:Drivers/STM32F7xx_HAL_Driver/Src/stm32f7xx_ll_sdmmc.c ****   if((response_r1 & SDMMC_OCR_ERRORBITS) == SDMMC_ALLZERO)
 2705              		.loc 1 1239 19
 2706 009c 7A69     		ldr	r2, [r7, #20]
 2707 009e 4E4B     		ldr	r3, .L115+8
 2708 00a0 1340     		ands	r3, r3, r2
 2709              		.loc 1 1239 5
 2710 00a2 002B     		cmp	r3, #0
 2711 00a4 01D1     		bne	.L96
1240:Drivers/STM32F7xx_HAL_Driver/Src/stm32f7xx_ll_sdmmc.c ****   {
1241:Drivers/STM32F7xx_HAL_Driver/Src/stm32f7xx_ll_sdmmc.c ****     return SDMMC_ERROR_NONE;
 2712              		.loc 1 1241 12
 2713 00a6 0023     		movs	r3, #0
 2714 00a8 8DE0     		b	.L91
 2715              	.L96:
1242:Drivers/STM32F7xx_HAL_Driver/Src/stm32f7xx_ll_sdmmc.c ****   }
1243:Drivers/STM32F7xx_HAL_Driver/Src/stm32f7xx_ll_sdmmc.c ****   else if((response_r1 & SDMMC_OCR_ADDR_OUT_OF_RANGE) == SDMMC_OCR_ADDR_OUT_OF_RANGE)
 2716              		.loc 1 1243 55
 2717 00aa 7B69     		ldr	r3, [r7, #20]
 2718              		.loc 1 1243 10
 2719 00ac 002B     		cmp	r3, #0
 2720 00ae 02DA     		bge	.L97
1244:Drivers/STM32F7xx_HAL_Driver/Src/stm32f7xx_ll_sdmmc.c ****   {
1245:Drivers/STM32F7xx_HAL_Driver/Src/stm32f7xx_ll_sdmmc.c ****     return SDMMC_ERROR_ADDR_OUT_OF_RANGE;
 2721              		.loc 1 1245 12
 2722 00b0 4FF00073 		mov	r3, #33554432
 2723 00b4 87E0     		b	.L91
 2724              	.L97:
1246:Drivers/STM32F7xx_HAL_Driver/Src/stm32f7xx_ll_sdmmc.c ****   }
1247:Drivers/STM32F7xx_HAL_Driver/Src/stm32f7xx_ll_sdmmc.c ****   else if((response_r1 & SDMMC_OCR_ADDR_MISALIGNED) == SDMMC_OCR_ADDR_MISALIGNED)
 2725              		.loc 1 1247 24
 2726 00b6 7B69     		ldr	r3, [r7, #20]
 2727 00b8 03F08043 		and	r3, r3, #1073741824
 2728              		.loc 1 1247 10
 2729 00bc 002B     		cmp	r3, #0
 2730 00be 01D0     		beq	.L98
1248:Drivers/STM32F7xx_HAL_Driver/Src/stm32f7xx_ll_sdmmc.c ****   {
1249:Drivers/STM32F7xx_HAL_Driver/Src/stm32f7xx_ll_sdmmc.c ****     return SDMMC_ERROR_ADDR_MISALIGNED;
 2731              		.loc 1 1249 12
 2732 00c0 4023     		movs	r3, #64
 2733 00c2 80E0     		b	.L91
 2734              	.L98:
1250:Drivers/STM32F7xx_HAL_Driver/Src/stm32f7xx_ll_sdmmc.c ****   }
1251:Drivers/STM32F7xx_HAL_Driver/Src/stm32f7xx_ll_sdmmc.c ****   else if((response_r1 & SDMMC_OCR_BLOCK_LEN_ERR) == SDMMC_OCR_BLOCK_LEN_ERR)
 2735              		.loc 1 1251 24
 2736 00c4 7B69     		ldr	r3, [r7, #20]
 2737 00c6 03F00053 		and	r3, r3, #536870912
 2738              		.loc 1 1251 10
 2739 00ca 002B     		cmp	r3, #0
 2740 00cc 01D0     		beq	.L99
1252:Drivers/STM32F7xx_HAL_Driver/Src/stm32f7xx_ll_sdmmc.c ****   {
1253:Drivers/STM32F7xx_HAL_Driver/Src/stm32f7xx_ll_sdmmc.c ****     return SDMMC_ERROR_BLOCK_LEN_ERR;
 2741              		.loc 1 1253 12
 2742 00ce 8023     		movs	r3, #128
 2743 00d0 79E0     		b	.L91
 2744              	.L99:
1254:Drivers/STM32F7xx_HAL_Driver/Src/stm32f7xx_ll_sdmmc.c ****   }
1255:Drivers/STM32F7xx_HAL_Driver/Src/stm32f7xx_ll_sdmmc.c ****   else if((response_r1 & SDMMC_OCR_ERASE_SEQ_ERR) == SDMMC_OCR_ERASE_SEQ_ERR)
ARM GAS  C:\Users\jisu8\AppData\Local\Temp\ccG1p0Yx.s 			page 70


 2745              		.loc 1 1255 24
 2746 00d2 7B69     		ldr	r3, [r7, #20]
 2747 00d4 03F08053 		and	r3, r3, #268435456
 2748              		.loc 1 1255 10
 2749 00d8 002B     		cmp	r3, #0
 2750 00da 02D0     		beq	.L100
1256:Drivers/STM32F7xx_HAL_Driver/Src/stm32f7xx_ll_sdmmc.c ****   {
1257:Drivers/STM32F7xx_HAL_Driver/Src/stm32f7xx_ll_sdmmc.c ****     return SDMMC_ERROR_ERASE_SEQ_ERR;
 2751              		.loc 1 1257 12
 2752 00dc 4FF48073 		mov	r3, #256
 2753 00e0 71E0     		b	.L91
 2754              	.L100:
1258:Drivers/STM32F7xx_HAL_Driver/Src/stm32f7xx_ll_sdmmc.c ****   }
1259:Drivers/STM32F7xx_HAL_Driver/Src/stm32f7xx_ll_sdmmc.c ****   else if((response_r1 & SDMMC_OCR_BAD_ERASE_PARAM) == SDMMC_OCR_BAD_ERASE_PARAM)
 2755              		.loc 1 1259 24
 2756 00e2 7B69     		ldr	r3, [r7, #20]
 2757 00e4 03F00063 		and	r3, r3, #134217728
 2758              		.loc 1 1259 10
 2759 00e8 002B     		cmp	r3, #0
 2760 00ea 02D0     		beq	.L101
1260:Drivers/STM32F7xx_HAL_Driver/Src/stm32f7xx_ll_sdmmc.c ****   {
1261:Drivers/STM32F7xx_HAL_Driver/Src/stm32f7xx_ll_sdmmc.c ****     return SDMMC_ERROR_BAD_ERASE_PARAM;
 2761              		.loc 1 1261 12
 2762 00ec 4FF40073 		mov	r3, #512
 2763 00f0 69E0     		b	.L91
 2764              	.L101:
1262:Drivers/STM32F7xx_HAL_Driver/Src/stm32f7xx_ll_sdmmc.c ****   }
1263:Drivers/STM32F7xx_HAL_Driver/Src/stm32f7xx_ll_sdmmc.c ****   else if((response_r1 & SDMMC_OCR_WRITE_PROT_VIOLATION) == SDMMC_OCR_WRITE_PROT_VIOLATION)
 2765              		.loc 1 1263 24
 2766 00f2 7B69     		ldr	r3, [r7, #20]
 2767 00f4 03F08063 		and	r3, r3, #67108864
 2768              		.loc 1 1263 10
 2769 00f8 002B     		cmp	r3, #0
 2770 00fa 02D0     		beq	.L102
1264:Drivers/STM32F7xx_HAL_Driver/Src/stm32f7xx_ll_sdmmc.c ****   {
1265:Drivers/STM32F7xx_HAL_Driver/Src/stm32f7xx_ll_sdmmc.c ****     return SDMMC_ERROR_WRITE_PROT_VIOLATION;
 2771              		.loc 1 1265 12
 2772 00fc 4FF48063 		mov	r3, #1024
 2773 0100 61E0     		b	.L91
 2774              	.L102:
1266:Drivers/STM32F7xx_HAL_Driver/Src/stm32f7xx_ll_sdmmc.c ****   }
1267:Drivers/STM32F7xx_HAL_Driver/Src/stm32f7xx_ll_sdmmc.c ****   else if((response_r1 & SDMMC_OCR_LOCK_UNLOCK_FAILED) == SDMMC_OCR_LOCK_UNLOCK_FAILED)
 2775              		.loc 1 1267 24
 2776 0102 7B69     		ldr	r3, [r7, #20]
 2777 0104 03F08073 		and	r3, r3, #16777216
 2778              		.loc 1 1267 10
 2779 0108 002B     		cmp	r3, #0
 2780 010a 02D0     		beq	.L103
1268:Drivers/STM32F7xx_HAL_Driver/Src/stm32f7xx_ll_sdmmc.c ****   {
1269:Drivers/STM32F7xx_HAL_Driver/Src/stm32f7xx_ll_sdmmc.c ****     return SDMMC_ERROR_LOCK_UNLOCK_FAILED;
 2781              		.loc 1 1269 12
 2782 010c 4FF40063 		mov	r3, #2048
 2783 0110 59E0     		b	.L91
 2784              	.L103:
1270:Drivers/STM32F7xx_HAL_Driver/Src/stm32f7xx_ll_sdmmc.c ****   }
1271:Drivers/STM32F7xx_HAL_Driver/Src/stm32f7xx_ll_sdmmc.c ****   else if((response_r1 & SDMMC_OCR_COM_CRC_FAILED) == SDMMC_OCR_COM_CRC_FAILED)
 2785              		.loc 1 1271 24
ARM GAS  C:\Users\jisu8\AppData\Local\Temp\ccG1p0Yx.s 			page 71


 2786 0112 7B69     		ldr	r3, [r7, #20]
 2787 0114 03F40003 		and	r3, r3, #8388608
 2788              		.loc 1 1271 10
 2789 0118 002B     		cmp	r3, #0
 2790 011a 02D0     		beq	.L104
1272:Drivers/STM32F7xx_HAL_Driver/Src/stm32f7xx_ll_sdmmc.c ****   {
1273:Drivers/STM32F7xx_HAL_Driver/Src/stm32f7xx_ll_sdmmc.c ****     return SDMMC_ERROR_COM_CRC_FAILED;
 2791              		.loc 1 1273 12
 2792 011c 4FF48053 		mov	r3, #4096
 2793 0120 51E0     		b	.L91
 2794              	.L104:
1274:Drivers/STM32F7xx_HAL_Driver/Src/stm32f7xx_ll_sdmmc.c ****   }
1275:Drivers/STM32F7xx_HAL_Driver/Src/stm32f7xx_ll_sdmmc.c ****   else if((response_r1 & SDMMC_OCR_ILLEGAL_CMD) == SDMMC_OCR_ILLEGAL_CMD)
 2795              		.loc 1 1275 24
 2796 0122 7B69     		ldr	r3, [r7, #20]
 2797 0124 03F48003 		and	r3, r3, #4194304
 2798              		.loc 1 1275 10
 2799 0128 002B     		cmp	r3, #0
 2800 012a 02D0     		beq	.L105
1276:Drivers/STM32F7xx_HAL_Driver/Src/stm32f7xx_ll_sdmmc.c ****   {
1277:Drivers/STM32F7xx_HAL_Driver/Src/stm32f7xx_ll_sdmmc.c ****     return SDMMC_ERROR_ILLEGAL_CMD;
 2801              		.loc 1 1277 12
 2802 012c 4FF40053 		mov	r3, #8192
 2803 0130 49E0     		b	.L91
 2804              	.L105:
1278:Drivers/STM32F7xx_HAL_Driver/Src/stm32f7xx_ll_sdmmc.c ****   }
1279:Drivers/STM32F7xx_HAL_Driver/Src/stm32f7xx_ll_sdmmc.c ****   else if((response_r1 & SDMMC_OCR_CARD_ECC_FAILED) == SDMMC_OCR_CARD_ECC_FAILED)
 2805              		.loc 1 1279 24
 2806 0132 7B69     		ldr	r3, [r7, #20]
 2807 0134 03F40013 		and	r3, r3, #2097152
 2808              		.loc 1 1279 10
 2809 0138 002B     		cmp	r3, #0
 2810 013a 02D0     		beq	.L106
1280:Drivers/STM32F7xx_HAL_Driver/Src/stm32f7xx_ll_sdmmc.c ****   {
1281:Drivers/STM32F7xx_HAL_Driver/Src/stm32f7xx_ll_sdmmc.c ****     return SDMMC_ERROR_CARD_ECC_FAILED;
 2811              		.loc 1 1281 12
 2812 013c 4FF48043 		mov	r3, #16384
 2813 0140 41E0     		b	.L91
 2814              	.L106:
1282:Drivers/STM32F7xx_HAL_Driver/Src/stm32f7xx_ll_sdmmc.c ****   }
1283:Drivers/STM32F7xx_HAL_Driver/Src/stm32f7xx_ll_sdmmc.c ****   else if((response_r1 & SDMMC_OCR_CC_ERROR) == SDMMC_OCR_CC_ERROR)
 2815              		.loc 1 1283 24
 2816 0142 7B69     		ldr	r3, [r7, #20]
 2817 0144 03F48013 		and	r3, r3, #1048576
 2818              		.loc 1 1283 10
 2819 0148 002B     		cmp	r3, #0
 2820 014a 02D0     		beq	.L107
1284:Drivers/STM32F7xx_HAL_Driver/Src/stm32f7xx_ll_sdmmc.c ****   {
1285:Drivers/STM32F7xx_HAL_Driver/Src/stm32f7xx_ll_sdmmc.c ****     return SDMMC_ERROR_CC_ERR;
 2821              		.loc 1 1285 12
 2822 014c 4FF40043 		mov	r3, #32768
 2823 0150 39E0     		b	.L91
 2824              	.L107:
1286:Drivers/STM32F7xx_HAL_Driver/Src/stm32f7xx_ll_sdmmc.c ****   }
1287:Drivers/STM32F7xx_HAL_Driver/Src/stm32f7xx_ll_sdmmc.c ****   else if((response_r1 & SDMMC_OCR_STREAM_READ_UNDERRUN) == SDMMC_OCR_STREAM_READ_UNDERRUN)
 2825              		.loc 1 1287 24
 2826 0152 7B69     		ldr	r3, [r7, #20]
ARM GAS  C:\Users\jisu8\AppData\Local\Temp\ccG1p0Yx.s 			page 72


 2827 0154 03F48023 		and	r3, r3, #262144
 2828              		.loc 1 1287 10
 2829 0158 002B     		cmp	r3, #0
 2830 015a 02D0     		beq	.L108
1288:Drivers/STM32F7xx_HAL_Driver/Src/stm32f7xx_ll_sdmmc.c ****   {
1289:Drivers/STM32F7xx_HAL_Driver/Src/stm32f7xx_ll_sdmmc.c ****     return SDMMC_ERROR_STREAM_READ_UNDERRUN;
 2831              		.loc 1 1289 12
 2832 015c 4FF40033 		mov	r3, #131072
 2833 0160 31E0     		b	.L91
 2834              	.L108:
1290:Drivers/STM32F7xx_HAL_Driver/Src/stm32f7xx_ll_sdmmc.c ****   }
1291:Drivers/STM32F7xx_HAL_Driver/Src/stm32f7xx_ll_sdmmc.c ****   else if((response_r1 & SDMMC_OCR_STREAM_WRITE_OVERRUN) == SDMMC_OCR_STREAM_WRITE_OVERRUN)
 2835              		.loc 1 1291 24
 2836 0162 7B69     		ldr	r3, [r7, #20]
 2837 0164 03F40033 		and	r3, r3, #131072
 2838              		.loc 1 1291 10
 2839 0168 002B     		cmp	r3, #0
 2840 016a 02D0     		beq	.L109
1292:Drivers/STM32F7xx_HAL_Driver/Src/stm32f7xx_ll_sdmmc.c ****   {
1293:Drivers/STM32F7xx_HAL_Driver/Src/stm32f7xx_ll_sdmmc.c ****     return SDMMC_ERROR_STREAM_WRITE_OVERRUN;
 2841              		.loc 1 1293 12
 2842 016c 4FF48023 		mov	r3, #262144
 2843 0170 29E0     		b	.L91
 2844              	.L109:
1294:Drivers/STM32F7xx_HAL_Driver/Src/stm32f7xx_ll_sdmmc.c ****   }
1295:Drivers/STM32F7xx_HAL_Driver/Src/stm32f7xx_ll_sdmmc.c ****   else if((response_r1 & SDMMC_OCR_CID_CSD_OVERWRITE) == SDMMC_OCR_CID_CSD_OVERWRITE)
 2845              		.loc 1 1295 24
 2846 0172 7B69     		ldr	r3, [r7, #20]
 2847 0174 03F48033 		and	r3, r3, #65536
 2848              		.loc 1 1295 10
 2849 0178 002B     		cmp	r3, #0
 2850 017a 02D0     		beq	.L110
1296:Drivers/STM32F7xx_HAL_Driver/Src/stm32f7xx_ll_sdmmc.c ****   {
1297:Drivers/STM32F7xx_HAL_Driver/Src/stm32f7xx_ll_sdmmc.c ****     return SDMMC_ERROR_CID_CSD_OVERWRITE;
 2851              		.loc 1 1297 12
 2852 017c 4FF40023 		mov	r3, #524288
 2853 0180 21E0     		b	.L91
 2854              	.L110:
1298:Drivers/STM32F7xx_HAL_Driver/Src/stm32f7xx_ll_sdmmc.c ****   }
1299:Drivers/STM32F7xx_HAL_Driver/Src/stm32f7xx_ll_sdmmc.c ****   else if((response_r1 & SDMMC_OCR_WP_ERASE_SKIP) == SDMMC_OCR_WP_ERASE_SKIP)
 2855              		.loc 1 1299 24
 2856 0182 7B69     		ldr	r3, [r7, #20]
 2857 0184 03F40043 		and	r3, r3, #32768
 2858              		.loc 1 1299 10
 2859 0188 002B     		cmp	r3, #0
 2860 018a 02D0     		beq	.L111
1300:Drivers/STM32F7xx_HAL_Driver/Src/stm32f7xx_ll_sdmmc.c ****   {
1301:Drivers/STM32F7xx_HAL_Driver/Src/stm32f7xx_ll_sdmmc.c ****     return SDMMC_ERROR_WP_ERASE_SKIP;
 2861              		.loc 1 1301 12
 2862 018c 4FF48013 		mov	r3, #1048576
 2863 0190 19E0     		b	.L91
 2864              	.L111:
1302:Drivers/STM32F7xx_HAL_Driver/Src/stm32f7xx_ll_sdmmc.c ****   }
1303:Drivers/STM32F7xx_HAL_Driver/Src/stm32f7xx_ll_sdmmc.c ****   else if((response_r1 & SDMMC_OCR_CARD_ECC_DISABLED) == SDMMC_OCR_CARD_ECC_DISABLED)
 2865              		.loc 1 1303 24
 2866 0192 7B69     		ldr	r3, [r7, #20]
 2867 0194 03F48043 		and	r3, r3, #16384
ARM GAS  C:\Users\jisu8\AppData\Local\Temp\ccG1p0Yx.s 			page 73


 2868              		.loc 1 1303 10
 2869 0198 002B     		cmp	r3, #0
 2870 019a 02D0     		beq	.L112
1304:Drivers/STM32F7xx_HAL_Driver/Src/stm32f7xx_ll_sdmmc.c ****   {
1305:Drivers/STM32F7xx_HAL_Driver/Src/stm32f7xx_ll_sdmmc.c ****     return SDMMC_ERROR_CARD_ECC_DISABLED;
 2871              		.loc 1 1305 12
 2872 019c 4FF40013 		mov	r3, #2097152
 2873 01a0 11E0     		b	.L91
 2874              	.L112:
1306:Drivers/STM32F7xx_HAL_Driver/Src/stm32f7xx_ll_sdmmc.c ****   }
1307:Drivers/STM32F7xx_HAL_Driver/Src/stm32f7xx_ll_sdmmc.c ****   else if((response_r1 & SDMMC_OCR_ERASE_RESET) == SDMMC_OCR_ERASE_RESET)
 2875              		.loc 1 1307 24
 2876 01a2 7B69     		ldr	r3, [r7, #20]
 2877 01a4 03F40053 		and	r3, r3, #8192
 2878              		.loc 1 1307 10
 2879 01a8 002B     		cmp	r3, #0
 2880 01aa 02D0     		beq	.L113
1308:Drivers/STM32F7xx_HAL_Driver/Src/stm32f7xx_ll_sdmmc.c ****   {
1309:Drivers/STM32F7xx_HAL_Driver/Src/stm32f7xx_ll_sdmmc.c ****     return SDMMC_ERROR_ERASE_RESET;
 2881              		.loc 1 1309 12
 2882 01ac 4FF48003 		mov	r3, #4194304
 2883 01b0 09E0     		b	.L91
 2884              	.L113:
1310:Drivers/STM32F7xx_HAL_Driver/Src/stm32f7xx_ll_sdmmc.c ****   }
1311:Drivers/STM32F7xx_HAL_Driver/Src/stm32f7xx_ll_sdmmc.c ****   else if((response_r1 & SDMMC_OCR_AKE_SEQ_ERROR) == SDMMC_OCR_AKE_SEQ_ERROR)
 2885              		.loc 1 1311 24
 2886 01b2 7B69     		ldr	r3, [r7, #20]
 2887 01b4 03F00803 		and	r3, r3, #8
 2888              		.loc 1 1311 10
 2889 01b8 002B     		cmp	r3, #0
 2890 01ba 02D0     		beq	.L114
1312:Drivers/STM32F7xx_HAL_Driver/Src/stm32f7xx_ll_sdmmc.c ****   {
1313:Drivers/STM32F7xx_HAL_Driver/Src/stm32f7xx_ll_sdmmc.c ****     return SDMMC_ERROR_AKE_SEQ_ERR;
 2891              		.loc 1 1313 12
 2892 01bc 4FF40003 		mov	r3, #8388608
 2893 01c0 01E0     		b	.L91
 2894              	.L114:
1314:Drivers/STM32F7xx_HAL_Driver/Src/stm32f7xx_ll_sdmmc.c ****   }
1315:Drivers/STM32F7xx_HAL_Driver/Src/stm32f7xx_ll_sdmmc.c ****   else
1316:Drivers/STM32F7xx_HAL_Driver/Src/stm32f7xx_ll_sdmmc.c ****   {
1317:Drivers/STM32F7xx_HAL_Driver/Src/stm32f7xx_ll_sdmmc.c ****     return SDMMC_ERROR_GENERAL_UNKNOWN_ERR;
 2895              		.loc 1 1317 12
 2896 01c2 4FF48033 		mov	r3, #65536
 2897              	.L91:
1318:Drivers/STM32F7xx_HAL_Driver/Src/stm32f7xx_ll_sdmmc.c ****   }
1319:Drivers/STM32F7xx_HAL_Driver/Src/stm32f7xx_ll_sdmmc.c **** }
 2898              		.loc 1 1319 1
 2899 01c6 1846     		mov	r0, r3
 2900 01c8 2037     		adds	r7, r7, #32
 2901              	.LCFI218:
 2902              		.cfi_def_cfa_offset 8
 2903 01ca BD46     		mov	sp, r7
 2904              	.LCFI219:
 2905              		.cfi_def_cfa_register 13
 2906              		@ sp needed
 2907 01cc 80BD     		pop	{r7, pc}
 2908              	.L116:
ARM GAS  C:\Users\jisu8\AppData\Local\Temp\ccG1p0Yx.s 			page 74


 2909 01ce 00BF     		.align	2
 2910              	.L115:
 2911 01d0 00000000 		.word	SystemCoreClock
 2912 01d4 D34D6210 		.word	274877907
 2913 01d8 08E0FFFD 		.word	-33562616
 2914              		.cfi_endproc
 2915              	.LFE181:
 2917              		.section	.text.SDMMC_GetCmdResp2,"ax",%progbits
 2918              		.align	1
 2919              		.global	SDMMC_GetCmdResp2
 2920              		.syntax unified
 2921              		.thumb
 2922              		.thumb_func
 2924              	SDMMC_GetCmdResp2:
 2925              	.LFB182:
1320:Drivers/STM32F7xx_HAL_Driver/Src/stm32f7xx_ll_sdmmc.c **** 
1321:Drivers/STM32F7xx_HAL_Driver/Src/stm32f7xx_ll_sdmmc.c **** /**
1322:Drivers/STM32F7xx_HAL_Driver/Src/stm32f7xx_ll_sdmmc.c ****   * @brief  Checks for error conditions for R2 (CID or CSD) response.
1323:Drivers/STM32F7xx_HAL_Driver/Src/stm32f7xx_ll_sdmmc.c ****   * @param  SDMMCx Pointer to SDMMC register base
1324:Drivers/STM32F7xx_HAL_Driver/Src/stm32f7xx_ll_sdmmc.c ****   * @retval SD Card error state
1325:Drivers/STM32F7xx_HAL_Driver/Src/stm32f7xx_ll_sdmmc.c ****   */
1326:Drivers/STM32F7xx_HAL_Driver/Src/stm32f7xx_ll_sdmmc.c **** uint32_t SDMMC_GetCmdResp2(SDMMC_TypeDef *SDMMCx)
1327:Drivers/STM32F7xx_HAL_Driver/Src/stm32f7xx_ll_sdmmc.c **** {
 2926              		.loc 1 1327 1
 2927              		.cfi_startproc
 2928              		@ args = 0, pretend = 0, frame = 16
 2929              		@ frame_needed = 1, uses_anonymous_args = 0
 2930              		@ link register save eliminated.
 2931 0000 80B4     		push	{r7}
 2932              	.LCFI220:
 2933              		.cfi_def_cfa_offset 4
 2934              		.cfi_offset 7, -4
 2935 0002 85B0     		sub	sp, sp, #20
 2936              	.LCFI221:
 2937              		.cfi_def_cfa_offset 24
 2938 0004 00AF     		add	r7, sp, #0
 2939              	.LCFI222:
 2940              		.cfi_def_cfa_register 7
 2941 0006 7860     		str	r0, [r7, #4]
1328:Drivers/STM32F7xx_HAL_Driver/Src/stm32f7xx_ll_sdmmc.c ****   uint32_t sta_reg;
1329:Drivers/STM32F7xx_HAL_Driver/Src/stm32f7xx_ll_sdmmc.c ****   /* 8 is the number of required instructions cycles for the below loop statement.
1330:Drivers/STM32F7xx_HAL_Driver/Src/stm32f7xx_ll_sdmmc.c ****   The SDMMC_CMDTIMEOUT is expressed in ms */
1331:Drivers/STM32F7xx_HAL_Driver/Src/stm32f7xx_ll_sdmmc.c ****   uint32_t count = SDMMC_CMDTIMEOUT * (SystemCoreClock / 8U /1000U);
 2942              		.loc 1 1331 61
 2943 0008 1F4B     		ldr	r3, .L123
 2944 000a 1B68     		ldr	r3, [r3]
 2945 000c 1F4A     		ldr	r2, .L123+4
 2946 000e A2FB0323 		umull	r2, r3, r2, r3
 2947 0012 5B0A     		lsrs	r3, r3, #9
 2948              		.loc 1 1331 12
 2949 0014 41F28832 		movw	r2, #5000
 2950 0018 02FB03F3 		mul	r3, r2, r3
 2951 001c FB60     		str	r3, [r7, #12]
 2952              	.L120:
1332:Drivers/STM32F7xx_HAL_Driver/Src/stm32f7xx_ll_sdmmc.c ****   
1333:Drivers/STM32F7xx_HAL_Driver/Src/stm32f7xx_ll_sdmmc.c ****   do
1334:Drivers/STM32F7xx_HAL_Driver/Src/stm32f7xx_ll_sdmmc.c ****   {
ARM GAS  C:\Users\jisu8\AppData\Local\Temp\ccG1p0Yx.s 			page 75


1335:Drivers/STM32F7xx_HAL_Driver/Src/stm32f7xx_ll_sdmmc.c ****     if (count-- == 0U)
 2953              		.loc 1 1335 14
 2954 001e FB68     		ldr	r3, [r7, #12]
 2955 0020 5A1E     		subs	r2, r3, #1
 2956 0022 FA60     		str	r2, [r7, #12]
 2957              		.loc 1 1335 8
 2958 0024 002B     		cmp	r3, #0
 2959 0026 02D1     		bne	.L118
1336:Drivers/STM32F7xx_HAL_Driver/Src/stm32f7xx_ll_sdmmc.c ****     {
1337:Drivers/STM32F7xx_HAL_Driver/Src/stm32f7xx_ll_sdmmc.c ****       return SDMMC_ERROR_TIMEOUT;
 2960              		.loc 1 1337 14
 2961 0028 4FF00043 		mov	r3, #-2147483648
 2962 002c 26E0     		b	.L119
 2963              	.L118:
1338:Drivers/STM32F7xx_HAL_Driver/Src/stm32f7xx_ll_sdmmc.c ****     }
1339:Drivers/STM32F7xx_HAL_Driver/Src/stm32f7xx_ll_sdmmc.c ****     sta_reg = SDMMCx->STA;
 2964              		.loc 1 1339 13
 2965 002e 7B68     		ldr	r3, [r7, #4]
 2966 0030 5B6B     		ldr	r3, [r3, #52]
 2967 0032 BB60     		str	r3, [r7, #8]
1340:Drivers/STM32F7xx_HAL_Driver/Src/stm32f7xx_ll_sdmmc.c ****   }while(((sta_reg & (SDMMC_FLAG_CCRCFAIL | SDMMC_FLAG_CMDREND | SDMMC_FLAG_CTIMEOUT)) == 0U) ||
 2968              		.loc 1 1340 20
 2969 0034 BB68     		ldr	r3, [r7, #8]
 2970 0036 03F04503 		and	r3, r3, #69
1341:Drivers/STM32F7xx_HAL_Driver/Src/stm32f7xx_ll_sdmmc.c ****          ((sta_reg & SDMMC_FLAG_CMDACT) != 0U ));
 2971              		.loc 1 1341 10
 2972 003a 002B     		cmp	r3, #0
 2973 003c EFD0     		beq	.L120
 2974              		.loc 1 1341 20 discriminator 1
 2975 003e BB68     		ldr	r3, [r7, #8]
 2976 0040 03F40063 		and	r3, r3, #2048
1340:Drivers/STM32F7xx_HAL_Driver/Src/stm32f7xx_ll_sdmmc.c ****   }while(((sta_reg & (SDMMC_FLAG_CCRCFAIL | SDMMC_FLAG_CMDREND | SDMMC_FLAG_CTIMEOUT)) == 0U) ||
 2977              		.loc 1 1340 95 discriminator 1
 2978 0044 002B     		cmp	r3, #0
 2979 0046 EAD1     		bne	.L120
1342:Drivers/STM32F7xx_HAL_Driver/Src/stm32f7xx_ll_sdmmc.c ****     
1343:Drivers/STM32F7xx_HAL_Driver/Src/stm32f7xx_ll_sdmmc.c ****   if (__SDMMC_GET_FLAG(SDMMCx, SDMMC_FLAG_CTIMEOUT))
 2980              		.loc 1 1343 7
 2981 0048 7B68     		ldr	r3, [r7, #4]
 2982 004a 5B6B     		ldr	r3, [r3, #52]
 2983 004c 03F00403 		and	r3, r3, #4
 2984              		.loc 1 1343 6
 2985 0050 002B     		cmp	r3, #0
 2986 0052 04D0     		beq	.L121
1344:Drivers/STM32F7xx_HAL_Driver/Src/stm32f7xx_ll_sdmmc.c ****   {
1345:Drivers/STM32F7xx_HAL_Driver/Src/stm32f7xx_ll_sdmmc.c ****     __SDMMC_CLEAR_FLAG(SDMMCx, SDMMC_FLAG_CTIMEOUT);
 2987              		.loc 1 1345 5
 2988 0054 7B68     		ldr	r3, [r7, #4]
 2989 0056 0422     		movs	r2, #4
 2990 0058 9A63     		str	r2, [r3, #56]
1346:Drivers/STM32F7xx_HAL_Driver/Src/stm32f7xx_ll_sdmmc.c ****     
1347:Drivers/STM32F7xx_HAL_Driver/Src/stm32f7xx_ll_sdmmc.c ****     return SDMMC_ERROR_CMD_RSP_TIMEOUT;
 2991              		.loc 1 1347 12
 2992 005a 0423     		movs	r3, #4
 2993 005c 0EE0     		b	.L119
 2994              	.L121:
1348:Drivers/STM32F7xx_HAL_Driver/Src/stm32f7xx_ll_sdmmc.c ****   }
ARM GAS  C:\Users\jisu8\AppData\Local\Temp\ccG1p0Yx.s 			page 76


1349:Drivers/STM32F7xx_HAL_Driver/Src/stm32f7xx_ll_sdmmc.c ****   else if (__SDMMC_GET_FLAG(SDMMCx, SDMMC_FLAG_CCRCFAIL))
 2995              		.loc 1 1349 12
 2996 005e 7B68     		ldr	r3, [r7, #4]
 2997 0060 5B6B     		ldr	r3, [r3, #52]
 2998 0062 03F00103 		and	r3, r3, #1
 2999              		.loc 1 1349 11
 3000 0066 002B     		cmp	r3, #0
 3001 0068 04D0     		beq	.L122
1350:Drivers/STM32F7xx_HAL_Driver/Src/stm32f7xx_ll_sdmmc.c ****   {
1351:Drivers/STM32F7xx_HAL_Driver/Src/stm32f7xx_ll_sdmmc.c ****     __SDMMC_CLEAR_FLAG(SDMMCx, SDMMC_FLAG_CCRCFAIL);
 3002              		.loc 1 1351 5
 3003 006a 7B68     		ldr	r3, [r7, #4]
 3004 006c 0122     		movs	r2, #1
 3005 006e 9A63     		str	r2, [r3, #56]
1352:Drivers/STM32F7xx_HAL_Driver/Src/stm32f7xx_ll_sdmmc.c ****     
1353:Drivers/STM32F7xx_HAL_Driver/Src/stm32f7xx_ll_sdmmc.c ****     return SDMMC_ERROR_CMD_CRC_FAIL;
 3006              		.loc 1 1353 12
 3007 0070 0123     		movs	r3, #1
 3008 0072 03E0     		b	.L119
 3009              	.L122:
1354:Drivers/STM32F7xx_HAL_Driver/Src/stm32f7xx_ll_sdmmc.c ****   }
1355:Drivers/STM32F7xx_HAL_Driver/Src/stm32f7xx_ll_sdmmc.c ****   else
1356:Drivers/STM32F7xx_HAL_Driver/Src/stm32f7xx_ll_sdmmc.c ****   {
1357:Drivers/STM32F7xx_HAL_Driver/Src/stm32f7xx_ll_sdmmc.c ****     /* No error flag set */
1358:Drivers/STM32F7xx_HAL_Driver/Src/stm32f7xx_ll_sdmmc.c ****     /* Clear all the static flags */
1359:Drivers/STM32F7xx_HAL_Driver/Src/stm32f7xx_ll_sdmmc.c ****     __SDMMC_CLEAR_FLAG(SDMMCx, SDMMC_STATIC_CMD_FLAGS);
 3010              		.loc 1 1359 5
 3011 0074 7B68     		ldr	r3, [r7, #4]
 3012 0076 C522     		movs	r2, #197
 3013 0078 9A63     		str	r2, [r3, #56]
1360:Drivers/STM32F7xx_HAL_Driver/Src/stm32f7xx_ll_sdmmc.c ****   }
1361:Drivers/STM32F7xx_HAL_Driver/Src/stm32f7xx_ll_sdmmc.c **** 
1362:Drivers/STM32F7xx_HAL_Driver/Src/stm32f7xx_ll_sdmmc.c ****   return SDMMC_ERROR_NONE;
 3014              		.loc 1 1362 10
 3015 007a 0023     		movs	r3, #0
 3016              	.L119:
1363:Drivers/STM32F7xx_HAL_Driver/Src/stm32f7xx_ll_sdmmc.c **** }
 3017              		.loc 1 1363 1
 3018 007c 1846     		mov	r0, r3
 3019 007e 1437     		adds	r7, r7, #20
 3020              	.LCFI223:
 3021              		.cfi_def_cfa_offset 4
 3022 0080 BD46     		mov	sp, r7
 3023              	.LCFI224:
 3024              		.cfi_def_cfa_register 13
 3025              		@ sp needed
 3026 0082 5DF8047B 		ldr	r7, [sp], #4
 3027              	.LCFI225:
 3028              		.cfi_restore 7
 3029              		.cfi_def_cfa_offset 0
 3030 0086 7047     		bx	lr
 3031              	.L124:
 3032              		.align	2
 3033              	.L123:
 3034 0088 00000000 		.word	SystemCoreClock
 3035 008c D34D6210 		.word	274877907
 3036              		.cfi_endproc
ARM GAS  C:\Users\jisu8\AppData\Local\Temp\ccG1p0Yx.s 			page 77


 3037              	.LFE182:
 3039              		.section	.text.SDMMC_GetCmdResp3,"ax",%progbits
 3040              		.align	1
 3041              		.global	SDMMC_GetCmdResp3
 3042              		.syntax unified
 3043              		.thumb
 3044              		.thumb_func
 3046              	SDMMC_GetCmdResp3:
 3047              	.LFB183:
