ARM GAS  C:\Users\jisu8\AppData\Local\Temp\cc8f41y5.s 			page 1


   1              		.cpu cortex-m7
   2              		.arch armv7e-m
   3              		.fpu fpv5-sp-d16
   4              		.eabi_attribute 27, 1
   5              		.eabi_attribute 28, 1
   6              		.eabi_attribute 20, 1
   7              		.eabi_attribute 21, 1
   8              		.eabi_attribute 23, 3
   9              		.eabi_attribute 24, 1
  10              		.eabi_attribute 25, 1
  11              		.eabi_attribute 26, 1
  12              		.eabi_attribute 30, 6
  13              		.eabi_attribute 34, 1
  14              		.eabi_attribute 18, 4
  15              		.file	"stm32f7xx_ll_usb.c"
  16              		.text
  17              	.Ltext0:
  18              		.cfi_sections	.debug_frame
  19              		.section	.text.USB_CoreInit,"ax",%progbits
  20              		.align	1
  21              		.global	USB_CoreInit
  22              		.syntax unified
  23              		.thumb
  24              		.thumb_func
  26              	USB_CoreInit:
  27              	.LFB141:
  28              		.file 1 "Drivers/STM32F7xx_HAL_Driver/Src/stm32f7xx_ll_usb.c"
   1:Drivers/STM32F7xx_HAL_Driver/Src/stm32f7xx_ll_usb.c **** /**
   2:Drivers/STM32F7xx_HAL_Driver/Src/stm32f7xx_ll_usb.c ****   ******************************************************************************
   3:Drivers/STM32F7xx_HAL_Driver/Src/stm32f7xx_ll_usb.c ****   * @file    stm32f7xx_ll_usb.c
   4:Drivers/STM32F7xx_HAL_Driver/Src/stm32f7xx_ll_usb.c ****   * @author  MCD Application Team
   5:Drivers/STM32F7xx_HAL_Driver/Src/stm32f7xx_ll_usb.c ****   * @brief   USB Low Layer HAL module driver.
   6:Drivers/STM32F7xx_HAL_Driver/Src/stm32f7xx_ll_usb.c ****   *
   7:Drivers/STM32F7xx_HAL_Driver/Src/stm32f7xx_ll_usb.c ****   *          This file provides firmware functions to manage the following
   8:Drivers/STM32F7xx_HAL_Driver/Src/stm32f7xx_ll_usb.c ****   *          functionalities of the USB Peripheral Controller:
   9:Drivers/STM32F7xx_HAL_Driver/Src/stm32f7xx_ll_usb.c ****   *           + Initialization/de-initialization functions
  10:Drivers/STM32F7xx_HAL_Driver/Src/stm32f7xx_ll_usb.c ****   *           + I/O operation functions
  11:Drivers/STM32F7xx_HAL_Driver/Src/stm32f7xx_ll_usb.c ****   *           + Peripheral Control functions
  12:Drivers/STM32F7xx_HAL_Driver/Src/stm32f7xx_ll_usb.c ****   *           + Peripheral State functions
  13:Drivers/STM32F7xx_HAL_Driver/Src/stm32f7xx_ll_usb.c ****   *
  14:Drivers/STM32F7xx_HAL_Driver/Src/stm32f7xx_ll_usb.c ****   ******************************************************************************
  15:Drivers/STM32F7xx_HAL_Driver/Src/stm32f7xx_ll_usb.c ****   * @attention
  16:Drivers/STM32F7xx_HAL_Driver/Src/stm32f7xx_ll_usb.c ****   *
  17:Drivers/STM32F7xx_HAL_Driver/Src/stm32f7xx_ll_usb.c ****   * Copyright (c) 2017 STMicroelectronics.
  18:Drivers/STM32F7xx_HAL_Driver/Src/stm32f7xx_ll_usb.c ****   * All rights reserved.
  19:Drivers/STM32F7xx_HAL_Driver/Src/stm32f7xx_ll_usb.c ****   *
  20:Drivers/STM32F7xx_HAL_Driver/Src/stm32f7xx_ll_usb.c ****   * This software is licensed under terms that can be found in the LICENSE file
  21:Drivers/STM32F7xx_HAL_Driver/Src/stm32f7xx_ll_usb.c ****   * in the root directory of this software component.
  22:Drivers/STM32F7xx_HAL_Driver/Src/stm32f7xx_ll_usb.c ****   * If no LICENSE file comes with this software, it is provided AS-IS.
  23:Drivers/STM32F7xx_HAL_Driver/Src/stm32f7xx_ll_usb.c ****   *
  24:Drivers/STM32F7xx_HAL_Driver/Src/stm32f7xx_ll_usb.c ****   ******************************************************************************
  25:Drivers/STM32F7xx_HAL_Driver/Src/stm32f7xx_ll_usb.c ****   @verbatim
  26:Drivers/STM32F7xx_HAL_Driver/Src/stm32f7xx_ll_usb.c ****   ==============================================================================
  27:Drivers/STM32F7xx_HAL_Driver/Src/stm32f7xx_ll_usb.c ****                     ##### How to use this driver #####
  28:Drivers/STM32F7xx_HAL_Driver/Src/stm32f7xx_ll_usb.c ****   ==============================================================================
  29:Drivers/STM32F7xx_HAL_Driver/Src/stm32f7xx_ll_usb.c ****     [..]
  30:Drivers/STM32F7xx_HAL_Driver/Src/stm32f7xx_ll_usb.c ****       (#) Fill parameters of Init structure in USB_OTG_CfgTypeDef structure.
ARM GAS  C:\Users\jisu8\AppData\Local\Temp\cc8f41y5.s 			page 2


  31:Drivers/STM32F7xx_HAL_Driver/Src/stm32f7xx_ll_usb.c **** 
  32:Drivers/STM32F7xx_HAL_Driver/Src/stm32f7xx_ll_usb.c ****       (#) Call USB_CoreInit() API to initialize the USB Core peripheral.
  33:Drivers/STM32F7xx_HAL_Driver/Src/stm32f7xx_ll_usb.c **** 
  34:Drivers/STM32F7xx_HAL_Driver/Src/stm32f7xx_ll_usb.c ****       (#) The upper HAL HCD/PCD driver will call the right routines for its internal processes.
  35:Drivers/STM32F7xx_HAL_Driver/Src/stm32f7xx_ll_usb.c **** 
  36:Drivers/STM32F7xx_HAL_Driver/Src/stm32f7xx_ll_usb.c ****   @endverbatim
  37:Drivers/STM32F7xx_HAL_Driver/Src/stm32f7xx_ll_usb.c **** 
  38:Drivers/STM32F7xx_HAL_Driver/Src/stm32f7xx_ll_usb.c ****   ******************************************************************************
  39:Drivers/STM32F7xx_HAL_Driver/Src/stm32f7xx_ll_usb.c ****   */
  40:Drivers/STM32F7xx_HAL_Driver/Src/stm32f7xx_ll_usb.c **** 
  41:Drivers/STM32F7xx_HAL_Driver/Src/stm32f7xx_ll_usb.c **** /* Includes ------------------------------------------------------------------*/
  42:Drivers/STM32F7xx_HAL_Driver/Src/stm32f7xx_ll_usb.c **** #include "stm32f7xx_hal.h"
  43:Drivers/STM32F7xx_HAL_Driver/Src/stm32f7xx_ll_usb.c **** 
  44:Drivers/STM32F7xx_HAL_Driver/Src/stm32f7xx_ll_usb.c **** /** @addtogroup STM32F7xx_LL_USB_DRIVER
  45:Drivers/STM32F7xx_HAL_Driver/Src/stm32f7xx_ll_usb.c ****   * @{
  46:Drivers/STM32F7xx_HAL_Driver/Src/stm32f7xx_ll_usb.c ****   */
  47:Drivers/STM32F7xx_HAL_Driver/Src/stm32f7xx_ll_usb.c **** 
  48:Drivers/STM32F7xx_HAL_Driver/Src/stm32f7xx_ll_usb.c **** #if defined (HAL_PCD_MODULE_ENABLED) || defined (HAL_HCD_MODULE_ENABLED)
  49:Drivers/STM32F7xx_HAL_Driver/Src/stm32f7xx_ll_usb.c **** #if defined (USB_OTG_FS) || defined (USB_OTG_HS)
  50:Drivers/STM32F7xx_HAL_Driver/Src/stm32f7xx_ll_usb.c **** /* Private typedef -----------------------------------------------------------*/
  51:Drivers/STM32F7xx_HAL_Driver/Src/stm32f7xx_ll_usb.c **** /* Private define ------------------------------------------------------------*/
  52:Drivers/STM32F7xx_HAL_Driver/Src/stm32f7xx_ll_usb.c **** /* Private macro -------------------------------------------------------------*/
  53:Drivers/STM32F7xx_HAL_Driver/Src/stm32f7xx_ll_usb.c **** /* Private variables ---------------------------------------------------------*/
  54:Drivers/STM32F7xx_HAL_Driver/Src/stm32f7xx_ll_usb.c **** /* Private function prototypes -----------------------------------------------*/
  55:Drivers/STM32F7xx_HAL_Driver/Src/stm32f7xx_ll_usb.c **** /* Private functions ---------------------------------------------------------*/
  56:Drivers/STM32F7xx_HAL_Driver/Src/stm32f7xx_ll_usb.c **** #if defined (USB_OTG_FS) || defined (USB_OTG_HS)
  57:Drivers/STM32F7xx_HAL_Driver/Src/stm32f7xx_ll_usb.c **** static HAL_StatusTypeDef USB_CoreReset(USB_OTG_GlobalTypeDef *USBx);
  58:Drivers/STM32F7xx_HAL_Driver/Src/stm32f7xx_ll_usb.c **** #ifdef USBPHYC
  59:Drivers/STM32F7xx_HAL_Driver/Src/stm32f7xx_ll_usb.c **** static HAL_StatusTypeDef USB_HS_PHYCInit(USB_OTG_GlobalTypeDef *USBx);
  60:Drivers/STM32F7xx_HAL_Driver/Src/stm32f7xx_ll_usb.c **** #endif /* USBPHYC */
  61:Drivers/STM32F7xx_HAL_Driver/Src/stm32f7xx_ll_usb.c **** 
  62:Drivers/STM32F7xx_HAL_Driver/Src/stm32f7xx_ll_usb.c **** /* Exported functions --------------------------------------------------------*/
  63:Drivers/STM32F7xx_HAL_Driver/Src/stm32f7xx_ll_usb.c **** /** @defgroup USB_LL_Exported_Functions USB Low Layer Exported Functions
  64:Drivers/STM32F7xx_HAL_Driver/Src/stm32f7xx_ll_usb.c ****   * @{
  65:Drivers/STM32F7xx_HAL_Driver/Src/stm32f7xx_ll_usb.c ****   */
  66:Drivers/STM32F7xx_HAL_Driver/Src/stm32f7xx_ll_usb.c **** 
  67:Drivers/STM32F7xx_HAL_Driver/Src/stm32f7xx_ll_usb.c **** /** @defgroup USB_LL_Exported_Functions_Group1 Initialization/de-initialization functions
  68:Drivers/STM32F7xx_HAL_Driver/Src/stm32f7xx_ll_usb.c ****   *  @brief    Initialization and Configuration functions
  69:Drivers/STM32F7xx_HAL_Driver/Src/stm32f7xx_ll_usb.c ****   *
  70:Drivers/STM32F7xx_HAL_Driver/Src/stm32f7xx_ll_usb.c **** @verbatim
  71:Drivers/STM32F7xx_HAL_Driver/Src/stm32f7xx_ll_usb.c ****  ===============================================================================
  72:Drivers/STM32F7xx_HAL_Driver/Src/stm32f7xx_ll_usb.c ****                       ##### Initialization/de-initialization functions #####
  73:Drivers/STM32F7xx_HAL_Driver/Src/stm32f7xx_ll_usb.c ****  ===============================================================================
  74:Drivers/STM32F7xx_HAL_Driver/Src/stm32f7xx_ll_usb.c **** 
  75:Drivers/STM32F7xx_HAL_Driver/Src/stm32f7xx_ll_usb.c **** @endverbatim
  76:Drivers/STM32F7xx_HAL_Driver/Src/stm32f7xx_ll_usb.c ****   * @{
  77:Drivers/STM32F7xx_HAL_Driver/Src/stm32f7xx_ll_usb.c ****   */
  78:Drivers/STM32F7xx_HAL_Driver/Src/stm32f7xx_ll_usb.c **** 
  79:Drivers/STM32F7xx_HAL_Driver/Src/stm32f7xx_ll_usb.c **** /**
  80:Drivers/STM32F7xx_HAL_Driver/Src/stm32f7xx_ll_usb.c ****   * @brief  Initializes the USB Core
  81:Drivers/STM32F7xx_HAL_Driver/Src/stm32f7xx_ll_usb.c ****   * @param  USBx USB Instance
  82:Drivers/STM32F7xx_HAL_Driver/Src/stm32f7xx_ll_usb.c ****   * @param  cfg pointer to a USB_OTG_CfgTypeDef structure that contains
  83:Drivers/STM32F7xx_HAL_Driver/Src/stm32f7xx_ll_usb.c ****   *         the configuration information for the specified USBx peripheral.
  84:Drivers/STM32F7xx_HAL_Driver/Src/stm32f7xx_ll_usb.c ****   * @retval HAL status
  85:Drivers/STM32F7xx_HAL_Driver/Src/stm32f7xx_ll_usb.c ****   */
  86:Drivers/STM32F7xx_HAL_Driver/Src/stm32f7xx_ll_usb.c **** HAL_StatusTypeDef USB_CoreInit(USB_OTG_GlobalTypeDef *USBx, USB_OTG_CfgTypeDef cfg)
  87:Drivers/STM32F7xx_HAL_Driver/Src/stm32f7xx_ll_usb.c **** {
ARM GAS  C:\Users\jisu8\AppData\Local\Temp\cc8f41y5.s 			page 3


  29              		.loc 1 87 1
  30              		.cfi_startproc
  31              		@ args = 56, pretend = 16, frame = 16
  32              		@ frame_needed = 1, uses_anonymous_args = 0
  33 0000 84B0     		sub	sp, sp, #16
  34              	.LCFI0:
  35              		.cfi_def_cfa_offset 16
  36 0002 80B5     		push	{r7, lr}
  37              	.LCFI1:
  38              		.cfi_def_cfa_offset 24
  39              		.cfi_offset 7, -24
  40              		.cfi_offset 14, -20
  41 0004 84B0     		sub	sp, sp, #16
  42              	.LCFI2:
  43              		.cfi_def_cfa_offset 40
  44 0006 00AF     		add	r7, sp, #0
  45              	.LCFI3:
  46              		.cfi_def_cfa_register 7
  47 0008 7860     		str	r0, [r7, #4]
  48 000a 07F11C00 		add	r0, r7, #28
  49 000e 80E80E00 		stm	r0, {r1, r2, r3}
  88:Drivers/STM32F7xx_HAL_Driver/Src/stm32f7xx_ll_usb.c ****   HAL_StatusTypeDef ret;
  89:Drivers/STM32F7xx_HAL_Driver/Src/stm32f7xx_ll_usb.c **** 
  90:Drivers/STM32F7xx_HAL_Driver/Src/stm32f7xx_ll_usb.c ****   if (cfg.phy_itface == USB_OTG_ULPI_PHY)
  50              		.loc 1 90 10
  51 0012 3B6B     		ldr	r3, [r7, #48]
  52              		.loc 1 90 6
  53 0014 012B     		cmp	r3, #1
  54 0016 20D1     		bne	.L2
  91:Drivers/STM32F7xx_HAL_Driver/Src/stm32f7xx_ll_usb.c ****   {
  92:Drivers/STM32F7xx_HAL_Driver/Src/stm32f7xx_ll_usb.c ****     USBx->GCCFG &= ~(USB_OTG_GCCFG_PWRDWN);
  55              		.loc 1 92 17
  56 0018 7B68     		ldr	r3, [r7, #4]
  57 001a 9B6B     		ldr	r3, [r3, #56]
  58 001c 23F48032 		bic	r2, r3, #65536
  59 0020 7B68     		ldr	r3, [r7, #4]
  60 0022 9A63     		str	r2, [r3, #56]
  93:Drivers/STM32F7xx_HAL_Driver/Src/stm32f7xx_ll_usb.c **** 
  94:Drivers/STM32F7xx_HAL_Driver/Src/stm32f7xx_ll_usb.c ****     /* Init The ULPI Interface */
  95:Drivers/STM32F7xx_HAL_Driver/Src/stm32f7xx_ll_usb.c ****     USBx->GUSBCFG &= ~(USB_OTG_GUSBCFG_TSDPS | USB_OTG_GUSBCFG_ULPIFSLS | USB_OTG_GUSBCFG_PHYSEL);
  61              		.loc 1 95 19
  62 0024 7B68     		ldr	r3, [r7, #4]
  63 0026 DA68     		ldr	r2, [r3, #12]
  64 0028 204B     		ldr	r3, .L7
  65 002a 1340     		ands	r3, r3, r2
  66 002c 7A68     		ldr	r2, [r7, #4]
  67 002e D360     		str	r3, [r2, #12]
  96:Drivers/STM32F7xx_HAL_Driver/Src/stm32f7xx_ll_usb.c **** 
  97:Drivers/STM32F7xx_HAL_Driver/Src/stm32f7xx_ll_usb.c **** #if defined(STM32F722xx) || defined(STM32F723xx) || defined(STM32F730xx) || defined(STM32F732xx) ||
  98:Drivers/STM32F7xx_HAL_Driver/Src/stm32f7xx_ll_usb.c ****     /* Select ULPI Interface */
  99:Drivers/STM32F7xx_HAL_Driver/Src/stm32f7xx_ll_usb.c ****     USBx->GUSBCFG |= USB_OTG_GUSBCFG_ULPI_UTMI_SEL;
 100:Drivers/STM32F7xx_HAL_Driver/Src/stm32f7xx_ll_usb.c **** #endif /* defined(STM32F722xx) || defined(STM32F723xx) || defined(STM32F730xx) || defined(STM32F732
 101:Drivers/STM32F7xx_HAL_Driver/Src/stm32f7xx_ll_usb.c **** 
 102:Drivers/STM32F7xx_HAL_Driver/Src/stm32f7xx_ll_usb.c ****     /* Select vbus source */
 103:Drivers/STM32F7xx_HAL_Driver/Src/stm32f7xx_ll_usb.c ****     USBx->GUSBCFG &= ~(USB_OTG_GUSBCFG_ULPIEVBUSD | USB_OTG_GUSBCFG_ULPIEVBUSI);
  68              		.loc 1 103 19
  69 0030 7B68     		ldr	r3, [r7, #4]
ARM GAS  C:\Users\jisu8\AppData\Local\Temp\cc8f41y5.s 			page 4


  70 0032 DB68     		ldr	r3, [r3, #12]
  71 0034 23F44012 		bic	r2, r3, #3145728
  72 0038 7B68     		ldr	r3, [r7, #4]
  73 003a DA60     		str	r2, [r3, #12]
 104:Drivers/STM32F7xx_HAL_Driver/Src/stm32f7xx_ll_usb.c ****     if (cfg.use_external_vbus == 1U)
  74              		.loc 1 104 12
  75 003c FB6C     		ldr	r3, [r7, #76]
  76              		.loc 1 104 8
  77 003e 012B     		cmp	r3, #1
  78 0040 05D1     		bne	.L3
 105:Drivers/STM32F7xx_HAL_Driver/Src/stm32f7xx_ll_usb.c ****     {
 106:Drivers/STM32F7xx_HAL_Driver/Src/stm32f7xx_ll_usb.c ****       USBx->GUSBCFG |= USB_OTG_GUSBCFG_ULPIEVBUSD;
  79              		.loc 1 106 21
  80 0042 7B68     		ldr	r3, [r7, #4]
  81 0044 DB68     		ldr	r3, [r3, #12]
  82 0046 43F48012 		orr	r2, r3, #1048576
  83 004a 7B68     		ldr	r3, [r7, #4]
  84 004c DA60     		str	r2, [r3, #12]
  85              	.L3:
 107:Drivers/STM32F7xx_HAL_Driver/Src/stm32f7xx_ll_usb.c ****     }
 108:Drivers/STM32F7xx_HAL_Driver/Src/stm32f7xx_ll_usb.c **** 
 109:Drivers/STM32F7xx_HAL_Driver/Src/stm32f7xx_ll_usb.c ****     /* Reset after a PHY select */
 110:Drivers/STM32F7xx_HAL_Driver/Src/stm32f7xx_ll_usb.c ****     ret = USB_CoreReset(USBx);
  86              		.loc 1 110 11
  87 004e 7868     		ldr	r0, [r7, #4]
  88 0050 FFF7FEFF 		bl	USB_CoreReset
  89 0054 0346     		mov	r3, r0
  90 0056 FB73     		strb	r3, [r7, #15]
  91 0058 10E0     		b	.L4
  92              	.L2:
 111:Drivers/STM32F7xx_HAL_Driver/Src/stm32f7xx_ll_usb.c ****   }
 112:Drivers/STM32F7xx_HAL_Driver/Src/stm32f7xx_ll_usb.c **** #if defined(STM32F722xx) || defined(STM32F723xx) || defined(STM32F730xx) || defined(STM32F732xx) ||
 113:Drivers/STM32F7xx_HAL_Driver/Src/stm32f7xx_ll_usb.c ****   else if (cfg.phy_itface == USB_OTG_HS_EMBEDDED_PHY)
 114:Drivers/STM32F7xx_HAL_Driver/Src/stm32f7xx_ll_usb.c ****   {
 115:Drivers/STM32F7xx_HAL_Driver/Src/stm32f7xx_ll_usb.c ****     USBx->GCCFG &= ~(USB_OTG_GCCFG_PWRDWN);
 116:Drivers/STM32F7xx_HAL_Driver/Src/stm32f7xx_ll_usb.c **** 
 117:Drivers/STM32F7xx_HAL_Driver/Src/stm32f7xx_ll_usb.c ****     /* Init The UTMI Interface */
 118:Drivers/STM32F7xx_HAL_Driver/Src/stm32f7xx_ll_usb.c ****     USBx->GUSBCFG &= ~(USB_OTG_GUSBCFG_TSDPS | USB_OTG_GUSBCFG_ULPIFSLS | USB_OTG_GUSBCFG_PHYSEL);
 119:Drivers/STM32F7xx_HAL_Driver/Src/stm32f7xx_ll_usb.c **** 
 120:Drivers/STM32F7xx_HAL_Driver/Src/stm32f7xx_ll_usb.c ****     /* Select vbus source */
 121:Drivers/STM32F7xx_HAL_Driver/Src/stm32f7xx_ll_usb.c ****     USBx->GUSBCFG &= ~(USB_OTG_GUSBCFG_ULPIEVBUSD | USB_OTG_GUSBCFG_ULPIEVBUSI);
 122:Drivers/STM32F7xx_HAL_Driver/Src/stm32f7xx_ll_usb.c **** 
 123:Drivers/STM32F7xx_HAL_Driver/Src/stm32f7xx_ll_usb.c ****     /* Select UTMI Interface */
 124:Drivers/STM32F7xx_HAL_Driver/Src/stm32f7xx_ll_usb.c ****     USBx->GUSBCFG &= ~USB_OTG_GUSBCFG_ULPI_UTMI_SEL;
 125:Drivers/STM32F7xx_HAL_Driver/Src/stm32f7xx_ll_usb.c **** #ifdef USBPHYC
 126:Drivers/STM32F7xx_HAL_Driver/Src/stm32f7xx_ll_usb.c ****     /* Enable USB HS PHY */
 127:Drivers/STM32F7xx_HAL_Driver/Src/stm32f7xx_ll_usb.c ****     USBx->GCCFG |= USB_OTG_GCCFG_PHYHSEN;
 128:Drivers/STM32F7xx_HAL_Driver/Src/stm32f7xx_ll_usb.c **** 
 129:Drivers/STM32F7xx_HAL_Driver/Src/stm32f7xx_ll_usb.c ****     /* Enables control of a High Speed USB PHY */
 130:Drivers/STM32F7xx_HAL_Driver/Src/stm32f7xx_ll_usb.c ****     if (USB_HS_PHYCInit(USBx) != HAL_OK)
 131:Drivers/STM32F7xx_HAL_Driver/Src/stm32f7xx_ll_usb.c ****     {
 132:Drivers/STM32F7xx_HAL_Driver/Src/stm32f7xx_ll_usb.c ****       return HAL_ERROR;
 133:Drivers/STM32F7xx_HAL_Driver/Src/stm32f7xx_ll_usb.c ****     }
 134:Drivers/STM32F7xx_HAL_Driver/Src/stm32f7xx_ll_usb.c **** #endif /* USBPHYC */
 135:Drivers/STM32F7xx_HAL_Driver/Src/stm32f7xx_ll_usb.c **** 
 136:Drivers/STM32F7xx_HAL_Driver/Src/stm32f7xx_ll_usb.c ****     if (cfg.use_external_vbus == 1U)
 137:Drivers/STM32F7xx_HAL_Driver/Src/stm32f7xx_ll_usb.c ****     {
ARM GAS  C:\Users\jisu8\AppData\Local\Temp\cc8f41y5.s 			page 5


 138:Drivers/STM32F7xx_HAL_Driver/Src/stm32f7xx_ll_usb.c ****       USBx->GUSBCFG |= USB_OTG_GUSBCFG_ULPIEVBUSD;
 139:Drivers/STM32F7xx_HAL_Driver/Src/stm32f7xx_ll_usb.c ****     }
 140:Drivers/STM32F7xx_HAL_Driver/Src/stm32f7xx_ll_usb.c **** 
 141:Drivers/STM32F7xx_HAL_Driver/Src/stm32f7xx_ll_usb.c ****     /* Reset after a PHY select */
 142:Drivers/STM32F7xx_HAL_Driver/Src/stm32f7xx_ll_usb.c ****     ret = USB_CoreReset(USBx);
 143:Drivers/STM32F7xx_HAL_Driver/Src/stm32f7xx_ll_usb.c ****   }
 144:Drivers/STM32F7xx_HAL_Driver/Src/stm32f7xx_ll_usb.c **** #endif /* defined(STM32F722xx) || defined(STM32F723xx) || defined(STM32F730xx) || defined(STM32F732
 145:Drivers/STM32F7xx_HAL_Driver/Src/stm32f7xx_ll_usb.c ****   else /* FS interface (embedded Phy) */
 146:Drivers/STM32F7xx_HAL_Driver/Src/stm32f7xx_ll_usb.c ****   {
 147:Drivers/STM32F7xx_HAL_Driver/Src/stm32f7xx_ll_usb.c ****     /* Select FS Embedded PHY */
 148:Drivers/STM32F7xx_HAL_Driver/Src/stm32f7xx_ll_usb.c ****     USBx->GUSBCFG |= USB_OTG_GUSBCFG_PHYSEL;
  93              		.loc 1 148 19
  94 005a 7B68     		ldr	r3, [r7, #4]
  95 005c DB68     		ldr	r3, [r3, #12]
  96 005e 43F04002 		orr	r2, r3, #64
  97 0062 7B68     		ldr	r3, [r7, #4]
  98 0064 DA60     		str	r2, [r3, #12]
 149:Drivers/STM32F7xx_HAL_Driver/Src/stm32f7xx_ll_usb.c **** 
 150:Drivers/STM32F7xx_HAL_Driver/Src/stm32f7xx_ll_usb.c ****     /* Reset after a PHY select */
 151:Drivers/STM32F7xx_HAL_Driver/Src/stm32f7xx_ll_usb.c ****     ret = USB_CoreReset(USBx);
  99              		.loc 1 151 11
 100 0066 7868     		ldr	r0, [r7, #4]
 101 0068 FFF7FEFF 		bl	USB_CoreReset
 102 006c 0346     		mov	r3, r0
 103 006e FB73     		strb	r3, [r7, #15]
 152:Drivers/STM32F7xx_HAL_Driver/Src/stm32f7xx_ll_usb.c **** 
 153:Drivers/STM32F7xx_HAL_Driver/Src/stm32f7xx_ll_usb.c ****     /* Activate the USB Transceiver */
 154:Drivers/STM32F7xx_HAL_Driver/Src/stm32f7xx_ll_usb.c ****     USBx->GCCFG |= USB_OTG_GCCFG_PWRDWN;
 104              		.loc 1 154 17
 105 0070 7B68     		ldr	r3, [r7, #4]
 106 0072 9B6B     		ldr	r3, [r3, #56]
 107 0074 43F48032 		orr	r2, r3, #65536
 108 0078 7B68     		ldr	r3, [r7, #4]
 109 007a 9A63     		str	r2, [r3, #56]
 110              	.L4:
 155:Drivers/STM32F7xx_HAL_Driver/Src/stm32f7xx_ll_usb.c ****   }
 156:Drivers/STM32F7xx_HAL_Driver/Src/stm32f7xx_ll_usb.c **** 
 157:Drivers/STM32F7xx_HAL_Driver/Src/stm32f7xx_ll_usb.c ****   if (cfg.dma_enable == 1U)
 111              		.loc 1 157 10
 112 007c BB6A     		ldr	r3, [r7, #40]
 113              		.loc 1 157 6
 114 007e 012B     		cmp	r3, #1
 115 0080 0BD1     		bne	.L5
 158:Drivers/STM32F7xx_HAL_Driver/Src/stm32f7xx_ll_usb.c ****   {
 159:Drivers/STM32F7xx_HAL_Driver/Src/stm32f7xx_ll_usb.c ****     USBx->GAHBCFG |= USB_OTG_GAHBCFG_HBSTLEN_2;
 116              		.loc 1 159 19
 117 0082 7B68     		ldr	r3, [r7, #4]
 118 0084 9B68     		ldr	r3, [r3, #8]
 119 0086 43F00602 		orr	r2, r3, #6
 120 008a 7B68     		ldr	r3, [r7, #4]
 121 008c 9A60     		str	r2, [r3, #8]
 160:Drivers/STM32F7xx_HAL_Driver/Src/stm32f7xx_ll_usb.c ****     USBx->GAHBCFG |= USB_OTG_GAHBCFG_DMAEN;
 122              		.loc 1 160 19
 123 008e 7B68     		ldr	r3, [r7, #4]
 124 0090 9B68     		ldr	r3, [r3, #8]
 125 0092 43F02002 		orr	r2, r3, #32
 126 0096 7B68     		ldr	r3, [r7, #4]
ARM GAS  C:\Users\jisu8\AppData\Local\Temp\cc8f41y5.s 			page 6


 127 0098 9A60     		str	r2, [r3, #8]
 128              	.L5:
 161:Drivers/STM32F7xx_HAL_Driver/Src/stm32f7xx_ll_usb.c ****   }
 162:Drivers/STM32F7xx_HAL_Driver/Src/stm32f7xx_ll_usb.c **** 
 163:Drivers/STM32F7xx_HAL_Driver/Src/stm32f7xx_ll_usb.c ****   return ret;
 129              		.loc 1 163 10
 130 009a FB7B     		ldrb	r3, [r7, #15]	@ zero_extendqisi2
 164:Drivers/STM32F7xx_HAL_Driver/Src/stm32f7xx_ll_usb.c **** }
 131              		.loc 1 164 1
 132 009c 1846     		mov	r0, r3
 133 009e 1037     		adds	r7, r7, #16
 134              	.LCFI4:
 135              		.cfi_def_cfa_offset 24
 136 00a0 BD46     		mov	sp, r7
 137              	.LCFI5:
 138              		.cfi_def_cfa_register 13
 139              		@ sp needed
 140 00a2 BDE88040 		pop	{r7, lr}
 141              	.LCFI6:
 142              		.cfi_restore 14
 143              		.cfi_restore 7
 144              		.cfi_def_cfa_offset 16
 145 00a6 04B0     		add	sp, sp, #16
 146              	.LCFI7:
 147              		.cfi_def_cfa_offset 0
 148 00a8 7047     		bx	lr
 149              	.L8:
 150 00aa 00BF     		.align	2
 151              	.L7:
 152 00ac BFFFBDFF 		.word	-4325441
 153              		.cfi_endproc
 154              	.LFE141:
 156              		.section	.text.USB_SetTurnaroundTime,"ax",%progbits
 157              		.align	1
 158              		.global	USB_SetTurnaroundTime
 159              		.syntax unified
 160              		.thumb
 161              		.thumb_func
 163              	USB_SetTurnaroundTime:
 164              	.LFB142:
 165:Drivers/STM32F7xx_HAL_Driver/Src/stm32f7xx_ll_usb.c **** 
 166:Drivers/STM32F7xx_HAL_Driver/Src/stm32f7xx_ll_usb.c **** 
 167:Drivers/STM32F7xx_HAL_Driver/Src/stm32f7xx_ll_usb.c **** /**
 168:Drivers/STM32F7xx_HAL_Driver/Src/stm32f7xx_ll_usb.c ****   * @brief  Set the USB turnaround time
 169:Drivers/STM32F7xx_HAL_Driver/Src/stm32f7xx_ll_usb.c ****   * @param  USBx USB Instance
 170:Drivers/STM32F7xx_HAL_Driver/Src/stm32f7xx_ll_usb.c ****   * @param  hclk: AHB clock frequency
 171:Drivers/STM32F7xx_HAL_Driver/Src/stm32f7xx_ll_usb.c ****   * @retval USB turnaround time In PHY Clocks number
 172:Drivers/STM32F7xx_HAL_Driver/Src/stm32f7xx_ll_usb.c ****   */
 173:Drivers/STM32F7xx_HAL_Driver/Src/stm32f7xx_ll_usb.c **** HAL_StatusTypeDef USB_SetTurnaroundTime(USB_OTG_GlobalTypeDef *USBx,
 174:Drivers/STM32F7xx_HAL_Driver/Src/stm32f7xx_ll_usb.c ****                                         uint32_t hclk, uint8_t speed)
 175:Drivers/STM32F7xx_HAL_Driver/Src/stm32f7xx_ll_usb.c **** {
 165              		.loc 1 175 1
 166              		.cfi_startproc
 167              		@ args = 0, pretend = 0, frame = 24
 168              		@ frame_needed = 1, uses_anonymous_args = 0
 169              		@ link register save eliminated.
 170 0000 80B4     		push	{r7}
ARM GAS  C:\Users\jisu8\AppData\Local\Temp\cc8f41y5.s 			page 7


 171              	.LCFI8:
 172              		.cfi_def_cfa_offset 4
 173              		.cfi_offset 7, -4
 174 0002 87B0     		sub	sp, sp, #28
 175              	.LCFI9:
 176              		.cfi_def_cfa_offset 32
 177 0004 00AF     		add	r7, sp, #0
 178              	.LCFI10:
 179              		.cfi_def_cfa_register 7
 180 0006 F860     		str	r0, [r7, #12]
 181 0008 B960     		str	r1, [r7, #8]
 182 000a 1346     		mov	r3, r2
 183 000c FB71     		strb	r3, [r7, #7]
 176:Drivers/STM32F7xx_HAL_Driver/Src/stm32f7xx_ll_usb.c ****   uint32_t UsbTrd;
 177:Drivers/STM32F7xx_HAL_Driver/Src/stm32f7xx_ll_usb.c **** 
 178:Drivers/STM32F7xx_HAL_Driver/Src/stm32f7xx_ll_usb.c ****   /* The USBTRD is configured according to the tables below, depending on AHB frequency
 179:Drivers/STM32F7xx_HAL_Driver/Src/stm32f7xx_ll_usb.c ****   used by application. In the low AHB frequency range it is used to stretch enough the USB response
 180:Drivers/STM32F7xx_HAL_Driver/Src/stm32f7xx_ll_usb.c ****   time to IN tokens, the USB turnaround time, so to compensate for the longer AHB read access
 181:Drivers/STM32F7xx_HAL_Driver/Src/stm32f7xx_ll_usb.c ****   latency to the Data FIFO */
 182:Drivers/STM32F7xx_HAL_Driver/Src/stm32f7xx_ll_usb.c ****   if (speed == USBD_FS_SPEED)
 184              		.loc 1 182 6
 185 000e FB79     		ldrb	r3, [r7, #7]	@ zero_extendqisi2
 186 0010 022B     		cmp	r3, #2
 187 0012 65D1     		bne	.L10
 183:Drivers/STM32F7xx_HAL_Driver/Src/stm32f7xx_ll_usb.c ****   {
 184:Drivers/STM32F7xx_HAL_Driver/Src/stm32f7xx_ll_usb.c ****     if ((hclk >= 14200000U) && (hclk < 15000000U))
 188              		.loc 1 184 8
 189 0014 BB68     		ldr	r3, [r7, #8]
 190 0016 414A     		ldr	r2, .L24
 191 0018 9342     		cmp	r3, r2
 192 001a 06D9     		bls	.L11
 193              		.loc 1 184 29 discriminator 1
 194 001c BB68     		ldr	r3, [r7, #8]
 195 001e 404A     		ldr	r2, .L24+4
 196 0020 9342     		cmp	r3, r2
 197 0022 02D2     		bcs	.L11
 185:Drivers/STM32F7xx_HAL_Driver/Src/stm32f7xx_ll_usb.c ****     {
 186:Drivers/STM32F7xx_HAL_Driver/Src/stm32f7xx_ll_usb.c ****       /* hclk Clock Range between 14.2-15 MHz */
 187:Drivers/STM32F7xx_HAL_Driver/Src/stm32f7xx_ll_usb.c ****       UsbTrd = 0xFU;
 198              		.loc 1 187 14
 199 0024 0F23     		movs	r3, #15
 200 0026 7B61     		str	r3, [r7, #20]
 201 0028 62E0     		b	.L21
 202              	.L11:
 188:Drivers/STM32F7xx_HAL_Driver/Src/stm32f7xx_ll_usb.c ****     }
 189:Drivers/STM32F7xx_HAL_Driver/Src/stm32f7xx_ll_usb.c ****     else if ((hclk >= 15000000U) && (hclk < 16000000U))
 203              		.loc 1 189 13
 204 002a BB68     		ldr	r3, [r7, #8]
 205 002c 3C4A     		ldr	r2, .L24+4
 206 002e 9342     		cmp	r3, r2
 207 0030 06D3     		bcc	.L13
 208              		.loc 1 189 34 discriminator 1
 209 0032 BB68     		ldr	r3, [r7, #8]
 210 0034 3B4A     		ldr	r2, .L24+8
 211 0036 9342     		cmp	r3, r2
 212 0038 02D2     		bcs	.L13
 190:Drivers/STM32F7xx_HAL_Driver/Src/stm32f7xx_ll_usb.c ****     {
ARM GAS  C:\Users\jisu8\AppData\Local\Temp\cc8f41y5.s 			page 8


 191:Drivers/STM32F7xx_HAL_Driver/Src/stm32f7xx_ll_usb.c ****       /* hclk Clock Range between 15-16 MHz */
 192:Drivers/STM32F7xx_HAL_Driver/Src/stm32f7xx_ll_usb.c ****       UsbTrd = 0xEU;
 213              		.loc 1 192 14
 214 003a 0E23     		movs	r3, #14
 215 003c 7B61     		str	r3, [r7, #20]
 216 003e 57E0     		b	.L21
 217              	.L13:
 193:Drivers/STM32F7xx_HAL_Driver/Src/stm32f7xx_ll_usb.c ****     }
 194:Drivers/STM32F7xx_HAL_Driver/Src/stm32f7xx_ll_usb.c ****     else if ((hclk >= 16000000U) && (hclk < 17200000U))
 218              		.loc 1 194 13
 219 0040 BB68     		ldr	r3, [r7, #8]
 220 0042 384A     		ldr	r2, .L24+8
 221 0044 9342     		cmp	r3, r2
 222 0046 06D3     		bcc	.L14
 223              		.loc 1 194 34 discriminator 1
 224 0048 BB68     		ldr	r3, [r7, #8]
 225 004a 374A     		ldr	r2, .L24+12
 226 004c 9342     		cmp	r3, r2
 227 004e 02D2     		bcs	.L14
 195:Drivers/STM32F7xx_HAL_Driver/Src/stm32f7xx_ll_usb.c ****     {
 196:Drivers/STM32F7xx_HAL_Driver/Src/stm32f7xx_ll_usb.c ****       /* hclk Clock Range between 16-17.2 MHz */
 197:Drivers/STM32F7xx_HAL_Driver/Src/stm32f7xx_ll_usb.c ****       UsbTrd = 0xDU;
 228              		.loc 1 197 14
 229 0050 0D23     		movs	r3, #13
 230 0052 7B61     		str	r3, [r7, #20]
 231 0054 4CE0     		b	.L21
 232              	.L14:
 198:Drivers/STM32F7xx_HAL_Driver/Src/stm32f7xx_ll_usb.c ****     }
 199:Drivers/STM32F7xx_HAL_Driver/Src/stm32f7xx_ll_usb.c ****     else if ((hclk >= 17200000U) && (hclk < 18500000U))
 233              		.loc 1 199 13
 234 0056 BB68     		ldr	r3, [r7, #8]
 235 0058 334A     		ldr	r2, .L24+12
 236 005a 9342     		cmp	r3, r2
 237 005c 06D3     		bcc	.L15
 238              		.loc 1 199 34 discriminator 1
 239 005e BB68     		ldr	r3, [r7, #8]
 240 0060 324A     		ldr	r2, .L24+16
 241 0062 9342     		cmp	r3, r2
 242 0064 02D8     		bhi	.L15
 200:Drivers/STM32F7xx_HAL_Driver/Src/stm32f7xx_ll_usb.c ****     {
 201:Drivers/STM32F7xx_HAL_Driver/Src/stm32f7xx_ll_usb.c ****       /* hclk Clock Range between 17.2-18.5 MHz */
 202:Drivers/STM32F7xx_HAL_Driver/Src/stm32f7xx_ll_usb.c ****       UsbTrd = 0xCU;
 243              		.loc 1 202 14
 244 0066 0C23     		movs	r3, #12
 245 0068 7B61     		str	r3, [r7, #20]
 246 006a 41E0     		b	.L21
 247              	.L15:
 203:Drivers/STM32F7xx_HAL_Driver/Src/stm32f7xx_ll_usb.c ****     }
 204:Drivers/STM32F7xx_HAL_Driver/Src/stm32f7xx_ll_usb.c ****     else if ((hclk >= 18500000U) && (hclk < 20000000U))
 248              		.loc 1 204 13
 249 006c BB68     		ldr	r3, [r7, #8]
 250 006e 2F4A     		ldr	r2, .L24+16
 251 0070 9342     		cmp	r3, r2
 252 0072 06D9     		bls	.L16
 253              		.loc 1 204 34 discriminator 1
 254 0074 BB68     		ldr	r3, [r7, #8]
 255 0076 2E4A     		ldr	r2, .L24+20
ARM GAS  C:\Users\jisu8\AppData\Local\Temp\cc8f41y5.s 			page 9


 256 0078 9342     		cmp	r3, r2
 257 007a 02D8     		bhi	.L16
 205:Drivers/STM32F7xx_HAL_Driver/Src/stm32f7xx_ll_usb.c ****     {
 206:Drivers/STM32F7xx_HAL_Driver/Src/stm32f7xx_ll_usb.c ****       /* hclk Clock Range between 18.5-20 MHz */
 207:Drivers/STM32F7xx_HAL_Driver/Src/stm32f7xx_ll_usb.c ****       UsbTrd = 0xBU;
 258              		.loc 1 207 14
 259 007c 0B23     		movs	r3, #11
 260 007e 7B61     		str	r3, [r7, #20]
 261 0080 36E0     		b	.L21
 262              	.L16:
 208:Drivers/STM32F7xx_HAL_Driver/Src/stm32f7xx_ll_usb.c ****     }
 209:Drivers/STM32F7xx_HAL_Driver/Src/stm32f7xx_ll_usb.c ****     else if ((hclk >= 20000000U) && (hclk < 21800000U))
 263              		.loc 1 209 13
 264 0082 BB68     		ldr	r3, [r7, #8]
 265 0084 2A4A     		ldr	r2, .L24+20
 266 0086 9342     		cmp	r3, r2
 267 0088 06D9     		bls	.L17
 268              		.loc 1 209 34 discriminator 1
 269 008a BB68     		ldr	r3, [r7, #8]
 270 008c 294A     		ldr	r2, .L24+24
 271 008e 9342     		cmp	r3, r2
 272 0090 02D8     		bhi	.L17
 210:Drivers/STM32F7xx_HAL_Driver/Src/stm32f7xx_ll_usb.c ****     {
 211:Drivers/STM32F7xx_HAL_Driver/Src/stm32f7xx_ll_usb.c ****       /* hclk Clock Range between 20-21.8 MHz */
 212:Drivers/STM32F7xx_HAL_Driver/Src/stm32f7xx_ll_usb.c ****       UsbTrd = 0xAU;
 273              		.loc 1 212 14
 274 0092 0A23     		movs	r3, #10
 275 0094 7B61     		str	r3, [r7, #20]
 276 0096 2BE0     		b	.L21
 277              	.L17:
 213:Drivers/STM32F7xx_HAL_Driver/Src/stm32f7xx_ll_usb.c ****     }
 214:Drivers/STM32F7xx_HAL_Driver/Src/stm32f7xx_ll_usb.c ****     else if ((hclk >= 21800000U) && (hclk < 24000000U))
 278              		.loc 1 214 13
 279 0098 BB68     		ldr	r3, [r7, #8]
 280 009a 264A     		ldr	r2, .L24+24
 281 009c 9342     		cmp	r3, r2
 282 009e 06D9     		bls	.L18
 283              		.loc 1 214 34 discriminator 1
 284 00a0 BB68     		ldr	r3, [r7, #8]
 285 00a2 254A     		ldr	r2, .L24+28
 286 00a4 9342     		cmp	r3, r2
 287 00a6 02D2     		bcs	.L18
 215:Drivers/STM32F7xx_HAL_Driver/Src/stm32f7xx_ll_usb.c ****     {
 216:Drivers/STM32F7xx_HAL_Driver/Src/stm32f7xx_ll_usb.c ****       /* hclk Clock Range between 21.8-24 MHz */
 217:Drivers/STM32F7xx_HAL_Driver/Src/stm32f7xx_ll_usb.c ****       UsbTrd = 0x9U;
 288              		.loc 1 217 14
 289 00a8 0923     		movs	r3, #9
 290 00aa 7B61     		str	r3, [r7, #20]
 291 00ac 20E0     		b	.L21
 292              	.L18:
 218:Drivers/STM32F7xx_HAL_Driver/Src/stm32f7xx_ll_usb.c ****     }
 219:Drivers/STM32F7xx_HAL_Driver/Src/stm32f7xx_ll_usb.c ****     else if ((hclk >= 24000000U) && (hclk < 27700000U))
 293              		.loc 1 219 13
 294 00ae BB68     		ldr	r3, [r7, #8]
 295 00b0 214A     		ldr	r2, .L24+28
 296 00b2 9342     		cmp	r3, r2
 297 00b4 06D3     		bcc	.L19
ARM GAS  C:\Users\jisu8\AppData\Local\Temp\cc8f41y5.s 			page 10


 298              		.loc 1 219 34 discriminator 1
 299 00b6 BB68     		ldr	r3, [r7, #8]
 300 00b8 204A     		ldr	r2, .L24+32
 301 00ba 9342     		cmp	r3, r2
 302 00bc 02D8     		bhi	.L19
 220:Drivers/STM32F7xx_HAL_Driver/Src/stm32f7xx_ll_usb.c ****     {
 221:Drivers/STM32F7xx_HAL_Driver/Src/stm32f7xx_ll_usb.c ****       /* hclk Clock Range between 24-27.7 MHz */
 222:Drivers/STM32F7xx_HAL_Driver/Src/stm32f7xx_ll_usb.c ****       UsbTrd = 0x8U;
 303              		.loc 1 222 14
 304 00be 0823     		movs	r3, #8
 305 00c0 7B61     		str	r3, [r7, #20]
 306 00c2 15E0     		b	.L21
 307              	.L19:
 223:Drivers/STM32F7xx_HAL_Driver/Src/stm32f7xx_ll_usb.c ****     }
 224:Drivers/STM32F7xx_HAL_Driver/Src/stm32f7xx_ll_usb.c ****     else if ((hclk >= 27700000U) && (hclk < 32000000U))
 308              		.loc 1 224 13
 309 00c4 BB68     		ldr	r3, [r7, #8]
 310 00c6 1D4A     		ldr	r2, .L24+32
 311 00c8 9342     		cmp	r3, r2
 312 00ca 06D9     		bls	.L20
 313              		.loc 1 224 34 discriminator 1
 314 00cc BB68     		ldr	r3, [r7, #8]
 315 00ce 1C4A     		ldr	r2, .L24+36
 316 00d0 9342     		cmp	r3, r2
 317 00d2 02D2     		bcs	.L20
 225:Drivers/STM32F7xx_HAL_Driver/Src/stm32f7xx_ll_usb.c ****     {
 226:Drivers/STM32F7xx_HAL_Driver/Src/stm32f7xx_ll_usb.c ****       /* hclk Clock Range between 27.7-32 MHz */
 227:Drivers/STM32F7xx_HAL_Driver/Src/stm32f7xx_ll_usb.c ****       UsbTrd = 0x7U;
 318              		.loc 1 227 14
 319 00d4 0723     		movs	r3, #7
 320 00d6 7B61     		str	r3, [r7, #20]
 321 00d8 0AE0     		b	.L21
 322              	.L20:
 228:Drivers/STM32F7xx_HAL_Driver/Src/stm32f7xx_ll_usb.c ****     }
 229:Drivers/STM32F7xx_HAL_Driver/Src/stm32f7xx_ll_usb.c ****     else /* if(hclk >= 32000000) */
 230:Drivers/STM32F7xx_HAL_Driver/Src/stm32f7xx_ll_usb.c ****     {
 231:Drivers/STM32F7xx_HAL_Driver/Src/stm32f7xx_ll_usb.c ****       /* hclk Clock Range between 32-200 MHz */
 232:Drivers/STM32F7xx_HAL_Driver/Src/stm32f7xx_ll_usb.c ****       UsbTrd = 0x6U;
 323              		.loc 1 232 14
 324 00da 0623     		movs	r3, #6
 325 00dc 7B61     		str	r3, [r7, #20]
 326 00de 07E0     		b	.L21
 327              	.L10:
 233:Drivers/STM32F7xx_HAL_Driver/Src/stm32f7xx_ll_usb.c ****     }
 234:Drivers/STM32F7xx_HAL_Driver/Src/stm32f7xx_ll_usb.c ****   }
 235:Drivers/STM32F7xx_HAL_Driver/Src/stm32f7xx_ll_usb.c ****   else if (speed == USBD_HS_SPEED)
 328              		.loc 1 235 11
 329 00e0 FB79     		ldrb	r3, [r7, #7]	@ zero_extendqisi2
 330 00e2 002B     		cmp	r3, #0
 331 00e4 02D1     		bne	.L22
 236:Drivers/STM32F7xx_HAL_Driver/Src/stm32f7xx_ll_usb.c ****   {
 237:Drivers/STM32F7xx_HAL_Driver/Src/stm32f7xx_ll_usb.c ****     UsbTrd = USBD_HS_TRDT_VALUE;
 332              		.loc 1 237 12
 333 00e6 0923     		movs	r3, #9
 334 00e8 7B61     		str	r3, [r7, #20]
 335 00ea 01E0     		b	.L21
 336              	.L22:
ARM GAS  C:\Users\jisu8\AppData\Local\Temp\cc8f41y5.s 			page 11


 238:Drivers/STM32F7xx_HAL_Driver/Src/stm32f7xx_ll_usb.c ****   }
 239:Drivers/STM32F7xx_HAL_Driver/Src/stm32f7xx_ll_usb.c ****   else
 240:Drivers/STM32F7xx_HAL_Driver/Src/stm32f7xx_ll_usb.c ****   {
 241:Drivers/STM32F7xx_HAL_Driver/Src/stm32f7xx_ll_usb.c ****     UsbTrd = USBD_DEFAULT_TRDT_VALUE;
 337              		.loc 1 241 12
 338 00ec 0923     		movs	r3, #9
 339 00ee 7B61     		str	r3, [r7, #20]
 340              	.L21:
 242:Drivers/STM32F7xx_HAL_Driver/Src/stm32f7xx_ll_usb.c ****   }
 243:Drivers/STM32F7xx_HAL_Driver/Src/stm32f7xx_ll_usb.c **** 
 244:Drivers/STM32F7xx_HAL_Driver/Src/stm32f7xx_ll_usb.c ****   USBx->GUSBCFG &= ~USB_OTG_GUSBCFG_TRDT;
 341              		.loc 1 244 17
 342 00f0 FB68     		ldr	r3, [r7, #12]
 343 00f2 DB68     		ldr	r3, [r3, #12]
 344 00f4 23F47052 		bic	r2, r3, #15360
 345 00f8 FB68     		ldr	r3, [r7, #12]
 346 00fa DA60     		str	r2, [r3, #12]
 245:Drivers/STM32F7xx_HAL_Driver/Src/stm32f7xx_ll_usb.c ****   USBx->GUSBCFG |= (uint32_t)((UsbTrd << 10) & USB_OTG_GUSBCFG_TRDT);
 347              		.loc 1 245 17
 348 00fc FB68     		ldr	r3, [r7, #12]
 349 00fe DA68     		ldr	r2, [r3, #12]
 350              		.loc 1 245 39
 351 0100 7B69     		ldr	r3, [r7, #20]
 352 0102 9B02     		lsls	r3, r3, #10
 353              		.loc 1 245 20
 354 0104 03F47053 		and	r3, r3, #15360
 355              		.loc 1 245 17
 356 0108 1A43     		orrs	r2, r2, r3
 357 010a FB68     		ldr	r3, [r7, #12]
 358 010c DA60     		str	r2, [r3, #12]
 246:Drivers/STM32F7xx_HAL_Driver/Src/stm32f7xx_ll_usb.c **** 
 247:Drivers/STM32F7xx_HAL_Driver/Src/stm32f7xx_ll_usb.c ****   return HAL_OK;
 359              		.loc 1 247 10
 360 010e 0023     		movs	r3, #0
 248:Drivers/STM32F7xx_HAL_Driver/Src/stm32f7xx_ll_usb.c **** }
 361              		.loc 1 248 1
 362 0110 1846     		mov	r0, r3
 363 0112 1C37     		adds	r7, r7, #28
 364              	.LCFI11:
 365              		.cfi_def_cfa_offset 4
 366 0114 BD46     		mov	sp, r7
 367              	.LCFI12:
 368              		.cfi_def_cfa_register 13
 369              		@ sp needed
 370 0116 5DF8047B 		ldr	r7, [sp], #4
 371              	.LCFI13:
 372              		.cfi_restore 7
 373              		.cfi_def_cfa_offset 0
 374 011a 7047     		bx	lr
 375              	.L25:
 376              		.align	2
 377              	.L24:
 378 011c BFACD800 		.word	14199999
 379 0120 C0E1E400 		.word	15000000
 380 0124 0024F400 		.word	16000000
 381 0128 80730601 		.word	17200000
 382 012c 9F491A01 		.word	18499999
ARM GAS  C:\Users\jisu8\AppData\Local\Temp\cc8f41y5.s 			page 12


 383 0130 FF2C3101 		.word	19999999
 384 0134 3FA44C01 		.word	21799999
 385 0138 00366E01 		.word	24000000
 386 013c 1FABA601 		.word	27699999
 387 0140 0048E801 		.word	32000000
 388              		.cfi_endproc
 389              	.LFE142:
 391              		.section	.text.USB_EnableGlobalInt,"ax",%progbits
 392              		.align	1
 393              		.global	USB_EnableGlobalInt
 394              		.syntax unified
 395              		.thumb
 396              		.thumb_func
 398              	USB_EnableGlobalInt:
 399              	.LFB143:
 249:Drivers/STM32F7xx_HAL_Driver/Src/stm32f7xx_ll_usb.c **** 
 250:Drivers/STM32F7xx_HAL_Driver/Src/stm32f7xx_ll_usb.c **** /**
 251:Drivers/STM32F7xx_HAL_Driver/Src/stm32f7xx_ll_usb.c ****   * @brief  USB_EnableGlobalInt
 252:Drivers/STM32F7xx_HAL_Driver/Src/stm32f7xx_ll_usb.c ****   *         Enables the controller's Global Int in the AHB Config reg
 253:Drivers/STM32F7xx_HAL_Driver/Src/stm32f7xx_ll_usb.c ****   * @param  USBx  Selected device
 254:Drivers/STM32F7xx_HAL_Driver/Src/stm32f7xx_ll_usb.c ****   * @retval HAL status
 255:Drivers/STM32F7xx_HAL_Driver/Src/stm32f7xx_ll_usb.c ****   */
 256:Drivers/STM32F7xx_HAL_Driver/Src/stm32f7xx_ll_usb.c **** HAL_StatusTypeDef USB_EnableGlobalInt(USB_OTG_GlobalTypeDef *USBx)
 257:Drivers/STM32F7xx_HAL_Driver/Src/stm32f7xx_ll_usb.c **** {
 400              		.loc 1 257 1
 401              		.cfi_startproc
 402              		@ args = 0, pretend = 0, frame = 8
 403              		@ frame_needed = 1, uses_anonymous_args = 0
 404              		@ link register save eliminated.
 405 0000 80B4     		push	{r7}
 406              	.LCFI14:
 407              		.cfi_def_cfa_offset 4
 408              		.cfi_offset 7, -4
 409 0002 83B0     		sub	sp, sp, #12
 410              	.LCFI15:
 411              		.cfi_def_cfa_offset 16
 412 0004 00AF     		add	r7, sp, #0
 413              	.LCFI16:
 414              		.cfi_def_cfa_register 7
 415 0006 7860     		str	r0, [r7, #4]
 258:Drivers/STM32F7xx_HAL_Driver/Src/stm32f7xx_ll_usb.c ****   USBx->GAHBCFG |= USB_OTG_GAHBCFG_GINT;
 416              		.loc 1 258 17
 417 0008 7B68     		ldr	r3, [r7, #4]
 418 000a 9B68     		ldr	r3, [r3, #8]
 419 000c 43F00102 		orr	r2, r3, #1
 420 0010 7B68     		ldr	r3, [r7, #4]
 421 0012 9A60     		str	r2, [r3, #8]
 259:Drivers/STM32F7xx_HAL_Driver/Src/stm32f7xx_ll_usb.c ****   return HAL_OK;
 422              		.loc 1 259 10
 423 0014 0023     		movs	r3, #0
 260:Drivers/STM32F7xx_HAL_Driver/Src/stm32f7xx_ll_usb.c **** }
 424              		.loc 1 260 1
 425 0016 1846     		mov	r0, r3
 426 0018 0C37     		adds	r7, r7, #12
 427              	.LCFI17:
 428              		.cfi_def_cfa_offset 4
 429 001a BD46     		mov	sp, r7
ARM GAS  C:\Users\jisu8\AppData\Local\Temp\cc8f41y5.s 			page 13


 430              	.LCFI18:
 431              		.cfi_def_cfa_register 13
 432              		@ sp needed
 433 001c 5DF8047B 		ldr	r7, [sp], #4
 434              	.LCFI19:
 435              		.cfi_restore 7
 436              		.cfi_def_cfa_offset 0
 437 0020 7047     		bx	lr
 438              		.cfi_endproc
 439              	.LFE143:
 441              		.section	.text.USB_DisableGlobalInt,"ax",%progbits
 442              		.align	1
 443              		.global	USB_DisableGlobalInt
 444              		.syntax unified
 445              		.thumb
 446              		.thumb_func
 448              	USB_DisableGlobalInt:
 449              	.LFB144:
 261:Drivers/STM32F7xx_HAL_Driver/Src/stm32f7xx_ll_usb.c **** 
 262:Drivers/STM32F7xx_HAL_Driver/Src/stm32f7xx_ll_usb.c **** /**
 263:Drivers/STM32F7xx_HAL_Driver/Src/stm32f7xx_ll_usb.c ****   * @brief  USB_DisableGlobalInt
 264:Drivers/STM32F7xx_HAL_Driver/Src/stm32f7xx_ll_usb.c ****   *         Disable the controller's Global Int in the AHB Config reg
 265:Drivers/STM32F7xx_HAL_Driver/Src/stm32f7xx_ll_usb.c ****   * @param  USBx  Selected device
 266:Drivers/STM32F7xx_HAL_Driver/Src/stm32f7xx_ll_usb.c ****   * @retval HAL status
 267:Drivers/STM32F7xx_HAL_Driver/Src/stm32f7xx_ll_usb.c ****   */
 268:Drivers/STM32F7xx_HAL_Driver/Src/stm32f7xx_ll_usb.c **** HAL_StatusTypeDef USB_DisableGlobalInt(USB_OTG_GlobalTypeDef *USBx)
 269:Drivers/STM32F7xx_HAL_Driver/Src/stm32f7xx_ll_usb.c **** {
 450              		.loc 1 269 1
 451              		.cfi_startproc
 452              		@ args = 0, pretend = 0, frame = 8
 453              		@ frame_needed = 1, uses_anonymous_args = 0
 454              		@ link register save eliminated.
 455 0000 80B4     		push	{r7}
 456              	.LCFI20:
 457              		.cfi_def_cfa_offset 4
 458              		.cfi_offset 7, -4
 459 0002 83B0     		sub	sp, sp, #12
 460              	.LCFI21:
 461              		.cfi_def_cfa_offset 16
 462 0004 00AF     		add	r7, sp, #0
 463              	.LCFI22:
 464              		.cfi_def_cfa_register 7
 465 0006 7860     		str	r0, [r7, #4]
 270:Drivers/STM32F7xx_HAL_Driver/Src/stm32f7xx_ll_usb.c ****   USBx->GAHBCFG &= ~USB_OTG_GAHBCFG_GINT;
 466              		.loc 1 270 17
 467 0008 7B68     		ldr	r3, [r7, #4]
 468 000a 9B68     		ldr	r3, [r3, #8]
 469 000c 23F00102 		bic	r2, r3, #1
 470 0010 7B68     		ldr	r3, [r7, #4]
 471 0012 9A60     		str	r2, [r3, #8]
 271:Drivers/STM32F7xx_HAL_Driver/Src/stm32f7xx_ll_usb.c ****   return HAL_OK;
 472              		.loc 1 271 10
 473 0014 0023     		movs	r3, #0
 272:Drivers/STM32F7xx_HAL_Driver/Src/stm32f7xx_ll_usb.c **** }
 474              		.loc 1 272 1
 475 0016 1846     		mov	r0, r3
 476 0018 0C37     		adds	r7, r7, #12
ARM GAS  C:\Users\jisu8\AppData\Local\Temp\cc8f41y5.s 			page 14


 477              	.LCFI23:
 478              		.cfi_def_cfa_offset 4
 479 001a BD46     		mov	sp, r7
 480              	.LCFI24:
 481              		.cfi_def_cfa_register 13
 482              		@ sp needed
 483 001c 5DF8047B 		ldr	r7, [sp], #4
 484              	.LCFI25:
 485              		.cfi_restore 7
 486              		.cfi_def_cfa_offset 0
 487 0020 7047     		bx	lr
 488              		.cfi_endproc
 489              	.LFE144:
 491              		.section	.text.USB_SetCurrentMode,"ax",%progbits
 492              		.align	1
 493              		.global	USB_SetCurrentMode
 494              		.syntax unified
 495              		.thumb
 496              		.thumb_func
 498              	USB_SetCurrentMode:
 499              	.LFB145:
 273:Drivers/STM32F7xx_HAL_Driver/Src/stm32f7xx_ll_usb.c **** 
 274:Drivers/STM32F7xx_HAL_Driver/Src/stm32f7xx_ll_usb.c **** /**
 275:Drivers/STM32F7xx_HAL_Driver/Src/stm32f7xx_ll_usb.c ****   * @brief  USB_SetCurrentMode Set functional mode
 276:Drivers/STM32F7xx_HAL_Driver/Src/stm32f7xx_ll_usb.c ****   * @param  USBx  Selected device
 277:Drivers/STM32F7xx_HAL_Driver/Src/stm32f7xx_ll_usb.c ****   * @param  mode  current core mode
 278:Drivers/STM32F7xx_HAL_Driver/Src/stm32f7xx_ll_usb.c ****   *          This parameter can be one of these values:
 279:Drivers/STM32F7xx_HAL_Driver/Src/stm32f7xx_ll_usb.c ****   *            @arg USB_DEVICE_MODE Peripheral mode
 280:Drivers/STM32F7xx_HAL_Driver/Src/stm32f7xx_ll_usb.c ****   *            @arg USB_HOST_MODE Host mode
 281:Drivers/STM32F7xx_HAL_Driver/Src/stm32f7xx_ll_usb.c ****   * @retval HAL status
 282:Drivers/STM32F7xx_HAL_Driver/Src/stm32f7xx_ll_usb.c ****   */
 283:Drivers/STM32F7xx_HAL_Driver/Src/stm32f7xx_ll_usb.c **** HAL_StatusTypeDef USB_SetCurrentMode(USB_OTG_GlobalTypeDef *USBx, USB_OTG_ModeTypeDef mode)
 284:Drivers/STM32F7xx_HAL_Driver/Src/stm32f7xx_ll_usb.c **** {
 500              		.loc 1 284 1
 501              		.cfi_startproc
 502              		@ args = 0, pretend = 0, frame = 16
 503              		@ frame_needed = 1, uses_anonymous_args = 0
 504 0000 80B5     		push	{r7, lr}
 505              	.LCFI26:
 506              		.cfi_def_cfa_offset 8
 507              		.cfi_offset 7, -8
 508              		.cfi_offset 14, -4
 509 0002 84B0     		sub	sp, sp, #16
 510              	.LCFI27:
 511              		.cfi_def_cfa_offset 24
 512 0004 00AF     		add	r7, sp, #0
 513              	.LCFI28:
 514              		.cfi_def_cfa_register 7
 515 0006 7860     		str	r0, [r7, #4]
 516 0008 0B46     		mov	r3, r1
 517 000a FB70     		strb	r3, [r7, #3]
 285:Drivers/STM32F7xx_HAL_Driver/Src/stm32f7xx_ll_usb.c ****   uint32_t ms = 0U;
 518              		.loc 1 285 12
 519 000c 0023     		movs	r3, #0
 520 000e FB60     		str	r3, [r7, #12]
 286:Drivers/STM32F7xx_HAL_Driver/Src/stm32f7xx_ll_usb.c **** 
 287:Drivers/STM32F7xx_HAL_Driver/Src/stm32f7xx_ll_usb.c ****   USBx->GUSBCFG &= ~(USB_OTG_GUSBCFG_FHMOD | USB_OTG_GUSBCFG_FDMOD);
ARM GAS  C:\Users\jisu8\AppData\Local\Temp\cc8f41y5.s 			page 15


 521              		.loc 1 287 17
 522 0010 7B68     		ldr	r3, [r7, #4]
 523 0012 DB68     		ldr	r3, [r3, #12]
 524 0014 23F0C042 		bic	r2, r3, #1610612736
 525 0018 7B68     		ldr	r3, [r7, #4]
 526 001a DA60     		str	r2, [r3, #12]
 288:Drivers/STM32F7xx_HAL_Driver/Src/stm32f7xx_ll_usb.c **** 
 289:Drivers/STM32F7xx_HAL_Driver/Src/stm32f7xx_ll_usb.c ****   if (mode == USB_HOST_MODE)
 527              		.loc 1 289 6
 528 001c FB78     		ldrb	r3, [r7, #3]	@ zero_extendqisi2
 529 001e 012B     		cmp	r3, #1
 530 0020 15D1     		bne	.L31
 290:Drivers/STM32F7xx_HAL_Driver/Src/stm32f7xx_ll_usb.c ****   {
 291:Drivers/STM32F7xx_HAL_Driver/Src/stm32f7xx_ll_usb.c ****     USBx->GUSBCFG |= USB_OTG_GUSBCFG_FHMOD;
 531              		.loc 1 291 19
 532 0022 7B68     		ldr	r3, [r7, #4]
 533 0024 DB68     		ldr	r3, [r3, #12]
 534 0026 43F00052 		orr	r2, r3, #536870912
 535 002a 7B68     		ldr	r3, [r7, #4]
 536 002c DA60     		str	r2, [r3, #12]
 537              	.L33:
 292:Drivers/STM32F7xx_HAL_Driver/Src/stm32f7xx_ll_usb.c **** 
 293:Drivers/STM32F7xx_HAL_Driver/Src/stm32f7xx_ll_usb.c ****     do
 294:Drivers/STM32F7xx_HAL_Driver/Src/stm32f7xx_ll_usb.c ****     {
 295:Drivers/STM32F7xx_HAL_Driver/Src/stm32f7xx_ll_usb.c ****       HAL_Delay(1U);
 538              		.loc 1 295 7 discriminator 2
 539 002e 0120     		movs	r0, #1
 540 0030 FFF7FEFF 		bl	HAL_Delay
 296:Drivers/STM32F7xx_HAL_Driver/Src/stm32f7xx_ll_usb.c ****       ms++;
 541              		.loc 1 296 9 discriminator 2
 542 0034 FB68     		ldr	r3, [r7, #12]
 543 0036 0133     		adds	r3, r3, #1
 544 0038 FB60     		str	r3, [r7, #12]
 297:Drivers/STM32F7xx_HAL_Driver/Src/stm32f7xx_ll_usb.c ****     } while ((USB_GetMode(USBx) != (uint32_t)USB_HOST_MODE) && (ms < 50U));
 545              		.loc 1 297 15 discriminator 2
 546 003a 7868     		ldr	r0, [r7, #4]
 547 003c FFF7FEFF 		bl	USB_GetMode
 548 0040 0346     		mov	r3, r0
 549              		.loc 1 297 5 discriminator 2
 550 0042 012B     		cmp	r3, #1
 551 0044 1ED0     		beq	.L32
 552              		.loc 1 297 61 discriminator 1
 553 0046 FB68     		ldr	r3, [r7, #12]
 554 0048 312B     		cmp	r3, #49
 555 004a F0D9     		bls	.L33
 556 004c 1AE0     		b	.L32
 557              	.L31:
 298:Drivers/STM32F7xx_HAL_Driver/Src/stm32f7xx_ll_usb.c ****   }
 299:Drivers/STM32F7xx_HAL_Driver/Src/stm32f7xx_ll_usb.c ****   else if (mode == USB_DEVICE_MODE)
 558              		.loc 1 299 11
 559 004e FB78     		ldrb	r3, [r7, #3]	@ zero_extendqisi2
 560 0050 002B     		cmp	r3, #0
 561 0052 15D1     		bne	.L34
 300:Drivers/STM32F7xx_HAL_Driver/Src/stm32f7xx_ll_usb.c ****   {
 301:Drivers/STM32F7xx_HAL_Driver/Src/stm32f7xx_ll_usb.c ****     USBx->GUSBCFG |= USB_OTG_GUSBCFG_FDMOD;
 562              		.loc 1 301 19
 563 0054 7B68     		ldr	r3, [r7, #4]
ARM GAS  C:\Users\jisu8\AppData\Local\Temp\cc8f41y5.s 			page 16


 564 0056 DB68     		ldr	r3, [r3, #12]
 565 0058 43F08042 		orr	r2, r3, #1073741824
 566 005c 7B68     		ldr	r3, [r7, #4]
 567 005e DA60     		str	r2, [r3, #12]
 568              	.L35:
 302:Drivers/STM32F7xx_HAL_Driver/Src/stm32f7xx_ll_usb.c **** 
 303:Drivers/STM32F7xx_HAL_Driver/Src/stm32f7xx_ll_usb.c ****     do
 304:Drivers/STM32F7xx_HAL_Driver/Src/stm32f7xx_ll_usb.c ****     {
 305:Drivers/STM32F7xx_HAL_Driver/Src/stm32f7xx_ll_usb.c ****       HAL_Delay(1U);
 569              		.loc 1 305 7 discriminator 2
 570 0060 0120     		movs	r0, #1
 571 0062 FFF7FEFF 		bl	HAL_Delay
 306:Drivers/STM32F7xx_HAL_Driver/Src/stm32f7xx_ll_usb.c ****       ms++;
 572              		.loc 1 306 9 discriminator 2
 573 0066 FB68     		ldr	r3, [r7, #12]
 574 0068 0133     		adds	r3, r3, #1
 575 006a FB60     		str	r3, [r7, #12]
 307:Drivers/STM32F7xx_HAL_Driver/Src/stm32f7xx_ll_usb.c ****     } while ((USB_GetMode(USBx) != (uint32_t)USB_DEVICE_MODE) && (ms < 50U));
 576              		.loc 1 307 15 discriminator 2
 577 006c 7868     		ldr	r0, [r7, #4]
 578 006e FFF7FEFF 		bl	USB_GetMode
 579 0072 0346     		mov	r3, r0
 580              		.loc 1 307 5 discriminator 2
 581 0074 002B     		cmp	r3, #0
 582 0076 05D0     		beq	.L32
 583              		.loc 1 307 63 discriminator 1
 584 0078 FB68     		ldr	r3, [r7, #12]
 585 007a 312B     		cmp	r3, #49
 586 007c F0D9     		bls	.L35
 587 007e 01E0     		b	.L32
 588              	.L34:
 308:Drivers/STM32F7xx_HAL_Driver/Src/stm32f7xx_ll_usb.c ****   }
 309:Drivers/STM32F7xx_HAL_Driver/Src/stm32f7xx_ll_usb.c ****   else
 310:Drivers/STM32F7xx_HAL_Driver/Src/stm32f7xx_ll_usb.c ****   {
 311:Drivers/STM32F7xx_HAL_Driver/Src/stm32f7xx_ll_usb.c ****     return HAL_ERROR;
 589              		.loc 1 311 12
 590 0080 0123     		movs	r3, #1
 591 0082 05E0     		b	.L36
 592              	.L32:
 312:Drivers/STM32F7xx_HAL_Driver/Src/stm32f7xx_ll_usb.c ****   }
 313:Drivers/STM32F7xx_HAL_Driver/Src/stm32f7xx_ll_usb.c **** 
 314:Drivers/STM32F7xx_HAL_Driver/Src/stm32f7xx_ll_usb.c ****   if (ms == 50U)
 593              		.loc 1 314 6
 594 0084 FB68     		ldr	r3, [r7, #12]
 595 0086 322B     		cmp	r3, #50
 596 0088 01D1     		bne	.L37
 315:Drivers/STM32F7xx_HAL_Driver/Src/stm32f7xx_ll_usb.c ****   {
 316:Drivers/STM32F7xx_HAL_Driver/Src/stm32f7xx_ll_usb.c ****     return HAL_ERROR;
 597              		.loc 1 316 12
 598 008a 0123     		movs	r3, #1
 599 008c 00E0     		b	.L36
 600              	.L37:
 317:Drivers/STM32F7xx_HAL_Driver/Src/stm32f7xx_ll_usb.c ****   }
 318:Drivers/STM32F7xx_HAL_Driver/Src/stm32f7xx_ll_usb.c **** 
 319:Drivers/STM32F7xx_HAL_Driver/Src/stm32f7xx_ll_usb.c ****   return HAL_OK;
 601              		.loc 1 319 10
 602 008e 0023     		movs	r3, #0
ARM GAS  C:\Users\jisu8\AppData\Local\Temp\cc8f41y5.s 			page 17


 603              	.L36:
 320:Drivers/STM32F7xx_HAL_Driver/Src/stm32f7xx_ll_usb.c **** }
 604              		.loc 1 320 1
 605 0090 1846     		mov	r0, r3
 606 0092 1037     		adds	r7, r7, #16
 607              	.LCFI29:
 608              		.cfi_def_cfa_offset 8
 609 0094 BD46     		mov	sp, r7
 610              	.LCFI30:
 611              		.cfi_def_cfa_register 13
 612              		@ sp needed
 613 0096 80BD     		pop	{r7, pc}
 614              		.cfi_endproc
 615              	.LFE145:
 617              		.section	.text.USB_DevInit,"ax",%progbits
 618              		.align	1
 619              		.global	USB_DevInit
 620              		.syntax unified
 621              		.thumb
 622              		.thumb_func
 624              	USB_DevInit:
 625              	.LFB146:
 321:Drivers/STM32F7xx_HAL_Driver/Src/stm32f7xx_ll_usb.c **** 
 322:Drivers/STM32F7xx_HAL_Driver/Src/stm32f7xx_ll_usb.c **** /**
 323:Drivers/STM32F7xx_HAL_Driver/Src/stm32f7xx_ll_usb.c ****   * @brief  USB_DevInit Initializes the USB_OTG controller registers
 324:Drivers/STM32F7xx_HAL_Driver/Src/stm32f7xx_ll_usb.c ****   *         for device mode
 325:Drivers/STM32F7xx_HAL_Driver/Src/stm32f7xx_ll_usb.c ****   * @param  USBx  Selected device
 326:Drivers/STM32F7xx_HAL_Driver/Src/stm32f7xx_ll_usb.c ****   * @param  cfg   pointer to a USB_OTG_CfgTypeDef structure that contains
 327:Drivers/STM32F7xx_HAL_Driver/Src/stm32f7xx_ll_usb.c ****   *         the configuration information for the specified USBx peripheral.
 328:Drivers/STM32F7xx_HAL_Driver/Src/stm32f7xx_ll_usb.c ****   * @retval HAL status
 329:Drivers/STM32F7xx_HAL_Driver/Src/stm32f7xx_ll_usb.c ****   */
 330:Drivers/STM32F7xx_HAL_Driver/Src/stm32f7xx_ll_usb.c **** HAL_StatusTypeDef USB_DevInit(USB_OTG_GlobalTypeDef *USBx, USB_OTG_CfgTypeDef cfg)
 331:Drivers/STM32F7xx_HAL_Driver/Src/stm32f7xx_ll_usb.c **** {
 626              		.loc 1 331 1
 627              		.cfi_startproc
 628              		@ args = 56, pretend = 16, frame = 24
 629              		@ frame_needed = 1, uses_anonymous_args = 0
 630 0000 84B0     		sub	sp, sp, #16
 631              	.LCFI31:
 632              		.cfi_def_cfa_offset 16
 633 0002 80B5     		push	{r7, lr}
 634              	.LCFI32:
 635              		.cfi_def_cfa_offset 24
 636              		.cfi_offset 7, -24
 637              		.cfi_offset 14, -20
 638 0004 86B0     		sub	sp, sp, #24
 639              	.LCFI33:
 640              		.cfi_def_cfa_offset 48
 641 0006 00AF     		add	r7, sp, #0
 642              	.LCFI34:
 643              		.cfi_def_cfa_register 7
 644 0008 7860     		str	r0, [r7, #4]
 645 000a 07F12400 		add	r0, r7, #36
 646 000e 80E80E00 		stm	r0, {r1, r2, r3}
 332:Drivers/STM32F7xx_HAL_Driver/Src/stm32f7xx_ll_usb.c ****   HAL_StatusTypeDef ret = HAL_OK;
 647              		.loc 1 332 21
 648 0012 0023     		movs	r3, #0
ARM GAS  C:\Users\jisu8\AppData\Local\Temp\cc8f41y5.s 			page 18


 649 0014 FB75     		strb	r3, [r7, #23]
 333:Drivers/STM32F7xx_HAL_Driver/Src/stm32f7xx_ll_usb.c ****   uint32_t USBx_BASE = (uint32_t)USBx;
 650              		.loc 1 333 12
 651 0016 7B68     		ldr	r3, [r7, #4]
 652 0018 FB60     		str	r3, [r7, #12]
 334:Drivers/STM32F7xx_HAL_Driver/Src/stm32f7xx_ll_usb.c ****   uint32_t i;
 335:Drivers/STM32F7xx_HAL_Driver/Src/stm32f7xx_ll_usb.c **** 
 336:Drivers/STM32F7xx_HAL_Driver/Src/stm32f7xx_ll_usb.c ****   for (i = 0U; i < 15U; i++)
 653              		.loc 1 336 10
 654 001a 0023     		movs	r3, #0
 655 001c 3B61     		str	r3, [r7, #16]
 656              		.loc 1 336 3
 657 001e 09E0     		b	.L39
 658              	.L40:
 337:Drivers/STM32F7xx_HAL_Driver/Src/stm32f7xx_ll_usb.c ****   {
 338:Drivers/STM32F7xx_HAL_Driver/Src/stm32f7xx_ll_usb.c ****     USBx->DIEPTXF[i] = 0U;
 659              		.loc 1 338 22 discriminator 3
 660 0020 7A68     		ldr	r2, [r7, #4]
 661 0022 3B69     		ldr	r3, [r7, #16]
 662 0024 4033     		adds	r3, r3, #64
 663 0026 9B00     		lsls	r3, r3, #2
 664 0028 1344     		add	r3, r3, r2
 665 002a 0022     		movs	r2, #0
 666 002c 5A60     		str	r2, [r3, #4]
 336:Drivers/STM32F7xx_HAL_Driver/Src/stm32f7xx_ll_usb.c ****   {
 667              		.loc 1 336 26 discriminator 3
 668 002e 3B69     		ldr	r3, [r7, #16]
 669 0030 0133     		adds	r3, r3, #1
 670 0032 3B61     		str	r3, [r7, #16]
 671              	.L39:
 336:Drivers/STM32F7xx_HAL_Driver/Src/stm32f7xx_ll_usb.c ****   {
 672              		.loc 1 336 3 discriminator 1
 673 0034 3B69     		ldr	r3, [r7, #16]
 674 0036 0E2B     		cmp	r3, #14
 675 0038 F2D9     		bls	.L40
 339:Drivers/STM32F7xx_HAL_Driver/Src/stm32f7xx_ll_usb.c ****   }
 340:Drivers/STM32F7xx_HAL_Driver/Src/stm32f7xx_ll_usb.c **** 
 341:Drivers/STM32F7xx_HAL_Driver/Src/stm32f7xx_ll_usb.c ****   /* VBUS Sensing setup */
 342:Drivers/STM32F7xx_HAL_Driver/Src/stm32f7xx_ll_usb.c ****   if (cfg.vbus_sensing_enable == 0U)
 676              		.loc 1 342 10
 677 003a FB6C     		ldr	r3, [r7, #76]
 678              		.loc 1 342 6
 679 003c 002B     		cmp	r3, #0
 680 003e 1CD1     		bne	.L41
 343:Drivers/STM32F7xx_HAL_Driver/Src/stm32f7xx_ll_usb.c ****   {
 344:Drivers/STM32F7xx_HAL_Driver/Src/stm32f7xx_ll_usb.c ****     USBx_DEVICE->DCTL |= USB_OTG_DCTL_SDIS;
 681              		.loc 1 344 23
 682 0040 FB68     		ldr	r3, [r7, #12]
 683 0042 03F50063 		add	r3, r3, #2048
 684 0046 5B68     		ldr	r3, [r3, #4]
 685 0048 FA68     		ldr	r2, [r7, #12]
 686 004a 02F50062 		add	r2, r2, #2048
 687 004e 43F00203 		orr	r3, r3, #2
 688 0052 5360     		str	r3, [r2, #4]
 345:Drivers/STM32F7xx_HAL_Driver/Src/stm32f7xx_ll_usb.c **** 
 346:Drivers/STM32F7xx_HAL_Driver/Src/stm32f7xx_ll_usb.c ****     /* Deactivate VBUS Sensing B */
 347:Drivers/STM32F7xx_HAL_Driver/Src/stm32f7xx_ll_usb.c ****     USBx->GCCFG &= ~USB_OTG_GCCFG_VBDEN;
ARM GAS  C:\Users\jisu8\AppData\Local\Temp\cc8f41y5.s 			page 19


 689              		.loc 1 347 17
 690 0054 7B68     		ldr	r3, [r7, #4]
 691 0056 9B6B     		ldr	r3, [r3, #56]
 692 0058 23F40012 		bic	r2, r3, #2097152
 693 005c 7B68     		ldr	r3, [r7, #4]
 694 005e 9A63     		str	r2, [r3, #56]
 348:Drivers/STM32F7xx_HAL_Driver/Src/stm32f7xx_ll_usb.c **** 
 349:Drivers/STM32F7xx_HAL_Driver/Src/stm32f7xx_ll_usb.c ****     /* B-peripheral session valid override enable */
 350:Drivers/STM32F7xx_HAL_Driver/Src/stm32f7xx_ll_usb.c ****     USBx->GOTGCTL |= USB_OTG_GOTGCTL_BVALOEN;
 695              		.loc 1 350 19
 696 0060 7B68     		ldr	r3, [r7, #4]
 697 0062 1B68     		ldr	r3, [r3]
 698 0064 43F04002 		orr	r2, r3, #64
 699 0068 7B68     		ldr	r3, [r7, #4]
 700 006a 1A60     		str	r2, [r3]
 351:Drivers/STM32F7xx_HAL_Driver/Src/stm32f7xx_ll_usb.c ****     USBx->GOTGCTL |= USB_OTG_GOTGCTL_BVALOVAL;
 701              		.loc 1 351 19
 702 006c 7B68     		ldr	r3, [r7, #4]
 703 006e 1B68     		ldr	r3, [r3]
 704 0070 43F08002 		orr	r2, r3, #128
 705 0074 7B68     		ldr	r3, [r7, #4]
 706 0076 1A60     		str	r2, [r3]
 707 0078 05E0     		b	.L42
 708              	.L41:
 352:Drivers/STM32F7xx_HAL_Driver/Src/stm32f7xx_ll_usb.c ****   }
 353:Drivers/STM32F7xx_HAL_Driver/Src/stm32f7xx_ll_usb.c ****   else
 354:Drivers/STM32F7xx_HAL_Driver/Src/stm32f7xx_ll_usb.c ****   {
 355:Drivers/STM32F7xx_HAL_Driver/Src/stm32f7xx_ll_usb.c ****     /* Enable HW VBUS sensing */
 356:Drivers/STM32F7xx_HAL_Driver/Src/stm32f7xx_ll_usb.c ****     USBx->GCCFG |= USB_OTG_GCCFG_VBDEN;
 709              		.loc 1 356 17
 710 007a 7B68     		ldr	r3, [r7, #4]
 711 007c 9B6B     		ldr	r3, [r3, #56]
 712 007e 43F40012 		orr	r2, r3, #2097152
 713 0082 7B68     		ldr	r3, [r7, #4]
 714 0084 9A63     		str	r2, [r3, #56]
 715              	.L42:
 357:Drivers/STM32F7xx_HAL_Driver/Src/stm32f7xx_ll_usb.c ****   }
 358:Drivers/STM32F7xx_HAL_Driver/Src/stm32f7xx_ll_usb.c **** 
 359:Drivers/STM32F7xx_HAL_Driver/Src/stm32f7xx_ll_usb.c ****   /* Restart the Phy Clock */
 360:Drivers/STM32F7xx_HAL_Driver/Src/stm32f7xx_ll_usb.c ****   USBx_PCGCCTL = 0U;
 716              		.loc 1 360 3
 717 0086 FB68     		ldr	r3, [r7, #12]
 718 0088 03F56063 		add	r3, r3, #3584
 719 008c 1A46     		mov	r2, r3
 720              		.loc 1 360 16
 721 008e 0023     		movs	r3, #0
 722 0090 1360     		str	r3, [r2]
 361:Drivers/STM32F7xx_HAL_Driver/Src/stm32f7xx_ll_usb.c **** 
 362:Drivers/STM32F7xx_HAL_Driver/Src/stm32f7xx_ll_usb.c ****   /* Device mode configuration */
 363:Drivers/STM32F7xx_HAL_Driver/Src/stm32f7xx_ll_usb.c ****   USBx_DEVICE->DCFG |= DCFG_FRAME_INTERVAL_80;
 723              		.loc 1 363 21
 724 0092 FB68     		ldr	r3, [r7, #12]
 725 0094 03F50063 		add	r3, r3, #2048
 726 0098 1946     		mov	r1, r3
 727 009a FB68     		ldr	r3, [r7, #12]
 728 009c 03F50063 		add	r3, r3, #2048
 729 00a0 1A46     		mov	r2, r3
ARM GAS  C:\Users\jisu8\AppData\Local\Temp\cc8f41y5.s 			page 20


 730 00a2 0B68     		ldr	r3, [r1]
 731 00a4 1360     		str	r3, [r2]
 364:Drivers/STM32F7xx_HAL_Driver/Src/stm32f7xx_ll_usb.c **** 
 365:Drivers/STM32F7xx_HAL_Driver/Src/stm32f7xx_ll_usb.c ****   if (cfg.phy_itface == USB_OTG_ULPI_PHY)
 732              		.loc 1 365 10
 733 00a6 BB6B     		ldr	r3, [r7, #56]
 734              		.loc 1 365 6
 735 00a8 012B     		cmp	r3, #1
 736 00aa 0CD1     		bne	.L43
 366:Drivers/STM32F7xx_HAL_Driver/Src/stm32f7xx_ll_usb.c ****   {
 367:Drivers/STM32F7xx_HAL_Driver/Src/stm32f7xx_ll_usb.c ****     if (cfg.speed == USBD_HS_SPEED)
 737              		.loc 1 367 12
 738 00ac FB6A     		ldr	r3, [r7, #44]
 739              		.loc 1 367 8
 740 00ae 002B     		cmp	r3, #0
 741 00b0 04D1     		bne	.L44
 368:Drivers/STM32F7xx_HAL_Driver/Src/stm32f7xx_ll_usb.c ****     {
 369:Drivers/STM32F7xx_HAL_Driver/Src/stm32f7xx_ll_usb.c ****       /* Set Core speed to High speed mode */
 370:Drivers/STM32F7xx_HAL_Driver/Src/stm32f7xx_ll_usb.c ****       (void)USB_SetDevSpeed(USBx, USB_OTG_SPEED_HIGH);
 742              		.loc 1 370 13
 743 00b2 0021     		movs	r1, #0
 744 00b4 7868     		ldr	r0, [r7, #4]
 745 00b6 FFF7FEFF 		bl	USB_SetDevSpeed
 746 00ba 08E0     		b	.L45
 747              	.L44:
 371:Drivers/STM32F7xx_HAL_Driver/Src/stm32f7xx_ll_usb.c ****     }
 372:Drivers/STM32F7xx_HAL_Driver/Src/stm32f7xx_ll_usb.c ****     else
 373:Drivers/STM32F7xx_HAL_Driver/Src/stm32f7xx_ll_usb.c ****     {
 374:Drivers/STM32F7xx_HAL_Driver/Src/stm32f7xx_ll_usb.c ****       /* Set Core speed to Full speed mode */
 375:Drivers/STM32F7xx_HAL_Driver/Src/stm32f7xx_ll_usb.c ****       (void)USB_SetDevSpeed(USBx, USB_OTG_SPEED_HIGH_IN_FULL);
 748              		.loc 1 375 13
 749 00bc 0121     		movs	r1, #1
 750 00be 7868     		ldr	r0, [r7, #4]
 751 00c0 FFF7FEFF 		bl	USB_SetDevSpeed
 752 00c4 03E0     		b	.L45
 753              	.L43:
 376:Drivers/STM32F7xx_HAL_Driver/Src/stm32f7xx_ll_usb.c ****     }
 377:Drivers/STM32F7xx_HAL_Driver/Src/stm32f7xx_ll_usb.c ****   }
 378:Drivers/STM32F7xx_HAL_Driver/Src/stm32f7xx_ll_usb.c **** #if defined(STM32F722xx) || defined(STM32F723xx) || defined(STM32F730xx) || defined(STM32F732xx) ||
 379:Drivers/STM32F7xx_HAL_Driver/Src/stm32f7xx_ll_usb.c ****   else if (cfg.phy_itface == USB_OTG_HS_EMBEDDED_PHY)
 380:Drivers/STM32F7xx_HAL_Driver/Src/stm32f7xx_ll_usb.c ****   {
 381:Drivers/STM32F7xx_HAL_Driver/Src/stm32f7xx_ll_usb.c ****     if (cfg.speed == USBD_HS_SPEED)
 382:Drivers/STM32F7xx_HAL_Driver/Src/stm32f7xx_ll_usb.c ****     {
 383:Drivers/STM32F7xx_HAL_Driver/Src/stm32f7xx_ll_usb.c ****       /* Set Core speed to High speed mode */
 384:Drivers/STM32F7xx_HAL_Driver/Src/stm32f7xx_ll_usb.c ****       (void)USB_SetDevSpeed(USBx, USB_OTG_SPEED_HIGH);
 385:Drivers/STM32F7xx_HAL_Driver/Src/stm32f7xx_ll_usb.c ****     }
 386:Drivers/STM32F7xx_HAL_Driver/Src/stm32f7xx_ll_usb.c ****     else
 387:Drivers/STM32F7xx_HAL_Driver/Src/stm32f7xx_ll_usb.c ****     {
 388:Drivers/STM32F7xx_HAL_Driver/Src/stm32f7xx_ll_usb.c ****       /* Set Core speed to Full speed mode */
 389:Drivers/STM32F7xx_HAL_Driver/Src/stm32f7xx_ll_usb.c ****       (void)USB_SetDevSpeed(USBx, USB_OTG_SPEED_HIGH_IN_FULL);
 390:Drivers/STM32F7xx_HAL_Driver/Src/stm32f7xx_ll_usb.c ****     }
 391:Drivers/STM32F7xx_HAL_Driver/Src/stm32f7xx_ll_usb.c ****   }
 392:Drivers/STM32F7xx_HAL_Driver/Src/stm32f7xx_ll_usb.c **** #endif /* defined(STM32F722xx) || defined(STM32F723xx) || defined(STM32F730xx) || defined(STM32F732
 393:Drivers/STM32F7xx_HAL_Driver/Src/stm32f7xx_ll_usb.c ****   else
 394:Drivers/STM32F7xx_HAL_Driver/Src/stm32f7xx_ll_usb.c ****   {
 395:Drivers/STM32F7xx_HAL_Driver/Src/stm32f7xx_ll_usb.c ****     /* Set Core speed to Full speed mode */
 396:Drivers/STM32F7xx_HAL_Driver/Src/stm32f7xx_ll_usb.c ****     (void)USB_SetDevSpeed(USBx, USB_OTG_SPEED_FULL);
ARM GAS  C:\Users\jisu8\AppData\Local\Temp\cc8f41y5.s 			page 21


 754              		.loc 1 396 11
 755 00c6 0321     		movs	r1, #3
 756 00c8 7868     		ldr	r0, [r7, #4]
 757 00ca FFF7FEFF 		bl	USB_SetDevSpeed
 758              	.L45:
 397:Drivers/STM32F7xx_HAL_Driver/Src/stm32f7xx_ll_usb.c ****   }
 398:Drivers/STM32F7xx_HAL_Driver/Src/stm32f7xx_ll_usb.c **** 
 399:Drivers/STM32F7xx_HAL_Driver/Src/stm32f7xx_ll_usb.c ****   /* Flush the FIFOs */
 400:Drivers/STM32F7xx_HAL_Driver/Src/stm32f7xx_ll_usb.c ****   if (USB_FlushTxFifo(USBx, 0x10U) != HAL_OK) /* all Tx FIFOs */
 759              		.loc 1 400 7
 760 00ce 1021     		movs	r1, #16
 761 00d0 7868     		ldr	r0, [r7, #4]
 762 00d2 FFF7FEFF 		bl	USB_FlushTxFifo
 763 00d6 0346     		mov	r3, r0
 764              		.loc 1 400 6
 765 00d8 002B     		cmp	r3, #0
 766 00da 01D0     		beq	.L46
 401:Drivers/STM32F7xx_HAL_Driver/Src/stm32f7xx_ll_usb.c ****   {
 402:Drivers/STM32F7xx_HAL_Driver/Src/stm32f7xx_ll_usb.c ****     ret = HAL_ERROR;
 767              		.loc 1 402 9
 768 00dc 0123     		movs	r3, #1
 769 00de FB75     		strb	r3, [r7, #23]
 770              	.L46:
 403:Drivers/STM32F7xx_HAL_Driver/Src/stm32f7xx_ll_usb.c ****   }
 404:Drivers/STM32F7xx_HAL_Driver/Src/stm32f7xx_ll_usb.c **** 
 405:Drivers/STM32F7xx_HAL_Driver/Src/stm32f7xx_ll_usb.c ****   if (USB_FlushRxFifo(USBx) != HAL_OK)
 771              		.loc 1 405 7
 772 00e0 7868     		ldr	r0, [r7, #4]
 773 00e2 FFF7FEFF 		bl	USB_FlushRxFifo
 774 00e6 0346     		mov	r3, r0
 775              		.loc 1 405 6
 776 00e8 002B     		cmp	r3, #0
 777 00ea 01D0     		beq	.L47
 406:Drivers/STM32F7xx_HAL_Driver/Src/stm32f7xx_ll_usb.c ****   {
 407:Drivers/STM32F7xx_HAL_Driver/Src/stm32f7xx_ll_usb.c ****     ret = HAL_ERROR;
 778              		.loc 1 407 9
 779 00ec 0123     		movs	r3, #1
 780 00ee FB75     		strb	r3, [r7, #23]
 781              	.L47:
 408:Drivers/STM32F7xx_HAL_Driver/Src/stm32f7xx_ll_usb.c ****   }
 409:Drivers/STM32F7xx_HAL_Driver/Src/stm32f7xx_ll_usb.c **** 
 410:Drivers/STM32F7xx_HAL_Driver/Src/stm32f7xx_ll_usb.c ****   /* Clear all pending Device Interrupts */
 411:Drivers/STM32F7xx_HAL_Driver/Src/stm32f7xx_ll_usb.c ****   USBx_DEVICE->DIEPMSK = 0U;
 782              		.loc 1 411 3
 783 00f0 FB68     		ldr	r3, [r7, #12]
 784 00f2 03F50063 		add	r3, r3, #2048
 785 00f6 1A46     		mov	r2, r3
 786              		.loc 1 411 24
 787 00f8 0023     		movs	r3, #0
 788 00fa 1361     		str	r3, [r2, #16]
 412:Drivers/STM32F7xx_HAL_Driver/Src/stm32f7xx_ll_usb.c ****   USBx_DEVICE->DOEPMSK = 0U;
 789              		.loc 1 412 3
 790 00fc FB68     		ldr	r3, [r7, #12]
 791 00fe 03F50063 		add	r3, r3, #2048
 792 0102 1A46     		mov	r2, r3
 793              		.loc 1 412 24
 794 0104 0023     		movs	r3, #0
ARM GAS  C:\Users\jisu8\AppData\Local\Temp\cc8f41y5.s 			page 22


 795 0106 5361     		str	r3, [r2, #20]
 413:Drivers/STM32F7xx_HAL_Driver/Src/stm32f7xx_ll_usb.c ****   USBx_DEVICE->DAINTMSK = 0U;
 796              		.loc 1 413 3
 797 0108 FB68     		ldr	r3, [r7, #12]
 798 010a 03F50063 		add	r3, r3, #2048
 799 010e 1A46     		mov	r2, r3
 800              		.loc 1 413 25
 801 0110 0023     		movs	r3, #0
 802 0112 D361     		str	r3, [r2, #28]
 414:Drivers/STM32F7xx_HAL_Driver/Src/stm32f7xx_ll_usb.c **** 
 415:Drivers/STM32F7xx_HAL_Driver/Src/stm32f7xx_ll_usb.c ****   for (i = 0U; i < cfg.dev_endpoints; i++)
 803              		.loc 1 415 10
 804 0114 0023     		movs	r3, #0
 805 0116 3B61     		str	r3, [r7, #16]
 806              		.loc 1 415 3
 807 0118 43E0     		b	.L48
 808              	.L52:
 416:Drivers/STM32F7xx_HAL_Driver/Src/stm32f7xx_ll_usb.c ****   {
 417:Drivers/STM32F7xx_HAL_Driver/Src/stm32f7xx_ll_usb.c ****     if ((USBx_INEP(i)->DIEPCTL & USB_OTG_DIEPCTL_EPENA) == USB_OTG_DIEPCTL_EPENA)
 809              		.loc 1 417 10
 810 011a 3B69     		ldr	r3, [r7, #16]
 811 011c 5A01     		lsls	r2, r3, #5
 812 011e FB68     		ldr	r3, [r7, #12]
 813 0120 1344     		add	r3, r3, r2
 814 0122 03F51063 		add	r3, r3, #2304
 815              		.loc 1 417 22
 816 0126 1B68     		ldr	r3, [r3]
 817              		.loc 1 417 32
 818 0128 03F00043 		and	r3, r3, #-2147483648
 819              		.loc 1 417 8
 820 012c B3F1004F 		cmp	r3, #-2147483648
 821 0130 18D1     		bne	.L49
 418:Drivers/STM32F7xx_HAL_Driver/Src/stm32f7xx_ll_usb.c ****     {
 419:Drivers/STM32F7xx_HAL_Driver/Src/stm32f7xx_ll_usb.c ****       if (i == 0U)
 822              		.loc 1 419 10
 823 0132 3B69     		ldr	r3, [r7, #16]
 824 0134 002B     		cmp	r3, #0
 825 0136 0AD1     		bne	.L50
 420:Drivers/STM32F7xx_HAL_Driver/Src/stm32f7xx_ll_usb.c ****       {
 421:Drivers/STM32F7xx_HAL_Driver/Src/stm32f7xx_ll_usb.c ****         USBx_INEP(i)->DIEPCTL = USB_OTG_DIEPCTL_SNAK;
 826              		.loc 1 421 9
 827 0138 3B69     		ldr	r3, [r7, #16]
 828 013a 5A01     		lsls	r2, r3, #5
 829 013c FB68     		ldr	r3, [r7, #12]
 830 013e 1344     		add	r3, r3, r2
 831 0140 03F51063 		add	r3, r3, #2304
 832 0144 1A46     		mov	r2, r3
 833              		.loc 1 421 31
 834 0146 4FF00063 		mov	r3, #134217728
 835 014a 1360     		str	r3, [r2]
 836 014c 13E0     		b	.L51
 837              	.L50:
 422:Drivers/STM32F7xx_HAL_Driver/Src/stm32f7xx_ll_usb.c ****       }
 423:Drivers/STM32F7xx_HAL_Driver/Src/stm32f7xx_ll_usb.c ****       else
 424:Drivers/STM32F7xx_HAL_Driver/Src/stm32f7xx_ll_usb.c ****       {
 425:Drivers/STM32F7xx_HAL_Driver/Src/stm32f7xx_ll_usb.c ****         USBx_INEP(i)->DIEPCTL = USB_OTG_DIEPCTL_EPDIS | USB_OTG_DIEPCTL_SNAK;
 838              		.loc 1 425 9
ARM GAS  C:\Users\jisu8\AppData\Local\Temp\cc8f41y5.s 			page 23


 839 014e 3B69     		ldr	r3, [r7, #16]
 840 0150 5A01     		lsls	r2, r3, #5
 841 0152 FB68     		ldr	r3, [r7, #12]
 842 0154 1344     		add	r3, r3, r2
 843 0156 03F51063 		add	r3, r3, #2304
 844 015a 1A46     		mov	r2, r3
 845              		.loc 1 425 31
 846 015c 4FF09043 		mov	r3, #1207959552
 847 0160 1360     		str	r3, [r2]
 848 0162 08E0     		b	.L51
 849              	.L49:
 426:Drivers/STM32F7xx_HAL_Driver/Src/stm32f7xx_ll_usb.c ****       }
 427:Drivers/STM32F7xx_HAL_Driver/Src/stm32f7xx_ll_usb.c ****     }
 428:Drivers/STM32F7xx_HAL_Driver/Src/stm32f7xx_ll_usb.c ****     else
 429:Drivers/STM32F7xx_HAL_Driver/Src/stm32f7xx_ll_usb.c ****     {
 430:Drivers/STM32F7xx_HAL_Driver/Src/stm32f7xx_ll_usb.c ****       USBx_INEP(i)->DIEPCTL = 0U;
 850              		.loc 1 430 7
 851 0164 3B69     		ldr	r3, [r7, #16]
 852 0166 5A01     		lsls	r2, r3, #5
 853 0168 FB68     		ldr	r3, [r7, #12]
 854 016a 1344     		add	r3, r3, r2
 855 016c 03F51063 		add	r3, r3, #2304
 856 0170 1A46     		mov	r2, r3
 857              		.loc 1 430 29
 858 0172 0023     		movs	r3, #0
 859 0174 1360     		str	r3, [r2]
 860              	.L51:
 431:Drivers/STM32F7xx_HAL_Driver/Src/stm32f7xx_ll_usb.c ****     }
 432:Drivers/STM32F7xx_HAL_Driver/Src/stm32f7xx_ll_usb.c **** 
 433:Drivers/STM32F7xx_HAL_Driver/Src/stm32f7xx_ll_usb.c ****     USBx_INEP(i)->DIEPTSIZ = 0U;
 861              		.loc 1 433 5 discriminator 2
 862 0176 3B69     		ldr	r3, [r7, #16]
 863 0178 5A01     		lsls	r2, r3, #5
 864 017a FB68     		ldr	r3, [r7, #12]
 865 017c 1344     		add	r3, r3, r2
 866 017e 03F51063 		add	r3, r3, #2304
 867 0182 1A46     		mov	r2, r3
 868              		.loc 1 433 28 discriminator 2
 869 0184 0023     		movs	r3, #0
 870 0186 1361     		str	r3, [r2, #16]
 434:Drivers/STM32F7xx_HAL_Driver/Src/stm32f7xx_ll_usb.c ****     USBx_INEP(i)->DIEPINT  = 0xFB7FU;
 871              		.loc 1 434 5 discriminator 2
 872 0188 3B69     		ldr	r3, [r7, #16]
 873 018a 5A01     		lsls	r2, r3, #5
 874 018c FB68     		ldr	r3, [r7, #12]
 875 018e 1344     		add	r3, r3, r2
 876 0190 03F51063 		add	r3, r3, #2304
 877 0194 1A46     		mov	r2, r3
 878              		.loc 1 434 28 discriminator 2
 879 0196 4FF67F33 		movw	r3, #64383
 880 019a 9360     		str	r3, [r2, #8]
 415:Drivers/STM32F7xx_HAL_Driver/Src/stm32f7xx_ll_usb.c ****   {
 881              		.loc 1 415 40 discriminator 2
 882 019c 3B69     		ldr	r3, [r7, #16]
 883 019e 0133     		adds	r3, r3, #1
 884 01a0 3B61     		str	r3, [r7, #16]
 885              	.L48:
ARM GAS  C:\Users\jisu8\AppData\Local\Temp\cc8f41y5.s 			page 24


 415:Drivers/STM32F7xx_HAL_Driver/Src/stm32f7xx_ll_usb.c ****   {
 886              		.loc 1 415 23 discriminator 1
 887 01a2 7B6A     		ldr	r3, [r7, #36]
 415:Drivers/STM32F7xx_HAL_Driver/Src/stm32f7xx_ll_usb.c ****   {
 888              		.loc 1 415 3 discriminator 1
 889 01a4 3A69     		ldr	r2, [r7, #16]
 890 01a6 9A42     		cmp	r2, r3
 891 01a8 B7D3     		bcc	.L52
 435:Drivers/STM32F7xx_HAL_Driver/Src/stm32f7xx_ll_usb.c ****   }
 436:Drivers/STM32F7xx_HAL_Driver/Src/stm32f7xx_ll_usb.c **** 
 437:Drivers/STM32F7xx_HAL_Driver/Src/stm32f7xx_ll_usb.c ****   for (i = 0U; i < cfg.dev_endpoints; i++)
 892              		.loc 1 437 10
 893 01aa 0023     		movs	r3, #0
 894 01ac 3B61     		str	r3, [r7, #16]
 895              		.loc 1 437 3
 896 01ae 43E0     		b	.L53
 897              	.L57:
 438:Drivers/STM32F7xx_HAL_Driver/Src/stm32f7xx_ll_usb.c ****   {
 439:Drivers/STM32F7xx_HAL_Driver/Src/stm32f7xx_ll_usb.c ****     if ((USBx_OUTEP(i)->DOEPCTL & USB_OTG_DOEPCTL_EPENA) == USB_OTG_DOEPCTL_EPENA)
 898              		.loc 1 439 10
 899 01b0 3B69     		ldr	r3, [r7, #16]
 900 01b2 5A01     		lsls	r2, r3, #5
 901 01b4 FB68     		ldr	r3, [r7, #12]
 902 01b6 1344     		add	r3, r3, r2
 903 01b8 03F53063 		add	r3, r3, #2816
 904              		.loc 1 439 23
 905 01bc 1B68     		ldr	r3, [r3]
 906              		.loc 1 439 33
 907 01be 03F00043 		and	r3, r3, #-2147483648
 908              		.loc 1 439 8
 909 01c2 B3F1004F 		cmp	r3, #-2147483648
 910 01c6 18D1     		bne	.L54
 440:Drivers/STM32F7xx_HAL_Driver/Src/stm32f7xx_ll_usb.c ****     {
 441:Drivers/STM32F7xx_HAL_Driver/Src/stm32f7xx_ll_usb.c ****       if (i == 0U)
 911              		.loc 1 441 10
 912 01c8 3B69     		ldr	r3, [r7, #16]
 913 01ca 002B     		cmp	r3, #0
 914 01cc 0AD1     		bne	.L55
 442:Drivers/STM32F7xx_HAL_Driver/Src/stm32f7xx_ll_usb.c ****       {
 443:Drivers/STM32F7xx_HAL_Driver/Src/stm32f7xx_ll_usb.c ****         USBx_OUTEP(i)->DOEPCTL = USB_OTG_DOEPCTL_SNAK;
 915              		.loc 1 443 9
 916 01ce 3B69     		ldr	r3, [r7, #16]
 917 01d0 5A01     		lsls	r2, r3, #5
 918 01d2 FB68     		ldr	r3, [r7, #12]
 919 01d4 1344     		add	r3, r3, r2
 920 01d6 03F53063 		add	r3, r3, #2816
 921 01da 1A46     		mov	r2, r3
 922              		.loc 1 443 32
 923 01dc 4FF00063 		mov	r3, #134217728
 924 01e0 1360     		str	r3, [r2]
 925 01e2 13E0     		b	.L56
 926              	.L55:
 444:Drivers/STM32F7xx_HAL_Driver/Src/stm32f7xx_ll_usb.c ****       }
 445:Drivers/STM32F7xx_HAL_Driver/Src/stm32f7xx_ll_usb.c ****       else
 446:Drivers/STM32F7xx_HAL_Driver/Src/stm32f7xx_ll_usb.c ****       {
 447:Drivers/STM32F7xx_HAL_Driver/Src/stm32f7xx_ll_usb.c ****         USBx_OUTEP(i)->DOEPCTL = USB_OTG_DOEPCTL_EPDIS | USB_OTG_DOEPCTL_SNAK;
 927              		.loc 1 447 9
ARM GAS  C:\Users\jisu8\AppData\Local\Temp\cc8f41y5.s 			page 25


 928 01e4 3B69     		ldr	r3, [r7, #16]
 929 01e6 5A01     		lsls	r2, r3, #5
 930 01e8 FB68     		ldr	r3, [r7, #12]
 931 01ea 1344     		add	r3, r3, r2
 932 01ec 03F53063 		add	r3, r3, #2816
 933 01f0 1A46     		mov	r2, r3
 934              		.loc 1 447 32
 935 01f2 4FF09043 		mov	r3, #1207959552
 936 01f6 1360     		str	r3, [r2]
 937 01f8 08E0     		b	.L56
 938              	.L54:
 448:Drivers/STM32F7xx_HAL_Driver/Src/stm32f7xx_ll_usb.c ****       }
 449:Drivers/STM32F7xx_HAL_Driver/Src/stm32f7xx_ll_usb.c ****     }
 450:Drivers/STM32F7xx_HAL_Driver/Src/stm32f7xx_ll_usb.c ****     else
 451:Drivers/STM32F7xx_HAL_Driver/Src/stm32f7xx_ll_usb.c ****     {
 452:Drivers/STM32F7xx_HAL_Driver/Src/stm32f7xx_ll_usb.c ****       USBx_OUTEP(i)->DOEPCTL = 0U;
 939              		.loc 1 452 7
 940 01fa 3B69     		ldr	r3, [r7, #16]
 941 01fc 5A01     		lsls	r2, r3, #5
 942 01fe FB68     		ldr	r3, [r7, #12]
 943 0200 1344     		add	r3, r3, r2
 944 0202 03F53063 		add	r3, r3, #2816
 945 0206 1A46     		mov	r2, r3
 946              		.loc 1 452 30
 947 0208 0023     		movs	r3, #0
 948 020a 1360     		str	r3, [r2]
 949              	.L56:
 453:Drivers/STM32F7xx_HAL_Driver/Src/stm32f7xx_ll_usb.c ****     }
 454:Drivers/STM32F7xx_HAL_Driver/Src/stm32f7xx_ll_usb.c **** 
 455:Drivers/STM32F7xx_HAL_Driver/Src/stm32f7xx_ll_usb.c ****     USBx_OUTEP(i)->DOEPTSIZ = 0U;
 950              		.loc 1 455 5 discriminator 2
 951 020c 3B69     		ldr	r3, [r7, #16]
 952 020e 5A01     		lsls	r2, r3, #5
 953 0210 FB68     		ldr	r3, [r7, #12]
 954 0212 1344     		add	r3, r3, r2
 955 0214 03F53063 		add	r3, r3, #2816
 956 0218 1A46     		mov	r2, r3
 957              		.loc 1 455 29 discriminator 2
 958 021a 0023     		movs	r3, #0
 959 021c 1361     		str	r3, [r2, #16]
 456:Drivers/STM32F7xx_HAL_Driver/Src/stm32f7xx_ll_usb.c ****     USBx_OUTEP(i)->DOEPINT  = 0xFB7FU;
 960              		.loc 1 456 5 discriminator 2
 961 021e 3B69     		ldr	r3, [r7, #16]
 962 0220 5A01     		lsls	r2, r3, #5
 963 0222 FB68     		ldr	r3, [r7, #12]
 964 0224 1344     		add	r3, r3, r2
 965 0226 03F53063 		add	r3, r3, #2816
 966 022a 1A46     		mov	r2, r3
 967              		.loc 1 456 29 discriminator 2
 968 022c 4FF67F33 		movw	r3, #64383
 969 0230 9360     		str	r3, [r2, #8]
 437:Drivers/STM32F7xx_HAL_Driver/Src/stm32f7xx_ll_usb.c ****   {
 970              		.loc 1 437 40 discriminator 2
 971 0232 3B69     		ldr	r3, [r7, #16]
 972 0234 0133     		adds	r3, r3, #1
 973 0236 3B61     		str	r3, [r7, #16]
 974              	.L53:
ARM GAS  C:\Users\jisu8\AppData\Local\Temp\cc8f41y5.s 			page 26


 437:Drivers/STM32F7xx_HAL_Driver/Src/stm32f7xx_ll_usb.c ****   {
 975              		.loc 1 437 23 discriminator 1
 976 0238 7B6A     		ldr	r3, [r7, #36]
 437:Drivers/STM32F7xx_HAL_Driver/Src/stm32f7xx_ll_usb.c ****   {
 977              		.loc 1 437 3 discriminator 1
 978 023a 3A69     		ldr	r2, [r7, #16]
 979 023c 9A42     		cmp	r2, r3
 980 023e B7D3     		bcc	.L57
 457:Drivers/STM32F7xx_HAL_Driver/Src/stm32f7xx_ll_usb.c ****   }
 458:Drivers/STM32F7xx_HAL_Driver/Src/stm32f7xx_ll_usb.c **** 
 459:Drivers/STM32F7xx_HAL_Driver/Src/stm32f7xx_ll_usb.c ****   USBx_DEVICE->DIEPMSK &= ~(USB_OTG_DIEPMSK_TXFURM);
 981              		.loc 1 459 24
 982 0240 FB68     		ldr	r3, [r7, #12]
 983 0242 03F50063 		add	r3, r3, #2048
 984 0246 1B69     		ldr	r3, [r3, #16]
 985 0248 FA68     		ldr	r2, [r7, #12]
 986 024a 02F50062 		add	r2, r2, #2048
 987 024e 23F48073 		bic	r3, r3, #256
 988 0252 1361     		str	r3, [r2, #16]
 460:Drivers/STM32F7xx_HAL_Driver/Src/stm32f7xx_ll_usb.c **** 
 461:Drivers/STM32F7xx_HAL_Driver/Src/stm32f7xx_ll_usb.c ****   /* Disable all interrupts. */
 462:Drivers/STM32F7xx_HAL_Driver/Src/stm32f7xx_ll_usb.c ****   USBx->GINTMSK = 0U;
 989              		.loc 1 462 17
 990 0254 7B68     		ldr	r3, [r7, #4]
 991 0256 0022     		movs	r2, #0
 992 0258 9A61     		str	r2, [r3, #24]
 463:Drivers/STM32F7xx_HAL_Driver/Src/stm32f7xx_ll_usb.c **** 
 464:Drivers/STM32F7xx_HAL_Driver/Src/stm32f7xx_ll_usb.c ****   /* Clear any pending interrupts */
 465:Drivers/STM32F7xx_HAL_Driver/Src/stm32f7xx_ll_usb.c ****   USBx->GINTSTS = 0xBFFFFFFFU;
 993              		.loc 1 465 17
 994 025a 7B68     		ldr	r3, [r7, #4]
 995 025c 6FF08042 		mvn	r2, #1073741824
 996 0260 5A61     		str	r2, [r3, #20]
 466:Drivers/STM32F7xx_HAL_Driver/Src/stm32f7xx_ll_usb.c **** 
 467:Drivers/STM32F7xx_HAL_Driver/Src/stm32f7xx_ll_usb.c ****   /* Enable the common interrupts */
 468:Drivers/STM32F7xx_HAL_Driver/Src/stm32f7xx_ll_usb.c ****   if (cfg.dma_enable == 0U)
 997              		.loc 1 468 10
 998 0262 3B6B     		ldr	r3, [r7, #48]
 999              		.loc 1 468 6
 1000 0264 002B     		cmp	r3, #0
 1001 0266 05D1     		bne	.L58
 469:Drivers/STM32F7xx_HAL_Driver/Src/stm32f7xx_ll_usb.c ****   {
 470:Drivers/STM32F7xx_HAL_Driver/Src/stm32f7xx_ll_usb.c ****     USBx->GINTMSK |= USB_OTG_GINTMSK_RXFLVLM;
 1002              		.loc 1 470 19
 1003 0268 7B68     		ldr	r3, [r7, #4]
 1004 026a 9B69     		ldr	r3, [r3, #24]
 1005 026c 43F01002 		orr	r2, r3, #16
 1006 0270 7B68     		ldr	r3, [r7, #4]
 1007 0272 9A61     		str	r2, [r3, #24]
 1008              	.L58:
 471:Drivers/STM32F7xx_HAL_Driver/Src/stm32f7xx_ll_usb.c ****   }
 472:Drivers/STM32F7xx_HAL_Driver/Src/stm32f7xx_ll_usb.c **** 
 473:Drivers/STM32F7xx_HAL_Driver/Src/stm32f7xx_ll_usb.c ****   /* Enable interrupts matching to the Device mode ONLY */
 474:Drivers/STM32F7xx_HAL_Driver/Src/stm32f7xx_ll_usb.c ****   USBx->GINTMSK |= USB_OTG_GINTMSK_USBSUSPM | USB_OTG_GINTMSK_USBRST |
 1009              		.loc 1 474 17
 1010 0274 7B68     		ldr	r3, [r7, #4]
 1011 0276 9A69     		ldr	r2, [r3, #24]
ARM GAS  C:\Users\jisu8\AppData\Local\Temp\cc8f41y5.s 			page 27


 1012 0278 0E4B     		ldr	r3, .L62
 1013 027a 1343     		orrs	r3, r3, r2
 1014 027c 7A68     		ldr	r2, [r7, #4]
 1015 027e 9361     		str	r3, [r2, #24]
 475:Drivers/STM32F7xx_HAL_Driver/Src/stm32f7xx_ll_usb.c ****                    USB_OTG_GINTMSK_ENUMDNEM | USB_OTG_GINTMSK_IEPINT |
 476:Drivers/STM32F7xx_HAL_Driver/Src/stm32f7xx_ll_usb.c ****                    USB_OTG_GINTMSK_OEPINT   | USB_OTG_GINTMSK_IISOIXFRM |
 477:Drivers/STM32F7xx_HAL_Driver/Src/stm32f7xx_ll_usb.c ****                    USB_OTG_GINTMSK_PXFRM_IISOOXFRM | USB_OTG_GINTMSK_WUIM;
 478:Drivers/STM32F7xx_HAL_Driver/Src/stm32f7xx_ll_usb.c **** 
 479:Drivers/STM32F7xx_HAL_Driver/Src/stm32f7xx_ll_usb.c ****   if (cfg.Sof_enable != 0U)
 1016              		.loc 1 479 10
 1017 0280 FB6B     		ldr	r3, [r7, #60]
 1018              		.loc 1 479 6
 1019 0282 002B     		cmp	r3, #0
 1020 0284 05D0     		beq	.L59
 480:Drivers/STM32F7xx_HAL_Driver/Src/stm32f7xx_ll_usb.c ****   {
 481:Drivers/STM32F7xx_HAL_Driver/Src/stm32f7xx_ll_usb.c ****     USBx->GINTMSK |= USB_OTG_GINTMSK_SOFM;
 1021              		.loc 1 481 19
 1022 0286 7B68     		ldr	r3, [r7, #4]
 1023 0288 9B69     		ldr	r3, [r3, #24]
 1024 028a 43F00802 		orr	r2, r3, #8
 1025 028e 7B68     		ldr	r3, [r7, #4]
 1026 0290 9A61     		str	r2, [r3, #24]
 1027              	.L59:
 482:Drivers/STM32F7xx_HAL_Driver/Src/stm32f7xx_ll_usb.c ****   }
 483:Drivers/STM32F7xx_HAL_Driver/Src/stm32f7xx_ll_usb.c **** 
 484:Drivers/STM32F7xx_HAL_Driver/Src/stm32f7xx_ll_usb.c ****   if (cfg.vbus_sensing_enable == 1U)
 1028              		.loc 1 484 10
 1029 0292 FB6C     		ldr	r3, [r7, #76]
 1030              		.loc 1 484 6
 1031 0294 012B     		cmp	r3, #1
 1032 0296 05D1     		bne	.L60
 485:Drivers/STM32F7xx_HAL_Driver/Src/stm32f7xx_ll_usb.c ****   {
 486:Drivers/STM32F7xx_HAL_Driver/Src/stm32f7xx_ll_usb.c ****     USBx->GINTMSK |= (USB_OTG_GINTMSK_SRQIM | USB_OTG_GINTMSK_OTGINT);
 1033              		.loc 1 486 19
 1034 0298 7B68     		ldr	r3, [r7, #4]
 1035 029a 9A69     		ldr	r2, [r3, #24]
 1036 029c 064B     		ldr	r3, .L62+4
 1037 029e 1343     		orrs	r3, r3, r2
 1038 02a0 7A68     		ldr	r2, [r7, #4]
 1039 02a2 9361     		str	r3, [r2, #24]
 1040              	.L60:
 487:Drivers/STM32F7xx_HAL_Driver/Src/stm32f7xx_ll_usb.c ****   }
 488:Drivers/STM32F7xx_HAL_Driver/Src/stm32f7xx_ll_usb.c **** 
 489:Drivers/STM32F7xx_HAL_Driver/Src/stm32f7xx_ll_usb.c ****   return ret;
 1041              		.loc 1 489 10
 1042 02a4 FB7D     		ldrb	r3, [r7, #23]	@ zero_extendqisi2
 490:Drivers/STM32F7xx_HAL_Driver/Src/stm32f7xx_ll_usb.c **** }
 1043              		.loc 1 490 1
 1044 02a6 1846     		mov	r0, r3
 1045 02a8 1837     		adds	r7, r7, #24
 1046              	.LCFI35:
 1047              		.cfi_def_cfa_offset 24
 1048 02aa BD46     		mov	sp, r7
 1049              	.LCFI36:
 1050              		.cfi_def_cfa_register 13
 1051              		@ sp needed
 1052 02ac BDE88040 		pop	{r7, lr}
ARM GAS  C:\Users\jisu8\AppData\Local\Temp\cc8f41y5.s 			page 28


 1053              	.LCFI37:
 1054              		.cfi_restore 14
 1055              		.cfi_restore 7
 1056              		.cfi_def_cfa_offset 16
 1057 02b0 04B0     		add	sp, sp, #16
 1058              	.LCFI38:
 1059              		.cfi_def_cfa_offset 0
 1060 02b2 7047     		bx	lr
 1061              	.L63:
 1062              		.align	2
 1063              	.L62:
 1064 02b4 00383C80 		.word	-2143537152
 1065 02b8 04000040 		.word	1073741828
 1066              		.cfi_endproc
 1067              	.LFE146:
 1069              		.section	.text.USB_FlushTxFifo,"ax",%progbits
 1070              		.align	1
 1071              		.global	USB_FlushTxFifo
 1072              		.syntax unified
 1073              		.thumb
 1074              		.thumb_func
 1076              	USB_FlushTxFifo:
 1077              	.LFB147:
 491:Drivers/STM32F7xx_HAL_Driver/Src/stm32f7xx_ll_usb.c **** 
 492:Drivers/STM32F7xx_HAL_Driver/Src/stm32f7xx_ll_usb.c **** /**
 493:Drivers/STM32F7xx_HAL_Driver/Src/stm32f7xx_ll_usb.c ****   * @brief  USB_FlushTxFifo Flush a Tx FIFO
 494:Drivers/STM32F7xx_HAL_Driver/Src/stm32f7xx_ll_usb.c ****   * @param  USBx  Selected device
 495:Drivers/STM32F7xx_HAL_Driver/Src/stm32f7xx_ll_usb.c ****   * @param  num  FIFO number
 496:Drivers/STM32F7xx_HAL_Driver/Src/stm32f7xx_ll_usb.c ****   *         This parameter can be a value from 1 to 15
 497:Drivers/STM32F7xx_HAL_Driver/Src/stm32f7xx_ll_usb.c ****             15 means Flush all Tx FIFOs
 498:Drivers/STM32F7xx_HAL_Driver/Src/stm32f7xx_ll_usb.c ****   * @retval HAL status
 499:Drivers/STM32F7xx_HAL_Driver/Src/stm32f7xx_ll_usb.c ****   */
 500:Drivers/STM32F7xx_HAL_Driver/Src/stm32f7xx_ll_usb.c **** HAL_StatusTypeDef USB_FlushTxFifo(USB_OTG_GlobalTypeDef *USBx, uint32_t num)
 501:Drivers/STM32F7xx_HAL_Driver/Src/stm32f7xx_ll_usb.c **** {
 1078              		.loc 1 501 1
 1079              		.cfi_startproc
 1080              		@ args = 0, pretend = 0, frame = 16
 1081              		@ frame_needed = 1, uses_anonymous_args = 0
 1082              		@ link register save eliminated.
 1083 0000 80B4     		push	{r7}
 1084              	.LCFI39:
 1085              		.cfi_def_cfa_offset 4
 1086              		.cfi_offset 7, -4
 1087 0002 85B0     		sub	sp, sp, #20
 1088              	.LCFI40:
 1089              		.cfi_def_cfa_offset 24
 1090 0004 00AF     		add	r7, sp, #0
 1091              	.LCFI41:
 1092              		.cfi_def_cfa_register 7
 1093 0006 7860     		str	r0, [r7, #4]
 1094 0008 3960     		str	r1, [r7]
 502:Drivers/STM32F7xx_HAL_Driver/Src/stm32f7xx_ll_usb.c ****   __IO uint32_t count = 0U;
 1095              		.loc 1 502 17
 1096 000a 0023     		movs	r3, #0
 1097 000c FB60     		str	r3, [r7, #12]
 1098              	.L67:
 503:Drivers/STM32F7xx_HAL_Driver/Src/stm32f7xx_ll_usb.c **** 
ARM GAS  C:\Users\jisu8\AppData\Local\Temp\cc8f41y5.s 			page 29


 504:Drivers/STM32F7xx_HAL_Driver/Src/stm32f7xx_ll_usb.c ****   /* Wait for AHB master IDLE state. */
 505:Drivers/STM32F7xx_HAL_Driver/Src/stm32f7xx_ll_usb.c ****   do
 506:Drivers/STM32F7xx_HAL_Driver/Src/stm32f7xx_ll_usb.c ****   {
 507:Drivers/STM32F7xx_HAL_Driver/Src/stm32f7xx_ll_usb.c ****     count++;
 1099              		.loc 1 507 10
 1100 000e FB68     		ldr	r3, [r7, #12]
 1101 0010 0133     		adds	r3, r3, #1
 1102 0012 FB60     		str	r3, [r7, #12]
 508:Drivers/STM32F7xx_HAL_Driver/Src/stm32f7xx_ll_usb.c **** 
 509:Drivers/STM32F7xx_HAL_Driver/Src/stm32f7xx_ll_usb.c ****     if (count > 200000U)
 1103              		.loc 1 509 15
 1104 0014 FB68     		ldr	r3, [r7, #12]
 1105              		.loc 1 509 8
 1106 0016 134A     		ldr	r2, .L70
 1107 0018 9342     		cmp	r3, r2
 1108 001a 01D9     		bls	.L65
 510:Drivers/STM32F7xx_HAL_Driver/Src/stm32f7xx_ll_usb.c ****     {
 511:Drivers/STM32F7xx_HAL_Driver/Src/stm32f7xx_ll_usb.c ****       return HAL_TIMEOUT;
 1109              		.loc 1 511 14
 1110 001c 0323     		movs	r3, #3
 1111 001e 1BE0     		b	.L66
 1112              	.L65:
 512:Drivers/STM32F7xx_HAL_Driver/Src/stm32f7xx_ll_usb.c ****     }
 513:Drivers/STM32F7xx_HAL_Driver/Src/stm32f7xx_ll_usb.c ****   } while ((USBx->GRSTCTL & USB_OTG_GRSTCTL_AHBIDL) == 0U);
 1113              		.loc 1 513 17
 1114 0020 7B68     		ldr	r3, [r7, #4]
 1115 0022 1B69     		ldr	r3, [r3, #16]
 1116              		.loc 1 513 3
 1117 0024 002B     		cmp	r3, #0
 1118 0026 F2DA     		bge	.L67
 514:Drivers/STM32F7xx_HAL_Driver/Src/stm32f7xx_ll_usb.c **** 
 515:Drivers/STM32F7xx_HAL_Driver/Src/stm32f7xx_ll_usb.c ****   /* Flush TX Fifo */
 516:Drivers/STM32F7xx_HAL_Driver/Src/stm32f7xx_ll_usb.c ****   count = 0U;
 1119              		.loc 1 516 9
 1120 0028 0023     		movs	r3, #0
 1121 002a FB60     		str	r3, [r7, #12]
 517:Drivers/STM32F7xx_HAL_Driver/Src/stm32f7xx_ll_usb.c ****   USBx->GRSTCTL = (USB_OTG_GRSTCTL_TXFFLSH | (num << 6));
 1122              		.loc 1 517 51
 1123 002c 3B68     		ldr	r3, [r7]
 1124 002e 9B01     		lsls	r3, r3, #6
 1125              		.loc 1 517 44
 1126 0030 43F02002 		orr	r2, r3, #32
 1127              		.loc 1 517 17
 1128 0034 7B68     		ldr	r3, [r7, #4]
 1129 0036 1A61     		str	r2, [r3, #16]
 1130              	.L69:
 518:Drivers/STM32F7xx_HAL_Driver/Src/stm32f7xx_ll_usb.c **** 
 519:Drivers/STM32F7xx_HAL_Driver/Src/stm32f7xx_ll_usb.c ****   do
 520:Drivers/STM32F7xx_HAL_Driver/Src/stm32f7xx_ll_usb.c ****   {
 521:Drivers/STM32F7xx_HAL_Driver/Src/stm32f7xx_ll_usb.c ****     count++;
 1131              		.loc 1 521 10
 1132 0038 FB68     		ldr	r3, [r7, #12]
 1133 003a 0133     		adds	r3, r3, #1
 1134 003c FB60     		str	r3, [r7, #12]
 522:Drivers/STM32F7xx_HAL_Driver/Src/stm32f7xx_ll_usb.c **** 
 523:Drivers/STM32F7xx_HAL_Driver/Src/stm32f7xx_ll_usb.c ****     if (count > 200000U)
 1135              		.loc 1 523 15
ARM GAS  C:\Users\jisu8\AppData\Local\Temp\cc8f41y5.s 			page 30


 1136 003e FB68     		ldr	r3, [r7, #12]
 1137              		.loc 1 523 8
 1138 0040 084A     		ldr	r2, .L70
 1139 0042 9342     		cmp	r3, r2
 1140 0044 01D9     		bls	.L68
 524:Drivers/STM32F7xx_HAL_Driver/Src/stm32f7xx_ll_usb.c ****     {
 525:Drivers/STM32F7xx_HAL_Driver/Src/stm32f7xx_ll_usb.c ****       return HAL_TIMEOUT;
 1141              		.loc 1 525 14
 1142 0046 0323     		movs	r3, #3
 1143 0048 06E0     		b	.L66
 1144              	.L68:
 526:Drivers/STM32F7xx_HAL_Driver/Src/stm32f7xx_ll_usb.c ****     }
 527:Drivers/STM32F7xx_HAL_Driver/Src/stm32f7xx_ll_usb.c ****   } while ((USBx->GRSTCTL & USB_OTG_GRSTCTL_TXFFLSH) == USB_OTG_GRSTCTL_TXFFLSH);
 1145              		.loc 1 527 17
 1146 004a 7B68     		ldr	r3, [r7, #4]
 1147 004c 1B69     		ldr	r3, [r3, #16]
 1148              		.loc 1 527 27
 1149 004e 03F02003 		and	r3, r3, #32
 1150              		.loc 1 527 3
 1151 0052 202B     		cmp	r3, #32
 1152 0054 F0D0     		beq	.L69
 528:Drivers/STM32F7xx_HAL_Driver/Src/stm32f7xx_ll_usb.c **** 
 529:Drivers/STM32F7xx_HAL_Driver/Src/stm32f7xx_ll_usb.c ****   return HAL_OK;
 1153              		.loc 1 529 10
 1154 0056 0023     		movs	r3, #0
 1155              	.L66:
 530:Drivers/STM32F7xx_HAL_Driver/Src/stm32f7xx_ll_usb.c **** }
 1156              		.loc 1 530 1
 1157 0058 1846     		mov	r0, r3
 1158 005a 1437     		adds	r7, r7, #20
 1159              	.LCFI42:
 1160              		.cfi_def_cfa_offset 4
 1161 005c BD46     		mov	sp, r7
 1162              	.LCFI43:
 1163              		.cfi_def_cfa_register 13
 1164              		@ sp needed
 1165 005e 5DF8047B 		ldr	r7, [sp], #4
 1166              	.LCFI44:
 1167              		.cfi_restore 7
 1168              		.cfi_def_cfa_offset 0
 1169 0062 7047     		bx	lr
 1170              	.L71:
 1171              		.align	2
 1172              	.L70:
 1173 0064 400D0300 		.word	200000
 1174              		.cfi_endproc
 1175              	.LFE147:
 1177              		.section	.text.USB_FlushRxFifo,"ax",%progbits
 1178              		.align	1
 1179              		.global	USB_FlushRxFifo
 1180              		.syntax unified
 1181              		.thumb
 1182              		.thumb_func
 1184              	USB_FlushRxFifo:
 1185              	.LFB148:
 531:Drivers/STM32F7xx_HAL_Driver/Src/stm32f7xx_ll_usb.c **** 
 532:Drivers/STM32F7xx_HAL_Driver/Src/stm32f7xx_ll_usb.c **** /**
ARM GAS  C:\Users\jisu8\AppData\Local\Temp\cc8f41y5.s 			page 31


 533:Drivers/STM32F7xx_HAL_Driver/Src/stm32f7xx_ll_usb.c ****   * @brief  USB_FlushRxFifo  Flush Rx FIFO
 534:Drivers/STM32F7xx_HAL_Driver/Src/stm32f7xx_ll_usb.c ****   * @param  USBx  Selected device
 535:Drivers/STM32F7xx_HAL_Driver/Src/stm32f7xx_ll_usb.c ****   * @retval HAL status
 536:Drivers/STM32F7xx_HAL_Driver/Src/stm32f7xx_ll_usb.c ****   */
 537:Drivers/STM32F7xx_HAL_Driver/Src/stm32f7xx_ll_usb.c **** HAL_StatusTypeDef USB_FlushRxFifo(USB_OTG_GlobalTypeDef *USBx)
 538:Drivers/STM32F7xx_HAL_Driver/Src/stm32f7xx_ll_usb.c **** {
 1186              		.loc 1 538 1
 1187              		.cfi_startproc
 1188              		@ args = 0, pretend = 0, frame = 16
 1189              		@ frame_needed = 1, uses_anonymous_args = 0
 1190              		@ link register save eliminated.
 1191 0000 80B4     		push	{r7}
 1192              	.LCFI45:
 1193              		.cfi_def_cfa_offset 4
 1194              		.cfi_offset 7, -4
 1195 0002 85B0     		sub	sp, sp, #20
 1196              	.LCFI46:
 1197              		.cfi_def_cfa_offset 24
 1198 0004 00AF     		add	r7, sp, #0
 1199              	.LCFI47:
 1200              		.cfi_def_cfa_register 7
 1201 0006 7860     		str	r0, [r7, #4]
 539:Drivers/STM32F7xx_HAL_Driver/Src/stm32f7xx_ll_usb.c ****   __IO uint32_t count = 0U;
 1202              		.loc 1 539 17
 1203 0008 0023     		movs	r3, #0
 1204 000a FB60     		str	r3, [r7, #12]
 1205              	.L75:
 540:Drivers/STM32F7xx_HAL_Driver/Src/stm32f7xx_ll_usb.c **** 
 541:Drivers/STM32F7xx_HAL_Driver/Src/stm32f7xx_ll_usb.c ****   /* Wait for AHB master IDLE state. */
 542:Drivers/STM32F7xx_HAL_Driver/Src/stm32f7xx_ll_usb.c ****   do
 543:Drivers/STM32F7xx_HAL_Driver/Src/stm32f7xx_ll_usb.c ****   {
 544:Drivers/STM32F7xx_HAL_Driver/Src/stm32f7xx_ll_usb.c ****     count++;
 1206              		.loc 1 544 10
 1207 000c FB68     		ldr	r3, [r7, #12]
 1208 000e 0133     		adds	r3, r3, #1
 1209 0010 FB60     		str	r3, [r7, #12]
 545:Drivers/STM32F7xx_HAL_Driver/Src/stm32f7xx_ll_usb.c **** 
 546:Drivers/STM32F7xx_HAL_Driver/Src/stm32f7xx_ll_usb.c ****     if (count > 200000U)
 1210              		.loc 1 546 15
 1211 0012 FB68     		ldr	r3, [r7, #12]
 1212              		.loc 1 546 8
 1213 0014 114A     		ldr	r2, .L78
 1214 0016 9342     		cmp	r3, r2
 1215 0018 01D9     		bls	.L73
 547:Drivers/STM32F7xx_HAL_Driver/Src/stm32f7xx_ll_usb.c ****     {
 548:Drivers/STM32F7xx_HAL_Driver/Src/stm32f7xx_ll_usb.c ****       return HAL_TIMEOUT;
 1216              		.loc 1 548 14
 1217 001a 0323     		movs	r3, #3
 1218 001c 18E0     		b	.L74
 1219              	.L73:
 549:Drivers/STM32F7xx_HAL_Driver/Src/stm32f7xx_ll_usb.c ****     }
 550:Drivers/STM32F7xx_HAL_Driver/Src/stm32f7xx_ll_usb.c ****   } while ((USBx->GRSTCTL & USB_OTG_GRSTCTL_AHBIDL) == 0U);
 1220              		.loc 1 550 17
 1221 001e 7B68     		ldr	r3, [r7, #4]
 1222 0020 1B69     		ldr	r3, [r3, #16]
 1223              		.loc 1 550 3
 1224 0022 002B     		cmp	r3, #0
ARM GAS  C:\Users\jisu8\AppData\Local\Temp\cc8f41y5.s 			page 32


 1225 0024 F2DA     		bge	.L75
 551:Drivers/STM32F7xx_HAL_Driver/Src/stm32f7xx_ll_usb.c **** 
 552:Drivers/STM32F7xx_HAL_Driver/Src/stm32f7xx_ll_usb.c ****   /* Flush RX Fifo */
 553:Drivers/STM32F7xx_HAL_Driver/Src/stm32f7xx_ll_usb.c ****   count = 0U;
 1226              		.loc 1 553 9
 1227 0026 0023     		movs	r3, #0
 1228 0028 FB60     		str	r3, [r7, #12]
 554:Drivers/STM32F7xx_HAL_Driver/Src/stm32f7xx_ll_usb.c ****   USBx->GRSTCTL = USB_OTG_GRSTCTL_RXFFLSH;
 1229              		.loc 1 554 17
 1230 002a 7B68     		ldr	r3, [r7, #4]
 1231 002c 1022     		movs	r2, #16
 1232 002e 1A61     		str	r2, [r3, #16]
 1233              	.L77:
 555:Drivers/STM32F7xx_HAL_Driver/Src/stm32f7xx_ll_usb.c **** 
 556:Drivers/STM32F7xx_HAL_Driver/Src/stm32f7xx_ll_usb.c ****   do
 557:Drivers/STM32F7xx_HAL_Driver/Src/stm32f7xx_ll_usb.c ****   {
 558:Drivers/STM32F7xx_HAL_Driver/Src/stm32f7xx_ll_usb.c ****     count++;
 1234              		.loc 1 558 10
 1235 0030 FB68     		ldr	r3, [r7, #12]
 1236 0032 0133     		adds	r3, r3, #1
 1237 0034 FB60     		str	r3, [r7, #12]
 559:Drivers/STM32F7xx_HAL_Driver/Src/stm32f7xx_ll_usb.c **** 
 560:Drivers/STM32F7xx_HAL_Driver/Src/stm32f7xx_ll_usb.c ****     if (count > 200000U)
 1238              		.loc 1 560 15
 1239 0036 FB68     		ldr	r3, [r7, #12]
 1240              		.loc 1 560 8
 1241 0038 084A     		ldr	r2, .L78
 1242 003a 9342     		cmp	r3, r2
 1243 003c 01D9     		bls	.L76
 561:Drivers/STM32F7xx_HAL_Driver/Src/stm32f7xx_ll_usb.c ****     {
 562:Drivers/STM32F7xx_HAL_Driver/Src/stm32f7xx_ll_usb.c ****       return HAL_TIMEOUT;
 1244              		.loc 1 562 14
 1245 003e 0323     		movs	r3, #3
 1246 0040 06E0     		b	.L74
 1247              	.L76:
 563:Drivers/STM32F7xx_HAL_Driver/Src/stm32f7xx_ll_usb.c ****     }
 564:Drivers/STM32F7xx_HAL_Driver/Src/stm32f7xx_ll_usb.c ****   } while ((USBx->GRSTCTL & USB_OTG_GRSTCTL_RXFFLSH) == USB_OTG_GRSTCTL_RXFFLSH);
 1248              		.loc 1 564 17
 1249 0042 7B68     		ldr	r3, [r7, #4]
 1250 0044 1B69     		ldr	r3, [r3, #16]
 1251              		.loc 1 564 27
 1252 0046 03F01003 		and	r3, r3, #16
 1253              		.loc 1 564 3
 1254 004a 102B     		cmp	r3, #16
 1255 004c F0D0     		beq	.L77
 565:Drivers/STM32F7xx_HAL_Driver/Src/stm32f7xx_ll_usb.c **** 
 566:Drivers/STM32F7xx_HAL_Driver/Src/stm32f7xx_ll_usb.c ****   return HAL_OK;
 1256              		.loc 1 566 10
 1257 004e 0023     		movs	r3, #0
 1258              	.L74:
 567:Drivers/STM32F7xx_HAL_Driver/Src/stm32f7xx_ll_usb.c **** }
 1259              		.loc 1 567 1
 1260 0050 1846     		mov	r0, r3
 1261 0052 1437     		adds	r7, r7, #20
 1262              	.LCFI48:
 1263              		.cfi_def_cfa_offset 4
 1264 0054 BD46     		mov	sp, r7
ARM GAS  C:\Users\jisu8\AppData\Local\Temp\cc8f41y5.s 			page 33


 1265              	.LCFI49:
 1266              		.cfi_def_cfa_register 13
 1267              		@ sp needed
 1268 0056 5DF8047B 		ldr	r7, [sp], #4
 1269              	.LCFI50:
 1270              		.cfi_restore 7
 1271              		.cfi_def_cfa_offset 0
 1272 005a 7047     		bx	lr
 1273              	.L79:
 1274              		.align	2
 1275              	.L78:
 1276 005c 400D0300 		.word	200000
 1277              		.cfi_endproc
 1278              	.LFE148:
 1280              		.section	.text.USB_SetDevSpeed,"ax",%progbits
 1281              		.align	1
 1282              		.global	USB_SetDevSpeed
 1283              		.syntax unified
 1284              		.thumb
 1285              		.thumb_func
 1287              	USB_SetDevSpeed:
 1288              	.LFB149:
 568:Drivers/STM32F7xx_HAL_Driver/Src/stm32f7xx_ll_usb.c **** 
 569:Drivers/STM32F7xx_HAL_Driver/Src/stm32f7xx_ll_usb.c **** /**
 570:Drivers/STM32F7xx_HAL_Driver/Src/stm32f7xx_ll_usb.c ****   * @brief  USB_SetDevSpeed  Initializes the DevSpd field of DCFG register
 571:Drivers/STM32F7xx_HAL_Driver/Src/stm32f7xx_ll_usb.c ****   *         depending the PHY type and the enumeration speed of the device.
 572:Drivers/STM32F7xx_HAL_Driver/Src/stm32f7xx_ll_usb.c ****   * @param  USBx  Selected device
 573:Drivers/STM32F7xx_HAL_Driver/Src/stm32f7xx_ll_usb.c ****   * @param  speed  device speed
 574:Drivers/STM32F7xx_HAL_Driver/Src/stm32f7xx_ll_usb.c ****   *          This parameter can be one of these values:
 575:Drivers/STM32F7xx_HAL_Driver/Src/stm32f7xx_ll_usb.c ****   *            @arg USB_OTG_SPEED_HIGH: High speed mode
 576:Drivers/STM32F7xx_HAL_Driver/Src/stm32f7xx_ll_usb.c ****   *            @arg USB_OTG_SPEED_HIGH_IN_FULL: High speed core in Full Speed mode
 577:Drivers/STM32F7xx_HAL_Driver/Src/stm32f7xx_ll_usb.c ****   *            @arg USB_OTG_SPEED_FULL: Full speed mode
 578:Drivers/STM32F7xx_HAL_Driver/Src/stm32f7xx_ll_usb.c ****   * @retval  Hal status
 579:Drivers/STM32F7xx_HAL_Driver/Src/stm32f7xx_ll_usb.c ****   */
 580:Drivers/STM32F7xx_HAL_Driver/Src/stm32f7xx_ll_usb.c **** HAL_StatusTypeDef USB_SetDevSpeed(USB_OTG_GlobalTypeDef *USBx, uint8_t speed)
 581:Drivers/STM32F7xx_HAL_Driver/Src/stm32f7xx_ll_usb.c **** {
 1289              		.loc 1 581 1
 1290              		.cfi_startproc
 1291              		@ args = 0, pretend = 0, frame = 16
 1292              		@ frame_needed = 1, uses_anonymous_args = 0
 1293              		@ link register save eliminated.
 1294 0000 80B4     		push	{r7}
 1295              	.LCFI51:
 1296              		.cfi_def_cfa_offset 4
 1297              		.cfi_offset 7, -4
 1298 0002 85B0     		sub	sp, sp, #20
 1299              	.LCFI52:
 1300              		.cfi_def_cfa_offset 24
 1301 0004 00AF     		add	r7, sp, #0
 1302              	.LCFI53:
 1303              		.cfi_def_cfa_register 7
 1304 0006 7860     		str	r0, [r7, #4]
 1305 0008 0B46     		mov	r3, r1
 1306 000a FB70     		strb	r3, [r7, #3]
 582:Drivers/STM32F7xx_HAL_Driver/Src/stm32f7xx_ll_usb.c ****   uint32_t USBx_BASE = (uint32_t)USBx;
 1307              		.loc 1 582 12
 1308 000c 7B68     		ldr	r3, [r7, #4]
ARM GAS  C:\Users\jisu8\AppData\Local\Temp\cc8f41y5.s 			page 34


 1309 000e FB60     		str	r3, [r7, #12]
 583:Drivers/STM32F7xx_HAL_Driver/Src/stm32f7xx_ll_usb.c **** 
 584:Drivers/STM32F7xx_HAL_Driver/Src/stm32f7xx_ll_usb.c ****   USBx_DEVICE->DCFG |= speed;
 1310              		.loc 1 584 21
 1311 0010 FB68     		ldr	r3, [r7, #12]
 1312 0012 03F50063 		add	r3, r3, #2048
 1313 0016 1A68     		ldr	r2, [r3]
 1314 0018 FB78     		ldrb	r3, [r7, #3]	@ zero_extendqisi2
 1315 001a F968     		ldr	r1, [r7, #12]
 1316 001c 01F50061 		add	r1, r1, #2048
 1317 0020 1343     		orrs	r3, r3, r2
 1318 0022 0B60     		str	r3, [r1]
 585:Drivers/STM32F7xx_HAL_Driver/Src/stm32f7xx_ll_usb.c ****   return HAL_OK;
 1319              		.loc 1 585 10
 1320 0024 0023     		movs	r3, #0
 586:Drivers/STM32F7xx_HAL_Driver/Src/stm32f7xx_ll_usb.c **** }
 1321              		.loc 1 586 1
 1322 0026 1846     		mov	r0, r3
 1323 0028 1437     		adds	r7, r7, #20
 1324              	.LCFI54:
 1325              		.cfi_def_cfa_offset 4
 1326 002a BD46     		mov	sp, r7
 1327              	.LCFI55:
 1328              		.cfi_def_cfa_register 13
 1329              		@ sp needed
 1330 002c 5DF8047B 		ldr	r7, [sp], #4
 1331              	.LCFI56:
 1332              		.cfi_restore 7
 1333              		.cfi_def_cfa_offset 0
 1334 0030 7047     		bx	lr
 1335              		.cfi_endproc
 1336              	.LFE149:
 1338              		.section	.text.USB_GetDevSpeed,"ax",%progbits
 1339              		.align	1
 1340              		.global	USB_GetDevSpeed
 1341              		.syntax unified
 1342              		.thumb
 1343              		.thumb_func
 1345              	USB_GetDevSpeed:
 1346              	.LFB150:
 587:Drivers/STM32F7xx_HAL_Driver/Src/stm32f7xx_ll_usb.c **** 
 588:Drivers/STM32F7xx_HAL_Driver/Src/stm32f7xx_ll_usb.c **** /**
 589:Drivers/STM32F7xx_HAL_Driver/Src/stm32f7xx_ll_usb.c ****   * @brief  USB_GetDevSpeed  Return the Dev Speed
 590:Drivers/STM32F7xx_HAL_Driver/Src/stm32f7xx_ll_usb.c ****   * @param  USBx  Selected device
 591:Drivers/STM32F7xx_HAL_Driver/Src/stm32f7xx_ll_usb.c ****   * @retval speed  device speed
 592:Drivers/STM32F7xx_HAL_Driver/Src/stm32f7xx_ll_usb.c ****   *          This parameter can be one of these values:
 593:Drivers/STM32F7xx_HAL_Driver/Src/stm32f7xx_ll_usb.c ****   *            @arg USBD_HS_SPEED: High speed mode
 594:Drivers/STM32F7xx_HAL_Driver/Src/stm32f7xx_ll_usb.c ****   *            @arg USBD_FS_SPEED: Full speed mode
 595:Drivers/STM32F7xx_HAL_Driver/Src/stm32f7xx_ll_usb.c ****   */
 596:Drivers/STM32F7xx_HAL_Driver/Src/stm32f7xx_ll_usb.c **** uint8_t USB_GetDevSpeed(USB_OTG_GlobalTypeDef *USBx)
 597:Drivers/STM32F7xx_HAL_Driver/Src/stm32f7xx_ll_usb.c **** {
 1347              		.loc 1 597 1
 1348              		.cfi_startproc
 1349              		@ args = 0, pretend = 0, frame = 24
 1350              		@ frame_needed = 1, uses_anonymous_args = 0
 1351              		@ link register save eliminated.
 1352 0000 80B4     		push	{r7}
ARM GAS  C:\Users\jisu8\AppData\Local\Temp\cc8f41y5.s 			page 35


 1353              	.LCFI57:
 1354              		.cfi_def_cfa_offset 4
 1355              		.cfi_offset 7, -4
 1356 0002 87B0     		sub	sp, sp, #28
 1357              	.LCFI58:
 1358              		.cfi_def_cfa_offset 32
 1359 0004 00AF     		add	r7, sp, #0
 1360              	.LCFI59:
 1361              		.cfi_def_cfa_register 7
 1362 0006 7860     		str	r0, [r7, #4]
 598:Drivers/STM32F7xx_HAL_Driver/Src/stm32f7xx_ll_usb.c ****   uint32_t USBx_BASE = (uint32_t)USBx;
 1363              		.loc 1 598 12
 1364 0008 7B68     		ldr	r3, [r7, #4]
 1365 000a 3B61     		str	r3, [r7, #16]
 599:Drivers/STM32F7xx_HAL_Driver/Src/stm32f7xx_ll_usb.c ****   uint8_t speed;
 600:Drivers/STM32F7xx_HAL_Driver/Src/stm32f7xx_ll_usb.c ****   uint32_t DevEnumSpeed = USBx_DEVICE->DSTS & USB_OTG_DSTS_ENUMSPD;
 1366              		.loc 1 600 27
 1367 000c 3B69     		ldr	r3, [r7, #16]
 1368 000e 03F50063 		add	r3, r3, #2048
 1369              		.loc 1 600 38
 1370 0012 9B68     		ldr	r3, [r3, #8]
 1371              		.loc 1 600 12
 1372 0014 03F00603 		and	r3, r3, #6
 1373 0018 FB60     		str	r3, [r7, #12]
 601:Drivers/STM32F7xx_HAL_Driver/Src/stm32f7xx_ll_usb.c **** 
 602:Drivers/STM32F7xx_HAL_Driver/Src/stm32f7xx_ll_usb.c ****   if (DevEnumSpeed == DSTS_ENUMSPD_HS_PHY_30MHZ_OR_60MHZ)
 1374              		.loc 1 602 6
 1375 001a FB68     		ldr	r3, [r7, #12]
 1376 001c 002B     		cmp	r3, #0
 1377 001e 02D1     		bne	.L83
 603:Drivers/STM32F7xx_HAL_Driver/Src/stm32f7xx_ll_usb.c ****   {
 604:Drivers/STM32F7xx_HAL_Driver/Src/stm32f7xx_ll_usb.c ****     speed = USBD_HS_SPEED;
 1378              		.loc 1 604 11
 1379 0020 0023     		movs	r3, #0
 1380 0022 FB75     		strb	r3, [r7, #23]
 1381 0024 0AE0     		b	.L84
 1382              	.L83:
 605:Drivers/STM32F7xx_HAL_Driver/Src/stm32f7xx_ll_usb.c ****   }
 606:Drivers/STM32F7xx_HAL_Driver/Src/stm32f7xx_ll_usb.c ****   else if ((DevEnumSpeed == DSTS_ENUMSPD_FS_PHY_30MHZ_OR_60MHZ) ||
 1383              		.loc 1 606 11
 1384 0026 FB68     		ldr	r3, [r7, #12]
 1385 0028 022B     		cmp	r3, #2
 1386 002a 02D0     		beq	.L85
 1387              		.loc 1 606 65 discriminator 1
 1388 002c FB68     		ldr	r3, [r7, #12]
 1389 002e 062B     		cmp	r3, #6
 1390 0030 02D1     		bne	.L86
 1391              	.L85:
 607:Drivers/STM32F7xx_HAL_Driver/Src/stm32f7xx_ll_usb.c ****            (DevEnumSpeed == DSTS_ENUMSPD_FS_PHY_48MHZ))
 608:Drivers/STM32F7xx_HAL_Driver/Src/stm32f7xx_ll_usb.c ****   {
 609:Drivers/STM32F7xx_HAL_Driver/Src/stm32f7xx_ll_usb.c ****     speed = USBD_FS_SPEED;
 1392              		.loc 1 609 11
 1393 0032 0223     		movs	r3, #2
 1394 0034 FB75     		strb	r3, [r7, #23]
 1395 0036 01E0     		b	.L84
 1396              	.L86:
 610:Drivers/STM32F7xx_HAL_Driver/Src/stm32f7xx_ll_usb.c ****   }
ARM GAS  C:\Users\jisu8\AppData\Local\Temp\cc8f41y5.s 			page 36


 611:Drivers/STM32F7xx_HAL_Driver/Src/stm32f7xx_ll_usb.c ****   else
 612:Drivers/STM32F7xx_HAL_Driver/Src/stm32f7xx_ll_usb.c ****   {
 613:Drivers/STM32F7xx_HAL_Driver/Src/stm32f7xx_ll_usb.c ****     speed = 0xFU;
 1397              		.loc 1 613 11
 1398 0038 0F23     		movs	r3, #15
 1399 003a FB75     		strb	r3, [r7, #23]
 1400              	.L84:
 614:Drivers/STM32F7xx_HAL_Driver/Src/stm32f7xx_ll_usb.c ****   }
 615:Drivers/STM32F7xx_HAL_Driver/Src/stm32f7xx_ll_usb.c **** 
 616:Drivers/STM32F7xx_HAL_Driver/Src/stm32f7xx_ll_usb.c ****   return speed;
 1401              		.loc 1 616 10
 1402 003c FB7D     		ldrb	r3, [r7, #23]	@ zero_extendqisi2
 617:Drivers/STM32F7xx_HAL_Driver/Src/stm32f7xx_ll_usb.c **** }
 1403              		.loc 1 617 1
 1404 003e 1846     		mov	r0, r3
 1405 0040 1C37     		adds	r7, r7, #28
 1406              	.LCFI60:
 1407              		.cfi_def_cfa_offset 4
 1408 0042 BD46     		mov	sp, r7
 1409              	.LCFI61:
 1410              		.cfi_def_cfa_register 13
 1411              		@ sp needed
 1412 0044 5DF8047B 		ldr	r7, [sp], #4
 1413              	.LCFI62:
 1414              		.cfi_restore 7
 1415              		.cfi_def_cfa_offset 0
 1416 0048 7047     		bx	lr
 1417              		.cfi_endproc
 1418              	.LFE150:
 1420              		.section	.text.USB_ActivateEndpoint,"ax",%progbits
 1421              		.align	1
 1422              		.global	USB_ActivateEndpoint
 1423              		.syntax unified
 1424              		.thumb
 1425              		.thumb_func
 1427              	USB_ActivateEndpoint:
 1428              	.LFB151:
 618:Drivers/STM32F7xx_HAL_Driver/Src/stm32f7xx_ll_usb.c **** 
 619:Drivers/STM32F7xx_HAL_Driver/Src/stm32f7xx_ll_usb.c **** /**
 620:Drivers/STM32F7xx_HAL_Driver/Src/stm32f7xx_ll_usb.c ****   * @brief  Activate and configure an endpoint
 621:Drivers/STM32F7xx_HAL_Driver/Src/stm32f7xx_ll_usb.c ****   * @param  USBx  Selected device
 622:Drivers/STM32F7xx_HAL_Driver/Src/stm32f7xx_ll_usb.c ****   * @param  ep pointer to endpoint structure
 623:Drivers/STM32F7xx_HAL_Driver/Src/stm32f7xx_ll_usb.c ****   * @retval HAL status
 624:Drivers/STM32F7xx_HAL_Driver/Src/stm32f7xx_ll_usb.c ****   */
 625:Drivers/STM32F7xx_HAL_Driver/Src/stm32f7xx_ll_usb.c **** HAL_StatusTypeDef USB_ActivateEndpoint(USB_OTG_GlobalTypeDef *USBx, USB_OTG_EPTypeDef *ep)
 626:Drivers/STM32F7xx_HAL_Driver/Src/stm32f7xx_ll_usb.c **** {
 1429              		.loc 1 626 1
 1430              		.cfi_startproc
 1431              		@ args = 0, pretend = 0, frame = 16
 1432              		@ frame_needed = 1, uses_anonymous_args = 0
 1433              		@ link register save eliminated.
 1434 0000 80B4     		push	{r7}
 1435              	.LCFI63:
 1436              		.cfi_def_cfa_offset 4
 1437              		.cfi_offset 7, -4
 1438 0002 85B0     		sub	sp, sp, #20
 1439              	.LCFI64:
ARM GAS  C:\Users\jisu8\AppData\Local\Temp\cc8f41y5.s 			page 37


 1440              		.cfi_def_cfa_offset 24
 1441 0004 00AF     		add	r7, sp, #0
 1442              	.LCFI65:
 1443              		.cfi_def_cfa_register 7
 1444 0006 7860     		str	r0, [r7, #4]
 1445 0008 3960     		str	r1, [r7]
 627:Drivers/STM32F7xx_HAL_Driver/Src/stm32f7xx_ll_usb.c ****   uint32_t USBx_BASE = (uint32_t)USBx;
 1446              		.loc 1 627 12
 1447 000a 7B68     		ldr	r3, [r7, #4]
 1448 000c FB60     		str	r3, [r7, #12]
 628:Drivers/STM32F7xx_HAL_Driver/Src/stm32f7xx_ll_usb.c ****   uint32_t epnum = (uint32_t)ep->num;
 1449              		.loc 1 628 32
 1450 000e 3B68     		ldr	r3, [r7]
 1451 0010 1B78     		ldrb	r3, [r3]	@ zero_extendqisi2
 1452              		.loc 1 628 12
 1453 0012 BB60     		str	r3, [r7, #8]
 629:Drivers/STM32F7xx_HAL_Driver/Src/stm32f7xx_ll_usb.c **** 
 630:Drivers/STM32F7xx_HAL_Driver/Src/stm32f7xx_ll_usb.c ****   if (ep->is_in == 1U)
 1454              		.loc 1 630 9
 1455 0014 3B68     		ldr	r3, [r7]
 1456 0016 5B78     		ldrb	r3, [r3, #1]	@ zero_extendqisi2
 1457              		.loc 1 630 6
 1458 0018 012B     		cmp	r3, #1
 1459 001a 39D1     		bne	.L89
 631:Drivers/STM32F7xx_HAL_Driver/Src/stm32f7xx_ll_usb.c ****   {
 632:Drivers/STM32F7xx_HAL_Driver/Src/stm32f7xx_ll_usb.c ****     USBx_DEVICE->DAINTMSK |= USB_OTG_DAINTMSK_IEPM & (uint32_t)(1UL << (ep->num & EP_ADDR_MSK));
 1460              		.loc 1 632 27
 1461 001c FB68     		ldr	r3, [r7, #12]
 1462 001e 03F50063 		add	r3, r3, #2048
 1463 0022 DA69     		ldr	r2, [r3, #28]
 1464              		.loc 1 632 75
 1465 0024 3B68     		ldr	r3, [r7]
 1466 0026 1B78     		ldrb	r3, [r3]	@ zero_extendqisi2
 1467              		.loc 1 632 81
 1468 0028 03F00F03 		and	r3, r3, #15
 1469              		.loc 1 632 54
 1470 002c 0121     		movs	r1, #1
 1471 002e 01FA03F3 		lsl	r3, r1, r3
 1472              		.loc 1 632 52
 1473 0032 9BB2     		uxth	r3, r3
 1474              		.loc 1 632 27
 1475 0034 F968     		ldr	r1, [r7, #12]
 1476 0036 01F50061 		add	r1, r1, #2048
 1477 003a 1343     		orrs	r3, r3, r2
 1478 003c CB61     		str	r3, [r1, #28]
 633:Drivers/STM32F7xx_HAL_Driver/Src/stm32f7xx_ll_usb.c **** 
 634:Drivers/STM32F7xx_HAL_Driver/Src/stm32f7xx_ll_usb.c ****     if ((USBx_INEP(epnum)->DIEPCTL & USB_OTG_DIEPCTL_USBAEP) == 0U)
 1479              		.loc 1 634 10
 1480 003e BB68     		ldr	r3, [r7, #8]
 1481 0040 5A01     		lsls	r2, r3, #5
 1482 0042 FB68     		ldr	r3, [r7, #12]
 1483 0044 1344     		add	r3, r3, r2
 1484 0046 03F51063 		add	r3, r3, #2304
 1485              		.loc 1 634 26
 1486 004a 1B68     		ldr	r3, [r3]
 1487              		.loc 1 634 36
 1488 004c 03F40043 		and	r3, r3, #32768
ARM GAS  C:\Users\jisu8\AppData\Local\Temp\cc8f41y5.s 			page 38


 1489              		.loc 1 634 8
 1490 0050 002B     		cmp	r3, #0
 1491 0052 53D1     		bne	.L90
 635:Drivers/STM32F7xx_HAL_Driver/Src/stm32f7xx_ll_usb.c ****     {
 636:Drivers/STM32F7xx_HAL_Driver/Src/stm32f7xx_ll_usb.c ****       USBx_INEP(epnum)->DIEPCTL |= (ep->maxpacket & USB_OTG_DIEPCTL_MPSIZ) |
 1492              		.loc 1 636 33
 1493 0054 BB68     		ldr	r3, [r7, #8]
 1494 0056 5A01     		lsls	r2, r3, #5
 1495 0058 FB68     		ldr	r3, [r7, #12]
 1496 005a 1344     		add	r3, r3, r2
 1497 005c 03F51063 		add	r3, r3, #2304
 1498 0060 1A68     		ldr	r2, [r3]
 1499              		.loc 1 636 39
 1500 0062 3B68     		ldr	r3, [r7]
 1501 0064 DB68     		ldr	r3, [r3, #12]
 1502              		.loc 1 636 51
 1503 0066 C3F30A01 		ubfx	r1, r3, #0, #11
 637:Drivers/STM32F7xx_HAL_Driver/Src/stm32f7xx_ll_usb.c ****                                    ((uint32_t)ep->type << 18) | (epnum << 22) |
 1504              		.loc 1 637 49
 1505 006a 3B68     		ldr	r3, [r7]
 1506 006c 1B79     		ldrb	r3, [r3, #4]	@ zero_extendqisi2
 1507              		.loc 1 637 56
 1508 006e 9B04     		lsls	r3, r3, #18
 636:Drivers/STM32F7xx_HAL_Driver/Src/stm32f7xx_ll_usb.c ****                                    ((uint32_t)ep->type << 18) | (epnum << 22) |
 1509              		.loc 1 636 76
 1510 0070 1943     		orrs	r1, r1, r3
 1511              		.loc 1 637 72
 1512 0072 BB68     		ldr	r3, [r7, #8]
 1513 0074 9B05     		lsls	r3, r3, #22
 1514              		.loc 1 637 63
 1515 0076 0B43     		orrs	r3, r3, r1
 636:Drivers/STM32F7xx_HAL_Driver/Src/stm32f7xx_ll_usb.c ****                                    ((uint32_t)ep->type << 18) | (epnum << 22) |
 1516              		.loc 1 636 33
 1517 0078 1A43     		orrs	r2, r2, r3
 1518 007a BB68     		ldr	r3, [r7, #8]
 1519 007c 5901     		lsls	r1, r3, #5
 1520 007e FB68     		ldr	r3, [r7, #12]
 1521 0080 0B44     		add	r3, r3, r1
 1522 0082 03F51063 		add	r3, r3, #2304
 1523 0086 1946     		mov	r1, r3
 1524 0088 204B     		ldr	r3, .L92
 1525 008a 1343     		orrs	r3, r3, r2
 1526 008c 0B60     		str	r3, [r1]
 1527 008e 35E0     		b	.L90
 1528              	.L89:
 638:Drivers/STM32F7xx_HAL_Driver/Src/stm32f7xx_ll_usb.c ****                                    USB_OTG_DIEPCTL_SD0PID_SEVNFRM |
 639:Drivers/STM32F7xx_HAL_Driver/Src/stm32f7xx_ll_usb.c ****                                    USB_OTG_DIEPCTL_USBAEP;
 640:Drivers/STM32F7xx_HAL_Driver/Src/stm32f7xx_ll_usb.c ****     }
 641:Drivers/STM32F7xx_HAL_Driver/Src/stm32f7xx_ll_usb.c ****   }
 642:Drivers/STM32F7xx_HAL_Driver/Src/stm32f7xx_ll_usb.c ****   else
 643:Drivers/STM32F7xx_HAL_Driver/Src/stm32f7xx_ll_usb.c ****   {
 644:Drivers/STM32F7xx_HAL_Driver/Src/stm32f7xx_ll_usb.c ****     USBx_DEVICE->DAINTMSK |= USB_OTG_DAINTMSK_OEPM & ((uint32_t)(1UL << (ep->num & EP_ADDR_MSK)) <<
 1529              		.loc 1 644 27
 1530 0090 FB68     		ldr	r3, [r7, #12]
 1531 0092 03F50063 		add	r3, r3, #2048
 1532 0096 DA69     		ldr	r2, [r3, #28]
 1533              		.loc 1 644 76
ARM GAS  C:\Users\jisu8\AppData\Local\Temp\cc8f41y5.s 			page 39


 1534 0098 3B68     		ldr	r3, [r7]
 1535 009a 1B78     		ldrb	r3, [r3]	@ zero_extendqisi2
 1536              		.loc 1 644 82
 1537 009c 03F00F03 		and	r3, r3, #15
 1538              		.loc 1 644 55
 1539 00a0 0121     		movs	r1, #1
 1540 00a2 01FA03F3 		lsl	r3, r1, r3
 1541              		.loc 1 644 52
 1542 00a6 1B04     		lsls	r3, r3, #16
 1543              		.loc 1 644 27
 1544 00a8 F968     		ldr	r1, [r7, #12]
 1545 00aa 01F50061 		add	r1, r1, #2048
 1546 00ae 1343     		orrs	r3, r3, r2
 1547 00b0 CB61     		str	r3, [r1, #28]
 645:Drivers/STM32F7xx_HAL_Driver/Src/stm32f7xx_ll_usb.c **** 
 646:Drivers/STM32F7xx_HAL_Driver/Src/stm32f7xx_ll_usb.c ****     if (((USBx_OUTEP(epnum)->DOEPCTL) & USB_OTG_DOEPCTL_USBAEP) == 0U)
 1548              		.loc 1 646 11
 1549 00b2 BB68     		ldr	r3, [r7, #8]
 1550 00b4 5A01     		lsls	r2, r3, #5
 1551 00b6 FB68     		ldr	r3, [r7, #12]
 1552 00b8 1344     		add	r3, r3, r2
 1553 00ba 03F53063 		add	r3, r3, #2816
 1554              		.loc 1 646 28
 1555 00be 1B68     		ldr	r3, [r3]
 1556              		.loc 1 646 39
 1557 00c0 03F40043 		and	r3, r3, #32768
 1558              		.loc 1 646 8
 1559 00c4 002B     		cmp	r3, #0
 1560 00c6 19D1     		bne	.L90
 647:Drivers/STM32F7xx_HAL_Driver/Src/stm32f7xx_ll_usb.c ****     {
 648:Drivers/STM32F7xx_HAL_Driver/Src/stm32f7xx_ll_usb.c ****       USBx_OUTEP(epnum)->DOEPCTL |= (ep->maxpacket & USB_OTG_DOEPCTL_MPSIZ) |
 1561              		.loc 1 648 34
 1562 00c8 BB68     		ldr	r3, [r7, #8]
 1563 00ca 5A01     		lsls	r2, r3, #5
 1564 00cc FB68     		ldr	r3, [r7, #12]
 1565 00ce 1344     		add	r3, r3, r2
 1566 00d0 03F53063 		add	r3, r3, #2816
 1567 00d4 1A68     		ldr	r2, [r3]
 1568              		.loc 1 648 40
 1569 00d6 3B68     		ldr	r3, [r7]
 1570 00d8 DB68     		ldr	r3, [r3, #12]
 1571              		.loc 1 648 52
 1572 00da C3F30A01 		ubfx	r1, r3, #0, #11
 649:Drivers/STM32F7xx_HAL_Driver/Src/stm32f7xx_ll_usb.c ****                                     ((uint32_t)ep->type << 18) |
 1573              		.loc 1 649 50
 1574 00de 3B68     		ldr	r3, [r7]
 1575 00e0 1B79     		ldrb	r3, [r3, #4]	@ zero_extendqisi2
 1576              		.loc 1 649 57
 1577 00e2 9B04     		lsls	r3, r3, #18
 648:Drivers/STM32F7xx_HAL_Driver/Src/stm32f7xx_ll_usb.c ****                                     ((uint32_t)ep->type << 18) |
 1578              		.loc 1 648 77
 1579 00e4 0B43     		orrs	r3, r3, r1
 648:Drivers/STM32F7xx_HAL_Driver/Src/stm32f7xx_ll_usb.c ****                                     ((uint32_t)ep->type << 18) |
 1580              		.loc 1 648 34
 1581 00e6 1A43     		orrs	r2, r2, r3
 1582 00e8 BB68     		ldr	r3, [r7, #8]
 1583 00ea 5901     		lsls	r1, r3, #5
ARM GAS  C:\Users\jisu8\AppData\Local\Temp\cc8f41y5.s 			page 40


 1584 00ec FB68     		ldr	r3, [r7, #12]
 1585 00ee 0B44     		add	r3, r3, r1
 1586 00f0 03F53063 		add	r3, r3, #2816
 1587 00f4 1946     		mov	r1, r3
 1588 00f6 054B     		ldr	r3, .L92
 1589 00f8 1343     		orrs	r3, r3, r2
 1590 00fa 0B60     		str	r3, [r1]
 1591              	.L90:
 650:Drivers/STM32F7xx_HAL_Driver/Src/stm32f7xx_ll_usb.c ****                                     USB_OTG_DIEPCTL_SD0PID_SEVNFRM |
 651:Drivers/STM32F7xx_HAL_Driver/Src/stm32f7xx_ll_usb.c ****                                     USB_OTG_DOEPCTL_USBAEP;
 652:Drivers/STM32F7xx_HAL_Driver/Src/stm32f7xx_ll_usb.c ****     }
 653:Drivers/STM32F7xx_HAL_Driver/Src/stm32f7xx_ll_usb.c ****   }
 654:Drivers/STM32F7xx_HAL_Driver/Src/stm32f7xx_ll_usb.c ****   return HAL_OK;
 1592              		.loc 1 654 10
 1593 00fc 0023     		movs	r3, #0
 655:Drivers/STM32F7xx_HAL_Driver/Src/stm32f7xx_ll_usb.c **** }
 1594              		.loc 1 655 1
 1595 00fe 1846     		mov	r0, r3
 1596 0100 1437     		adds	r7, r7, #20
 1597              	.LCFI66:
 1598              		.cfi_def_cfa_offset 4
 1599 0102 BD46     		mov	sp, r7
 1600              	.LCFI67:
 1601              		.cfi_def_cfa_register 13
 1602              		@ sp needed
 1603 0104 5DF8047B 		ldr	r7, [sp], #4
 1604              	.LCFI68:
 1605              		.cfi_restore 7
 1606              		.cfi_def_cfa_offset 0
 1607 0108 7047     		bx	lr
 1608              	.L93:
 1609 010a 00BF     		.align	2
 1610              	.L92:
 1611 010c 00800010 		.word	268468224
 1612              		.cfi_endproc
 1613              	.LFE151:
 1615              		.section	.text.USB_ActivateDedicatedEndpoint,"ax",%progbits
 1616              		.align	1
 1617              		.global	USB_ActivateDedicatedEndpoint
 1618              		.syntax unified
 1619              		.thumb
 1620              		.thumb_func
 1622              	USB_ActivateDedicatedEndpoint:
 1623              	.LFB152:
 656:Drivers/STM32F7xx_HAL_Driver/Src/stm32f7xx_ll_usb.c **** 
 657:Drivers/STM32F7xx_HAL_Driver/Src/stm32f7xx_ll_usb.c **** /**
 658:Drivers/STM32F7xx_HAL_Driver/Src/stm32f7xx_ll_usb.c ****   * @brief  Activate and configure a dedicated endpoint
 659:Drivers/STM32F7xx_HAL_Driver/Src/stm32f7xx_ll_usb.c ****   * @param  USBx  Selected device
 660:Drivers/STM32F7xx_HAL_Driver/Src/stm32f7xx_ll_usb.c ****   * @param  ep pointer to endpoint structure
 661:Drivers/STM32F7xx_HAL_Driver/Src/stm32f7xx_ll_usb.c ****   * @retval HAL status
 662:Drivers/STM32F7xx_HAL_Driver/Src/stm32f7xx_ll_usb.c ****   */
 663:Drivers/STM32F7xx_HAL_Driver/Src/stm32f7xx_ll_usb.c **** HAL_StatusTypeDef USB_ActivateDedicatedEndpoint(USB_OTG_GlobalTypeDef *USBx, USB_OTG_EPTypeDef *ep)
 664:Drivers/STM32F7xx_HAL_Driver/Src/stm32f7xx_ll_usb.c **** {
 1624              		.loc 1 664 1
 1625              		.cfi_startproc
 1626              		@ args = 0, pretend = 0, frame = 16
 1627              		@ frame_needed = 1, uses_anonymous_args = 0
ARM GAS  C:\Users\jisu8\AppData\Local\Temp\cc8f41y5.s 			page 41


 1628              		@ link register save eliminated.
 1629 0000 80B4     		push	{r7}
 1630              	.LCFI69:
 1631              		.cfi_def_cfa_offset 4
 1632              		.cfi_offset 7, -4
 1633 0002 85B0     		sub	sp, sp, #20
 1634              	.LCFI70:
 1635              		.cfi_def_cfa_offset 24
 1636 0004 00AF     		add	r7, sp, #0
 1637              	.LCFI71:
 1638              		.cfi_def_cfa_register 7
 1639 0006 7860     		str	r0, [r7, #4]
 1640 0008 3960     		str	r1, [r7]
 665:Drivers/STM32F7xx_HAL_Driver/Src/stm32f7xx_ll_usb.c ****   uint32_t USBx_BASE = (uint32_t)USBx;
 1641              		.loc 1 665 12
 1642 000a 7B68     		ldr	r3, [r7, #4]
 1643 000c FB60     		str	r3, [r7, #12]
 666:Drivers/STM32F7xx_HAL_Driver/Src/stm32f7xx_ll_usb.c ****   uint32_t epnum = (uint32_t)ep->num;
 1644              		.loc 1 666 32
 1645 000e 3B68     		ldr	r3, [r7]
 1646 0010 1B78     		ldrb	r3, [r3]	@ zero_extendqisi2
 1647              		.loc 1 666 12
 1648 0012 BB60     		str	r3, [r7, #8]
 667:Drivers/STM32F7xx_HAL_Driver/Src/stm32f7xx_ll_usb.c **** 
 668:Drivers/STM32F7xx_HAL_Driver/Src/stm32f7xx_ll_usb.c ****   /* Read DEPCTLn register */
 669:Drivers/STM32F7xx_HAL_Driver/Src/stm32f7xx_ll_usb.c ****   if (ep->is_in == 1U)
 1649              		.loc 1 669 9
 1650 0014 3B68     		ldr	r3, [r7]
 1651 0016 5B78     		ldrb	r3, [r3, #1]	@ zero_extendqisi2
 1652              		.loc 1 669 6
 1653 0018 012B     		cmp	r3, #1
 1654 001a 39D1     		bne	.L95
 670:Drivers/STM32F7xx_HAL_Driver/Src/stm32f7xx_ll_usb.c ****   {
 671:Drivers/STM32F7xx_HAL_Driver/Src/stm32f7xx_ll_usb.c ****     if (((USBx_INEP(epnum)->DIEPCTL) & USB_OTG_DIEPCTL_USBAEP) == 0U)
 1655              		.loc 1 671 11
 1656 001c BB68     		ldr	r3, [r7, #8]
 1657 001e 5A01     		lsls	r2, r3, #5
 1658 0020 FB68     		ldr	r3, [r7, #12]
 1659 0022 1344     		add	r3, r3, r2
 1660 0024 03F51063 		add	r3, r3, #2304
 1661              		.loc 1 671 27
 1662 0028 1B68     		ldr	r3, [r3]
 1663              		.loc 1 671 38
 1664 002a 03F40043 		and	r3, r3, #32768
 1665              		.loc 1 671 8
 1666 002e 002B     		cmp	r3, #0
 1667 0030 1CD1     		bne	.L96
 672:Drivers/STM32F7xx_HAL_Driver/Src/stm32f7xx_ll_usb.c ****     {
 673:Drivers/STM32F7xx_HAL_Driver/Src/stm32f7xx_ll_usb.c ****       USBx_INEP(epnum)->DIEPCTL |= (ep->maxpacket & USB_OTG_DIEPCTL_MPSIZ) |
 1668              		.loc 1 673 33
 1669 0032 BB68     		ldr	r3, [r7, #8]
 1670 0034 5A01     		lsls	r2, r3, #5
 1671 0036 FB68     		ldr	r3, [r7, #12]
 1672 0038 1344     		add	r3, r3, r2
 1673 003a 03F51063 		add	r3, r3, #2304
 1674 003e 1A68     		ldr	r2, [r3]
 1675              		.loc 1 673 39
ARM GAS  C:\Users\jisu8\AppData\Local\Temp\cc8f41y5.s 			page 42


 1676 0040 3B68     		ldr	r3, [r7]
 1677 0042 DB68     		ldr	r3, [r3, #12]
 1678              		.loc 1 673 51
 1679 0044 C3F30A01 		ubfx	r1, r3, #0, #11
 674:Drivers/STM32F7xx_HAL_Driver/Src/stm32f7xx_ll_usb.c ****                                    ((uint32_t)ep->type << 18) | (epnum << 22) |
 1680              		.loc 1 674 49
 1681 0048 3B68     		ldr	r3, [r7]
 1682 004a 1B79     		ldrb	r3, [r3, #4]	@ zero_extendqisi2
 1683              		.loc 1 674 56
 1684 004c 9B04     		lsls	r3, r3, #18
 673:Drivers/STM32F7xx_HAL_Driver/Src/stm32f7xx_ll_usb.c ****                                    ((uint32_t)ep->type << 18) | (epnum << 22) |
 1685              		.loc 1 673 76
 1686 004e 1943     		orrs	r1, r1, r3
 1687              		.loc 1 674 72
 1688 0050 BB68     		ldr	r3, [r7, #8]
 1689 0052 9B05     		lsls	r3, r3, #22
 1690              		.loc 1 674 63
 1691 0054 0B43     		orrs	r3, r3, r1
 673:Drivers/STM32F7xx_HAL_Driver/Src/stm32f7xx_ll_usb.c ****                                    ((uint32_t)ep->type << 18) | (epnum << 22) |
 1692              		.loc 1 673 33
 1693 0056 1A43     		orrs	r2, r2, r3
 1694 0058 BB68     		ldr	r3, [r7, #8]
 1695 005a 5901     		lsls	r1, r3, #5
 1696 005c FB68     		ldr	r3, [r7, #12]
 1697 005e 0B44     		add	r3, r3, r1
 1698 0060 03F51063 		add	r3, r3, #2304
 1699 0064 1946     		mov	r1, r3
 1700 0066 2A4B     		ldr	r3, .L100
 1701 0068 1343     		orrs	r3, r3, r2
 1702 006a 0B60     		str	r3, [r1]
 1703              	.L96:
 675:Drivers/STM32F7xx_HAL_Driver/Src/stm32f7xx_ll_usb.c ****                                    USB_OTG_DIEPCTL_SD0PID_SEVNFRM |
 676:Drivers/STM32F7xx_HAL_Driver/Src/stm32f7xx_ll_usb.c ****                                    USB_OTG_DIEPCTL_USBAEP;
 677:Drivers/STM32F7xx_HAL_Driver/Src/stm32f7xx_ll_usb.c ****     }
 678:Drivers/STM32F7xx_HAL_Driver/Src/stm32f7xx_ll_usb.c **** 
 679:Drivers/STM32F7xx_HAL_Driver/Src/stm32f7xx_ll_usb.c ****     USBx_DEVICE->DEACHMSK |= USB_OTG_DAINTMSK_IEPM & (uint32_t)(1UL << (ep->num & EP_ADDR_MSK));
 1704              		.loc 1 679 27
 1705 006c FB68     		ldr	r3, [r7, #12]
 1706 006e 03F50063 		add	r3, r3, #2048
 1707 0072 DA6B     		ldr	r2, [r3, #60]
 1708              		.loc 1 679 75
 1709 0074 3B68     		ldr	r3, [r7]
 1710 0076 1B78     		ldrb	r3, [r3]	@ zero_extendqisi2
 1711              		.loc 1 679 81
 1712 0078 03F00F03 		and	r3, r3, #15
 1713              		.loc 1 679 54
 1714 007c 0121     		movs	r1, #1
 1715 007e 01FA03F3 		lsl	r3, r1, r3
 1716              		.loc 1 679 52
 1717 0082 9BB2     		uxth	r3, r3
 1718              		.loc 1 679 27
 1719 0084 F968     		ldr	r1, [r7, #12]
 1720 0086 01F50061 		add	r1, r1, #2048
 1721 008a 1343     		orrs	r3, r3, r2
 1722 008c CB63     		str	r3, [r1, #60]
 1723 008e 37E0     		b	.L97
 1724              	.L95:
ARM GAS  C:\Users\jisu8\AppData\Local\Temp\cc8f41y5.s 			page 43


 680:Drivers/STM32F7xx_HAL_Driver/Src/stm32f7xx_ll_usb.c ****   }
 681:Drivers/STM32F7xx_HAL_Driver/Src/stm32f7xx_ll_usb.c ****   else
 682:Drivers/STM32F7xx_HAL_Driver/Src/stm32f7xx_ll_usb.c ****   {
 683:Drivers/STM32F7xx_HAL_Driver/Src/stm32f7xx_ll_usb.c ****     if (((USBx_OUTEP(epnum)->DOEPCTL) & USB_OTG_DOEPCTL_USBAEP) == 0U)
 1725              		.loc 1 683 11
 1726 0090 BB68     		ldr	r3, [r7, #8]
 1727 0092 5A01     		lsls	r2, r3, #5
 1728 0094 FB68     		ldr	r3, [r7, #12]
 1729 0096 1344     		add	r3, r3, r2
 1730 0098 03F53063 		add	r3, r3, #2816
 1731              		.loc 1 683 28
 1732 009c 1B68     		ldr	r3, [r3]
 1733              		.loc 1 683 39
 1734 009e 03F40043 		and	r3, r3, #32768
 1735              		.loc 1 683 8
 1736 00a2 002B     		cmp	r3, #0
 1737 00a4 1BD1     		bne	.L98
 684:Drivers/STM32F7xx_HAL_Driver/Src/stm32f7xx_ll_usb.c ****     {
 685:Drivers/STM32F7xx_HAL_Driver/Src/stm32f7xx_ll_usb.c ****       USBx_OUTEP(epnum)->DOEPCTL |= (ep->maxpacket & USB_OTG_DOEPCTL_MPSIZ) |
 1738              		.loc 1 685 34
 1739 00a6 BB68     		ldr	r3, [r7, #8]
 1740 00a8 5A01     		lsls	r2, r3, #5
 1741 00aa FB68     		ldr	r3, [r7, #12]
 1742 00ac 1344     		add	r3, r3, r2
 1743 00ae 03F53063 		add	r3, r3, #2816
 1744 00b2 1A68     		ldr	r2, [r3]
 1745              		.loc 1 685 40
 1746 00b4 3B68     		ldr	r3, [r7]
 1747 00b6 DB68     		ldr	r3, [r3, #12]
 1748              		.loc 1 685 52
 1749 00b8 C3F30A01 		ubfx	r1, r3, #0, #11
 686:Drivers/STM32F7xx_HAL_Driver/Src/stm32f7xx_ll_usb.c ****                                     ((uint32_t)ep->type << 18) | (epnum << 22) |
 1750              		.loc 1 686 50
 1751 00bc 3B68     		ldr	r3, [r7]
 1752 00be 1B79     		ldrb	r3, [r3, #4]	@ zero_extendqisi2
 1753              		.loc 1 686 57
 1754 00c0 9B04     		lsls	r3, r3, #18
 685:Drivers/STM32F7xx_HAL_Driver/Src/stm32f7xx_ll_usb.c ****                                     ((uint32_t)ep->type << 18) | (epnum << 22) |
 1755              		.loc 1 685 77
 1756 00c2 1943     		orrs	r1, r1, r3
 1757              		.loc 1 686 73
 1758 00c4 BB68     		ldr	r3, [r7, #8]
 1759 00c6 9B05     		lsls	r3, r3, #22
 1760              		.loc 1 686 64
 1761 00c8 0B43     		orrs	r3, r3, r1
 685:Drivers/STM32F7xx_HAL_Driver/Src/stm32f7xx_ll_usb.c ****                                     ((uint32_t)ep->type << 18) | (epnum << 22) |
 1762              		.loc 1 685 34
 1763 00ca 1343     		orrs	r3, r3, r2
 1764 00cc BA68     		ldr	r2, [r7, #8]
 1765 00ce 5101     		lsls	r1, r2, #5
 1766 00d0 FA68     		ldr	r2, [r7, #12]
 1767 00d2 0A44     		add	r2, r2, r1
 1768 00d4 02F53062 		add	r2, r2, #2816
 1769 00d8 43F40043 		orr	r3, r3, #32768
 1770 00dc 1360     		str	r3, [r2]
 1771              	.L98:
 687:Drivers/STM32F7xx_HAL_Driver/Src/stm32f7xx_ll_usb.c ****                                     USB_OTG_DOEPCTL_USBAEP;
ARM GAS  C:\Users\jisu8\AppData\Local\Temp\cc8f41y5.s 			page 44


 688:Drivers/STM32F7xx_HAL_Driver/Src/stm32f7xx_ll_usb.c ****     }
 689:Drivers/STM32F7xx_HAL_Driver/Src/stm32f7xx_ll_usb.c **** 
 690:Drivers/STM32F7xx_HAL_Driver/Src/stm32f7xx_ll_usb.c ****     USBx_DEVICE->DEACHMSK |= USB_OTG_DAINTMSK_OEPM & ((uint32_t)(1UL << (ep->num & EP_ADDR_MSK)) <<
 1772              		.loc 1 690 27
 1773 00de FB68     		ldr	r3, [r7, #12]
 1774 00e0 03F50063 		add	r3, r3, #2048
 1775 00e4 DA6B     		ldr	r2, [r3, #60]
 1776              		.loc 1 690 76
 1777 00e6 3B68     		ldr	r3, [r7]
 1778 00e8 1B78     		ldrb	r3, [r3]	@ zero_extendqisi2
 1779              		.loc 1 690 82
 1780 00ea 03F00F03 		and	r3, r3, #15
 1781              		.loc 1 690 55
 1782 00ee 0121     		movs	r1, #1
 1783 00f0 01FA03F3 		lsl	r3, r1, r3
 1784              		.loc 1 690 52
 1785 00f4 1B04     		lsls	r3, r3, #16
 1786              		.loc 1 690 27
 1787 00f6 F968     		ldr	r1, [r7, #12]
 1788 00f8 01F50061 		add	r1, r1, #2048
 1789 00fc 1343     		orrs	r3, r3, r2
 1790 00fe CB63     		str	r3, [r1, #60]
 1791              	.L97:
 691:Drivers/STM32F7xx_HAL_Driver/Src/stm32f7xx_ll_usb.c ****   }
 692:Drivers/STM32F7xx_HAL_Driver/Src/stm32f7xx_ll_usb.c **** 
 693:Drivers/STM32F7xx_HAL_Driver/Src/stm32f7xx_ll_usb.c ****   return HAL_OK;
 1792              		.loc 1 693 10
 1793 0100 0023     		movs	r3, #0
 694:Drivers/STM32F7xx_HAL_Driver/Src/stm32f7xx_ll_usb.c **** }
 1794              		.loc 1 694 1
 1795 0102 1846     		mov	r0, r3
 1796 0104 1437     		adds	r7, r7, #20
 1797              	.LCFI72:
 1798              		.cfi_def_cfa_offset 4
 1799 0106 BD46     		mov	sp, r7
 1800              	.LCFI73:
 1801              		.cfi_def_cfa_register 13
 1802              		@ sp needed
 1803 0108 5DF8047B 		ldr	r7, [sp], #4
 1804              	.LCFI74:
 1805              		.cfi_restore 7
 1806              		.cfi_def_cfa_offset 0
 1807 010c 7047     		bx	lr
 1808              	.L101:
 1809 010e 00BF     		.align	2
 1810              	.L100:
 1811 0110 00800010 		.word	268468224
 1812              		.cfi_endproc
 1813              	.LFE152:
 1815              		.section	.text.USB_DeactivateEndpoint,"ax",%progbits
 1816              		.align	1
 1817              		.global	USB_DeactivateEndpoint
 1818              		.syntax unified
 1819              		.thumb
 1820              		.thumb_func
 1822              	USB_DeactivateEndpoint:
 1823              	.LFB153:
ARM GAS  C:\Users\jisu8\AppData\Local\Temp\cc8f41y5.s 			page 45


 695:Drivers/STM32F7xx_HAL_Driver/Src/stm32f7xx_ll_usb.c **** 
 696:Drivers/STM32F7xx_HAL_Driver/Src/stm32f7xx_ll_usb.c **** /**
 697:Drivers/STM32F7xx_HAL_Driver/Src/stm32f7xx_ll_usb.c ****   * @brief  De-activate and de-initialize an endpoint
 698:Drivers/STM32F7xx_HAL_Driver/Src/stm32f7xx_ll_usb.c ****   * @param  USBx  Selected device
 699:Drivers/STM32F7xx_HAL_Driver/Src/stm32f7xx_ll_usb.c ****   * @param  ep pointer to endpoint structure
 700:Drivers/STM32F7xx_HAL_Driver/Src/stm32f7xx_ll_usb.c ****   * @retval HAL status
 701:Drivers/STM32F7xx_HAL_Driver/Src/stm32f7xx_ll_usb.c ****   */
 702:Drivers/STM32F7xx_HAL_Driver/Src/stm32f7xx_ll_usb.c **** HAL_StatusTypeDef USB_DeactivateEndpoint(USB_OTG_GlobalTypeDef *USBx, USB_OTG_EPTypeDef *ep)
 703:Drivers/STM32F7xx_HAL_Driver/Src/stm32f7xx_ll_usb.c **** {
 1824              		.loc 1 703 1
 1825              		.cfi_startproc
 1826              		@ args = 0, pretend = 0, frame = 16
 1827              		@ frame_needed = 1, uses_anonymous_args = 0
 1828              		@ link register save eliminated.
 1829 0000 80B4     		push	{r7}
 1830              	.LCFI75:
 1831              		.cfi_def_cfa_offset 4
 1832              		.cfi_offset 7, -4
 1833 0002 85B0     		sub	sp, sp, #20
 1834              	.LCFI76:
 1835              		.cfi_def_cfa_offset 24
 1836 0004 00AF     		add	r7, sp, #0
 1837              	.LCFI77:
 1838              		.cfi_def_cfa_register 7
 1839 0006 7860     		str	r0, [r7, #4]
 1840 0008 3960     		str	r1, [r7]
 704:Drivers/STM32F7xx_HAL_Driver/Src/stm32f7xx_ll_usb.c ****   uint32_t USBx_BASE = (uint32_t)USBx;
 1841              		.loc 1 704 12
 1842 000a 7B68     		ldr	r3, [r7, #4]
 1843 000c FB60     		str	r3, [r7, #12]
 705:Drivers/STM32F7xx_HAL_Driver/Src/stm32f7xx_ll_usb.c ****   uint32_t epnum = (uint32_t)ep->num;
 1844              		.loc 1 705 32
 1845 000e 3B68     		ldr	r3, [r7]
 1846 0010 1B78     		ldrb	r3, [r3]	@ zero_extendqisi2
 1847              		.loc 1 705 12
 1848 0012 BB60     		str	r3, [r7, #8]
 706:Drivers/STM32F7xx_HAL_Driver/Src/stm32f7xx_ll_usb.c **** 
 707:Drivers/STM32F7xx_HAL_Driver/Src/stm32f7xx_ll_usb.c ****   /* Read DEPCTLn register */
 708:Drivers/STM32F7xx_HAL_Driver/Src/stm32f7xx_ll_usb.c ****   if (ep->is_in == 1U)
 1849              		.loc 1 708 9
 1850 0014 3B68     		ldr	r3, [r7]
 1851 0016 5B78     		ldrb	r3, [r3, #1]	@ zero_extendqisi2
 1852              		.loc 1 708 6
 1853 0018 012B     		cmp	r3, #1
 1854 001a 61D1     		bne	.L103
 709:Drivers/STM32F7xx_HAL_Driver/Src/stm32f7xx_ll_usb.c ****   {
 710:Drivers/STM32F7xx_HAL_Driver/Src/stm32f7xx_ll_usb.c ****     if ((USBx_INEP(epnum)->DIEPCTL & USB_OTG_DIEPCTL_EPENA) == USB_OTG_DIEPCTL_EPENA)
 1855              		.loc 1 710 10
 1856 001c BB68     		ldr	r3, [r7, #8]
 1857 001e 5A01     		lsls	r2, r3, #5
 1858 0020 FB68     		ldr	r3, [r7, #12]
 1859 0022 1344     		add	r3, r3, r2
 1860 0024 03F51063 		add	r3, r3, #2304
 1861              		.loc 1 710 26
 1862 0028 1B68     		ldr	r3, [r3]
 1863              		.loc 1 710 36
 1864 002a 03F00043 		and	r3, r3, #-2147483648
ARM GAS  C:\Users\jisu8\AppData\Local\Temp\cc8f41y5.s 			page 46


 1865              		.loc 1 710 8
 1866 002e B3F1004F 		cmp	r3, #-2147483648
 1867 0032 1FD1     		bne	.L104
 711:Drivers/STM32F7xx_HAL_Driver/Src/stm32f7xx_ll_usb.c ****     {
 712:Drivers/STM32F7xx_HAL_Driver/Src/stm32f7xx_ll_usb.c ****       USBx_INEP(epnum)->DIEPCTL |= USB_OTG_DIEPCTL_SNAK;
 1868              		.loc 1 712 33
 1869 0034 BB68     		ldr	r3, [r7, #8]
 1870 0036 5A01     		lsls	r2, r3, #5
 1871 0038 FB68     		ldr	r3, [r7, #12]
 1872 003a 1344     		add	r3, r3, r2
 1873 003c 03F51063 		add	r3, r3, #2304
 1874 0040 1B68     		ldr	r3, [r3]
 1875 0042 BA68     		ldr	r2, [r7, #8]
 1876 0044 5101     		lsls	r1, r2, #5
 1877 0046 FA68     		ldr	r2, [r7, #12]
 1878 0048 0A44     		add	r2, r2, r1
 1879 004a 02F51062 		add	r2, r2, #2304
 1880 004e 43F00063 		orr	r3, r3, #134217728
 1881 0052 1360     		str	r3, [r2]
 713:Drivers/STM32F7xx_HAL_Driver/Src/stm32f7xx_ll_usb.c ****       USBx_INEP(epnum)->DIEPCTL |= USB_OTG_DIEPCTL_EPDIS;
 1882              		.loc 1 713 33
 1883 0054 BB68     		ldr	r3, [r7, #8]
 1884 0056 5A01     		lsls	r2, r3, #5
 1885 0058 FB68     		ldr	r3, [r7, #12]
 1886 005a 1344     		add	r3, r3, r2
 1887 005c 03F51063 		add	r3, r3, #2304
 1888 0060 1B68     		ldr	r3, [r3]
 1889 0062 BA68     		ldr	r2, [r7, #8]
 1890 0064 5101     		lsls	r1, r2, #5
 1891 0066 FA68     		ldr	r2, [r7, #12]
 1892 0068 0A44     		add	r2, r2, r1
 1893 006a 02F51062 		add	r2, r2, #2304
 1894 006e 43F08043 		orr	r3, r3, #1073741824
 1895 0072 1360     		str	r3, [r2]
 1896              	.L104:
 714:Drivers/STM32F7xx_HAL_Driver/Src/stm32f7xx_ll_usb.c ****     }
 715:Drivers/STM32F7xx_HAL_Driver/Src/stm32f7xx_ll_usb.c **** 
 716:Drivers/STM32F7xx_HAL_Driver/Src/stm32f7xx_ll_usb.c ****     USBx_DEVICE->DEACHMSK &= ~(USB_OTG_DAINTMSK_IEPM & (uint32_t)(1UL << (ep->num & EP_ADDR_MSK)));
 1897              		.loc 1 716 27
 1898 0074 FB68     		ldr	r3, [r7, #12]
 1899 0076 03F50063 		add	r3, r3, #2048
 1900 007a DA6B     		ldr	r2, [r3, #60]
 1901              		.loc 1 716 77
 1902 007c 3B68     		ldr	r3, [r7]
 1903 007e 1B78     		ldrb	r3, [r3]	@ zero_extendqisi2
 1904              		.loc 1 716 83
 1905 0080 03F00F03 		and	r3, r3, #15
 1906              		.loc 1 716 56
 1907 0084 0121     		movs	r1, #1
 1908 0086 01FA03F3 		lsl	r3, r1, r3
 1909              		.loc 1 716 54
 1910 008a 9BB2     		uxth	r3, r3
 1911              		.loc 1 716 30
 1912 008c DB43     		mvns	r3, r3
 1913              		.loc 1 716 27
 1914 008e F968     		ldr	r1, [r7, #12]
 1915 0090 01F50061 		add	r1, r1, #2048
ARM GAS  C:\Users\jisu8\AppData\Local\Temp\cc8f41y5.s 			page 47


 1916 0094 1340     		ands	r3, r3, r2
 1917 0096 CB63     		str	r3, [r1, #60]
 717:Drivers/STM32F7xx_HAL_Driver/Src/stm32f7xx_ll_usb.c ****     USBx_DEVICE->DAINTMSK &= ~(USB_OTG_DAINTMSK_IEPM & (uint32_t)(1UL << (ep->num & EP_ADDR_MSK)));
 1918              		.loc 1 717 27
 1919 0098 FB68     		ldr	r3, [r7, #12]
 1920 009a 03F50063 		add	r3, r3, #2048
 1921 009e DA69     		ldr	r2, [r3, #28]
 1922              		.loc 1 717 77
 1923 00a0 3B68     		ldr	r3, [r7]
 1924 00a2 1B78     		ldrb	r3, [r3]	@ zero_extendqisi2
 1925              		.loc 1 717 83
 1926 00a4 03F00F03 		and	r3, r3, #15
 1927              		.loc 1 717 56
 1928 00a8 0121     		movs	r1, #1
 1929 00aa 01FA03F3 		lsl	r3, r1, r3
 1930              		.loc 1 717 54
 1931 00ae 9BB2     		uxth	r3, r3
 1932              		.loc 1 717 30
 1933 00b0 DB43     		mvns	r3, r3
 1934              		.loc 1 717 27
 1935 00b2 F968     		ldr	r1, [r7, #12]
 1936 00b4 01F50061 		add	r1, r1, #2048
 1937 00b8 1340     		ands	r3, r3, r2
 1938 00ba CB61     		str	r3, [r1, #28]
 718:Drivers/STM32F7xx_HAL_Driver/Src/stm32f7xx_ll_usb.c ****     USBx_INEP(epnum)->DIEPCTL &= ~(USB_OTG_DIEPCTL_USBAEP |
 1939              		.loc 1 718 31
 1940 00bc BB68     		ldr	r3, [r7, #8]
 1941 00be 5A01     		lsls	r2, r3, #5
 1942 00c0 FB68     		ldr	r3, [r7, #12]
 1943 00c2 1344     		add	r3, r3, r2
 1944 00c4 03F51063 		add	r3, r3, #2304
 1945 00c8 1A68     		ldr	r2, [r3]
 1946 00ca BB68     		ldr	r3, [r7, #8]
 1947 00cc 5901     		lsls	r1, r3, #5
 1948 00ce FB68     		ldr	r3, [r7, #12]
 1949 00d0 0B44     		add	r3, r3, r1
 1950 00d2 03F51063 		add	r3, r3, #2304
 1951 00d6 1946     		mov	r1, r3
 1952 00d8 354B     		ldr	r3, .L108
 1953 00da 1340     		ands	r3, r3, r2
 1954 00dc 0B60     		str	r3, [r1]
 1955 00de 60E0     		b	.L105
 1956              	.L103:
 719:Drivers/STM32F7xx_HAL_Driver/Src/stm32f7xx_ll_usb.c ****                                    USB_OTG_DIEPCTL_MPSIZ |
 720:Drivers/STM32F7xx_HAL_Driver/Src/stm32f7xx_ll_usb.c ****                                    USB_OTG_DIEPCTL_TXFNUM |
 721:Drivers/STM32F7xx_HAL_Driver/Src/stm32f7xx_ll_usb.c ****                                    USB_OTG_DIEPCTL_SD0PID_SEVNFRM |
 722:Drivers/STM32F7xx_HAL_Driver/Src/stm32f7xx_ll_usb.c ****                                    USB_OTG_DIEPCTL_EPTYP);
 723:Drivers/STM32F7xx_HAL_Driver/Src/stm32f7xx_ll_usb.c ****   }
 724:Drivers/STM32F7xx_HAL_Driver/Src/stm32f7xx_ll_usb.c ****   else
 725:Drivers/STM32F7xx_HAL_Driver/Src/stm32f7xx_ll_usb.c ****   {
 726:Drivers/STM32F7xx_HAL_Driver/Src/stm32f7xx_ll_usb.c ****     if ((USBx_OUTEP(epnum)->DOEPCTL & USB_OTG_DOEPCTL_EPENA) == USB_OTG_DOEPCTL_EPENA)
 1957              		.loc 1 726 10
 1958 00e0 BB68     		ldr	r3, [r7, #8]
 1959 00e2 5A01     		lsls	r2, r3, #5
 1960 00e4 FB68     		ldr	r3, [r7, #12]
 1961 00e6 1344     		add	r3, r3, r2
 1962 00e8 03F53063 		add	r3, r3, #2816
ARM GAS  C:\Users\jisu8\AppData\Local\Temp\cc8f41y5.s 			page 48


 1963              		.loc 1 726 27
 1964 00ec 1B68     		ldr	r3, [r3]
 1965              		.loc 1 726 37
 1966 00ee 03F00043 		and	r3, r3, #-2147483648
 1967              		.loc 1 726 8
 1968 00f2 B3F1004F 		cmp	r3, #-2147483648
 1969 00f6 1FD1     		bne	.L106
 727:Drivers/STM32F7xx_HAL_Driver/Src/stm32f7xx_ll_usb.c ****     {
 728:Drivers/STM32F7xx_HAL_Driver/Src/stm32f7xx_ll_usb.c ****       USBx_OUTEP(epnum)->DOEPCTL |= USB_OTG_DOEPCTL_SNAK;
 1970              		.loc 1 728 34
 1971 00f8 BB68     		ldr	r3, [r7, #8]
 1972 00fa 5A01     		lsls	r2, r3, #5
 1973 00fc FB68     		ldr	r3, [r7, #12]
 1974 00fe 1344     		add	r3, r3, r2
 1975 0100 03F53063 		add	r3, r3, #2816
 1976 0104 1B68     		ldr	r3, [r3]
 1977 0106 BA68     		ldr	r2, [r7, #8]
 1978 0108 5101     		lsls	r1, r2, #5
 1979 010a FA68     		ldr	r2, [r7, #12]
 1980 010c 0A44     		add	r2, r2, r1
 1981 010e 02F53062 		add	r2, r2, #2816
 1982 0112 43F00063 		orr	r3, r3, #134217728
 1983 0116 1360     		str	r3, [r2]
 729:Drivers/STM32F7xx_HAL_Driver/Src/stm32f7xx_ll_usb.c ****       USBx_OUTEP(epnum)->DOEPCTL |= USB_OTG_DOEPCTL_EPDIS;
 1984              		.loc 1 729 34
 1985 0118 BB68     		ldr	r3, [r7, #8]
 1986 011a 5A01     		lsls	r2, r3, #5
 1987 011c FB68     		ldr	r3, [r7, #12]
 1988 011e 1344     		add	r3, r3, r2
 1989 0120 03F53063 		add	r3, r3, #2816
 1990 0124 1B68     		ldr	r3, [r3]
 1991 0126 BA68     		ldr	r2, [r7, #8]
 1992 0128 5101     		lsls	r1, r2, #5
 1993 012a FA68     		ldr	r2, [r7, #12]
 1994 012c 0A44     		add	r2, r2, r1
 1995 012e 02F53062 		add	r2, r2, #2816
 1996 0132 43F08043 		orr	r3, r3, #1073741824
 1997 0136 1360     		str	r3, [r2]
 1998              	.L106:
 730:Drivers/STM32F7xx_HAL_Driver/Src/stm32f7xx_ll_usb.c ****     }
 731:Drivers/STM32F7xx_HAL_Driver/Src/stm32f7xx_ll_usb.c **** 
 732:Drivers/STM32F7xx_HAL_Driver/Src/stm32f7xx_ll_usb.c ****     USBx_DEVICE->DEACHMSK &= ~(USB_OTG_DAINTMSK_OEPM & ((uint32_t)(1UL << (ep->num & EP_ADDR_MSK)) 
 1999              		.loc 1 732 27
 2000 0138 FB68     		ldr	r3, [r7, #12]
 2001 013a 03F50063 		add	r3, r3, #2048
 2002 013e DA6B     		ldr	r2, [r3, #60]
 2003              		.loc 1 732 78
 2004 0140 3B68     		ldr	r3, [r7]
 2005 0142 1B78     		ldrb	r3, [r3]	@ zero_extendqisi2
 2006              		.loc 1 732 84
 2007 0144 03F00F03 		and	r3, r3, #15
 2008              		.loc 1 732 57
 2009 0148 0121     		movs	r1, #1
 2010 014a 01FA03F3 		lsl	r3, r1, r3
 2011              		.loc 1 732 54
 2012 014e 1B04     		lsls	r3, r3, #16
 2013              		.loc 1 732 30
ARM GAS  C:\Users\jisu8\AppData\Local\Temp\cc8f41y5.s 			page 49


 2014 0150 DB43     		mvns	r3, r3
 2015              		.loc 1 732 27
 2016 0152 F968     		ldr	r1, [r7, #12]
 2017 0154 01F50061 		add	r1, r1, #2048
 2018 0158 1340     		ands	r3, r3, r2
 2019 015a CB63     		str	r3, [r1, #60]
 733:Drivers/STM32F7xx_HAL_Driver/Src/stm32f7xx_ll_usb.c ****     USBx_DEVICE->DAINTMSK &= ~(USB_OTG_DAINTMSK_OEPM & ((uint32_t)(1UL << (ep->num & EP_ADDR_MSK)) 
 2020              		.loc 1 733 27
 2021 015c FB68     		ldr	r3, [r7, #12]
 2022 015e 03F50063 		add	r3, r3, #2048
 2023 0162 DA69     		ldr	r2, [r3, #28]
 2024              		.loc 1 733 78
 2025 0164 3B68     		ldr	r3, [r7]
 2026 0166 1B78     		ldrb	r3, [r3]	@ zero_extendqisi2
 2027              		.loc 1 733 84
 2028 0168 03F00F03 		and	r3, r3, #15
 2029              		.loc 1 733 57
 2030 016c 0121     		movs	r1, #1
 2031 016e 01FA03F3 		lsl	r3, r1, r3
 2032              		.loc 1 733 54
 2033 0172 1B04     		lsls	r3, r3, #16
 2034              		.loc 1 733 30
 2035 0174 DB43     		mvns	r3, r3
 2036              		.loc 1 733 27
 2037 0176 F968     		ldr	r1, [r7, #12]
 2038 0178 01F50061 		add	r1, r1, #2048
 2039 017c 1340     		ands	r3, r3, r2
 2040 017e CB61     		str	r3, [r1, #28]
 734:Drivers/STM32F7xx_HAL_Driver/Src/stm32f7xx_ll_usb.c ****     USBx_OUTEP(epnum)->DOEPCTL &= ~(USB_OTG_DOEPCTL_USBAEP |
 2041              		.loc 1 734 32
 2042 0180 BB68     		ldr	r3, [r7, #8]
 2043 0182 5A01     		lsls	r2, r3, #5
 2044 0184 FB68     		ldr	r3, [r7, #12]
 2045 0186 1344     		add	r3, r3, r2
 2046 0188 03F53063 		add	r3, r3, #2816
 2047 018c 1A68     		ldr	r2, [r3]
 2048 018e BB68     		ldr	r3, [r7, #8]
 2049 0190 5901     		lsls	r1, r3, #5
 2050 0192 FB68     		ldr	r3, [r7, #12]
 2051 0194 0B44     		add	r3, r3, r1
 2052 0196 03F53063 		add	r3, r3, #2816
 2053 019a 1946     		mov	r1, r3
 2054 019c 054B     		ldr	r3, .L108+4
 2055 019e 1340     		ands	r3, r3, r2
 2056 01a0 0B60     		str	r3, [r1]
 2057              	.L105:
 735:Drivers/STM32F7xx_HAL_Driver/Src/stm32f7xx_ll_usb.c ****                                     USB_OTG_DOEPCTL_MPSIZ |
 736:Drivers/STM32F7xx_HAL_Driver/Src/stm32f7xx_ll_usb.c ****                                     USB_OTG_DOEPCTL_SD0PID_SEVNFRM |
 737:Drivers/STM32F7xx_HAL_Driver/Src/stm32f7xx_ll_usb.c ****                                     USB_OTG_DOEPCTL_EPTYP);
 738:Drivers/STM32F7xx_HAL_Driver/Src/stm32f7xx_ll_usb.c ****   }
 739:Drivers/STM32F7xx_HAL_Driver/Src/stm32f7xx_ll_usb.c **** 
 740:Drivers/STM32F7xx_HAL_Driver/Src/stm32f7xx_ll_usb.c ****   return HAL_OK;
 2058              		.loc 1 740 10
 2059 01a2 0023     		movs	r3, #0
 741:Drivers/STM32F7xx_HAL_Driver/Src/stm32f7xx_ll_usb.c **** }
 2060              		.loc 1 741 1
 2061 01a4 1846     		mov	r0, r3
ARM GAS  C:\Users\jisu8\AppData\Local\Temp\cc8f41y5.s 			page 50


 2062 01a6 1437     		adds	r7, r7, #20
 2063              	.LCFI78:
 2064              		.cfi_def_cfa_offset 4
 2065 01a8 BD46     		mov	sp, r7
 2066              	.LCFI79:
 2067              		.cfi_def_cfa_register 13
 2068              		@ sp needed
 2069 01aa 5DF8047B 		ldr	r7, [sp], #4
 2070              	.LCFI80:
 2071              		.cfi_restore 7
 2072              		.cfi_def_cfa_offset 0
 2073 01ae 7047     		bx	lr
 2074              	.L109:
 2075              		.align	2
 2076              	.L108:
 2077 01b0 007833EC 		.word	-332171264
 2078 01b4 0078F3EF 		.word	-269256704
 2079              		.cfi_endproc
 2080              	.LFE153:
 2082              		.section	.text.USB_DeactivateDedicatedEndpoint,"ax",%progbits
 2083              		.align	1
 2084              		.global	USB_DeactivateDedicatedEndpoint
 2085              		.syntax unified
 2086              		.thumb
 2087              		.thumb_func
 2089              	USB_DeactivateDedicatedEndpoint:
 2090              	.LFB154:
 742:Drivers/STM32F7xx_HAL_Driver/Src/stm32f7xx_ll_usb.c **** 
 743:Drivers/STM32F7xx_HAL_Driver/Src/stm32f7xx_ll_usb.c **** /**
 744:Drivers/STM32F7xx_HAL_Driver/Src/stm32f7xx_ll_usb.c ****   * @brief  De-activate and de-initialize a dedicated endpoint
 745:Drivers/STM32F7xx_HAL_Driver/Src/stm32f7xx_ll_usb.c ****   * @param  USBx  Selected device
 746:Drivers/STM32F7xx_HAL_Driver/Src/stm32f7xx_ll_usb.c ****   * @param  ep pointer to endpoint structure
 747:Drivers/STM32F7xx_HAL_Driver/Src/stm32f7xx_ll_usb.c ****   * @retval HAL status
 748:Drivers/STM32F7xx_HAL_Driver/Src/stm32f7xx_ll_usb.c ****   */
 749:Drivers/STM32F7xx_HAL_Driver/Src/stm32f7xx_ll_usb.c **** HAL_StatusTypeDef USB_DeactivateDedicatedEndpoint(USB_OTG_GlobalTypeDef *USBx, USB_OTG_EPTypeDef *e
 750:Drivers/STM32F7xx_HAL_Driver/Src/stm32f7xx_ll_usb.c **** {
 2091              		.loc 1 750 1
 2092              		.cfi_startproc
 2093              		@ args = 0, pretend = 0, frame = 16
 2094              		@ frame_needed = 1, uses_anonymous_args = 0
 2095              		@ link register save eliminated.
 2096 0000 80B4     		push	{r7}
 2097              	.LCFI81:
 2098              		.cfi_def_cfa_offset 4
 2099              		.cfi_offset 7, -4
 2100 0002 85B0     		sub	sp, sp, #20
 2101              	.LCFI82:
 2102              		.cfi_def_cfa_offset 24
 2103 0004 00AF     		add	r7, sp, #0
 2104              	.LCFI83:
 2105              		.cfi_def_cfa_register 7
 2106 0006 7860     		str	r0, [r7, #4]
 2107 0008 3960     		str	r1, [r7]
 751:Drivers/STM32F7xx_HAL_Driver/Src/stm32f7xx_ll_usb.c ****   uint32_t USBx_BASE = (uint32_t)USBx;
 2108              		.loc 1 751 12
 2109 000a 7B68     		ldr	r3, [r7, #4]
 2110 000c FB60     		str	r3, [r7, #12]
ARM GAS  C:\Users\jisu8\AppData\Local\Temp\cc8f41y5.s 			page 51


 752:Drivers/STM32F7xx_HAL_Driver/Src/stm32f7xx_ll_usb.c ****   uint32_t epnum = (uint32_t)ep->num;
 2111              		.loc 1 752 32
 2112 000e 3B68     		ldr	r3, [r7]
 2113 0010 1B78     		ldrb	r3, [r3]	@ zero_extendqisi2
 2114              		.loc 1 752 12
 2115 0012 BB60     		str	r3, [r7, #8]
 753:Drivers/STM32F7xx_HAL_Driver/Src/stm32f7xx_ll_usb.c **** 
 754:Drivers/STM32F7xx_HAL_Driver/Src/stm32f7xx_ll_usb.c ****   /* Read DEPCTLn register */
 755:Drivers/STM32F7xx_HAL_Driver/Src/stm32f7xx_ll_usb.c ****   if (ep->is_in == 1U)
 2116              		.loc 1 755 9
 2117 0014 3B68     		ldr	r3, [r7]
 2118 0016 5B78     		ldrb	r3, [r3, #1]	@ zero_extendqisi2
 2119              		.loc 1 755 6
 2120 0018 012B     		cmp	r3, #1
 2121 001a 4ED1     		bne	.L111
 756:Drivers/STM32F7xx_HAL_Driver/Src/stm32f7xx_ll_usb.c ****   {
 757:Drivers/STM32F7xx_HAL_Driver/Src/stm32f7xx_ll_usb.c ****     if ((USBx_INEP(epnum)->DIEPCTL & USB_OTG_DIEPCTL_EPENA) == USB_OTG_DIEPCTL_EPENA)
 2122              		.loc 1 757 10
 2123 001c BB68     		ldr	r3, [r7, #8]
 2124 001e 5A01     		lsls	r2, r3, #5
 2125 0020 FB68     		ldr	r3, [r7, #12]
 2126 0022 1344     		add	r3, r3, r2
 2127 0024 03F51063 		add	r3, r3, #2304
 2128              		.loc 1 757 26
 2129 0028 1B68     		ldr	r3, [r3]
 2130              		.loc 1 757 36
 2131 002a 03F00043 		and	r3, r3, #-2147483648
 2132              		.loc 1 757 8
 2133 002e B3F1004F 		cmp	r3, #-2147483648
 2134 0032 1FD1     		bne	.L112
 758:Drivers/STM32F7xx_HAL_Driver/Src/stm32f7xx_ll_usb.c ****     {
 759:Drivers/STM32F7xx_HAL_Driver/Src/stm32f7xx_ll_usb.c ****       USBx_INEP(epnum)->DIEPCTL  |= USB_OTG_DIEPCTL_SNAK;
 2135              		.loc 1 759 34
 2136 0034 BB68     		ldr	r3, [r7, #8]
 2137 0036 5A01     		lsls	r2, r3, #5
 2138 0038 FB68     		ldr	r3, [r7, #12]
 2139 003a 1344     		add	r3, r3, r2
 2140 003c 03F51063 		add	r3, r3, #2304
 2141 0040 1B68     		ldr	r3, [r3]
 2142 0042 BA68     		ldr	r2, [r7, #8]
 2143 0044 5101     		lsls	r1, r2, #5
 2144 0046 FA68     		ldr	r2, [r7, #12]
 2145 0048 0A44     		add	r2, r2, r1
 2146 004a 02F51062 		add	r2, r2, #2304
 2147 004e 43F00063 		orr	r3, r3, #134217728
 2148 0052 1360     		str	r3, [r2]
 760:Drivers/STM32F7xx_HAL_Driver/Src/stm32f7xx_ll_usb.c ****       USBx_INEP(epnum)->DIEPCTL  |= USB_OTG_DIEPCTL_EPDIS;
 2149              		.loc 1 760 34
 2150 0054 BB68     		ldr	r3, [r7, #8]
 2151 0056 5A01     		lsls	r2, r3, #5
 2152 0058 FB68     		ldr	r3, [r7, #12]
 2153 005a 1344     		add	r3, r3, r2
 2154 005c 03F51063 		add	r3, r3, #2304
 2155 0060 1B68     		ldr	r3, [r3]
 2156 0062 BA68     		ldr	r2, [r7, #8]
 2157 0064 5101     		lsls	r1, r2, #5
 2158 0066 FA68     		ldr	r2, [r7, #12]
ARM GAS  C:\Users\jisu8\AppData\Local\Temp\cc8f41y5.s 			page 52


 2159 0068 0A44     		add	r2, r2, r1
 2160 006a 02F51062 		add	r2, r2, #2304
 2161 006e 43F08043 		orr	r3, r3, #1073741824
 2162 0072 1360     		str	r3, [r2]
 2163              	.L112:
 761:Drivers/STM32F7xx_HAL_Driver/Src/stm32f7xx_ll_usb.c ****     }
 762:Drivers/STM32F7xx_HAL_Driver/Src/stm32f7xx_ll_usb.c **** 
 763:Drivers/STM32F7xx_HAL_Driver/Src/stm32f7xx_ll_usb.c ****     USBx_INEP(epnum)->DIEPCTL &= ~ USB_OTG_DIEPCTL_USBAEP;
 2164              		.loc 1 763 31
 2165 0074 BB68     		ldr	r3, [r7, #8]
 2166 0076 5A01     		lsls	r2, r3, #5
 2167 0078 FB68     		ldr	r3, [r7, #12]
 2168 007a 1344     		add	r3, r3, r2
 2169 007c 03F51063 		add	r3, r3, #2304
 2170 0080 1B68     		ldr	r3, [r3]
 2171 0082 BA68     		ldr	r2, [r7, #8]
 2172 0084 5101     		lsls	r1, r2, #5
 2173 0086 FA68     		ldr	r2, [r7, #12]
 2174 0088 0A44     		add	r2, r2, r1
 2175 008a 02F51062 		add	r2, r2, #2304
 2176 008e 23F40043 		bic	r3, r3, #32768
 2177 0092 1360     		str	r3, [r2]
 764:Drivers/STM32F7xx_HAL_Driver/Src/stm32f7xx_ll_usb.c ****     USBx_DEVICE->DAINTMSK &= ~(USB_OTG_DAINTMSK_IEPM & (uint32_t)(1UL << (ep->num & EP_ADDR_MSK)));
 2178              		.loc 1 764 27
 2179 0094 FB68     		ldr	r3, [r7, #12]
 2180 0096 03F50063 		add	r3, r3, #2048
 2181 009a DA69     		ldr	r2, [r3, #28]
 2182              		.loc 1 764 77
 2183 009c 3B68     		ldr	r3, [r7]
 2184 009e 1B78     		ldrb	r3, [r3]	@ zero_extendqisi2
 2185              		.loc 1 764 83
 2186 00a0 03F00F03 		and	r3, r3, #15
 2187              		.loc 1 764 56
 2188 00a4 0121     		movs	r1, #1
 2189 00a6 01FA03F3 		lsl	r3, r1, r3
 2190              		.loc 1 764 54
 2191 00aa 9BB2     		uxth	r3, r3
 2192              		.loc 1 764 30
 2193 00ac DB43     		mvns	r3, r3
 2194              		.loc 1 764 27
 2195 00ae F968     		ldr	r1, [r7, #12]
 2196 00b0 01F50061 		add	r1, r1, #2048
 2197 00b4 1340     		ands	r3, r3, r2
 2198 00b6 CB61     		str	r3, [r1, #28]
 2199 00b8 4DE0     		b	.L113
 2200              	.L111:
 765:Drivers/STM32F7xx_HAL_Driver/Src/stm32f7xx_ll_usb.c ****   }
 766:Drivers/STM32F7xx_HAL_Driver/Src/stm32f7xx_ll_usb.c ****   else
 767:Drivers/STM32F7xx_HAL_Driver/Src/stm32f7xx_ll_usb.c ****   {
 768:Drivers/STM32F7xx_HAL_Driver/Src/stm32f7xx_ll_usb.c ****     if ((USBx_OUTEP(epnum)->DOEPCTL & USB_OTG_DOEPCTL_EPENA) == USB_OTG_DOEPCTL_EPENA)
 2201              		.loc 1 768 10
 2202 00ba BB68     		ldr	r3, [r7, #8]
 2203 00bc 5A01     		lsls	r2, r3, #5
 2204 00be FB68     		ldr	r3, [r7, #12]
 2205 00c0 1344     		add	r3, r3, r2
 2206 00c2 03F53063 		add	r3, r3, #2816
 2207              		.loc 1 768 27
ARM GAS  C:\Users\jisu8\AppData\Local\Temp\cc8f41y5.s 			page 53


 2208 00c6 1B68     		ldr	r3, [r3]
 2209              		.loc 1 768 37
 2210 00c8 03F00043 		and	r3, r3, #-2147483648
 2211              		.loc 1 768 8
 2212 00cc B3F1004F 		cmp	r3, #-2147483648
 2213 00d0 1FD1     		bne	.L114
 769:Drivers/STM32F7xx_HAL_Driver/Src/stm32f7xx_ll_usb.c ****     {
 770:Drivers/STM32F7xx_HAL_Driver/Src/stm32f7xx_ll_usb.c ****       USBx_OUTEP(epnum)->DOEPCTL  |= USB_OTG_DOEPCTL_SNAK;
 2214              		.loc 1 770 35
 2215 00d2 BB68     		ldr	r3, [r7, #8]
 2216 00d4 5A01     		lsls	r2, r3, #5
 2217 00d6 FB68     		ldr	r3, [r7, #12]
 2218 00d8 1344     		add	r3, r3, r2
 2219 00da 03F53063 		add	r3, r3, #2816
 2220 00de 1B68     		ldr	r3, [r3]
 2221 00e0 BA68     		ldr	r2, [r7, #8]
 2222 00e2 5101     		lsls	r1, r2, #5
 2223 00e4 FA68     		ldr	r2, [r7, #12]
 2224 00e6 0A44     		add	r2, r2, r1
 2225 00e8 02F53062 		add	r2, r2, #2816
 2226 00ec 43F00063 		orr	r3, r3, #134217728
 2227 00f0 1360     		str	r3, [r2]
 771:Drivers/STM32F7xx_HAL_Driver/Src/stm32f7xx_ll_usb.c ****       USBx_OUTEP(epnum)->DOEPCTL  |= USB_OTG_DOEPCTL_EPDIS;
 2228              		.loc 1 771 35
 2229 00f2 BB68     		ldr	r3, [r7, #8]
 2230 00f4 5A01     		lsls	r2, r3, #5
 2231 00f6 FB68     		ldr	r3, [r7, #12]
 2232 00f8 1344     		add	r3, r3, r2
 2233 00fa 03F53063 		add	r3, r3, #2816
 2234 00fe 1B68     		ldr	r3, [r3]
 2235 0100 BA68     		ldr	r2, [r7, #8]
 2236 0102 5101     		lsls	r1, r2, #5
 2237 0104 FA68     		ldr	r2, [r7, #12]
 2238 0106 0A44     		add	r2, r2, r1
 2239 0108 02F53062 		add	r2, r2, #2816
 2240 010c 43F08043 		orr	r3, r3, #1073741824
 2241 0110 1360     		str	r3, [r2]
 2242              	.L114:
 772:Drivers/STM32F7xx_HAL_Driver/Src/stm32f7xx_ll_usb.c ****     }
 773:Drivers/STM32F7xx_HAL_Driver/Src/stm32f7xx_ll_usb.c **** 
 774:Drivers/STM32F7xx_HAL_Driver/Src/stm32f7xx_ll_usb.c ****     USBx_OUTEP(epnum)->DOEPCTL &= ~USB_OTG_DOEPCTL_USBAEP;
 2243              		.loc 1 774 32
 2244 0112 BB68     		ldr	r3, [r7, #8]
 2245 0114 5A01     		lsls	r2, r3, #5
 2246 0116 FB68     		ldr	r3, [r7, #12]
 2247 0118 1344     		add	r3, r3, r2
 2248 011a 03F53063 		add	r3, r3, #2816
 2249 011e 1B68     		ldr	r3, [r3]
 2250 0120 BA68     		ldr	r2, [r7, #8]
 2251 0122 5101     		lsls	r1, r2, #5
 2252 0124 FA68     		ldr	r2, [r7, #12]
 2253 0126 0A44     		add	r2, r2, r1
 2254 0128 02F53062 		add	r2, r2, #2816
 2255 012c 23F40043 		bic	r3, r3, #32768
 2256 0130 1360     		str	r3, [r2]
 775:Drivers/STM32F7xx_HAL_Driver/Src/stm32f7xx_ll_usb.c ****     USBx_DEVICE->DAINTMSK &= ~(USB_OTG_DAINTMSK_OEPM & ((uint32_t)(1UL << (ep->num & EP_ADDR_MSK)) 
 2257              		.loc 1 775 27
ARM GAS  C:\Users\jisu8\AppData\Local\Temp\cc8f41y5.s 			page 54


 2258 0132 FB68     		ldr	r3, [r7, #12]
 2259 0134 03F50063 		add	r3, r3, #2048
 2260 0138 DA69     		ldr	r2, [r3, #28]
 2261              		.loc 1 775 78
 2262 013a 3B68     		ldr	r3, [r7]
 2263 013c 1B78     		ldrb	r3, [r3]	@ zero_extendqisi2
 2264              		.loc 1 775 84
 2265 013e 03F00F03 		and	r3, r3, #15
 2266              		.loc 1 775 57
 2267 0142 0121     		movs	r1, #1
 2268 0144 01FA03F3 		lsl	r3, r1, r3
 2269              		.loc 1 775 54
 2270 0148 1B04     		lsls	r3, r3, #16
 2271              		.loc 1 775 30
 2272 014a DB43     		mvns	r3, r3
 2273              		.loc 1 775 27
 2274 014c F968     		ldr	r1, [r7, #12]
 2275 014e 01F50061 		add	r1, r1, #2048
 2276 0152 1340     		ands	r3, r3, r2
 2277 0154 CB61     		str	r3, [r1, #28]
 2278              	.L113:
 776:Drivers/STM32F7xx_HAL_Driver/Src/stm32f7xx_ll_usb.c ****   }
 777:Drivers/STM32F7xx_HAL_Driver/Src/stm32f7xx_ll_usb.c **** 
 778:Drivers/STM32F7xx_HAL_Driver/Src/stm32f7xx_ll_usb.c ****   return HAL_OK;
 2279              		.loc 1 778 10
 2280 0156 0023     		movs	r3, #0
 779:Drivers/STM32F7xx_HAL_Driver/Src/stm32f7xx_ll_usb.c **** }
 2281              		.loc 1 779 1
 2282 0158 1846     		mov	r0, r3
 2283 015a 1437     		adds	r7, r7, #20
 2284              	.LCFI84:
 2285              		.cfi_def_cfa_offset 4
 2286 015c BD46     		mov	sp, r7
 2287              	.LCFI85:
 2288              		.cfi_def_cfa_register 13
 2289              		@ sp needed
 2290 015e 5DF8047B 		ldr	r7, [sp], #4
 2291              	.LCFI86:
 2292              		.cfi_restore 7
 2293              		.cfi_def_cfa_offset 0
 2294 0162 7047     		bx	lr
 2295              		.cfi_endproc
 2296              	.LFE154:
 2298              		.section	.text.USB_EPStartXfer,"ax",%progbits
 2299              		.align	1
 2300              		.global	USB_EPStartXfer
 2301              		.syntax unified
 2302              		.thumb
 2303              		.thumb_func
 2305              	USB_EPStartXfer:
 2306              	.LFB155:
 780:Drivers/STM32F7xx_HAL_Driver/Src/stm32f7xx_ll_usb.c **** 
 781:Drivers/STM32F7xx_HAL_Driver/Src/stm32f7xx_ll_usb.c **** /**
 782:Drivers/STM32F7xx_HAL_Driver/Src/stm32f7xx_ll_usb.c ****   * @brief  USB_EPStartXfer : setup and starts a transfer over an EP
 783:Drivers/STM32F7xx_HAL_Driver/Src/stm32f7xx_ll_usb.c ****   * @param  USBx  Selected device
 784:Drivers/STM32F7xx_HAL_Driver/Src/stm32f7xx_ll_usb.c ****   * @param  ep pointer to endpoint structure
 785:Drivers/STM32F7xx_HAL_Driver/Src/stm32f7xx_ll_usb.c ****   * @param  dma USB dma enabled or disabled
ARM GAS  C:\Users\jisu8\AppData\Local\Temp\cc8f41y5.s 			page 55


 786:Drivers/STM32F7xx_HAL_Driver/Src/stm32f7xx_ll_usb.c ****   *          This parameter can be one of these values:
 787:Drivers/STM32F7xx_HAL_Driver/Src/stm32f7xx_ll_usb.c ****   *           0 : DMA feature not used
 788:Drivers/STM32F7xx_HAL_Driver/Src/stm32f7xx_ll_usb.c ****   *           1 : DMA feature used
 789:Drivers/STM32F7xx_HAL_Driver/Src/stm32f7xx_ll_usb.c ****   * @retval HAL status
 790:Drivers/STM32F7xx_HAL_Driver/Src/stm32f7xx_ll_usb.c ****   */
 791:Drivers/STM32F7xx_HAL_Driver/Src/stm32f7xx_ll_usb.c **** HAL_StatusTypeDef USB_EPStartXfer(USB_OTG_GlobalTypeDef *USBx, USB_OTG_EPTypeDef *ep, uint8_t dma)
 792:Drivers/STM32F7xx_HAL_Driver/Src/stm32f7xx_ll_usb.c **** {
 2307              		.loc 1 792 1
 2308              		.cfi_startproc
 2309              		@ args = 0, pretend = 0, frame = 32
 2310              		@ frame_needed = 1, uses_anonymous_args = 0
 2311 0000 80B5     		push	{r7, lr}
 2312              	.LCFI87:
 2313              		.cfi_def_cfa_offset 8
 2314              		.cfi_offset 7, -8
 2315              		.cfi_offset 14, -4
 2316 0002 8AB0     		sub	sp, sp, #40
 2317              	.LCFI88:
 2318              		.cfi_def_cfa_offset 48
 2319 0004 02AF     		add	r7, sp, #8
 2320              	.LCFI89:
 2321              		.cfi_def_cfa 7, 40
 2322 0006 F860     		str	r0, [r7, #12]
 2323 0008 B960     		str	r1, [r7, #8]
 2324 000a 1346     		mov	r3, r2
 2325 000c FB71     		strb	r3, [r7, #7]
 793:Drivers/STM32F7xx_HAL_Driver/Src/stm32f7xx_ll_usb.c ****   uint32_t USBx_BASE = (uint32_t)USBx;
 2326              		.loc 1 793 12
 2327 000e FB68     		ldr	r3, [r7, #12]
 2328 0010 FB61     		str	r3, [r7, #28]
 794:Drivers/STM32F7xx_HAL_Driver/Src/stm32f7xx_ll_usb.c ****   uint32_t epnum = (uint32_t)ep->num;
 2329              		.loc 1 794 32
 2330 0012 BB68     		ldr	r3, [r7, #8]
 2331 0014 1B78     		ldrb	r3, [r3]	@ zero_extendqisi2
 2332              		.loc 1 794 12
 2333 0016 BB61     		str	r3, [r7, #24]
 795:Drivers/STM32F7xx_HAL_Driver/Src/stm32f7xx_ll_usb.c ****   uint16_t pktcnt;
 796:Drivers/STM32F7xx_HAL_Driver/Src/stm32f7xx_ll_usb.c **** 
 797:Drivers/STM32F7xx_HAL_Driver/Src/stm32f7xx_ll_usb.c ****   /* IN endpoint */
 798:Drivers/STM32F7xx_HAL_Driver/Src/stm32f7xx_ll_usb.c ****   if (ep->is_in == 1U)
 2334              		.loc 1 798 9
 2335 0018 BB68     		ldr	r3, [r7, #8]
 2336 001a 5B78     		ldrb	r3, [r3, #1]	@ zero_extendqisi2
 2337              		.loc 1 798 6
 2338 001c 012B     		cmp	r3, #1
 2339 001e 40F06381 		bne	.L117
 799:Drivers/STM32F7xx_HAL_Driver/Src/stm32f7xx_ll_usb.c ****   {
 800:Drivers/STM32F7xx_HAL_Driver/Src/stm32f7xx_ll_usb.c ****     /* Zero Length Packet? */
 801:Drivers/STM32F7xx_HAL_Driver/Src/stm32f7xx_ll_usb.c ****     if (ep->xfer_len == 0U)
 2340              		.loc 1 801 11
 2341 0022 BB68     		ldr	r3, [r7, #8]
 2342 0024 9B69     		ldr	r3, [r3, #24]
 2343              		.loc 1 801 8
 2344 0026 002B     		cmp	r3, #0
 2345 0028 32D1     		bne	.L118
 802:Drivers/STM32F7xx_HAL_Driver/Src/stm32f7xx_ll_usb.c ****     {
 803:Drivers/STM32F7xx_HAL_Driver/Src/stm32f7xx_ll_usb.c ****       USBx_INEP(epnum)->DIEPTSIZ &= ~(USB_OTG_DIEPTSIZ_PKTCNT);
ARM GAS  C:\Users\jisu8\AppData\Local\Temp\cc8f41y5.s 			page 56


 2346              		.loc 1 803 34
 2347 002a BB69     		ldr	r3, [r7, #24]
 2348 002c 5A01     		lsls	r2, r3, #5
 2349 002e FB69     		ldr	r3, [r7, #28]
 2350 0030 1344     		add	r3, r3, r2
 2351 0032 03F51063 		add	r3, r3, #2304
 2352 0036 1A69     		ldr	r2, [r3, #16]
 2353 0038 BB69     		ldr	r3, [r7, #24]
 2354 003a 5901     		lsls	r1, r3, #5
 2355 003c FB69     		ldr	r3, [r7, #28]
 2356 003e 0B44     		add	r3, r3, r1
 2357 0040 03F51063 		add	r3, r3, #2304
 2358 0044 1946     		mov	r1, r3
 2359 0046 A54B     		ldr	r3, .L134
 2360 0048 1340     		ands	r3, r3, r2
 2361 004a 0B61     		str	r3, [r1, #16]
 804:Drivers/STM32F7xx_HAL_Driver/Src/stm32f7xx_ll_usb.c ****       USBx_INEP(epnum)->DIEPTSIZ |= (USB_OTG_DIEPTSIZ_PKTCNT & (1U << 19));
 2362              		.loc 1 804 34
 2363 004c BB69     		ldr	r3, [r7, #24]
 2364 004e 5A01     		lsls	r2, r3, #5
 2365 0050 FB69     		ldr	r3, [r7, #28]
 2366 0052 1344     		add	r3, r3, r2
 2367 0054 03F51063 		add	r3, r3, #2304
 2368 0058 1B69     		ldr	r3, [r3, #16]
 2369 005a BA69     		ldr	r2, [r7, #24]
 2370 005c 5101     		lsls	r1, r2, #5
 2371 005e FA69     		ldr	r2, [r7, #28]
 2372 0060 0A44     		add	r2, r2, r1
 2373 0062 02F51062 		add	r2, r2, #2304
 2374 0066 43F40023 		orr	r3, r3, #524288
 2375 006a 1361     		str	r3, [r2, #16]
 805:Drivers/STM32F7xx_HAL_Driver/Src/stm32f7xx_ll_usb.c ****       USBx_INEP(epnum)->DIEPTSIZ &= ~(USB_OTG_DIEPTSIZ_XFRSIZ);
 2376              		.loc 1 805 34
 2377 006c BB69     		ldr	r3, [r7, #24]
 2378 006e 5A01     		lsls	r2, r3, #5
 2379 0070 FB69     		ldr	r3, [r7, #28]
 2380 0072 1344     		add	r3, r3, r2
 2381 0074 03F51063 		add	r3, r3, #2304
 2382 0078 1A69     		ldr	r2, [r3, #16]
 2383 007a BB69     		ldr	r3, [r7, #24]
 2384 007c 5901     		lsls	r1, r3, #5
 2385 007e FB69     		ldr	r3, [r7, #28]
 2386 0080 0B44     		add	r3, r3, r1
 2387 0082 03F51063 		add	r3, r3, #2304
 2388 0086 1946     		mov	r1, r3
 2389 0088 954B     		ldr	r3, .L134+4
 2390 008a 1340     		ands	r3, r3, r2
 2391 008c 0B61     		str	r3, [r1, #16]
 2392 008e 74E0     		b	.L119
 2393              	.L118:
 806:Drivers/STM32F7xx_HAL_Driver/Src/stm32f7xx_ll_usb.c ****     }
 807:Drivers/STM32F7xx_HAL_Driver/Src/stm32f7xx_ll_usb.c ****     else
 808:Drivers/STM32F7xx_HAL_Driver/Src/stm32f7xx_ll_usb.c ****     {
 809:Drivers/STM32F7xx_HAL_Driver/Src/stm32f7xx_ll_usb.c ****       /* Program the transfer size and packet count
 810:Drivers/STM32F7xx_HAL_Driver/Src/stm32f7xx_ll_usb.c ****       * as follows: xfersize = N * maxpacket +
 811:Drivers/STM32F7xx_HAL_Driver/Src/stm32f7xx_ll_usb.c ****       * short_packet pktcnt = N + (short_packet
 812:Drivers/STM32F7xx_HAL_Driver/Src/stm32f7xx_ll_usb.c ****       * exist ? 1 : 0)
ARM GAS  C:\Users\jisu8\AppData\Local\Temp\cc8f41y5.s 			page 57


 813:Drivers/STM32F7xx_HAL_Driver/Src/stm32f7xx_ll_usb.c ****       */
 814:Drivers/STM32F7xx_HAL_Driver/Src/stm32f7xx_ll_usb.c ****       USBx_INEP(epnum)->DIEPTSIZ &= ~(USB_OTG_DIEPTSIZ_XFRSIZ);
 2394              		.loc 1 814 34
 2395 0090 BB69     		ldr	r3, [r7, #24]
 2396 0092 5A01     		lsls	r2, r3, #5
 2397 0094 FB69     		ldr	r3, [r7, #28]
 2398 0096 1344     		add	r3, r3, r2
 2399 0098 03F51063 		add	r3, r3, #2304
 2400 009c 1A69     		ldr	r2, [r3, #16]
 2401 009e BB69     		ldr	r3, [r7, #24]
 2402 00a0 5901     		lsls	r1, r3, #5
 2403 00a2 FB69     		ldr	r3, [r7, #28]
 2404 00a4 0B44     		add	r3, r3, r1
 2405 00a6 03F51063 		add	r3, r3, #2304
 2406 00aa 1946     		mov	r1, r3
 2407 00ac 8C4B     		ldr	r3, .L134+4
 2408 00ae 1340     		ands	r3, r3, r2
 2409 00b0 0B61     		str	r3, [r1, #16]
 815:Drivers/STM32F7xx_HAL_Driver/Src/stm32f7xx_ll_usb.c ****       USBx_INEP(epnum)->DIEPTSIZ &= ~(USB_OTG_DIEPTSIZ_PKTCNT);
 2410              		.loc 1 815 34
 2411 00b2 BB69     		ldr	r3, [r7, #24]
 2412 00b4 5A01     		lsls	r2, r3, #5
 2413 00b6 FB69     		ldr	r3, [r7, #28]
 2414 00b8 1344     		add	r3, r3, r2
 2415 00ba 03F51063 		add	r3, r3, #2304
 2416 00be 1A69     		ldr	r2, [r3, #16]
 2417 00c0 BB69     		ldr	r3, [r7, #24]
 2418 00c2 5901     		lsls	r1, r3, #5
 2419 00c4 FB69     		ldr	r3, [r7, #28]
 2420 00c6 0B44     		add	r3, r3, r1
 2421 00c8 03F51063 		add	r3, r3, #2304
 2422 00cc 1946     		mov	r1, r3
 2423 00ce 834B     		ldr	r3, .L134
 2424 00d0 1340     		ands	r3, r3, r2
 2425 00d2 0B61     		str	r3, [r1, #16]
 816:Drivers/STM32F7xx_HAL_Driver/Src/stm32f7xx_ll_usb.c ****       USBx_INEP(epnum)->DIEPTSIZ |= (USB_OTG_DIEPTSIZ_PKTCNT &
 2426              		.loc 1 816 34
 2427 00d4 BB69     		ldr	r3, [r7, #24]
 2428 00d6 5A01     		lsls	r2, r3, #5
 2429 00d8 FB69     		ldr	r3, [r7, #28]
 2430 00da 1344     		add	r3, r3, r2
 2431 00dc 03F51063 		add	r3, r3, #2304
 2432 00e0 1A69     		ldr	r2, [r3, #16]
 817:Drivers/STM32F7xx_HAL_Driver/Src/stm32f7xx_ll_usb.c ****                                      (((ep->xfer_len + ep->maxpacket - 1U) / ep->maxpacket) << 19))
 2433              		.loc 1 817 43
 2434 00e2 BB68     		ldr	r3, [r7, #8]
 2435 00e4 9969     		ldr	r1, [r3, #24]
 2436              		.loc 1 817 58
 2437 00e6 BB68     		ldr	r3, [r7, #8]
 2438 00e8 DB68     		ldr	r3, [r3, #12]
 2439              		.loc 1 817 54
 2440 00ea 0B44     		add	r3, r3, r1
 2441              		.loc 1 817 70
 2442 00ec 591E     		subs	r1, r3, #1
 2443              		.loc 1 817 80
 2444 00ee BB68     		ldr	r3, [r7, #8]
 2445 00f0 DB68     		ldr	r3, [r3, #12]
ARM GAS  C:\Users\jisu8\AppData\Local\Temp\cc8f41y5.s 			page 58


 2446              		.loc 1 817 76
 2447 00f2 B1FBF3F3 		udiv	r3, r1, r3
 2448              		.loc 1 817 93
 2449 00f6 D904     		lsls	r1, r3, #19
 816:Drivers/STM32F7xx_HAL_Driver/Src/stm32f7xx_ll_usb.c ****       USBx_INEP(epnum)->DIEPTSIZ |= (USB_OTG_DIEPTSIZ_PKTCNT &
 2450              		.loc 1 816 62
 2451 00f8 7A4B     		ldr	r3, .L134+8
 2452 00fa 0B40     		ands	r3, r3, r1
 816:Drivers/STM32F7xx_HAL_Driver/Src/stm32f7xx_ll_usb.c ****       USBx_INEP(epnum)->DIEPTSIZ |= (USB_OTG_DIEPTSIZ_PKTCNT &
 2453              		.loc 1 816 34
 2454 00fc B969     		ldr	r1, [r7, #24]
 2455 00fe 4801     		lsls	r0, r1, #5
 2456 0100 F969     		ldr	r1, [r7, #28]
 2457 0102 0144     		add	r1, r1, r0
 2458 0104 01F51061 		add	r1, r1, #2304
 2459 0108 1343     		orrs	r3, r3, r2
 2460 010a 0B61     		str	r3, [r1, #16]
 818:Drivers/STM32F7xx_HAL_Driver/Src/stm32f7xx_ll_usb.c **** 
 819:Drivers/STM32F7xx_HAL_Driver/Src/stm32f7xx_ll_usb.c ****       USBx_INEP(epnum)->DIEPTSIZ |= (USB_OTG_DIEPTSIZ_XFRSIZ & ep->xfer_len);
 2461              		.loc 1 819 34
 2462 010c BB69     		ldr	r3, [r7, #24]
 2463 010e 5A01     		lsls	r2, r3, #5
 2464 0110 FB69     		ldr	r3, [r7, #28]
 2465 0112 1344     		add	r3, r3, r2
 2466 0114 03F51063 		add	r3, r3, #2304
 2467 0118 1A69     		ldr	r2, [r3, #16]
 2468              		.loc 1 819 66
 2469 011a BB68     		ldr	r3, [r7, #8]
 2470 011c 9B69     		ldr	r3, [r3, #24]
 2471              		.loc 1 819 62
 2472 011e C3F31203 		ubfx	r3, r3, #0, #19
 2473              		.loc 1 819 34
 2474 0122 B969     		ldr	r1, [r7, #24]
 2475 0124 4801     		lsls	r0, r1, #5
 2476 0126 F969     		ldr	r1, [r7, #28]
 2477 0128 0144     		add	r1, r1, r0
 2478 012a 01F51061 		add	r1, r1, #2304
 2479 012e 1343     		orrs	r3, r3, r2
 2480 0130 0B61     		str	r3, [r1, #16]
 820:Drivers/STM32F7xx_HAL_Driver/Src/stm32f7xx_ll_usb.c **** 
 821:Drivers/STM32F7xx_HAL_Driver/Src/stm32f7xx_ll_usb.c ****       if (ep->type == EP_TYPE_ISOC)
 2481              		.loc 1 821 13
 2482 0132 BB68     		ldr	r3, [r7, #8]
 2483 0134 1B79     		ldrb	r3, [r3, #4]	@ zero_extendqisi2
 2484              		.loc 1 821 10
 2485 0136 012B     		cmp	r3, #1
 2486 0138 1FD1     		bne	.L119
 822:Drivers/STM32F7xx_HAL_Driver/Src/stm32f7xx_ll_usb.c ****       {
 823:Drivers/STM32F7xx_HAL_Driver/Src/stm32f7xx_ll_usb.c ****         USBx_INEP(epnum)->DIEPTSIZ &= ~(USB_OTG_DIEPTSIZ_MULCNT);
 2487              		.loc 1 823 36
 2488 013a BB69     		ldr	r3, [r7, #24]
 2489 013c 5A01     		lsls	r2, r3, #5
 2490 013e FB69     		ldr	r3, [r7, #28]
 2491 0140 1344     		add	r3, r3, r2
 2492 0142 03F51063 		add	r3, r3, #2304
 2493 0146 1B69     		ldr	r3, [r3, #16]
 2494 0148 BA69     		ldr	r2, [r7, #24]
ARM GAS  C:\Users\jisu8\AppData\Local\Temp\cc8f41y5.s 			page 59


 2495 014a 5101     		lsls	r1, r2, #5
 2496 014c FA69     		ldr	r2, [r7, #28]
 2497 014e 0A44     		add	r2, r2, r1
 2498 0150 02F51062 		add	r2, r2, #2304
 2499 0154 23F0C043 		bic	r3, r3, #1610612736
 2500 0158 1361     		str	r3, [r2, #16]
 824:Drivers/STM32F7xx_HAL_Driver/Src/stm32f7xx_ll_usb.c ****         USBx_INEP(epnum)->DIEPTSIZ |= (USB_OTG_DIEPTSIZ_MULCNT & (1U << 29));
 2501              		.loc 1 824 36
 2502 015a BB69     		ldr	r3, [r7, #24]
 2503 015c 5A01     		lsls	r2, r3, #5
 2504 015e FB69     		ldr	r3, [r7, #28]
 2505 0160 1344     		add	r3, r3, r2
 2506 0162 03F51063 		add	r3, r3, #2304
 2507 0166 1B69     		ldr	r3, [r3, #16]
 2508 0168 BA69     		ldr	r2, [r7, #24]
 2509 016a 5101     		lsls	r1, r2, #5
 2510 016c FA69     		ldr	r2, [r7, #28]
 2511 016e 0A44     		add	r2, r2, r1
 2512 0170 02F51062 		add	r2, r2, #2304
 2513 0174 43F00053 		orr	r3, r3, #536870912
 2514 0178 1361     		str	r3, [r2, #16]
 2515              	.L119:
 825:Drivers/STM32F7xx_HAL_Driver/Src/stm32f7xx_ll_usb.c ****       }
 826:Drivers/STM32F7xx_HAL_Driver/Src/stm32f7xx_ll_usb.c ****     }
 827:Drivers/STM32F7xx_HAL_Driver/Src/stm32f7xx_ll_usb.c **** 
 828:Drivers/STM32F7xx_HAL_Driver/Src/stm32f7xx_ll_usb.c ****     if (dma == 1U)
 2516              		.loc 1 828 8
 2517 017a FB79     		ldrb	r3, [r7, #7]	@ zero_extendqisi2
 2518 017c 012B     		cmp	r3, #1
 2519 017e 4BD1     		bne	.L120
 829:Drivers/STM32F7xx_HAL_Driver/Src/stm32f7xx_ll_usb.c ****     {
 830:Drivers/STM32F7xx_HAL_Driver/Src/stm32f7xx_ll_usb.c ****       if ((uint32_t)ep->dma_addr != 0U)
 2520              		.loc 1 830 23
 2521 0180 BB68     		ldr	r3, [r7, #8]
 2522 0182 5B69     		ldr	r3, [r3, #20]
 2523              		.loc 1 830 10
 2524 0184 002B     		cmp	r3, #0
 2525 0186 09D0     		beq	.L121
 831:Drivers/STM32F7xx_HAL_Driver/Src/stm32f7xx_ll_usb.c ****       {
 832:Drivers/STM32F7xx_HAL_Driver/Src/stm32f7xx_ll_usb.c ****         USBx_INEP(epnum)->DIEPDMA = (uint32_t)(ep->dma_addr);
 2526              		.loc 1 832 9
 2527 0188 BB69     		ldr	r3, [r7, #24]
 2528 018a 5A01     		lsls	r2, r3, #5
 2529 018c FB69     		ldr	r3, [r7, #28]
 2530 018e 1344     		add	r3, r3, r2
 2531 0190 03F51063 		add	r3, r3, #2304
 2532 0194 1A46     		mov	r2, r3
 2533              		.loc 1 832 50
 2534 0196 BB68     		ldr	r3, [r7, #8]
 2535 0198 5B69     		ldr	r3, [r3, #20]
 2536              		.loc 1 832 35
 2537 019a 5361     		str	r3, [r2, #20]
 2538              	.L121:
 833:Drivers/STM32F7xx_HAL_Driver/Src/stm32f7xx_ll_usb.c ****       }
 834:Drivers/STM32F7xx_HAL_Driver/Src/stm32f7xx_ll_usb.c **** 
 835:Drivers/STM32F7xx_HAL_Driver/Src/stm32f7xx_ll_usb.c ****       if (ep->type == EP_TYPE_ISOC)
 2539              		.loc 1 835 13
ARM GAS  C:\Users\jisu8\AppData\Local\Temp\cc8f41y5.s 			page 60


 2540 019c BB68     		ldr	r3, [r7, #8]
 2541 019e 1B79     		ldrb	r3, [r3, #4]	@ zero_extendqisi2
 2542              		.loc 1 835 10
 2543 01a0 012B     		cmp	r3, #1
 2544 01a2 28D1     		bne	.L122
 836:Drivers/STM32F7xx_HAL_Driver/Src/stm32f7xx_ll_usb.c ****       {
 837:Drivers/STM32F7xx_HAL_Driver/Src/stm32f7xx_ll_usb.c ****         if ((USBx_DEVICE->DSTS & (1U << 8)) == 0U)
 2545              		.loc 1 837 14
 2546 01a4 FB69     		ldr	r3, [r7, #28]
 2547 01a6 03F50063 		add	r3, r3, #2048
 2548              		.loc 1 837 25
 2549 01aa 9B68     		ldr	r3, [r3, #8]
 2550              		.loc 1 837 32
 2551 01ac 03F48073 		and	r3, r3, #256
 2552              		.loc 1 837 12
 2553 01b0 002B     		cmp	r3, #0
 2554 01b2 10D1     		bne	.L123
 838:Drivers/STM32F7xx_HAL_Driver/Src/stm32f7xx_ll_usb.c ****         {
 839:Drivers/STM32F7xx_HAL_Driver/Src/stm32f7xx_ll_usb.c ****           USBx_INEP(epnum)->DIEPCTL |= USB_OTG_DIEPCTL_SODDFRM;
 2555              		.loc 1 839 37
 2556 01b4 BB69     		ldr	r3, [r7, #24]
 2557 01b6 5A01     		lsls	r2, r3, #5
 2558 01b8 FB69     		ldr	r3, [r7, #28]
 2559 01ba 1344     		add	r3, r3, r2
 2560 01bc 03F51063 		add	r3, r3, #2304
 2561 01c0 1B68     		ldr	r3, [r3]
 2562 01c2 BA69     		ldr	r2, [r7, #24]
 2563 01c4 5101     		lsls	r1, r2, #5
 2564 01c6 FA69     		ldr	r2, [r7, #28]
 2565 01c8 0A44     		add	r2, r2, r1
 2566 01ca 02F51062 		add	r2, r2, #2304
 2567 01ce 43F00053 		orr	r3, r3, #536870912
 2568 01d2 1360     		str	r3, [r2]
 2569 01d4 0FE0     		b	.L122
 2570              	.L123:
 840:Drivers/STM32F7xx_HAL_Driver/Src/stm32f7xx_ll_usb.c ****         }
 841:Drivers/STM32F7xx_HAL_Driver/Src/stm32f7xx_ll_usb.c ****         else
 842:Drivers/STM32F7xx_HAL_Driver/Src/stm32f7xx_ll_usb.c ****         {
 843:Drivers/STM32F7xx_HAL_Driver/Src/stm32f7xx_ll_usb.c ****           USBx_INEP(epnum)->DIEPCTL |= USB_OTG_DIEPCTL_SD0PID_SEVNFRM;
 2571              		.loc 1 843 37
 2572 01d6 BB69     		ldr	r3, [r7, #24]
 2573 01d8 5A01     		lsls	r2, r3, #5
 2574 01da FB69     		ldr	r3, [r7, #28]
 2575 01dc 1344     		add	r3, r3, r2
 2576 01de 03F51063 		add	r3, r3, #2304
 2577 01e2 1B68     		ldr	r3, [r3]
 2578 01e4 BA69     		ldr	r2, [r7, #24]
 2579 01e6 5101     		lsls	r1, r2, #5
 2580 01e8 FA69     		ldr	r2, [r7, #28]
 2581 01ea 0A44     		add	r2, r2, r1
 2582 01ec 02F51062 		add	r2, r2, #2304
 2583 01f0 43F08053 		orr	r3, r3, #268435456
 2584 01f4 1360     		str	r3, [r2]
 2585              	.L122:
 844:Drivers/STM32F7xx_HAL_Driver/Src/stm32f7xx_ll_usb.c ****         }
 845:Drivers/STM32F7xx_HAL_Driver/Src/stm32f7xx_ll_usb.c ****       }
 846:Drivers/STM32F7xx_HAL_Driver/Src/stm32f7xx_ll_usb.c **** 
ARM GAS  C:\Users\jisu8\AppData\Local\Temp\cc8f41y5.s 			page 61


 847:Drivers/STM32F7xx_HAL_Driver/Src/stm32f7xx_ll_usb.c ****       /* EP enable, IN data in FIFO */
 848:Drivers/STM32F7xx_HAL_Driver/Src/stm32f7xx_ll_usb.c ****       USBx_INEP(epnum)->DIEPCTL |= (USB_OTG_DIEPCTL_CNAK | USB_OTG_DIEPCTL_EPENA);
 2586              		.loc 1 848 33
 2587 01f6 BB69     		ldr	r3, [r7, #24]
 2588 01f8 5A01     		lsls	r2, r3, #5
 2589 01fa FB69     		ldr	r3, [r7, #28]
 2590 01fc 1344     		add	r3, r3, r2
 2591 01fe 03F51063 		add	r3, r3, #2304
 2592 0202 1B68     		ldr	r3, [r3]
 2593 0204 BA69     		ldr	r2, [r7, #24]
 2594 0206 5101     		lsls	r1, r2, #5
 2595 0208 FA69     		ldr	r2, [r7, #28]
 2596 020a 0A44     		add	r2, r2, r1
 2597 020c 02F51062 		add	r2, r2, #2304
 2598 0210 43F00443 		orr	r3, r3, #-2080374784
 2599 0214 1360     		str	r3, [r2]
 2600 0216 37E1     		b	.L124
 2601              	.L120:
 849:Drivers/STM32F7xx_HAL_Driver/Src/stm32f7xx_ll_usb.c ****     }
 850:Drivers/STM32F7xx_HAL_Driver/Src/stm32f7xx_ll_usb.c ****     else
 851:Drivers/STM32F7xx_HAL_Driver/Src/stm32f7xx_ll_usb.c ****     {
 852:Drivers/STM32F7xx_HAL_Driver/Src/stm32f7xx_ll_usb.c ****       /* EP enable, IN data in FIFO */
 853:Drivers/STM32F7xx_HAL_Driver/Src/stm32f7xx_ll_usb.c ****       USBx_INEP(epnum)->DIEPCTL |= (USB_OTG_DIEPCTL_CNAK | USB_OTG_DIEPCTL_EPENA);
 2602              		.loc 1 853 33
 2603 0218 BB69     		ldr	r3, [r7, #24]
 2604 021a 5A01     		lsls	r2, r3, #5
 2605 021c FB69     		ldr	r3, [r7, #28]
 2606 021e 1344     		add	r3, r3, r2
 2607 0220 03F51063 		add	r3, r3, #2304
 2608 0224 1B68     		ldr	r3, [r3]
 2609 0226 BA69     		ldr	r2, [r7, #24]
 2610 0228 5101     		lsls	r1, r2, #5
 2611 022a FA69     		ldr	r2, [r7, #28]
 2612 022c 0A44     		add	r2, r2, r1
 2613 022e 02F51062 		add	r2, r2, #2304
 2614 0232 43F00443 		orr	r3, r3, #-2080374784
 2615 0236 1360     		str	r3, [r2]
 854:Drivers/STM32F7xx_HAL_Driver/Src/stm32f7xx_ll_usb.c **** 
 855:Drivers/STM32F7xx_HAL_Driver/Src/stm32f7xx_ll_usb.c ****       if (ep->type != EP_TYPE_ISOC)
 2616              		.loc 1 855 13
 2617 0238 BB68     		ldr	r3, [r7, #8]
 2618 023a 1B79     		ldrb	r3, [r3, #4]	@ zero_extendqisi2
 2619              		.loc 1 855 10
 2620 023c 012B     		cmp	r3, #1
 2621 023e 15D0     		beq	.L125
 856:Drivers/STM32F7xx_HAL_Driver/Src/stm32f7xx_ll_usb.c ****       {
 857:Drivers/STM32F7xx_HAL_Driver/Src/stm32f7xx_ll_usb.c ****         /* Enable the Tx FIFO Empty Interrupt for this EP */
 858:Drivers/STM32F7xx_HAL_Driver/Src/stm32f7xx_ll_usb.c ****         if (ep->xfer_len > 0U)
 2622              		.loc 1 858 15
 2623 0240 BB68     		ldr	r3, [r7, #8]
 2624 0242 9B69     		ldr	r3, [r3, #24]
 2625              		.loc 1 858 12
 2626 0244 002B     		cmp	r3, #0
 2627 0246 00F01F81 		beq	.L124
 859:Drivers/STM32F7xx_HAL_Driver/Src/stm32f7xx_ll_usb.c ****         {
 860:Drivers/STM32F7xx_HAL_Driver/Src/stm32f7xx_ll_usb.c ****           USBx_DEVICE->DIEPEMPMSK |= 1UL << (ep->num & EP_ADDR_MSK);
 2628              		.loc 1 860 35
ARM GAS  C:\Users\jisu8\AppData\Local\Temp\cc8f41y5.s 			page 62


 2629 024a FB69     		ldr	r3, [r7, #28]
 2630 024c 03F50063 		add	r3, r3, #2048
 2631 0250 5A6B     		ldr	r2, [r3, #52]
 2632              		.loc 1 860 48
 2633 0252 BB68     		ldr	r3, [r7, #8]
 2634 0254 1B78     		ldrb	r3, [r3]	@ zero_extendqisi2
 2635              		.loc 1 860 54
 2636 0256 03F00F03 		and	r3, r3, #15
 2637              		.loc 1 860 42
 2638 025a 0121     		movs	r1, #1
 2639 025c 01FA03F3 		lsl	r3, r1, r3
 2640              		.loc 1 860 35
 2641 0260 F969     		ldr	r1, [r7, #28]
 2642 0262 01F50061 		add	r1, r1, #2048
 2643 0266 1343     		orrs	r3, r3, r2
 2644 0268 4B63     		str	r3, [r1, #52]
 2645 026a 0DE1     		b	.L124
 2646              	.L125:
 861:Drivers/STM32F7xx_HAL_Driver/Src/stm32f7xx_ll_usb.c ****         }
 862:Drivers/STM32F7xx_HAL_Driver/Src/stm32f7xx_ll_usb.c ****       }
 863:Drivers/STM32F7xx_HAL_Driver/Src/stm32f7xx_ll_usb.c ****       else
 864:Drivers/STM32F7xx_HAL_Driver/Src/stm32f7xx_ll_usb.c ****       {
 865:Drivers/STM32F7xx_HAL_Driver/Src/stm32f7xx_ll_usb.c ****         if ((USBx_DEVICE->DSTS & (1U << 8)) == 0U)
 2647              		.loc 1 865 14
 2648 026c FB69     		ldr	r3, [r7, #28]
 2649 026e 03F50063 		add	r3, r3, #2048
 2650              		.loc 1 865 25
 2651 0272 9B68     		ldr	r3, [r3, #8]
 2652              		.loc 1 865 32
 2653 0274 03F48073 		and	r3, r3, #256
 2654              		.loc 1 865 12
 2655 0278 002B     		cmp	r3, #0
 2656 027a 10D1     		bne	.L126
 866:Drivers/STM32F7xx_HAL_Driver/Src/stm32f7xx_ll_usb.c ****         {
 867:Drivers/STM32F7xx_HAL_Driver/Src/stm32f7xx_ll_usb.c ****           USBx_INEP(epnum)->DIEPCTL |= USB_OTG_DIEPCTL_SODDFRM;
 2657              		.loc 1 867 37
 2658 027c BB69     		ldr	r3, [r7, #24]
 2659 027e 5A01     		lsls	r2, r3, #5
 2660 0280 FB69     		ldr	r3, [r7, #28]
 2661 0282 1344     		add	r3, r3, r2
 2662 0284 03F51063 		add	r3, r3, #2304
 2663 0288 1B68     		ldr	r3, [r3]
 2664 028a BA69     		ldr	r2, [r7, #24]
 2665 028c 5101     		lsls	r1, r2, #5
 2666 028e FA69     		ldr	r2, [r7, #28]
 2667 0290 0A44     		add	r2, r2, r1
 2668 0292 02F51062 		add	r2, r2, #2304
 2669 0296 43F00053 		orr	r3, r3, #536870912
 2670 029a 1360     		str	r3, [r2]
 2671 029c 0FE0     		b	.L127
 2672              	.L126:
 868:Drivers/STM32F7xx_HAL_Driver/Src/stm32f7xx_ll_usb.c ****         }
 869:Drivers/STM32F7xx_HAL_Driver/Src/stm32f7xx_ll_usb.c ****         else
 870:Drivers/STM32F7xx_HAL_Driver/Src/stm32f7xx_ll_usb.c ****         {
 871:Drivers/STM32F7xx_HAL_Driver/Src/stm32f7xx_ll_usb.c ****           USBx_INEP(epnum)->DIEPCTL |= USB_OTG_DIEPCTL_SD0PID_SEVNFRM;
 2673              		.loc 1 871 37
 2674 029e BB69     		ldr	r3, [r7, #24]
ARM GAS  C:\Users\jisu8\AppData\Local\Temp\cc8f41y5.s 			page 63


 2675 02a0 5A01     		lsls	r2, r3, #5
 2676 02a2 FB69     		ldr	r3, [r7, #28]
 2677 02a4 1344     		add	r3, r3, r2
 2678 02a6 03F51063 		add	r3, r3, #2304
 2679 02aa 1B68     		ldr	r3, [r3]
 2680 02ac BA69     		ldr	r2, [r7, #24]
 2681 02ae 5101     		lsls	r1, r2, #5
 2682 02b0 FA69     		ldr	r2, [r7, #28]
 2683 02b2 0A44     		add	r2, r2, r1
 2684 02b4 02F51062 		add	r2, r2, #2304
 2685 02b8 43F08053 		orr	r3, r3, #268435456
 2686 02bc 1360     		str	r3, [r2]
 2687              	.L127:
 872:Drivers/STM32F7xx_HAL_Driver/Src/stm32f7xx_ll_usb.c ****         }
 873:Drivers/STM32F7xx_HAL_Driver/Src/stm32f7xx_ll_usb.c **** 
 874:Drivers/STM32F7xx_HAL_Driver/Src/stm32f7xx_ll_usb.c ****         (void)USB_WritePacket(USBx, ep->xfer_buff, ep->num, (uint16_t)ep->xfer_len, dma);
 2688              		.loc 1 874 15
 2689 02be BB68     		ldr	r3, [r7, #8]
 2690 02c0 1969     		ldr	r1, [r3, #16]
 2691 02c2 BB68     		ldr	r3, [r7, #8]
 2692 02c4 1A78     		ldrb	r2, [r3]	@ zero_extendqisi2
 2693              		.loc 1 874 73
 2694 02c6 BB68     		ldr	r3, [r7, #8]
 2695 02c8 9B69     		ldr	r3, [r3, #24]
 2696              		.loc 1 874 15
 2697 02ca 98B2     		uxth	r0, r3
 2698 02cc FB79     		ldrb	r3, [r7, #7]	@ zero_extendqisi2
 2699 02ce 0093     		str	r3, [sp]
 2700 02d0 0346     		mov	r3, r0
 2701 02d2 F868     		ldr	r0, [r7, #12]
 2702 02d4 FFF7FEFF 		bl	USB_WritePacket
 2703 02d8 D6E0     		b	.L124
 2704              	.L135:
 2705 02da 00BF     		.align	2
 2706              	.L134:
 2707 02dc FFFF07E0 		.word	-536346625
 2708 02e0 0000F8FF 		.word	-524288
 2709 02e4 0000F81F 		.word	536346624
 2710              	.L117:
 875:Drivers/STM32F7xx_HAL_Driver/Src/stm32f7xx_ll_usb.c ****       }
 876:Drivers/STM32F7xx_HAL_Driver/Src/stm32f7xx_ll_usb.c ****     }
 877:Drivers/STM32F7xx_HAL_Driver/Src/stm32f7xx_ll_usb.c ****   }
 878:Drivers/STM32F7xx_HAL_Driver/Src/stm32f7xx_ll_usb.c ****   else /* OUT endpoint */
 879:Drivers/STM32F7xx_HAL_Driver/Src/stm32f7xx_ll_usb.c ****   {
 880:Drivers/STM32F7xx_HAL_Driver/Src/stm32f7xx_ll_usb.c ****     /* Program the transfer size and packet count as follows:
 881:Drivers/STM32F7xx_HAL_Driver/Src/stm32f7xx_ll_usb.c ****     * pktcnt = N
 882:Drivers/STM32F7xx_HAL_Driver/Src/stm32f7xx_ll_usb.c ****     * xfersize = N * maxpacket
 883:Drivers/STM32F7xx_HAL_Driver/Src/stm32f7xx_ll_usb.c ****     */
 884:Drivers/STM32F7xx_HAL_Driver/Src/stm32f7xx_ll_usb.c ****     USBx_OUTEP(epnum)->DOEPTSIZ &= ~(USB_OTG_DOEPTSIZ_XFRSIZ);
 2711              		.loc 1 884 33
 2712 02e8 BB69     		ldr	r3, [r7, #24]
 2713 02ea 5A01     		lsls	r2, r3, #5
 2714 02ec FB69     		ldr	r3, [r7, #28]
 2715 02ee 1344     		add	r3, r3, r2
 2716 02f0 03F53063 		add	r3, r3, #2816
 2717 02f4 1A69     		ldr	r2, [r3, #16]
 2718 02f6 BB69     		ldr	r3, [r7, #24]
ARM GAS  C:\Users\jisu8\AppData\Local\Temp\cc8f41y5.s 			page 64


 2719 02f8 5901     		lsls	r1, r3, #5
 2720 02fa FB69     		ldr	r3, [r7, #28]
 2721 02fc 0B44     		add	r3, r3, r1
 2722 02fe 03F53063 		add	r3, r3, #2816
 2723 0302 1946     		mov	r1, r3
 2724 0304 634B     		ldr	r3, .L136
 2725 0306 1340     		ands	r3, r3, r2
 2726 0308 0B61     		str	r3, [r1, #16]
 885:Drivers/STM32F7xx_HAL_Driver/Src/stm32f7xx_ll_usb.c ****     USBx_OUTEP(epnum)->DOEPTSIZ &= ~(USB_OTG_DOEPTSIZ_PKTCNT);
 2727              		.loc 1 885 33
 2728 030a BB69     		ldr	r3, [r7, #24]
 2729 030c 5A01     		lsls	r2, r3, #5
 2730 030e FB69     		ldr	r3, [r7, #28]
 2731 0310 1344     		add	r3, r3, r2
 2732 0312 03F53063 		add	r3, r3, #2816
 2733 0316 1A69     		ldr	r2, [r3, #16]
 2734 0318 BB69     		ldr	r3, [r7, #24]
 2735 031a 5901     		lsls	r1, r3, #5
 2736 031c FB69     		ldr	r3, [r7, #28]
 2737 031e 0B44     		add	r3, r3, r1
 2738 0320 03F53063 		add	r3, r3, #2816
 2739 0324 1946     		mov	r1, r3
 2740 0326 5C4B     		ldr	r3, .L136+4
 2741 0328 1340     		ands	r3, r3, r2
 2742 032a 0B61     		str	r3, [r1, #16]
 886:Drivers/STM32F7xx_HAL_Driver/Src/stm32f7xx_ll_usb.c **** 
 887:Drivers/STM32F7xx_HAL_Driver/Src/stm32f7xx_ll_usb.c ****     if (ep->xfer_len == 0U)
 2743              		.loc 1 887 11
 2744 032c BB68     		ldr	r3, [r7, #8]
 2745 032e 9B69     		ldr	r3, [r3, #24]
 2746              		.loc 1 887 8
 2747 0330 002B     		cmp	r3, #0
 2748 0332 23D1     		bne	.L128
 888:Drivers/STM32F7xx_HAL_Driver/Src/stm32f7xx_ll_usb.c ****     {
 889:Drivers/STM32F7xx_HAL_Driver/Src/stm32f7xx_ll_usb.c ****       USBx_OUTEP(epnum)->DOEPTSIZ |= (USB_OTG_DOEPTSIZ_XFRSIZ & ep->maxpacket);
 2749              		.loc 1 889 35
 2750 0334 BB69     		ldr	r3, [r7, #24]
 2751 0336 5A01     		lsls	r2, r3, #5
 2752 0338 FB69     		ldr	r3, [r7, #28]
 2753 033a 1344     		add	r3, r3, r2
 2754 033c 03F53063 		add	r3, r3, #2816
 2755 0340 1A69     		ldr	r2, [r3, #16]
 2756              		.loc 1 889 67
 2757 0342 BB68     		ldr	r3, [r7, #8]
 2758 0344 DB68     		ldr	r3, [r3, #12]
 2759              		.loc 1 889 63
 2760 0346 C3F31203 		ubfx	r3, r3, #0, #19
 2761              		.loc 1 889 35
 2762 034a B969     		ldr	r1, [r7, #24]
 2763 034c 4801     		lsls	r0, r1, #5
 2764 034e F969     		ldr	r1, [r7, #28]
 2765 0350 0144     		add	r1, r1, r0
 2766 0352 01F53061 		add	r1, r1, #2816
 2767 0356 1343     		orrs	r3, r3, r2
 2768 0358 0B61     		str	r3, [r1, #16]
 890:Drivers/STM32F7xx_HAL_Driver/Src/stm32f7xx_ll_usb.c ****       USBx_OUTEP(epnum)->DOEPTSIZ |= (USB_OTG_DOEPTSIZ_PKTCNT & (1U << 19));
 2769              		.loc 1 890 35
ARM GAS  C:\Users\jisu8\AppData\Local\Temp\cc8f41y5.s 			page 65


 2770 035a BB69     		ldr	r3, [r7, #24]
 2771 035c 5A01     		lsls	r2, r3, #5
 2772 035e FB69     		ldr	r3, [r7, #28]
 2773 0360 1344     		add	r3, r3, r2
 2774 0362 03F53063 		add	r3, r3, #2816
 2775 0366 1B69     		ldr	r3, [r3, #16]
 2776 0368 BA69     		ldr	r2, [r7, #24]
 2777 036a 5101     		lsls	r1, r2, #5
 2778 036c FA69     		ldr	r2, [r7, #28]
 2779 036e 0A44     		add	r2, r2, r1
 2780 0370 02F53062 		add	r2, r2, #2816
 2781 0374 43F40023 		orr	r3, r3, #524288
 2782 0378 1361     		str	r3, [r2, #16]
 2783 037a 37E0     		b	.L129
 2784              	.L128:
 891:Drivers/STM32F7xx_HAL_Driver/Src/stm32f7xx_ll_usb.c ****     }
 892:Drivers/STM32F7xx_HAL_Driver/Src/stm32f7xx_ll_usb.c ****     else
 893:Drivers/STM32F7xx_HAL_Driver/Src/stm32f7xx_ll_usb.c ****     {
 894:Drivers/STM32F7xx_HAL_Driver/Src/stm32f7xx_ll_usb.c ****       pktcnt = (uint16_t)((ep->xfer_len + ep->maxpacket - 1U) / ep->maxpacket);
 2785              		.loc 1 894 30
 2786 037c BB68     		ldr	r3, [r7, #8]
 2787 037e 9A69     		ldr	r2, [r3, #24]
 2788              		.loc 1 894 45
 2789 0380 BB68     		ldr	r3, [r7, #8]
 2790 0382 DB68     		ldr	r3, [r3, #12]
 2791              		.loc 1 894 41
 2792 0384 1344     		add	r3, r3, r2
 2793              		.loc 1 894 57
 2794 0386 5A1E     		subs	r2, r3, #1
 2795              		.loc 1 894 67
 2796 0388 BB68     		ldr	r3, [r7, #8]
 2797 038a DB68     		ldr	r3, [r3, #12]
 2798              		.loc 1 894 63
 2799 038c B2FBF3F3 		udiv	r3, r2, r3
 2800              		.loc 1 894 14
 2801 0390 FB82     		strh	r3, [r7, #22]	@ movhi
 895:Drivers/STM32F7xx_HAL_Driver/Src/stm32f7xx_ll_usb.c ****       ep->xfer_size = ep->maxpacket * pktcnt;
 2802              		.loc 1 895 25
 2803 0392 BB68     		ldr	r3, [r7, #8]
 2804 0394 DB68     		ldr	r3, [r3, #12]
 2805              		.loc 1 895 37
 2806 0396 FA8A     		ldrh	r2, [r7, #22]
 2807 0398 03FB02F2 		mul	r2, r3, r2
 2808              		.loc 1 895 21
 2809 039c BB68     		ldr	r3, [r7, #8]
 2810 039e DA61     		str	r2, [r3, #28]
 896:Drivers/STM32F7xx_HAL_Driver/Src/stm32f7xx_ll_usb.c **** 
 897:Drivers/STM32F7xx_HAL_Driver/Src/stm32f7xx_ll_usb.c ****       USBx_OUTEP(epnum)->DOEPTSIZ |= USB_OTG_DOEPTSIZ_PKTCNT & ((uint32_t)pktcnt << 19);
 2811              		.loc 1 897 35
 2812 03a0 BB69     		ldr	r3, [r7, #24]
 2813 03a2 5A01     		lsls	r2, r3, #5
 2814 03a4 FB69     		ldr	r3, [r7, #28]
 2815 03a6 1344     		add	r3, r3, r2
 2816 03a8 03F53063 		add	r3, r3, #2816
 2817 03ac 1A69     		ldr	r2, [r3, #16]
 2818              		.loc 1 897 65
 2819 03ae FB8A     		ldrh	r3, [r7, #22]
ARM GAS  C:\Users\jisu8\AppData\Local\Temp\cc8f41y5.s 			page 66


 2820              		.loc 1 897 82
 2821 03b0 D904     		lsls	r1, r3, #19
 2822              		.loc 1 897 62
 2823 03b2 3A4B     		ldr	r3, .L136+8
 2824 03b4 0B40     		ands	r3, r3, r1
 2825              		.loc 1 897 35
 2826 03b6 B969     		ldr	r1, [r7, #24]
 2827 03b8 4801     		lsls	r0, r1, #5
 2828 03ba F969     		ldr	r1, [r7, #28]
 2829 03bc 0144     		add	r1, r1, r0
 2830 03be 01F53061 		add	r1, r1, #2816
 2831 03c2 1343     		orrs	r3, r3, r2
 2832 03c4 0B61     		str	r3, [r1, #16]
 898:Drivers/STM32F7xx_HAL_Driver/Src/stm32f7xx_ll_usb.c ****       USBx_OUTEP(epnum)->DOEPTSIZ |= USB_OTG_DOEPTSIZ_XFRSIZ & ep->xfer_size;
 2833              		.loc 1 898 35
 2834 03c6 BB69     		ldr	r3, [r7, #24]
 2835 03c8 5A01     		lsls	r2, r3, #5
 2836 03ca FB69     		ldr	r3, [r7, #28]
 2837 03cc 1344     		add	r3, r3, r2
 2838 03ce 03F53063 		add	r3, r3, #2816
 2839 03d2 1A69     		ldr	r2, [r3, #16]
 2840              		.loc 1 898 66
 2841 03d4 BB68     		ldr	r3, [r7, #8]
 2842 03d6 DB69     		ldr	r3, [r3, #28]
 2843              		.loc 1 898 62
 2844 03d8 C3F31203 		ubfx	r3, r3, #0, #19
 2845              		.loc 1 898 35
 2846 03dc B969     		ldr	r1, [r7, #24]
 2847 03de 4801     		lsls	r0, r1, #5
 2848 03e0 F969     		ldr	r1, [r7, #28]
 2849 03e2 0144     		add	r1, r1, r0
 2850 03e4 01F53061 		add	r1, r1, #2816
 2851 03e8 1343     		orrs	r3, r3, r2
 2852 03ea 0B61     		str	r3, [r1, #16]
 2853              	.L129:
 899:Drivers/STM32F7xx_HAL_Driver/Src/stm32f7xx_ll_usb.c ****     }
 900:Drivers/STM32F7xx_HAL_Driver/Src/stm32f7xx_ll_usb.c **** 
 901:Drivers/STM32F7xx_HAL_Driver/Src/stm32f7xx_ll_usb.c ****     if (dma == 1U)
 2854              		.loc 1 901 8
 2855 03ec FB79     		ldrb	r3, [r7, #7]	@ zero_extendqisi2
 2856 03ee 012B     		cmp	r3, #1
 2857 03f0 0DD1     		bne	.L130
 902:Drivers/STM32F7xx_HAL_Driver/Src/stm32f7xx_ll_usb.c ****     {
 903:Drivers/STM32F7xx_HAL_Driver/Src/stm32f7xx_ll_usb.c ****       if ((uint32_t)ep->xfer_buff != 0U)
 2858              		.loc 1 903 23
 2859 03f2 BB68     		ldr	r3, [r7, #8]
 2860 03f4 1B69     		ldr	r3, [r3, #16]
 2861              		.loc 1 903 10
 2862 03f6 002B     		cmp	r3, #0
 2863 03f8 09D0     		beq	.L130
 904:Drivers/STM32F7xx_HAL_Driver/Src/stm32f7xx_ll_usb.c ****       {
 905:Drivers/STM32F7xx_HAL_Driver/Src/stm32f7xx_ll_usb.c ****         USBx_OUTEP(epnum)->DOEPDMA = (uint32_t)(ep->xfer_buff);
 2864              		.loc 1 905 51
 2865 03fa BB68     		ldr	r3, [r7, #8]
 2866 03fc 1969     		ldr	r1, [r3, #16]
 2867              		.loc 1 905 9
 2868 03fe BB69     		ldr	r3, [r7, #24]
ARM GAS  C:\Users\jisu8\AppData\Local\Temp\cc8f41y5.s 			page 67


 2869 0400 5A01     		lsls	r2, r3, #5
 2870 0402 FB69     		ldr	r3, [r7, #28]
 2871 0404 1344     		add	r3, r3, r2
 2872 0406 03F53063 		add	r3, r3, #2816
 2873              		.loc 1 905 38
 2874 040a 0A46     		mov	r2, r1
 2875              		.loc 1 905 36
 2876 040c 5A61     		str	r2, [r3, #20]
 2877              	.L130:
 906:Drivers/STM32F7xx_HAL_Driver/Src/stm32f7xx_ll_usb.c ****       }
 907:Drivers/STM32F7xx_HAL_Driver/Src/stm32f7xx_ll_usb.c ****     }
 908:Drivers/STM32F7xx_HAL_Driver/Src/stm32f7xx_ll_usb.c **** 
 909:Drivers/STM32F7xx_HAL_Driver/Src/stm32f7xx_ll_usb.c ****     if (ep->type == EP_TYPE_ISOC)
 2878              		.loc 1 909 11
 2879 040e BB68     		ldr	r3, [r7, #8]
 2880 0410 1B79     		ldrb	r3, [r3, #4]	@ zero_extendqisi2
 2881              		.loc 1 909 8
 2882 0412 012B     		cmp	r3, #1
 2883 0414 28D1     		bne	.L131
 910:Drivers/STM32F7xx_HAL_Driver/Src/stm32f7xx_ll_usb.c ****     {
 911:Drivers/STM32F7xx_HAL_Driver/Src/stm32f7xx_ll_usb.c ****       if ((USBx_DEVICE->DSTS & (1U << 8)) == 0U)
 2884              		.loc 1 911 12
 2885 0416 FB69     		ldr	r3, [r7, #28]
 2886 0418 03F50063 		add	r3, r3, #2048
 2887              		.loc 1 911 23
 2888 041c 9B68     		ldr	r3, [r3, #8]
 2889              		.loc 1 911 30
 2890 041e 03F48073 		and	r3, r3, #256
 2891              		.loc 1 911 10
 2892 0422 002B     		cmp	r3, #0
 2893 0424 10D1     		bne	.L132
 912:Drivers/STM32F7xx_HAL_Driver/Src/stm32f7xx_ll_usb.c ****       {
 913:Drivers/STM32F7xx_HAL_Driver/Src/stm32f7xx_ll_usb.c ****         USBx_OUTEP(epnum)->DOEPCTL |= USB_OTG_DOEPCTL_SODDFRM;
 2894              		.loc 1 913 36
 2895 0426 BB69     		ldr	r3, [r7, #24]
 2896 0428 5A01     		lsls	r2, r3, #5
 2897 042a FB69     		ldr	r3, [r7, #28]
 2898 042c 1344     		add	r3, r3, r2
 2899 042e 03F53063 		add	r3, r3, #2816
 2900 0432 1B68     		ldr	r3, [r3]
 2901 0434 BA69     		ldr	r2, [r7, #24]
 2902 0436 5101     		lsls	r1, r2, #5
 2903 0438 FA69     		ldr	r2, [r7, #28]
 2904 043a 0A44     		add	r2, r2, r1
 2905 043c 02F53062 		add	r2, r2, #2816
 2906 0440 43F00053 		orr	r3, r3, #536870912
 2907 0444 1360     		str	r3, [r2]
 2908 0446 0FE0     		b	.L131
 2909              	.L132:
 914:Drivers/STM32F7xx_HAL_Driver/Src/stm32f7xx_ll_usb.c ****       }
 915:Drivers/STM32F7xx_HAL_Driver/Src/stm32f7xx_ll_usb.c ****       else
 916:Drivers/STM32F7xx_HAL_Driver/Src/stm32f7xx_ll_usb.c ****       {
 917:Drivers/STM32F7xx_HAL_Driver/Src/stm32f7xx_ll_usb.c ****         USBx_OUTEP(epnum)->DOEPCTL |= USB_OTG_DOEPCTL_SD0PID_SEVNFRM;
 2910              		.loc 1 917 36
 2911 0448 BB69     		ldr	r3, [r7, #24]
 2912 044a 5A01     		lsls	r2, r3, #5
 2913 044c FB69     		ldr	r3, [r7, #28]
ARM GAS  C:\Users\jisu8\AppData\Local\Temp\cc8f41y5.s 			page 68


 2914 044e 1344     		add	r3, r3, r2
 2915 0450 03F53063 		add	r3, r3, #2816
 2916 0454 1B68     		ldr	r3, [r3]
 2917 0456 BA69     		ldr	r2, [r7, #24]
 2918 0458 5101     		lsls	r1, r2, #5
 2919 045a FA69     		ldr	r2, [r7, #28]
 2920 045c 0A44     		add	r2, r2, r1
 2921 045e 02F53062 		add	r2, r2, #2816
 2922 0462 43F08053 		orr	r3, r3, #268435456
 2923 0466 1360     		str	r3, [r2]
 2924              	.L131:
 918:Drivers/STM32F7xx_HAL_Driver/Src/stm32f7xx_ll_usb.c ****       }
 919:Drivers/STM32F7xx_HAL_Driver/Src/stm32f7xx_ll_usb.c ****     }
 920:Drivers/STM32F7xx_HAL_Driver/Src/stm32f7xx_ll_usb.c ****     /* EP enable */
 921:Drivers/STM32F7xx_HAL_Driver/Src/stm32f7xx_ll_usb.c ****     USBx_OUTEP(epnum)->DOEPCTL |= (USB_OTG_DOEPCTL_CNAK | USB_OTG_DOEPCTL_EPENA);
 2925              		.loc 1 921 32
 2926 0468 BB69     		ldr	r3, [r7, #24]
 2927 046a 5A01     		lsls	r2, r3, #5
 2928 046c FB69     		ldr	r3, [r7, #28]
 2929 046e 1344     		add	r3, r3, r2
 2930 0470 03F53063 		add	r3, r3, #2816
 2931 0474 1B68     		ldr	r3, [r3]
 2932 0476 BA69     		ldr	r2, [r7, #24]
 2933 0478 5101     		lsls	r1, r2, #5
 2934 047a FA69     		ldr	r2, [r7, #28]
 2935 047c 0A44     		add	r2, r2, r1
 2936 047e 02F53062 		add	r2, r2, #2816
 2937 0482 43F00443 		orr	r3, r3, #-2080374784
 2938 0486 1360     		str	r3, [r2]
 2939              	.L124:
 922:Drivers/STM32F7xx_HAL_Driver/Src/stm32f7xx_ll_usb.c ****   }
 923:Drivers/STM32F7xx_HAL_Driver/Src/stm32f7xx_ll_usb.c **** 
 924:Drivers/STM32F7xx_HAL_Driver/Src/stm32f7xx_ll_usb.c ****   return HAL_OK;
 2940              		.loc 1 924 10
 2941 0488 0023     		movs	r3, #0
 925:Drivers/STM32F7xx_HAL_Driver/Src/stm32f7xx_ll_usb.c **** }
 2942              		.loc 1 925 1
 2943 048a 1846     		mov	r0, r3
 2944 048c 2037     		adds	r7, r7, #32
 2945              	.LCFI90:
 2946              		.cfi_def_cfa_offset 8
 2947 048e BD46     		mov	sp, r7
 2948              	.LCFI91:
 2949              		.cfi_def_cfa_register 13
 2950              		@ sp needed
 2951 0490 80BD     		pop	{r7, pc}
 2952              	.L137:
 2953 0492 00BF     		.align	2
 2954              	.L136:
 2955 0494 0000F8FF 		.word	-524288
 2956 0498 FFFF07E0 		.word	-536346625
 2957 049c 0000F81F 		.word	536346624
 2958              		.cfi_endproc
 2959              	.LFE155:
 2961              		.section	.text.USB_EP0StartXfer,"ax",%progbits
 2962              		.align	1
 2963              		.global	USB_EP0StartXfer
ARM GAS  C:\Users\jisu8\AppData\Local\Temp\cc8f41y5.s 			page 69


 2964              		.syntax unified
 2965              		.thumb
 2966              		.thumb_func
 2968              	USB_EP0StartXfer:
 2969              	.LFB156:
 926:Drivers/STM32F7xx_HAL_Driver/Src/stm32f7xx_ll_usb.c **** 
 927:Drivers/STM32F7xx_HAL_Driver/Src/stm32f7xx_ll_usb.c **** /**
 928:Drivers/STM32F7xx_HAL_Driver/Src/stm32f7xx_ll_usb.c ****   * @brief  USB_EP0StartXfer : setup and starts a transfer over the EP  0
 929:Drivers/STM32F7xx_HAL_Driver/Src/stm32f7xx_ll_usb.c ****   * @param  USBx  Selected device
 930:Drivers/STM32F7xx_HAL_Driver/Src/stm32f7xx_ll_usb.c ****   * @param  ep pointer to endpoint structure
 931:Drivers/STM32F7xx_HAL_Driver/Src/stm32f7xx_ll_usb.c ****   * @param  dma USB dma enabled or disabled
 932:Drivers/STM32F7xx_HAL_Driver/Src/stm32f7xx_ll_usb.c ****   *          This parameter can be one of these values:
 933:Drivers/STM32F7xx_HAL_Driver/Src/stm32f7xx_ll_usb.c ****   *           0 : DMA feature not used
 934:Drivers/STM32F7xx_HAL_Driver/Src/stm32f7xx_ll_usb.c ****   *           1 : DMA feature used
 935:Drivers/STM32F7xx_HAL_Driver/Src/stm32f7xx_ll_usb.c ****   * @retval HAL status
 936:Drivers/STM32F7xx_HAL_Driver/Src/stm32f7xx_ll_usb.c ****   */
 937:Drivers/STM32F7xx_HAL_Driver/Src/stm32f7xx_ll_usb.c **** HAL_StatusTypeDef USB_EP0StartXfer(USB_OTG_GlobalTypeDef *USBx, USB_OTG_EPTypeDef *ep, uint8_t dma)
 938:Drivers/STM32F7xx_HAL_Driver/Src/stm32f7xx_ll_usb.c **** {
 2970              		.loc 1 938 1
 2971              		.cfi_startproc
 2972              		@ args = 0, pretend = 0, frame = 24
 2973              		@ frame_needed = 1, uses_anonymous_args = 0
 2974              		@ link register save eliminated.
 2975 0000 80B4     		push	{r7}
 2976              	.LCFI92:
 2977              		.cfi_def_cfa_offset 4
 2978              		.cfi_offset 7, -4
 2979 0002 87B0     		sub	sp, sp, #28
 2980              	.LCFI93:
 2981              		.cfi_def_cfa_offset 32
 2982 0004 00AF     		add	r7, sp, #0
 2983              	.LCFI94:
 2984              		.cfi_def_cfa_register 7
 2985 0006 F860     		str	r0, [r7, #12]
 2986 0008 B960     		str	r1, [r7, #8]
 2987 000a 1346     		mov	r3, r2
 2988 000c FB71     		strb	r3, [r7, #7]
 939:Drivers/STM32F7xx_HAL_Driver/Src/stm32f7xx_ll_usb.c ****   uint32_t USBx_BASE = (uint32_t)USBx;
 2989              		.loc 1 939 12
 2990 000e FB68     		ldr	r3, [r7, #12]
 2991 0010 7B61     		str	r3, [r7, #20]
 940:Drivers/STM32F7xx_HAL_Driver/Src/stm32f7xx_ll_usb.c ****   uint32_t epnum = (uint32_t)ep->num;
 2992              		.loc 1 940 32
 2993 0012 BB68     		ldr	r3, [r7, #8]
 2994 0014 1B78     		ldrb	r3, [r3]	@ zero_extendqisi2
 2995              		.loc 1 940 12
 2996 0016 3B61     		str	r3, [r7, #16]
 941:Drivers/STM32F7xx_HAL_Driver/Src/stm32f7xx_ll_usb.c **** 
 942:Drivers/STM32F7xx_HAL_Driver/Src/stm32f7xx_ll_usb.c ****   /* IN endpoint */
 943:Drivers/STM32F7xx_HAL_Driver/Src/stm32f7xx_ll_usb.c ****   if (ep->is_in == 1U)
 2997              		.loc 1 943 9
 2998 0018 BB68     		ldr	r3, [r7, #8]
 2999 001a 5B78     		ldrb	r3, [r3, #1]	@ zero_extendqisi2
 3000              		.loc 1 943 6
 3001 001c 012B     		cmp	r3, #1
 3002 001e 40F0CE80 		bne	.L139
 944:Drivers/STM32F7xx_HAL_Driver/Src/stm32f7xx_ll_usb.c ****   {
ARM GAS  C:\Users\jisu8\AppData\Local\Temp\cc8f41y5.s 			page 70


 945:Drivers/STM32F7xx_HAL_Driver/Src/stm32f7xx_ll_usb.c ****     /* Zero Length Packet? */
 946:Drivers/STM32F7xx_HAL_Driver/Src/stm32f7xx_ll_usb.c ****     if (ep->xfer_len == 0U)
 3003              		.loc 1 946 11
 3004 0022 BB68     		ldr	r3, [r7, #8]
 3005 0024 9B69     		ldr	r3, [r3, #24]
 3006              		.loc 1 946 8
 3007 0026 002B     		cmp	r3, #0
 3008 0028 32D1     		bne	.L140
 947:Drivers/STM32F7xx_HAL_Driver/Src/stm32f7xx_ll_usb.c ****     {
 948:Drivers/STM32F7xx_HAL_Driver/Src/stm32f7xx_ll_usb.c ****       USBx_INEP(epnum)->DIEPTSIZ &= ~(USB_OTG_DIEPTSIZ_PKTCNT);
 3009              		.loc 1 948 34
 3010 002a 3B69     		ldr	r3, [r7, #16]
 3011 002c 5A01     		lsls	r2, r3, #5
 3012 002e 7B69     		ldr	r3, [r7, #20]
 3013 0030 1344     		add	r3, r3, r2
 3014 0032 03F51063 		add	r3, r3, #2304
 3015 0036 1A69     		ldr	r2, [r3, #16]
 3016 0038 3B69     		ldr	r3, [r7, #16]
 3017 003a 5901     		lsls	r1, r3, #5
 3018 003c 7B69     		ldr	r3, [r7, #20]
 3019 003e 0B44     		add	r3, r3, r1
 3020 0040 03F51063 		add	r3, r3, #2304
 3021 0044 1946     		mov	r1, r3
 3022 0046 9A4B     		ldr	r3, .L149
 3023 0048 1340     		ands	r3, r3, r2
 3024 004a 0B61     		str	r3, [r1, #16]
 949:Drivers/STM32F7xx_HAL_Driver/Src/stm32f7xx_ll_usb.c ****       USBx_INEP(epnum)->DIEPTSIZ |= (USB_OTG_DIEPTSIZ_PKTCNT & (1U << 19));
 3025              		.loc 1 949 34
 3026 004c 3B69     		ldr	r3, [r7, #16]
 3027 004e 5A01     		lsls	r2, r3, #5
 3028 0050 7B69     		ldr	r3, [r7, #20]
 3029 0052 1344     		add	r3, r3, r2
 3030 0054 03F51063 		add	r3, r3, #2304
 3031 0058 1B69     		ldr	r3, [r3, #16]
 3032 005a 3A69     		ldr	r2, [r7, #16]
 3033 005c 5101     		lsls	r1, r2, #5
 3034 005e 7A69     		ldr	r2, [r7, #20]
 3035 0060 0A44     		add	r2, r2, r1
 3036 0062 02F51062 		add	r2, r2, #2304
 3037 0066 43F40023 		orr	r3, r3, #524288
 3038 006a 1361     		str	r3, [r2, #16]
 950:Drivers/STM32F7xx_HAL_Driver/Src/stm32f7xx_ll_usb.c ****       USBx_INEP(epnum)->DIEPTSIZ &= ~(USB_OTG_DIEPTSIZ_XFRSIZ);
 3039              		.loc 1 950 34
 3040 006c 3B69     		ldr	r3, [r7, #16]
 3041 006e 5A01     		lsls	r2, r3, #5
 3042 0070 7B69     		ldr	r3, [r7, #20]
 3043 0072 1344     		add	r3, r3, r2
 3044 0074 03F51063 		add	r3, r3, #2304
 3045 0078 1A69     		ldr	r2, [r3, #16]
 3046 007a 3B69     		ldr	r3, [r7, #16]
 3047 007c 5901     		lsls	r1, r3, #5
 3048 007e 7B69     		ldr	r3, [r7, #20]
 3049 0080 0B44     		add	r3, r3, r1
 3050 0082 03F51063 		add	r3, r3, #2304
 3051 0086 1946     		mov	r1, r3
 3052 0088 8A4B     		ldr	r3, .L149+4
 3053 008a 1340     		ands	r3, r3, r2
ARM GAS  C:\Users\jisu8\AppData\Local\Temp\cc8f41y5.s 			page 71


 3054 008c 0B61     		str	r3, [r1, #16]
 3055 008e 4EE0     		b	.L141
 3056              	.L140:
 951:Drivers/STM32F7xx_HAL_Driver/Src/stm32f7xx_ll_usb.c ****     }
 952:Drivers/STM32F7xx_HAL_Driver/Src/stm32f7xx_ll_usb.c ****     else
 953:Drivers/STM32F7xx_HAL_Driver/Src/stm32f7xx_ll_usb.c ****     {
 954:Drivers/STM32F7xx_HAL_Driver/Src/stm32f7xx_ll_usb.c ****       /* Program the transfer size and packet count
 955:Drivers/STM32F7xx_HAL_Driver/Src/stm32f7xx_ll_usb.c ****       * as follows: xfersize = N * maxpacket +
 956:Drivers/STM32F7xx_HAL_Driver/Src/stm32f7xx_ll_usb.c ****       * short_packet pktcnt = N + (short_packet
 957:Drivers/STM32F7xx_HAL_Driver/Src/stm32f7xx_ll_usb.c ****       * exist ? 1 : 0)
 958:Drivers/STM32F7xx_HAL_Driver/Src/stm32f7xx_ll_usb.c ****       */
 959:Drivers/STM32F7xx_HAL_Driver/Src/stm32f7xx_ll_usb.c ****       USBx_INEP(epnum)->DIEPTSIZ &= ~(USB_OTG_DIEPTSIZ_XFRSIZ);
 3057              		.loc 1 959 34
 3058 0090 3B69     		ldr	r3, [r7, #16]
 3059 0092 5A01     		lsls	r2, r3, #5
 3060 0094 7B69     		ldr	r3, [r7, #20]
 3061 0096 1344     		add	r3, r3, r2
 3062 0098 03F51063 		add	r3, r3, #2304
 3063 009c 1A69     		ldr	r2, [r3, #16]
 3064 009e 3B69     		ldr	r3, [r7, #16]
 3065 00a0 5901     		lsls	r1, r3, #5
 3066 00a2 7B69     		ldr	r3, [r7, #20]
 3067 00a4 0B44     		add	r3, r3, r1
 3068 00a6 03F51063 		add	r3, r3, #2304
 3069 00aa 1946     		mov	r1, r3
 3070 00ac 814B     		ldr	r3, .L149+4
 3071 00ae 1340     		ands	r3, r3, r2
 3072 00b0 0B61     		str	r3, [r1, #16]
 960:Drivers/STM32F7xx_HAL_Driver/Src/stm32f7xx_ll_usb.c ****       USBx_INEP(epnum)->DIEPTSIZ &= ~(USB_OTG_DIEPTSIZ_PKTCNT);
 3073              		.loc 1 960 34
 3074 00b2 3B69     		ldr	r3, [r7, #16]
 3075 00b4 5A01     		lsls	r2, r3, #5
 3076 00b6 7B69     		ldr	r3, [r7, #20]
 3077 00b8 1344     		add	r3, r3, r2
 3078 00ba 03F51063 		add	r3, r3, #2304
 3079 00be 1A69     		ldr	r2, [r3, #16]
 3080 00c0 3B69     		ldr	r3, [r7, #16]
 3081 00c2 5901     		lsls	r1, r3, #5
 3082 00c4 7B69     		ldr	r3, [r7, #20]
 3083 00c6 0B44     		add	r3, r3, r1
 3084 00c8 03F51063 		add	r3, r3, #2304
 3085 00cc 1946     		mov	r1, r3
 3086 00ce 784B     		ldr	r3, .L149
 3087 00d0 1340     		ands	r3, r3, r2
 3088 00d2 0B61     		str	r3, [r1, #16]
 961:Drivers/STM32F7xx_HAL_Driver/Src/stm32f7xx_ll_usb.c **** 
 962:Drivers/STM32F7xx_HAL_Driver/Src/stm32f7xx_ll_usb.c ****       if (ep->xfer_len > ep->maxpacket)
 3089              		.loc 1 962 13
 3090 00d4 BB68     		ldr	r3, [r7, #8]
 3091 00d6 9A69     		ldr	r2, [r3, #24]
 3092              		.loc 1 962 28
 3093 00d8 BB68     		ldr	r3, [r7, #8]
 3094 00da DB68     		ldr	r3, [r3, #12]
 3095              		.loc 1 962 10
 3096 00dc 9A42     		cmp	r2, r3
 3097 00de 03D9     		bls	.L142
 963:Drivers/STM32F7xx_HAL_Driver/Src/stm32f7xx_ll_usb.c ****       {
ARM GAS  C:\Users\jisu8\AppData\Local\Temp\cc8f41y5.s 			page 72


 964:Drivers/STM32F7xx_HAL_Driver/Src/stm32f7xx_ll_usb.c ****         ep->xfer_len = ep->maxpacket;
 3098              		.loc 1 964 26
 3099 00e0 BB68     		ldr	r3, [r7, #8]
 3100 00e2 DA68     		ldr	r2, [r3, #12]
 3101              		.loc 1 964 22
 3102 00e4 BB68     		ldr	r3, [r7, #8]
 3103 00e6 9A61     		str	r2, [r3, #24]
 3104              	.L142:
 965:Drivers/STM32F7xx_HAL_Driver/Src/stm32f7xx_ll_usb.c ****       }
 966:Drivers/STM32F7xx_HAL_Driver/Src/stm32f7xx_ll_usb.c ****       USBx_INEP(epnum)->DIEPTSIZ |= (USB_OTG_DIEPTSIZ_PKTCNT & (1U << 19));
 3105              		.loc 1 966 34
 3106 00e8 3B69     		ldr	r3, [r7, #16]
 3107 00ea 5A01     		lsls	r2, r3, #5
 3108 00ec 7B69     		ldr	r3, [r7, #20]
 3109 00ee 1344     		add	r3, r3, r2
 3110 00f0 03F51063 		add	r3, r3, #2304
 3111 00f4 1B69     		ldr	r3, [r3, #16]
 3112 00f6 3A69     		ldr	r2, [r7, #16]
 3113 00f8 5101     		lsls	r1, r2, #5
 3114 00fa 7A69     		ldr	r2, [r7, #20]
 3115 00fc 0A44     		add	r2, r2, r1
 3116 00fe 02F51062 		add	r2, r2, #2304
 3117 0102 43F40023 		orr	r3, r3, #524288
 3118 0106 1361     		str	r3, [r2, #16]
 967:Drivers/STM32F7xx_HAL_Driver/Src/stm32f7xx_ll_usb.c ****       USBx_INEP(epnum)->DIEPTSIZ |= (USB_OTG_DIEPTSIZ_XFRSIZ & ep->xfer_len);
 3119              		.loc 1 967 34
 3120 0108 3B69     		ldr	r3, [r7, #16]
 3121 010a 5A01     		lsls	r2, r3, #5
 3122 010c 7B69     		ldr	r3, [r7, #20]
 3123 010e 1344     		add	r3, r3, r2
 3124 0110 03F51063 		add	r3, r3, #2304
 3125 0114 1A69     		ldr	r2, [r3, #16]
 3126              		.loc 1 967 66
 3127 0116 BB68     		ldr	r3, [r7, #8]
 3128 0118 9B69     		ldr	r3, [r3, #24]
 3129              		.loc 1 967 62
 3130 011a C3F31203 		ubfx	r3, r3, #0, #19
 3131              		.loc 1 967 34
 3132 011e 3969     		ldr	r1, [r7, #16]
 3133 0120 4801     		lsls	r0, r1, #5
 3134 0122 7969     		ldr	r1, [r7, #20]
 3135 0124 0144     		add	r1, r1, r0
 3136 0126 01F51061 		add	r1, r1, #2304
 3137 012a 1343     		orrs	r3, r3, r2
 3138 012c 0B61     		str	r3, [r1, #16]
 3139              	.L141:
 968:Drivers/STM32F7xx_HAL_Driver/Src/stm32f7xx_ll_usb.c ****     }
 969:Drivers/STM32F7xx_HAL_Driver/Src/stm32f7xx_ll_usb.c **** 
 970:Drivers/STM32F7xx_HAL_Driver/Src/stm32f7xx_ll_usb.c ****     if (dma == 1U)
 3140              		.loc 1 970 8
 3141 012e FB79     		ldrb	r3, [r7, #7]	@ zero_extendqisi2
 3142 0130 012B     		cmp	r3, #1
 3143 0132 1ED1     		bne	.L143
 971:Drivers/STM32F7xx_HAL_Driver/Src/stm32f7xx_ll_usb.c ****     {
 972:Drivers/STM32F7xx_HAL_Driver/Src/stm32f7xx_ll_usb.c ****       if ((uint32_t)ep->dma_addr != 0U)
 3144              		.loc 1 972 23
 3145 0134 BB68     		ldr	r3, [r7, #8]
ARM GAS  C:\Users\jisu8\AppData\Local\Temp\cc8f41y5.s 			page 73


 3146 0136 5B69     		ldr	r3, [r3, #20]
 3147              		.loc 1 972 10
 3148 0138 002B     		cmp	r3, #0
 3149 013a 09D0     		beq	.L144
 973:Drivers/STM32F7xx_HAL_Driver/Src/stm32f7xx_ll_usb.c ****       {
 974:Drivers/STM32F7xx_HAL_Driver/Src/stm32f7xx_ll_usb.c ****         USBx_INEP(epnum)->DIEPDMA = (uint32_t)(ep->dma_addr);
 3150              		.loc 1 974 9
 3151 013c 3B69     		ldr	r3, [r7, #16]
 3152 013e 5A01     		lsls	r2, r3, #5
 3153 0140 7B69     		ldr	r3, [r7, #20]
 3154 0142 1344     		add	r3, r3, r2
 3155 0144 03F51063 		add	r3, r3, #2304
 3156 0148 1A46     		mov	r2, r3
 3157              		.loc 1 974 50
 3158 014a BB68     		ldr	r3, [r7, #8]
 3159 014c 5B69     		ldr	r3, [r3, #20]
 3160              		.loc 1 974 35
 3161 014e 5361     		str	r3, [r2, #20]
 3162              	.L144:
 975:Drivers/STM32F7xx_HAL_Driver/Src/stm32f7xx_ll_usb.c ****       }
 976:Drivers/STM32F7xx_HAL_Driver/Src/stm32f7xx_ll_usb.c **** 
 977:Drivers/STM32F7xx_HAL_Driver/Src/stm32f7xx_ll_usb.c ****       /* EP enable, IN data in FIFO */
 978:Drivers/STM32F7xx_HAL_Driver/Src/stm32f7xx_ll_usb.c ****       USBx_INEP(epnum)->DIEPCTL |= (USB_OTG_DIEPCTL_CNAK | USB_OTG_DIEPCTL_EPENA);
 3163              		.loc 1 978 33
 3164 0150 3B69     		ldr	r3, [r7, #16]
 3165 0152 5A01     		lsls	r2, r3, #5
 3166 0154 7B69     		ldr	r3, [r7, #20]
 3167 0156 1344     		add	r3, r3, r2
 3168 0158 03F51063 		add	r3, r3, #2304
 3169 015c 1B68     		ldr	r3, [r3]
 3170 015e 3A69     		ldr	r2, [r7, #16]
 3171 0160 5101     		lsls	r1, r2, #5
 3172 0162 7A69     		ldr	r2, [r7, #20]
 3173 0164 0A44     		add	r2, r2, r1
 3174 0166 02F51062 		add	r2, r2, #2304
 3175 016a 43F00443 		orr	r3, r3, #-2080374784
 3176 016e 1360     		str	r3, [r2]
 3177 0170 97E0     		b	.L145
 3178              	.L143:
 979:Drivers/STM32F7xx_HAL_Driver/Src/stm32f7xx_ll_usb.c ****     }
 980:Drivers/STM32F7xx_HAL_Driver/Src/stm32f7xx_ll_usb.c ****     else
 981:Drivers/STM32F7xx_HAL_Driver/Src/stm32f7xx_ll_usb.c ****     {
 982:Drivers/STM32F7xx_HAL_Driver/Src/stm32f7xx_ll_usb.c ****       /* EP enable, IN data in FIFO */
 983:Drivers/STM32F7xx_HAL_Driver/Src/stm32f7xx_ll_usb.c ****       USBx_INEP(epnum)->DIEPCTL |= (USB_OTG_DIEPCTL_CNAK | USB_OTG_DIEPCTL_EPENA);
 3179              		.loc 1 983 33
 3180 0172 3B69     		ldr	r3, [r7, #16]
 3181 0174 5A01     		lsls	r2, r3, #5
 3182 0176 7B69     		ldr	r3, [r7, #20]
 3183 0178 1344     		add	r3, r3, r2
 3184 017a 03F51063 		add	r3, r3, #2304
 3185 017e 1B68     		ldr	r3, [r3]
 3186 0180 3A69     		ldr	r2, [r7, #16]
 3187 0182 5101     		lsls	r1, r2, #5
 3188 0184 7A69     		ldr	r2, [r7, #20]
 3189 0186 0A44     		add	r2, r2, r1
 3190 0188 02F51062 		add	r2, r2, #2304
 3191 018c 43F00443 		orr	r3, r3, #-2080374784
ARM GAS  C:\Users\jisu8\AppData\Local\Temp\cc8f41y5.s 			page 74


 3192 0190 1360     		str	r3, [r2]
 984:Drivers/STM32F7xx_HAL_Driver/Src/stm32f7xx_ll_usb.c **** 
 985:Drivers/STM32F7xx_HAL_Driver/Src/stm32f7xx_ll_usb.c ****       /* Enable the Tx FIFO Empty Interrupt for this EP */
 986:Drivers/STM32F7xx_HAL_Driver/Src/stm32f7xx_ll_usb.c ****       if (ep->xfer_len > 0U)
 3193              		.loc 1 986 13
 3194 0192 BB68     		ldr	r3, [r7, #8]
 3195 0194 9B69     		ldr	r3, [r3, #24]
 3196              		.loc 1 986 10
 3197 0196 002B     		cmp	r3, #0
 3198 0198 00F08380 		beq	.L145
 987:Drivers/STM32F7xx_HAL_Driver/Src/stm32f7xx_ll_usb.c ****       {
 988:Drivers/STM32F7xx_HAL_Driver/Src/stm32f7xx_ll_usb.c ****         USBx_DEVICE->DIEPEMPMSK |= 1UL << (ep->num & EP_ADDR_MSK);
 3199              		.loc 1 988 33
 3200 019c 7B69     		ldr	r3, [r7, #20]
 3201 019e 03F50063 		add	r3, r3, #2048
 3202 01a2 5A6B     		ldr	r2, [r3, #52]
 3203              		.loc 1 988 46
 3204 01a4 BB68     		ldr	r3, [r7, #8]
 3205 01a6 1B78     		ldrb	r3, [r3]	@ zero_extendqisi2
 3206              		.loc 1 988 52
 3207 01a8 03F00F03 		and	r3, r3, #15
 3208              		.loc 1 988 40
 3209 01ac 0121     		movs	r1, #1
 3210 01ae 01FA03F3 		lsl	r3, r1, r3
 3211              		.loc 1 988 33
 3212 01b2 7969     		ldr	r1, [r7, #20]
 3213 01b4 01F50061 		add	r1, r1, #2048
 3214 01b8 1343     		orrs	r3, r3, r2
 3215 01ba 4B63     		str	r3, [r1, #52]
 3216 01bc 71E0     		b	.L145
 3217              	.L139:
 989:Drivers/STM32F7xx_HAL_Driver/Src/stm32f7xx_ll_usb.c ****       }
 990:Drivers/STM32F7xx_HAL_Driver/Src/stm32f7xx_ll_usb.c ****     }
 991:Drivers/STM32F7xx_HAL_Driver/Src/stm32f7xx_ll_usb.c ****   }
 992:Drivers/STM32F7xx_HAL_Driver/Src/stm32f7xx_ll_usb.c ****   else /* OUT endpoint */
 993:Drivers/STM32F7xx_HAL_Driver/Src/stm32f7xx_ll_usb.c ****   {
 994:Drivers/STM32F7xx_HAL_Driver/Src/stm32f7xx_ll_usb.c ****     /* Program the transfer size and packet count as follows:
 995:Drivers/STM32F7xx_HAL_Driver/Src/stm32f7xx_ll_usb.c ****     * pktcnt = N
 996:Drivers/STM32F7xx_HAL_Driver/Src/stm32f7xx_ll_usb.c ****     * xfersize = N * maxpacket
 997:Drivers/STM32F7xx_HAL_Driver/Src/stm32f7xx_ll_usb.c ****     */
 998:Drivers/STM32F7xx_HAL_Driver/Src/stm32f7xx_ll_usb.c ****     USBx_OUTEP(epnum)->DOEPTSIZ &= ~(USB_OTG_DOEPTSIZ_XFRSIZ);
 3218              		.loc 1 998 33
 3219 01be 3B69     		ldr	r3, [r7, #16]
 3220 01c0 5A01     		lsls	r2, r3, #5
 3221 01c2 7B69     		ldr	r3, [r7, #20]
 3222 01c4 1344     		add	r3, r3, r2
 3223 01c6 03F53063 		add	r3, r3, #2816
 3224 01ca 1A69     		ldr	r2, [r3, #16]
 3225 01cc 3B69     		ldr	r3, [r7, #16]
 3226 01ce 5901     		lsls	r1, r3, #5
 3227 01d0 7B69     		ldr	r3, [r7, #20]
 3228 01d2 0B44     		add	r3, r3, r1
 3229 01d4 03F53063 		add	r3, r3, #2816
 3230 01d8 1946     		mov	r1, r3
 3231 01da 364B     		ldr	r3, .L149+4
 3232 01dc 1340     		ands	r3, r3, r2
 3233 01de 0B61     		str	r3, [r1, #16]
ARM GAS  C:\Users\jisu8\AppData\Local\Temp\cc8f41y5.s 			page 75


 999:Drivers/STM32F7xx_HAL_Driver/Src/stm32f7xx_ll_usb.c ****     USBx_OUTEP(epnum)->DOEPTSIZ &= ~(USB_OTG_DOEPTSIZ_PKTCNT);
 3234              		.loc 1 999 33
 3235 01e0 3B69     		ldr	r3, [r7, #16]
 3236 01e2 5A01     		lsls	r2, r3, #5
 3237 01e4 7B69     		ldr	r3, [r7, #20]
 3238 01e6 1344     		add	r3, r3, r2
 3239 01e8 03F53063 		add	r3, r3, #2816
 3240 01ec 1A69     		ldr	r2, [r3, #16]
 3241 01ee 3B69     		ldr	r3, [r7, #16]
 3242 01f0 5901     		lsls	r1, r3, #5
 3243 01f2 7B69     		ldr	r3, [r7, #20]
 3244 01f4 0B44     		add	r3, r3, r1
 3245 01f6 03F53063 		add	r3, r3, #2816
 3246 01fa 1946     		mov	r1, r3
 3247 01fc 2C4B     		ldr	r3, .L149
 3248 01fe 1340     		ands	r3, r3, r2
 3249 0200 0B61     		str	r3, [r1, #16]
1000:Drivers/STM32F7xx_HAL_Driver/Src/stm32f7xx_ll_usb.c **** 
1001:Drivers/STM32F7xx_HAL_Driver/Src/stm32f7xx_ll_usb.c ****     if (ep->xfer_len > 0U)
 3250              		.loc 1 1001 11
 3251 0202 BB68     		ldr	r3, [r7, #8]
 3252 0204 9B69     		ldr	r3, [r3, #24]
 3253              		.loc 1 1001 8
 3254 0206 002B     		cmp	r3, #0
 3255 0208 03D0     		beq	.L146
1002:Drivers/STM32F7xx_HAL_Driver/Src/stm32f7xx_ll_usb.c ****     {
1003:Drivers/STM32F7xx_HAL_Driver/Src/stm32f7xx_ll_usb.c ****       ep->xfer_len = ep->maxpacket;
 3256              		.loc 1 1003 24
 3257 020a BB68     		ldr	r3, [r7, #8]
 3258 020c DA68     		ldr	r2, [r3, #12]
 3259              		.loc 1 1003 20
 3260 020e BB68     		ldr	r3, [r7, #8]
 3261 0210 9A61     		str	r2, [r3, #24]
 3262              	.L146:
1004:Drivers/STM32F7xx_HAL_Driver/Src/stm32f7xx_ll_usb.c ****     }
1005:Drivers/STM32F7xx_HAL_Driver/Src/stm32f7xx_ll_usb.c **** 
1006:Drivers/STM32F7xx_HAL_Driver/Src/stm32f7xx_ll_usb.c ****     /* Store transfer size, for EP0 this is equal to endpoint max packet size */
1007:Drivers/STM32F7xx_HAL_Driver/Src/stm32f7xx_ll_usb.c ****     ep->xfer_size = ep->maxpacket;
 3263              		.loc 1 1007 23
 3264 0212 BB68     		ldr	r3, [r7, #8]
 3265 0214 DA68     		ldr	r2, [r3, #12]
 3266              		.loc 1 1007 19
 3267 0216 BB68     		ldr	r3, [r7, #8]
 3268 0218 DA61     		str	r2, [r3, #28]
1008:Drivers/STM32F7xx_HAL_Driver/Src/stm32f7xx_ll_usb.c **** 
1009:Drivers/STM32F7xx_HAL_Driver/Src/stm32f7xx_ll_usb.c ****     USBx_OUTEP(epnum)->DOEPTSIZ |= (USB_OTG_DOEPTSIZ_PKTCNT & (1U << 19));
 3269              		.loc 1 1009 33
 3270 021a 3B69     		ldr	r3, [r7, #16]
 3271 021c 5A01     		lsls	r2, r3, #5
 3272 021e 7B69     		ldr	r3, [r7, #20]
 3273 0220 1344     		add	r3, r3, r2
 3274 0222 03F53063 		add	r3, r3, #2816
 3275 0226 1B69     		ldr	r3, [r3, #16]
 3276 0228 3A69     		ldr	r2, [r7, #16]
 3277 022a 5101     		lsls	r1, r2, #5
 3278 022c 7A69     		ldr	r2, [r7, #20]
 3279 022e 0A44     		add	r2, r2, r1
ARM GAS  C:\Users\jisu8\AppData\Local\Temp\cc8f41y5.s 			page 76


 3280 0230 02F53062 		add	r2, r2, #2816
 3281 0234 43F40023 		orr	r3, r3, #524288
 3282 0238 1361     		str	r3, [r2, #16]
1010:Drivers/STM32F7xx_HAL_Driver/Src/stm32f7xx_ll_usb.c ****     USBx_OUTEP(epnum)->DOEPTSIZ |= (USB_OTG_DOEPTSIZ_XFRSIZ & ep->xfer_size);
 3283              		.loc 1 1010 33
 3284 023a 3B69     		ldr	r3, [r7, #16]
 3285 023c 5A01     		lsls	r2, r3, #5
 3286 023e 7B69     		ldr	r3, [r7, #20]
 3287 0240 1344     		add	r3, r3, r2
 3288 0242 03F53063 		add	r3, r3, #2816
 3289 0246 1A69     		ldr	r2, [r3, #16]
 3290              		.loc 1 1010 65
 3291 0248 BB68     		ldr	r3, [r7, #8]
 3292 024a DB69     		ldr	r3, [r3, #28]
 3293              		.loc 1 1010 61
 3294 024c C3F31203 		ubfx	r3, r3, #0, #19
 3295              		.loc 1 1010 33
 3296 0250 3969     		ldr	r1, [r7, #16]
 3297 0252 4801     		lsls	r0, r1, #5
 3298 0254 7969     		ldr	r1, [r7, #20]
 3299 0256 0144     		add	r1, r1, r0
 3300 0258 01F53061 		add	r1, r1, #2816
 3301 025c 1343     		orrs	r3, r3, r2
 3302 025e 0B61     		str	r3, [r1, #16]
1011:Drivers/STM32F7xx_HAL_Driver/Src/stm32f7xx_ll_usb.c **** 
1012:Drivers/STM32F7xx_HAL_Driver/Src/stm32f7xx_ll_usb.c ****     if (dma == 1U)
 3303              		.loc 1 1012 8
 3304 0260 FB79     		ldrb	r3, [r7, #7]	@ zero_extendqisi2
 3305 0262 012B     		cmp	r3, #1
 3306 0264 0DD1     		bne	.L147
1013:Drivers/STM32F7xx_HAL_Driver/Src/stm32f7xx_ll_usb.c ****     {
1014:Drivers/STM32F7xx_HAL_Driver/Src/stm32f7xx_ll_usb.c ****       if ((uint32_t)ep->xfer_buff != 0U)
 3307              		.loc 1 1014 23
 3308 0266 BB68     		ldr	r3, [r7, #8]
 3309 0268 1B69     		ldr	r3, [r3, #16]
 3310              		.loc 1 1014 10
 3311 026a 002B     		cmp	r3, #0
 3312 026c 09D0     		beq	.L147
1015:Drivers/STM32F7xx_HAL_Driver/Src/stm32f7xx_ll_usb.c ****       {
1016:Drivers/STM32F7xx_HAL_Driver/Src/stm32f7xx_ll_usb.c ****         USBx_OUTEP(epnum)->DOEPDMA = (uint32_t)(ep->xfer_buff);
 3313              		.loc 1 1016 51
 3314 026e BB68     		ldr	r3, [r7, #8]
 3315 0270 1969     		ldr	r1, [r3, #16]
 3316              		.loc 1 1016 9
 3317 0272 3B69     		ldr	r3, [r7, #16]
 3318 0274 5A01     		lsls	r2, r3, #5
 3319 0276 7B69     		ldr	r3, [r7, #20]
 3320 0278 1344     		add	r3, r3, r2
 3321 027a 03F53063 		add	r3, r3, #2816
 3322              		.loc 1 1016 38
 3323 027e 0A46     		mov	r2, r1
 3324              		.loc 1 1016 36
 3325 0280 5A61     		str	r2, [r3, #20]
 3326              	.L147:
1017:Drivers/STM32F7xx_HAL_Driver/Src/stm32f7xx_ll_usb.c ****       }
1018:Drivers/STM32F7xx_HAL_Driver/Src/stm32f7xx_ll_usb.c ****     }
1019:Drivers/STM32F7xx_HAL_Driver/Src/stm32f7xx_ll_usb.c **** 
ARM GAS  C:\Users\jisu8\AppData\Local\Temp\cc8f41y5.s 			page 77


1020:Drivers/STM32F7xx_HAL_Driver/Src/stm32f7xx_ll_usb.c ****     /* EP enable */
1021:Drivers/STM32F7xx_HAL_Driver/Src/stm32f7xx_ll_usb.c ****     USBx_OUTEP(epnum)->DOEPCTL |= (USB_OTG_DOEPCTL_CNAK | USB_OTG_DOEPCTL_EPENA);
 3327              		.loc 1 1021 32
 3328 0282 3B69     		ldr	r3, [r7, #16]
 3329 0284 5A01     		lsls	r2, r3, #5
 3330 0286 7B69     		ldr	r3, [r7, #20]
 3331 0288 1344     		add	r3, r3, r2
 3332 028a 03F53063 		add	r3, r3, #2816
 3333 028e 1B68     		ldr	r3, [r3]
 3334 0290 3A69     		ldr	r2, [r7, #16]
 3335 0292 5101     		lsls	r1, r2, #5
 3336 0294 7A69     		ldr	r2, [r7, #20]
 3337 0296 0A44     		add	r2, r2, r1
 3338 0298 02F53062 		add	r2, r2, #2816
 3339 029c 43F00443 		orr	r3, r3, #-2080374784
 3340 02a0 1360     		str	r3, [r2]
 3341              	.L145:
1022:Drivers/STM32F7xx_HAL_Driver/Src/stm32f7xx_ll_usb.c ****   }
1023:Drivers/STM32F7xx_HAL_Driver/Src/stm32f7xx_ll_usb.c **** 
1024:Drivers/STM32F7xx_HAL_Driver/Src/stm32f7xx_ll_usb.c ****   return HAL_OK;
 3342              		.loc 1 1024 10
 3343 02a2 0023     		movs	r3, #0
1025:Drivers/STM32F7xx_HAL_Driver/Src/stm32f7xx_ll_usb.c **** }
 3344              		.loc 1 1025 1
 3345 02a4 1846     		mov	r0, r3
 3346 02a6 1C37     		adds	r7, r7, #28
 3347              	.LCFI95:
 3348              		.cfi_def_cfa_offset 4
 3349 02a8 BD46     		mov	sp, r7
 3350              	.LCFI96:
 3351              		.cfi_def_cfa_register 13
 3352              		@ sp needed
 3353 02aa 5DF8047B 		ldr	r7, [sp], #4
 3354              	.LCFI97:
 3355              		.cfi_restore 7
 3356              		.cfi_def_cfa_offset 0
 3357 02ae 7047     		bx	lr
 3358              	.L150:
 3359              		.align	2
 3360              	.L149:
 3361 02b0 FFFF07E0 		.word	-536346625
 3362 02b4 0000F8FF 		.word	-524288
 3363              		.cfi_endproc
 3364              	.LFE156:
 3366              		.section	.text.USB_EPStopXfer,"ax",%progbits
 3367              		.align	1
 3368              		.global	USB_EPStopXfer
 3369              		.syntax unified
 3370              		.thumb
 3371              		.thumb_func
 3373              	USB_EPStopXfer:
 3374              	.LFB157:
1026:Drivers/STM32F7xx_HAL_Driver/Src/stm32f7xx_ll_usb.c **** 
1027:Drivers/STM32F7xx_HAL_Driver/Src/stm32f7xx_ll_usb.c **** 
1028:Drivers/STM32F7xx_HAL_Driver/Src/stm32f7xx_ll_usb.c **** /**
1029:Drivers/STM32F7xx_HAL_Driver/Src/stm32f7xx_ll_usb.c ****    * @brief  USB_EPStoptXfer  Stop transfer on an EP
1030:Drivers/STM32F7xx_HAL_Driver/Src/stm32f7xx_ll_usb.c ****    * @param  USBx  usb device instance
ARM GAS  C:\Users\jisu8\AppData\Local\Temp\cc8f41y5.s 			page 78


1031:Drivers/STM32F7xx_HAL_Driver/Src/stm32f7xx_ll_usb.c ****    * @param  ep pointer to endpoint structure
1032:Drivers/STM32F7xx_HAL_Driver/Src/stm32f7xx_ll_usb.c ****    * @retval HAL status
1033:Drivers/STM32F7xx_HAL_Driver/Src/stm32f7xx_ll_usb.c ****    */
1034:Drivers/STM32F7xx_HAL_Driver/Src/stm32f7xx_ll_usb.c **** HAL_StatusTypeDef USB_EPStopXfer(USB_OTG_GlobalTypeDef *USBx, USB_OTG_EPTypeDef *ep)
1035:Drivers/STM32F7xx_HAL_Driver/Src/stm32f7xx_ll_usb.c **** {
 3375              		.loc 1 1035 1
 3376              		.cfi_startproc
 3377              		@ args = 0, pretend = 0, frame = 24
 3378              		@ frame_needed = 1, uses_anonymous_args = 0
 3379              		@ link register save eliminated.
 3380 0000 80B4     		push	{r7}
 3381              	.LCFI98:
 3382              		.cfi_def_cfa_offset 4
 3383              		.cfi_offset 7, -4
 3384 0002 87B0     		sub	sp, sp, #28
 3385              	.LCFI99:
 3386              		.cfi_def_cfa_offset 32
 3387 0004 00AF     		add	r7, sp, #0
 3388              	.LCFI100:
 3389              		.cfi_def_cfa_register 7
 3390 0006 7860     		str	r0, [r7, #4]
 3391 0008 3960     		str	r1, [r7]
1036:Drivers/STM32F7xx_HAL_Driver/Src/stm32f7xx_ll_usb.c ****   __IO uint32_t count = 0U;
 3392              		.loc 1 1036 17
 3393 000a 0023     		movs	r3, #0
 3394 000c FB60     		str	r3, [r7, #12]
1037:Drivers/STM32F7xx_HAL_Driver/Src/stm32f7xx_ll_usb.c ****   HAL_StatusTypeDef ret = HAL_OK;
 3395              		.loc 1 1037 21
 3396 000e 0023     		movs	r3, #0
 3397 0010 FB75     		strb	r3, [r7, #23]
1038:Drivers/STM32F7xx_HAL_Driver/Src/stm32f7xx_ll_usb.c ****   uint32_t USBx_BASE = (uint32_t)USBx;
 3398              		.loc 1 1038 12
 3399 0012 7B68     		ldr	r3, [r7, #4]
 3400 0014 3B61     		str	r3, [r7, #16]
1039:Drivers/STM32F7xx_HAL_Driver/Src/stm32f7xx_ll_usb.c **** 
1040:Drivers/STM32F7xx_HAL_Driver/Src/stm32f7xx_ll_usb.c ****   /* IN endpoint */
1041:Drivers/STM32F7xx_HAL_Driver/Src/stm32f7xx_ll_usb.c ****   if (ep->is_in == 1U)
 3401              		.loc 1 1041 9
 3402 0016 3B68     		ldr	r3, [r7]
 3403 0018 5B78     		ldrb	r3, [r3, #1]	@ zero_extendqisi2
 3404              		.loc 1 1041 6
 3405 001a 012B     		cmp	r3, #1
 3406 001c 4AD1     		bne	.L152
1042:Drivers/STM32F7xx_HAL_Driver/Src/stm32f7xx_ll_usb.c ****   {
1043:Drivers/STM32F7xx_HAL_Driver/Src/stm32f7xx_ll_usb.c ****     /* EP enable, IN data in FIFO */
1044:Drivers/STM32F7xx_HAL_Driver/Src/stm32f7xx_ll_usb.c ****     if (((USBx_INEP(ep->num)->DIEPCTL) & USB_OTG_DIEPCTL_EPENA) == USB_OTG_DIEPCTL_EPENA)
 3407              		.loc 1 1044 11
 3408 001e 3B68     		ldr	r3, [r7]
 3409 0020 1B78     		ldrb	r3, [r3]	@ zero_extendqisi2
 3410 0022 5A01     		lsls	r2, r3, #5
 3411 0024 3B69     		ldr	r3, [r7, #16]
 3412 0026 1344     		add	r3, r3, r2
 3413 0028 03F51063 		add	r3, r3, #2304
 3414              		.loc 1 1044 29
 3415 002c 1B68     		ldr	r3, [r3]
 3416              		.loc 1 1044 40
 3417 002e 03F00043 		and	r3, r3, #-2147483648
ARM GAS  C:\Users\jisu8\AppData\Local\Temp\cc8f41y5.s 			page 79


 3418              		.loc 1 1044 8
 3419 0032 B3F1004F 		cmp	r3, #-2147483648
 3420 0036 40F08680 		bne	.L156
1045:Drivers/STM32F7xx_HAL_Driver/Src/stm32f7xx_ll_usb.c ****     {
1046:Drivers/STM32F7xx_HAL_Driver/Src/stm32f7xx_ll_usb.c ****       USBx_INEP(ep->num)->DIEPCTL |= (USB_OTG_DIEPCTL_SNAK);
 3421              		.loc 1 1046 7
 3422 003a 3B68     		ldr	r3, [r7]
 3423 003c 1B78     		ldrb	r3, [r3]	@ zero_extendqisi2
 3424              		.loc 1 1046 35
 3425 003e 5A01     		lsls	r2, r3, #5
 3426 0040 3B69     		ldr	r3, [r7, #16]
 3427 0042 1344     		add	r3, r3, r2
 3428 0044 03F51063 		add	r3, r3, #2304
 3429 0048 1B68     		ldr	r3, [r3]
 3430              		.loc 1 1046 7
 3431 004a 3A68     		ldr	r2, [r7]
 3432 004c 1278     		ldrb	r2, [r2]	@ zero_extendqisi2
 3433              		.loc 1 1046 35
 3434 004e 5101     		lsls	r1, r2, #5
 3435 0050 3A69     		ldr	r2, [r7, #16]
 3436 0052 0A44     		add	r2, r2, r1
 3437 0054 02F51062 		add	r2, r2, #2304
 3438 0058 43F00063 		orr	r3, r3, #134217728
 3439 005c 1360     		str	r3, [r2]
1047:Drivers/STM32F7xx_HAL_Driver/Src/stm32f7xx_ll_usb.c ****       USBx_INEP(ep->num)->DIEPCTL |= (USB_OTG_DIEPCTL_EPDIS);
 3440              		.loc 1 1047 7
 3441 005e 3B68     		ldr	r3, [r7]
 3442 0060 1B78     		ldrb	r3, [r3]	@ zero_extendqisi2
 3443              		.loc 1 1047 35
 3444 0062 5A01     		lsls	r2, r3, #5
 3445 0064 3B69     		ldr	r3, [r7, #16]
 3446 0066 1344     		add	r3, r3, r2
 3447 0068 03F51063 		add	r3, r3, #2304
 3448 006c 1B68     		ldr	r3, [r3]
 3449              		.loc 1 1047 7
 3450 006e 3A68     		ldr	r2, [r7]
 3451 0070 1278     		ldrb	r2, [r2]	@ zero_extendqisi2
 3452              		.loc 1 1047 35
 3453 0072 5101     		lsls	r1, r2, #5
 3454 0074 3A69     		ldr	r2, [r7, #16]
 3455 0076 0A44     		add	r2, r2, r1
 3456 0078 02F51062 		add	r2, r2, #2304
 3457 007c 43F08043 		orr	r3, r3, #1073741824
 3458 0080 1360     		str	r3, [r2]
 3459              	.L155:
1048:Drivers/STM32F7xx_HAL_Driver/Src/stm32f7xx_ll_usb.c **** 
1049:Drivers/STM32F7xx_HAL_Driver/Src/stm32f7xx_ll_usb.c ****       do
1050:Drivers/STM32F7xx_HAL_Driver/Src/stm32f7xx_ll_usb.c ****       {
1051:Drivers/STM32F7xx_HAL_Driver/Src/stm32f7xx_ll_usb.c ****         count++;
 3460              		.loc 1 1051 14
 3461 0082 FB68     		ldr	r3, [r7, #12]
 3462 0084 0133     		adds	r3, r3, #1
 3463 0086 FB60     		str	r3, [r7, #12]
1052:Drivers/STM32F7xx_HAL_Driver/Src/stm32f7xx_ll_usb.c **** 
1053:Drivers/STM32F7xx_HAL_Driver/Src/stm32f7xx_ll_usb.c ****         if (count > 10000U)
 3464              		.loc 1 1053 19
 3465 0088 FB68     		ldr	r3, [r7, #12]
ARM GAS  C:\Users\jisu8\AppData\Local\Temp\cc8f41y5.s 			page 80


 3466              		.loc 1 1053 12
 3467 008a 42F21072 		movw	r2, #10000
 3468 008e 9342     		cmp	r3, r2
 3469 0090 02D9     		bls	.L154
1054:Drivers/STM32F7xx_HAL_Driver/Src/stm32f7xx_ll_usb.c ****         {
1055:Drivers/STM32F7xx_HAL_Driver/Src/stm32f7xx_ll_usb.c ****           ret = HAL_ERROR;
 3470              		.loc 1 1055 15
 3471 0092 0123     		movs	r3, #1
 3472 0094 FB75     		strb	r3, [r7, #23]
1056:Drivers/STM32F7xx_HAL_Driver/Src/stm32f7xx_ll_usb.c ****           break;
 3473              		.loc 1 1056 11
 3474 0096 56E0     		b	.L156
 3475              	.L154:
1057:Drivers/STM32F7xx_HAL_Driver/Src/stm32f7xx_ll_usb.c ****         }
1058:Drivers/STM32F7xx_HAL_Driver/Src/stm32f7xx_ll_usb.c ****       } while (((USBx_INEP(ep->num)->DIEPCTL) & USB_OTG_DIEPCTL_EPENA) ==  USB_OTG_DIEPCTL_EPENA);
 3476              		.loc 1 1058 18
 3477 0098 3B68     		ldr	r3, [r7]
 3478 009a 1B78     		ldrb	r3, [r3]	@ zero_extendqisi2
 3479 009c 5A01     		lsls	r2, r3, #5
 3480 009e 3B69     		ldr	r3, [r7, #16]
 3481 00a0 1344     		add	r3, r3, r2
 3482 00a2 03F51063 		add	r3, r3, #2304
 3483              		.loc 1 1058 36
 3484 00a6 1B68     		ldr	r3, [r3]
 3485              		.loc 1 1058 47
 3486 00a8 03F00043 		and	r3, r3, #-2147483648
 3487              		.loc 1 1058 7
 3488 00ac B3F1004F 		cmp	r3, #-2147483648
 3489 00b0 E7D0     		beq	.L155
 3490 00b2 48E0     		b	.L156
 3491              	.L152:
1059:Drivers/STM32F7xx_HAL_Driver/Src/stm32f7xx_ll_usb.c ****     }
1060:Drivers/STM32F7xx_HAL_Driver/Src/stm32f7xx_ll_usb.c ****   }
1061:Drivers/STM32F7xx_HAL_Driver/Src/stm32f7xx_ll_usb.c ****   else /* OUT endpoint */
1062:Drivers/STM32F7xx_HAL_Driver/Src/stm32f7xx_ll_usb.c ****   {
1063:Drivers/STM32F7xx_HAL_Driver/Src/stm32f7xx_ll_usb.c ****     if (((USBx_OUTEP(ep->num)->DOEPCTL) & USB_OTG_DOEPCTL_EPENA) == USB_OTG_DOEPCTL_EPENA)
 3492              		.loc 1 1063 11
 3493 00b4 3B68     		ldr	r3, [r7]
 3494 00b6 1B78     		ldrb	r3, [r3]	@ zero_extendqisi2
 3495 00b8 5A01     		lsls	r2, r3, #5
 3496 00ba 3B69     		ldr	r3, [r7, #16]
 3497 00bc 1344     		add	r3, r3, r2
 3498 00be 03F53063 		add	r3, r3, #2816
 3499              		.loc 1 1063 30
 3500 00c2 1B68     		ldr	r3, [r3]
 3501              		.loc 1 1063 41
 3502 00c4 03F00043 		and	r3, r3, #-2147483648
 3503              		.loc 1 1063 8
 3504 00c8 B3F1004F 		cmp	r3, #-2147483648
 3505 00cc 3BD1     		bne	.L156
1064:Drivers/STM32F7xx_HAL_Driver/Src/stm32f7xx_ll_usb.c ****     {
1065:Drivers/STM32F7xx_HAL_Driver/Src/stm32f7xx_ll_usb.c ****       USBx_OUTEP(ep->num)->DOEPCTL |= (USB_OTG_DOEPCTL_SNAK);
 3506              		.loc 1 1065 7
 3507 00ce 3B68     		ldr	r3, [r7]
 3508 00d0 1B78     		ldrb	r3, [r3]	@ zero_extendqisi2
 3509              		.loc 1 1065 36
 3510 00d2 5A01     		lsls	r2, r3, #5
ARM GAS  C:\Users\jisu8\AppData\Local\Temp\cc8f41y5.s 			page 81


 3511 00d4 3B69     		ldr	r3, [r7, #16]
 3512 00d6 1344     		add	r3, r3, r2
 3513 00d8 03F53063 		add	r3, r3, #2816
 3514 00dc 1B68     		ldr	r3, [r3]
 3515              		.loc 1 1065 7
 3516 00de 3A68     		ldr	r2, [r7]
 3517 00e0 1278     		ldrb	r2, [r2]	@ zero_extendqisi2
 3518              		.loc 1 1065 36
 3519 00e2 5101     		lsls	r1, r2, #5
 3520 00e4 3A69     		ldr	r2, [r7, #16]
 3521 00e6 0A44     		add	r2, r2, r1
 3522 00e8 02F53062 		add	r2, r2, #2816
 3523 00ec 43F00063 		orr	r3, r3, #134217728
 3524 00f0 1360     		str	r3, [r2]
1066:Drivers/STM32F7xx_HAL_Driver/Src/stm32f7xx_ll_usb.c ****       USBx_OUTEP(ep->num)->DOEPCTL |= (USB_OTG_DOEPCTL_EPDIS);
 3525              		.loc 1 1066 7
 3526 00f2 3B68     		ldr	r3, [r7]
 3527 00f4 1B78     		ldrb	r3, [r3]	@ zero_extendqisi2
 3528              		.loc 1 1066 36
 3529 00f6 5A01     		lsls	r2, r3, #5
 3530 00f8 3B69     		ldr	r3, [r7, #16]
 3531 00fa 1344     		add	r3, r3, r2
 3532 00fc 03F53063 		add	r3, r3, #2816
 3533 0100 1B68     		ldr	r3, [r3]
 3534              		.loc 1 1066 7
 3535 0102 3A68     		ldr	r2, [r7]
 3536 0104 1278     		ldrb	r2, [r2]	@ zero_extendqisi2
 3537              		.loc 1 1066 36
 3538 0106 5101     		lsls	r1, r2, #5
 3539 0108 3A69     		ldr	r2, [r7, #16]
 3540 010a 0A44     		add	r2, r2, r1
 3541 010c 02F53062 		add	r2, r2, #2816
 3542 0110 43F08043 		orr	r3, r3, #1073741824
 3543 0114 1360     		str	r3, [r2]
 3544              	.L158:
1067:Drivers/STM32F7xx_HAL_Driver/Src/stm32f7xx_ll_usb.c **** 
1068:Drivers/STM32F7xx_HAL_Driver/Src/stm32f7xx_ll_usb.c ****       do
1069:Drivers/STM32F7xx_HAL_Driver/Src/stm32f7xx_ll_usb.c ****       {
1070:Drivers/STM32F7xx_HAL_Driver/Src/stm32f7xx_ll_usb.c ****         count++;
 3545              		.loc 1 1070 14
 3546 0116 FB68     		ldr	r3, [r7, #12]
 3547 0118 0133     		adds	r3, r3, #1
 3548 011a FB60     		str	r3, [r7, #12]
1071:Drivers/STM32F7xx_HAL_Driver/Src/stm32f7xx_ll_usb.c **** 
1072:Drivers/STM32F7xx_HAL_Driver/Src/stm32f7xx_ll_usb.c ****         if (count > 10000U)
 3549              		.loc 1 1072 19
 3550 011c FB68     		ldr	r3, [r7, #12]
 3551              		.loc 1 1072 12
 3552 011e 42F21072 		movw	r2, #10000
 3553 0122 9342     		cmp	r3, r2
 3554 0124 02D9     		bls	.L157
1073:Drivers/STM32F7xx_HAL_Driver/Src/stm32f7xx_ll_usb.c ****         {
1074:Drivers/STM32F7xx_HAL_Driver/Src/stm32f7xx_ll_usb.c ****           ret = HAL_ERROR;
 3555              		.loc 1 1074 15
 3556 0126 0123     		movs	r3, #1
 3557 0128 FB75     		strb	r3, [r7, #23]
1075:Drivers/STM32F7xx_HAL_Driver/Src/stm32f7xx_ll_usb.c ****           break;
ARM GAS  C:\Users\jisu8\AppData\Local\Temp\cc8f41y5.s 			page 82


 3558              		.loc 1 1075 11
 3559 012a 0CE0     		b	.L156
 3560              	.L157:
1076:Drivers/STM32F7xx_HAL_Driver/Src/stm32f7xx_ll_usb.c ****         }
1077:Drivers/STM32F7xx_HAL_Driver/Src/stm32f7xx_ll_usb.c ****       } while (((USBx_OUTEP(ep->num)->DOEPCTL) & USB_OTG_DOEPCTL_EPENA) ==  USB_OTG_DOEPCTL_EPENA);
 3561              		.loc 1 1077 18
 3562 012c 3B68     		ldr	r3, [r7]
 3563 012e 1B78     		ldrb	r3, [r3]	@ zero_extendqisi2
 3564 0130 5A01     		lsls	r2, r3, #5
 3565 0132 3B69     		ldr	r3, [r7, #16]
 3566 0134 1344     		add	r3, r3, r2
 3567 0136 03F53063 		add	r3, r3, #2816
 3568              		.loc 1 1077 37
 3569 013a 1B68     		ldr	r3, [r3]
 3570              		.loc 1 1077 48
 3571 013c 03F00043 		and	r3, r3, #-2147483648
 3572              		.loc 1 1077 7
 3573 0140 B3F1004F 		cmp	r3, #-2147483648
 3574 0144 E7D0     		beq	.L158
 3575              	.L156:
1078:Drivers/STM32F7xx_HAL_Driver/Src/stm32f7xx_ll_usb.c ****     }
1079:Drivers/STM32F7xx_HAL_Driver/Src/stm32f7xx_ll_usb.c ****   }
1080:Drivers/STM32F7xx_HAL_Driver/Src/stm32f7xx_ll_usb.c **** 
1081:Drivers/STM32F7xx_HAL_Driver/Src/stm32f7xx_ll_usb.c ****   return ret;
 3576              		.loc 1 1081 10
 3577 0146 FB7D     		ldrb	r3, [r7, #23]	@ zero_extendqisi2
1082:Drivers/STM32F7xx_HAL_Driver/Src/stm32f7xx_ll_usb.c **** }
 3578              		.loc 1 1082 1
 3579 0148 1846     		mov	r0, r3
 3580 014a 1C37     		adds	r7, r7, #28
 3581              	.LCFI101:
 3582              		.cfi_def_cfa_offset 4
 3583 014c BD46     		mov	sp, r7
 3584              	.LCFI102:
 3585              		.cfi_def_cfa_register 13
 3586              		@ sp needed
 3587 014e 5DF8047B 		ldr	r7, [sp], #4
 3588              	.LCFI103:
 3589              		.cfi_restore 7
 3590              		.cfi_def_cfa_offset 0
 3591 0152 7047     		bx	lr
 3592              		.cfi_endproc
 3593              	.LFE157:
 3595              		.section	.text.USB_WritePacket,"ax",%progbits
 3596              		.align	1
 3597              		.global	USB_WritePacket
 3598              		.syntax unified
 3599              		.thumb
 3600              		.thumb_func
 3602              	USB_WritePacket:
 3603              	.LFB158:
1083:Drivers/STM32F7xx_HAL_Driver/Src/stm32f7xx_ll_usb.c **** 
1084:Drivers/STM32F7xx_HAL_Driver/Src/stm32f7xx_ll_usb.c **** 
1085:Drivers/STM32F7xx_HAL_Driver/Src/stm32f7xx_ll_usb.c **** /**
1086:Drivers/STM32F7xx_HAL_Driver/Src/stm32f7xx_ll_usb.c ****   * @brief  USB_WritePacket : Writes a packet into the Tx FIFO associated
1087:Drivers/STM32F7xx_HAL_Driver/Src/stm32f7xx_ll_usb.c ****   *         with the EP/channel
1088:Drivers/STM32F7xx_HAL_Driver/Src/stm32f7xx_ll_usb.c ****   * @param  USBx  Selected device
ARM GAS  C:\Users\jisu8\AppData\Local\Temp\cc8f41y5.s 			page 83


1089:Drivers/STM32F7xx_HAL_Driver/Src/stm32f7xx_ll_usb.c ****   * @param  src   pointer to source buffer
1090:Drivers/STM32F7xx_HAL_Driver/Src/stm32f7xx_ll_usb.c ****   * @param  ch_ep_num  endpoint or host channel number
1091:Drivers/STM32F7xx_HAL_Driver/Src/stm32f7xx_ll_usb.c ****   * @param  len  Number of bytes to write
1092:Drivers/STM32F7xx_HAL_Driver/Src/stm32f7xx_ll_usb.c ****   * @param  dma USB dma enabled or disabled
1093:Drivers/STM32F7xx_HAL_Driver/Src/stm32f7xx_ll_usb.c ****   *          This parameter can be one of these values:
1094:Drivers/STM32F7xx_HAL_Driver/Src/stm32f7xx_ll_usb.c ****   *           0 : DMA feature not used
1095:Drivers/STM32F7xx_HAL_Driver/Src/stm32f7xx_ll_usb.c ****   *           1 : DMA feature used
1096:Drivers/STM32F7xx_HAL_Driver/Src/stm32f7xx_ll_usb.c ****   * @retval HAL status
1097:Drivers/STM32F7xx_HAL_Driver/Src/stm32f7xx_ll_usb.c ****   */
1098:Drivers/STM32F7xx_HAL_Driver/Src/stm32f7xx_ll_usb.c **** HAL_StatusTypeDef USB_WritePacket(USB_OTG_GlobalTypeDef *USBx, uint8_t *src,
1099:Drivers/STM32F7xx_HAL_Driver/Src/stm32f7xx_ll_usb.c ****                                   uint8_t ch_ep_num, uint16_t len, uint8_t dma)
1100:Drivers/STM32F7xx_HAL_Driver/Src/stm32f7xx_ll_usb.c **** {
 3604              		.loc 1 1100 1
 3605              		.cfi_startproc
 3606              		@ args = 4, pretend = 0, frame = 32
 3607              		@ frame_needed = 1, uses_anonymous_args = 0
 3608              		@ link register save eliminated.
 3609 0000 80B4     		push	{r7}
 3610              	.LCFI104:
 3611              		.cfi_def_cfa_offset 4
 3612              		.cfi_offset 7, -4
 3613 0002 89B0     		sub	sp, sp, #36
 3614              	.LCFI105:
 3615              		.cfi_def_cfa_offset 40
 3616 0004 00AF     		add	r7, sp, #0
 3617              	.LCFI106:
 3618              		.cfi_def_cfa_register 7
 3619 0006 F860     		str	r0, [r7, #12]
 3620 0008 B960     		str	r1, [r7, #8]
 3621 000a 1146     		mov	r1, r2
 3622 000c 1A46     		mov	r2, r3
 3623 000e 0B46     		mov	r3, r1
 3624 0010 FB71     		strb	r3, [r7, #7]
 3625 0012 1346     		mov	r3, r2	@ movhi
 3626 0014 BB80     		strh	r3, [r7, #4]	@ movhi
1101:Drivers/STM32F7xx_HAL_Driver/Src/stm32f7xx_ll_usb.c ****   uint32_t USBx_BASE = (uint32_t)USBx;
 3627              		.loc 1 1101 12
 3628 0016 FB68     		ldr	r3, [r7, #12]
 3629 0018 7B61     		str	r3, [r7, #20]
1102:Drivers/STM32F7xx_HAL_Driver/Src/stm32f7xx_ll_usb.c ****   uint8_t *pSrc = src;
 3630              		.loc 1 1102 12
 3631 001a BB68     		ldr	r3, [r7, #8]
 3632 001c FB61     		str	r3, [r7, #28]
1103:Drivers/STM32F7xx_HAL_Driver/Src/stm32f7xx_ll_usb.c ****   uint32_t count32b;
1104:Drivers/STM32F7xx_HAL_Driver/Src/stm32f7xx_ll_usb.c ****   uint32_t i;
1105:Drivers/STM32F7xx_HAL_Driver/Src/stm32f7xx_ll_usb.c **** 
1106:Drivers/STM32F7xx_HAL_Driver/Src/stm32f7xx_ll_usb.c ****   if (dma == 0U)
 3633              		.loc 1 1106 6
 3634 001e 97F82830 		ldrb	r3, [r7, #40]	@ zero_extendqisi2
 3635 0022 002B     		cmp	r3, #0
 3636 0024 23D1     		bne	.L161
1107:Drivers/STM32F7xx_HAL_Driver/Src/stm32f7xx_ll_usb.c ****   {
1108:Drivers/STM32F7xx_HAL_Driver/Src/stm32f7xx_ll_usb.c ****     count32b = ((uint32_t)len + 3U) / 4U;
 3637              		.loc 1 1108 17
 3638 0026 BB88     		ldrh	r3, [r7, #4]
 3639              		.loc 1 1108 31
 3640 0028 0333     		adds	r3, r3, #3
ARM GAS  C:\Users\jisu8\AppData\Local\Temp\cc8f41y5.s 			page 84


 3641              		.loc 1 1108 14
 3642 002a 9B08     		lsrs	r3, r3, #2
 3643 002c 3B61     		str	r3, [r7, #16]
1109:Drivers/STM32F7xx_HAL_Driver/Src/stm32f7xx_ll_usb.c ****     for (i = 0U; i < count32b; i++)
 3644              		.loc 1 1109 12
 3645 002e 0023     		movs	r3, #0
 3646 0030 BB61     		str	r3, [r7, #24]
 3647              		.loc 1 1109 5
 3648 0032 18E0     		b	.L162
 3649              	.L163:
1110:Drivers/STM32F7xx_HAL_Driver/Src/stm32f7xx_ll_usb.c ****     {
1111:Drivers/STM32F7xx_HAL_Driver/Src/stm32f7xx_ll_usb.c ****       USBx_DFIFO((uint32_t)ch_ep_num) = __UNALIGNED_UINT32_READ(pSrc);
 3650              		.loc 1 1111 7 discriminator 3
 3651 0034 FB79     		ldrb	r3, [r7, #7]	@ zero_extendqisi2
 3652 0036 1A03     		lsls	r2, r3, #12
 3653 0038 7B69     		ldr	r3, [r7, #20]
 3654 003a 1344     		add	r3, r3, r2
 3655 003c 03F58053 		add	r3, r3, #4096
 3656 0040 1A46     		mov	r2, r3
 3657              		.loc 1 1111 41 discriminator 3
 3658 0042 FB69     		ldr	r3, [r7, #28]
 3659 0044 1B68     		ldr	r3, [r3]	@ unaligned
 3660              		.loc 1 1111 39 discriminator 3
 3661 0046 1360     		str	r3, [r2]
1112:Drivers/STM32F7xx_HAL_Driver/Src/stm32f7xx_ll_usb.c ****       pSrc++;
 3662              		.loc 1 1112 11 discriminator 3
 3663 0048 FB69     		ldr	r3, [r7, #28]
 3664 004a 0133     		adds	r3, r3, #1
 3665 004c FB61     		str	r3, [r7, #28]
1113:Drivers/STM32F7xx_HAL_Driver/Src/stm32f7xx_ll_usb.c ****       pSrc++;
 3666              		.loc 1 1113 11 discriminator 3
 3667 004e FB69     		ldr	r3, [r7, #28]
 3668 0050 0133     		adds	r3, r3, #1
 3669 0052 FB61     		str	r3, [r7, #28]
1114:Drivers/STM32F7xx_HAL_Driver/Src/stm32f7xx_ll_usb.c ****       pSrc++;
 3670              		.loc 1 1114 11 discriminator 3
 3671 0054 FB69     		ldr	r3, [r7, #28]
 3672 0056 0133     		adds	r3, r3, #1
 3673 0058 FB61     		str	r3, [r7, #28]
1115:Drivers/STM32F7xx_HAL_Driver/Src/stm32f7xx_ll_usb.c ****       pSrc++;
 3674              		.loc 1 1115 11 discriminator 3
 3675 005a FB69     		ldr	r3, [r7, #28]
 3676 005c 0133     		adds	r3, r3, #1
 3677 005e FB61     		str	r3, [r7, #28]
1109:Drivers/STM32F7xx_HAL_Driver/Src/stm32f7xx_ll_usb.c ****     {
 3678              		.loc 1 1109 33 discriminator 3
 3679 0060 BB69     		ldr	r3, [r7, #24]
 3680 0062 0133     		adds	r3, r3, #1
 3681 0064 BB61     		str	r3, [r7, #24]
 3682              	.L162:
1109:Drivers/STM32F7xx_HAL_Driver/Src/stm32f7xx_ll_usb.c ****     {
 3683              		.loc 1 1109 5 discriminator 1
 3684 0066 BA69     		ldr	r2, [r7, #24]
 3685 0068 3B69     		ldr	r3, [r7, #16]
 3686 006a 9A42     		cmp	r2, r3
 3687 006c E2D3     		bcc	.L163
 3688              	.L161:
ARM GAS  C:\Users\jisu8\AppData\Local\Temp\cc8f41y5.s 			page 85


1116:Drivers/STM32F7xx_HAL_Driver/Src/stm32f7xx_ll_usb.c ****     }
1117:Drivers/STM32F7xx_HAL_Driver/Src/stm32f7xx_ll_usb.c ****   }
1118:Drivers/STM32F7xx_HAL_Driver/Src/stm32f7xx_ll_usb.c **** 
1119:Drivers/STM32F7xx_HAL_Driver/Src/stm32f7xx_ll_usb.c ****   return HAL_OK;
 3689              		.loc 1 1119 10
 3690 006e 0023     		movs	r3, #0
1120:Drivers/STM32F7xx_HAL_Driver/Src/stm32f7xx_ll_usb.c **** }
 3691              		.loc 1 1120 1
 3692 0070 1846     		mov	r0, r3
 3693 0072 2437     		adds	r7, r7, #36
 3694              	.LCFI107:
 3695              		.cfi_def_cfa_offset 4
 3696 0074 BD46     		mov	sp, r7
 3697              	.LCFI108:
 3698              		.cfi_def_cfa_register 13
 3699              		@ sp needed
 3700 0076 5DF8047B 		ldr	r7, [sp], #4
 3701              	.LCFI109:
 3702              		.cfi_restore 7
 3703              		.cfi_def_cfa_offset 0
 3704 007a 7047     		bx	lr
 3705              		.cfi_endproc
 3706              	.LFE158:
 3708              		.section	.text.USB_ReadPacket,"ax",%progbits
 3709              		.align	1
 3710              		.global	USB_ReadPacket
 3711              		.syntax unified
 3712              		.thumb
 3713              		.thumb_func
 3715              	USB_ReadPacket:
 3716              	.LFB159:
1121:Drivers/STM32F7xx_HAL_Driver/Src/stm32f7xx_ll_usb.c **** 
1122:Drivers/STM32F7xx_HAL_Driver/Src/stm32f7xx_ll_usb.c **** /**
1123:Drivers/STM32F7xx_HAL_Driver/Src/stm32f7xx_ll_usb.c ****   * @brief  USB_ReadPacket : read a packet from the RX FIFO
1124:Drivers/STM32F7xx_HAL_Driver/Src/stm32f7xx_ll_usb.c ****   * @param  USBx  Selected device
1125:Drivers/STM32F7xx_HAL_Driver/Src/stm32f7xx_ll_usb.c ****   * @param  dest  source pointer
1126:Drivers/STM32F7xx_HAL_Driver/Src/stm32f7xx_ll_usb.c ****   * @param  len  Number of bytes to read
1127:Drivers/STM32F7xx_HAL_Driver/Src/stm32f7xx_ll_usb.c ****   * @retval pointer to destination buffer
1128:Drivers/STM32F7xx_HAL_Driver/Src/stm32f7xx_ll_usb.c ****   */
1129:Drivers/STM32F7xx_HAL_Driver/Src/stm32f7xx_ll_usb.c **** void *USB_ReadPacket(USB_OTG_GlobalTypeDef *USBx, uint8_t *dest, uint16_t len)
1130:Drivers/STM32F7xx_HAL_Driver/Src/stm32f7xx_ll_usb.c **** {
 3717              		.loc 1 1130 1
 3718              		.cfi_startproc
 3719              		@ args = 0, pretend = 0, frame = 40
 3720              		@ frame_needed = 1, uses_anonymous_args = 0
 3721              		@ link register save eliminated.
 3722 0000 80B4     		push	{r7}
 3723              	.LCFI110:
 3724              		.cfi_def_cfa_offset 4
 3725              		.cfi_offset 7, -4
 3726 0002 8BB0     		sub	sp, sp, #44
 3727              	.LCFI111:
 3728              		.cfi_def_cfa_offset 48
 3729 0004 00AF     		add	r7, sp, #0
 3730              	.LCFI112:
 3731              		.cfi_def_cfa_register 7
 3732 0006 F860     		str	r0, [r7, #12]
ARM GAS  C:\Users\jisu8\AppData\Local\Temp\cc8f41y5.s 			page 86


 3733 0008 B960     		str	r1, [r7, #8]
 3734 000a 1346     		mov	r3, r2
 3735 000c FB80     		strh	r3, [r7, #6]	@ movhi
1131:Drivers/STM32F7xx_HAL_Driver/Src/stm32f7xx_ll_usb.c ****   uint32_t USBx_BASE = (uint32_t)USBx;
 3736              		.loc 1 1131 12
 3737 000e FB68     		ldr	r3, [r7, #12]
 3738 0010 BB61     		str	r3, [r7, #24]
1132:Drivers/STM32F7xx_HAL_Driver/Src/stm32f7xx_ll_usb.c ****   uint8_t *pDest = dest;
 3739              		.loc 1 1132 12
 3740 0012 BB68     		ldr	r3, [r7, #8]
 3741 0014 7B62     		str	r3, [r7, #36]
1133:Drivers/STM32F7xx_HAL_Driver/Src/stm32f7xx_ll_usb.c ****   uint32_t pData;
1134:Drivers/STM32F7xx_HAL_Driver/Src/stm32f7xx_ll_usb.c ****   uint32_t i;
1135:Drivers/STM32F7xx_HAL_Driver/Src/stm32f7xx_ll_usb.c ****   uint32_t count32b = (uint32_t)len >> 2U;
 3742              		.loc 1 1135 37
 3743 0016 FB88     		ldrh	r3, [r7, #6]
 3744 0018 9B08     		lsrs	r3, r3, #2
 3745 001a 9BB2     		uxth	r3, r3
 3746              		.loc 1 1135 12
 3747 001c 7B61     		str	r3, [r7, #20]
1136:Drivers/STM32F7xx_HAL_Driver/Src/stm32f7xx_ll_usb.c ****   uint16_t remaining_bytes = len % 4U;
 3748              		.loc 1 1136 12
 3749 001e FB88     		ldrh	r3, [r7, #6]	@ movhi
 3750 0020 03F00303 		and	r3, r3, #3
 3751 0024 FB83     		strh	r3, [r7, #30]	@ movhi
1137:Drivers/STM32F7xx_HAL_Driver/Src/stm32f7xx_ll_usb.c **** 
1138:Drivers/STM32F7xx_HAL_Driver/Src/stm32f7xx_ll_usb.c ****   for (i = 0U; i < count32b; i++)
 3752              		.loc 1 1138 10
 3753 0026 0023     		movs	r3, #0
 3754 0028 3B62     		str	r3, [r7, #32]
 3755              		.loc 1 1138 3
 3756 002a 14E0     		b	.L166
 3757              	.L167:
1139:Drivers/STM32F7xx_HAL_Driver/Src/stm32f7xx_ll_usb.c ****   {
1140:Drivers/STM32F7xx_HAL_Driver/Src/stm32f7xx_ll_usb.c ****     __UNALIGNED_UINT32_WRITE(pDest, USBx_DFIFO(0U));
 3758              		.loc 1 1140 5 discriminator 3
 3759 002c BB69     		ldr	r3, [r7, #24]
 3760 002e 03F58053 		add	r3, r3, #4096
 3761 0032 1A68     		ldr	r2, [r3]
 3762 0034 7B6A     		ldr	r3, [r7, #36]
 3763 0036 1A60     		str	r2, [r3]	@ unaligned
1141:Drivers/STM32F7xx_HAL_Driver/Src/stm32f7xx_ll_usb.c ****     pDest++;
