ARM GAS  C:\Users\jisu8\AppData\Local\Temp\ccmlnG2o.s 			page 1


   1              		.cpu cortex-m7
   2              		.arch armv7e-m
   3              		.fpu fpv5-sp-d16
   4              		.eabi_attribute 27, 1
   5              		.eabi_attribute 28, 1
   6              		.eabi_attribute 20, 1
   7              		.eabi_attribute 21, 1
   8              		.eabi_attribute 23, 3
   9              		.eabi_attribute 24, 1
  10              		.eabi_attribute 25, 1
  11              		.eabi_attribute 26, 1
  12              		.eabi_attribute 30, 6
  13              		.eabi_attribute 34, 1
  14              		.eabi_attribute 18, 4
  15              		.file	"stm32f7xx_hal_dma2d.c"
  16              		.text
  17              	.Ltext0:
  18              		.cfi_sections	.debug_frame
  19              		.section	.text.HAL_DMA2D_Init,"ax",%progbits
  20              		.align	1
  21              		.global	HAL_DMA2D_Init
  22              		.syntax unified
  23              		.thumb
  24              		.thumb_func
  26              	HAL_DMA2D_Init:
  27              	.LFB141:
  28              		.file 1 "Drivers/STM32F7xx_HAL_Driver/Src/stm32f7xx_hal_dma2d.c"
   1:Drivers/STM32F7xx_HAL_Driver/Src/stm32f7xx_hal_dma2d.c **** /**
   2:Drivers/STM32F7xx_HAL_Driver/Src/stm32f7xx_hal_dma2d.c ****   ******************************************************************************
   3:Drivers/STM32F7xx_HAL_Driver/Src/stm32f7xx_hal_dma2d.c ****   * @file    stm32f7xx_hal_dma2d.c
   4:Drivers/STM32F7xx_HAL_Driver/Src/stm32f7xx_hal_dma2d.c ****   * @author  MCD Application Team
   5:Drivers/STM32F7xx_HAL_Driver/Src/stm32f7xx_hal_dma2d.c ****   * @brief   DMA2D HAL module driver.
   6:Drivers/STM32F7xx_HAL_Driver/Src/stm32f7xx_hal_dma2d.c ****   *          This file provides firmware functions to manage the following
   7:Drivers/STM32F7xx_HAL_Driver/Src/stm32f7xx_hal_dma2d.c ****   *          functionalities of the DMA2D peripheral:
   8:Drivers/STM32F7xx_HAL_Driver/Src/stm32f7xx_hal_dma2d.c ****   *           + Initialization and de-initialization functions
   9:Drivers/STM32F7xx_HAL_Driver/Src/stm32f7xx_hal_dma2d.c ****   *           + IO operation functions
  10:Drivers/STM32F7xx_HAL_Driver/Src/stm32f7xx_hal_dma2d.c ****   *           + Peripheral Control functions
  11:Drivers/STM32F7xx_HAL_Driver/Src/stm32f7xx_hal_dma2d.c ****   *           + Peripheral State and Errors functions
  12:Drivers/STM32F7xx_HAL_Driver/Src/stm32f7xx_hal_dma2d.c ****   *
  13:Drivers/STM32F7xx_HAL_Driver/Src/stm32f7xx_hal_dma2d.c ****   ******************************************************************************
  14:Drivers/STM32F7xx_HAL_Driver/Src/stm32f7xx_hal_dma2d.c ****   * @attention
  15:Drivers/STM32F7xx_HAL_Driver/Src/stm32f7xx_hal_dma2d.c ****   *
  16:Drivers/STM32F7xx_HAL_Driver/Src/stm32f7xx_hal_dma2d.c ****   * Copyright (c) 2017 STMicroelectronics.
  17:Drivers/STM32F7xx_HAL_Driver/Src/stm32f7xx_hal_dma2d.c ****   * All rights reserved.
  18:Drivers/STM32F7xx_HAL_Driver/Src/stm32f7xx_hal_dma2d.c ****   *
  19:Drivers/STM32F7xx_HAL_Driver/Src/stm32f7xx_hal_dma2d.c ****   * This software is licensed under terms that can be found in the LICENSE file
  20:Drivers/STM32F7xx_HAL_Driver/Src/stm32f7xx_hal_dma2d.c ****   * in the root directory of this software component.
  21:Drivers/STM32F7xx_HAL_Driver/Src/stm32f7xx_hal_dma2d.c ****   * If no LICENSE file comes with this software, it is provided AS-IS.
  22:Drivers/STM32F7xx_HAL_Driver/Src/stm32f7xx_hal_dma2d.c ****   *
  23:Drivers/STM32F7xx_HAL_Driver/Src/stm32f7xx_hal_dma2d.c ****   ******************************************************************************
  24:Drivers/STM32F7xx_HAL_Driver/Src/stm32f7xx_hal_dma2d.c ****   @verbatim
  25:Drivers/STM32F7xx_HAL_Driver/Src/stm32f7xx_hal_dma2d.c ****   ==============================================================================
  26:Drivers/STM32F7xx_HAL_Driver/Src/stm32f7xx_hal_dma2d.c ****                         ##### How to use this driver #####
  27:Drivers/STM32F7xx_HAL_Driver/Src/stm32f7xx_hal_dma2d.c ****   ==============================================================================
  28:Drivers/STM32F7xx_HAL_Driver/Src/stm32f7xx_hal_dma2d.c ****     [..]
  29:Drivers/STM32F7xx_HAL_Driver/Src/stm32f7xx_hal_dma2d.c ****       (#) Program the required configuration through the following parameters:
  30:Drivers/STM32F7xx_HAL_Driver/Src/stm32f7xx_hal_dma2d.c ****           the transfer mode, the output color mode and the output offset using
ARM GAS  C:\Users\jisu8\AppData\Local\Temp\ccmlnG2o.s 			page 2


  31:Drivers/STM32F7xx_HAL_Driver/Src/stm32f7xx_hal_dma2d.c ****           HAL_DMA2D_Init() function.
  32:Drivers/STM32F7xx_HAL_Driver/Src/stm32f7xx_hal_dma2d.c **** 
  33:Drivers/STM32F7xx_HAL_Driver/Src/stm32f7xx_hal_dma2d.c ****       (#) Program the required configuration through the following parameters:
  34:Drivers/STM32F7xx_HAL_Driver/Src/stm32f7xx_hal_dma2d.c ****           the input color mode, the input color, the input alpha value, the alpha mode,
  35:Drivers/STM32F7xx_HAL_Driver/Src/stm32f7xx_hal_dma2d.c ****           the red/blue swap mode, the inverted alpha mode and the input offset using
  36:Drivers/STM32F7xx_HAL_Driver/Src/stm32f7xx_hal_dma2d.c ****           HAL_DMA2D_ConfigLayer() function for foreground or/and background layer.
  37:Drivers/STM32F7xx_HAL_Driver/Src/stm32f7xx_hal_dma2d.c **** 
  38:Drivers/STM32F7xx_HAL_Driver/Src/stm32f7xx_hal_dma2d.c ****      *** Polling mode IO operation ***
  39:Drivers/STM32F7xx_HAL_Driver/Src/stm32f7xx_hal_dma2d.c ****      =================================
  40:Drivers/STM32F7xx_HAL_Driver/Src/stm32f7xx_hal_dma2d.c ****     [..]
  41:Drivers/STM32F7xx_HAL_Driver/Src/stm32f7xx_hal_dma2d.c ****        (#) Configure pdata parameter (explained hereafter), destination and data length
  42:Drivers/STM32F7xx_HAL_Driver/Src/stm32f7xx_hal_dma2d.c ****            and enable the transfer using HAL_DMA2D_Start().
  43:Drivers/STM32F7xx_HAL_Driver/Src/stm32f7xx_hal_dma2d.c ****        (#) Wait for end of transfer using HAL_DMA2D_PollForTransfer(), at this stage
  44:Drivers/STM32F7xx_HAL_Driver/Src/stm32f7xx_hal_dma2d.c ****            user can specify the value of timeout according to his end application.
  45:Drivers/STM32F7xx_HAL_Driver/Src/stm32f7xx_hal_dma2d.c **** 
  46:Drivers/STM32F7xx_HAL_Driver/Src/stm32f7xx_hal_dma2d.c ****      *** Interrupt mode IO operation ***
  47:Drivers/STM32F7xx_HAL_Driver/Src/stm32f7xx_hal_dma2d.c ****      ===================================
  48:Drivers/STM32F7xx_HAL_Driver/Src/stm32f7xx_hal_dma2d.c ****      [..]
  49:Drivers/STM32F7xx_HAL_Driver/Src/stm32f7xx_hal_dma2d.c ****        (#) Configure pdata parameter, destination and data length and enable
  50:Drivers/STM32F7xx_HAL_Driver/Src/stm32f7xx_hal_dma2d.c ****            the transfer using HAL_DMA2D_Start_IT().
  51:Drivers/STM32F7xx_HAL_Driver/Src/stm32f7xx_hal_dma2d.c ****        (#) Use HAL_DMA2D_IRQHandler() called under DMA2D_IRQHandler() interrupt subroutine.
  52:Drivers/STM32F7xx_HAL_Driver/Src/stm32f7xx_hal_dma2d.c ****        (#) At the end of data transfer HAL_DMA2D_IRQHandler() function is executed and user can
  53:Drivers/STM32F7xx_HAL_Driver/Src/stm32f7xx_hal_dma2d.c ****            add his own function by customization of function pointer XferCpltCallback (member
  54:Drivers/STM32F7xx_HAL_Driver/Src/stm32f7xx_hal_dma2d.c ****            of DMA2D handle structure).
  55:Drivers/STM32F7xx_HAL_Driver/Src/stm32f7xx_hal_dma2d.c ****        (#) In case of error, the HAL_DMA2D_IRQHandler() function calls the callback
  56:Drivers/STM32F7xx_HAL_Driver/Src/stm32f7xx_hal_dma2d.c ****            XferErrorCallback.
  57:Drivers/STM32F7xx_HAL_Driver/Src/stm32f7xx_hal_dma2d.c **** 
  58:Drivers/STM32F7xx_HAL_Driver/Src/stm32f7xx_hal_dma2d.c ****          -@-   In Register-to-Memory transfer mode, pdata parameter is the register
  59:Drivers/STM32F7xx_HAL_Driver/Src/stm32f7xx_hal_dma2d.c ****                color, in Memory-to-memory or Memory-to-Memory with pixel format
  60:Drivers/STM32F7xx_HAL_Driver/Src/stm32f7xx_hal_dma2d.c ****                conversion pdata is the source address.
  61:Drivers/STM32F7xx_HAL_Driver/Src/stm32f7xx_hal_dma2d.c **** 
  62:Drivers/STM32F7xx_HAL_Driver/Src/stm32f7xx_hal_dma2d.c ****          -@-   Configure the foreground source address, the background source address,
  63:Drivers/STM32F7xx_HAL_Driver/Src/stm32f7xx_hal_dma2d.c ****                the destination and data length then Enable the transfer using
  64:Drivers/STM32F7xx_HAL_Driver/Src/stm32f7xx_hal_dma2d.c ****                HAL_DMA2D_BlendingStart() in polling mode and HAL_DMA2D_BlendingStart_IT()
  65:Drivers/STM32F7xx_HAL_Driver/Src/stm32f7xx_hal_dma2d.c ****                in interrupt mode.
  66:Drivers/STM32F7xx_HAL_Driver/Src/stm32f7xx_hal_dma2d.c **** 
  67:Drivers/STM32F7xx_HAL_Driver/Src/stm32f7xx_hal_dma2d.c ****          -@-   HAL_DMA2D_BlendingStart() and HAL_DMA2D_BlendingStart_IT() functions
  68:Drivers/STM32F7xx_HAL_Driver/Src/stm32f7xx_hal_dma2d.c ****                are used if the memory to memory with blending transfer mode is selected.
  69:Drivers/STM32F7xx_HAL_Driver/Src/stm32f7xx_hal_dma2d.c **** 
  70:Drivers/STM32F7xx_HAL_Driver/Src/stm32f7xx_hal_dma2d.c ****       (#) Optionally, configure and enable the CLUT using HAL_DMA2D_CLUTLoad() in polling
  71:Drivers/STM32F7xx_HAL_Driver/Src/stm32f7xx_hal_dma2d.c ****           mode or HAL_DMA2D_CLUTLoad_IT() in interrupt mode.
  72:Drivers/STM32F7xx_HAL_Driver/Src/stm32f7xx_hal_dma2d.c **** 
  73:Drivers/STM32F7xx_HAL_Driver/Src/stm32f7xx_hal_dma2d.c ****       (#) Optionally, configure the line watermark in using the API HAL_DMA2D_ProgramLineEvent().
  74:Drivers/STM32F7xx_HAL_Driver/Src/stm32f7xx_hal_dma2d.c **** 
  75:Drivers/STM32F7xx_HAL_Driver/Src/stm32f7xx_hal_dma2d.c ****       (#) Optionally, configure the dead time value in the AHB clock cycle inserted between two
  76:Drivers/STM32F7xx_HAL_Driver/Src/stm32f7xx_hal_dma2d.c ****           consecutive accesses on the AHB master port in using the API HAL_DMA2D_ConfigDeadTime()
  77:Drivers/STM32F7xx_HAL_Driver/Src/stm32f7xx_hal_dma2d.c ****           and enable/disable the functionality  with the APIs HAL_DMA2D_EnableDeadTime() or
  78:Drivers/STM32F7xx_HAL_Driver/Src/stm32f7xx_hal_dma2d.c ****           HAL_DMA2D_DisableDeadTime().
  79:Drivers/STM32F7xx_HAL_Driver/Src/stm32f7xx_hal_dma2d.c **** 
  80:Drivers/STM32F7xx_HAL_Driver/Src/stm32f7xx_hal_dma2d.c ****       (#) The transfer can be suspended, resumed and aborted using the following
  81:Drivers/STM32F7xx_HAL_Driver/Src/stm32f7xx_hal_dma2d.c ****           functions: HAL_DMA2D_Suspend(), HAL_DMA2D_Resume(), HAL_DMA2D_Abort().
  82:Drivers/STM32F7xx_HAL_Driver/Src/stm32f7xx_hal_dma2d.c **** 
  83:Drivers/STM32F7xx_HAL_Driver/Src/stm32f7xx_hal_dma2d.c ****       (#) The CLUT loading can be suspended, resumed and aborted using the following
  84:Drivers/STM32F7xx_HAL_Driver/Src/stm32f7xx_hal_dma2d.c ****           functions: HAL_DMA2D_CLUTLoading_Suspend(), HAL_DMA2D_CLUTLoading_Resume(),
  85:Drivers/STM32F7xx_HAL_Driver/Src/stm32f7xx_hal_dma2d.c ****           HAL_DMA2D_CLUTLoading_Abort().
  86:Drivers/STM32F7xx_HAL_Driver/Src/stm32f7xx_hal_dma2d.c **** 
  87:Drivers/STM32F7xx_HAL_Driver/Src/stm32f7xx_hal_dma2d.c ****       (#) To control the DMA2D state, use the following function: HAL_DMA2D_GetState().
ARM GAS  C:\Users\jisu8\AppData\Local\Temp\ccmlnG2o.s 			page 3


  88:Drivers/STM32F7xx_HAL_Driver/Src/stm32f7xx_hal_dma2d.c **** 
  89:Drivers/STM32F7xx_HAL_Driver/Src/stm32f7xx_hal_dma2d.c ****       (#) To read the DMA2D error code, use the following function: HAL_DMA2D_GetError().
  90:Drivers/STM32F7xx_HAL_Driver/Src/stm32f7xx_hal_dma2d.c **** 
  91:Drivers/STM32F7xx_HAL_Driver/Src/stm32f7xx_hal_dma2d.c ****      *** DMA2D HAL driver macros list ***
  92:Drivers/STM32F7xx_HAL_Driver/Src/stm32f7xx_hal_dma2d.c ****      =============================================
  93:Drivers/STM32F7xx_HAL_Driver/Src/stm32f7xx_hal_dma2d.c ****      [..]
  94:Drivers/STM32F7xx_HAL_Driver/Src/stm32f7xx_hal_dma2d.c ****        Below the list of most used macros in DMA2D HAL driver :
  95:Drivers/STM32F7xx_HAL_Driver/Src/stm32f7xx_hal_dma2d.c **** 
  96:Drivers/STM32F7xx_HAL_Driver/Src/stm32f7xx_hal_dma2d.c ****       (+) __HAL_DMA2D_ENABLE: Enable the DMA2D peripheral.
  97:Drivers/STM32F7xx_HAL_Driver/Src/stm32f7xx_hal_dma2d.c ****       (+) __HAL_DMA2D_GET_FLAG: Get the DMA2D pending flags.
  98:Drivers/STM32F7xx_HAL_Driver/Src/stm32f7xx_hal_dma2d.c ****       (+) __HAL_DMA2D_CLEAR_FLAG: Clear the DMA2D pending flags.
  99:Drivers/STM32F7xx_HAL_Driver/Src/stm32f7xx_hal_dma2d.c ****       (+) __HAL_DMA2D_ENABLE_IT: Enable the specified DMA2D interrupts.
 100:Drivers/STM32F7xx_HAL_Driver/Src/stm32f7xx_hal_dma2d.c ****       (+) __HAL_DMA2D_DISABLE_IT: Disable the specified DMA2D interrupts.
 101:Drivers/STM32F7xx_HAL_Driver/Src/stm32f7xx_hal_dma2d.c ****       (+) __HAL_DMA2D_GET_IT_SOURCE: Check whether the specified DMA2D interrupt is enabled or not.
 102:Drivers/STM32F7xx_HAL_Driver/Src/stm32f7xx_hal_dma2d.c **** 
 103:Drivers/STM32F7xx_HAL_Driver/Src/stm32f7xx_hal_dma2d.c ****      *** Callback registration ***
 104:Drivers/STM32F7xx_HAL_Driver/Src/stm32f7xx_hal_dma2d.c ****      ===================================
 105:Drivers/STM32F7xx_HAL_Driver/Src/stm32f7xx_hal_dma2d.c ****      [..]
 106:Drivers/STM32F7xx_HAL_Driver/Src/stm32f7xx_hal_dma2d.c ****       (#) The compilation define  USE_HAL_DMA2D_REGISTER_CALLBACKS when set to 1
 107:Drivers/STM32F7xx_HAL_Driver/Src/stm32f7xx_hal_dma2d.c ****           allows the user to configure dynamically the driver callbacks.
 108:Drivers/STM32F7xx_HAL_Driver/Src/stm32f7xx_hal_dma2d.c ****           Use function @ref HAL_DMA2D_RegisterCallback() to register a user callback.
 109:Drivers/STM32F7xx_HAL_Driver/Src/stm32f7xx_hal_dma2d.c **** 
 110:Drivers/STM32F7xx_HAL_Driver/Src/stm32f7xx_hal_dma2d.c ****       (#) Function @ref HAL_DMA2D_RegisterCallback() allows to register following callbacks:
 111:Drivers/STM32F7xx_HAL_Driver/Src/stm32f7xx_hal_dma2d.c ****             (+) XferCpltCallback : callback for transfer complete.
 112:Drivers/STM32F7xx_HAL_Driver/Src/stm32f7xx_hal_dma2d.c ****             (+) XferErrorCallback : callback for transfer error.
 113:Drivers/STM32F7xx_HAL_Driver/Src/stm32f7xx_hal_dma2d.c ****             (+) LineEventCallback : callback for line event.
 114:Drivers/STM32F7xx_HAL_Driver/Src/stm32f7xx_hal_dma2d.c ****             (+) CLUTLoadingCpltCallback : callback for CLUT loading completion.
 115:Drivers/STM32F7xx_HAL_Driver/Src/stm32f7xx_hal_dma2d.c ****             (+) MspInitCallback    : DMA2D MspInit.
 116:Drivers/STM32F7xx_HAL_Driver/Src/stm32f7xx_hal_dma2d.c ****             (+) MspDeInitCallback  : DMA2D MspDeInit.
 117:Drivers/STM32F7xx_HAL_Driver/Src/stm32f7xx_hal_dma2d.c ****           This function takes as parameters the HAL peripheral handle, the Callback ID
 118:Drivers/STM32F7xx_HAL_Driver/Src/stm32f7xx_hal_dma2d.c ****           and a pointer to the user callback function.
 119:Drivers/STM32F7xx_HAL_Driver/Src/stm32f7xx_hal_dma2d.c **** 
 120:Drivers/STM32F7xx_HAL_Driver/Src/stm32f7xx_hal_dma2d.c ****       (#) Use function @ref HAL_DMA2D_UnRegisterCallback() to reset a callback to the default
 121:Drivers/STM32F7xx_HAL_Driver/Src/stm32f7xx_hal_dma2d.c ****           weak (surcharged) function.
 122:Drivers/STM32F7xx_HAL_Driver/Src/stm32f7xx_hal_dma2d.c ****           @ref HAL_DMA2D_UnRegisterCallback() takes as parameters the HAL peripheral handle,
 123:Drivers/STM32F7xx_HAL_Driver/Src/stm32f7xx_hal_dma2d.c ****           and the Callback ID.
 124:Drivers/STM32F7xx_HAL_Driver/Src/stm32f7xx_hal_dma2d.c ****           This function allows to reset following callbacks:
 125:Drivers/STM32F7xx_HAL_Driver/Src/stm32f7xx_hal_dma2d.c ****             (+) XferCpltCallback : callback for transfer complete.
 126:Drivers/STM32F7xx_HAL_Driver/Src/stm32f7xx_hal_dma2d.c ****             (+) XferErrorCallback : callback for transfer error.
 127:Drivers/STM32F7xx_HAL_Driver/Src/stm32f7xx_hal_dma2d.c ****             (+) LineEventCallback : callback for line event.
 128:Drivers/STM32F7xx_HAL_Driver/Src/stm32f7xx_hal_dma2d.c ****             (+) CLUTLoadingCpltCallback : callback for CLUT loading completion.
 129:Drivers/STM32F7xx_HAL_Driver/Src/stm32f7xx_hal_dma2d.c ****             (+) MspInitCallback    : DMA2D MspInit.
 130:Drivers/STM32F7xx_HAL_Driver/Src/stm32f7xx_hal_dma2d.c ****             (+) MspDeInitCallback  : DMA2D MspDeInit.
 131:Drivers/STM32F7xx_HAL_Driver/Src/stm32f7xx_hal_dma2d.c **** 
 132:Drivers/STM32F7xx_HAL_Driver/Src/stm32f7xx_hal_dma2d.c ****       (#) By default, after the @ref HAL_DMA2D_Init and if the state is HAL_DMA2D_STATE_RESET
 133:Drivers/STM32F7xx_HAL_Driver/Src/stm32f7xx_hal_dma2d.c ****           all callbacks are reset to the corresponding legacy weak (surcharged) functions:
 134:Drivers/STM32F7xx_HAL_Driver/Src/stm32f7xx_hal_dma2d.c ****           examples @ref HAL_DMA2D_LineEventCallback(), @ref HAL_DMA2D_CLUTLoadingCpltCallback()
 135:Drivers/STM32F7xx_HAL_Driver/Src/stm32f7xx_hal_dma2d.c ****           Exception done for MspInit and MspDeInit callbacks that are respectively
 136:Drivers/STM32F7xx_HAL_Driver/Src/stm32f7xx_hal_dma2d.c ****           reset to the legacy weak (surcharged) functions in the @ref HAL_DMA2D_Init
 137:Drivers/STM32F7xx_HAL_Driver/Src/stm32f7xx_hal_dma2d.c ****           and @ref HAL_DMA2D_DeInit only when these callbacks are null (not registered beforehand)
 138:Drivers/STM32F7xx_HAL_Driver/Src/stm32f7xx_hal_dma2d.c ****           If not, MspInit or MspDeInit are not null, the @ref HAL_DMA2D_Init and @ref HAL_DMA2D_DeI
 139:Drivers/STM32F7xx_HAL_Driver/Src/stm32f7xx_hal_dma2d.c ****           keep and use the user MspInit/MspDeInit callbacks (registered beforehand).
 140:Drivers/STM32F7xx_HAL_Driver/Src/stm32f7xx_hal_dma2d.c **** 
 141:Drivers/STM32F7xx_HAL_Driver/Src/stm32f7xx_hal_dma2d.c ****           Exception as well for Transfer Completion and Transfer Error callbacks that are not defin
 142:Drivers/STM32F7xx_HAL_Driver/Src/stm32f7xx_hal_dma2d.c ****           as weak (surcharged) functions. They must be defined by the user to be resorted to.
 143:Drivers/STM32F7xx_HAL_Driver/Src/stm32f7xx_hal_dma2d.c **** 
 144:Drivers/STM32F7xx_HAL_Driver/Src/stm32f7xx_hal_dma2d.c ****           Callbacks can be registered/unregistered in READY state only.
ARM GAS  C:\Users\jisu8\AppData\Local\Temp\ccmlnG2o.s 			page 4


 145:Drivers/STM32F7xx_HAL_Driver/Src/stm32f7xx_hal_dma2d.c ****           Exception done for MspInit/MspDeInit callbacks that can be registered/unregistered
 146:Drivers/STM32F7xx_HAL_Driver/Src/stm32f7xx_hal_dma2d.c ****           in READY or RESET state, thus registered (user) MspInit/DeInit callbacks can be used
 147:Drivers/STM32F7xx_HAL_Driver/Src/stm32f7xx_hal_dma2d.c ****           during the Init/DeInit.
 148:Drivers/STM32F7xx_HAL_Driver/Src/stm32f7xx_hal_dma2d.c ****           In that case first register the MspInit/MspDeInit user callbacks
 149:Drivers/STM32F7xx_HAL_Driver/Src/stm32f7xx_hal_dma2d.c ****           using @ref HAL_DMA2D_RegisterCallback before calling @ref HAL_DMA2D_DeInit
 150:Drivers/STM32F7xx_HAL_Driver/Src/stm32f7xx_hal_dma2d.c ****           or @ref HAL_DMA2D_Init function.
 151:Drivers/STM32F7xx_HAL_Driver/Src/stm32f7xx_hal_dma2d.c **** 
 152:Drivers/STM32F7xx_HAL_Driver/Src/stm32f7xx_hal_dma2d.c ****           When The compilation define USE_HAL_DMA2D_REGISTER_CALLBACKS is set to 0 or
 153:Drivers/STM32F7xx_HAL_Driver/Src/stm32f7xx_hal_dma2d.c ****           not defined, the callback registering feature is not available
 154:Drivers/STM32F7xx_HAL_Driver/Src/stm32f7xx_hal_dma2d.c ****           and weak (surcharged) callbacks are used.
 155:Drivers/STM32F7xx_HAL_Driver/Src/stm32f7xx_hal_dma2d.c **** 
 156:Drivers/STM32F7xx_HAL_Driver/Src/stm32f7xx_hal_dma2d.c ****      [..]
 157:Drivers/STM32F7xx_HAL_Driver/Src/stm32f7xx_hal_dma2d.c ****       (@) You can refer to the DMA2D HAL driver header file for more useful macros
 158:Drivers/STM32F7xx_HAL_Driver/Src/stm32f7xx_hal_dma2d.c **** 
 159:Drivers/STM32F7xx_HAL_Driver/Src/stm32f7xx_hal_dma2d.c ****   @endverbatim
 160:Drivers/STM32F7xx_HAL_Driver/Src/stm32f7xx_hal_dma2d.c ****   ******************************************************************************
 161:Drivers/STM32F7xx_HAL_Driver/Src/stm32f7xx_hal_dma2d.c ****   */
 162:Drivers/STM32F7xx_HAL_Driver/Src/stm32f7xx_hal_dma2d.c **** 
 163:Drivers/STM32F7xx_HAL_Driver/Src/stm32f7xx_hal_dma2d.c **** /* Includes ------------------------------------------------------------------*/
 164:Drivers/STM32F7xx_HAL_Driver/Src/stm32f7xx_hal_dma2d.c **** #include "stm32f7xx_hal.h"
 165:Drivers/STM32F7xx_HAL_Driver/Src/stm32f7xx_hal_dma2d.c **** 
 166:Drivers/STM32F7xx_HAL_Driver/Src/stm32f7xx_hal_dma2d.c **** #ifdef HAL_DMA2D_MODULE_ENABLED
 167:Drivers/STM32F7xx_HAL_Driver/Src/stm32f7xx_hal_dma2d.c **** #if defined (DMA2D)
 168:Drivers/STM32F7xx_HAL_Driver/Src/stm32f7xx_hal_dma2d.c **** 
 169:Drivers/STM32F7xx_HAL_Driver/Src/stm32f7xx_hal_dma2d.c **** /** @addtogroup STM32F7xx_HAL_Driver
 170:Drivers/STM32F7xx_HAL_Driver/Src/stm32f7xx_hal_dma2d.c ****   * @{
 171:Drivers/STM32F7xx_HAL_Driver/Src/stm32f7xx_hal_dma2d.c ****   */
 172:Drivers/STM32F7xx_HAL_Driver/Src/stm32f7xx_hal_dma2d.c **** 
 173:Drivers/STM32F7xx_HAL_Driver/Src/stm32f7xx_hal_dma2d.c **** /** @defgroup DMA2D  DMA2D
 174:Drivers/STM32F7xx_HAL_Driver/Src/stm32f7xx_hal_dma2d.c ****   * @brief DMA2D HAL module driver
 175:Drivers/STM32F7xx_HAL_Driver/Src/stm32f7xx_hal_dma2d.c ****   * @{
 176:Drivers/STM32F7xx_HAL_Driver/Src/stm32f7xx_hal_dma2d.c ****   */
 177:Drivers/STM32F7xx_HAL_Driver/Src/stm32f7xx_hal_dma2d.c **** 
 178:Drivers/STM32F7xx_HAL_Driver/Src/stm32f7xx_hal_dma2d.c **** /* Private types -------------------------------------------------------------*/
 179:Drivers/STM32F7xx_HAL_Driver/Src/stm32f7xx_hal_dma2d.c **** /* Private define ------------------------------------------------------------*/
 180:Drivers/STM32F7xx_HAL_Driver/Src/stm32f7xx_hal_dma2d.c **** /** @defgroup DMA2D_Private_Constants DMA2D Private Constants
 181:Drivers/STM32F7xx_HAL_Driver/Src/stm32f7xx_hal_dma2d.c ****   * @{
 182:Drivers/STM32F7xx_HAL_Driver/Src/stm32f7xx_hal_dma2d.c ****   */
 183:Drivers/STM32F7xx_HAL_Driver/Src/stm32f7xx_hal_dma2d.c **** 
 184:Drivers/STM32F7xx_HAL_Driver/Src/stm32f7xx_hal_dma2d.c **** /** @defgroup DMA2D_TimeOut DMA2D Time Out
 185:Drivers/STM32F7xx_HAL_Driver/Src/stm32f7xx_hal_dma2d.c ****   * @{
 186:Drivers/STM32F7xx_HAL_Driver/Src/stm32f7xx_hal_dma2d.c ****   */
 187:Drivers/STM32F7xx_HAL_Driver/Src/stm32f7xx_hal_dma2d.c **** #define DMA2D_TIMEOUT_ABORT           (1000U)  /*!<  1s  */
 188:Drivers/STM32F7xx_HAL_Driver/Src/stm32f7xx_hal_dma2d.c **** #define DMA2D_TIMEOUT_SUSPEND         (1000U)  /*!<  1s  */
 189:Drivers/STM32F7xx_HAL_Driver/Src/stm32f7xx_hal_dma2d.c **** /**
 190:Drivers/STM32F7xx_HAL_Driver/Src/stm32f7xx_hal_dma2d.c ****   * @}
 191:Drivers/STM32F7xx_HAL_Driver/Src/stm32f7xx_hal_dma2d.c ****   */
 192:Drivers/STM32F7xx_HAL_Driver/Src/stm32f7xx_hal_dma2d.c **** 
 193:Drivers/STM32F7xx_HAL_Driver/Src/stm32f7xx_hal_dma2d.c **** /**
 194:Drivers/STM32F7xx_HAL_Driver/Src/stm32f7xx_hal_dma2d.c ****   * @}
 195:Drivers/STM32F7xx_HAL_Driver/Src/stm32f7xx_hal_dma2d.c ****   */
 196:Drivers/STM32F7xx_HAL_Driver/Src/stm32f7xx_hal_dma2d.c **** 
 197:Drivers/STM32F7xx_HAL_Driver/Src/stm32f7xx_hal_dma2d.c **** /* Private variables ---------------------------------------------------------*/
 198:Drivers/STM32F7xx_HAL_Driver/Src/stm32f7xx_hal_dma2d.c **** /* Private constants ---------------------------------------------------------*/
 199:Drivers/STM32F7xx_HAL_Driver/Src/stm32f7xx_hal_dma2d.c **** /* Private macro -------------------------------------------------------------*/
 200:Drivers/STM32F7xx_HAL_Driver/Src/stm32f7xx_hal_dma2d.c **** /* Private function prototypes -----------------------------------------------*/
 201:Drivers/STM32F7xx_HAL_Driver/Src/stm32f7xx_hal_dma2d.c **** /** @addtogroup DMA2D_Private_Functions DMA2D Private Functions
ARM GAS  C:\Users\jisu8\AppData\Local\Temp\ccmlnG2o.s 			page 5


 202:Drivers/STM32F7xx_HAL_Driver/Src/stm32f7xx_hal_dma2d.c ****   * @{
 203:Drivers/STM32F7xx_HAL_Driver/Src/stm32f7xx_hal_dma2d.c ****   */
 204:Drivers/STM32F7xx_HAL_Driver/Src/stm32f7xx_hal_dma2d.c **** static void DMA2D_SetConfig(DMA2D_HandleTypeDef *hdma2d, uint32_t pdata, uint32_t DstAddress, uint3
 205:Drivers/STM32F7xx_HAL_Driver/Src/stm32f7xx_hal_dma2d.c ****                             uint32_t Height);
 206:Drivers/STM32F7xx_HAL_Driver/Src/stm32f7xx_hal_dma2d.c **** /**
 207:Drivers/STM32F7xx_HAL_Driver/Src/stm32f7xx_hal_dma2d.c ****   * @}
 208:Drivers/STM32F7xx_HAL_Driver/Src/stm32f7xx_hal_dma2d.c ****   */
 209:Drivers/STM32F7xx_HAL_Driver/Src/stm32f7xx_hal_dma2d.c **** 
 210:Drivers/STM32F7xx_HAL_Driver/Src/stm32f7xx_hal_dma2d.c **** /* Private functions ---------------------------------------------------------*/
 211:Drivers/STM32F7xx_HAL_Driver/Src/stm32f7xx_hal_dma2d.c **** /* Exported functions --------------------------------------------------------*/
 212:Drivers/STM32F7xx_HAL_Driver/Src/stm32f7xx_hal_dma2d.c **** /** @defgroup DMA2D_Exported_Functions DMA2D Exported Functions
 213:Drivers/STM32F7xx_HAL_Driver/Src/stm32f7xx_hal_dma2d.c ****   * @{
 214:Drivers/STM32F7xx_HAL_Driver/Src/stm32f7xx_hal_dma2d.c ****   */
 215:Drivers/STM32F7xx_HAL_Driver/Src/stm32f7xx_hal_dma2d.c **** 
 216:Drivers/STM32F7xx_HAL_Driver/Src/stm32f7xx_hal_dma2d.c **** /** @defgroup DMA2D_Exported_Functions_Group1 Initialization and de-initialization functions
 217:Drivers/STM32F7xx_HAL_Driver/Src/stm32f7xx_hal_dma2d.c ****   *  @brief   Initialization and Configuration functions
 218:Drivers/STM32F7xx_HAL_Driver/Src/stm32f7xx_hal_dma2d.c ****   *
 219:Drivers/STM32F7xx_HAL_Driver/Src/stm32f7xx_hal_dma2d.c **** @verbatim
 220:Drivers/STM32F7xx_HAL_Driver/Src/stm32f7xx_hal_dma2d.c ****  ===============================================================================
 221:Drivers/STM32F7xx_HAL_Driver/Src/stm32f7xx_hal_dma2d.c ****                 ##### Initialization and Configuration functions #####
 222:Drivers/STM32F7xx_HAL_Driver/Src/stm32f7xx_hal_dma2d.c ****  ===============================================================================
 223:Drivers/STM32F7xx_HAL_Driver/Src/stm32f7xx_hal_dma2d.c ****     [..]  This section provides functions allowing to:
 224:Drivers/STM32F7xx_HAL_Driver/Src/stm32f7xx_hal_dma2d.c ****       (+) Initialize and configure the DMA2D
 225:Drivers/STM32F7xx_HAL_Driver/Src/stm32f7xx_hal_dma2d.c ****       (+) De-initialize the DMA2D
 226:Drivers/STM32F7xx_HAL_Driver/Src/stm32f7xx_hal_dma2d.c **** 
 227:Drivers/STM32F7xx_HAL_Driver/Src/stm32f7xx_hal_dma2d.c **** @endverbatim
 228:Drivers/STM32F7xx_HAL_Driver/Src/stm32f7xx_hal_dma2d.c ****   * @{
 229:Drivers/STM32F7xx_HAL_Driver/Src/stm32f7xx_hal_dma2d.c ****   */
 230:Drivers/STM32F7xx_HAL_Driver/Src/stm32f7xx_hal_dma2d.c **** 
 231:Drivers/STM32F7xx_HAL_Driver/Src/stm32f7xx_hal_dma2d.c **** /**
 232:Drivers/STM32F7xx_HAL_Driver/Src/stm32f7xx_hal_dma2d.c ****   * @brief  Initialize the DMA2D according to the specified
 233:Drivers/STM32F7xx_HAL_Driver/Src/stm32f7xx_hal_dma2d.c ****   *         parameters in the DMA2D_InitTypeDef and create the associated handle.
 234:Drivers/STM32F7xx_HAL_Driver/Src/stm32f7xx_hal_dma2d.c ****   * @param  hdma2d pointer to a DMA2D_HandleTypeDef structure that contains
 235:Drivers/STM32F7xx_HAL_Driver/Src/stm32f7xx_hal_dma2d.c ****   *                 the configuration information for the DMA2D.
 236:Drivers/STM32F7xx_HAL_Driver/Src/stm32f7xx_hal_dma2d.c ****   * @retval HAL status
 237:Drivers/STM32F7xx_HAL_Driver/Src/stm32f7xx_hal_dma2d.c ****   */
 238:Drivers/STM32F7xx_HAL_Driver/Src/stm32f7xx_hal_dma2d.c **** HAL_StatusTypeDef HAL_DMA2D_Init(DMA2D_HandleTypeDef *hdma2d)
 239:Drivers/STM32F7xx_HAL_Driver/Src/stm32f7xx_hal_dma2d.c **** {
  29              		.loc 1 239 1
  30              		.cfi_startproc
  31              		@ args = 0, pretend = 0, frame = 8
  32              		@ frame_needed = 1, uses_anonymous_args = 0
  33 0000 80B5     		push	{r7, lr}
  34              	.LCFI0:
  35              		.cfi_def_cfa_offset 8
  36              		.cfi_offset 7, -8
  37              		.cfi_offset 14, -4
  38 0002 82B0     		sub	sp, sp, #8
  39              	.LCFI1:
  40              		.cfi_def_cfa_offset 16
  41 0004 00AF     		add	r7, sp, #0
  42              	.LCFI2:
  43              		.cfi_def_cfa_register 7
  44 0006 7860     		str	r0, [r7, #4]
 240:Drivers/STM32F7xx_HAL_Driver/Src/stm32f7xx_hal_dma2d.c ****   /* Check the DMA2D peripheral state */
 241:Drivers/STM32F7xx_HAL_Driver/Src/stm32f7xx_hal_dma2d.c ****   if (hdma2d == NULL)
  45              		.loc 1 241 6
ARM GAS  C:\Users\jisu8\AppData\Local\Temp\ccmlnG2o.s 			page 6


  46 0008 7B68     		ldr	r3, [r7, #4]
  47 000a 002B     		cmp	r3, #0
  48 000c 01D1     		bne	.L2
 242:Drivers/STM32F7xx_HAL_Driver/Src/stm32f7xx_hal_dma2d.c ****   {
 243:Drivers/STM32F7xx_HAL_Driver/Src/stm32f7xx_hal_dma2d.c ****     return HAL_ERROR;
  49              		.loc 1 243 12
  50 000e 0123     		movs	r3, #1
  51 0010 39E0     		b	.L3
  52              	.L2:
 244:Drivers/STM32F7xx_HAL_Driver/Src/stm32f7xx_hal_dma2d.c ****   }
 245:Drivers/STM32F7xx_HAL_Driver/Src/stm32f7xx_hal_dma2d.c **** 
 246:Drivers/STM32F7xx_HAL_Driver/Src/stm32f7xx_hal_dma2d.c ****   /* Check the parameters */
 247:Drivers/STM32F7xx_HAL_Driver/Src/stm32f7xx_hal_dma2d.c ****   assert_param(IS_DMA2D_ALL_INSTANCE(hdma2d->Instance));
 248:Drivers/STM32F7xx_HAL_Driver/Src/stm32f7xx_hal_dma2d.c ****   assert_param(IS_DMA2D_MODE(hdma2d->Init.Mode));
 249:Drivers/STM32F7xx_HAL_Driver/Src/stm32f7xx_hal_dma2d.c ****   assert_param(IS_DMA2D_CMODE(hdma2d->Init.ColorMode));
 250:Drivers/STM32F7xx_HAL_Driver/Src/stm32f7xx_hal_dma2d.c ****   assert_param(IS_DMA2D_OFFSET(hdma2d->Init.OutputOffset));
 251:Drivers/STM32F7xx_HAL_Driver/Src/stm32f7xx_hal_dma2d.c **** #if defined (DMA2D_ALPHA_INV_RB_SWAP_SUPPORT)
 252:Drivers/STM32F7xx_HAL_Driver/Src/stm32f7xx_hal_dma2d.c ****   assert_param(IS_DMA2D_ALPHA_INVERTED(hdma2d->Init.AlphaInverted));
 253:Drivers/STM32F7xx_HAL_Driver/Src/stm32f7xx_hal_dma2d.c ****   assert_param(IS_DMA2D_RB_SWAP(hdma2d->Init.RedBlueSwap));
 254:Drivers/STM32F7xx_HAL_Driver/Src/stm32f7xx_hal_dma2d.c **** #endif /* DMA2D_ALPHA_INV_RB_SWAP_SUPPORT */
 255:Drivers/STM32F7xx_HAL_Driver/Src/stm32f7xx_hal_dma2d.c **** 
 256:Drivers/STM32F7xx_HAL_Driver/Src/stm32f7xx_hal_dma2d.c **** #if (USE_HAL_DMA2D_REGISTER_CALLBACKS == 1)
 257:Drivers/STM32F7xx_HAL_Driver/Src/stm32f7xx_hal_dma2d.c ****   if (hdma2d->State == HAL_DMA2D_STATE_RESET)
 258:Drivers/STM32F7xx_HAL_Driver/Src/stm32f7xx_hal_dma2d.c ****   {
 259:Drivers/STM32F7xx_HAL_Driver/Src/stm32f7xx_hal_dma2d.c ****     /* Reset Callback pointers in HAL_DMA2D_STATE_RESET only */
 260:Drivers/STM32F7xx_HAL_Driver/Src/stm32f7xx_hal_dma2d.c ****     hdma2d->LineEventCallback       = HAL_DMA2D_LineEventCallback;
 261:Drivers/STM32F7xx_HAL_Driver/Src/stm32f7xx_hal_dma2d.c ****     hdma2d->CLUTLoadingCpltCallback = HAL_DMA2D_CLUTLoadingCpltCallback;
 262:Drivers/STM32F7xx_HAL_Driver/Src/stm32f7xx_hal_dma2d.c ****     if (hdma2d->MspInitCallback == NULL)
 263:Drivers/STM32F7xx_HAL_Driver/Src/stm32f7xx_hal_dma2d.c ****     {
 264:Drivers/STM32F7xx_HAL_Driver/Src/stm32f7xx_hal_dma2d.c ****       hdma2d->MspInitCallback = HAL_DMA2D_MspInit;
 265:Drivers/STM32F7xx_HAL_Driver/Src/stm32f7xx_hal_dma2d.c ****     }
 266:Drivers/STM32F7xx_HAL_Driver/Src/stm32f7xx_hal_dma2d.c **** 
 267:Drivers/STM32F7xx_HAL_Driver/Src/stm32f7xx_hal_dma2d.c ****     /* Init the low level hardware */
 268:Drivers/STM32F7xx_HAL_Driver/Src/stm32f7xx_hal_dma2d.c ****     hdma2d->MspInitCallback(hdma2d);
 269:Drivers/STM32F7xx_HAL_Driver/Src/stm32f7xx_hal_dma2d.c ****   }
 270:Drivers/STM32F7xx_HAL_Driver/Src/stm32f7xx_hal_dma2d.c **** #else
 271:Drivers/STM32F7xx_HAL_Driver/Src/stm32f7xx_hal_dma2d.c ****   if (hdma2d->State == HAL_DMA2D_STATE_RESET)
  53              		.loc 1 271 13
  54 0012 7B68     		ldr	r3, [r7, #4]
  55 0014 93F83930 		ldrb	r3, [r3, #57]
  56 0018 DBB2     		uxtb	r3, r3
  57              		.loc 1 271 6
  58 001a 002B     		cmp	r3, #0
  59 001c 06D1     		bne	.L4
 272:Drivers/STM32F7xx_HAL_Driver/Src/stm32f7xx_hal_dma2d.c ****   {
 273:Drivers/STM32F7xx_HAL_Driver/Src/stm32f7xx_hal_dma2d.c ****     /* Allocate lock resource and initialize it */
 274:Drivers/STM32F7xx_HAL_Driver/Src/stm32f7xx_hal_dma2d.c ****     hdma2d->Lock = HAL_UNLOCKED;
  60              		.loc 1 274 18
  61 001e 7B68     		ldr	r3, [r7, #4]
  62 0020 0022     		movs	r2, #0
  63 0022 83F83820 		strb	r2, [r3, #56]
 275:Drivers/STM32F7xx_HAL_Driver/Src/stm32f7xx_hal_dma2d.c ****     /* Init the low level hardware */
 276:Drivers/STM32F7xx_HAL_Driver/Src/stm32f7xx_hal_dma2d.c ****     HAL_DMA2D_MspInit(hdma2d);
  64              		.loc 1 276 5
  65 0026 7868     		ldr	r0, [r7, #4]
  66 0028 FFF7FEFF 		bl	HAL_DMA2D_MspInit
  67              	.L4:
ARM GAS  C:\Users\jisu8\AppData\Local\Temp\ccmlnG2o.s 			page 7


 277:Drivers/STM32F7xx_HAL_Driver/Src/stm32f7xx_hal_dma2d.c ****   }
 278:Drivers/STM32F7xx_HAL_Driver/Src/stm32f7xx_hal_dma2d.c **** #endif /* (USE_HAL_DMA2D_REGISTER_CALLBACKS) */
 279:Drivers/STM32F7xx_HAL_Driver/Src/stm32f7xx_hal_dma2d.c **** 
 280:Drivers/STM32F7xx_HAL_Driver/Src/stm32f7xx_hal_dma2d.c ****   /* Change DMA2D peripheral state */
 281:Drivers/STM32F7xx_HAL_Driver/Src/stm32f7xx_hal_dma2d.c ****   hdma2d->State = HAL_DMA2D_STATE_BUSY;
  68              		.loc 1 281 17
  69 002c 7B68     		ldr	r3, [r7, #4]
  70 002e 0222     		movs	r2, #2
  71 0030 83F83920 		strb	r2, [r3, #57]
 282:Drivers/STM32F7xx_HAL_Driver/Src/stm32f7xx_hal_dma2d.c **** 
 283:Drivers/STM32F7xx_HAL_Driver/Src/stm32f7xx_hal_dma2d.c ****   /* DMA2D CR register configuration -------------------------------------------*/
 284:Drivers/STM32F7xx_HAL_Driver/Src/stm32f7xx_hal_dma2d.c ****   MODIFY_REG(hdma2d->Instance->CR, DMA2D_CR_MODE, hdma2d->Init.Mode);
  72              		.loc 1 284 3
  73 0034 7B68     		ldr	r3, [r7, #4]
  74 0036 1B68     		ldr	r3, [r3]
  75 0038 1B68     		ldr	r3, [r3]
  76 003a 23F44031 		bic	r1, r3, #196608
  77 003e 7B68     		ldr	r3, [r7, #4]
  78 0040 5A68     		ldr	r2, [r3, #4]
  79 0042 7B68     		ldr	r3, [r7, #4]
  80 0044 1B68     		ldr	r3, [r3]
  81 0046 0A43     		orrs	r2, r2, r1
  82 0048 1A60     		str	r2, [r3]
 285:Drivers/STM32F7xx_HAL_Driver/Src/stm32f7xx_hal_dma2d.c **** 
 286:Drivers/STM32F7xx_HAL_Driver/Src/stm32f7xx_hal_dma2d.c ****   /* DMA2D OPFCCR register configuration ---------------------------------------*/
 287:Drivers/STM32F7xx_HAL_Driver/Src/stm32f7xx_hal_dma2d.c ****   MODIFY_REG(hdma2d->Instance->OPFCCR, DMA2D_OPFCCR_CM, hdma2d->Init.ColorMode);
  83              		.loc 1 287 3
  84 004a 7B68     		ldr	r3, [r7, #4]
  85 004c 1B68     		ldr	r3, [r3]
  86 004e 5B6B     		ldr	r3, [r3, #52]
  87 0050 23F00701 		bic	r1, r3, #7
  88 0054 7B68     		ldr	r3, [r7, #4]
  89 0056 9A68     		ldr	r2, [r3, #8]
  90 0058 7B68     		ldr	r3, [r7, #4]
  91 005a 1B68     		ldr	r3, [r3]
  92 005c 0A43     		orrs	r2, r2, r1
  93 005e 5A63     		str	r2, [r3, #52]
 288:Drivers/STM32F7xx_HAL_Driver/Src/stm32f7xx_hal_dma2d.c **** 
 289:Drivers/STM32F7xx_HAL_Driver/Src/stm32f7xx_hal_dma2d.c ****   /* DMA2D OOR register configuration ------------------------------------------*/
 290:Drivers/STM32F7xx_HAL_Driver/Src/stm32f7xx_hal_dma2d.c ****   MODIFY_REG(hdma2d->Instance->OOR, DMA2D_OOR_LO, hdma2d->Init.OutputOffset);
  94              		.loc 1 290 3
  95 0060 7B68     		ldr	r3, [r7, #4]
  96 0062 1B68     		ldr	r3, [r3]
  97 0064 1A6C     		ldr	r2, [r3, #64]
  98 0066 0A4B     		ldr	r3, .L5
  99 0068 1340     		ands	r3, r3, r2
 100 006a 7A68     		ldr	r2, [r7, #4]
 101 006c D168     		ldr	r1, [r2, #12]
 102 006e 7A68     		ldr	r2, [r7, #4]
 103 0070 1268     		ldr	r2, [r2]
 104 0072 0B43     		orrs	r3, r3, r1
 105 0074 1364     		str	r3, [r2, #64]
 291:Drivers/STM32F7xx_HAL_Driver/Src/stm32f7xx_hal_dma2d.c **** #if defined (DMA2D_ALPHA_INV_RB_SWAP_SUPPORT)
 292:Drivers/STM32F7xx_HAL_Driver/Src/stm32f7xx_hal_dma2d.c ****   /* DMA2D OPFCCR AI and RBS fields setting (Output Alpha Inversion)*/
 293:Drivers/STM32F7xx_HAL_Driver/Src/stm32f7xx_hal_dma2d.c ****   MODIFY_REG(hdma2d->Instance->OPFCCR, (DMA2D_OPFCCR_AI | DMA2D_OPFCCR_RBS),
 294:Drivers/STM32F7xx_HAL_Driver/Src/stm32f7xx_hal_dma2d.c ****              ((hdma2d->Init.AlphaInverted << DMA2D_OPFCCR_AI_Pos) | \
 295:Drivers/STM32F7xx_HAL_Driver/Src/stm32f7xx_hal_dma2d.c ****               (hdma2d->Init.RedBlueSwap << DMA2D_OPFCCR_RBS_Pos)));
ARM GAS  C:\Users\jisu8\AppData\Local\Temp\ccmlnG2o.s 			page 8


 296:Drivers/STM32F7xx_HAL_Driver/Src/stm32f7xx_hal_dma2d.c **** #endif /* DMA2D_ALPHA_INV_RB_SWAP_SUPPORT */
 297:Drivers/STM32F7xx_HAL_Driver/Src/stm32f7xx_hal_dma2d.c **** 
 298:Drivers/STM32F7xx_HAL_Driver/Src/stm32f7xx_hal_dma2d.c **** 
 299:Drivers/STM32F7xx_HAL_Driver/Src/stm32f7xx_hal_dma2d.c ****   /* Update error code */
 300:Drivers/STM32F7xx_HAL_Driver/Src/stm32f7xx_hal_dma2d.c ****   hdma2d->ErrorCode = HAL_DMA2D_ERROR_NONE;
 106              		.loc 1 300 21
 107 0076 7B68     		ldr	r3, [r7, #4]
 108 0078 0022     		movs	r2, #0
 109 007a DA63     		str	r2, [r3, #60]
 301:Drivers/STM32F7xx_HAL_Driver/Src/stm32f7xx_hal_dma2d.c **** 
 302:Drivers/STM32F7xx_HAL_Driver/Src/stm32f7xx_hal_dma2d.c ****   /* Initialize the DMA2D state*/
 303:Drivers/STM32F7xx_HAL_Driver/Src/stm32f7xx_hal_dma2d.c ****   hdma2d->State  = HAL_DMA2D_STATE_READY;
 110              		.loc 1 303 18
 111 007c 7B68     		ldr	r3, [r7, #4]
 112 007e 0122     		movs	r2, #1
 113 0080 83F83920 		strb	r2, [r3, #57]
 304:Drivers/STM32F7xx_HAL_Driver/Src/stm32f7xx_hal_dma2d.c **** 
 305:Drivers/STM32F7xx_HAL_Driver/Src/stm32f7xx_hal_dma2d.c ****   return HAL_OK;
 114              		.loc 1 305 10
 115 0084 0023     		movs	r3, #0
 116              	.L3:
 306:Drivers/STM32F7xx_HAL_Driver/Src/stm32f7xx_hal_dma2d.c **** }
 117              		.loc 1 306 1
 118 0086 1846     		mov	r0, r3
 119 0088 0837     		adds	r7, r7, #8
 120              	.LCFI3:
 121              		.cfi_def_cfa_offset 8
 122 008a BD46     		mov	sp, r7
 123              	.LCFI4:
 124              		.cfi_def_cfa_register 13
 125              		@ sp needed
 126 008c 80BD     		pop	{r7, pc}
 127              	.L6:
 128 008e 00BF     		.align	2
 129              	.L5:
 130 0090 00C0FFFF 		.word	-16384
 131              		.cfi_endproc
 132              	.LFE141:
 134              		.section	.text.HAL_DMA2D_DeInit,"ax",%progbits
 135              		.align	1
 136              		.global	HAL_DMA2D_DeInit
 137              		.syntax unified
 138              		.thumb
 139              		.thumb_func
 141              	HAL_DMA2D_DeInit:
 142              	.LFB142:
 307:Drivers/STM32F7xx_HAL_Driver/Src/stm32f7xx_hal_dma2d.c **** 
 308:Drivers/STM32F7xx_HAL_Driver/Src/stm32f7xx_hal_dma2d.c **** /**
 309:Drivers/STM32F7xx_HAL_Driver/Src/stm32f7xx_hal_dma2d.c ****   * @brief  Deinitializes the DMA2D peripheral registers to their default reset
 310:Drivers/STM32F7xx_HAL_Driver/Src/stm32f7xx_hal_dma2d.c ****   *         values.
 311:Drivers/STM32F7xx_HAL_Driver/Src/stm32f7xx_hal_dma2d.c ****   * @param  hdma2d pointer to a DMA2D_HandleTypeDef structure that contains
 312:Drivers/STM32F7xx_HAL_Driver/Src/stm32f7xx_hal_dma2d.c ****   *                 the configuration information for the DMA2D.
 313:Drivers/STM32F7xx_HAL_Driver/Src/stm32f7xx_hal_dma2d.c ****   * @retval None
 314:Drivers/STM32F7xx_HAL_Driver/Src/stm32f7xx_hal_dma2d.c ****   */
 315:Drivers/STM32F7xx_HAL_Driver/Src/stm32f7xx_hal_dma2d.c **** 
 316:Drivers/STM32F7xx_HAL_Driver/Src/stm32f7xx_hal_dma2d.c **** HAL_StatusTypeDef HAL_DMA2D_DeInit(DMA2D_HandleTypeDef *hdma2d)
 317:Drivers/STM32F7xx_HAL_Driver/Src/stm32f7xx_hal_dma2d.c **** {
ARM GAS  C:\Users\jisu8\AppData\Local\Temp\ccmlnG2o.s 			page 9


 143              		.loc 1 317 1
 144              		.cfi_startproc
 145              		@ args = 0, pretend = 0, frame = 8
 146              		@ frame_needed = 1, uses_anonymous_args = 0
 147 0000 80B5     		push	{r7, lr}
 148              	.LCFI5:
 149              		.cfi_def_cfa_offset 8
 150              		.cfi_offset 7, -8
 151              		.cfi_offset 14, -4
 152 0002 82B0     		sub	sp, sp, #8
 153              	.LCFI6:
 154              		.cfi_def_cfa_offset 16
 155 0004 00AF     		add	r7, sp, #0
 156              	.LCFI7:
 157              		.cfi_def_cfa_register 7
 158 0006 7860     		str	r0, [r7, #4]
 318:Drivers/STM32F7xx_HAL_Driver/Src/stm32f7xx_hal_dma2d.c **** 
 319:Drivers/STM32F7xx_HAL_Driver/Src/stm32f7xx_hal_dma2d.c ****   /* Check the DMA2D peripheral state */
 320:Drivers/STM32F7xx_HAL_Driver/Src/stm32f7xx_hal_dma2d.c ****   if (hdma2d == NULL)
 159              		.loc 1 320 6
 160 0008 7B68     		ldr	r3, [r7, #4]
 161 000a 002B     		cmp	r3, #0
 162 000c 01D1     		bne	.L8
 321:Drivers/STM32F7xx_HAL_Driver/Src/stm32f7xx_hal_dma2d.c ****   {
 322:Drivers/STM32F7xx_HAL_Driver/Src/stm32f7xx_hal_dma2d.c ****     return HAL_ERROR;
 163              		.loc 1 322 12
 164 000e 0123     		movs	r3, #1
 165 0010 5FE0     		b	.L9
 166              	.L8:
 323:Drivers/STM32F7xx_HAL_Driver/Src/stm32f7xx_hal_dma2d.c ****   }
 324:Drivers/STM32F7xx_HAL_Driver/Src/stm32f7xx_hal_dma2d.c **** 
 325:Drivers/STM32F7xx_HAL_Driver/Src/stm32f7xx_hal_dma2d.c ****   /* Before aborting any DMA2D transfer or CLUT loading, check
 326:Drivers/STM32F7xx_HAL_Driver/Src/stm32f7xx_hal_dma2d.c ****      first whether or not DMA2D clock is enabled */
 327:Drivers/STM32F7xx_HAL_Driver/Src/stm32f7xx_hal_dma2d.c ****   if (__HAL_RCC_DMA2D_IS_CLK_ENABLED())
 167              		.loc 1 327 7
 168 0012 324B     		ldr	r3, .L13
 169 0014 1B6B     		ldr	r3, [r3, #48]
 170 0016 03F40003 		and	r3, r3, #8388608
 171              		.loc 1 327 6
 172 001a 002B     		cmp	r3, #0
 173 001c 2ED0     		beq	.L10
 328:Drivers/STM32F7xx_HAL_Driver/Src/stm32f7xx_hal_dma2d.c ****   {
 329:Drivers/STM32F7xx_HAL_Driver/Src/stm32f7xx_hal_dma2d.c ****     /* Abort DMA2D transfer if any */
 330:Drivers/STM32F7xx_HAL_Driver/Src/stm32f7xx_hal_dma2d.c ****     if ((hdma2d->Instance->CR & DMA2D_CR_START) == DMA2D_CR_START)
 174              		.loc 1 330 16
 175 001e 7B68     		ldr	r3, [r7, #4]
 176 0020 1B68     		ldr	r3, [r3]
 177              		.loc 1 330 26
 178 0022 1B68     		ldr	r3, [r3]
 179              		.loc 1 330 31
 180 0024 03F00103 		and	r3, r3, #1
 181              		.loc 1 330 8
 182 0028 012B     		cmp	r3, #1
 183 002a 07D1     		bne	.L11
 331:Drivers/STM32F7xx_HAL_Driver/Src/stm32f7xx_hal_dma2d.c ****     {
 332:Drivers/STM32F7xx_HAL_Driver/Src/stm32f7xx_hal_dma2d.c ****       if (HAL_DMA2D_Abort(hdma2d) != HAL_OK)
 184              		.loc 1 332 11
ARM GAS  C:\Users\jisu8\AppData\Local\Temp\ccmlnG2o.s 			page 10


 185 002c 7868     		ldr	r0, [r7, #4]
 186 002e FFF7FEFF 		bl	HAL_DMA2D_Abort
 187 0032 0346     		mov	r3, r0
 188              		.loc 1 332 10
 189 0034 002B     		cmp	r3, #0
 190 0036 21D0     		beq	.L10
 333:Drivers/STM32F7xx_HAL_Driver/Src/stm32f7xx_hal_dma2d.c ****       {
 334:Drivers/STM32F7xx_HAL_Driver/Src/stm32f7xx_hal_dma2d.c ****         /* Issue when aborting DMA2D transfer */
 335:Drivers/STM32F7xx_HAL_Driver/Src/stm32f7xx_hal_dma2d.c ****         return HAL_ERROR;
 191              		.loc 1 335 16
 192 0038 0123     		movs	r3, #1
 193 003a 4AE0     		b	.L9
 194              	.L11:
 336:Drivers/STM32F7xx_HAL_Driver/Src/stm32f7xx_hal_dma2d.c ****       }
 337:Drivers/STM32F7xx_HAL_Driver/Src/stm32f7xx_hal_dma2d.c ****     }
 338:Drivers/STM32F7xx_HAL_Driver/Src/stm32f7xx_hal_dma2d.c ****     else
 339:Drivers/STM32F7xx_HAL_Driver/Src/stm32f7xx_hal_dma2d.c ****     {
 340:Drivers/STM32F7xx_HAL_Driver/Src/stm32f7xx_hal_dma2d.c ****       /* Abort background CLUT loading if any */
 341:Drivers/STM32F7xx_HAL_Driver/Src/stm32f7xx_hal_dma2d.c ****       if ((hdma2d->Instance->BGPFCCR & DMA2D_BGPFCCR_START) == DMA2D_BGPFCCR_START)
 195              		.loc 1 341 18
 196 003c 7B68     		ldr	r3, [r7, #4]
 197 003e 1B68     		ldr	r3, [r3]
 198              		.loc 1 341 28
 199 0040 5B6A     		ldr	r3, [r3, #36]
 200              		.loc 1 341 38
 201 0042 03F02003 		and	r3, r3, #32
 202              		.loc 1 341 10
 203 0046 202B     		cmp	r3, #32
 204 0048 08D1     		bne	.L12
 342:Drivers/STM32F7xx_HAL_Driver/Src/stm32f7xx_hal_dma2d.c ****       {
 343:Drivers/STM32F7xx_HAL_Driver/Src/stm32f7xx_hal_dma2d.c ****         if (HAL_DMA2D_CLUTLoading_Abort(hdma2d, 0U) != HAL_OK)
 205              		.loc 1 343 13
 206 004a 0021     		movs	r1, #0
 207 004c 7868     		ldr	r0, [r7, #4]
 208 004e FFF7FEFF 		bl	HAL_DMA2D_CLUTLoading_Abort
 209 0052 0346     		mov	r3, r0
 210              		.loc 1 343 12
 211 0054 002B     		cmp	r3, #0
 212 0056 11D0     		beq	.L10
 344:Drivers/STM32F7xx_HAL_Driver/Src/stm32f7xx_hal_dma2d.c ****         {
 345:Drivers/STM32F7xx_HAL_Driver/Src/stm32f7xx_hal_dma2d.c ****           /* Issue when aborting background CLUT loading */
 346:Drivers/STM32F7xx_HAL_Driver/Src/stm32f7xx_hal_dma2d.c ****           return HAL_ERROR;
 213              		.loc 1 346 18
 214 0058 0123     		movs	r3, #1
 215 005a 3AE0     		b	.L9
 216              	.L12:
 347:Drivers/STM32F7xx_HAL_Driver/Src/stm32f7xx_hal_dma2d.c ****         }
 348:Drivers/STM32F7xx_HAL_Driver/Src/stm32f7xx_hal_dma2d.c ****       }
 349:Drivers/STM32F7xx_HAL_Driver/Src/stm32f7xx_hal_dma2d.c ****       else
 350:Drivers/STM32F7xx_HAL_Driver/Src/stm32f7xx_hal_dma2d.c ****       {
 351:Drivers/STM32F7xx_HAL_Driver/Src/stm32f7xx_hal_dma2d.c ****         /* Abort foreground CLUT loading if any */
 352:Drivers/STM32F7xx_HAL_Driver/Src/stm32f7xx_hal_dma2d.c ****         if ((hdma2d->Instance->FGPFCCR & DMA2D_FGPFCCR_START) == DMA2D_FGPFCCR_START)
 217              		.loc 1 352 20
 218 005c 7B68     		ldr	r3, [r7, #4]
 219 005e 1B68     		ldr	r3, [r3]
 220              		.loc 1 352 30
 221 0060 DB69     		ldr	r3, [r3, #28]
ARM GAS  C:\Users\jisu8\AppData\Local\Temp\ccmlnG2o.s 			page 11


 222              		.loc 1 352 40
 223 0062 03F02003 		and	r3, r3, #32
 224              		.loc 1 352 12
 225 0066 202B     		cmp	r3, #32
 226 0068 08D1     		bne	.L10
 353:Drivers/STM32F7xx_HAL_Driver/Src/stm32f7xx_hal_dma2d.c ****         {
 354:Drivers/STM32F7xx_HAL_Driver/Src/stm32f7xx_hal_dma2d.c ****           if (HAL_DMA2D_CLUTLoading_Abort(hdma2d, 1U) != HAL_OK)
 227              		.loc 1 354 15
 228 006a 0121     		movs	r1, #1
 229 006c 7868     		ldr	r0, [r7, #4]
 230 006e FFF7FEFF 		bl	HAL_DMA2D_CLUTLoading_Abort
 231 0072 0346     		mov	r3, r0
 232              		.loc 1 354 14
 233 0074 002B     		cmp	r3, #0
 234 0076 01D0     		beq	.L10
 355:Drivers/STM32F7xx_HAL_Driver/Src/stm32f7xx_hal_dma2d.c ****           {
 356:Drivers/STM32F7xx_HAL_Driver/Src/stm32f7xx_hal_dma2d.c ****             /* Issue when aborting foreground CLUT loading */
 357:Drivers/STM32F7xx_HAL_Driver/Src/stm32f7xx_hal_dma2d.c ****             return HAL_ERROR;
 235              		.loc 1 357 20
 236 0078 0123     		movs	r3, #1
 237 007a 2AE0     		b	.L9
 238              	.L10:
 358:Drivers/STM32F7xx_HAL_Driver/Src/stm32f7xx_hal_dma2d.c ****           }
 359:Drivers/STM32F7xx_HAL_Driver/Src/stm32f7xx_hal_dma2d.c ****         }
 360:Drivers/STM32F7xx_HAL_Driver/Src/stm32f7xx_hal_dma2d.c ****       }
 361:Drivers/STM32F7xx_HAL_Driver/Src/stm32f7xx_hal_dma2d.c ****     }
 362:Drivers/STM32F7xx_HAL_Driver/Src/stm32f7xx_hal_dma2d.c ****   }
 363:Drivers/STM32F7xx_HAL_Driver/Src/stm32f7xx_hal_dma2d.c **** 
 364:Drivers/STM32F7xx_HAL_Driver/Src/stm32f7xx_hal_dma2d.c ****   /* Reset DMA2D control registers*/
 365:Drivers/STM32F7xx_HAL_Driver/Src/stm32f7xx_hal_dma2d.c ****   hdma2d->Instance->CR       =    0U;
 239              		.loc 1 365 9
 240 007c 7B68     		ldr	r3, [r7, #4]
 241 007e 1B68     		ldr	r3, [r3]
 242              		.loc 1 365 30
 243 0080 0022     		movs	r2, #0
 244 0082 1A60     		str	r2, [r3]
 366:Drivers/STM32F7xx_HAL_Driver/Src/stm32f7xx_hal_dma2d.c ****   hdma2d->Instance->IFCR     = 0x3FU;
 245              		.loc 1 366 9
 246 0084 7B68     		ldr	r3, [r7, #4]
 247 0086 1B68     		ldr	r3, [r3]
 248              		.loc 1 366 30
 249 0088 3F22     		movs	r2, #63
 250 008a 9A60     		str	r2, [r3, #8]
 367:Drivers/STM32F7xx_HAL_Driver/Src/stm32f7xx_hal_dma2d.c ****   hdma2d->Instance->FGOR     =    0U;
 251              		.loc 1 367 9
 252 008c 7B68     		ldr	r3, [r7, #4]
 253 008e 1B68     		ldr	r3, [r3]
 254              		.loc 1 367 30
 255 0090 0022     		movs	r2, #0
 256 0092 1A61     		str	r2, [r3, #16]
 368:Drivers/STM32F7xx_HAL_Driver/Src/stm32f7xx_hal_dma2d.c ****   hdma2d->Instance->BGOR     =    0U;
 257              		.loc 1 368 9
 258 0094 7B68     		ldr	r3, [r7, #4]
 259 0096 1B68     		ldr	r3, [r3]
 260              		.loc 1 368 30
 261 0098 0022     		movs	r2, #0
 262 009a 9A61     		str	r2, [r3, #24]
ARM GAS  C:\Users\jisu8\AppData\Local\Temp\ccmlnG2o.s 			page 12


 369:Drivers/STM32F7xx_HAL_Driver/Src/stm32f7xx_hal_dma2d.c ****   hdma2d->Instance->FGPFCCR  =    0U;
 263              		.loc 1 369 9
 264 009c 7B68     		ldr	r3, [r7, #4]
 265 009e 1B68     		ldr	r3, [r3]
 266              		.loc 1 369 30
 267 00a0 0022     		movs	r2, #0
 268 00a2 DA61     		str	r2, [r3, #28]
 370:Drivers/STM32F7xx_HAL_Driver/Src/stm32f7xx_hal_dma2d.c ****   hdma2d->Instance->BGPFCCR  =    0U;
 269              		.loc 1 370 9
 270 00a4 7B68     		ldr	r3, [r7, #4]
 271 00a6 1B68     		ldr	r3, [r3]
 272              		.loc 1 370 30
 273 00a8 0022     		movs	r2, #0
 274 00aa 5A62     		str	r2, [r3, #36]
 371:Drivers/STM32F7xx_HAL_Driver/Src/stm32f7xx_hal_dma2d.c ****   hdma2d->Instance->OPFCCR   =    0U;
 275              		.loc 1 371 9
 276 00ac 7B68     		ldr	r3, [r7, #4]
 277 00ae 1B68     		ldr	r3, [r3]
 278              		.loc 1 371 30
 279 00b0 0022     		movs	r2, #0
 280 00b2 5A63     		str	r2, [r3, #52]
 372:Drivers/STM32F7xx_HAL_Driver/Src/stm32f7xx_hal_dma2d.c **** 
 373:Drivers/STM32F7xx_HAL_Driver/Src/stm32f7xx_hal_dma2d.c **** #if (USE_HAL_DMA2D_REGISTER_CALLBACKS == 1)
 374:Drivers/STM32F7xx_HAL_Driver/Src/stm32f7xx_hal_dma2d.c **** 
 375:Drivers/STM32F7xx_HAL_Driver/Src/stm32f7xx_hal_dma2d.c ****   if (hdma2d->MspDeInitCallback == NULL)
 376:Drivers/STM32F7xx_HAL_Driver/Src/stm32f7xx_hal_dma2d.c ****   {
 377:Drivers/STM32F7xx_HAL_Driver/Src/stm32f7xx_hal_dma2d.c ****     hdma2d->MspDeInitCallback = HAL_DMA2D_MspDeInit;
 378:Drivers/STM32F7xx_HAL_Driver/Src/stm32f7xx_hal_dma2d.c ****   }
 379:Drivers/STM32F7xx_HAL_Driver/Src/stm32f7xx_hal_dma2d.c **** 
 380:Drivers/STM32F7xx_HAL_Driver/Src/stm32f7xx_hal_dma2d.c ****   /* DeInit the low level hardware */
 381:Drivers/STM32F7xx_HAL_Driver/Src/stm32f7xx_hal_dma2d.c ****   hdma2d->MspDeInitCallback(hdma2d);
 382:Drivers/STM32F7xx_HAL_Driver/Src/stm32f7xx_hal_dma2d.c **** 
 383:Drivers/STM32F7xx_HAL_Driver/Src/stm32f7xx_hal_dma2d.c **** #else
 384:Drivers/STM32F7xx_HAL_Driver/Src/stm32f7xx_hal_dma2d.c ****   /* Carry on with de-initialization of low level hardware */
 385:Drivers/STM32F7xx_HAL_Driver/Src/stm32f7xx_hal_dma2d.c ****   HAL_DMA2D_MspDeInit(hdma2d);
 281              		.loc 1 385 3
 282 00b4 7868     		ldr	r0, [r7, #4]
 283 00b6 FFF7FEFF 		bl	HAL_DMA2D_MspDeInit
 386:Drivers/STM32F7xx_HAL_Driver/Src/stm32f7xx_hal_dma2d.c **** #endif /* (USE_HAL_DMA2D_REGISTER_CALLBACKS) */
 387:Drivers/STM32F7xx_HAL_Driver/Src/stm32f7xx_hal_dma2d.c **** 
 388:Drivers/STM32F7xx_HAL_Driver/Src/stm32f7xx_hal_dma2d.c ****   /* Update error code */
 389:Drivers/STM32F7xx_HAL_Driver/Src/stm32f7xx_hal_dma2d.c ****   hdma2d->ErrorCode = HAL_DMA2D_ERROR_NONE;
 284              		.loc 1 389 21
 285 00ba 7B68     		ldr	r3, [r7, #4]
 286 00bc 0022     		movs	r2, #0
 287 00be DA63     		str	r2, [r3, #60]
 390:Drivers/STM32F7xx_HAL_Driver/Src/stm32f7xx_hal_dma2d.c **** 
 391:Drivers/STM32F7xx_HAL_Driver/Src/stm32f7xx_hal_dma2d.c ****   /* Initialize the DMA2D state*/
 392:Drivers/STM32F7xx_HAL_Driver/Src/stm32f7xx_hal_dma2d.c ****   hdma2d->State  = HAL_DMA2D_STATE_RESET;
 288              		.loc 1 392 18
 289 00c0 7B68     		ldr	r3, [r7, #4]
 290 00c2 0022     		movs	r2, #0
 291 00c4 83F83920 		strb	r2, [r3, #57]
 393:Drivers/STM32F7xx_HAL_Driver/Src/stm32f7xx_hal_dma2d.c **** 
 394:Drivers/STM32F7xx_HAL_Driver/Src/stm32f7xx_hal_dma2d.c ****   /* Release Lock */
 395:Drivers/STM32F7xx_HAL_Driver/Src/stm32f7xx_hal_dma2d.c ****   __HAL_UNLOCK(hdma2d);
 292              		.loc 1 395 3
ARM GAS  C:\Users\jisu8\AppData\Local\Temp\ccmlnG2o.s 			page 13


 293 00c8 7B68     		ldr	r3, [r7, #4]
 294 00ca 0022     		movs	r2, #0
 295 00cc 83F83820 		strb	r2, [r3, #56]
 396:Drivers/STM32F7xx_HAL_Driver/Src/stm32f7xx_hal_dma2d.c **** 
 397:Drivers/STM32F7xx_HAL_Driver/Src/stm32f7xx_hal_dma2d.c ****   return HAL_OK;
 296              		.loc 1 397 10
 297 00d0 0023     		movs	r3, #0
 298              	.L9:
 398:Drivers/STM32F7xx_HAL_Driver/Src/stm32f7xx_hal_dma2d.c **** }
 299              		.loc 1 398 1
 300 00d2 1846     		mov	r0, r3
 301 00d4 0837     		adds	r7, r7, #8
 302              	.LCFI8:
 303              		.cfi_def_cfa_offset 8
 304 00d6 BD46     		mov	sp, r7
 305              	.LCFI9:
 306              		.cfi_def_cfa_register 13
 307              		@ sp needed
 308 00d8 80BD     		pop	{r7, pc}
 309              	.L14:
 310 00da 00BF     		.align	2
 311              	.L13:
 312 00dc 00380240 		.word	1073887232
 313              		.cfi_endproc
 314              	.LFE142:
 316              		.section	.text.HAL_DMA2D_MspInit,"ax",%progbits
 317              		.align	1
 318              		.weak	HAL_DMA2D_MspInit
 319              		.syntax unified
 320              		.thumb
 321              		.thumb_func
 323              	HAL_DMA2D_MspInit:
 324              	.LFB143:
 399:Drivers/STM32F7xx_HAL_Driver/Src/stm32f7xx_hal_dma2d.c **** 
 400:Drivers/STM32F7xx_HAL_Driver/Src/stm32f7xx_hal_dma2d.c **** /**
 401:Drivers/STM32F7xx_HAL_Driver/Src/stm32f7xx_hal_dma2d.c ****   * @brief  Initializes the DMA2D MSP.
 402:Drivers/STM32F7xx_HAL_Driver/Src/stm32f7xx_hal_dma2d.c ****   * @param  hdma2d pointer to a DMA2D_HandleTypeDef structure that contains
 403:Drivers/STM32F7xx_HAL_Driver/Src/stm32f7xx_hal_dma2d.c ****   *                 the configuration information for the DMA2D.
 404:Drivers/STM32F7xx_HAL_Driver/Src/stm32f7xx_hal_dma2d.c ****   * @retval None
 405:Drivers/STM32F7xx_HAL_Driver/Src/stm32f7xx_hal_dma2d.c ****   */
 406:Drivers/STM32F7xx_HAL_Driver/Src/stm32f7xx_hal_dma2d.c **** __weak void HAL_DMA2D_MspInit(DMA2D_HandleTypeDef *hdma2d)
 407:Drivers/STM32F7xx_HAL_Driver/Src/stm32f7xx_hal_dma2d.c **** {
 325              		.loc 1 407 1
 326              		.cfi_startproc
 327              		@ args = 0, pretend = 0, frame = 8
 328              		@ frame_needed = 1, uses_anonymous_args = 0
 329              		@ link register save eliminated.
 330 0000 80B4     		push	{r7}
 331              	.LCFI10:
 332              		.cfi_def_cfa_offset 4
 333              		.cfi_offset 7, -4
 334 0002 83B0     		sub	sp, sp, #12
 335              	.LCFI11:
 336              		.cfi_def_cfa_offset 16
 337 0004 00AF     		add	r7, sp, #0
 338              	.LCFI12:
 339              		.cfi_def_cfa_register 7
ARM GAS  C:\Users\jisu8\AppData\Local\Temp\ccmlnG2o.s 			page 14


 340 0006 7860     		str	r0, [r7, #4]
 408:Drivers/STM32F7xx_HAL_Driver/Src/stm32f7xx_hal_dma2d.c ****   /* Prevent unused argument(s) compilation warning */
 409:Drivers/STM32F7xx_HAL_Driver/Src/stm32f7xx_hal_dma2d.c ****   UNUSED(hdma2d);
 410:Drivers/STM32F7xx_HAL_Driver/Src/stm32f7xx_hal_dma2d.c **** 
 411:Drivers/STM32F7xx_HAL_Driver/Src/stm32f7xx_hal_dma2d.c ****   /* NOTE : This function should not be modified; when the callback is needed,
 412:Drivers/STM32F7xx_HAL_Driver/Src/stm32f7xx_hal_dma2d.c ****             the HAL_DMA2D_MspInit can be implemented in the user file.
 413:Drivers/STM32F7xx_HAL_Driver/Src/stm32f7xx_hal_dma2d.c ****    */
 414:Drivers/STM32F7xx_HAL_Driver/Src/stm32f7xx_hal_dma2d.c **** }
 341              		.loc 1 414 1
 342 0008 00BF     		nop
 343 000a 0C37     		adds	r7, r7, #12
 344              	.LCFI13:
 345              		.cfi_def_cfa_offset 4
 346 000c BD46     		mov	sp, r7
 347              	.LCFI14:
 348              		.cfi_def_cfa_register 13
 349              		@ sp needed
 350 000e 5DF8047B 		ldr	r7, [sp], #4
 351              	.LCFI15:
 352              		.cfi_restore 7
 353              		.cfi_def_cfa_offset 0
 354 0012 7047     		bx	lr
 355              		.cfi_endproc
 356              	.LFE143:
 358              		.section	.text.HAL_DMA2D_MspDeInit,"ax",%progbits
 359              		.align	1
 360              		.weak	HAL_DMA2D_MspDeInit
 361              		.syntax unified
 362              		.thumb
 363              		.thumb_func
 365              	HAL_DMA2D_MspDeInit:
 366              	.LFB144:
 415:Drivers/STM32F7xx_HAL_Driver/Src/stm32f7xx_hal_dma2d.c **** 
 416:Drivers/STM32F7xx_HAL_Driver/Src/stm32f7xx_hal_dma2d.c **** /**
 417:Drivers/STM32F7xx_HAL_Driver/Src/stm32f7xx_hal_dma2d.c ****   * @brief  DeInitializes the DMA2D MSP.
 418:Drivers/STM32F7xx_HAL_Driver/Src/stm32f7xx_hal_dma2d.c ****   * @param  hdma2d pointer to a DMA2D_HandleTypeDef structure that contains
 419:Drivers/STM32F7xx_HAL_Driver/Src/stm32f7xx_hal_dma2d.c ****   *                 the configuration information for the DMA2D.
 420:Drivers/STM32F7xx_HAL_Driver/Src/stm32f7xx_hal_dma2d.c ****   * @retval None
 421:Drivers/STM32F7xx_HAL_Driver/Src/stm32f7xx_hal_dma2d.c ****   */
 422:Drivers/STM32F7xx_HAL_Driver/Src/stm32f7xx_hal_dma2d.c **** __weak void HAL_DMA2D_MspDeInit(DMA2D_HandleTypeDef *hdma2d)
 423:Drivers/STM32F7xx_HAL_Driver/Src/stm32f7xx_hal_dma2d.c **** {
 367              		.loc 1 423 1
 368              		.cfi_startproc
 369              		@ args = 0, pretend = 0, frame = 8
 370              		@ frame_needed = 1, uses_anonymous_args = 0
 371              		@ link register save eliminated.
 372 0000 80B4     		push	{r7}
 373              	.LCFI16:
 374              		.cfi_def_cfa_offset 4
 375              		.cfi_offset 7, -4
 376 0002 83B0     		sub	sp, sp, #12
 377              	.LCFI17:
 378              		.cfi_def_cfa_offset 16
 379 0004 00AF     		add	r7, sp, #0
 380              	.LCFI18:
 381              		.cfi_def_cfa_register 7
 382 0006 7860     		str	r0, [r7, #4]
ARM GAS  C:\Users\jisu8\AppData\Local\Temp\ccmlnG2o.s 			page 15


 424:Drivers/STM32F7xx_HAL_Driver/Src/stm32f7xx_hal_dma2d.c ****   /* Prevent unused argument(s) compilation warning */
 425:Drivers/STM32F7xx_HAL_Driver/Src/stm32f7xx_hal_dma2d.c ****   UNUSED(hdma2d);
 426:Drivers/STM32F7xx_HAL_Driver/Src/stm32f7xx_hal_dma2d.c **** 
 427:Drivers/STM32F7xx_HAL_Driver/Src/stm32f7xx_hal_dma2d.c ****   /* NOTE : This function should not be modified; when the callback is needed,
 428:Drivers/STM32F7xx_HAL_Driver/Src/stm32f7xx_hal_dma2d.c ****             the HAL_DMA2D_MspDeInit can be implemented in the user file.
 429:Drivers/STM32F7xx_HAL_Driver/Src/stm32f7xx_hal_dma2d.c ****    */
 430:Drivers/STM32F7xx_HAL_Driver/Src/stm32f7xx_hal_dma2d.c **** }
 383              		.loc 1 430 1
 384 0008 00BF     		nop
 385 000a 0C37     		adds	r7, r7, #12
 386              	.LCFI19:
 387              		.cfi_def_cfa_offset 4
 388 000c BD46     		mov	sp, r7
 389              	.LCFI20:
 390              		.cfi_def_cfa_register 13
 391              		@ sp needed
 392 000e 5DF8047B 		ldr	r7, [sp], #4
 393              	.LCFI21:
 394              		.cfi_restore 7
 395              		.cfi_def_cfa_offset 0
 396 0012 7047     		bx	lr
 397              		.cfi_endproc
 398              	.LFE144:
 400              		.section	.text.HAL_DMA2D_Start,"ax",%progbits
 401              		.align	1
 402              		.global	HAL_DMA2D_Start
 403              		.syntax unified
 404              		.thumb
 405              		.thumb_func
 407              	HAL_DMA2D_Start:
 408              	.LFB145:
 431:Drivers/STM32F7xx_HAL_Driver/Src/stm32f7xx_hal_dma2d.c **** 
 432:Drivers/STM32F7xx_HAL_Driver/Src/stm32f7xx_hal_dma2d.c **** #if (USE_HAL_DMA2D_REGISTER_CALLBACKS == 1)
 433:Drivers/STM32F7xx_HAL_Driver/Src/stm32f7xx_hal_dma2d.c **** /**
 434:Drivers/STM32F7xx_HAL_Driver/Src/stm32f7xx_hal_dma2d.c ****   * @brief  Register a User DMA2D Callback
 435:Drivers/STM32F7xx_HAL_Driver/Src/stm32f7xx_hal_dma2d.c ****   *         To be used instead of the weak (surcharged) predefined callback
 436:Drivers/STM32F7xx_HAL_Driver/Src/stm32f7xx_hal_dma2d.c ****   * @param hdma2d DMA2D handle
 437:Drivers/STM32F7xx_HAL_Driver/Src/stm32f7xx_hal_dma2d.c ****   * @param CallbackID ID of the callback to be registered
 438:Drivers/STM32F7xx_HAL_Driver/Src/stm32f7xx_hal_dma2d.c ****   *        This parameter can be one of the following values:
 439:Drivers/STM32F7xx_HAL_Driver/Src/stm32f7xx_hal_dma2d.c ****   *          @arg @ref HAL_DMA2D_TRANSFERCOMPLETE_CB_ID DMA2D transfer complete Callback ID
 440:Drivers/STM32F7xx_HAL_Driver/Src/stm32f7xx_hal_dma2d.c ****   *          @arg @ref HAL_DMA2D_TRANSFERERROR_CB_ID DMA2D transfer error Callback ID
 441:Drivers/STM32F7xx_HAL_Driver/Src/stm32f7xx_hal_dma2d.c ****   *          @arg @ref HAL_DMA2D_LINEEVENT_CB_ID DMA2D line event Callback ID
 442:Drivers/STM32F7xx_HAL_Driver/Src/stm32f7xx_hal_dma2d.c ****   *          @arg @ref HAL_DMA2D_CLUTLOADINGCPLT_CB_ID DMA2D CLUT loading completion Callback ID
 443:Drivers/STM32F7xx_HAL_Driver/Src/stm32f7xx_hal_dma2d.c ****   *          @arg @ref HAL_DMA2D_MSPINIT_CB_ID DMA2D MspInit callback ID
 444:Drivers/STM32F7xx_HAL_Driver/Src/stm32f7xx_hal_dma2d.c ****   *          @arg @ref HAL_DMA2D_MSPDEINIT_CB_ID DMA2D MspDeInit callback ID
 445:Drivers/STM32F7xx_HAL_Driver/Src/stm32f7xx_hal_dma2d.c ****   * @param pCallback pointer to the Callback function
 446:Drivers/STM32F7xx_HAL_Driver/Src/stm32f7xx_hal_dma2d.c ****   * @note No weak predefined callbacks are defined for HAL_DMA2D_TRANSFERCOMPLETE_CB_ID or HAL_DMA2
 447:Drivers/STM32F7xx_HAL_Driver/Src/stm32f7xx_hal_dma2d.c ****   * @retval status
 448:Drivers/STM32F7xx_HAL_Driver/Src/stm32f7xx_hal_dma2d.c ****   */
 449:Drivers/STM32F7xx_HAL_Driver/Src/stm32f7xx_hal_dma2d.c **** HAL_StatusTypeDef HAL_DMA2D_RegisterCallback(DMA2D_HandleTypeDef *hdma2d, HAL_DMA2D_CallbackIDTypeD
 450:Drivers/STM32F7xx_HAL_Driver/Src/stm32f7xx_hal_dma2d.c ****                                              pDMA2D_CallbackTypeDef pCallback)
 451:Drivers/STM32F7xx_HAL_Driver/Src/stm32f7xx_hal_dma2d.c **** {
 452:Drivers/STM32F7xx_HAL_Driver/Src/stm32f7xx_hal_dma2d.c ****   HAL_StatusTypeDef status = HAL_OK;
 453:Drivers/STM32F7xx_HAL_Driver/Src/stm32f7xx_hal_dma2d.c **** 
 454:Drivers/STM32F7xx_HAL_Driver/Src/stm32f7xx_hal_dma2d.c ****   if (pCallback == NULL)
 455:Drivers/STM32F7xx_HAL_Driver/Src/stm32f7xx_hal_dma2d.c ****   {
 456:Drivers/STM32F7xx_HAL_Driver/Src/stm32f7xx_hal_dma2d.c ****     /* Update the error code */
ARM GAS  C:\Users\jisu8\AppData\Local\Temp\ccmlnG2o.s 			page 16


 457:Drivers/STM32F7xx_HAL_Driver/Src/stm32f7xx_hal_dma2d.c ****     hdma2d->ErrorCode |= HAL_DMA2D_ERROR_INVALID_CALLBACK;
 458:Drivers/STM32F7xx_HAL_Driver/Src/stm32f7xx_hal_dma2d.c ****     return HAL_ERROR;
 459:Drivers/STM32F7xx_HAL_Driver/Src/stm32f7xx_hal_dma2d.c ****   }
 460:Drivers/STM32F7xx_HAL_Driver/Src/stm32f7xx_hal_dma2d.c ****   /* Process locked */
 461:Drivers/STM32F7xx_HAL_Driver/Src/stm32f7xx_hal_dma2d.c ****   __HAL_LOCK(hdma2d);
 462:Drivers/STM32F7xx_HAL_Driver/Src/stm32f7xx_hal_dma2d.c **** 
 463:Drivers/STM32F7xx_HAL_Driver/Src/stm32f7xx_hal_dma2d.c ****   if (HAL_DMA2D_STATE_READY == hdma2d->State)
 464:Drivers/STM32F7xx_HAL_Driver/Src/stm32f7xx_hal_dma2d.c ****   {
 465:Drivers/STM32F7xx_HAL_Driver/Src/stm32f7xx_hal_dma2d.c ****     switch (CallbackID)
 466:Drivers/STM32F7xx_HAL_Driver/Src/stm32f7xx_hal_dma2d.c ****     {
 467:Drivers/STM32F7xx_HAL_Driver/Src/stm32f7xx_hal_dma2d.c ****       case HAL_DMA2D_TRANSFERCOMPLETE_CB_ID :
 468:Drivers/STM32F7xx_HAL_Driver/Src/stm32f7xx_hal_dma2d.c ****         hdma2d->XferCpltCallback = pCallback;
 469:Drivers/STM32F7xx_HAL_Driver/Src/stm32f7xx_hal_dma2d.c ****         break;
 470:Drivers/STM32F7xx_HAL_Driver/Src/stm32f7xx_hal_dma2d.c **** 
 471:Drivers/STM32F7xx_HAL_Driver/Src/stm32f7xx_hal_dma2d.c ****       case HAL_DMA2D_TRANSFERERROR_CB_ID :
 472:Drivers/STM32F7xx_HAL_Driver/Src/stm32f7xx_hal_dma2d.c ****         hdma2d->XferErrorCallback = pCallback;
 473:Drivers/STM32F7xx_HAL_Driver/Src/stm32f7xx_hal_dma2d.c ****         break;
 474:Drivers/STM32F7xx_HAL_Driver/Src/stm32f7xx_hal_dma2d.c **** 
 475:Drivers/STM32F7xx_HAL_Driver/Src/stm32f7xx_hal_dma2d.c ****       case HAL_DMA2D_LINEEVENT_CB_ID :
 476:Drivers/STM32F7xx_HAL_Driver/Src/stm32f7xx_hal_dma2d.c ****         hdma2d->LineEventCallback = pCallback;
 477:Drivers/STM32F7xx_HAL_Driver/Src/stm32f7xx_hal_dma2d.c ****         break;
 478:Drivers/STM32F7xx_HAL_Driver/Src/stm32f7xx_hal_dma2d.c **** 
 479:Drivers/STM32F7xx_HAL_Driver/Src/stm32f7xx_hal_dma2d.c ****       case HAL_DMA2D_CLUTLOADINGCPLT_CB_ID :
 480:Drivers/STM32F7xx_HAL_Driver/Src/stm32f7xx_hal_dma2d.c ****         hdma2d->CLUTLoadingCpltCallback = pCallback;
 481:Drivers/STM32F7xx_HAL_Driver/Src/stm32f7xx_hal_dma2d.c ****         break;
 482:Drivers/STM32F7xx_HAL_Driver/Src/stm32f7xx_hal_dma2d.c **** 
 483:Drivers/STM32F7xx_HAL_Driver/Src/stm32f7xx_hal_dma2d.c ****       case HAL_DMA2D_MSPINIT_CB_ID :
 484:Drivers/STM32F7xx_HAL_Driver/Src/stm32f7xx_hal_dma2d.c ****         hdma2d->MspInitCallback = pCallback;
 485:Drivers/STM32F7xx_HAL_Driver/Src/stm32f7xx_hal_dma2d.c ****         break;
 486:Drivers/STM32F7xx_HAL_Driver/Src/stm32f7xx_hal_dma2d.c **** 
 487:Drivers/STM32F7xx_HAL_Driver/Src/stm32f7xx_hal_dma2d.c ****       case HAL_DMA2D_MSPDEINIT_CB_ID :
 488:Drivers/STM32F7xx_HAL_Driver/Src/stm32f7xx_hal_dma2d.c ****         hdma2d->MspDeInitCallback = pCallback;
 489:Drivers/STM32F7xx_HAL_Driver/Src/stm32f7xx_hal_dma2d.c ****         break;
 490:Drivers/STM32F7xx_HAL_Driver/Src/stm32f7xx_hal_dma2d.c **** 
 491:Drivers/STM32F7xx_HAL_Driver/Src/stm32f7xx_hal_dma2d.c ****       default :
 492:Drivers/STM32F7xx_HAL_Driver/Src/stm32f7xx_hal_dma2d.c ****         /* Update the error code */
 493:Drivers/STM32F7xx_HAL_Driver/Src/stm32f7xx_hal_dma2d.c ****         hdma2d->ErrorCode |= HAL_DMA2D_ERROR_INVALID_CALLBACK;
 494:Drivers/STM32F7xx_HAL_Driver/Src/stm32f7xx_hal_dma2d.c ****         /* update return status */
 495:Drivers/STM32F7xx_HAL_Driver/Src/stm32f7xx_hal_dma2d.c ****         status =  HAL_ERROR;
 496:Drivers/STM32F7xx_HAL_Driver/Src/stm32f7xx_hal_dma2d.c ****         break;
 497:Drivers/STM32F7xx_HAL_Driver/Src/stm32f7xx_hal_dma2d.c ****     }
 498:Drivers/STM32F7xx_HAL_Driver/Src/stm32f7xx_hal_dma2d.c ****   }
 499:Drivers/STM32F7xx_HAL_Driver/Src/stm32f7xx_hal_dma2d.c ****   else if (HAL_DMA2D_STATE_RESET == hdma2d->State)
 500:Drivers/STM32F7xx_HAL_Driver/Src/stm32f7xx_hal_dma2d.c ****   {
 501:Drivers/STM32F7xx_HAL_Driver/Src/stm32f7xx_hal_dma2d.c ****     switch (CallbackID)
 502:Drivers/STM32F7xx_HAL_Driver/Src/stm32f7xx_hal_dma2d.c ****     {
 503:Drivers/STM32F7xx_HAL_Driver/Src/stm32f7xx_hal_dma2d.c ****       case HAL_DMA2D_MSPINIT_CB_ID :
 504:Drivers/STM32F7xx_HAL_Driver/Src/stm32f7xx_hal_dma2d.c ****         hdma2d->MspInitCallback = pCallback;
 505:Drivers/STM32F7xx_HAL_Driver/Src/stm32f7xx_hal_dma2d.c ****         break;
 506:Drivers/STM32F7xx_HAL_Driver/Src/stm32f7xx_hal_dma2d.c **** 
 507:Drivers/STM32F7xx_HAL_Driver/Src/stm32f7xx_hal_dma2d.c ****       case HAL_DMA2D_MSPDEINIT_CB_ID :
 508:Drivers/STM32F7xx_HAL_Driver/Src/stm32f7xx_hal_dma2d.c ****         hdma2d->MspDeInitCallback = pCallback;
 509:Drivers/STM32F7xx_HAL_Driver/Src/stm32f7xx_hal_dma2d.c ****         break;
 510:Drivers/STM32F7xx_HAL_Driver/Src/stm32f7xx_hal_dma2d.c **** 
 511:Drivers/STM32F7xx_HAL_Driver/Src/stm32f7xx_hal_dma2d.c ****       default :
 512:Drivers/STM32F7xx_HAL_Driver/Src/stm32f7xx_hal_dma2d.c ****         /* Update the error code */
 513:Drivers/STM32F7xx_HAL_Driver/Src/stm32f7xx_hal_dma2d.c ****         hdma2d->ErrorCode |= HAL_DMA2D_ERROR_INVALID_CALLBACK;
ARM GAS  C:\Users\jisu8\AppData\Local\Temp\ccmlnG2o.s 			page 17


 514:Drivers/STM32F7xx_HAL_Driver/Src/stm32f7xx_hal_dma2d.c ****         /* update return status */
 515:Drivers/STM32F7xx_HAL_Driver/Src/stm32f7xx_hal_dma2d.c ****         status =  HAL_ERROR;
 516:Drivers/STM32F7xx_HAL_Driver/Src/stm32f7xx_hal_dma2d.c ****         break;
 517:Drivers/STM32F7xx_HAL_Driver/Src/stm32f7xx_hal_dma2d.c ****     }
 518:Drivers/STM32F7xx_HAL_Driver/Src/stm32f7xx_hal_dma2d.c ****   }
 519:Drivers/STM32F7xx_HAL_Driver/Src/stm32f7xx_hal_dma2d.c ****   else
 520:Drivers/STM32F7xx_HAL_Driver/Src/stm32f7xx_hal_dma2d.c ****   {
 521:Drivers/STM32F7xx_HAL_Driver/Src/stm32f7xx_hal_dma2d.c ****     /* Update the error code */
 522:Drivers/STM32F7xx_HAL_Driver/Src/stm32f7xx_hal_dma2d.c ****     hdma2d->ErrorCode |= HAL_DMA2D_ERROR_INVALID_CALLBACK;
 523:Drivers/STM32F7xx_HAL_Driver/Src/stm32f7xx_hal_dma2d.c ****     /* update return status */
 524:Drivers/STM32F7xx_HAL_Driver/Src/stm32f7xx_hal_dma2d.c ****     status =  HAL_ERROR;
 525:Drivers/STM32F7xx_HAL_Driver/Src/stm32f7xx_hal_dma2d.c ****   }
 526:Drivers/STM32F7xx_HAL_Driver/Src/stm32f7xx_hal_dma2d.c **** 
 527:Drivers/STM32F7xx_HAL_Driver/Src/stm32f7xx_hal_dma2d.c ****   /* Release Lock */
 528:Drivers/STM32F7xx_HAL_Driver/Src/stm32f7xx_hal_dma2d.c ****   __HAL_UNLOCK(hdma2d);
 529:Drivers/STM32F7xx_HAL_Driver/Src/stm32f7xx_hal_dma2d.c ****   return status;
 530:Drivers/STM32F7xx_HAL_Driver/Src/stm32f7xx_hal_dma2d.c **** }
 531:Drivers/STM32F7xx_HAL_Driver/Src/stm32f7xx_hal_dma2d.c **** 
 532:Drivers/STM32F7xx_HAL_Driver/Src/stm32f7xx_hal_dma2d.c **** /**
 533:Drivers/STM32F7xx_HAL_Driver/Src/stm32f7xx_hal_dma2d.c ****   * @brief  Unregister a DMA2D Callback
 534:Drivers/STM32F7xx_HAL_Driver/Src/stm32f7xx_hal_dma2d.c ****   *         DMA2D Callback is redirected to the weak (surcharged) predefined callback
 535:Drivers/STM32F7xx_HAL_Driver/Src/stm32f7xx_hal_dma2d.c ****   * @param hdma2d DMA2D handle
 536:Drivers/STM32F7xx_HAL_Driver/Src/stm32f7xx_hal_dma2d.c ****   * @param CallbackID ID of the callback to be unregistered
 537:Drivers/STM32F7xx_HAL_Driver/Src/stm32f7xx_hal_dma2d.c ****   *        This parameter can be one of the following values:
 538:Drivers/STM32F7xx_HAL_Driver/Src/stm32f7xx_hal_dma2d.c ****   *          @arg @ref HAL_DMA2D_TRANSFERCOMPLETE_CB_ID DMA2D transfer complete Callback ID
 539:Drivers/STM32F7xx_HAL_Driver/Src/stm32f7xx_hal_dma2d.c ****   *          @arg @ref HAL_DMA2D_TRANSFERERROR_CB_ID DMA2D transfer error Callback ID
 540:Drivers/STM32F7xx_HAL_Driver/Src/stm32f7xx_hal_dma2d.c ****   *          @arg @ref HAL_DMA2D_LINEEVENT_CB_ID DMA2D line event Callback ID
 541:Drivers/STM32F7xx_HAL_Driver/Src/stm32f7xx_hal_dma2d.c ****   *          @arg @ref HAL_DMA2D_CLUTLOADINGCPLT_CB_ID DMA2D CLUT loading completion Callback ID
 542:Drivers/STM32F7xx_HAL_Driver/Src/stm32f7xx_hal_dma2d.c ****   *          @arg @ref HAL_DMA2D_MSPINIT_CB_ID DMA2D MspInit callback ID
 543:Drivers/STM32F7xx_HAL_Driver/Src/stm32f7xx_hal_dma2d.c ****   *          @arg @ref HAL_DMA2D_MSPDEINIT_CB_ID DMA2D MspDeInit callback ID
 544:Drivers/STM32F7xx_HAL_Driver/Src/stm32f7xx_hal_dma2d.c ****   * @note No weak predefined callbacks are defined for HAL_DMA2D_TRANSFERCOMPLETE_CB_ID or HAL_DMA2
 545:Drivers/STM32F7xx_HAL_Driver/Src/stm32f7xx_hal_dma2d.c ****   * @retval status
 546:Drivers/STM32F7xx_HAL_Driver/Src/stm32f7xx_hal_dma2d.c ****   */
 547:Drivers/STM32F7xx_HAL_Driver/Src/stm32f7xx_hal_dma2d.c **** HAL_StatusTypeDef HAL_DMA2D_UnRegisterCallback(DMA2D_HandleTypeDef *hdma2d, HAL_DMA2D_CallbackIDTyp
 548:Drivers/STM32F7xx_HAL_Driver/Src/stm32f7xx_hal_dma2d.c **** {
 549:Drivers/STM32F7xx_HAL_Driver/Src/stm32f7xx_hal_dma2d.c ****   HAL_StatusTypeDef status = HAL_OK;
 550:Drivers/STM32F7xx_HAL_Driver/Src/stm32f7xx_hal_dma2d.c **** 
 551:Drivers/STM32F7xx_HAL_Driver/Src/stm32f7xx_hal_dma2d.c ****   /* Process locked */
 552:Drivers/STM32F7xx_HAL_Driver/Src/stm32f7xx_hal_dma2d.c ****   __HAL_LOCK(hdma2d);
 553:Drivers/STM32F7xx_HAL_Driver/Src/stm32f7xx_hal_dma2d.c **** 
 554:Drivers/STM32F7xx_HAL_Driver/Src/stm32f7xx_hal_dma2d.c ****   if (HAL_DMA2D_STATE_READY == hdma2d->State)
 555:Drivers/STM32F7xx_HAL_Driver/Src/stm32f7xx_hal_dma2d.c ****   {
 556:Drivers/STM32F7xx_HAL_Driver/Src/stm32f7xx_hal_dma2d.c ****     switch (CallbackID)
 557:Drivers/STM32F7xx_HAL_Driver/Src/stm32f7xx_hal_dma2d.c ****     {
 558:Drivers/STM32F7xx_HAL_Driver/Src/stm32f7xx_hal_dma2d.c ****       case HAL_DMA2D_TRANSFERCOMPLETE_CB_ID :
 559:Drivers/STM32F7xx_HAL_Driver/Src/stm32f7xx_hal_dma2d.c ****         hdma2d->XferCpltCallback = NULL;
 560:Drivers/STM32F7xx_HAL_Driver/Src/stm32f7xx_hal_dma2d.c ****         break;
 561:Drivers/STM32F7xx_HAL_Driver/Src/stm32f7xx_hal_dma2d.c **** 
 562:Drivers/STM32F7xx_HAL_Driver/Src/stm32f7xx_hal_dma2d.c ****       case HAL_DMA2D_TRANSFERERROR_CB_ID :
 563:Drivers/STM32F7xx_HAL_Driver/Src/stm32f7xx_hal_dma2d.c ****         hdma2d->XferErrorCallback = NULL;
 564:Drivers/STM32F7xx_HAL_Driver/Src/stm32f7xx_hal_dma2d.c ****         break;
 565:Drivers/STM32F7xx_HAL_Driver/Src/stm32f7xx_hal_dma2d.c **** 
 566:Drivers/STM32F7xx_HAL_Driver/Src/stm32f7xx_hal_dma2d.c ****       case HAL_DMA2D_LINEEVENT_CB_ID :
 567:Drivers/STM32F7xx_HAL_Driver/Src/stm32f7xx_hal_dma2d.c ****         hdma2d->LineEventCallback = HAL_DMA2D_LineEventCallback;
 568:Drivers/STM32F7xx_HAL_Driver/Src/stm32f7xx_hal_dma2d.c ****         break;
 569:Drivers/STM32F7xx_HAL_Driver/Src/stm32f7xx_hal_dma2d.c **** 
 570:Drivers/STM32F7xx_HAL_Driver/Src/stm32f7xx_hal_dma2d.c ****       case HAL_DMA2D_CLUTLOADINGCPLT_CB_ID :
ARM GAS  C:\Users\jisu8\AppData\Local\Temp\ccmlnG2o.s 			page 18


 571:Drivers/STM32F7xx_HAL_Driver/Src/stm32f7xx_hal_dma2d.c ****         hdma2d->CLUTLoadingCpltCallback = HAL_DMA2D_CLUTLoadingCpltCallback;
 572:Drivers/STM32F7xx_HAL_Driver/Src/stm32f7xx_hal_dma2d.c ****         break;
 573:Drivers/STM32F7xx_HAL_Driver/Src/stm32f7xx_hal_dma2d.c **** 
 574:Drivers/STM32F7xx_HAL_Driver/Src/stm32f7xx_hal_dma2d.c ****       case HAL_DMA2D_MSPINIT_CB_ID :
 575:Drivers/STM32F7xx_HAL_Driver/Src/stm32f7xx_hal_dma2d.c ****         hdma2d->MspInitCallback = HAL_DMA2D_MspInit; /* Legacy weak (surcharged) Msp Init */
 576:Drivers/STM32F7xx_HAL_Driver/Src/stm32f7xx_hal_dma2d.c ****         break;
 577:Drivers/STM32F7xx_HAL_Driver/Src/stm32f7xx_hal_dma2d.c **** 
 578:Drivers/STM32F7xx_HAL_Driver/Src/stm32f7xx_hal_dma2d.c ****       case HAL_DMA2D_MSPDEINIT_CB_ID :
 579:Drivers/STM32F7xx_HAL_Driver/Src/stm32f7xx_hal_dma2d.c ****         hdma2d->MspDeInitCallback = HAL_DMA2D_MspDeInit; /* Legacy weak (surcharged) Msp DeInit */
 580:Drivers/STM32F7xx_HAL_Driver/Src/stm32f7xx_hal_dma2d.c ****         break;
 581:Drivers/STM32F7xx_HAL_Driver/Src/stm32f7xx_hal_dma2d.c **** 
 582:Drivers/STM32F7xx_HAL_Driver/Src/stm32f7xx_hal_dma2d.c ****       default :
 583:Drivers/STM32F7xx_HAL_Driver/Src/stm32f7xx_hal_dma2d.c ****         /* Update the error code */
 584:Drivers/STM32F7xx_HAL_Driver/Src/stm32f7xx_hal_dma2d.c ****         hdma2d->ErrorCode |= HAL_DMA2D_ERROR_INVALID_CALLBACK;
 585:Drivers/STM32F7xx_HAL_Driver/Src/stm32f7xx_hal_dma2d.c ****         /* update return status */
 586:Drivers/STM32F7xx_HAL_Driver/Src/stm32f7xx_hal_dma2d.c ****         status =  HAL_ERROR;
 587:Drivers/STM32F7xx_HAL_Driver/Src/stm32f7xx_hal_dma2d.c ****         break;
 588:Drivers/STM32F7xx_HAL_Driver/Src/stm32f7xx_hal_dma2d.c ****     }
 589:Drivers/STM32F7xx_HAL_Driver/Src/stm32f7xx_hal_dma2d.c ****   }
 590:Drivers/STM32F7xx_HAL_Driver/Src/stm32f7xx_hal_dma2d.c ****   else if (HAL_DMA2D_STATE_RESET == hdma2d->State)
 591:Drivers/STM32F7xx_HAL_Driver/Src/stm32f7xx_hal_dma2d.c ****   {
 592:Drivers/STM32F7xx_HAL_Driver/Src/stm32f7xx_hal_dma2d.c ****     switch (CallbackID)
 593:Drivers/STM32F7xx_HAL_Driver/Src/stm32f7xx_hal_dma2d.c ****     {
 594:Drivers/STM32F7xx_HAL_Driver/Src/stm32f7xx_hal_dma2d.c ****       case HAL_DMA2D_MSPINIT_CB_ID :
 595:Drivers/STM32F7xx_HAL_Driver/Src/stm32f7xx_hal_dma2d.c ****         hdma2d->MspInitCallback = HAL_DMA2D_MspInit;   /* Legacy weak (surcharged) Msp Init */
 596:Drivers/STM32F7xx_HAL_Driver/Src/stm32f7xx_hal_dma2d.c ****         break;
 597:Drivers/STM32F7xx_HAL_Driver/Src/stm32f7xx_hal_dma2d.c **** 
 598:Drivers/STM32F7xx_HAL_Driver/Src/stm32f7xx_hal_dma2d.c ****       case HAL_DMA2D_MSPDEINIT_CB_ID :
 599:Drivers/STM32F7xx_HAL_Driver/Src/stm32f7xx_hal_dma2d.c ****         hdma2d->MspDeInitCallback = HAL_DMA2D_MspDeInit;  /* Legacy weak (surcharged) Msp DeInit */
 600:Drivers/STM32F7xx_HAL_Driver/Src/stm32f7xx_hal_dma2d.c ****         break;
 601:Drivers/STM32F7xx_HAL_Driver/Src/stm32f7xx_hal_dma2d.c **** 
 602:Drivers/STM32F7xx_HAL_Driver/Src/stm32f7xx_hal_dma2d.c ****       default :
 603:Drivers/STM32F7xx_HAL_Driver/Src/stm32f7xx_hal_dma2d.c ****         /* Update the error code */
 604:Drivers/STM32F7xx_HAL_Driver/Src/stm32f7xx_hal_dma2d.c ****         hdma2d->ErrorCode |= HAL_DMA2D_ERROR_INVALID_CALLBACK;
 605:Drivers/STM32F7xx_HAL_Driver/Src/stm32f7xx_hal_dma2d.c ****         /* update return status */
 606:Drivers/STM32F7xx_HAL_Driver/Src/stm32f7xx_hal_dma2d.c ****         status =  HAL_ERROR;
 607:Drivers/STM32F7xx_HAL_Driver/Src/stm32f7xx_hal_dma2d.c ****         break;
 608:Drivers/STM32F7xx_HAL_Driver/Src/stm32f7xx_hal_dma2d.c ****     }
 609:Drivers/STM32F7xx_HAL_Driver/Src/stm32f7xx_hal_dma2d.c ****   }
 610:Drivers/STM32F7xx_HAL_Driver/Src/stm32f7xx_hal_dma2d.c ****   else
 611:Drivers/STM32F7xx_HAL_Driver/Src/stm32f7xx_hal_dma2d.c ****   {
 612:Drivers/STM32F7xx_HAL_Driver/Src/stm32f7xx_hal_dma2d.c ****     /* Update the error code */
 613:Drivers/STM32F7xx_HAL_Driver/Src/stm32f7xx_hal_dma2d.c ****     hdma2d->ErrorCode |= HAL_DMA2D_ERROR_INVALID_CALLBACK;
 614:Drivers/STM32F7xx_HAL_Driver/Src/stm32f7xx_hal_dma2d.c ****     /* update return status */
 615:Drivers/STM32F7xx_HAL_Driver/Src/stm32f7xx_hal_dma2d.c ****     status =  HAL_ERROR;
 616:Drivers/STM32F7xx_HAL_Driver/Src/stm32f7xx_hal_dma2d.c ****   }
 617:Drivers/STM32F7xx_HAL_Driver/Src/stm32f7xx_hal_dma2d.c **** 
 618:Drivers/STM32F7xx_HAL_Driver/Src/stm32f7xx_hal_dma2d.c ****   /* Release Lock */
 619:Drivers/STM32F7xx_HAL_Driver/Src/stm32f7xx_hal_dma2d.c ****   __HAL_UNLOCK(hdma2d);
 620:Drivers/STM32F7xx_HAL_Driver/Src/stm32f7xx_hal_dma2d.c ****   return status;
 621:Drivers/STM32F7xx_HAL_Driver/Src/stm32f7xx_hal_dma2d.c **** }
 622:Drivers/STM32F7xx_HAL_Driver/Src/stm32f7xx_hal_dma2d.c **** #endif /* USE_HAL_DMA2D_REGISTER_CALLBACKS */
 623:Drivers/STM32F7xx_HAL_Driver/Src/stm32f7xx_hal_dma2d.c **** 
 624:Drivers/STM32F7xx_HAL_Driver/Src/stm32f7xx_hal_dma2d.c **** /**
 625:Drivers/STM32F7xx_HAL_Driver/Src/stm32f7xx_hal_dma2d.c ****   * @}
 626:Drivers/STM32F7xx_HAL_Driver/Src/stm32f7xx_hal_dma2d.c ****   */
 627:Drivers/STM32F7xx_HAL_Driver/Src/stm32f7xx_hal_dma2d.c **** 
ARM GAS  C:\Users\jisu8\AppData\Local\Temp\ccmlnG2o.s 			page 19


 628:Drivers/STM32F7xx_HAL_Driver/Src/stm32f7xx_hal_dma2d.c **** 
 629:Drivers/STM32F7xx_HAL_Driver/Src/stm32f7xx_hal_dma2d.c **** /** @defgroup DMA2D_Exported_Functions_Group2 IO operation functions
 630:Drivers/STM32F7xx_HAL_Driver/Src/stm32f7xx_hal_dma2d.c ****   *  @brief   IO operation functions
 631:Drivers/STM32F7xx_HAL_Driver/Src/stm32f7xx_hal_dma2d.c ****   *
 632:Drivers/STM32F7xx_HAL_Driver/Src/stm32f7xx_hal_dma2d.c **** @verbatim
 633:Drivers/STM32F7xx_HAL_Driver/Src/stm32f7xx_hal_dma2d.c ****  ===============================================================================
 634:Drivers/STM32F7xx_HAL_Driver/Src/stm32f7xx_hal_dma2d.c ****                       #####  IO operation functions  #####
 635:Drivers/STM32F7xx_HAL_Driver/Src/stm32f7xx_hal_dma2d.c ****  ===============================================================================
 636:Drivers/STM32F7xx_HAL_Driver/Src/stm32f7xx_hal_dma2d.c ****     [..]  This section provides functions allowing to:
 637:Drivers/STM32F7xx_HAL_Driver/Src/stm32f7xx_hal_dma2d.c ****       (+) Configure the pdata, destination address and data size then
 638:Drivers/STM32F7xx_HAL_Driver/Src/stm32f7xx_hal_dma2d.c ****           start the DMA2D transfer.
 639:Drivers/STM32F7xx_HAL_Driver/Src/stm32f7xx_hal_dma2d.c ****       (+) Configure the source for foreground and background, destination address
 640:Drivers/STM32F7xx_HAL_Driver/Src/stm32f7xx_hal_dma2d.c ****           and data size then start a MultiBuffer DMA2D transfer.
 641:Drivers/STM32F7xx_HAL_Driver/Src/stm32f7xx_hal_dma2d.c ****       (+) Configure the pdata, destination address and data size then
 642:Drivers/STM32F7xx_HAL_Driver/Src/stm32f7xx_hal_dma2d.c ****           start the DMA2D transfer with interrupt.
 643:Drivers/STM32F7xx_HAL_Driver/Src/stm32f7xx_hal_dma2d.c ****       (+) Configure the source for foreground and background, destination address
 644:Drivers/STM32F7xx_HAL_Driver/Src/stm32f7xx_hal_dma2d.c ****           and data size then start a MultiBuffer DMA2D transfer with interrupt.
 645:Drivers/STM32F7xx_HAL_Driver/Src/stm32f7xx_hal_dma2d.c ****       (+) Abort DMA2D transfer.
 646:Drivers/STM32F7xx_HAL_Driver/Src/stm32f7xx_hal_dma2d.c ****       (+) Suspend DMA2D transfer.
 647:Drivers/STM32F7xx_HAL_Driver/Src/stm32f7xx_hal_dma2d.c ****       (+) Resume DMA2D transfer.
 648:Drivers/STM32F7xx_HAL_Driver/Src/stm32f7xx_hal_dma2d.c ****       (+) Enable CLUT transfer.
 649:Drivers/STM32F7xx_HAL_Driver/Src/stm32f7xx_hal_dma2d.c ****       (+) Configure CLUT loading then start transfer in polling mode.
 650:Drivers/STM32F7xx_HAL_Driver/Src/stm32f7xx_hal_dma2d.c ****       (+) Configure CLUT loading then start transfer in interrupt mode.
 651:Drivers/STM32F7xx_HAL_Driver/Src/stm32f7xx_hal_dma2d.c ****       (+) Abort DMA2D CLUT loading.
 652:Drivers/STM32F7xx_HAL_Driver/Src/stm32f7xx_hal_dma2d.c ****       (+) Suspend DMA2D CLUT loading.
 653:Drivers/STM32F7xx_HAL_Driver/Src/stm32f7xx_hal_dma2d.c ****       (+) Resume DMA2D CLUT loading.
 654:Drivers/STM32F7xx_HAL_Driver/Src/stm32f7xx_hal_dma2d.c ****       (+) Poll for transfer complete.
 655:Drivers/STM32F7xx_HAL_Driver/Src/stm32f7xx_hal_dma2d.c ****       (+) handle DMA2D interrupt request.
 656:Drivers/STM32F7xx_HAL_Driver/Src/stm32f7xx_hal_dma2d.c ****       (+) Transfer watermark callback.
 657:Drivers/STM32F7xx_HAL_Driver/Src/stm32f7xx_hal_dma2d.c ****       (+) CLUT Transfer Complete callback.
 658:Drivers/STM32F7xx_HAL_Driver/Src/stm32f7xx_hal_dma2d.c **** 
 659:Drivers/STM32F7xx_HAL_Driver/Src/stm32f7xx_hal_dma2d.c **** 
 660:Drivers/STM32F7xx_HAL_Driver/Src/stm32f7xx_hal_dma2d.c **** @endverbatim
 661:Drivers/STM32F7xx_HAL_Driver/Src/stm32f7xx_hal_dma2d.c ****   * @{
 662:Drivers/STM32F7xx_HAL_Driver/Src/stm32f7xx_hal_dma2d.c ****   */
 663:Drivers/STM32F7xx_HAL_Driver/Src/stm32f7xx_hal_dma2d.c **** 
 664:Drivers/STM32F7xx_HAL_Driver/Src/stm32f7xx_hal_dma2d.c **** /**
 665:Drivers/STM32F7xx_HAL_Driver/Src/stm32f7xx_hal_dma2d.c ****   * @brief  Start the DMA2D Transfer.
 666:Drivers/STM32F7xx_HAL_Driver/Src/stm32f7xx_hal_dma2d.c ****   * @param  hdma2d     Pointer to a DMA2D_HandleTypeDef structure that contains
 667:Drivers/STM32F7xx_HAL_Driver/Src/stm32f7xx_hal_dma2d.c ****   *                     the configuration information for the DMA2D.
 668:Drivers/STM32F7xx_HAL_Driver/Src/stm32f7xx_hal_dma2d.c ****   * @param  pdata      Configure the source memory Buffer address if
 669:Drivers/STM32F7xx_HAL_Driver/Src/stm32f7xx_hal_dma2d.c ****   *                     Memory-to-Memory or Memory-to-Memory with pixel format
 670:Drivers/STM32F7xx_HAL_Driver/Src/stm32f7xx_hal_dma2d.c ****   *                     conversion mode is selected, or configure
 671:Drivers/STM32F7xx_HAL_Driver/Src/stm32f7xx_hal_dma2d.c ****   *                     the color value if Register-to-Memory mode is selected.
 672:Drivers/STM32F7xx_HAL_Driver/Src/stm32f7xx_hal_dma2d.c ****   * @param  DstAddress The destination memory Buffer address.
 673:Drivers/STM32F7xx_HAL_Driver/Src/stm32f7xx_hal_dma2d.c ****   * @param  Width      The width of data to be transferred from source
 674:Drivers/STM32F7xx_HAL_Driver/Src/stm32f7xx_hal_dma2d.c ****   *                    to destination (expressed in number of pixels per line).
 675:Drivers/STM32F7xx_HAL_Driver/Src/stm32f7xx_hal_dma2d.c ****   * @param  Height     The height of data to be transferred from source to destination (expressed i
 676:Drivers/STM32F7xx_HAL_Driver/Src/stm32f7xx_hal_dma2d.c ****   * @retval HAL status
 677:Drivers/STM32F7xx_HAL_Driver/Src/stm32f7xx_hal_dma2d.c ****   */
 678:Drivers/STM32F7xx_HAL_Driver/Src/stm32f7xx_hal_dma2d.c **** HAL_StatusTypeDef HAL_DMA2D_Start(DMA2D_HandleTypeDef *hdma2d, uint32_t pdata, uint32_t DstAddress,
 679:Drivers/STM32F7xx_HAL_Driver/Src/stm32f7xx_hal_dma2d.c ****                                   uint32_t Height)
 680:Drivers/STM32F7xx_HAL_Driver/Src/stm32f7xx_hal_dma2d.c **** {
 409              		.loc 1 680 1
 410              		.cfi_startproc
 411              		@ args = 4, pretend = 0, frame = 16
 412              		@ frame_needed = 1, uses_anonymous_args = 0
ARM GAS  C:\Users\jisu8\AppData\Local\Temp\ccmlnG2o.s 			page 20


 413 0000 80B5     		push	{r7, lr}
 414              	.LCFI22:
 415              		.cfi_def_cfa_offset 8
 416              		.cfi_offset 7, -8
 417              		.cfi_offset 14, -4
 418 0002 86B0     		sub	sp, sp, #24
 419              	.LCFI23:
 420              		.cfi_def_cfa_offset 32
 421 0004 02AF     		add	r7, sp, #8
 422              	.LCFI24:
 423              		.cfi_def_cfa 7, 24
 424 0006 F860     		str	r0, [r7, #12]
 425 0008 B960     		str	r1, [r7, #8]
 426 000a 7A60     		str	r2, [r7, #4]
 427 000c 3B60     		str	r3, [r7]
 681:Drivers/STM32F7xx_HAL_Driver/Src/stm32f7xx_hal_dma2d.c ****   /* Check the parameters */
 682:Drivers/STM32F7xx_HAL_Driver/Src/stm32f7xx_hal_dma2d.c ****   assert_param(IS_DMA2D_LINE(Height));
 683:Drivers/STM32F7xx_HAL_Driver/Src/stm32f7xx_hal_dma2d.c ****   assert_param(IS_DMA2D_PIXEL(Width));
 684:Drivers/STM32F7xx_HAL_Driver/Src/stm32f7xx_hal_dma2d.c **** 
 685:Drivers/STM32F7xx_HAL_Driver/Src/stm32f7xx_hal_dma2d.c ****   /* Process locked */
 686:Drivers/STM32F7xx_HAL_Driver/Src/stm32f7xx_hal_dma2d.c ****   __HAL_LOCK(hdma2d);
 428              		.loc 1 686 3
 429 000e FB68     		ldr	r3, [r7, #12]
 430 0010 93F83830 		ldrb	r3, [r3, #56]	@ zero_extendqisi2
 431 0014 012B     		cmp	r3, #1
 432 0016 01D1     		bne	.L18
 433              		.loc 1 686 3 is_stmt 0 discriminator 1
 434 0018 0223     		movs	r3, #2
 435 001a 18E0     		b	.L19
 436              	.L18:
 437              		.loc 1 686 3 discriminator 2
 438 001c FB68     		ldr	r3, [r7, #12]
 439 001e 0122     		movs	r2, #1
 440 0020 83F83820 		strb	r2, [r3, #56]
 687:Drivers/STM32F7xx_HAL_Driver/Src/stm32f7xx_hal_dma2d.c **** 
 688:Drivers/STM32F7xx_HAL_Driver/Src/stm32f7xx_hal_dma2d.c ****   /* Change DMA2D peripheral state */
 689:Drivers/STM32F7xx_HAL_Driver/Src/stm32f7xx_hal_dma2d.c ****   hdma2d->State = HAL_DMA2D_STATE_BUSY;
 441              		.loc 1 689 17 is_stmt 1 discriminator 2
 442 0024 FB68     		ldr	r3, [r7, #12]
 443 0026 0222     		movs	r2, #2
 444 0028 83F83920 		strb	r2, [r3, #57]
 690:Drivers/STM32F7xx_HAL_Driver/Src/stm32f7xx_hal_dma2d.c **** 
 691:Drivers/STM32F7xx_HAL_Driver/Src/stm32f7xx_hal_dma2d.c ****   /* Configure the source, destination address and the data size */
 692:Drivers/STM32F7xx_HAL_Driver/Src/stm32f7xx_hal_dma2d.c ****   DMA2D_SetConfig(hdma2d, pdata, DstAddress, Width, Height);
 445              		.loc 1 692 3 discriminator 2
 446 002c BB69     		ldr	r3, [r7, #24]
 447 002e 0093     		str	r3, [sp]
 448 0030 3B68     		ldr	r3, [r7]
 449 0032 7A68     		ldr	r2, [r7, #4]
 450 0034 B968     		ldr	r1, [r7, #8]
 451 0036 F868     		ldr	r0, [r7, #12]
 452 0038 FFF7FEFF 		bl	DMA2D_SetConfig
 693:Drivers/STM32F7xx_HAL_Driver/Src/stm32f7xx_hal_dma2d.c **** 
 694:Drivers/STM32F7xx_HAL_Driver/Src/stm32f7xx_hal_dma2d.c ****   /* Enable the Peripheral */
 695:Drivers/STM32F7xx_HAL_Driver/Src/stm32f7xx_hal_dma2d.c ****   __HAL_DMA2D_ENABLE(hdma2d);
 453              		.loc 1 695 3 discriminator 2
 454 003c FB68     		ldr	r3, [r7, #12]
ARM GAS  C:\Users\jisu8\AppData\Local\Temp\ccmlnG2o.s 			page 21


 455 003e 1B68     		ldr	r3, [r3]
 456 0040 1A68     		ldr	r2, [r3]
 457 0042 FB68     		ldr	r3, [r7, #12]
 458 0044 1B68     		ldr	r3, [r3]
 459 0046 42F00102 		orr	r2, r2, #1
 460 004a 1A60     		str	r2, [r3]
 696:Drivers/STM32F7xx_HAL_Driver/Src/stm32f7xx_hal_dma2d.c **** 
 697:Drivers/STM32F7xx_HAL_Driver/Src/stm32f7xx_hal_dma2d.c ****   return HAL_OK;
 461              		.loc 1 697 10 discriminator 2
 462 004c 0023     		movs	r3, #0
 463              	.L19:
 698:Drivers/STM32F7xx_HAL_Driver/Src/stm32f7xx_hal_dma2d.c **** }
 464              		.loc 1 698 1
 465 004e 1846     		mov	r0, r3
 466 0050 1037     		adds	r7, r7, #16
 467              	.LCFI25:
 468              		.cfi_def_cfa_offset 8
 469 0052 BD46     		mov	sp, r7
 470              	.LCFI26:
 471              		.cfi_def_cfa_register 13
 472              		@ sp needed
 473 0054 80BD     		pop	{r7, pc}
 474              		.cfi_endproc
 475              	.LFE145:
 477              		.section	.text.HAL_DMA2D_Start_IT,"ax",%progbits
 478              		.align	1
 479              		.global	HAL_DMA2D_Start_IT
 480              		.syntax unified
 481              		.thumb
 482              		.thumb_func
 484              	HAL_DMA2D_Start_IT:
 485              	.LFB146:
 699:Drivers/STM32F7xx_HAL_Driver/Src/stm32f7xx_hal_dma2d.c **** 
 700:Drivers/STM32F7xx_HAL_Driver/Src/stm32f7xx_hal_dma2d.c **** /**
 701:Drivers/STM32F7xx_HAL_Driver/Src/stm32f7xx_hal_dma2d.c ****   * @brief  Start the DMA2D Transfer with interrupt enabled.
 702:Drivers/STM32F7xx_HAL_Driver/Src/stm32f7xx_hal_dma2d.c ****   * @param  hdma2d     Pointer to a DMA2D_HandleTypeDef structure that contains
 703:Drivers/STM32F7xx_HAL_Driver/Src/stm32f7xx_hal_dma2d.c ****   *                     the configuration information for the DMA2D.
 704:Drivers/STM32F7xx_HAL_Driver/Src/stm32f7xx_hal_dma2d.c ****   * @param  pdata      Configure the source memory Buffer address if
 705:Drivers/STM32F7xx_HAL_Driver/Src/stm32f7xx_hal_dma2d.c ****   *                     the Memory-to-Memory or Memory-to-Memory with pixel format
 706:Drivers/STM32F7xx_HAL_Driver/Src/stm32f7xx_hal_dma2d.c ****   *                     conversion mode is selected, or configure
 707:Drivers/STM32F7xx_HAL_Driver/Src/stm32f7xx_hal_dma2d.c ****   *                     the color value if Register-to-Memory mode is selected.
 708:Drivers/STM32F7xx_HAL_Driver/Src/stm32f7xx_hal_dma2d.c ****   * @param  DstAddress The destination memory Buffer address.
 709:Drivers/STM32F7xx_HAL_Driver/Src/stm32f7xx_hal_dma2d.c ****   * @param  Width      The width of data to be transferred from source
 710:Drivers/STM32F7xx_HAL_Driver/Src/stm32f7xx_hal_dma2d.c ****   *                    to destination (expressed in number of pixels per line).
 711:Drivers/STM32F7xx_HAL_Driver/Src/stm32f7xx_hal_dma2d.c ****   * @param  Height     The height of data to be transferred from source to destination (expressed i
 712:Drivers/STM32F7xx_HAL_Driver/Src/stm32f7xx_hal_dma2d.c ****   * @retval HAL status
 713:Drivers/STM32F7xx_HAL_Driver/Src/stm32f7xx_hal_dma2d.c ****   */
 714:Drivers/STM32F7xx_HAL_Driver/Src/stm32f7xx_hal_dma2d.c **** HAL_StatusTypeDef HAL_DMA2D_Start_IT(DMA2D_HandleTypeDef *hdma2d, uint32_t pdata, uint32_t DstAddre
 715:Drivers/STM32F7xx_HAL_Driver/Src/stm32f7xx_hal_dma2d.c ****                                      uint32_t Height)
 716:Drivers/STM32F7xx_HAL_Driver/Src/stm32f7xx_hal_dma2d.c **** {
 486              		.loc 1 716 1
 487              		.cfi_startproc
 488              		@ args = 4, pretend = 0, frame = 16
 489              		@ frame_needed = 1, uses_anonymous_args = 0
 490 0000 80B5     		push	{r7, lr}
 491              	.LCFI27:
 492              		.cfi_def_cfa_offset 8
ARM GAS  C:\Users\jisu8\AppData\Local\Temp\ccmlnG2o.s 			page 22


 493              		.cfi_offset 7, -8
 494              		.cfi_offset 14, -4
 495 0002 86B0     		sub	sp, sp, #24
 496              	.LCFI28:
 497              		.cfi_def_cfa_offset 32
 498 0004 02AF     		add	r7, sp, #8
 499              	.LCFI29:
 500              		.cfi_def_cfa 7, 24
 501 0006 F860     		str	r0, [r7, #12]
 502 0008 B960     		str	r1, [r7, #8]
 503 000a 7A60     		str	r2, [r7, #4]
 504 000c 3B60     		str	r3, [r7]
 717:Drivers/STM32F7xx_HAL_Driver/Src/stm32f7xx_hal_dma2d.c ****   /* Check the parameters */
 718:Drivers/STM32F7xx_HAL_Driver/Src/stm32f7xx_hal_dma2d.c ****   assert_param(IS_DMA2D_LINE(Height));
 719:Drivers/STM32F7xx_HAL_Driver/Src/stm32f7xx_hal_dma2d.c ****   assert_param(IS_DMA2D_PIXEL(Width));
 720:Drivers/STM32F7xx_HAL_Driver/Src/stm32f7xx_hal_dma2d.c **** 
 721:Drivers/STM32F7xx_HAL_Driver/Src/stm32f7xx_hal_dma2d.c ****   /* Process locked */
 722:Drivers/STM32F7xx_HAL_Driver/Src/stm32f7xx_hal_dma2d.c ****   __HAL_LOCK(hdma2d);
 505              		.loc 1 722 3
 506 000e FB68     		ldr	r3, [r7, #12]
 507 0010 93F83830 		ldrb	r3, [r3, #56]	@ zero_extendqisi2
 508 0014 012B     		cmp	r3, #1
 509 0016 01D1     		bne	.L21
 510              		.loc 1 722 3 is_stmt 0 discriminator 1
 511 0018 0223     		movs	r3, #2
 512 001a 20E0     		b	.L22
 513              	.L21:
 514              		.loc 1 722 3 discriminator 2
 515 001c FB68     		ldr	r3, [r7, #12]
 516 001e 0122     		movs	r2, #1
 517 0020 83F83820 		strb	r2, [r3, #56]
 723:Drivers/STM32F7xx_HAL_Driver/Src/stm32f7xx_hal_dma2d.c **** 
 724:Drivers/STM32F7xx_HAL_Driver/Src/stm32f7xx_hal_dma2d.c ****   /* Change DMA2D peripheral state */
 725:Drivers/STM32F7xx_HAL_Driver/Src/stm32f7xx_hal_dma2d.c ****   hdma2d->State = HAL_DMA2D_STATE_BUSY;
 518              		.loc 1 725 17 is_stmt 1 discriminator 2
 519 0024 FB68     		ldr	r3, [r7, #12]
 520 0026 0222     		movs	r2, #2
 521 0028 83F83920 		strb	r2, [r3, #57]
 726:Drivers/STM32F7xx_HAL_Driver/Src/stm32f7xx_hal_dma2d.c **** 
 727:Drivers/STM32F7xx_HAL_Driver/Src/stm32f7xx_hal_dma2d.c ****   /* Configure the source, destination address and the data size */
 728:Drivers/STM32F7xx_HAL_Driver/Src/stm32f7xx_hal_dma2d.c ****   DMA2D_SetConfig(hdma2d, pdata, DstAddress, Width, Height);
 522              		.loc 1 728 3 discriminator 2
 523 002c BB69     		ldr	r3, [r7, #24]
 524 002e 0093     		str	r3, [sp]
 525 0030 3B68     		ldr	r3, [r7]
 526 0032 7A68     		ldr	r2, [r7, #4]
 527 0034 B968     		ldr	r1, [r7, #8]
 528 0036 F868     		ldr	r0, [r7, #12]
 529 0038 FFF7FEFF 		bl	DMA2D_SetConfig
 729:Drivers/STM32F7xx_HAL_Driver/Src/stm32f7xx_hal_dma2d.c **** 
 730:Drivers/STM32F7xx_HAL_Driver/Src/stm32f7xx_hal_dma2d.c ****   /* Enable the transfer complete, transfer error and configuration error interrupts */
 731:Drivers/STM32F7xx_HAL_Driver/Src/stm32f7xx_hal_dma2d.c ****   __HAL_DMA2D_ENABLE_IT(hdma2d, DMA2D_IT_TC | DMA2D_IT_TE | DMA2D_IT_CE);
 530              		.loc 1 731 3 discriminator 2
 531 003c FB68     		ldr	r3, [r7, #12]
 532 003e 1B68     		ldr	r3, [r3]
 533 0040 1A68     		ldr	r2, [r3]
 534 0042 FB68     		ldr	r3, [r7, #12]
ARM GAS  C:\Users\jisu8\AppData\Local\Temp\ccmlnG2o.s 			page 23


 535 0044 1B68     		ldr	r3, [r3]
 536 0046 42F40C52 		orr	r2, r2, #8960
 537 004a 1A60     		str	r2, [r3]
 732:Drivers/STM32F7xx_HAL_Driver/Src/stm32f7xx_hal_dma2d.c **** 
 733:Drivers/STM32F7xx_HAL_Driver/Src/stm32f7xx_hal_dma2d.c ****   /* Enable the Peripheral */
 734:Drivers/STM32F7xx_HAL_Driver/Src/stm32f7xx_hal_dma2d.c ****   __HAL_DMA2D_ENABLE(hdma2d);
 538              		.loc 1 734 3 discriminator 2
 539 004c FB68     		ldr	r3, [r7, #12]
 540 004e 1B68     		ldr	r3, [r3]
 541 0050 1A68     		ldr	r2, [r3]
 542 0052 FB68     		ldr	r3, [r7, #12]
 543 0054 1B68     		ldr	r3, [r3]
 544 0056 42F00102 		orr	r2, r2, #1
 545 005a 1A60     		str	r2, [r3]
 735:Drivers/STM32F7xx_HAL_Driver/Src/stm32f7xx_hal_dma2d.c **** 
 736:Drivers/STM32F7xx_HAL_Driver/Src/stm32f7xx_hal_dma2d.c ****   return HAL_OK;
 546              		.loc 1 736 10 discriminator 2
 547 005c 0023     		movs	r3, #0
 548              	.L22:
 737:Drivers/STM32F7xx_HAL_Driver/Src/stm32f7xx_hal_dma2d.c **** }
 549              		.loc 1 737 1
 550 005e 1846     		mov	r0, r3
 551 0060 1037     		adds	r7, r7, #16
 552              	.LCFI30:
 553              		.cfi_def_cfa_offset 8
 554 0062 BD46     		mov	sp, r7
 555              	.LCFI31:
 556              		.cfi_def_cfa_register 13
 557              		@ sp needed
 558 0064 80BD     		pop	{r7, pc}
 559              		.cfi_endproc
 560              	.LFE146:
 562              		.section	.text.HAL_DMA2D_BlendingStart,"ax",%progbits
 563              		.align	1
 564              		.global	HAL_DMA2D_BlendingStart
 565              		.syntax unified
 566              		.thumb
 567              		.thumb_func
 569              	HAL_DMA2D_BlendingStart:
 570              	.LFB147:
 738:Drivers/STM32F7xx_HAL_Driver/Src/stm32f7xx_hal_dma2d.c **** 
 739:Drivers/STM32F7xx_HAL_Driver/Src/stm32f7xx_hal_dma2d.c **** /**
 740:Drivers/STM32F7xx_HAL_Driver/Src/stm32f7xx_hal_dma2d.c ****   * @brief  Start the multi-source DMA2D Transfer.
 741:Drivers/STM32F7xx_HAL_Driver/Src/stm32f7xx_hal_dma2d.c ****   * @param  hdma2d      Pointer to a DMA2D_HandleTypeDef structure that contains
 742:Drivers/STM32F7xx_HAL_Driver/Src/stm32f7xx_hal_dma2d.c ****   *                      the configuration information for the DMA2D.
 743:Drivers/STM32F7xx_HAL_Driver/Src/stm32f7xx_hal_dma2d.c ****   * @param  SrcAddress1 The source memory Buffer address for the foreground layer.
 744:Drivers/STM32F7xx_HAL_Driver/Src/stm32f7xx_hal_dma2d.c ****   * @param  SrcAddress2 The source memory Buffer address for the background layer.
 745:Drivers/STM32F7xx_HAL_Driver/Src/stm32f7xx_hal_dma2d.c ****   * @param  DstAddress  The destination memory Buffer address.
 746:Drivers/STM32F7xx_HAL_Driver/Src/stm32f7xx_hal_dma2d.c ****   * @param  Width       The width of data to be transferred from source
 747:Drivers/STM32F7xx_HAL_Driver/Src/stm32f7xx_hal_dma2d.c ****   *                     to destination (expressed in number of pixels per line).
 748:Drivers/STM32F7xx_HAL_Driver/Src/stm32f7xx_hal_dma2d.c ****   * @param  Height      The height of data to be transferred from source to destination (expressed 
 749:Drivers/STM32F7xx_HAL_Driver/Src/stm32f7xx_hal_dma2d.c ****   * @retval HAL status
 750:Drivers/STM32F7xx_HAL_Driver/Src/stm32f7xx_hal_dma2d.c ****   */
 751:Drivers/STM32F7xx_HAL_Driver/Src/stm32f7xx_hal_dma2d.c **** HAL_StatusTypeDef HAL_DMA2D_BlendingStart(DMA2D_HandleTypeDef *hdma2d, uint32_t SrcAddress1, uint32
 752:Drivers/STM32F7xx_HAL_Driver/Src/stm32f7xx_hal_dma2d.c ****                                           uint32_t DstAddress, uint32_t Width,  uint32_t Height)
 753:Drivers/STM32F7xx_HAL_Driver/Src/stm32f7xx_hal_dma2d.c **** {
 571              		.loc 1 753 1
ARM GAS  C:\Users\jisu8\AppData\Local\Temp\ccmlnG2o.s 			page 24


 572              		.cfi_startproc
 573              		@ args = 8, pretend = 0, frame = 16
 574              		@ frame_needed = 1, uses_anonymous_args = 0
 575 0000 80B5     		push	{r7, lr}
 576              	.LCFI32:
 577              		.cfi_def_cfa_offset 8
 578              		.cfi_offset 7, -8
 579              		.cfi_offset 14, -4
 580 0002 86B0     		sub	sp, sp, #24
 581              	.LCFI33:
 582              		.cfi_def_cfa_offset 32
 583 0004 02AF     		add	r7, sp, #8
 584              	.LCFI34:
 585              		.cfi_def_cfa 7, 24
 586 0006 F860     		str	r0, [r7, #12]
 587 0008 B960     		str	r1, [r7, #8]
 588 000a 7A60     		str	r2, [r7, #4]
 589 000c 3B60     		str	r3, [r7]
 754:Drivers/STM32F7xx_HAL_Driver/Src/stm32f7xx_hal_dma2d.c ****   /* Check the parameters */
 755:Drivers/STM32F7xx_HAL_Driver/Src/stm32f7xx_hal_dma2d.c ****   assert_param(IS_DMA2D_LINE(Height));
 756:Drivers/STM32F7xx_HAL_Driver/Src/stm32f7xx_hal_dma2d.c ****   assert_param(IS_DMA2D_PIXEL(Width));
 757:Drivers/STM32F7xx_HAL_Driver/Src/stm32f7xx_hal_dma2d.c **** 
 758:Drivers/STM32F7xx_HAL_Driver/Src/stm32f7xx_hal_dma2d.c ****   /* Process locked */
 759:Drivers/STM32F7xx_HAL_Driver/Src/stm32f7xx_hal_dma2d.c ****   __HAL_LOCK(hdma2d);
 590              		.loc 1 759 3
 591 000e FB68     		ldr	r3, [r7, #12]
 592 0010 93F83830 		ldrb	r3, [r3, #56]	@ zero_extendqisi2
 593 0014 012B     		cmp	r3, #1
 594 0016 01D1     		bne	.L24
 595              		.loc 1 759 3 is_stmt 0 discriminator 1
 596 0018 0223     		movs	r3, #2
 597 001a 1CE0     		b	.L25
 598              	.L24:
 599              		.loc 1 759 3 discriminator 2
 600 001c FB68     		ldr	r3, [r7, #12]
 601 001e 0122     		movs	r2, #1
 602 0020 83F83820 		strb	r2, [r3, #56]
 760:Drivers/STM32F7xx_HAL_Driver/Src/stm32f7xx_hal_dma2d.c **** 
 761:Drivers/STM32F7xx_HAL_Driver/Src/stm32f7xx_hal_dma2d.c ****   /* Change DMA2D peripheral state */
 762:Drivers/STM32F7xx_HAL_Driver/Src/stm32f7xx_hal_dma2d.c ****   hdma2d->State = HAL_DMA2D_STATE_BUSY;
 603              		.loc 1 762 17 is_stmt 1 discriminator 2
 604 0024 FB68     		ldr	r3, [r7, #12]
 605 0026 0222     		movs	r2, #2
 606 0028 83F83920 		strb	r2, [r3, #57]
 763:Drivers/STM32F7xx_HAL_Driver/Src/stm32f7xx_hal_dma2d.c **** 
 764:Drivers/STM32F7xx_HAL_Driver/Src/stm32f7xx_hal_dma2d.c ****   /* Configure DMA2D Stream source2 address */
 765:Drivers/STM32F7xx_HAL_Driver/Src/stm32f7xx_hal_dma2d.c ****   WRITE_REG(hdma2d->Instance->BGMAR, SrcAddress2);
 607              		.loc 1 765 3 discriminator 2
 608 002c FB68     		ldr	r3, [r7, #12]
 609 002e 1B68     		ldr	r3, [r3]
 610 0030 7A68     		ldr	r2, [r7, #4]
 611 0032 5A61     		str	r2, [r3, #20]
 766:Drivers/STM32F7xx_HAL_Driver/Src/stm32f7xx_hal_dma2d.c **** 
 767:Drivers/STM32F7xx_HAL_Driver/Src/stm32f7xx_hal_dma2d.c ****   /* Configure the source, destination address and the data size */
 768:Drivers/STM32F7xx_HAL_Driver/Src/stm32f7xx_hal_dma2d.c ****   DMA2D_SetConfig(hdma2d, SrcAddress1, DstAddress, Width, Height);
 612              		.loc 1 768 3 discriminator 2
 613 0034 FB69     		ldr	r3, [r7, #28]
ARM GAS  C:\Users\jisu8\AppData\Local\Temp\ccmlnG2o.s 			page 25


 614 0036 0093     		str	r3, [sp]
 615 0038 BB69     		ldr	r3, [r7, #24]
 616 003a 3A68     		ldr	r2, [r7]
 617 003c B968     		ldr	r1, [r7, #8]
 618 003e F868     		ldr	r0, [r7, #12]
 619 0040 FFF7FEFF 		bl	DMA2D_SetConfig
 769:Drivers/STM32F7xx_HAL_Driver/Src/stm32f7xx_hal_dma2d.c **** 
 770:Drivers/STM32F7xx_HAL_Driver/Src/stm32f7xx_hal_dma2d.c ****   /* Enable the Peripheral */
 771:Drivers/STM32F7xx_HAL_Driver/Src/stm32f7xx_hal_dma2d.c ****   __HAL_DMA2D_ENABLE(hdma2d);
 620              		.loc 1 771 3 discriminator 2
 621 0044 FB68     		ldr	r3, [r7, #12]
 622 0046 1B68     		ldr	r3, [r3]
 623 0048 1A68     		ldr	r2, [r3]
 624 004a FB68     		ldr	r3, [r7, #12]
 625 004c 1B68     		ldr	r3, [r3]
 626 004e 42F00102 		orr	r2, r2, #1
 627 0052 1A60     		str	r2, [r3]
 772:Drivers/STM32F7xx_HAL_Driver/Src/stm32f7xx_hal_dma2d.c **** 
 773:Drivers/STM32F7xx_HAL_Driver/Src/stm32f7xx_hal_dma2d.c ****   return HAL_OK;
 628              		.loc 1 773 10 discriminator 2
 629 0054 0023     		movs	r3, #0
 630              	.L25:
 774:Drivers/STM32F7xx_HAL_Driver/Src/stm32f7xx_hal_dma2d.c **** }
 631              		.loc 1 774 1
 632 0056 1846     		mov	r0, r3
 633 0058 1037     		adds	r7, r7, #16
 634              	.LCFI35:
 635              		.cfi_def_cfa_offset 8
 636 005a BD46     		mov	sp, r7
 637              	.LCFI36:
 638              		.cfi_def_cfa_register 13
 639              		@ sp needed
 640 005c 80BD     		pop	{r7, pc}
 641              		.cfi_endproc
 642              	.LFE147:
 644              		.section	.text.HAL_DMA2D_BlendingStart_IT,"ax",%progbits
 645              		.align	1
 646              		.global	HAL_DMA2D_BlendingStart_IT
 647              		.syntax unified
 648              		.thumb
 649              		.thumb_func
 651              	HAL_DMA2D_BlendingStart_IT:
 652              	.LFB148:
 775:Drivers/STM32F7xx_HAL_Driver/Src/stm32f7xx_hal_dma2d.c **** 
 776:Drivers/STM32F7xx_HAL_Driver/Src/stm32f7xx_hal_dma2d.c **** /**
 777:Drivers/STM32F7xx_HAL_Driver/Src/stm32f7xx_hal_dma2d.c ****   * @brief  Start the multi-source DMA2D Transfer with interrupt enabled.
 778:Drivers/STM32F7xx_HAL_Driver/Src/stm32f7xx_hal_dma2d.c ****   * @param  hdma2d     Pointer to a DMA2D_HandleTypeDef structure that contains
 779:Drivers/STM32F7xx_HAL_Driver/Src/stm32f7xx_hal_dma2d.c ****   *                     the configuration information for the DMA2D.
 780:Drivers/STM32F7xx_HAL_Driver/Src/stm32f7xx_hal_dma2d.c ****   * @param  SrcAddress1 The source memory Buffer address for the foreground layer.
 781:Drivers/STM32F7xx_HAL_Driver/Src/stm32f7xx_hal_dma2d.c ****   * @param  SrcAddress2 The source memory Buffer address for the background layer.
 782:Drivers/STM32F7xx_HAL_Driver/Src/stm32f7xx_hal_dma2d.c ****   * @param  DstAddress  The destination memory Buffer address.
 783:Drivers/STM32F7xx_HAL_Driver/Src/stm32f7xx_hal_dma2d.c ****   * @param  Width       The width of data to be transferred from source
 784:Drivers/STM32F7xx_HAL_Driver/Src/stm32f7xx_hal_dma2d.c ****   *                     to destination (expressed in number of pixels per line).
 785:Drivers/STM32F7xx_HAL_Driver/Src/stm32f7xx_hal_dma2d.c ****   * @param  Height      The height of data to be transferred from source to destination (expressed 
 786:Drivers/STM32F7xx_HAL_Driver/Src/stm32f7xx_hal_dma2d.c ****   * @retval HAL status
 787:Drivers/STM32F7xx_HAL_Driver/Src/stm32f7xx_hal_dma2d.c ****   */
 788:Drivers/STM32F7xx_HAL_Driver/Src/stm32f7xx_hal_dma2d.c **** HAL_StatusTypeDef HAL_DMA2D_BlendingStart_IT(DMA2D_HandleTypeDef *hdma2d, uint32_t SrcAddress1, uin
ARM GAS  C:\Users\jisu8\AppData\Local\Temp\ccmlnG2o.s 			page 26


 789:Drivers/STM32F7xx_HAL_Driver/Src/stm32f7xx_hal_dma2d.c ****                                              uint32_t DstAddress, uint32_t Width,  uint32_t Height)
 790:Drivers/STM32F7xx_HAL_Driver/Src/stm32f7xx_hal_dma2d.c **** {
 653              		.loc 1 790 1
 654              		.cfi_startproc
 655              		@ args = 8, pretend = 0, frame = 16
 656              		@ frame_needed = 1, uses_anonymous_args = 0
 657 0000 80B5     		push	{r7, lr}
 658              	.LCFI37:
 659              		.cfi_def_cfa_offset 8
 660              		.cfi_offset 7, -8
 661              		.cfi_offset 14, -4
 662 0002 86B0     		sub	sp, sp, #24
 663              	.LCFI38:
 664              		.cfi_def_cfa_offset 32
 665 0004 02AF     		add	r7, sp, #8
 666              	.LCFI39:
 667              		.cfi_def_cfa 7, 24
 668 0006 F860     		str	r0, [r7, #12]
 669 0008 B960     		str	r1, [r7, #8]
 670 000a 7A60     		str	r2, [r7, #4]
 671 000c 3B60     		str	r3, [r7]
 791:Drivers/STM32F7xx_HAL_Driver/Src/stm32f7xx_hal_dma2d.c ****   /* Check the parameters */
 792:Drivers/STM32F7xx_HAL_Driver/Src/stm32f7xx_hal_dma2d.c ****   assert_param(IS_DMA2D_LINE(Height));
 793:Drivers/STM32F7xx_HAL_Driver/Src/stm32f7xx_hal_dma2d.c ****   assert_param(IS_DMA2D_PIXEL(Width));
 794:Drivers/STM32F7xx_HAL_Driver/Src/stm32f7xx_hal_dma2d.c **** 
 795:Drivers/STM32F7xx_HAL_Driver/Src/stm32f7xx_hal_dma2d.c ****   /* Process locked */
 796:Drivers/STM32F7xx_HAL_Driver/Src/stm32f7xx_hal_dma2d.c ****   __HAL_LOCK(hdma2d);
 672              		.loc 1 796 3
 673 000e FB68     		ldr	r3, [r7, #12]
 674 0010 93F83830 		ldrb	r3, [r3, #56]	@ zero_extendqisi2
 675 0014 012B     		cmp	r3, #1
 676 0016 01D1     		bne	.L27
 677              		.loc 1 796 3 is_stmt 0 discriminator 1
 678 0018 0223     		movs	r3, #2
 679 001a 24E0     		b	.L28
 680              	.L27:
 681              		.loc 1 796 3 discriminator 2
 682 001c FB68     		ldr	r3, [r7, #12]
 683 001e 0122     		movs	r2, #1
 684 0020 83F83820 		strb	r2, [r3, #56]
 797:Drivers/STM32F7xx_HAL_Driver/Src/stm32f7xx_hal_dma2d.c **** 
 798:Drivers/STM32F7xx_HAL_Driver/Src/stm32f7xx_hal_dma2d.c ****   /* Change DMA2D peripheral state */
 799:Drivers/STM32F7xx_HAL_Driver/Src/stm32f7xx_hal_dma2d.c ****   hdma2d->State = HAL_DMA2D_STATE_BUSY;
 685              		.loc 1 799 17 is_stmt 1 discriminator 2
 686 0024 FB68     		ldr	r3, [r7, #12]
 687 0026 0222     		movs	r2, #2
 688 0028 83F83920 		strb	r2, [r3, #57]
 800:Drivers/STM32F7xx_HAL_Driver/Src/stm32f7xx_hal_dma2d.c **** 
 801:Drivers/STM32F7xx_HAL_Driver/Src/stm32f7xx_hal_dma2d.c ****   /* Configure DMA2D Stream source2 address */
 802:Drivers/STM32F7xx_HAL_Driver/Src/stm32f7xx_hal_dma2d.c ****   WRITE_REG(hdma2d->Instance->BGMAR, SrcAddress2);
 689              		.loc 1 802 3 discriminator 2
 690 002c FB68     		ldr	r3, [r7, #12]
 691 002e 1B68     		ldr	r3, [r3]
 692 0030 7A68     		ldr	r2, [r7, #4]
 693 0032 5A61     		str	r2, [r3, #20]
 803:Drivers/STM32F7xx_HAL_Driver/Src/stm32f7xx_hal_dma2d.c **** 
 804:Drivers/STM32F7xx_HAL_Driver/Src/stm32f7xx_hal_dma2d.c ****   /* Configure the source, destination address and the data size */
ARM GAS  C:\Users\jisu8\AppData\Local\Temp\ccmlnG2o.s 			page 27


 805:Drivers/STM32F7xx_HAL_Driver/Src/stm32f7xx_hal_dma2d.c ****   DMA2D_SetConfig(hdma2d, SrcAddress1, DstAddress, Width, Height);
 694              		.loc 1 805 3 discriminator 2
 695 0034 FB69     		ldr	r3, [r7, #28]
 696 0036 0093     		str	r3, [sp]
 697 0038 BB69     		ldr	r3, [r7, #24]
 698 003a 3A68     		ldr	r2, [r7]
 699 003c B968     		ldr	r1, [r7, #8]
 700 003e F868     		ldr	r0, [r7, #12]
 701 0040 FFF7FEFF 		bl	DMA2D_SetConfig
 806:Drivers/STM32F7xx_HAL_Driver/Src/stm32f7xx_hal_dma2d.c **** 
 807:Drivers/STM32F7xx_HAL_Driver/Src/stm32f7xx_hal_dma2d.c ****   /* Enable the transfer complete, transfer error and configuration error interrupts */
 808:Drivers/STM32F7xx_HAL_Driver/Src/stm32f7xx_hal_dma2d.c ****   __HAL_DMA2D_ENABLE_IT(hdma2d, DMA2D_IT_TC | DMA2D_IT_TE | DMA2D_IT_CE);
 702              		.loc 1 808 3 discriminator 2
 703 0044 FB68     		ldr	r3, [r7, #12]
 704 0046 1B68     		ldr	r3, [r3]
 705 0048 1A68     		ldr	r2, [r3]
 706 004a FB68     		ldr	r3, [r7, #12]
 707 004c 1B68     		ldr	r3, [r3]
 708 004e 42F40C52 		orr	r2, r2, #8960
 709 0052 1A60     		str	r2, [r3]
 809:Drivers/STM32F7xx_HAL_Driver/Src/stm32f7xx_hal_dma2d.c **** 
 810:Drivers/STM32F7xx_HAL_Driver/Src/stm32f7xx_hal_dma2d.c ****   /* Enable the Peripheral */
 811:Drivers/STM32F7xx_HAL_Driver/Src/stm32f7xx_hal_dma2d.c ****   __HAL_DMA2D_ENABLE(hdma2d);
 710              		.loc 1 811 3 discriminator 2
 711 0054 FB68     		ldr	r3, [r7, #12]
 712 0056 1B68     		ldr	r3, [r3]
 713 0058 1A68     		ldr	r2, [r3]
 714 005a FB68     		ldr	r3, [r7, #12]
 715 005c 1B68     		ldr	r3, [r3]
 716 005e 42F00102 		orr	r2, r2, #1
 717 0062 1A60     		str	r2, [r3]
 812:Drivers/STM32F7xx_HAL_Driver/Src/stm32f7xx_hal_dma2d.c **** 
 813:Drivers/STM32F7xx_HAL_Driver/Src/stm32f7xx_hal_dma2d.c ****   return HAL_OK;
 718              		.loc 1 813 10 discriminator 2
 719 0064 0023     		movs	r3, #0
 720              	.L28:
 814:Drivers/STM32F7xx_HAL_Driver/Src/stm32f7xx_hal_dma2d.c **** }
 721              		.loc 1 814 1
 722 0066 1846     		mov	r0, r3
 723 0068 1037     		adds	r7, r7, #16
 724              	.LCFI40:
 725              		.cfi_def_cfa_offset 8
 726 006a BD46     		mov	sp, r7
 727              	.LCFI41:
 728              		.cfi_def_cfa_register 13
 729              		@ sp needed
 730 006c 80BD     		pop	{r7, pc}
 731              		.cfi_endproc
 732              	.LFE148:
 734              		.section	.text.HAL_DMA2D_Abort,"ax",%progbits
 735              		.align	1
 736              		.global	HAL_DMA2D_Abort
 737              		.syntax unified
 738              		.thumb
 739              		.thumb_func
 741              	HAL_DMA2D_Abort:
 742              	.LFB149:
ARM GAS  C:\Users\jisu8\AppData\Local\Temp\ccmlnG2o.s 			page 28


 815:Drivers/STM32F7xx_HAL_Driver/Src/stm32f7xx_hal_dma2d.c **** 
 816:Drivers/STM32F7xx_HAL_Driver/Src/stm32f7xx_hal_dma2d.c **** /**
 817:Drivers/STM32F7xx_HAL_Driver/Src/stm32f7xx_hal_dma2d.c ****   * @brief  Abort the DMA2D Transfer.
 818:Drivers/STM32F7xx_HAL_Driver/Src/stm32f7xx_hal_dma2d.c ****   * @param  hdma2d  pointer to a DMA2D_HandleTypeDef structure that contains
 819:Drivers/STM32F7xx_HAL_Driver/Src/stm32f7xx_hal_dma2d.c ****   *                  the configuration information for the DMA2D.
 820:Drivers/STM32F7xx_HAL_Driver/Src/stm32f7xx_hal_dma2d.c ****   * @retval HAL status
 821:Drivers/STM32F7xx_HAL_Driver/Src/stm32f7xx_hal_dma2d.c ****   */
 822:Drivers/STM32F7xx_HAL_Driver/Src/stm32f7xx_hal_dma2d.c **** HAL_StatusTypeDef HAL_DMA2D_Abort(DMA2D_HandleTypeDef *hdma2d)
 823:Drivers/STM32F7xx_HAL_Driver/Src/stm32f7xx_hal_dma2d.c **** {
 743              		.loc 1 823 1
 744              		.cfi_startproc
 745              		@ args = 0, pretend = 0, frame = 16
 746              		@ frame_needed = 1, uses_anonymous_args = 0
 747 0000 80B5     		push	{r7, lr}
 748              	.LCFI42:
 749              		.cfi_def_cfa_offset 8
 750              		.cfi_offset 7, -8
 751              		.cfi_offset 14, -4
 752 0002 84B0     		sub	sp, sp, #16
 753              	.LCFI43:
 754              		.cfi_def_cfa_offset 24
 755 0004 00AF     		add	r7, sp, #0
 756              	.LCFI44:
 757              		.cfi_def_cfa_register 7
 758 0006 7860     		str	r0, [r7, #4]
 824:Drivers/STM32F7xx_HAL_Driver/Src/stm32f7xx_hal_dma2d.c ****   uint32_t tickstart;
 825:Drivers/STM32F7xx_HAL_Driver/Src/stm32f7xx_hal_dma2d.c **** 
 826:Drivers/STM32F7xx_HAL_Driver/Src/stm32f7xx_hal_dma2d.c ****   /* Abort the DMA2D transfer */
 827:Drivers/STM32F7xx_HAL_Driver/Src/stm32f7xx_hal_dma2d.c ****   /* START bit is reset to make sure not to set it again, in the event the HW clears it
 828:Drivers/STM32F7xx_HAL_Driver/Src/stm32f7xx_hal_dma2d.c ****      between the register read and the register write by the CPU (writing 0 has no
 829:Drivers/STM32F7xx_HAL_Driver/Src/stm32f7xx_hal_dma2d.c ****      effect on START bitvalue) */
 830:Drivers/STM32F7xx_HAL_Driver/Src/stm32f7xx_hal_dma2d.c ****   MODIFY_REG(hdma2d->Instance->CR, DMA2D_CR_ABORT | DMA2D_CR_START, DMA2D_CR_ABORT);
 759              		.loc 1 830 3
 760 0008 7B68     		ldr	r3, [r7, #4]
 761 000a 1B68     		ldr	r3, [r3]
 762 000c 1B68     		ldr	r3, [r3]
 763 000e 23F00502 		bic	r2, r3, #5
 764 0012 7B68     		ldr	r3, [r7, #4]
 765 0014 1B68     		ldr	r3, [r3]
 766 0016 42F00402 		orr	r2, r2, #4
 767 001a 1A60     		str	r2, [r3]
 831:Drivers/STM32F7xx_HAL_Driver/Src/stm32f7xx_hal_dma2d.c **** 
 832:Drivers/STM32F7xx_HAL_Driver/Src/stm32f7xx_hal_dma2d.c ****   /* Get tick */
 833:Drivers/STM32F7xx_HAL_Driver/Src/stm32f7xx_hal_dma2d.c ****   tickstart = HAL_GetTick();
 768              		.loc 1 833 15
 769 001c FFF7FEFF 		bl	HAL_GetTick
 770 0020 F860     		str	r0, [r7, #12]
 834:Drivers/STM32F7xx_HAL_Driver/Src/stm32f7xx_hal_dma2d.c **** 
 835:Drivers/STM32F7xx_HAL_Driver/Src/stm32f7xx_hal_dma2d.c ****   /* Check if the DMA2D is effectively disabled */
 836:Drivers/STM32F7xx_HAL_Driver/Src/stm32f7xx_hal_dma2d.c ****   while ((hdma2d->Instance->CR & DMA2D_CR_START) != 0U)
 771              		.loc 1 836 9
 772 0022 17E0     		b	.L30
 773              	.L32:
 837:Drivers/STM32F7xx_HAL_Driver/Src/stm32f7xx_hal_dma2d.c ****   {
 838:Drivers/STM32F7xx_HAL_Driver/Src/stm32f7xx_hal_dma2d.c ****     if ((HAL_GetTick() - tickstart) > DMA2D_TIMEOUT_ABORT)
 774              		.loc 1 838 10
 775 0024 FFF7FEFF 		bl	HAL_GetTick
ARM GAS  C:\Users\jisu8\AppData\Local\Temp\ccmlnG2o.s 			page 29


 776 0028 0246     		mov	r2, r0
 777              		.loc 1 838 24
 778 002a FB68     		ldr	r3, [r7, #12]
 779 002c D31A     		subs	r3, r2, r3
 780              		.loc 1 838 8
 781 002e B3F57A7F 		cmp	r3, #1000
 782 0032 0FD9     		bls	.L30
 839:Drivers/STM32F7xx_HAL_Driver/Src/stm32f7xx_hal_dma2d.c ****     {
 840:Drivers/STM32F7xx_HAL_Driver/Src/stm32f7xx_hal_dma2d.c ****       /* Update error code */
 841:Drivers/STM32F7xx_HAL_Driver/Src/stm32f7xx_hal_dma2d.c ****       hdma2d->ErrorCode |= HAL_DMA2D_ERROR_TIMEOUT;
 783              		.loc 1 841 25
 784 0034 7B68     		ldr	r3, [r7, #4]
 785 0036 DB6B     		ldr	r3, [r3, #60]
 786 0038 43F02002 		orr	r2, r3, #32
 787 003c 7B68     		ldr	r3, [r7, #4]
 788 003e DA63     		str	r2, [r3, #60]
 842:Drivers/STM32F7xx_HAL_Driver/Src/stm32f7xx_hal_dma2d.c **** 
 843:Drivers/STM32F7xx_HAL_Driver/Src/stm32f7xx_hal_dma2d.c ****       /* Change the DMA2D state */
 844:Drivers/STM32F7xx_HAL_Driver/Src/stm32f7xx_hal_dma2d.c ****       hdma2d->State = HAL_DMA2D_STATE_TIMEOUT;
 789              		.loc 1 844 21
 790 0040 7B68     		ldr	r3, [r7, #4]
 791 0042 0322     		movs	r2, #3
 792 0044 83F83920 		strb	r2, [r3, #57]
 845:Drivers/STM32F7xx_HAL_Driver/Src/stm32f7xx_hal_dma2d.c **** 
 846:Drivers/STM32F7xx_HAL_Driver/Src/stm32f7xx_hal_dma2d.c ****       /* Process Unlocked */
 847:Drivers/STM32F7xx_HAL_Driver/Src/stm32f7xx_hal_dma2d.c ****       __HAL_UNLOCK(hdma2d);
 793              		.loc 1 847 7
 794 0048 7B68     		ldr	r3, [r7, #4]
 795 004a 0022     		movs	r2, #0
 796 004c 83F83820 		strb	r2, [r3, #56]
 848:Drivers/STM32F7xx_HAL_Driver/Src/stm32f7xx_hal_dma2d.c **** 
 849:Drivers/STM32F7xx_HAL_Driver/Src/stm32f7xx_hal_dma2d.c ****       return HAL_TIMEOUT;
 797              		.loc 1 849 14
 798 0050 0323     		movs	r3, #3
 799 0052 17E0     		b	.L31
 800              	.L30:
 836:Drivers/STM32F7xx_HAL_Driver/Src/stm32f7xx_hal_dma2d.c ****   {
 801              		.loc 1 836 17
 802 0054 7B68     		ldr	r3, [r7, #4]
 803 0056 1B68     		ldr	r3, [r3]
 836:Drivers/STM32F7xx_HAL_Driver/Src/stm32f7xx_hal_dma2d.c ****   {
 804              		.loc 1 836 27
 805 0058 1B68     		ldr	r3, [r3]
 836:Drivers/STM32F7xx_HAL_Driver/Src/stm32f7xx_hal_dma2d.c ****   {
 806              		.loc 1 836 32
 807 005a 03F00103 		and	r3, r3, #1
 836:Drivers/STM32F7xx_HAL_Driver/Src/stm32f7xx_hal_dma2d.c ****   {
 808              		.loc 1 836 9
 809 005e 002B     		cmp	r3, #0
 810 0060 E0D1     		bne	.L32
 850:Drivers/STM32F7xx_HAL_Driver/Src/stm32f7xx_hal_dma2d.c ****     }
 851:Drivers/STM32F7xx_HAL_Driver/Src/stm32f7xx_hal_dma2d.c ****   }
 852:Drivers/STM32F7xx_HAL_Driver/Src/stm32f7xx_hal_dma2d.c **** 
 853:Drivers/STM32F7xx_HAL_Driver/Src/stm32f7xx_hal_dma2d.c ****   /* Disable the Transfer Complete, Transfer Error and Configuration Error interrupts */
 854:Drivers/STM32F7xx_HAL_Driver/Src/stm32f7xx_hal_dma2d.c ****   __HAL_DMA2D_DISABLE_IT(hdma2d, DMA2D_IT_TC | DMA2D_IT_TE | DMA2D_IT_CE);
 811              		.loc 1 854 3
 812 0062 7B68     		ldr	r3, [r7, #4]
ARM GAS  C:\Users\jisu8\AppData\Local\Temp\ccmlnG2o.s 			page 30


 813 0064 1B68     		ldr	r3, [r3]
 814 0066 1A68     		ldr	r2, [r3]
 815 0068 7B68     		ldr	r3, [r7, #4]
 816 006a 1B68     		ldr	r3, [r3]
 817 006c 22F40C52 		bic	r2, r2, #8960
 818 0070 1A60     		str	r2, [r3]
 855:Drivers/STM32F7xx_HAL_Driver/Src/stm32f7xx_hal_dma2d.c **** 
 856:Drivers/STM32F7xx_HAL_Driver/Src/stm32f7xx_hal_dma2d.c ****   /* Change the DMA2D state*/
 857:Drivers/STM32F7xx_HAL_Driver/Src/stm32f7xx_hal_dma2d.c ****   hdma2d->State = HAL_DMA2D_STATE_READY;
 819              		.loc 1 857 17
 820 0072 7B68     		ldr	r3, [r7, #4]
 821 0074 0122     		movs	r2, #1
 822 0076 83F83920 		strb	r2, [r3, #57]
 858:Drivers/STM32F7xx_HAL_Driver/Src/stm32f7xx_hal_dma2d.c **** 
 859:Drivers/STM32F7xx_HAL_Driver/Src/stm32f7xx_hal_dma2d.c ****   /* Process Unlocked */
 860:Drivers/STM32F7xx_HAL_Driver/Src/stm32f7xx_hal_dma2d.c ****   __HAL_UNLOCK(hdma2d);
 823              		.loc 1 860 3
 824 007a 7B68     		ldr	r3, [r7, #4]
 825 007c 0022     		movs	r2, #0
 826 007e 83F83820 		strb	r2, [r3, #56]
 861:Drivers/STM32F7xx_HAL_Driver/Src/stm32f7xx_hal_dma2d.c **** 
 862:Drivers/STM32F7xx_HAL_Driver/Src/stm32f7xx_hal_dma2d.c ****   return HAL_OK;
 827              		.loc 1 862 10
 828 0082 0023     		movs	r3, #0
 829              	.L31:
 863:Drivers/STM32F7xx_HAL_Driver/Src/stm32f7xx_hal_dma2d.c **** }
 830              		.loc 1 863 1
 831 0084 1846     		mov	r0, r3
 832 0086 1037     		adds	r7, r7, #16
 833              	.LCFI45:
 834              		.cfi_def_cfa_offset 8
 835 0088 BD46     		mov	sp, r7
 836              	.LCFI46:
 837              		.cfi_def_cfa_register 13
 838              		@ sp needed
 839 008a 80BD     		pop	{r7, pc}
 840              		.cfi_endproc
 841              	.LFE149:
 843              		.section	.text.HAL_DMA2D_Suspend,"ax",%progbits
 844              		.align	1
 845              		.global	HAL_DMA2D_Suspend
 846              		.syntax unified
 847              		.thumb
 848              		.thumb_func
 850              	HAL_DMA2D_Suspend:
 851              	.LFB150:
 864:Drivers/STM32F7xx_HAL_Driver/Src/stm32f7xx_hal_dma2d.c **** 
 865:Drivers/STM32F7xx_HAL_Driver/Src/stm32f7xx_hal_dma2d.c **** /**
 866:Drivers/STM32F7xx_HAL_Driver/Src/stm32f7xx_hal_dma2d.c ****   * @brief  Suspend the DMA2D Transfer.
 867:Drivers/STM32F7xx_HAL_Driver/Src/stm32f7xx_hal_dma2d.c ****   * @param  hdma2d pointer to a DMA2D_HandleTypeDef structure that contains
 868:Drivers/STM32F7xx_HAL_Driver/Src/stm32f7xx_hal_dma2d.c ****   *                 the configuration information for the DMA2D.
 869:Drivers/STM32F7xx_HAL_Driver/Src/stm32f7xx_hal_dma2d.c ****   * @retval HAL status
 870:Drivers/STM32F7xx_HAL_Driver/Src/stm32f7xx_hal_dma2d.c ****   */
 871:Drivers/STM32F7xx_HAL_Driver/Src/stm32f7xx_hal_dma2d.c **** HAL_StatusTypeDef HAL_DMA2D_Suspend(DMA2D_HandleTypeDef *hdma2d)
 872:Drivers/STM32F7xx_HAL_Driver/Src/stm32f7xx_hal_dma2d.c **** {
 852              		.loc 1 872 1
 853              		.cfi_startproc
ARM GAS  C:\Users\jisu8\AppData\Local\Temp\ccmlnG2o.s 			page 31


 854              		@ args = 0, pretend = 0, frame = 16
 855              		@ frame_needed = 1, uses_anonymous_args = 0
 856 0000 80B5     		push	{r7, lr}
 857              	.LCFI47:
 858              		.cfi_def_cfa_offset 8
 859              		.cfi_offset 7, -8
 860              		.cfi_offset 14, -4
 861 0002 84B0     		sub	sp, sp, #16
 862              	.LCFI48:
 863              		.cfi_def_cfa_offset 24
 864 0004 00AF     		add	r7, sp, #0
 865              	.LCFI49:
 866              		.cfi_def_cfa_register 7
 867 0006 7860     		str	r0, [r7, #4]
 873:Drivers/STM32F7xx_HAL_Driver/Src/stm32f7xx_hal_dma2d.c ****   uint32_t tickstart;
 874:Drivers/STM32F7xx_HAL_Driver/Src/stm32f7xx_hal_dma2d.c **** 
 875:Drivers/STM32F7xx_HAL_Driver/Src/stm32f7xx_hal_dma2d.c ****   /* Suspend the DMA2D transfer */
 876:Drivers/STM32F7xx_HAL_Driver/Src/stm32f7xx_hal_dma2d.c ****   /* START bit is reset to make sure not to set it again, in the event the HW clears it
 877:Drivers/STM32F7xx_HAL_Driver/Src/stm32f7xx_hal_dma2d.c ****      between the register read and the register write by the CPU (writing 0 has no
 878:Drivers/STM32F7xx_HAL_Driver/Src/stm32f7xx_hal_dma2d.c ****      effect on START bitvalue). */
 879:Drivers/STM32F7xx_HAL_Driver/Src/stm32f7xx_hal_dma2d.c ****   MODIFY_REG(hdma2d->Instance->CR, DMA2D_CR_SUSP | DMA2D_CR_START, DMA2D_CR_SUSP);
 868              		.loc 1 879 3
 869 0008 7B68     		ldr	r3, [r7, #4]
 870 000a 1B68     		ldr	r3, [r3]
 871 000c 1B68     		ldr	r3, [r3]
 872 000e 23F00302 		bic	r2, r3, #3
 873 0012 7B68     		ldr	r3, [r7, #4]
 874 0014 1B68     		ldr	r3, [r3]
 875 0016 42F00202 		orr	r2, r2, #2
 876 001a 1A60     		str	r2, [r3]
 880:Drivers/STM32F7xx_HAL_Driver/Src/stm32f7xx_hal_dma2d.c **** 
 881:Drivers/STM32F7xx_HAL_Driver/Src/stm32f7xx_hal_dma2d.c ****   /* Get tick */
 882:Drivers/STM32F7xx_HAL_Driver/Src/stm32f7xx_hal_dma2d.c ****   tickstart = HAL_GetTick();
 877              		.loc 1 882 15
 878 001c FFF7FEFF 		bl	HAL_GetTick
 879 0020 F860     		str	r0, [r7, #12]
 883:Drivers/STM32F7xx_HAL_Driver/Src/stm32f7xx_hal_dma2d.c **** 
 884:Drivers/STM32F7xx_HAL_Driver/Src/stm32f7xx_hal_dma2d.c ****   /* Check if the DMA2D is effectively suspended */
 885:Drivers/STM32F7xx_HAL_Driver/Src/stm32f7xx_hal_dma2d.c ****   while ((hdma2d->Instance->CR & (DMA2D_CR_SUSP | DMA2D_CR_START)) == DMA2D_CR_START)
 880              		.loc 1 885 9
 881 0022 13E0     		b	.L34
 882              	.L36:
 886:Drivers/STM32F7xx_HAL_Driver/Src/stm32f7xx_hal_dma2d.c ****   {
 887:Drivers/STM32F7xx_HAL_Driver/Src/stm32f7xx_hal_dma2d.c ****     if ((HAL_GetTick() - tickstart) > DMA2D_TIMEOUT_SUSPEND)
 883              		.loc 1 887 10
 884 0024 FFF7FEFF 		bl	HAL_GetTick
 885 0028 0246     		mov	r2, r0
 886              		.loc 1 887 24
 887 002a FB68     		ldr	r3, [r7, #12]
 888 002c D31A     		subs	r3, r2, r3
 889              		.loc 1 887 8
 890 002e B3F57A7F 		cmp	r3, #1000
 891 0032 0BD9     		bls	.L34
 888:Drivers/STM32F7xx_HAL_Driver/Src/stm32f7xx_hal_dma2d.c ****     {
 889:Drivers/STM32F7xx_HAL_Driver/Src/stm32f7xx_hal_dma2d.c ****       /* Update error code */
 890:Drivers/STM32F7xx_HAL_Driver/Src/stm32f7xx_hal_dma2d.c ****       hdma2d->ErrorCode |= HAL_DMA2D_ERROR_TIMEOUT;
 892              		.loc 1 890 25
ARM GAS  C:\Users\jisu8\AppData\Local\Temp\ccmlnG2o.s 			page 32


 893 0034 7B68     		ldr	r3, [r7, #4]
 894 0036 DB6B     		ldr	r3, [r3, #60]
 895 0038 43F02002 		orr	r2, r3, #32
 896 003c 7B68     		ldr	r3, [r7, #4]
 897 003e DA63     		str	r2, [r3, #60]
 891:Drivers/STM32F7xx_HAL_Driver/Src/stm32f7xx_hal_dma2d.c **** 
 892:Drivers/STM32F7xx_HAL_Driver/Src/stm32f7xx_hal_dma2d.c ****       /* Change the DMA2D state */
 893:Drivers/STM32F7xx_HAL_Driver/Src/stm32f7xx_hal_dma2d.c ****       hdma2d->State = HAL_DMA2D_STATE_TIMEOUT;
 898              		.loc 1 893 21
 899 0040 7B68     		ldr	r3, [r7, #4]
 900 0042 0322     		movs	r2, #3
 901 0044 83F83920 		strb	r2, [r3, #57]
 894:Drivers/STM32F7xx_HAL_Driver/Src/stm32f7xx_hal_dma2d.c **** 
 895:Drivers/STM32F7xx_HAL_Driver/Src/stm32f7xx_hal_dma2d.c ****       return HAL_TIMEOUT;
 902              		.loc 1 895 14
 903 0048 0323     		movs	r3, #3
 904 004a 1BE0     		b	.L35
 905              	.L34:
 885:Drivers/STM32F7xx_HAL_Driver/Src/stm32f7xx_hal_dma2d.c ****   {
 906              		.loc 1 885 17
 907 004c 7B68     		ldr	r3, [r7, #4]
 908 004e 1B68     		ldr	r3, [r3]
 885:Drivers/STM32F7xx_HAL_Driver/Src/stm32f7xx_hal_dma2d.c ****   {
 909              		.loc 1 885 27
 910 0050 1B68     		ldr	r3, [r3]
 885:Drivers/STM32F7xx_HAL_Driver/Src/stm32f7xx_hal_dma2d.c ****   {
 911              		.loc 1 885 32
 912 0052 03F00303 		and	r3, r3, #3
 885:Drivers/STM32F7xx_HAL_Driver/Src/stm32f7xx_hal_dma2d.c ****   {
 913              		.loc 1 885 9
 914 0056 012B     		cmp	r3, #1
 915 0058 E4D0     		beq	.L36
 896:Drivers/STM32F7xx_HAL_Driver/Src/stm32f7xx_hal_dma2d.c ****     }
 897:Drivers/STM32F7xx_HAL_Driver/Src/stm32f7xx_hal_dma2d.c ****   }
 898:Drivers/STM32F7xx_HAL_Driver/Src/stm32f7xx_hal_dma2d.c **** 
 899:Drivers/STM32F7xx_HAL_Driver/Src/stm32f7xx_hal_dma2d.c ****   /* Check whether or not a transfer is actually suspended and change the DMA2D state accordingly *
 900:Drivers/STM32F7xx_HAL_Driver/Src/stm32f7xx_hal_dma2d.c ****   if ((hdma2d->Instance->CR & DMA2D_CR_START) != 0U)
 916              		.loc 1 900 14
 917 005a 7B68     		ldr	r3, [r7, #4]
 918 005c 1B68     		ldr	r3, [r3]
 919              		.loc 1 900 24
 920 005e 1B68     		ldr	r3, [r3]
 921              		.loc 1 900 29
 922 0060 03F00103 		and	r3, r3, #1
 923              		.loc 1 900 6
 924 0064 002B     		cmp	r3, #0
 925 0066 04D0     		beq	.L37
 901:Drivers/STM32F7xx_HAL_Driver/Src/stm32f7xx_hal_dma2d.c ****   {
 902:Drivers/STM32F7xx_HAL_Driver/Src/stm32f7xx_hal_dma2d.c ****     hdma2d->State = HAL_DMA2D_STATE_SUSPEND;
 926              		.loc 1 902 19
 927 0068 7B68     		ldr	r3, [r7, #4]
 928 006a 0522     		movs	r2, #5
 929 006c 83F83920 		strb	r2, [r3, #57]
 930 0070 07E0     		b	.L38
 931              	.L37:
 903:Drivers/STM32F7xx_HAL_Driver/Src/stm32f7xx_hal_dma2d.c ****   }
 904:Drivers/STM32F7xx_HAL_Driver/Src/stm32f7xx_hal_dma2d.c ****   else
ARM GAS  C:\Users\jisu8\AppData\Local\Temp\ccmlnG2o.s 			page 33


 905:Drivers/STM32F7xx_HAL_Driver/Src/stm32f7xx_hal_dma2d.c ****   {
 906:Drivers/STM32F7xx_HAL_Driver/Src/stm32f7xx_hal_dma2d.c ****     /* Make sure SUSP bit is cleared since it is meaningless
 907:Drivers/STM32F7xx_HAL_Driver/Src/stm32f7xx_hal_dma2d.c ****        when no transfer is on-going */
 908:Drivers/STM32F7xx_HAL_Driver/Src/stm32f7xx_hal_dma2d.c ****     CLEAR_BIT(hdma2d->Instance->CR, DMA2D_CR_SUSP);
 932              		.loc 1 908 5
 933 0072 7B68     		ldr	r3, [r7, #4]
 934 0074 1B68     		ldr	r3, [r3]
 935 0076 1A68     		ldr	r2, [r3]
 936 0078 7B68     		ldr	r3, [r7, #4]
 937 007a 1B68     		ldr	r3, [r3]
 938 007c 22F00202 		bic	r2, r2, #2
 939 0080 1A60     		str	r2, [r3]
 940              	.L38:
 909:Drivers/STM32F7xx_HAL_Driver/Src/stm32f7xx_hal_dma2d.c ****   }
 910:Drivers/STM32F7xx_HAL_Driver/Src/stm32f7xx_hal_dma2d.c **** 
 911:Drivers/STM32F7xx_HAL_Driver/Src/stm32f7xx_hal_dma2d.c ****   return HAL_OK;
 941              		.loc 1 911 10
 942 0082 0023     		movs	r3, #0
 943              	.L35:
 912:Drivers/STM32F7xx_HAL_Driver/Src/stm32f7xx_hal_dma2d.c **** }
 944              		.loc 1 912 1
 945 0084 1846     		mov	r0, r3
 946 0086 1037     		adds	r7, r7, #16
 947              	.LCFI50:
 948              		.cfi_def_cfa_offset 8
 949 0088 BD46     		mov	sp, r7
 950              	.LCFI51:
 951              		.cfi_def_cfa_register 13
 952              		@ sp needed
 953 008a 80BD     		pop	{r7, pc}
 954              		.cfi_endproc
 955              	.LFE150:
 957              		.section	.text.HAL_DMA2D_Resume,"ax",%progbits
 958              		.align	1
 959              		.global	HAL_DMA2D_Resume
 960              		.syntax unified
 961              		.thumb
 962              		.thumb_func
 964              	HAL_DMA2D_Resume:
 965              	.LFB151:
 913:Drivers/STM32F7xx_HAL_Driver/Src/stm32f7xx_hal_dma2d.c **** 
 914:Drivers/STM32F7xx_HAL_Driver/Src/stm32f7xx_hal_dma2d.c **** /**
 915:Drivers/STM32F7xx_HAL_Driver/Src/stm32f7xx_hal_dma2d.c ****   * @brief  Resume the DMA2D Transfer.
 916:Drivers/STM32F7xx_HAL_Driver/Src/stm32f7xx_hal_dma2d.c ****   * @param  hdma2d pointer to a DMA2D_HandleTypeDef structure that contains
 917:Drivers/STM32F7xx_HAL_Driver/Src/stm32f7xx_hal_dma2d.c ****   *                 the configuration information for the DMA2D.
 918:Drivers/STM32F7xx_HAL_Driver/Src/stm32f7xx_hal_dma2d.c ****   * @retval HAL status
 919:Drivers/STM32F7xx_HAL_Driver/Src/stm32f7xx_hal_dma2d.c ****   */
 920:Drivers/STM32F7xx_HAL_Driver/Src/stm32f7xx_hal_dma2d.c **** HAL_StatusTypeDef HAL_DMA2D_Resume(DMA2D_HandleTypeDef *hdma2d)
 921:Drivers/STM32F7xx_HAL_Driver/Src/stm32f7xx_hal_dma2d.c **** {
 966              		.loc 1 921 1
 967              		.cfi_startproc
 968              		@ args = 0, pretend = 0, frame = 8
 969              		@ frame_needed = 1, uses_anonymous_args = 0
 970              		@ link register save eliminated.
 971 0000 80B4     		push	{r7}
 972              	.LCFI52:
 973              		.cfi_def_cfa_offset 4
ARM GAS  C:\Users\jisu8\AppData\Local\Temp\ccmlnG2o.s 			page 34


 974              		.cfi_offset 7, -4
 975 0002 83B0     		sub	sp, sp, #12
 976              	.LCFI53:
 977              		.cfi_def_cfa_offset 16
 978 0004 00AF     		add	r7, sp, #0
 979              	.LCFI54:
 980              		.cfi_def_cfa_register 7
 981 0006 7860     		str	r0, [r7, #4]
 922:Drivers/STM32F7xx_HAL_Driver/Src/stm32f7xx_hal_dma2d.c ****   /* Check the SUSP and START bits */
 923:Drivers/STM32F7xx_HAL_Driver/Src/stm32f7xx_hal_dma2d.c ****   if ((hdma2d->Instance->CR & (DMA2D_CR_SUSP | DMA2D_CR_START)) == (DMA2D_CR_SUSP | DMA2D_CR_START)
 982              		.loc 1 923 14
 983 0008 7B68     		ldr	r3, [r7, #4]
 984 000a 1B68     		ldr	r3, [r3]
 985              		.loc 1 923 24
 986 000c 1B68     		ldr	r3, [r3]
 987              		.loc 1 923 29
 988 000e 03F00303 		and	r3, r3, #3
 989              		.loc 1 923 6
 990 0012 032B     		cmp	r3, #3
 991 0014 03D1     		bne	.L40
 924:Drivers/STM32F7xx_HAL_Driver/Src/stm32f7xx_hal_dma2d.c ****   {
 925:Drivers/STM32F7xx_HAL_Driver/Src/stm32f7xx_hal_dma2d.c ****     /* Ongoing transfer is suspended: change the DMA2D state before resuming */
 926:Drivers/STM32F7xx_HAL_Driver/Src/stm32f7xx_hal_dma2d.c ****     hdma2d->State = HAL_DMA2D_STATE_BUSY;
 992              		.loc 1 926 19
 993 0016 7B68     		ldr	r3, [r7, #4]
 994 0018 0222     		movs	r2, #2
 995 001a 83F83920 		strb	r2, [r3, #57]
 996              	.L40:
 927:Drivers/STM32F7xx_HAL_Driver/Src/stm32f7xx_hal_dma2d.c ****   }
 928:Drivers/STM32F7xx_HAL_Driver/Src/stm32f7xx_hal_dma2d.c **** 
 929:Drivers/STM32F7xx_HAL_Driver/Src/stm32f7xx_hal_dma2d.c ****   /* Resume the DMA2D transfer */
 930:Drivers/STM32F7xx_HAL_Driver/Src/stm32f7xx_hal_dma2d.c ****   /* START bit is reset to make sure not to set it again, in the event the HW clears it
 931:Drivers/STM32F7xx_HAL_Driver/Src/stm32f7xx_hal_dma2d.c ****      between the register read and the register write by the CPU (writing 0 has no
 932:Drivers/STM32F7xx_HAL_Driver/Src/stm32f7xx_hal_dma2d.c ****      effect on START bitvalue). */
 933:Drivers/STM32F7xx_HAL_Driver/Src/stm32f7xx_hal_dma2d.c ****   CLEAR_BIT(hdma2d->Instance->CR, (DMA2D_CR_SUSP | DMA2D_CR_START));
 997              		.loc 1 933 3
 998 001e 7B68     		ldr	r3, [r7, #4]
 999 0020 1B68     		ldr	r3, [r3]
 1000 0022 1A68     		ldr	r2, [r3]
 1001 0024 7B68     		ldr	r3, [r7, #4]
 1002 0026 1B68     		ldr	r3, [r3]
 1003 0028 22F00302 		bic	r2, r2, #3
 1004 002c 1A60     		str	r2, [r3]
 934:Drivers/STM32F7xx_HAL_Driver/Src/stm32f7xx_hal_dma2d.c **** 
 935:Drivers/STM32F7xx_HAL_Driver/Src/stm32f7xx_hal_dma2d.c ****   return HAL_OK;
 1005              		.loc 1 935 10
 1006 002e 0023     		movs	r3, #0
 936:Drivers/STM32F7xx_HAL_Driver/Src/stm32f7xx_hal_dma2d.c **** }
 1007              		.loc 1 936 1
 1008 0030 1846     		mov	r0, r3
 1009 0032 0C37     		adds	r7, r7, #12
 1010              	.LCFI55:
 1011              		.cfi_def_cfa_offset 4
 1012 0034 BD46     		mov	sp, r7
 1013              	.LCFI56:
 1014              		.cfi_def_cfa_register 13
 1015              		@ sp needed
ARM GAS  C:\Users\jisu8\AppData\Local\Temp\ccmlnG2o.s 			page 35


 1016 0036 5DF8047B 		ldr	r7, [sp], #4
 1017              	.LCFI57:
 1018              		.cfi_restore 7
 1019              		.cfi_def_cfa_offset 0
 1020 003a 7047     		bx	lr
 1021              		.cfi_endproc
 1022              	.LFE151:
 1024              		.section	.text.HAL_DMA2D_EnableCLUT,"ax",%progbits
 1025              		.align	1
 1026              		.global	HAL_DMA2D_EnableCLUT
 1027              		.syntax unified
 1028              		.thumb
 1029              		.thumb_func
 1031              	HAL_DMA2D_EnableCLUT:
 1032              	.LFB152:
 937:Drivers/STM32F7xx_HAL_Driver/Src/stm32f7xx_hal_dma2d.c **** 
 938:Drivers/STM32F7xx_HAL_Driver/Src/stm32f7xx_hal_dma2d.c **** 
 939:Drivers/STM32F7xx_HAL_Driver/Src/stm32f7xx_hal_dma2d.c **** /**
 940:Drivers/STM32F7xx_HAL_Driver/Src/stm32f7xx_hal_dma2d.c ****   * @brief  Enable the DMA2D CLUT Transfer.
 941:Drivers/STM32F7xx_HAL_Driver/Src/stm32f7xx_hal_dma2d.c ****   * @param  hdma2d   Pointer to a DMA2D_HandleTypeDef structure that contains
 942:Drivers/STM32F7xx_HAL_Driver/Src/stm32f7xx_hal_dma2d.c ****   *                   the configuration information for the DMA2D.
 943:Drivers/STM32F7xx_HAL_Driver/Src/stm32f7xx_hal_dma2d.c ****   * @param  LayerIdx DMA2D Layer index.
 944:Drivers/STM32F7xx_HAL_Driver/Src/stm32f7xx_hal_dma2d.c ****   *                   This parameter can be one of the following values:
 945:Drivers/STM32F7xx_HAL_Driver/Src/stm32f7xx_hal_dma2d.c ****   *                   DMA2D_BACKGROUND_LAYER(0) / DMA2D_FOREGROUND_LAYER(1)
 946:Drivers/STM32F7xx_HAL_Driver/Src/stm32f7xx_hal_dma2d.c ****   * @retval HAL status
 947:Drivers/STM32F7xx_HAL_Driver/Src/stm32f7xx_hal_dma2d.c ****   */
 948:Drivers/STM32F7xx_HAL_Driver/Src/stm32f7xx_hal_dma2d.c **** HAL_StatusTypeDef HAL_DMA2D_EnableCLUT(DMA2D_HandleTypeDef *hdma2d, uint32_t LayerIdx)
 949:Drivers/STM32F7xx_HAL_Driver/Src/stm32f7xx_hal_dma2d.c **** {
 1033              		.loc 1 949 1
 1034              		.cfi_startproc
 1035              		@ args = 0, pretend = 0, frame = 8
 1036              		@ frame_needed = 1, uses_anonymous_args = 0
 1037              		@ link register save eliminated.
 1038 0000 80B4     		push	{r7}
 1039              	.LCFI58:
 1040              		.cfi_def_cfa_offset 4
 1041              		.cfi_offset 7, -4
 1042 0002 83B0     		sub	sp, sp, #12
 1043              	.LCFI59:
 1044              		.cfi_def_cfa_offset 16
 1045 0004 00AF     		add	r7, sp, #0
 1046              	.LCFI60:
 1047              		.cfi_def_cfa_register 7
 1048 0006 7860     		str	r0, [r7, #4]
 1049 0008 3960     		str	r1, [r7]
 950:Drivers/STM32F7xx_HAL_Driver/Src/stm32f7xx_hal_dma2d.c ****   /* Check the parameters */
 951:Drivers/STM32F7xx_HAL_Driver/Src/stm32f7xx_hal_dma2d.c ****   assert_param(IS_DMA2D_LAYER(LayerIdx));
 952:Drivers/STM32F7xx_HAL_Driver/Src/stm32f7xx_hal_dma2d.c **** 
 953:Drivers/STM32F7xx_HAL_Driver/Src/stm32f7xx_hal_dma2d.c ****   /* Process locked */
 954:Drivers/STM32F7xx_HAL_Driver/Src/stm32f7xx_hal_dma2d.c ****   __HAL_LOCK(hdma2d);
 1050              		.loc 1 954 3
 1051 000a 7B68     		ldr	r3, [r7, #4]
 1052 000c 93F83830 		ldrb	r3, [r3, #56]	@ zero_extendqisi2
 1053 0010 012B     		cmp	r3, #1
 1054 0012 01D1     		bne	.L43
 1055              		.loc 1 954 3 is_stmt 0 discriminator 1
 1056 0014 0223     		movs	r3, #2
ARM GAS  C:\Users\jisu8\AppData\Local\Temp\ccmlnG2o.s 			page 36


 1057 0016 1CE0     		b	.L44
 1058              	.L43:
 1059              		.loc 1 954 3 discriminator 2
 1060 0018 7B68     		ldr	r3, [r7, #4]
 1061 001a 0122     		movs	r2, #1
 1062 001c 83F83820 		strb	r2, [r3, #56]
 955:Drivers/STM32F7xx_HAL_Driver/Src/stm32f7xx_hal_dma2d.c **** 
 956:Drivers/STM32F7xx_HAL_Driver/Src/stm32f7xx_hal_dma2d.c ****   /* Change DMA2D peripheral state */
 957:Drivers/STM32F7xx_HAL_Driver/Src/stm32f7xx_hal_dma2d.c ****   hdma2d->State = HAL_DMA2D_STATE_BUSY;
 1063              		.loc 1 957 17 is_stmt 1 discriminator 2
 1064 0020 7B68     		ldr	r3, [r7, #4]
 1065 0022 0222     		movs	r2, #2
 1066 0024 83F83920 		strb	r2, [r3, #57]
 958:Drivers/STM32F7xx_HAL_Driver/Src/stm32f7xx_hal_dma2d.c **** 
 959:Drivers/STM32F7xx_HAL_Driver/Src/stm32f7xx_hal_dma2d.c ****   if (LayerIdx == DMA2D_BACKGROUND_LAYER)
 1067              		.loc 1 959 6 discriminator 2
 1068 0028 3B68     		ldr	r3, [r7]
 1069 002a 002B     		cmp	r3, #0
 1070 002c 08D1     		bne	.L45
 960:Drivers/STM32F7xx_HAL_Driver/Src/stm32f7xx_hal_dma2d.c ****   {
 961:Drivers/STM32F7xx_HAL_Driver/Src/stm32f7xx_hal_dma2d.c ****     /* Enable the background CLUT loading */
 962:Drivers/STM32F7xx_HAL_Driver/Src/stm32f7xx_hal_dma2d.c ****     SET_BIT(hdma2d->Instance->BGPFCCR, DMA2D_BGPFCCR_START);
 1071              		.loc 1 962 5
 1072 002e 7B68     		ldr	r3, [r7, #4]
 1073 0030 1B68     		ldr	r3, [r3]
 1074 0032 5A6A     		ldr	r2, [r3, #36]
 1075 0034 7B68     		ldr	r3, [r7, #4]
 1076 0036 1B68     		ldr	r3, [r3]
 1077 0038 42F02002 		orr	r2, r2, #32
 1078 003c 5A62     		str	r2, [r3, #36]
 1079 003e 07E0     		b	.L46
 1080              	.L45:
 963:Drivers/STM32F7xx_HAL_Driver/Src/stm32f7xx_hal_dma2d.c ****   }
 964:Drivers/STM32F7xx_HAL_Driver/Src/stm32f7xx_hal_dma2d.c ****   else
 965:Drivers/STM32F7xx_HAL_Driver/Src/stm32f7xx_hal_dma2d.c ****   {
 966:Drivers/STM32F7xx_HAL_Driver/Src/stm32f7xx_hal_dma2d.c ****     /* Enable the foreground CLUT loading */
 967:Drivers/STM32F7xx_HAL_Driver/Src/stm32f7xx_hal_dma2d.c ****     SET_BIT(hdma2d->Instance->FGPFCCR, DMA2D_FGPFCCR_START);
 1081              		.loc 1 967 5
 1082 0040 7B68     		ldr	r3, [r7, #4]
 1083 0042 1B68     		ldr	r3, [r3]
 1084 0044 DA69     		ldr	r2, [r3, #28]
 1085 0046 7B68     		ldr	r3, [r7, #4]
 1086 0048 1B68     		ldr	r3, [r3]
 1087 004a 42F02002 		orr	r2, r2, #32
 1088 004e DA61     		str	r2, [r3, #28]
 1089              	.L46:
 968:Drivers/STM32F7xx_HAL_Driver/Src/stm32f7xx_hal_dma2d.c ****   }
 969:Drivers/STM32F7xx_HAL_Driver/Src/stm32f7xx_hal_dma2d.c **** 
 970:Drivers/STM32F7xx_HAL_Driver/Src/stm32f7xx_hal_dma2d.c ****   return HAL_OK;
 1090              		.loc 1 970 10
 1091 0050 0023     		movs	r3, #0
 1092              	.L44:
 971:Drivers/STM32F7xx_HAL_Driver/Src/stm32f7xx_hal_dma2d.c **** }
 1093              		.loc 1 971 1
 1094 0052 1846     		mov	r0, r3
 1095 0054 0C37     		adds	r7, r7, #12
 1096              	.LCFI61:
ARM GAS  C:\Users\jisu8\AppData\Local\Temp\ccmlnG2o.s 			page 37


 1097              		.cfi_def_cfa_offset 4
 1098 0056 BD46     		mov	sp, r7
 1099              	.LCFI62:
 1100              		.cfi_def_cfa_register 13
 1101              		@ sp needed
 1102 0058 5DF8047B 		ldr	r7, [sp], #4
 1103              	.LCFI63:
 1104              		.cfi_restore 7
 1105              		.cfi_def_cfa_offset 0
 1106 005c 7047     		bx	lr
 1107              		.cfi_endproc
 1108              	.LFE152:
 1110              		.section	.text.HAL_DMA2D_CLUTStartLoad,"ax",%progbits
 1111              		.align	1
 1112              		.global	HAL_DMA2D_CLUTStartLoad
 1113              		.syntax unified
 1114              		.thumb
 1115              		.thumb_func
 1117              	HAL_DMA2D_CLUTStartLoad:
 1118              	.LFB153:
 972:Drivers/STM32F7xx_HAL_Driver/Src/stm32f7xx_hal_dma2d.c **** 
 973:Drivers/STM32F7xx_HAL_Driver/Src/stm32f7xx_hal_dma2d.c **** /**
 974:Drivers/STM32F7xx_HAL_Driver/Src/stm32f7xx_hal_dma2d.c ****   * @brief  Start DMA2D CLUT Loading.
 975:Drivers/STM32F7xx_HAL_Driver/Src/stm32f7xx_hal_dma2d.c ****   * @param  hdma2d   Pointer to a DMA2D_HandleTypeDef structure that contains
 976:Drivers/STM32F7xx_HAL_Driver/Src/stm32f7xx_hal_dma2d.c ****   *                   the configuration information for the DMA2D.
 977:Drivers/STM32F7xx_HAL_Driver/Src/stm32f7xx_hal_dma2d.c ****   * @param  CLUTCfg  Pointer to a DMA2D_CLUTCfgTypeDef structure that contains
 978:Drivers/STM32F7xx_HAL_Driver/Src/stm32f7xx_hal_dma2d.c ****   *                   the configuration information for the color look up table.
 979:Drivers/STM32F7xx_HAL_Driver/Src/stm32f7xx_hal_dma2d.c ****   * @param  LayerIdx DMA2D Layer index.
 980:Drivers/STM32F7xx_HAL_Driver/Src/stm32f7xx_hal_dma2d.c ****   *                   This parameter can be one of the following values:
 981:Drivers/STM32F7xx_HAL_Driver/Src/stm32f7xx_hal_dma2d.c ****   *                   DMA2D_BACKGROUND_LAYER(0) / DMA2D_FOREGROUND_LAYER(1)
 982:Drivers/STM32F7xx_HAL_Driver/Src/stm32f7xx_hal_dma2d.c ****   * @retval HAL status
 983:Drivers/STM32F7xx_HAL_Driver/Src/stm32f7xx_hal_dma2d.c ****   */
 984:Drivers/STM32F7xx_HAL_Driver/Src/stm32f7xx_hal_dma2d.c **** HAL_StatusTypeDef HAL_DMA2D_CLUTStartLoad(DMA2D_HandleTypeDef *hdma2d, DMA2D_CLUTCfgTypeDef *CLUTCf
 985:Drivers/STM32F7xx_HAL_Driver/Src/stm32f7xx_hal_dma2d.c **** {
 1119              		.loc 1 985 1
 1120              		.cfi_startproc
 1121              		@ args = 0, pretend = 0, frame = 16
 1122              		@ frame_needed = 1, uses_anonymous_args = 0
 1123              		@ link register save eliminated.
 1124 0000 80B4     		push	{r7}
 1125              	.LCFI64:
 1126              		.cfi_def_cfa_offset 4
 1127              		.cfi_offset 7, -4
 1128 0002 85B0     		sub	sp, sp, #20
 1129              	.LCFI65:
 1130              		.cfi_def_cfa_offset 24
 1131 0004 00AF     		add	r7, sp, #0
 1132              	.LCFI66:
 1133              		.cfi_def_cfa_register 7
 1134 0006 F860     		str	r0, [r7, #12]
 1135 0008 B960     		str	r1, [r7, #8]
 1136 000a 7A60     		str	r2, [r7, #4]
 986:Drivers/STM32F7xx_HAL_Driver/Src/stm32f7xx_hal_dma2d.c ****   /* Check the parameters */
 987:Drivers/STM32F7xx_HAL_Driver/Src/stm32f7xx_hal_dma2d.c ****   assert_param(IS_DMA2D_LAYER(LayerIdx));
 988:Drivers/STM32F7xx_HAL_Driver/Src/stm32f7xx_hal_dma2d.c ****   assert_param(IS_DMA2D_CLUT_CM(CLUTCfg->CLUTColorMode));
 989:Drivers/STM32F7xx_HAL_Driver/Src/stm32f7xx_hal_dma2d.c ****   assert_param(IS_DMA2D_CLUT_SIZE(CLUTCfg->Size));
 990:Drivers/STM32F7xx_HAL_Driver/Src/stm32f7xx_hal_dma2d.c **** 
ARM GAS  C:\Users\jisu8\AppData\Local\Temp\ccmlnG2o.s 			page 38


 991:Drivers/STM32F7xx_HAL_Driver/Src/stm32f7xx_hal_dma2d.c ****   /* Process locked */
 992:Drivers/STM32F7xx_HAL_Driver/Src/stm32f7xx_hal_dma2d.c ****   __HAL_LOCK(hdma2d);
 1137              		.loc 1 992 3
 1138 000c FB68     		ldr	r3, [r7, #12]
 1139 000e 93F83830 		ldrb	r3, [r3, #56]	@ zero_extendqisi2
 1140 0012 012B     		cmp	r3, #1
 1141 0014 01D1     		bne	.L48
 1142              		.loc 1 992 3 is_stmt 0 discriminator 1
 1143 0016 0223     		movs	r3, #2
 1144 0018 46E0     		b	.L49
 1145              	.L48:
 1146              		.loc 1 992 3 discriminator 2
 1147 001a FB68     		ldr	r3, [r7, #12]
 1148 001c 0122     		movs	r2, #1
 1149 001e 83F83820 		strb	r2, [r3, #56]
 993:Drivers/STM32F7xx_HAL_Driver/Src/stm32f7xx_hal_dma2d.c **** 
 994:Drivers/STM32F7xx_HAL_Driver/Src/stm32f7xx_hal_dma2d.c ****   /* Change DMA2D peripheral state */
 995:Drivers/STM32F7xx_HAL_Driver/Src/stm32f7xx_hal_dma2d.c ****   hdma2d->State = HAL_DMA2D_STATE_BUSY;
 1150              		.loc 1 995 17 is_stmt 1 discriminator 2
 1151 0022 FB68     		ldr	r3, [r7, #12]
 1152 0024 0222     		movs	r2, #2
 1153 0026 83F83920 		strb	r2, [r3, #57]
 996:Drivers/STM32F7xx_HAL_Driver/Src/stm32f7xx_hal_dma2d.c **** 
 997:Drivers/STM32F7xx_HAL_Driver/Src/stm32f7xx_hal_dma2d.c ****   /* Configure the CLUT of the background DMA2D layer */
 998:Drivers/STM32F7xx_HAL_Driver/Src/stm32f7xx_hal_dma2d.c ****   if (LayerIdx == DMA2D_BACKGROUND_LAYER)
 1154              		.loc 1 998 6 discriminator 2
 1155 002a 7B68     		ldr	r3, [r7, #4]
 1156 002c 002B     		cmp	r3, #0
 1157 002e 1DD1     		bne	.L50
 999:Drivers/STM32F7xx_HAL_Driver/Src/stm32f7xx_hal_dma2d.c ****   {
1000:Drivers/STM32F7xx_HAL_Driver/Src/stm32f7xx_hal_dma2d.c ****     /* Write background CLUT memory address */
1001:Drivers/STM32F7xx_HAL_Driver/Src/stm32f7xx_hal_dma2d.c ****     WRITE_REG(hdma2d->Instance->BGCMAR, (uint32_t)CLUTCfg->pCLUT);
 1158              		.loc 1 1001 5
 1159 0030 BB68     		ldr	r3, [r7, #8]
 1160 0032 1A68     		ldr	r2, [r3]
 1161 0034 FB68     		ldr	r3, [r7, #12]
 1162 0036 1B68     		ldr	r3, [r3]
 1163 0038 1A63     		str	r2, [r3, #48]
1002:Drivers/STM32F7xx_HAL_Driver/Src/stm32f7xx_hal_dma2d.c **** 
1003:Drivers/STM32F7xx_HAL_Driver/Src/stm32f7xx_hal_dma2d.c ****     /* Write background CLUT size and CLUT color mode */
1004:Drivers/STM32F7xx_HAL_Driver/Src/stm32f7xx_hal_dma2d.c ****     MODIFY_REG(hdma2d->Instance->BGPFCCR, (DMA2D_BGPFCCR_CS | DMA2D_BGPFCCR_CCM),
 1164              		.loc 1 1004 5
 1165 003a FB68     		ldr	r3, [r7, #12]
 1166 003c 1B68     		ldr	r3, [r3]
 1167 003e 5A6A     		ldr	r2, [r3, #36]
 1168 0040 1C4B     		ldr	r3, .L52
 1169 0042 1340     		ands	r3, r3, r2
 1170 0044 BA68     		ldr	r2, [r7, #8]
 1171 0046 9268     		ldr	r2, [r2, #8]
 1172 0048 1102     		lsls	r1, r2, #8
 1173 004a BA68     		ldr	r2, [r7, #8]
 1174 004c 5268     		ldr	r2, [r2, #4]
 1175 004e 1201     		lsls	r2, r2, #4
 1176 0050 1143     		orrs	r1, r1, r2
 1177 0052 FA68     		ldr	r2, [r7, #12]
 1178 0054 1268     		ldr	r2, [r2]
 1179 0056 0B43     		orrs	r3, r3, r1
ARM GAS  C:\Users\jisu8\AppData\Local\Temp\ccmlnG2o.s 			page 39


 1180 0058 5362     		str	r3, [r2, #36]
1005:Drivers/STM32F7xx_HAL_Driver/Src/stm32f7xx_hal_dma2d.c ****                ((CLUTCfg->Size << DMA2D_BGPFCCR_CS_Pos) | (CLUTCfg->CLUTColorMode << DMA2D_BGPFCCR_
1006:Drivers/STM32F7xx_HAL_Driver/Src/stm32f7xx_hal_dma2d.c **** 
1007:Drivers/STM32F7xx_HAL_Driver/Src/stm32f7xx_hal_dma2d.c ****     /* Enable the CLUT loading for the background */
1008:Drivers/STM32F7xx_HAL_Driver/Src/stm32f7xx_hal_dma2d.c ****     SET_BIT(hdma2d->Instance->BGPFCCR, DMA2D_BGPFCCR_START);
 1181              		.loc 1 1008 5
 1182 005a FB68     		ldr	r3, [r7, #12]
 1183 005c 1B68     		ldr	r3, [r3]
 1184 005e 5A6A     		ldr	r2, [r3, #36]
 1185 0060 FB68     		ldr	r3, [r7, #12]
 1186 0062 1B68     		ldr	r3, [r3]
 1187 0064 42F02002 		orr	r2, r2, #32
 1188 0068 5A62     		str	r2, [r3, #36]
 1189 006a 1CE0     		b	.L51
 1190              	.L50:
1009:Drivers/STM32F7xx_HAL_Driver/Src/stm32f7xx_hal_dma2d.c ****   }
1010:Drivers/STM32F7xx_HAL_Driver/Src/stm32f7xx_hal_dma2d.c ****   /* Configure the CLUT of the foreground DMA2D layer */
1011:Drivers/STM32F7xx_HAL_Driver/Src/stm32f7xx_hal_dma2d.c ****   else
1012:Drivers/STM32F7xx_HAL_Driver/Src/stm32f7xx_hal_dma2d.c ****   {
1013:Drivers/STM32F7xx_HAL_Driver/Src/stm32f7xx_hal_dma2d.c ****     /* Write foreground CLUT memory address */
1014:Drivers/STM32F7xx_HAL_Driver/Src/stm32f7xx_hal_dma2d.c ****     WRITE_REG(hdma2d->Instance->FGCMAR, (uint32_t)CLUTCfg->pCLUT);
 1191              		.loc 1 1014 5
 1192 006c BB68     		ldr	r3, [r7, #8]
 1193 006e 1A68     		ldr	r2, [r3]
 1194 0070 FB68     		ldr	r3, [r7, #12]
 1195 0072 1B68     		ldr	r3, [r3]
 1196 0074 DA62     		str	r2, [r3, #44]
1015:Drivers/STM32F7xx_HAL_Driver/Src/stm32f7xx_hal_dma2d.c **** 
1016:Drivers/STM32F7xx_HAL_Driver/Src/stm32f7xx_hal_dma2d.c ****     /* Write foreground CLUT size and CLUT color mode */
1017:Drivers/STM32F7xx_HAL_Driver/Src/stm32f7xx_hal_dma2d.c ****     MODIFY_REG(hdma2d->Instance->FGPFCCR, (DMA2D_FGPFCCR_CS | DMA2D_FGPFCCR_CCM),
 1197              		.loc 1 1017 5
 1198 0076 FB68     		ldr	r3, [r7, #12]
 1199 0078 1B68     		ldr	r3, [r3]
 1200 007a DA69     		ldr	r2, [r3, #28]
 1201 007c 0D4B     		ldr	r3, .L52
 1202 007e 1340     		ands	r3, r3, r2
 1203 0080 BA68     		ldr	r2, [r7, #8]
 1204 0082 9268     		ldr	r2, [r2, #8]
 1205 0084 1102     		lsls	r1, r2, #8
 1206 0086 BA68     		ldr	r2, [r7, #8]
 1207 0088 5268     		ldr	r2, [r2, #4]
 1208 008a 1201     		lsls	r2, r2, #4
 1209 008c 1143     		orrs	r1, r1, r2
 1210 008e FA68     		ldr	r2, [r7, #12]
 1211 0090 1268     		ldr	r2, [r2]
 1212 0092 0B43     		orrs	r3, r3, r1
 1213 0094 D361     		str	r3, [r2, #28]
1018:Drivers/STM32F7xx_HAL_Driver/Src/stm32f7xx_hal_dma2d.c ****                ((CLUTCfg->Size << DMA2D_FGPFCCR_CS_Pos) | (CLUTCfg->CLUTColorMode << DMA2D_FGPFCCR_
1019:Drivers/STM32F7xx_HAL_Driver/Src/stm32f7xx_hal_dma2d.c **** 
1020:Drivers/STM32F7xx_HAL_Driver/Src/stm32f7xx_hal_dma2d.c ****     /* Enable the CLUT loading for the foreground */
1021:Drivers/STM32F7xx_HAL_Driver/Src/stm32f7xx_hal_dma2d.c ****     SET_BIT(hdma2d->Instance->FGPFCCR, DMA2D_FGPFCCR_START);
 1214              		.loc 1 1021 5
 1215 0096 FB68     		ldr	r3, [r7, #12]
 1216 0098 1B68     		ldr	r3, [r3]
 1217 009a DA69     		ldr	r2, [r3, #28]
 1218 009c FB68     		ldr	r3, [r7, #12]
 1219 009e 1B68     		ldr	r3, [r3]
ARM GAS  C:\Users\jisu8\AppData\Local\Temp\ccmlnG2o.s 			page 40


 1220 00a0 42F02002 		orr	r2, r2, #32
 1221 00a4 DA61     		str	r2, [r3, #28]
 1222              	.L51:
1022:Drivers/STM32F7xx_HAL_Driver/Src/stm32f7xx_hal_dma2d.c ****   }
1023:Drivers/STM32F7xx_HAL_Driver/Src/stm32f7xx_hal_dma2d.c **** 
1024:Drivers/STM32F7xx_HAL_Driver/Src/stm32f7xx_hal_dma2d.c ****   return HAL_OK;
 1223              		.loc 1 1024 10
 1224 00a6 0023     		movs	r3, #0
 1225              	.L49:
1025:Drivers/STM32F7xx_HAL_Driver/Src/stm32f7xx_hal_dma2d.c **** }
 1226              		.loc 1 1025 1
 1227 00a8 1846     		mov	r0, r3
 1228 00aa 1437     		adds	r7, r7, #20
 1229              	.LCFI67:
 1230              		.cfi_def_cfa_offset 4
 1231 00ac BD46     		mov	sp, r7
 1232              	.LCFI68:
 1233              		.cfi_def_cfa_register 13
 1234              		@ sp needed
 1235 00ae 5DF8047B 		ldr	r7, [sp], #4
 1236              	.LCFI69:
 1237              		.cfi_restore 7
 1238              		.cfi_def_cfa_offset 0
 1239 00b2 7047     		bx	lr
 1240              	.L53:
 1241              		.align	2
 1242              	.L52:
 1243 00b4 EF00FFFF 		.word	-65297
 1244              		.cfi_endproc
 1245              	.LFE153:
 1247              		.section	.text.HAL_DMA2D_CLUTStartLoad_IT,"ax",%progbits
 1248              		.align	1
 1249              		.global	HAL_DMA2D_CLUTStartLoad_IT
 1250              		.syntax unified
 1251              		.thumb
 1252              		.thumb_func
 1254              	HAL_DMA2D_CLUTStartLoad_IT:
 1255              	.LFB154:
1026:Drivers/STM32F7xx_HAL_Driver/Src/stm32f7xx_hal_dma2d.c **** 
1027:Drivers/STM32F7xx_HAL_Driver/Src/stm32f7xx_hal_dma2d.c **** /**
1028:Drivers/STM32F7xx_HAL_Driver/Src/stm32f7xx_hal_dma2d.c ****   * @brief  Start DMA2D CLUT Loading with interrupt enabled.
1029:Drivers/STM32F7xx_HAL_Driver/Src/stm32f7xx_hal_dma2d.c ****   * @param  hdma2d   Pointer to a DMA2D_HandleTypeDef structure that contains
1030:Drivers/STM32F7xx_HAL_Driver/Src/stm32f7xx_hal_dma2d.c ****   *                   the configuration information for the DMA2D.
1031:Drivers/STM32F7xx_HAL_Driver/Src/stm32f7xx_hal_dma2d.c ****   * @param  CLUTCfg  Pointer to a DMA2D_CLUTCfgTypeDef structure that contains
1032:Drivers/STM32F7xx_HAL_Driver/Src/stm32f7xx_hal_dma2d.c ****   *                   the configuration information for the color look up table.
1033:Drivers/STM32F7xx_HAL_Driver/Src/stm32f7xx_hal_dma2d.c ****   * @param  LayerIdx DMA2D Layer index.
1034:Drivers/STM32F7xx_HAL_Driver/Src/stm32f7xx_hal_dma2d.c ****   *                   This parameter can be one of the following values:
1035:Drivers/STM32F7xx_HAL_Driver/Src/stm32f7xx_hal_dma2d.c ****   *                   DMA2D_BACKGROUND_LAYER(0) / DMA2D_FOREGROUND_LAYER(1)
1036:Drivers/STM32F7xx_HAL_Driver/Src/stm32f7xx_hal_dma2d.c ****   * @retval HAL status
1037:Drivers/STM32F7xx_HAL_Driver/Src/stm32f7xx_hal_dma2d.c ****   */
1038:Drivers/STM32F7xx_HAL_Driver/Src/stm32f7xx_hal_dma2d.c **** HAL_StatusTypeDef HAL_DMA2D_CLUTStartLoad_IT(DMA2D_HandleTypeDef *hdma2d, DMA2D_CLUTCfgTypeDef *CLU
1039:Drivers/STM32F7xx_HAL_Driver/Src/stm32f7xx_hal_dma2d.c ****                                              uint32_t LayerIdx)
1040:Drivers/STM32F7xx_HAL_Driver/Src/stm32f7xx_hal_dma2d.c **** {
 1256              		.loc 1 1040 1
 1257              		.cfi_startproc
 1258              		@ args = 0, pretend = 0, frame = 16
 1259              		@ frame_needed = 1, uses_anonymous_args = 0
ARM GAS  C:\Users\jisu8\AppData\Local\Temp\ccmlnG2o.s 			page 41


 1260              		@ link register save eliminated.
 1261 0000 80B4     		push	{r7}
 1262              	.LCFI70:
 1263              		.cfi_def_cfa_offset 4
 1264              		.cfi_offset 7, -4
 1265 0002 85B0     		sub	sp, sp, #20
 1266              	.LCFI71:
 1267              		.cfi_def_cfa_offset 24
 1268 0004 00AF     		add	r7, sp, #0
 1269              	.LCFI72:
 1270              		.cfi_def_cfa_register 7
 1271 0006 F860     		str	r0, [r7, #12]
 1272 0008 B960     		str	r1, [r7, #8]
 1273 000a 7A60     		str	r2, [r7, #4]
1041:Drivers/STM32F7xx_HAL_Driver/Src/stm32f7xx_hal_dma2d.c ****   /* Check the parameters */
1042:Drivers/STM32F7xx_HAL_Driver/Src/stm32f7xx_hal_dma2d.c ****   assert_param(IS_DMA2D_LAYER(LayerIdx));
1043:Drivers/STM32F7xx_HAL_Driver/Src/stm32f7xx_hal_dma2d.c ****   assert_param(IS_DMA2D_CLUT_CM(CLUTCfg->CLUTColorMode));
1044:Drivers/STM32F7xx_HAL_Driver/Src/stm32f7xx_hal_dma2d.c ****   assert_param(IS_DMA2D_CLUT_SIZE(CLUTCfg->Size));
1045:Drivers/STM32F7xx_HAL_Driver/Src/stm32f7xx_hal_dma2d.c **** 
1046:Drivers/STM32F7xx_HAL_Driver/Src/stm32f7xx_hal_dma2d.c ****   /* Process locked */
1047:Drivers/STM32F7xx_HAL_Driver/Src/stm32f7xx_hal_dma2d.c ****   __HAL_LOCK(hdma2d);
 1274              		.loc 1 1047 3
 1275 000c FB68     		ldr	r3, [r7, #12]
 1276 000e 93F83830 		ldrb	r3, [r3, #56]	@ zero_extendqisi2
 1277 0012 012B     		cmp	r3, #1
 1278 0014 01D1     		bne	.L55
 1279              		.loc 1 1047 3 is_stmt 0 discriminator 1
 1280 0016 0223     		movs	r3, #2
 1281 0018 56E0     		b	.L56
 1282              	.L55:
 1283              		.loc 1 1047 3 discriminator 2
 1284 001a FB68     		ldr	r3, [r7, #12]
 1285 001c 0122     		movs	r2, #1
 1286 001e 83F83820 		strb	r2, [r3, #56]
1048:Drivers/STM32F7xx_HAL_Driver/Src/stm32f7xx_hal_dma2d.c **** 
1049:Drivers/STM32F7xx_HAL_Driver/Src/stm32f7xx_hal_dma2d.c ****   /* Change DMA2D peripheral state */
1050:Drivers/STM32F7xx_HAL_Driver/Src/stm32f7xx_hal_dma2d.c ****   hdma2d->State = HAL_DMA2D_STATE_BUSY;
 1287              		.loc 1 1050 17 is_stmt 1 discriminator 2
 1288 0022 FB68     		ldr	r3, [r7, #12]
 1289 0024 0222     		movs	r2, #2
 1290 0026 83F83920 		strb	r2, [r3, #57]
1051:Drivers/STM32F7xx_HAL_Driver/Src/stm32f7xx_hal_dma2d.c **** 
1052:Drivers/STM32F7xx_HAL_Driver/Src/stm32f7xx_hal_dma2d.c ****   /* Configure the CLUT of the background DMA2D layer */
1053:Drivers/STM32F7xx_HAL_Driver/Src/stm32f7xx_hal_dma2d.c ****   if (LayerIdx == DMA2D_BACKGROUND_LAYER)
 1291              		.loc 1 1053 6 discriminator 2
 1292 002a 7B68     		ldr	r3, [r7, #4]
 1293 002c 002B     		cmp	r3, #0
 1294 002e 25D1     		bne	.L57
1054:Drivers/STM32F7xx_HAL_Driver/Src/stm32f7xx_hal_dma2d.c ****   {
1055:Drivers/STM32F7xx_HAL_Driver/Src/stm32f7xx_hal_dma2d.c ****     /* Write background CLUT memory address */
1056:Drivers/STM32F7xx_HAL_Driver/Src/stm32f7xx_hal_dma2d.c ****     WRITE_REG(hdma2d->Instance->BGCMAR, (uint32_t)CLUTCfg->pCLUT);
 1295              		.loc 1 1056 5
 1296 0030 BB68     		ldr	r3, [r7, #8]
 1297 0032 1A68     		ldr	r2, [r3]
 1298 0034 FB68     		ldr	r3, [r7, #12]
 1299 0036 1B68     		ldr	r3, [r3]
 1300 0038 1A63     		str	r2, [r3, #48]
ARM GAS  C:\Users\jisu8\AppData\Local\Temp\ccmlnG2o.s 			page 42


1057:Drivers/STM32F7xx_HAL_Driver/Src/stm32f7xx_hal_dma2d.c **** 
1058:Drivers/STM32F7xx_HAL_Driver/Src/stm32f7xx_hal_dma2d.c ****     /* Write background CLUT size and CLUT color mode */
1059:Drivers/STM32F7xx_HAL_Driver/Src/stm32f7xx_hal_dma2d.c ****     MODIFY_REG(hdma2d->Instance->BGPFCCR, (DMA2D_BGPFCCR_CS | DMA2D_BGPFCCR_CCM),
 1301              		.loc 1 1059 5
 1302 003a FB68     		ldr	r3, [r7, #12]
 1303 003c 1B68     		ldr	r3, [r3]
 1304 003e 5A6A     		ldr	r2, [r3, #36]
 1305 0040 244B     		ldr	r3, .L59
 1306 0042 1340     		ands	r3, r3, r2
 1307 0044 BA68     		ldr	r2, [r7, #8]
 1308 0046 9268     		ldr	r2, [r2, #8]
 1309 0048 1102     		lsls	r1, r2, #8
 1310 004a BA68     		ldr	r2, [r7, #8]
 1311 004c 5268     		ldr	r2, [r2, #4]
 1312 004e 1201     		lsls	r2, r2, #4
 1313 0050 1143     		orrs	r1, r1, r2
 1314 0052 FA68     		ldr	r2, [r7, #12]
 1315 0054 1268     		ldr	r2, [r2]
 1316 0056 0B43     		orrs	r3, r3, r1
 1317 0058 5362     		str	r3, [r2, #36]
1060:Drivers/STM32F7xx_HAL_Driver/Src/stm32f7xx_hal_dma2d.c ****                ((CLUTCfg->Size << DMA2D_BGPFCCR_CS_Pos) | (CLUTCfg->CLUTColorMode << DMA2D_BGPFCCR_
1061:Drivers/STM32F7xx_HAL_Driver/Src/stm32f7xx_hal_dma2d.c **** 
1062:Drivers/STM32F7xx_HAL_Driver/Src/stm32f7xx_hal_dma2d.c ****     /* Enable the CLUT Transfer Complete, transfer Error, configuration Error and CLUT Access Error
1063:Drivers/STM32F7xx_HAL_Driver/Src/stm32f7xx_hal_dma2d.c ****     __HAL_DMA2D_ENABLE_IT(hdma2d, DMA2D_IT_CTC | DMA2D_IT_TE | DMA2D_IT_CE | DMA2D_IT_CAE);
 1318              		.loc 1 1063 5
 1319 005a FB68     		ldr	r3, [r7, #12]
 1320 005c 1B68     		ldr	r3, [r3]
 1321 005e 1A68     		ldr	r2, [r3]
 1322 0060 FB68     		ldr	r3, [r7, #12]
 1323 0062 1B68     		ldr	r3, [r3]
 1324 0064 42F46452 		orr	r2, r2, #14592
 1325 0068 1A60     		str	r2, [r3]
1064:Drivers/STM32F7xx_HAL_Driver/Src/stm32f7xx_hal_dma2d.c **** 
1065:Drivers/STM32F7xx_HAL_Driver/Src/stm32f7xx_hal_dma2d.c ****     /* Enable the CLUT loading for the background */
1066:Drivers/STM32F7xx_HAL_Driver/Src/stm32f7xx_hal_dma2d.c ****     SET_BIT(hdma2d->Instance->BGPFCCR, DMA2D_BGPFCCR_START);
 1326              		.loc 1 1066 5
 1327 006a FB68     		ldr	r3, [r7, #12]
 1328 006c 1B68     		ldr	r3, [r3]
 1329 006e 5A6A     		ldr	r2, [r3, #36]
 1330 0070 FB68     		ldr	r3, [r7, #12]
 1331 0072 1B68     		ldr	r3, [r3]
 1332 0074 42F02002 		orr	r2, r2, #32
 1333 0078 5A62     		str	r2, [r3, #36]
 1334 007a 24E0     		b	.L58
 1335              	.L57:
1067:Drivers/STM32F7xx_HAL_Driver/Src/stm32f7xx_hal_dma2d.c ****   }
1068:Drivers/STM32F7xx_HAL_Driver/Src/stm32f7xx_hal_dma2d.c ****   /* Configure the CLUT of the foreground DMA2D layer */
1069:Drivers/STM32F7xx_HAL_Driver/Src/stm32f7xx_hal_dma2d.c ****   else
1070:Drivers/STM32F7xx_HAL_Driver/Src/stm32f7xx_hal_dma2d.c ****   {
1071:Drivers/STM32F7xx_HAL_Driver/Src/stm32f7xx_hal_dma2d.c ****     /* Write foreground CLUT memory address */
1072:Drivers/STM32F7xx_HAL_Driver/Src/stm32f7xx_hal_dma2d.c ****     WRITE_REG(hdma2d->Instance->FGCMAR, (uint32_t)CLUTCfg->pCLUT);
 1336              		.loc 1 1072 5
 1337 007c BB68     		ldr	r3, [r7, #8]
 1338 007e 1A68     		ldr	r2, [r3]
 1339 0080 FB68     		ldr	r3, [r7, #12]
 1340 0082 1B68     		ldr	r3, [r3]
 1341 0084 DA62     		str	r2, [r3, #44]
ARM GAS  C:\Users\jisu8\AppData\Local\Temp\ccmlnG2o.s 			page 43


1073:Drivers/STM32F7xx_HAL_Driver/Src/stm32f7xx_hal_dma2d.c **** 
1074:Drivers/STM32F7xx_HAL_Driver/Src/stm32f7xx_hal_dma2d.c ****     /* Write foreground CLUT size and CLUT color mode */
1075:Drivers/STM32F7xx_HAL_Driver/Src/stm32f7xx_hal_dma2d.c ****     MODIFY_REG(hdma2d->Instance->FGPFCCR, (DMA2D_FGPFCCR_CS | DMA2D_FGPFCCR_CCM),
 1342              		.loc 1 1075 5
 1343 0086 FB68     		ldr	r3, [r7, #12]
 1344 0088 1B68     		ldr	r3, [r3]
 1345 008a DA69     		ldr	r2, [r3, #28]
 1346 008c 114B     		ldr	r3, .L59
 1347 008e 1340     		ands	r3, r3, r2
 1348 0090 BA68     		ldr	r2, [r7, #8]
 1349 0092 9268     		ldr	r2, [r2, #8]
 1350 0094 1102     		lsls	r1, r2, #8
 1351 0096 BA68     		ldr	r2, [r7, #8]
 1352 0098 5268     		ldr	r2, [r2, #4]
 1353 009a 1201     		lsls	r2, r2, #4
 1354 009c 1143     		orrs	r1, r1, r2
 1355 009e FA68     		ldr	r2, [r7, #12]
 1356 00a0 1268     		ldr	r2, [r2]
 1357 00a2 0B43     		orrs	r3, r3, r1
 1358 00a4 D361     		str	r3, [r2, #28]
1076:Drivers/STM32F7xx_HAL_Driver/Src/stm32f7xx_hal_dma2d.c ****                ((CLUTCfg->Size << DMA2D_FGPFCCR_CS_Pos) | (CLUTCfg->CLUTColorMode << DMA2D_FGPFCCR_
1077:Drivers/STM32F7xx_HAL_Driver/Src/stm32f7xx_hal_dma2d.c **** 
1078:Drivers/STM32F7xx_HAL_Driver/Src/stm32f7xx_hal_dma2d.c ****     /* Enable the CLUT Transfer Complete, transfer Error, configuration Error and CLUT Access Error
1079:Drivers/STM32F7xx_HAL_Driver/Src/stm32f7xx_hal_dma2d.c ****     __HAL_DMA2D_ENABLE_IT(hdma2d, DMA2D_IT_CTC | DMA2D_IT_TE | DMA2D_IT_CE | DMA2D_IT_CAE);
 1359              		.loc 1 1079 5
 1360 00a6 FB68     		ldr	r3, [r7, #12]
 1361 00a8 1B68     		ldr	r3, [r3]
 1362 00aa 1A68     		ldr	r2, [r3]
 1363 00ac FB68     		ldr	r3, [r7, #12]
 1364 00ae 1B68     		ldr	r3, [r3]
 1365 00b0 42F46452 		orr	r2, r2, #14592
 1366 00b4 1A60     		str	r2, [r3]
1080:Drivers/STM32F7xx_HAL_Driver/Src/stm32f7xx_hal_dma2d.c **** 
1081:Drivers/STM32F7xx_HAL_Driver/Src/stm32f7xx_hal_dma2d.c ****     /* Enable the CLUT loading for the foreground */
1082:Drivers/STM32F7xx_HAL_Driver/Src/stm32f7xx_hal_dma2d.c ****     SET_BIT(hdma2d->Instance->FGPFCCR, DMA2D_FGPFCCR_START);
 1367              		.loc 1 1082 5
 1368 00b6 FB68     		ldr	r3, [r7, #12]
 1369 00b8 1B68     		ldr	r3, [r3]
 1370 00ba DA69     		ldr	r2, [r3, #28]
 1371 00bc FB68     		ldr	r3, [r7, #12]
 1372 00be 1B68     		ldr	r3, [r3]
 1373 00c0 42F02002 		orr	r2, r2, #32
 1374 00c4 DA61     		str	r2, [r3, #28]
 1375              	.L58:
1083:Drivers/STM32F7xx_HAL_Driver/Src/stm32f7xx_hal_dma2d.c ****   }
1084:Drivers/STM32F7xx_HAL_Driver/Src/stm32f7xx_hal_dma2d.c **** 
1085:Drivers/STM32F7xx_HAL_Driver/Src/stm32f7xx_hal_dma2d.c ****   return HAL_OK;
 1376              		.loc 1 1085 10
 1377 00c6 0023     		movs	r3, #0
 1378              	.L56:
1086:Drivers/STM32F7xx_HAL_Driver/Src/stm32f7xx_hal_dma2d.c **** }
 1379              		.loc 1 1086 1
 1380 00c8 1846     		mov	r0, r3
 1381 00ca 1437     		adds	r7, r7, #20
 1382              	.LCFI73:
 1383              		.cfi_def_cfa_offset 4
 1384 00cc BD46     		mov	sp, r7
ARM GAS  C:\Users\jisu8\AppData\Local\Temp\ccmlnG2o.s 			page 44


 1385              	.LCFI74:
 1386              		.cfi_def_cfa_register 13
 1387              		@ sp needed
 1388 00ce 5DF8047B 		ldr	r7, [sp], #4
 1389              	.LCFI75:
 1390              		.cfi_restore 7
 1391              		.cfi_def_cfa_offset 0
 1392 00d2 7047     		bx	lr
 1393              	.L60:
 1394              		.align	2
 1395              	.L59:
 1396 00d4 EF00FFFF 		.word	-65297
 1397              		.cfi_endproc
 1398              	.LFE154:
 1400              		.section	.text.HAL_DMA2D_CLUTLoad,"ax",%progbits
 1401              		.align	1
 1402              		.global	HAL_DMA2D_CLUTLoad
 1403              		.syntax unified
 1404              		.thumb
 1405              		.thumb_func
 1407              	HAL_DMA2D_CLUTLoad:
 1408              	.LFB155:
1087:Drivers/STM32F7xx_HAL_Driver/Src/stm32f7xx_hal_dma2d.c **** 
1088:Drivers/STM32F7xx_HAL_Driver/Src/stm32f7xx_hal_dma2d.c **** /**
1089:Drivers/STM32F7xx_HAL_Driver/Src/stm32f7xx_hal_dma2d.c ****   * @brief  Start DMA2D CLUT Loading.
1090:Drivers/STM32F7xx_HAL_Driver/Src/stm32f7xx_hal_dma2d.c ****   * @param  hdma2d   Pointer to a DMA2D_HandleTypeDef structure that contains
1091:Drivers/STM32F7xx_HAL_Driver/Src/stm32f7xx_hal_dma2d.c ****   *                   the configuration information for the DMA2D.
1092:Drivers/STM32F7xx_HAL_Driver/Src/stm32f7xx_hal_dma2d.c ****   * @param  CLUTCfg  Pointer to a DMA2D_CLUTCfgTypeDef structure that contains
1093:Drivers/STM32F7xx_HAL_Driver/Src/stm32f7xx_hal_dma2d.c ****   *                   the configuration information for the color look up table.
1094:Drivers/STM32F7xx_HAL_Driver/Src/stm32f7xx_hal_dma2d.c ****   * @param  LayerIdx DMA2D Layer index.
1095:Drivers/STM32F7xx_HAL_Driver/Src/stm32f7xx_hal_dma2d.c ****   *                   This parameter can be one of the following values:
1096:Drivers/STM32F7xx_HAL_Driver/Src/stm32f7xx_hal_dma2d.c ****   *                   DMA2D_BACKGROUND_LAYER(0) / DMA2D_FOREGROUND_LAYER(1)
1097:Drivers/STM32F7xx_HAL_Driver/Src/stm32f7xx_hal_dma2d.c ****   * @note API obsolete and maintained for compatibility with legacy. User is
1098:Drivers/STM32F7xx_HAL_Driver/Src/stm32f7xx_hal_dma2d.c ****   *      invited to resort to HAL_DMA2D_CLUTStartLoad() instead to benefit from
1099:Drivers/STM32F7xx_HAL_Driver/Src/stm32f7xx_hal_dma2d.c ****   *      code compactness, code size and improved heap usage.
1100:Drivers/STM32F7xx_HAL_Driver/Src/stm32f7xx_hal_dma2d.c ****   * @retval HAL status
1101:Drivers/STM32F7xx_HAL_Driver/Src/stm32f7xx_hal_dma2d.c ****   */
1102:Drivers/STM32F7xx_HAL_Driver/Src/stm32f7xx_hal_dma2d.c **** HAL_StatusTypeDef HAL_DMA2D_CLUTLoad(DMA2D_HandleTypeDef *hdma2d, DMA2D_CLUTCfgTypeDef CLUTCfg, uin
1103:Drivers/STM32F7xx_HAL_Driver/Src/stm32f7xx_hal_dma2d.c **** {
 1409              		.loc 1 1103 1
 1410              		.cfi_startproc
 1411              		@ args = 4, pretend = 0, frame = 16
 1412              		@ frame_needed = 1, uses_anonymous_args = 0
 1413              		@ link register save eliminated.
 1414 0000 80B4     		push	{r7}
 1415              	.LCFI76:
 1416              		.cfi_def_cfa_offset 4
 1417              		.cfi_offset 7, -4
 1418 0002 85B0     		sub	sp, sp, #20
 1419              	.LCFI77:
 1420              		.cfi_def_cfa_offset 24
 1421 0004 00AF     		add	r7, sp, #0
 1422              	.LCFI78:
 1423              		.cfi_def_cfa_register 7
 1424 0006 F860     		str	r0, [r7, #12]
 1425 0008 3846     		mov	r0, r7
 1426 000a 80E80E00 		stm	r0, {r1, r2, r3}
ARM GAS  C:\Users\jisu8\AppData\Local\Temp\ccmlnG2o.s 			page 45


1104:Drivers/STM32F7xx_HAL_Driver/Src/stm32f7xx_hal_dma2d.c ****   /* Check the parameters */
1105:Drivers/STM32F7xx_HAL_Driver/Src/stm32f7xx_hal_dma2d.c ****   assert_param(IS_DMA2D_LAYER(LayerIdx));
1106:Drivers/STM32F7xx_HAL_Driver/Src/stm32f7xx_hal_dma2d.c ****   assert_param(IS_DMA2D_CLUT_CM(CLUTCfg.CLUTColorMode));
1107:Drivers/STM32F7xx_HAL_Driver/Src/stm32f7xx_hal_dma2d.c ****   assert_param(IS_DMA2D_CLUT_SIZE(CLUTCfg.Size));
1108:Drivers/STM32F7xx_HAL_Driver/Src/stm32f7xx_hal_dma2d.c **** 
1109:Drivers/STM32F7xx_HAL_Driver/Src/stm32f7xx_hal_dma2d.c ****   /* Process locked */
1110:Drivers/STM32F7xx_HAL_Driver/Src/stm32f7xx_hal_dma2d.c ****   __HAL_LOCK(hdma2d);
 1427              		.loc 1 1110 3
 1428 000e FB68     		ldr	r3, [r7, #12]
 1429 0010 93F83830 		ldrb	r3, [r3, #56]	@ zero_extendqisi2
 1430 0014 012B     		cmp	r3, #1
 1431 0016 01D1     		bne	.L62
 1432              		.loc 1 1110 3 is_stmt 0 discriminator 1
 1433 0018 0223     		movs	r3, #2
 1434 001a 40E0     		b	.L63
 1435              	.L62:
 1436              		.loc 1 1110 3 discriminator 2
 1437 001c FB68     		ldr	r3, [r7, #12]
 1438 001e 0122     		movs	r2, #1
 1439 0020 83F83820 		strb	r2, [r3, #56]
1111:Drivers/STM32F7xx_HAL_Driver/Src/stm32f7xx_hal_dma2d.c **** 
1112:Drivers/STM32F7xx_HAL_Driver/Src/stm32f7xx_hal_dma2d.c ****   /* Change DMA2D peripheral state */
1113:Drivers/STM32F7xx_HAL_Driver/Src/stm32f7xx_hal_dma2d.c ****   hdma2d->State = HAL_DMA2D_STATE_BUSY;
 1440              		.loc 1 1113 17 is_stmt 1 discriminator 2
 1441 0024 FB68     		ldr	r3, [r7, #12]
 1442 0026 0222     		movs	r2, #2
 1443 0028 83F83920 		strb	r2, [r3, #57]
1114:Drivers/STM32F7xx_HAL_Driver/Src/stm32f7xx_hal_dma2d.c **** 
1115:Drivers/STM32F7xx_HAL_Driver/Src/stm32f7xx_hal_dma2d.c ****   /* Configure the CLUT of the background DMA2D layer */
1116:Drivers/STM32F7xx_HAL_Driver/Src/stm32f7xx_hal_dma2d.c ****   if (LayerIdx == DMA2D_BACKGROUND_LAYER)
 1444              		.loc 1 1116 6 discriminator 2
 1445 002c BB69     		ldr	r3, [r7, #24]
 1446 002e 002B     		cmp	r3, #0
 1447 0030 1AD1     		bne	.L64
1117:Drivers/STM32F7xx_HAL_Driver/Src/stm32f7xx_hal_dma2d.c ****   {
1118:Drivers/STM32F7xx_HAL_Driver/Src/stm32f7xx_hal_dma2d.c ****     /* Write background CLUT memory address */
1119:Drivers/STM32F7xx_HAL_Driver/Src/stm32f7xx_hal_dma2d.c ****     WRITE_REG(hdma2d->Instance->BGCMAR, (uint32_t)CLUTCfg.pCLUT);
 1448              		.loc 1 1119 5
 1449 0032 3A68     		ldr	r2, [r7]
 1450 0034 FB68     		ldr	r3, [r7, #12]
 1451 0036 1B68     		ldr	r3, [r3]
 1452 0038 1A63     		str	r2, [r3, #48]
1120:Drivers/STM32F7xx_HAL_Driver/Src/stm32f7xx_hal_dma2d.c **** 
1121:Drivers/STM32F7xx_HAL_Driver/Src/stm32f7xx_hal_dma2d.c ****     /* Write background CLUT size and CLUT color mode */
1122:Drivers/STM32F7xx_HAL_Driver/Src/stm32f7xx_hal_dma2d.c ****     MODIFY_REG(hdma2d->Instance->BGPFCCR, (DMA2D_BGPFCCR_CS | DMA2D_BGPFCCR_CCM),
 1453              		.loc 1 1122 5
 1454 003a FB68     		ldr	r3, [r7, #12]
 1455 003c 1B68     		ldr	r3, [r3]
 1456 003e 5A6A     		ldr	r2, [r3, #36]
 1457 0040 1A4B     		ldr	r3, .L66
 1458 0042 1340     		ands	r3, r3, r2
 1459 0044 BA68     		ldr	r2, [r7, #8]
 1460 0046 1102     		lsls	r1, r2, #8
 1461 0048 7A68     		ldr	r2, [r7, #4]
 1462 004a 1201     		lsls	r2, r2, #4
 1463 004c 1143     		orrs	r1, r1, r2
 1464 004e FA68     		ldr	r2, [r7, #12]
ARM GAS  C:\Users\jisu8\AppData\Local\Temp\ccmlnG2o.s 			page 46


 1465 0050 1268     		ldr	r2, [r2]
 1466 0052 0B43     		orrs	r3, r3, r1
 1467 0054 5362     		str	r3, [r2, #36]
1123:Drivers/STM32F7xx_HAL_Driver/Src/stm32f7xx_hal_dma2d.c ****                ((CLUTCfg.Size << DMA2D_BGPFCCR_CS_Pos) | (CLUTCfg.CLUTColorMode << DMA2D_BGPFCCR_CC
1124:Drivers/STM32F7xx_HAL_Driver/Src/stm32f7xx_hal_dma2d.c **** 
1125:Drivers/STM32F7xx_HAL_Driver/Src/stm32f7xx_hal_dma2d.c ****     /* Enable the CLUT loading for the background */
1126:Drivers/STM32F7xx_HAL_Driver/Src/stm32f7xx_hal_dma2d.c ****     SET_BIT(hdma2d->Instance->BGPFCCR, DMA2D_BGPFCCR_START);
 1468              		.loc 1 1126 5
 1469 0056 FB68     		ldr	r3, [r7, #12]
 1470 0058 1B68     		ldr	r3, [r3]
 1471 005a 5A6A     		ldr	r2, [r3, #36]
 1472 005c FB68     		ldr	r3, [r7, #12]
 1473 005e 1B68     		ldr	r3, [r3]
 1474 0060 42F02002 		orr	r2, r2, #32
 1475 0064 5A62     		str	r2, [r3, #36]
 1476 0066 19E0     		b	.L65
 1477              	.L64:
1127:Drivers/STM32F7xx_HAL_Driver/Src/stm32f7xx_hal_dma2d.c ****   }
1128:Drivers/STM32F7xx_HAL_Driver/Src/stm32f7xx_hal_dma2d.c ****   /* Configure the CLUT of the foreground DMA2D layer */
1129:Drivers/STM32F7xx_HAL_Driver/Src/stm32f7xx_hal_dma2d.c ****   else
1130:Drivers/STM32F7xx_HAL_Driver/Src/stm32f7xx_hal_dma2d.c ****   {
1131:Drivers/STM32F7xx_HAL_Driver/Src/stm32f7xx_hal_dma2d.c ****     /* Write foreground CLUT memory address */
1132:Drivers/STM32F7xx_HAL_Driver/Src/stm32f7xx_hal_dma2d.c ****     WRITE_REG(hdma2d->Instance->FGCMAR, (uint32_t)CLUTCfg.pCLUT);
 1478              		.loc 1 1132 5
 1479 0068 3A68     		ldr	r2, [r7]
 1480 006a FB68     		ldr	r3, [r7, #12]
 1481 006c 1B68     		ldr	r3, [r3]
 1482 006e DA62     		str	r2, [r3, #44]
1133:Drivers/STM32F7xx_HAL_Driver/Src/stm32f7xx_hal_dma2d.c **** 
1134:Drivers/STM32F7xx_HAL_Driver/Src/stm32f7xx_hal_dma2d.c ****     /* Write foreground CLUT size and CLUT color mode */
1135:Drivers/STM32F7xx_HAL_Driver/Src/stm32f7xx_hal_dma2d.c ****     MODIFY_REG(hdma2d->Instance->FGPFCCR, (DMA2D_FGPFCCR_CS | DMA2D_FGPFCCR_CCM),
 1483              		.loc 1 1135 5
 1484 0070 FB68     		ldr	r3, [r7, #12]
 1485 0072 1B68     		ldr	r3, [r3]
 1486 0074 DA69     		ldr	r2, [r3, #28]
 1487 0076 0D4B     		ldr	r3, .L66
 1488 0078 1340     		ands	r3, r3, r2
 1489 007a BA68     		ldr	r2, [r7, #8]
 1490 007c 1102     		lsls	r1, r2, #8
 1491 007e 7A68     		ldr	r2, [r7, #4]
 1492 0080 1201     		lsls	r2, r2, #4
 1493 0082 1143     		orrs	r1, r1, r2
 1494 0084 FA68     		ldr	r2, [r7, #12]
 1495 0086 1268     		ldr	r2, [r2]
 1496 0088 0B43     		orrs	r3, r3, r1
 1497 008a D361     		str	r3, [r2, #28]
1136:Drivers/STM32F7xx_HAL_Driver/Src/stm32f7xx_hal_dma2d.c ****                ((CLUTCfg.Size << DMA2D_FGPFCCR_CS_Pos) | (CLUTCfg.CLUTColorMode << DMA2D_FGPFCCR_CC
1137:Drivers/STM32F7xx_HAL_Driver/Src/stm32f7xx_hal_dma2d.c **** 
1138:Drivers/STM32F7xx_HAL_Driver/Src/stm32f7xx_hal_dma2d.c ****     /* Enable the CLUT loading for the foreground */
1139:Drivers/STM32F7xx_HAL_Driver/Src/stm32f7xx_hal_dma2d.c ****     SET_BIT(hdma2d->Instance->FGPFCCR, DMA2D_FGPFCCR_START);
 1498              		.loc 1 1139 5
 1499 008c FB68     		ldr	r3, [r7, #12]
 1500 008e 1B68     		ldr	r3, [r3]
 1501 0090 DA69     		ldr	r2, [r3, #28]
 1502 0092 FB68     		ldr	r3, [r7, #12]
 1503 0094 1B68     		ldr	r3, [r3]
 1504 0096 42F02002 		orr	r2, r2, #32
ARM GAS  C:\Users\jisu8\AppData\Local\Temp\ccmlnG2o.s 			page 47


 1505 009a DA61     		str	r2, [r3, #28]
 1506              	.L65:
1140:Drivers/STM32F7xx_HAL_Driver/Src/stm32f7xx_hal_dma2d.c ****   }
1141:Drivers/STM32F7xx_HAL_Driver/Src/stm32f7xx_hal_dma2d.c **** 
1142:Drivers/STM32F7xx_HAL_Driver/Src/stm32f7xx_hal_dma2d.c ****   return HAL_OK;
 1507              		.loc 1 1142 10
 1508 009c 0023     		movs	r3, #0
 1509              	.L63:
1143:Drivers/STM32F7xx_HAL_Driver/Src/stm32f7xx_hal_dma2d.c **** }
 1510              		.loc 1 1143 1
 1511 009e 1846     		mov	r0, r3
 1512 00a0 1437     		adds	r7, r7, #20
 1513              	.LCFI79:
 1514              		.cfi_def_cfa_offset 4
 1515 00a2 BD46     		mov	sp, r7
 1516              	.LCFI80:
 1517              		.cfi_def_cfa_register 13
 1518              		@ sp needed
 1519 00a4 5DF8047B 		ldr	r7, [sp], #4
 1520              	.LCFI81:
 1521              		.cfi_restore 7
 1522              		.cfi_def_cfa_offset 0
 1523 00a8 7047     		bx	lr
 1524              	.L67:
 1525 00aa 00BF     		.align	2
 1526              	.L66:
 1527 00ac EF00FFFF 		.word	-65297
 1528              		.cfi_endproc
 1529              	.LFE155:
 1531              		.section	.text.HAL_DMA2D_CLUTLoad_IT,"ax",%progbits
 1532              		.align	1
 1533              		.global	HAL_DMA2D_CLUTLoad_IT
 1534              		.syntax unified
 1535              		.thumb
 1536              		.thumb_func
 1538              	HAL_DMA2D_CLUTLoad_IT:
 1539              	.LFB156:
1144:Drivers/STM32F7xx_HAL_Driver/Src/stm32f7xx_hal_dma2d.c **** 
1145:Drivers/STM32F7xx_HAL_Driver/Src/stm32f7xx_hal_dma2d.c **** /**
1146:Drivers/STM32F7xx_HAL_Driver/Src/stm32f7xx_hal_dma2d.c ****   * @brief  Start DMA2D CLUT Loading with interrupt enabled.
1147:Drivers/STM32F7xx_HAL_Driver/Src/stm32f7xx_hal_dma2d.c ****   * @param  hdma2d   Pointer to a DMA2D_HandleTypeDef structure that contains
1148:Drivers/STM32F7xx_HAL_Driver/Src/stm32f7xx_hal_dma2d.c ****   *                   the configuration information for the DMA2D.
1149:Drivers/STM32F7xx_HAL_Driver/Src/stm32f7xx_hal_dma2d.c ****   * @param  CLUTCfg  Pointer to a DMA2D_CLUTCfgTypeDef structure that contains
1150:Drivers/STM32F7xx_HAL_Driver/Src/stm32f7xx_hal_dma2d.c ****   *                   the configuration information for the color look up table.
1151:Drivers/STM32F7xx_HAL_Driver/Src/stm32f7xx_hal_dma2d.c ****   * @param  LayerIdx DMA2D Layer index.
1152:Drivers/STM32F7xx_HAL_Driver/Src/stm32f7xx_hal_dma2d.c ****   *                   This parameter can be one of the following values:
1153:Drivers/STM32F7xx_HAL_Driver/Src/stm32f7xx_hal_dma2d.c ****   *                   DMA2D_BACKGROUND_LAYER(0) / DMA2D_FOREGROUND_LAYER(1)
1154:Drivers/STM32F7xx_HAL_Driver/Src/stm32f7xx_hal_dma2d.c ****   * @note API obsolete and maintained for compatibility with legacy. User is
1155:Drivers/STM32F7xx_HAL_Driver/Src/stm32f7xx_hal_dma2d.c ****   *      invited to resort to HAL_DMA2D_CLUTStartLoad_IT() instead to benefit
1156:Drivers/STM32F7xx_HAL_Driver/Src/stm32f7xx_hal_dma2d.c ****   *      from code compactness, code size and improved heap usage.
1157:Drivers/STM32F7xx_HAL_Driver/Src/stm32f7xx_hal_dma2d.c ****   * @retval HAL status
1158:Drivers/STM32F7xx_HAL_Driver/Src/stm32f7xx_hal_dma2d.c ****   */
1159:Drivers/STM32F7xx_HAL_Driver/Src/stm32f7xx_hal_dma2d.c **** HAL_StatusTypeDef HAL_DMA2D_CLUTLoad_IT(DMA2D_HandleTypeDef *hdma2d, DMA2D_CLUTCfgTypeDef CLUTCfg, 
1160:Drivers/STM32F7xx_HAL_Driver/Src/stm32f7xx_hal_dma2d.c **** {
 1540              		.loc 1 1160 1
 1541              		.cfi_startproc
 1542              		@ args = 4, pretend = 0, frame = 16
ARM GAS  C:\Users\jisu8\AppData\Local\Temp\ccmlnG2o.s 			page 48


 1543              		@ frame_needed = 1, uses_anonymous_args = 0
 1544              		@ link register save eliminated.
 1545 0000 80B4     		push	{r7}
 1546              	.LCFI82:
 1547              		.cfi_def_cfa_offset 4
 1548              		.cfi_offset 7, -4
 1549 0002 85B0     		sub	sp, sp, #20
 1550              	.LCFI83:
 1551              		.cfi_def_cfa_offset 24
 1552 0004 00AF     		add	r7, sp, #0
 1553              	.LCFI84:
 1554              		.cfi_def_cfa_register 7
 1555 0006 F860     		str	r0, [r7, #12]
 1556 0008 3846     		mov	r0, r7
 1557 000a 80E80E00 		stm	r0, {r1, r2, r3}
1161:Drivers/STM32F7xx_HAL_Driver/Src/stm32f7xx_hal_dma2d.c ****   /* Check the parameters */
1162:Drivers/STM32F7xx_HAL_Driver/Src/stm32f7xx_hal_dma2d.c ****   assert_param(IS_DMA2D_LAYER(LayerIdx));
1163:Drivers/STM32F7xx_HAL_Driver/Src/stm32f7xx_hal_dma2d.c ****   assert_param(IS_DMA2D_CLUT_CM(CLUTCfg.CLUTColorMode));
1164:Drivers/STM32F7xx_HAL_Driver/Src/stm32f7xx_hal_dma2d.c ****   assert_param(IS_DMA2D_CLUT_SIZE(CLUTCfg.Size));
1165:Drivers/STM32F7xx_HAL_Driver/Src/stm32f7xx_hal_dma2d.c **** 
1166:Drivers/STM32F7xx_HAL_Driver/Src/stm32f7xx_hal_dma2d.c ****   /* Process locked */
1167:Drivers/STM32F7xx_HAL_Driver/Src/stm32f7xx_hal_dma2d.c ****   __HAL_LOCK(hdma2d);
 1558              		.loc 1 1167 3
 1559 000e FB68     		ldr	r3, [r7, #12]
 1560 0010 93F83830 		ldrb	r3, [r3, #56]	@ zero_extendqisi2
 1561 0014 012B     		cmp	r3, #1
 1562 0016 01D1     		bne	.L69
 1563              		.loc 1 1167 3 is_stmt 0 discriminator 1
 1564 0018 0223     		movs	r3, #2
 1565 001a 50E0     		b	.L70
 1566              	.L69:
 1567              		.loc 1 1167 3 discriminator 2
 1568 001c FB68     		ldr	r3, [r7, #12]
 1569 001e 0122     		movs	r2, #1
 1570 0020 83F83820 		strb	r2, [r3, #56]
1168:Drivers/STM32F7xx_HAL_Driver/Src/stm32f7xx_hal_dma2d.c **** 
1169:Drivers/STM32F7xx_HAL_Driver/Src/stm32f7xx_hal_dma2d.c ****   /* Change DMA2D peripheral state */
1170:Drivers/STM32F7xx_HAL_Driver/Src/stm32f7xx_hal_dma2d.c ****   hdma2d->State = HAL_DMA2D_STATE_BUSY;
 1571              		.loc 1 1170 17 is_stmt 1 discriminator 2
 1572 0024 FB68     		ldr	r3, [r7, #12]
 1573 0026 0222     		movs	r2, #2
 1574 0028 83F83920 		strb	r2, [r3, #57]
1171:Drivers/STM32F7xx_HAL_Driver/Src/stm32f7xx_hal_dma2d.c **** 
1172:Drivers/STM32F7xx_HAL_Driver/Src/stm32f7xx_hal_dma2d.c ****   /* Configure the CLUT of the background DMA2D layer */
1173:Drivers/STM32F7xx_HAL_Driver/Src/stm32f7xx_hal_dma2d.c ****   if (LayerIdx == DMA2D_BACKGROUND_LAYER)
 1575              		.loc 1 1173 6 discriminator 2
 1576 002c BB69     		ldr	r3, [r7, #24]
 1577 002e 002B     		cmp	r3, #0
 1578 0030 22D1     		bne	.L71
1174:Drivers/STM32F7xx_HAL_Driver/Src/stm32f7xx_hal_dma2d.c ****   {
1175:Drivers/STM32F7xx_HAL_Driver/Src/stm32f7xx_hal_dma2d.c ****     /* Write background CLUT memory address */
1176:Drivers/STM32F7xx_HAL_Driver/Src/stm32f7xx_hal_dma2d.c ****     WRITE_REG(hdma2d->Instance->BGCMAR, (uint32_t)CLUTCfg.pCLUT);
 1579              		.loc 1 1176 5
 1580 0032 3A68     		ldr	r2, [r7]
 1581 0034 FB68     		ldr	r3, [r7, #12]
 1582 0036 1B68     		ldr	r3, [r3]
 1583 0038 1A63     		str	r2, [r3, #48]
ARM GAS  C:\Users\jisu8\AppData\Local\Temp\ccmlnG2o.s 			page 49


1177:Drivers/STM32F7xx_HAL_Driver/Src/stm32f7xx_hal_dma2d.c **** 
1178:Drivers/STM32F7xx_HAL_Driver/Src/stm32f7xx_hal_dma2d.c ****     /* Write background CLUT size and CLUT color mode */
1179:Drivers/STM32F7xx_HAL_Driver/Src/stm32f7xx_hal_dma2d.c ****     MODIFY_REG(hdma2d->Instance->BGPFCCR, (DMA2D_BGPFCCR_CS | DMA2D_BGPFCCR_CCM),
 1584              		.loc 1 1179 5
 1585 003a FB68     		ldr	r3, [r7, #12]
 1586 003c 1B68     		ldr	r3, [r3]
 1587 003e 5A6A     		ldr	r2, [r3, #36]
 1588 0040 224B     		ldr	r3, .L73
 1589 0042 1340     		ands	r3, r3, r2
 1590 0044 BA68     		ldr	r2, [r7, #8]
 1591 0046 1102     		lsls	r1, r2, #8
 1592 0048 7A68     		ldr	r2, [r7, #4]
 1593 004a 1201     		lsls	r2, r2, #4
 1594 004c 1143     		orrs	r1, r1, r2
 1595 004e FA68     		ldr	r2, [r7, #12]
 1596 0050 1268     		ldr	r2, [r2]
 1597 0052 0B43     		orrs	r3, r3, r1
 1598 0054 5362     		str	r3, [r2, #36]
1180:Drivers/STM32F7xx_HAL_Driver/Src/stm32f7xx_hal_dma2d.c ****                ((CLUTCfg.Size << DMA2D_BGPFCCR_CS_Pos) | (CLUTCfg.CLUTColorMode << DMA2D_BGPFCCR_CC
1181:Drivers/STM32F7xx_HAL_Driver/Src/stm32f7xx_hal_dma2d.c **** 
1182:Drivers/STM32F7xx_HAL_Driver/Src/stm32f7xx_hal_dma2d.c ****     /* Enable the CLUT Transfer Complete, transfer Error, configuration Error and CLUT Access Error
1183:Drivers/STM32F7xx_HAL_Driver/Src/stm32f7xx_hal_dma2d.c ****     __HAL_DMA2D_ENABLE_IT(hdma2d, DMA2D_IT_CTC | DMA2D_IT_TE | DMA2D_IT_CE | DMA2D_IT_CAE);
 1599              		.loc 1 1183 5
 1600 0056 FB68     		ldr	r3, [r7, #12]
 1601 0058 1B68     		ldr	r3, [r3]
 1602 005a 1A68     		ldr	r2, [r3]
 1603 005c FB68     		ldr	r3, [r7, #12]
 1604 005e 1B68     		ldr	r3, [r3]
 1605 0060 42F46452 		orr	r2, r2, #14592
 1606 0064 1A60     		str	r2, [r3]
1184:Drivers/STM32F7xx_HAL_Driver/Src/stm32f7xx_hal_dma2d.c **** 
1185:Drivers/STM32F7xx_HAL_Driver/Src/stm32f7xx_hal_dma2d.c ****     /* Enable the CLUT loading for the background */
1186:Drivers/STM32F7xx_HAL_Driver/Src/stm32f7xx_hal_dma2d.c ****     SET_BIT(hdma2d->Instance->BGPFCCR, DMA2D_BGPFCCR_START);
 1607              		.loc 1 1186 5
 1608 0066 FB68     		ldr	r3, [r7, #12]
 1609 0068 1B68     		ldr	r3, [r3]
 1610 006a 5A6A     		ldr	r2, [r3, #36]
 1611 006c FB68     		ldr	r3, [r7, #12]
 1612 006e 1B68     		ldr	r3, [r3]
 1613 0070 42F02002 		orr	r2, r2, #32
 1614 0074 5A62     		str	r2, [r3, #36]
 1615 0076 21E0     		b	.L72
 1616              	.L71:
1187:Drivers/STM32F7xx_HAL_Driver/Src/stm32f7xx_hal_dma2d.c ****   }
1188:Drivers/STM32F7xx_HAL_Driver/Src/stm32f7xx_hal_dma2d.c ****   /* Configure the CLUT of the foreground DMA2D layer */
1189:Drivers/STM32F7xx_HAL_Driver/Src/stm32f7xx_hal_dma2d.c ****   else
1190:Drivers/STM32F7xx_HAL_Driver/Src/stm32f7xx_hal_dma2d.c ****   {
1191:Drivers/STM32F7xx_HAL_Driver/Src/stm32f7xx_hal_dma2d.c ****     /* Write foreground CLUT memory address */
1192:Drivers/STM32F7xx_HAL_Driver/Src/stm32f7xx_hal_dma2d.c ****     WRITE_REG(hdma2d->Instance->FGCMAR, (uint32_t)CLUTCfg.pCLUT);
 1617              		.loc 1 1192 5
 1618 0078 3A68     		ldr	r2, [r7]
 1619 007a FB68     		ldr	r3, [r7, #12]
 1620 007c 1B68     		ldr	r3, [r3]
 1621 007e DA62     		str	r2, [r3, #44]
1193:Drivers/STM32F7xx_HAL_Driver/Src/stm32f7xx_hal_dma2d.c **** 
1194:Drivers/STM32F7xx_HAL_Driver/Src/stm32f7xx_hal_dma2d.c ****     /* Write foreground CLUT size and CLUT color mode */
1195:Drivers/STM32F7xx_HAL_Driver/Src/stm32f7xx_hal_dma2d.c ****     MODIFY_REG(hdma2d->Instance->FGPFCCR, (DMA2D_FGPFCCR_CS | DMA2D_FGPFCCR_CCM),
ARM GAS  C:\Users\jisu8\AppData\Local\Temp\ccmlnG2o.s 			page 50


 1622              		.loc 1 1195 5
 1623 0080 FB68     		ldr	r3, [r7, #12]
 1624 0082 1B68     		ldr	r3, [r3]
 1625 0084 DA69     		ldr	r2, [r3, #28]
 1626 0086 114B     		ldr	r3, .L73
 1627 0088 1340     		ands	r3, r3, r2
 1628 008a BA68     		ldr	r2, [r7, #8]
 1629 008c 1102     		lsls	r1, r2, #8
 1630 008e 7A68     		ldr	r2, [r7, #4]
 1631 0090 1201     		lsls	r2, r2, #4
 1632 0092 1143     		orrs	r1, r1, r2
 1633 0094 FA68     		ldr	r2, [r7, #12]
 1634 0096 1268     		ldr	r2, [r2]
 1635 0098 0B43     		orrs	r3, r3, r1
 1636 009a D361     		str	r3, [r2, #28]
1196:Drivers/STM32F7xx_HAL_Driver/Src/stm32f7xx_hal_dma2d.c ****                ((CLUTCfg.Size << DMA2D_FGPFCCR_CS_Pos) | (CLUTCfg.CLUTColorMode << DMA2D_FGPFCCR_CC
1197:Drivers/STM32F7xx_HAL_Driver/Src/stm32f7xx_hal_dma2d.c **** 
1198:Drivers/STM32F7xx_HAL_Driver/Src/stm32f7xx_hal_dma2d.c ****     /* Enable the CLUT Transfer Complete, transfer Error, configuration Error and CLUT Access Error
1199:Drivers/STM32F7xx_HAL_Driver/Src/stm32f7xx_hal_dma2d.c ****     __HAL_DMA2D_ENABLE_IT(hdma2d, DMA2D_IT_CTC | DMA2D_IT_TE | DMA2D_IT_CE | DMA2D_IT_CAE);
 1637              		.loc 1 1199 5
 1638 009c FB68     		ldr	r3, [r7, #12]
 1639 009e 1B68     		ldr	r3, [r3]
 1640 00a0 1A68     		ldr	r2, [r3]
 1641 00a2 FB68     		ldr	r3, [r7, #12]
 1642 00a4 1B68     		ldr	r3, [r3]
 1643 00a6 42F46452 		orr	r2, r2, #14592
 1644 00aa 1A60     		str	r2, [r3]
1200:Drivers/STM32F7xx_HAL_Driver/Src/stm32f7xx_hal_dma2d.c **** 
1201:Drivers/STM32F7xx_HAL_Driver/Src/stm32f7xx_hal_dma2d.c ****     /* Enable the CLUT loading for the foreground */
1202:Drivers/STM32F7xx_HAL_Driver/Src/stm32f7xx_hal_dma2d.c ****     SET_BIT(hdma2d->Instance->FGPFCCR, DMA2D_FGPFCCR_START);
 1645              		.loc 1 1202 5
 1646 00ac FB68     		ldr	r3, [r7, #12]
 1647 00ae 1B68     		ldr	r3, [r3]
 1648 00b0 DA69     		ldr	r2, [r3, #28]
 1649 00b2 FB68     		ldr	r3, [r7, #12]
 1650 00b4 1B68     		ldr	r3, [r3]
 1651 00b6 42F02002 		orr	r2, r2, #32
 1652 00ba DA61     		str	r2, [r3, #28]
 1653              	.L72:
1203:Drivers/STM32F7xx_HAL_Driver/Src/stm32f7xx_hal_dma2d.c ****   }
1204:Drivers/STM32F7xx_HAL_Driver/Src/stm32f7xx_hal_dma2d.c **** 
1205:Drivers/STM32F7xx_HAL_Driver/Src/stm32f7xx_hal_dma2d.c ****   return HAL_OK;
 1654              		.loc 1 1205 10
 1655 00bc 0023     		movs	r3, #0
 1656              	.L70:
1206:Drivers/STM32F7xx_HAL_Driver/Src/stm32f7xx_hal_dma2d.c **** }
 1657              		.loc 1 1206 1
 1658 00be 1846     		mov	r0, r3
 1659 00c0 1437     		adds	r7, r7, #20
 1660              	.LCFI85:
 1661              		.cfi_def_cfa_offset 4
 1662 00c2 BD46     		mov	sp, r7
 1663              	.LCFI86:
 1664              		.cfi_def_cfa_register 13
 1665              		@ sp needed
 1666 00c4 5DF8047B 		ldr	r7, [sp], #4
 1667              	.LCFI87:
ARM GAS  C:\Users\jisu8\AppData\Local\Temp\ccmlnG2o.s 			page 51


 1668              		.cfi_restore 7
 1669              		.cfi_def_cfa_offset 0
 1670 00c8 7047     		bx	lr
 1671              	.L74:
 1672 00ca 00BF     		.align	2
 1673              	.L73:
 1674 00cc EF00FFFF 		.word	-65297
 1675              		.cfi_endproc
 1676              	.LFE156:
 1678              		.section	.text.HAL_DMA2D_CLUTLoading_Abort,"ax",%progbits
 1679              		.align	1
 1680              		.global	HAL_DMA2D_CLUTLoading_Abort
 1681              		.syntax unified
 1682              		.thumb
 1683              		.thumb_func
 1685              	HAL_DMA2D_CLUTLoading_Abort:
 1686              	.LFB157:
1207:Drivers/STM32F7xx_HAL_Driver/Src/stm32f7xx_hal_dma2d.c **** 
1208:Drivers/STM32F7xx_HAL_Driver/Src/stm32f7xx_hal_dma2d.c **** /**
1209:Drivers/STM32F7xx_HAL_Driver/Src/stm32f7xx_hal_dma2d.c ****   * @brief  Abort the DMA2D CLUT loading.
1210:Drivers/STM32F7xx_HAL_Driver/Src/stm32f7xx_hal_dma2d.c ****   * @param  hdma2d  Pointer to a DMA2D_HandleTypeDef structure that contains
1211:Drivers/STM32F7xx_HAL_Driver/Src/stm32f7xx_hal_dma2d.c ****   *                  the configuration information for the DMA2D.
1212:Drivers/STM32F7xx_HAL_Driver/Src/stm32f7xx_hal_dma2d.c ****   * @param  LayerIdx DMA2D Layer index.
1213:Drivers/STM32F7xx_HAL_Driver/Src/stm32f7xx_hal_dma2d.c ****   *                   This parameter can be one of the following values:
1214:Drivers/STM32F7xx_HAL_Driver/Src/stm32f7xx_hal_dma2d.c ****   *                   DMA2D_BACKGROUND_LAYER(0) / DMA2D_FOREGROUND_LAYER(1)
1215:Drivers/STM32F7xx_HAL_Driver/Src/stm32f7xx_hal_dma2d.c ****   * @retval HAL status
1216:Drivers/STM32F7xx_HAL_Driver/Src/stm32f7xx_hal_dma2d.c ****   */
1217:Drivers/STM32F7xx_HAL_Driver/Src/stm32f7xx_hal_dma2d.c **** HAL_StatusTypeDef HAL_DMA2D_CLUTLoading_Abort(DMA2D_HandleTypeDef *hdma2d, uint32_t LayerIdx)
1218:Drivers/STM32F7xx_HAL_Driver/Src/stm32f7xx_hal_dma2d.c **** {
 1687              		.loc 1 1218 1
 1688              		.cfi_startproc
 1689              		@ args = 0, pretend = 0, frame = 16
 1690              		@ frame_needed = 1, uses_anonymous_args = 0
 1691 0000 80B5     		push	{r7, lr}
 1692              	.LCFI88:
 1693              		.cfi_def_cfa_offset 8
 1694              		.cfi_offset 7, -8
 1695              		.cfi_offset 14, -4
 1696 0002 84B0     		sub	sp, sp, #16
 1697              	.LCFI89:
 1698              		.cfi_def_cfa_offset 24
 1699 0004 00AF     		add	r7, sp, #0
 1700              	.LCFI90:
 1701              		.cfi_def_cfa_register 7
 1702 0006 7860     		str	r0, [r7, #4]
 1703 0008 3960     		str	r1, [r7]
1219:Drivers/STM32F7xx_HAL_Driver/Src/stm32f7xx_hal_dma2d.c ****   uint32_t tickstart;
1220:Drivers/STM32F7xx_HAL_Driver/Src/stm32f7xx_hal_dma2d.c ****   const __IO uint32_t *reg =  &(hdma2d->Instance->BGPFCCR);  /* by default, point at background reg
 1704              		.loc 1 1220 39
 1705 000a 7B68     		ldr	r3, [r7, #4]
 1706 000c 1B68     		ldr	r3, [r3]
 1707              		.loc 1 1220 24
 1708 000e 2433     		adds	r3, r3, #36
 1709 0010 FB60     		str	r3, [r7, #12]
1221:Drivers/STM32F7xx_HAL_Driver/Src/stm32f7xx_hal_dma2d.c **** 
1222:Drivers/STM32F7xx_HAL_Driver/Src/stm32f7xx_hal_dma2d.c ****   /* Abort the CLUT loading */
1223:Drivers/STM32F7xx_HAL_Driver/Src/stm32f7xx_hal_dma2d.c ****   SET_BIT(hdma2d->Instance->CR, DMA2D_CR_ABORT);
ARM GAS  C:\Users\jisu8\AppData\Local\Temp\ccmlnG2o.s 			page 52


 1710              		.loc 1 1223 3
 1711 0012 7B68     		ldr	r3, [r7, #4]
 1712 0014 1B68     		ldr	r3, [r3]
 1713 0016 1A68     		ldr	r2, [r3]
 1714 0018 7B68     		ldr	r3, [r7, #4]
 1715 001a 1B68     		ldr	r3, [r3]
 1716 001c 42F00402 		orr	r2, r2, #4
 1717 0020 1A60     		str	r2, [r3]
1224:Drivers/STM32F7xx_HAL_Driver/Src/stm32f7xx_hal_dma2d.c **** 
1225:Drivers/STM32F7xx_HAL_Driver/Src/stm32f7xx_hal_dma2d.c ****   /* If foreground CLUT loading is considered, update local variables */
1226:Drivers/STM32F7xx_HAL_Driver/Src/stm32f7xx_hal_dma2d.c ****   if (LayerIdx == DMA2D_FOREGROUND_LAYER)
 1718              		.loc 1 1226 6
 1719 0022 3B68     		ldr	r3, [r7]
 1720 0024 012B     		cmp	r3, #1
 1721 0026 03D1     		bne	.L76
1227:Drivers/STM32F7xx_HAL_Driver/Src/stm32f7xx_hal_dma2d.c ****   {
1228:Drivers/STM32F7xx_HAL_Driver/Src/stm32f7xx_hal_dma2d.c ****     reg  = &(hdma2d->Instance->FGPFCCR);
 1722              		.loc 1 1228 20
 1723 0028 7B68     		ldr	r3, [r7, #4]
 1724 002a 1B68     		ldr	r3, [r3]
 1725              		.loc 1 1228 10
 1726 002c 1C33     		adds	r3, r3, #28
 1727 002e FB60     		str	r3, [r7, #12]
 1728              	.L76:
1229:Drivers/STM32F7xx_HAL_Driver/Src/stm32f7xx_hal_dma2d.c ****   }
1230:Drivers/STM32F7xx_HAL_Driver/Src/stm32f7xx_hal_dma2d.c **** 
1231:Drivers/STM32F7xx_HAL_Driver/Src/stm32f7xx_hal_dma2d.c **** 
1232:Drivers/STM32F7xx_HAL_Driver/Src/stm32f7xx_hal_dma2d.c ****   /* Get tick */
1233:Drivers/STM32F7xx_HAL_Driver/Src/stm32f7xx_hal_dma2d.c ****   tickstart = HAL_GetTick();
 1729              		.loc 1 1233 15
 1730 0030 FFF7FEFF 		bl	HAL_GetTick
 1731 0034 B860     		str	r0, [r7, #8]
1234:Drivers/STM32F7xx_HAL_Driver/Src/stm32f7xx_hal_dma2d.c **** 
1235:Drivers/STM32F7xx_HAL_Driver/Src/stm32f7xx_hal_dma2d.c ****   /* Check if the CLUT loading is aborted */
1236:Drivers/STM32F7xx_HAL_Driver/Src/stm32f7xx_hal_dma2d.c ****   while ((*reg & DMA2D_BGPFCCR_START) != 0U)
 1732              		.loc 1 1236 9
 1733 0036 17E0     		b	.L77
 1734              	.L79:
1237:Drivers/STM32F7xx_HAL_Driver/Src/stm32f7xx_hal_dma2d.c ****   {
1238:Drivers/STM32F7xx_HAL_Driver/Src/stm32f7xx_hal_dma2d.c ****     if ((HAL_GetTick() - tickstart) > DMA2D_TIMEOUT_ABORT)
 1735              		.loc 1 1238 10
 1736 0038 FFF7FEFF 		bl	HAL_GetTick
 1737 003c 0246     		mov	r2, r0
 1738              		.loc 1 1238 24
 1739 003e BB68     		ldr	r3, [r7, #8]
 1740 0040 D31A     		subs	r3, r2, r3
 1741              		.loc 1 1238 8
 1742 0042 B3F57A7F 		cmp	r3, #1000
 1743 0046 0FD9     		bls	.L77
1239:Drivers/STM32F7xx_HAL_Driver/Src/stm32f7xx_hal_dma2d.c ****     {
1240:Drivers/STM32F7xx_HAL_Driver/Src/stm32f7xx_hal_dma2d.c ****       /* Update error code */
1241:Drivers/STM32F7xx_HAL_Driver/Src/stm32f7xx_hal_dma2d.c ****       hdma2d->ErrorCode |= HAL_DMA2D_ERROR_TIMEOUT;
 1744              		.loc 1 1241 25
 1745 0048 7B68     		ldr	r3, [r7, #4]
 1746 004a DB6B     		ldr	r3, [r3, #60]
 1747 004c 43F02002 		orr	r2, r3, #32
 1748 0050 7B68     		ldr	r3, [r7, #4]
ARM GAS  C:\Users\jisu8\AppData\Local\Temp\ccmlnG2o.s 			page 53


 1749 0052 DA63     		str	r2, [r3, #60]
1242:Drivers/STM32F7xx_HAL_Driver/Src/stm32f7xx_hal_dma2d.c **** 
1243:Drivers/STM32F7xx_HAL_Driver/Src/stm32f7xx_hal_dma2d.c ****       /* Change the DMA2D state */
1244:Drivers/STM32F7xx_HAL_Driver/Src/stm32f7xx_hal_dma2d.c ****       hdma2d->State = HAL_DMA2D_STATE_TIMEOUT;
 1750              		.loc 1 1244 21
 1751 0054 7B68     		ldr	r3, [r7, #4]
 1752 0056 0322     		movs	r2, #3
 1753 0058 83F83920 		strb	r2, [r3, #57]
1245:Drivers/STM32F7xx_HAL_Driver/Src/stm32f7xx_hal_dma2d.c **** 
1246:Drivers/STM32F7xx_HAL_Driver/Src/stm32f7xx_hal_dma2d.c ****       /* Process Unlocked */
1247:Drivers/STM32F7xx_HAL_Driver/Src/stm32f7xx_hal_dma2d.c ****       __HAL_UNLOCK(hdma2d);
 1754              		.loc 1 1247 7
 1755 005c 7B68     		ldr	r3, [r7, #4]
 1756 005e 0022     		movs	r2, #0
 1757 0060 83F83820 		strb	r2, [r3, #56]
1248:Drivers/STM32F7xx_HAL_Driver/Src/stm32f7xx_hal_dma2d.c **** 
1249:Drivers/STM32F7xx_HAL_Driver/Src/stm32f7xx_hal_dma2d.c ****       return HAL_TIMEOUT;
 1758              		.loc 1 1249 14
 1759 0064 0323     		movs	r3, #3
 1760 0066 16E0     		b	.L78
 1761              	.L77:
1236:Drivers/STM32F7xx_HAL_Driver/Src/stm32f7xx_hal_dma2d.c ****   {
 1762              		.loc 1 1236 11
 1763 0068 FB68     		ldr	r3, [r7, #12]
 1764 006a 1B68     		ldr	r3, [r3]
1236:Drivers/STM32F7xx_HAL_Driver/Src/stm32f7xx_hal_dma2d.c ****   {
 1765              		.loc 1 1236 16
 1766 006c 03F02003 		and	r3, r3, #32
1236:Drivers/STM32F7xx_HAL_Driver/Src/stm32f7xx_hal_dma2d.c ****   {
 1767              		.loc 1 1236 9
 1768 0070 002B     		cmp	r3, #0
 1769 0072 E1D1     		bne	.L79
1250:Drivers/STM32F7xx_HAL_Driver/Src/stm32f7xx_hal_dma2d.c ****     }
1251:Drivers/STM32F7xx_HAL_Driver/Src/stm32f7xx_hal_dma2d.c ****   }
1252:Drivers/STM32F7xx_HAL_Driver/Src/stm32f7xx_hal_dma2d.c **** 
1253:Drivers/STM32F7xx_HAL_Driver/Src/stm32f7xx_hal_dma2d.c ****   /* Disable the CLUT Transfer Complete, Transfer Error, Configuration Error and CLUT Access Error 
1254:Drivers/STM32F7xx_HAL_Driver/Src/stm32f7xx_hal_dma2d.c ****   __HAL_DMA2D_DISABLE_IT(hdma2d, DMA2D_IT_CTC | DMA2D_IT_TE | DMA2D_IT_CE | DMA2D_IT_CAE);
 1770              		.loc 1 1254 3
 1771 0074 7B68     		ldr	r3, [r7, #4]
 1772 0076 1B68     		ldr	r3, [r3]
 1773 0078 1A68     		ldr	r2, [r3]
 1774 007a 7B68     		ldr	r3, [r7, #4]
 1775 007c 1B68     		ldr	r3, [r3]
 1776 007e 22F46452 		bic	r2, r2, #14592
 1777 0082 1A60     		str	r2, [r3]
1255:Drivers/STM32F7xx_HAL_Driver/Src/stm32f7xx_hal_dma2d.c **** 
1256:Drivers/STM32F7xx_HAL_Driver/Src/stm32f7xx_hal_dma2d.c ****   /* Change the DMA2D state*/
1257:Drivers/STM32F7xx_HAL_Driver/Src/stm32f7xx_hal_dma2d.c ****   hdma2d->State = HAL_DMA2D_STATE_READY;
 1778              		.loc 1 1257 17
 1779 0084 7B68     		ldr	r3, [r7, #4]
 1780 0086 0122     		movs	r2, #1
 1781 0088 83F83920 		strb	r2, [r3, #57]
1258:Drivers/STM32F7xx_HAL_Driver/Src/stm32f7xx_hal_dma2d.c **** 
1259:Drivers/STM32F7xx_HAL_Driver/Src/stm32f7xx_hal_dma2d.c ****   /* Process Unlocked */
1260:Drivers/STM32F7xx_HAL_Driver/Src/stm32f7xx_hal_dma2d.c ****   __HAL_UNLOCK(hdma2d);
 1782              		.loc 1 1260 3
 1783 008c 7B68     		ldr	r3, [r7, #4]
ARM GAS  C:\Users\jisu8\AppData\Local\Temp\ccmlnG2o.s 			page 54


 1784 008e 0022     		movs	r2, #0
 1785 0090 83F83820 		strb	r2, [r3, #56]
1261:Drivers/STM32F7xx_HAL_Driver/Src/stm32f7xx_hal_dma2d.c **** 
1262:Drivers/STM32F7xx_HAL_Driver/Src/stm32f7xx_hal_dma2d.c ****   return HAL_OK;
 1786              		.loc 1 1262 10
 1787 0094 0023     		movs	r3, #0
 1788              	.L78:
1263:Drivers/STM32F7xx_HAL_Driver/Src/stm32f7xx_hal_dma2d.c **** }
 1789              		.loc 1 1263 1
 1790 0096 1846     		mov	r0, r3
 1791 0098 1037     		adds	r7, r7, #16
 1792              	.LCFI91:
 1793              		.cfi_def_cfa_offset 8
 1794 009a BD46     		mov	sp, r7
 1795              	.LCFI92:
 1796              		.cfi_def_cfa_register 13
 1797              		@ sp needed
 1798 009c 80BD     		pop	{r7, pc}
 1799              		.cfi_endproc
 1800              	.LFE157:
 1802              		.section	.text.HAL_DMA2D_CLUTLoading_Suspend,"ax",%progbits
 1803              		.align	1
 1804              		.global	HAL_DMA2D_CLUTLoading_Suspend
 1805              		.syntax unified
 1806              		.thumb
 1807              		.thumb_func
 1809              	HAL_DMA2D_CLUTLoading_Suspend:
 1810              	.LFB158:
1264:Drivers/STM32F7xx_HAL_Driver/Src/stm32f7xx_hal_dma2d.c **** 
1265:Drivers/STM32F7xx_HAL_Driver/Src/stm32f7xx_hal_dma2d.c **** /**
1266:Drivers/STM32F7xx_HAL_Driver/Src/stm32f7xx_hal_dma2d.c ****   * @brief  Suspend the DMA2D CLUT loading.
1267:Drivers/STM32F7xx_HAL_Driver/Src/stm32f7xx_hal_dma2d.c ****   * @param  hdma2d Pointer to a DMA2D_HandleTypeDef structure that contains
1268:Drivers/STM32F7xx_HAL_Driver/Src/stm32f7xx_hal_dma2d.c ****   *                 the configuration information for the DMA2D.
1269:Drivers/STM32F7xx_HAL_Driver/Src/stm32f7xx_hal_dma2d.c ****   * @param  LayerIdx DMA2D Layer index.
1270:Drivers/STM32F7xx_HAL_Driver/Src/stm32f7xx_hal_dma2d.c ****   *                   This parameter can be one of the following values:
1271:Drivers/STM32F7xx_HAL_Driver/Src/stm32f7xx_hal_dma2d.c ****   *                   DMA2D_BACKGROUND_LAYER(0) / DMA2D_FOREGROUND_LAYER(1)
1272:Drivers/STM32F7xx_HAL_Driver/Src/stm32f7xx_hal_dma2d.c ****   * @retval HAL status
1273:Drivers/STM32F7xx_HAL_Driver/Src/stm32f7xx_hal_dma2d.c ****   */
1274:Drivers/STM32F7xx_HAL_Driver/Src/stm32f7xx_hal_dma2d.c **** HAL_StatusTypeDef HAL_DMA2D_CLUTLoading_Suspend(DMA2D_HandleTypeDef *hdma2d, uint32_t LayerIdx)
1275:Drivers/STM32F7xx_HAL_Driver/Src/stm32f7xx_hal_dma2d.c **** {
 1811              		.loc 1 1275 1
 1812              		.cfi_startproc
 1813              		@ args = 0, pretend = 0, frame = 24
 1814              		@ frame_needed = 1, uses_anonymous_args = 0
 1815 0000 80B5     		push	{r7, lr}
 1816              	.LCFI93:
 1817              		.cfi_def_cfa_offset 8
 1818              		.cfi_offset 7, -8
 1819              		.cfi_offset 14, -4
 1820 0002 86B0     		sub	sp, sp, #24
 1821              	.LCFI94:
 1822              		.cfi_def_cfa_offset 32
 1823 0004 00AF     		add	r7, sp, #0
 1824              	.LCFI95:
 1825              		.cfi_def_cfa_register 7
 1826 0006 7860     		str	r0, [r7, #4]
 1827 0008 3960     		str	r1, [r7]
ARM GAS  C:\Users\jisu8\AppData\Local\Temp\ccmlnG2o.s 			page 55


1276:Drivers/STM32F7xx_HAL_Driver/Src/stm32f7xx_hal_dma2d.c ****   uint32_t tickstart;
1277:Drivers/STM32F7xx_HAL_Driver/Src/stm32f7xx_hal_dma2d.c ****   uint32_t loadsuspended;
1278:Drivers/STM32F7xx_HAL_Driver/Src/stm32f7xx_hal_dma2d.c ****   const __IO uint32_t *reg =  &(hdma2d->Instance->BGPFCCR);  /* by default, point at background reg
 1828              		.loc 1 1278 39
 1829 000a 7B68     		ldr	r3, [r7, #4]
 1830 000c 1B68     		ldr	r3, [r3]
 1831              		.loc 1 1278 24
 1832 000e 2433     		adds	r3, r3, #36
 1833 0010 3B61     		str	r3, [r7, #16]
1279:Drivers/STM32F7xx_HAL_Driver/Src/stm32f7xx_hal_dma2d.c **** 
1280:Drivers/STM32F7xx_HAL_Driver/Src/stm32f7xx_hal_dma2d.c ****   /* Suspend the CLUT loading */
1281:Drivers/STM32F7xx_HAL_Driver/Src/stm32f7xx_hal_dma2d.c ****   SET_BIT(hdma2d->Instance->CR, DMA2D_CR_SUSP);
 1834              		.loc 1 1281 3
 1835 0012 7B68     		ldr	r3, [r7, #4]
 1836 0014 1B68     		ldr	r3, [r3]
 1837 0016 1A68     		ldr	r2, [r3]
 1838 0018 7B68     		ldr	r3, [r7, #4]
 1839 001a 1B68     		ldr	r3, [r3]
 1840 001c 42F00202 		orr	r2, r2, #2
 1841 0020 1A60     		str	r2, [r3]
1282:Drivers/STM32F7xx_HAL_Driver/Src/stm32f7xx_hal_dma2d.c **** 
1283:Drivers/STM32F7xx_HAL_Driver/Src/stm32f7xx_hal_dma2d.c ****   /* If foreground CLUT loading is considered, update local variables */
1284:Drivers/STM32F7xx_HAL_Driver/Src/stm32f7xx_hal_dma2d.c ****   if (LayerIdx == DMA2D_FOREGROUND_LAYER)
 1842              		.loc 1 1284 6
 1843 0022 3B68     		ldr	r3, [r7]
 1844 0024 012B     		cmp	r3, #1
 1845 0026 03D1     		bne	.L81
1285:Drivers/STM32F7xx_HAL_Driver/Src/stm32f7xx_hal_dma2d.c ****   {
1286:Drivers/STM32F7xx_HAL_Driver/Src/stm32f7xx_hal_dma2d.c ****     reg  = &(hdma2d->Instance->FGPFCCR);
 1846              		.loc 1 1286 20
 1847 0028 7B68     		ldr	r3, [r7, #4]
 1848 002a 1B68     		ldr	r3, [r3]
 1849              		.loc 1 1286 10
 1850 002c 1C33     		adds	r3, r3, #28
 1851 002e 3B61     		str	r3, [r7, #16]
 1852              	.L81:
1287:Drivers/STM32F7xx_HAL_Driver/Src/stm32f7xx_hal_dma2d.c ****   }
1288:Drivers/STM32F7xx_HAL_Driver/Src/stm32f7xx_hal_dma2d.c **** 
1289:Drivers/STM32F7xx_HAL_Driver/Src/stm32f7xx_hal_dma2d.c ****   /* Get tick */
1290:Drivers/STM32F7xx_HAL_Driver/Src/stm32f7xx_hal_dma2d.c ****   tickstart = HAL_GetTick();
 1853              		.loc 1 1290 15
 1854 0030 FFF7FEFF 		bl	HAL_GetTick
 1855 0034 F860     		str	r0, [r7, #12]
1291:Drivers/STM32F7xx_HAL_Driver/Src/stm32f7xx_hal_dma2d.c **** 
1292:Drivers/STM32F7xx_HAL_Driver/Src/stm32f7xx_hal_dma2d.c ****   /* Check if the CLUT loading is suspended */
1293:Drivers/STM32F7xx_HAL_Driver/Src/stm32f7xx_hal_dma2d.c ****   /* 1st condition: Suspend Check */
1294:Drivers/STM32F7xx_HAL_Driver/Src/stm32f7xx_hal_dma2d.c ****   loadsuspended = ((hdma2d->Instance->CR & DMA2D_CR_SUSP) == DMA2D_CR_SUSP) ? 1UL : 0UL;
 1856              		.loc 1 1294 27
 1857 0036 7B68     		ldr	r3, [r7, #4]
 1858 0038 1B68     		ldr	r3, [r3]
 1859              		.loc 1 1294 37
 1860 003a 1B68     		ldr	r3, [r3]
 1861              		.loc 1 1294 42
 1862 003c 03F00203 		and	r3, r3, #2
 1863              		.loc 1 1294 83
 1864 0040 022B     		cmp	r3, #2
 1865 0042 01D1     		bne	.L82
ARM GAS  C:\Users\jisu8\AppData\Local\Temp\ccmlnG2o.s 			page 56


 1866              		.loc 1 1294 83 is_stmt 0 discriminator 1
 1867 0044 0123     		movs	r3, #1
 1868 0046 00E0     		b	.L83
 1869              	.L82:
 1870              		.loc 1 1294 83 discriminator 2
 1871 0048 0023     		movs	r3, #0
 1872              	.L83:
 1873              		.loc 1 1294 17 is_stmt 1 discriminator 4
 1874 004a 7B61     		str	r3, [r7, #20]
1295:Drivers/STM32F7xx_HAL_Driver/Src/stm32f7xx_hal_dma2d.c ****   /* 2nd condition: Not Start Check */
1296:Drivers/STM32F7xx_HAL_Driver/Src/stm32f7xx_hal_dma2d.c ****   loadsuspended |= ((*reg & DMA2D_BGPFCCR_START) != DMA2D_BGPFCCR_START) ? 1UL : 0UL;
 1875              		.loc 1 1296 22 discriminator 4
 1876 004c 3B69     		ldr	r3, [r7, #16]
 1877 004e 1B68     		ldr	r3, [r3]
 1878              		.loc 1 1296 27 discriminator 4
 1879 0050 03F02003 		and	r3, r3, #32
 1880              		.loc 1 1296 80 discriminator 4
 1881 0054 202B     		cmp	r3, #32
 1882 0056 01D0     		beq	.L84
 1883              		.loc 1 1296 80 is_stmt 0 discriminator 1
 1884 0058 0123     		movs	r3, #1
 1885 005a 00E0     		b	.L85
 1886              	.L84:
 1887              		.loc 1 1296 80 discriminator 2
 1888 005c 0023     		movs	r3, #0
 1889              	.L85:
 1890              		.loc 1 1296 17 is_stmt 1 discriminator 4
 1891 005e 7A69     		ldr	r2, [r7, #20]
 1892 0060 1343     		orrs	r3, r3, r2
 1893 0062 7B61     		str	r3, [r7, #20]
1297:Drivers/STM32F7xx_HAL_Driver/Src/stm32f7xx_hal_dma2d.c ****   while (loadsuspended == 0UL)
 1894              		.loc 1 1297 9 discriminator 4
 1895 0064 2AE0     		b	.L86
 1896              	.L93:
1298:Drivers/STM32F7xx_HAL_Driver/Src/stm32f7xx_hal_dma2d.c ****   {
1299:Drivers/STM32F7xx_HAL_Driver/Src/stm32f7xx_hal_dma2d.c ****     if ((HAL_GetTick() - tickstart) > DMA2D_TIMEOUT_SUSPEND)
 1897              		.loc 1 1299 10
 1898 0066 FFF7FEFF 		bl	HAL_GetTick
 1899 006a 0246     		mov	r2, r0
 1900              		.loc 1 1299 24
 1901 006c FB68     		ldr	r3, [r7, #12]
 1902 006e D31A     		subs	r3, r2, r3
 1903              		.loc 1 1299 8
 1904 0070 B3F57A7F 		cmp	r3, #1000
 1905 0074 0BD9     		bls	.L87
1300:Drivers/STM32F7xx_HAL_Driver/Src/stm32f7xx_hal_dma2d.c ****     {
1301:Drivers/STM32F7xx_HAL_Driver/Src/stm32f7xx_hal_dma2d.c ****       /* Update error code */
1302:Drivers/STM32F7xx_HAL_Driver/Src/stm32f7xx_hal_dma2d.c ****       hdma2d->ErrorCode |= HAL_DMA2D_ERROR_TIMEOUT;
 1906              		.loc 1 1302 25
 1907 0076 7B68     		ldr	r3, [r7, #4]
 1908 0078 DB6B     		ldr	r3, [r3, #60]
 1909 007a 43F02002 		orr	r2, r3, #32
 1910 007e 7B68     		ldr	r3, [r7, #4]
 1911 0080 DA63     		str	r2, [r3, #60]
1303:Drivers/STM32F7xx_HAL_Driver/Src/stm32f7xx_hal_dma2d.c **** 
1304:Drivers/STM32F7xx_HAL_Driver/Src/stm32f7xx_hal_dma2d.c ****       /* Change the DMA2D state */
1305:Drivers/STM32F7xx_HAL_Driver/Src/stm32f7xx_hal_dma2d.c ****       hdma2d->State = HAL_DMA2D_STATE_TIMEOUT;
ARM GAS  C:\Users\jisu8\AppData\Local\Temp\ccmlnG2o.s 			page 57


 1912              		.loc 1 1305 21
 1913 0082 7B68     		ldr	r3, [r7, #4]
 1914 0084 0322     		movs	r2, #3
 1915 0086 83F83920 		strb	r2, [r3, #57]
1306:Drivers/STM32F7xx_HAL_Driver/Src/stm32f7xx_hal_dma2d.c **** 
1307:Drivers/STM32F7xx_HAL_Driver/Src/stm32f7xx_hal_dma2d.c ****       return HAL_TIMEOUT;
 1916              		.loc 1 1307 14
 1917 008a 0323     		movs	r3, #3
 1918 008c 2DE0     		b	.L88
 1919              	.L87:
1308:Drivers/STM32F7xx_HAL_Driver/Src/stm32f7xx_hal_dma2d.c ****     }
1309:Drivers/STM32F7xx_HAL_Driver/Src/stm32f7xx_hal_dma2d.c ****     /* 1st condition: Suspend Check */
1310:Drivers/STM32F7xx_HAL_Driver/Src/stm32f7xx_hal_dma2d.c ****     loadsuspended = ((hdma2d->Instance->CR & DMA2D_CR_SUSP) == DMA2D_CR_SUSP) ? 1UL : 0UL;
 1920              		.loc 1 1310 29
 1921 008e 7B68     		ldr	r3, [r7, #4]
 1922 0090 1B68     		ldr	r3, [r3]
 1923              		.loc 1 1310 39
 1924 0092 1B68     		ldr	r3, [r3]
 1925              		.loc 1 1310 44
 1926 0094 03F00203 		and	r3, r3, #2
 1927              		.loc 1 1310 85
 1928 0098 022B     		cmp	r3, #2
 1929 009a 01D1     		bne	.L89
 1930              		.loc 1 1310 85 is_stmt 0 discriminator 1
 1931 009c 0123     		movs	r3, #1
 1932 009e 00E0     		b	.L90
 1933              	.L89:
 1934              		.loc 1 1310 85 discriminator 2
 1935 00a0 0023     		movs	r3, #0
 1936              	.L90:
 1937              		.loc 1 1310 19 is_stmt 1 discriminator 4
 1938 00a2 7B61     		str	r3, [r7, #20]
1311:Drivers/STM32F7xx_HAL_Driver/Src/stm32f7xx_hal_dma2d.c ****     /* 2nd condition: Not Start Check */
1312:Drivers/STM32F7xx_HAL_Driver/Src/stm32f7xx_hal_dma2d.c ****     loadsuspended |= ((*reg & DMA2D_BGPFCCR_START) != DMA2D_BGPFCCR_START) ? 1UL : 0UL;
 1939              		.loc 1 1312 24 discriminator 4
 1940 00a4 3B69     		ldr	r3, [r7, #16]
 1941 00a6 1B68     		ldr	r3, [r3]
 1942              		.loc 1 1312 29 discriminator 4
 1943 00a8 03F02003 		and	r3, r3, #32
 1944              		.loc 1 1312 82 discriminator 4
 1945 00ac 202B     		cmp	r3, #32
 1946 00ae 01D0     		beq	.L91
 1947              		.loc 1 1312 82 is_stmt 0 discriminator 1
 1948 00b0 0123     		movs	r3, #1
 1949 00b2 00E0     		b	.L92
 1950              	.L91:
 1951              		.loc 1 1312 82 discriminator 2
 1952 00b4 0023     		movs	r3, #0
 1953              	.L92:
 1954              		.loc 1 1312 19 is_stmt 1 discriminator 4
 1955 00b6 7A69     		ldr	r2, [r7, #20]
 1956 00b8 1343     		orrs	r3, r3, r2
 1957 00ba 7B61     		str	r3, [r7, #20]
 1958              	.L86:
1297:Drivers/STM32F7xx_HAL_Driver/Src/stm32f7xx_hal_dma2d.c ****   {
 1959              		.loc 1 1297 9
 1960 00bc 7B69     		ldr	r3, [r7, #20]
ARM GAS  C:\Users\jisu8\AppData\Local\Temp\ccmlnG2o.s 			page 58


 1961 00be 002B     		cmp	r3, #0
 1962 00c0 D1D0     		beq	.L93
1313:Drivers/STM32F7xx_HAL_Driver/Src/stm32f7xx_hal_dma2d.c ****   }
1314:Drivers/STM32F7xx_HAL_Driver/Src/stm32f7xx_hal_dma2d.c **** 
1315:Drivers/STM32F7xx_HAL_Driver/Src/stm32f7xx_hal_dma2d.c ****   /* Check whether or not a transfer is actually suspended and change the DMA2D state accordingly *
1316:Drivers/STM32F7xx_HAL_Driver/Src/stm32f7xx_hal_dma2d.c ****   if ((*reg & DMA2D_BGPFCCR_START) != 0U)
 1963              		.loc 1 1316 8
 1964 00c2 3B69     		ldr	r3, [r7, #16]
 1965 00c4 1B68     		ldr	r3, [r3]
 1966              		.loc 1 1316 13
 1967 00c6 03F02003 		and	r3, r3, #32
 1968              		.loc 1 1316 6
 1969 00ca 002B     		cmp	r3, #0
 1970 00cc 04D0     		beq	.L94
1317:Drivers/STM32F7xx_HAL_Driver/Src/stm32f7xx_hal_dma2d.c ****   {
1318:Drivers/STM32F7xx_HAL_Driver/Src/stm32f7xx_hal_dma2d.c ****     hdma2d->State = HAL_DMA2D_STATE_SUSPEND;
 1971              		.loc 1 1318 19
 1972 00ce 7B68     		ldr	r3, [r7, #4]
 1973 00d0 0522     		movs	r2, #5
 1974 00d2 83F83920 		strb	r2, [r3, #57]
 1975 00d6 07E0     		b	.L95
 1976              	.L94:
1319:Drivers/STM32F7xx_HAL_Driver/Src/stm32f7xx_hal_dma2d.c ****   }
1320:Drivers/STM32F7xx_HAL_Driver/Src/stm32f7xx_hal_dma2d.c ****   else
1321:Drivers/STM32F7xx_HAL_Driver/Src/stm32f7xx_hal_dma2d.c ****   {
1322:Drivers/STM32F7xx_HAL_Driver/Src/stm32f7xx_hal_dma2d.c ****     /* Make sure SUSP bit is cleared since it is meaningless
1323:Drivers/STM32F7xx_HAL_Driver/Src/stm32f7xx_hal_dma2d.c ****        when no transfer is on-going */
1324:Drivers/STM32F7xx_HAL_Driver/Src/stm32f7xx_hal_dma2d.c ****     CLEAR_BIT(hdma2d->Instance->CR, DMA2D_CR_SUSP);
 1977              		.loc 1 1324 5
 1978 00d8 7B68     		ldr	r3, [r7, #4]
 1979 00da 1B68     		ldr	r3, [r3]
 1980 00dc 1A68     		ldr	r2, [r3]
 1981 00de 7B68     		ldr	r3, [r7, #4]
 1982 00e0 1B68     		ldr	r3, [r3]
 1983 00e2 22F00202 		bic	r2, r2, #2
 1984 00e6 1A60     		str	r2, [r3]
 1985              	.L95:
1325:Drivers/STM32F7xx_HAL_Driver/Src/stm32f7xx_hal_dma2d.c ****   }
1326:Drivers/STM32F7xx_HAL_Driver/Src/stm32f7xx_hal_dma2d.c **** 
1327:Drivers/STM32F7xx_HAL_Driver/Src/stm32f7xx_hal_dma2d.c ****   return HAL_OK;
 1986              		.loc 1 1327 10
 1987 00e8 0023     		movs	r3, #0
 1988              	.L88:
1328:Drivers/STM32F7xx_HAL_Driver/Src/stm32f7xx_hal_dma2d.c **** }
 1989              		.loc 1 1328 1
 1990 00ea 1846     		mov	r0, r3
 1991 00ec 1837     		adds	r7, r7, #24
 1992              	.LCFI96:
 1993              		.cfi_def_cfa_offset 8
 1994 00ee BD46     		mov	sp, r7
 1995              	.LCFI97:
 1996              		.cfi_def_cfa_register 13
 1997              		@ sp needed
 1998 00f0 80BD     		pop	{r7, pc}
 1999              		.cfi_endproc
 2000              	.LFE158:
 2002              		.section	.text.HAL_DMA2D_CLUTLoading_Resume,"ax",%progbits
ARM GAS  C:\Users\jisu8\AppData\Local\Temp\ccmlnG2o.s 			page 59


 2003              		.align	1
 2004              		.global	HAL_DMA2D_CLUTLoading_Resume
 2005              		.syntax unified
 2006              		.thumb
 2007              		.thumb_func
 2009              	HAL_DMA2D_CLUTLoading_Resume:
 2010              	.LFB159:
1329:Drivers/STM32F7xx_HAL_Driver/Src/stm32f7xx_hal_dma2d.c **** 
1330:Drivers/STM32F7xx_HAL_Driver/Src/stm32f7xx_hal_dma2d.c **** /**
1331:Drivers/STM32F7xx_HAL_Driver/Src/stm32f7xx_hal_dma2d.c ****   * @brief  Resume the DMA2D CLUT loading.
1332:Drivers/STM32F7xx_HAL_Driver/Src/stm32f7xx_hal_dma2d.c ****   * @param  hdma2d pointer to a DMA2D_HandleTypeDef structure that contains
1333:Drivers/STM32F7xx_HAL_Driver/Src/stm32f7xx_hal_dma2d.c ****   *                 the configuration information for the DMA2D.
1334:Drivers/STM32F7xx_HAL_Driver/Src/stm32f7xx_hal_dma2d.c ****   * @param  LayerIdx DMA2D Layer index.
1335:Drivers/STM32F7xx_HAL_Driver/Src/stm32f7xx_hal_dma2d.c ****   *                   This parameter can be one of the following values:
1336:Drivers/STM32F7xx_HAL_Driver/Src/stm32f7xx_hal_dma2d.c ****   *                   DMA2D_BACKGROUND_LAYER(0) / DMA2D_FOREGROUND_LAYER(1)
1337:Drivers/STM32F7xx_HAL_Driver/Src/stm32f7xx_hal_dma2d.c ****   * @retval HAL status
1338:Drivers/STM32F7xx_HAL_Driver/Src/stm32f7xx_hal_dma2d.c ****   */
1339:Drivers/STM32F7xx_HAL_Driver/Src/stm32f7xx_hal_dma2d.c **** HAL_StatusTypeDef HAL_DMA2D_CLUTLoading_Resume(DMA2D_HandleTypeDef *hdma2d, uint32_t LayerIdx)
1340:Drivers/STM32F7xx_HAL_Driver/Src/stm32f7xx_hal_dma2d.c **** {
 2011              		.loc 1 1340 1
 2012              		.cfi_startproc
 2013              		@ args = 0, pretend = 0, frame = 8
 2014              		@ frame_needed = 1, uses_anonymous_args = 0
 2015              		@ link register save eliminated.
 2016 0000 80B4     		push	{r7}
 2017              	.LCFI98:
 2018              		.cfi_def_cfa_offset 4
 2019              		.cfi_offset 7, -4
 2020 0002 83B0     		sub	sp, sp, #12
 2021              	.LCFI99:
 2022              		.cfi_def_cfa_offset 16
 2023 0004 00AF     		add	r7, sp, #0
 2024              	.LCFI100:
 2025              		.cfi_def_cfa_register 7
 2026 0006 7860     		str	r0, [r7, #4]
 2027 0008 3960     		str	r1, [r7]
1341:Drivers/STM32F7xx_HAL_Driver/Src/stm32f7xx_hal_dma2d.c ****   /* Check the SUSP and START bits for background or foreground CLUT loading */
1342:Drivers/STM32F7xx_HAL_Driver/Src/stm32f7xx_hal_dma2d.c ****   if (LayerIdx == DMA2D_BACKGROUND_LAYER)
 2028              		.loc 1 1342 6
 2029 000a 3B68     		ldr	r3, [r7]
 2030 000c 002B     		cmp	r3, #0
 2031 000e 12D1     		bne	.L97
1343:Drivers/STM32F7xx_HAL_Driver/Src/stm32f7xx_hal_dma2d.c ****   {
1344:Drivers/STM32F7xx_HAL_Driver/Src/stm32f7xx_hal_dma2d.c ****     /* Background CLUT loading suspension check */
1345:Drivers/STM32F7xx_HAL_Driver/Src/stm32f7xx_hal_dma2d.c ****     if ((hdma2d->Instance->CR & DMA2D_CR_SUSP) == DMA2D_CR_SUSP)
 2032              		.loc 1 1345 16
 2033 0010 7B68     		ldr	r3, [r7, #4]
 2034 0012 1B68     		ldr	r3, [r3]
 2035              		.loc 1 1345 26
 2036 0014 1B68     		ldr	r3, [r3]
 2037              		.loc 1 1345 31
 2038 0016 03F00203 		and	r3, r3, #2
 2039              		.loc 1 1345 8
 2040 001a 022B     		cmp	r3, #2
 2041 001c 1DD1     		bne	.L98
1346:Drivers/STM32F7xx_HAL_Driver/Src/stm32f7xx_hal_dma2d.c ****     {
1347:Drivers/STM32F7xx_HAL_Driver/Src/stm32f7xx_hal_dma2d.c ****       if ((hdma2d->Instance->BGPFCCR & DMA2D_BGPFCCR_START) == DMA2D_BGPFCCR_START)
ARM GAS  C:\Users\jisu8\AppData\Local\Temp\ccmlnG2o.s 			page 60


 2042              		.loc 1 1347 18
 2043 001e 7B68     		ldr	r3, [r7, #4]
 2044 0020 1B68     		ldr	r3, [r3]
 2045              		.loc 1 1347 28
 2046 0022 5B6A     		ldr	r3, [r3, #36]
 2047              		.loc 1 1347 38
 2048 0024 03F02003 		and	r3, r3, #32
 2049              		.loc 1 1347 10
 2050 0028 202B     		cmp	r3, #32
 2051 002a 16D1     		bne	.L98
1348:Drivers/STM32F7xx_HAL_Driver/Src/stm32f7xx_hal_dma2d.c ****       {
1349:Drivers/STM32F7xx_HAL_Driver/Src/stm32f7xx_hal_dma2d.c ****         /* Ongoing CLUT loading is suspended: change the DMA2D state before resuming */
1350:Drivers/STM32F7xx_HAL_Driver/Src/stm32f7xx_hal_dma2d.c ****         hdma2d->State = HAL_DMA2D_STATE_BUSY;
 2052              		.loc 1 1350 23
 2053 002c 7B68     		ldr	r3, [r7, #4]
 2054 002e 0222     		movs	r2, #2
 2055 0030 83F83920 		strb	r2, [r3, #57]
 2056 0034 11E0     		b	.L98
 2057              	.L97:
1351:Drivers/STM32F7xx_HAL_Driver/Src/stm32f7xx_hal_dma2d.c ****       }
1352:Drivers/STM32F7xx_HAL_Driver/Src/stm32f7xx_hal_dma2d.c ****     }
1353:Drivers/STM32F7xx_HAL_Driver/Src/stm32f7xx_hal_dma2d.c ****   }
1354:Drivers/STM32F7xx_HAL_Driver/Src/stm32f7xx_hal_dma2d.c ****   else
1355:Drivers/STM32F7xx_HAL_Driver/Src/stm32f7xx_hal_dma2d.c ****   {
1356:Drivers/STM32F7xx_HAL_Driver/Src/stm32f7xx_hal_dma2d.c ****     /* Foreground CLUT loading suspension check */
1357:Drivers/STM32F7xx_HAL_Driver/Src/stm32f7xx_hal_dma2d.c ****     if ((hdma2d->Instance->CR & DMA2D_CR_SUSP) == DMA2D_CR_SUSP)
 2058              		.loc 1 1357 16
 2059 0036 7B68     		ldr	r3, [r7, #4]
 2060 0038 1B68     		ldr	r3, [r3]
 2061              		.loc 1 1357 26
 2062 003a 1B68     		ldr	r3, [r3]
 2063              		.loc 1 1357 31
 2064 003c 03F00203 		and	r3, r3, #2
 2065              		.loc 1 1357 8
 2066 0040 022B     		cmp	r3, #2
 2067 0042 0AD1     		bne	.L98
1358:Drivers/STM32F7xx_HAL_Driver/Src/stm32f7xx_hal_dma2d.c ****     {
1359:Drivers/STM32F7xx_HAL_Driver/Src/stm32f7xx_hal_dma2d.c ****       if ((hdma2d->Instance->FGPFCCR & DMA2D_FGPFCCR_START) == DMA2D_FGPFCCR_START)
 2068              		.loc 1 1359 18
 2069 0044 7B68     		ldr	r3, [r7, #4]
 2070 0046 1B68     		ldr	r3, [r3]
 2071              		.loc 1 1359 28
 2072 0048 DB69     		ldr	r3, [r3, #28]
 2073              		.loc 1 1359 38
 2074 004a 03F02003 		and	r3, r3, #32
 2075              		.loc 1 1359 10
 2076 004e 202B     		cmp	r3, #32
 2077 0050 03D1     		bne	.L98
1360:Drivers/STM32F7xx_HAL_Driver/Src/stm32f7xx_hal_dma2d.c ****       {
1361:Drivers/STM32F7xx_HAL_Driver/Src/stm32f7xx_hal_dma2d.c ****         /* Ongoing CLUT loading is suspended: change the DMA2D state before resuming */
1362:Drivers/STM32F7xx_HAL_Driver/Src/stm32f7xx_hal_dma2d.c ****         hdma2d->State = HAL_DMA2D_STATE_BUSY;
 2078              		.loc 1 1362 23
 2079 0052 7B68     		ldr	r3, [r7, #4]
 2080 0054 0222     		movs	r2, #2
 2081 0056 83F83920 		strb	r2, [r3, #57]
 2082              	.L98:
1363:Drivers/STM32F7xx_HAL_Driver/Src/stm32f7xx_hal_dma2d.c ****       }
ARM GAS  C:\Users\jisu8\AppData\Local\Temp\ccmlnG2o.s 			page 61


1364:Drivers/STM32F7xx_HAL_Driver/Src/stm32f7xx_hal_dma2d.c ****     }
1365:Drivers/STM32F7xx_HAL_Driver/Src/stm32f7xx_hal_dma2d.c ****   }
1366:Drivers/STM32F7xx_HAL_Driver/Src/stm32f7xx_hal_dma2d.c **** 
1367:Drivers/STM32F7xx_HAL_Driver/Src/stm32f7xx_hal_dma2d.c ****   /* Resume the CLUT loading */
1368:Drivers/STM32F7xx_HAL_Driver/Src/stm32f7xx_hal_dma2d.c ****   CLEAR_BIT(hdma2d->Instance->CR, DMA2D_CR_SUSP);
 2083              		.loc 1 1368 3
 2084 005a 7B68     		ldr	r3, [r7, #4]
 2085 005c 1B68     		ldr	r3, [r3]
 2086 005e 1A68     		ldr	r2, [r3]
 2087 0060 7B68     		ldr	r3, [r7, #4]
 2088 0062 1B68     		ldr	r3, [r3]
 2089 0064 22F00202 		bic	r2, r2, #2
 2090 0068 1A60     		str	r2, [r3]
1369:Drivers/STM32F7xx_HAL_Driver/Src/stm32f7xx_hal_dma2d.c **** 
1370:Drivers/STM32F7xx_HAL_Driver/Src/stm32f7xx_hal_dma2d.c ****   return HAL_OK;
 2091              		.loc 1 1370 10
 2092 006a 0023     		movs	r3, #0
1371:Drivers/STM32F7xx_HAL_Driver/Src/stm32f7xx_hal_dma2d.c **** }
 2093              		.loc 1 1371 1
 2094 006c 1846     		mov	r0, r3
 2095 006e 0C37     		adds	r7, r7, #12
 2096              	.LCFI101:
 2097              		.cfi_def_cfa_offset 4
 2098 0070 BD46     		mov	sp, r7
 2099              	.LCFI102:
 2100              		.cfi_def_cfa_register 13
 2101              		@ sp needed
 2102 0072 5DF8047B 		ldr	r7, [sp], #4
 2103              	.LCFI103:
 2104              		.cfi_restore 7
 2105              		.cfi_def_cfa_offset 0
 2106 0076 7047     		bx	lr
 2107              		.cfi_endproc
 2108              	.LFE159:
 2110              		.section	.text.HAL_DMA2D_PollForTransfer,"ax",%progbits
 2111              		.align	1
 2112              		.global	HAL_DMA2D_PollForTransfer
 2113              		.syntax unified
 2114              		.thumb
 2115              		.thumb_func
 2117              	HAL_DMA2D_PollForTransfer:
 2118              	.LFB160:
1372:Drivers/STM32F7xx_HAL_Driver/Src/stm32f7xx_hal_dma2d.c **** 
1373:Drivers/STM32F7xx_HAL_Driver/Src/stm32f7xx_hal_dma2d.c **** 
1374:Drivers/STM32F7xx_HAL_Driver/Src/stm32f7xx_hal_dma2d.c **** /**
1375:Drivers/STM32F7xx_HAL_Driver/Src/stm32f7xx_hal_dma2d.c **** 
1376:Drivers/STM32F7xx_HAL_Driver/Src/stm32f7xx_hal_dma2d.c ****   * @brief  Polling for transfer complete or CLUT loading.
1377:Drivers/STM32F7xx_HAL_Driver/Src/stm32f7xx_hal_dma2d.c ****   * @param  hdma2d Pointer to a DMA2D_HandleTypeDef structure that contains
1378:Drivers/STM32F7xx_HAL_Driver/Src/stm32f7xx_hal_dma2d.c ****   *                 the configuration information for the DMA2D.
1379:Drivers/STM32F7xx_HAL_Driver/Src/stm32f7xx_hal_dma2d.c ****   * @param  Timeout Timeout duration
1380:Drivers/STM32F7xx_HAL_Driver/Src/stm32f7xx_hal_dma2d.c ****   * @retval HAL status
1381:Drivers/STM32F7xx_HAL_Driver/Src/stm32f7xx_hal_dma2d.c ****   */
1382:Drivers/STM32F7xx_HAL_Driver/Src/stm32f7xx_hal_dma2d.c **** HAL_StatusTypeDef HAL_DMA2D_PollForTransfer(DMA2D_HandleTypeDef *hdma2d, uint32_t Timeout)
1383:Drivers/STM32F7xx_HAL_Driver/Src/stm32f7xx_hal_dma2d.c **** {
 2119              		.loc 1 1383 1
 2120              		.cfi_startproc
 2121              		@ args = 0, pretend = 0, frame = 24
ARM GAS  C:\Users\jisu8\AppData\Local\Temp\ccmlnG2o.s 			page 62


 2122              		@ frame_needed = 1, uses_anonymous_args = 0
 2123 0000 80B5     		push	{r7, lr}
 2124              	.LCFI104:
 2125              		.cfi_def_cfa_offset 8
 2126              		.cfi_offset 7, -8
 2127              		.cfi_offset 14, -4
 2128 0002 86B0     		sub	sp, sp, #24
 2129              	.LCFI105:
 2130              		.cfi_def_cfa_offset 32
 2131 0004 00AF     		add	r7, sp, #0
 2132              	.LCFI106:
 2133              		.cfi_def_cfa_register 7
 2134 0006 7860     		str	r0, [r7, #4]
 2135 0008 3960     		str	r1, [r7]
1384:Drivers/STM32F7xx_HAL_Driver/Src/stm32f7xx_hal_dma2d.c ****   uint32_t tickstart;
1385:Drivers/STM32F7xx_HAL_Driver/Src/stm32f7xx_hal_dma2d.c ****   uint32_t layer_start;
1386:Drivers/STM32F7xx_HAL_Driver/Src/stm32f7xx_hal_dma2d.c ****   __IO uint32_t isrflags = 0x0U;
 2136              		.loc 1 1386 17
 2137 000a 0023     		movs	r3, #0
 2138 000c FB60     		str	r3, [r7, #12]
1387:Drivers/STM32F7xx_HAL_Driver/Src/stm32f7xx_hal_dma2d.c **** 
1388:Drivers/STM32F7xx_HAL_Driver/Src/stm32f7xx_hal_dma2d.c ****   /* Polling for DMA2D transfer */
1389:Drivers/STM32F7xx_HAL_Driver/Src/stm32f7xx_hal_dma2d.c ****   if ((hdma2d->Instance->CR & DMA2D_CR_START) != 0U)
 2139              		.loc 1 1389 14
 2140 000e 7B68     		ldr	r3, [r7, #4]
 2141 0010 1B68     		ldr	r3, [r3]
 2142              		.loc 1 1389 24
 2143 0012 1B68     		ldr	r3, [r3]
 2144              		.loc 1 1389 29
 2145 0014 03F00103 		and	r3, r3, #1
 2146              		.loc 1 1389 6
 2147 0018 002B     		cmp	r3, #0
 2148 001a 56D0     		beq	.L101
1390:Drivers/STM32F7xx_HAL_Driver/Src/stm32f7xx_hal_dma2d.c ****   {
1391:Drivers/STM32F7xx_HAL_Driver/Src/stm32f7xx_hal_dma2d.c ****     /* Get tick */
1392:Drivers/STM32F7xx_HAL_Driver/Src/stm32f7xx_hal_dma2d.c ****     tickstart = HAL_GetTick();
 2149              		.loc 1 1392 17
 2150 001c FFF7FEFF 		bl	HAL_GetTick
 2151 0020 7861     		str	r0, [r7, #20]
1393:Drivers/STM32F7xx_HAL_Driver/Src/stm32f7xx_hal_dma2d.c **** 
1394:Drivers/STM32F7xx_HAL_Driver/Src/stm32f7xx_hal_dma2d.c ****     while (__HAL_DMA2D_GET_FLAG(hdma2d, DMA2D_FLAG_TC) == 0U)
 2152              		.loc 1 1394 11
 2153 0022 4BE0     		b	.L102
 2154              	.L108:
1395:Drivers/STM32F7xx_HAL_Driver/Src/stm32f7xx_hal_dma2d.c ****     {
1396:Drivers/STM32F7xx_HAL_Driver/Src/stm32f7xx_hal_dma2d.c ****       isrflags = READ_REG(hdma2d->Instance->ISR);
 2155              		.loc 1 1396 18
 2156 0024 7B68     		ldr	r3, [r7, #4]
 2157 0026 1B68     		ldr	r3, [r3]
 2158 0028 5B68     		ldr	r3, [r3, #4]
 2159              		.loc 1 1396 16
 2160 002a FB60     		str	r3, [r7, #12]
1397:Drivers/STM32F7xx_HAL_Driver/Src/stm32f7xx_hal_dma2d.c ****       if ((isrflags & (DMA2D_FLAG_CE | DMA2D_FLAG_TE)) != 0U)
 2161              		.loc 1 1397 21
 2162 002c FB68     		ldr	r3, [r7, #12]
 2163 002e 03F02103 		and	r3, r3, #33
 2164              		.loc 1 1397 10
ARM GAS  C:\Users\jisu8\AppData\Local\Temp\ccmlnG2o.s 			page 63


 2165 0032 002B     		cmp	r3, #0
 2166 0034 23D0     		beq	.L103
1398:Drivers/STM32F7xx_HAL_Driver/Src/stm32f7xx_hal_dma2d.c ****       {
1399:Drivers/STM32F7xx_HAL_Driver/Src/stm32f7xx_hal_dma2d.c ****         if ((isrflags & DMA2D_FLAG_CE) != 0U)
 2167              		.loc 1 1399 23
 2168 0036 FB68     		ldr	r3, [r7, #12]
 2169 0038 03F02003 		and	r3, r3, #32
 2170              		.loc 1 1399 12
 2171 003c 002B     		cmp	r3, #0
 2172 003e 05D0     		beq	.L104
1400:Drivers/STM32F7xx_HAL_Driver/Src/stm32f7xx_hal_dma2d.c ****         {
1401:Drivers/STM32F7xx_HAL_Driver/Src/stm32f7xx_hal_dma2d.c ****           hdma2d->ErrorCode |= HAL_DMA2D_ERROR_CE;
 2173              		.loc 1 1401 29
 2174 0040 7B68     		ldr	r3, [r7, #4]
 2175 0042 DB6B     		ldr	r3, [r3, #60]
 2176 0044 43F00202 		orr	r2, r3, #2
 2177 0048 7B68     		ldr	r3, [r7, #4]
 2178 004a DA63     		str	r2, [r3, #60]
 2179              	.L104:
1402:Drivers/STM32F7xx_HAL_Driver/Src/stm32f7xx_hal_dma2d.c ****         }
1403:Drivers/STM32F7xx_HAL_Driver/Src/stm32f7xx_hal_dma2d.c ****         if ((isrflags & DMA2D_FLAG_TE) != 0U)
 2180              		.loc 1 1403 23
 2181 004c FB68     		ldr	r3, [r7, #12]
 2182 004e 03F00103 		and	r3, r3, #1
 2183              		.loc 1 1403 12
 2184 0052 002B     		cmp	r3, #0
 2185 0054 05D0     		beq	.L105
1404:Drivers/STM32F7xx_HAL_Driver/Src/stm32f7xx_hal_dma2d.c ****         {
1405:Drivers/STM32F7xx_HAL_Driver/Src/stm32f7xx_hal_dma2d.c ****           hdma2d->ErrorCode |= HAL_DMA2D_ERROR_TE;
 2186              		.loc 1 1405 29
 2187 0056 7B68     		ldr	r3, [r7, #4]
 2188 0058 DB6B     		ldr	r3, [r3, #60]
 2189 005a 43F00102 		orr	r2, r3, #1
 2190 005e 7B68     		ldr	r3, [r7, #4]
 2191 0060 DA63     		str	r2, [r3, #60]
 2192              	.L105:
1406:Drivers/STM32F7xx_HAL_Driver/Src/stm32f7xx_hal_dma2d.c ****         }
1407:Drivers/STM32F7xx_HAL_Driver/Src/stm32f7xx_hal_dma2d.c ****         /* Clear the transfer and configuration error flags */
1408:Drivers/STM32F7xx_HAL_Driver/Src/stm32f7xx_hal_dma2d.c ****         __HAL_DMA2D_CLEAR_FLAG(hdma2d, DMA2D_FLAG_CE | DMA2D_FLAG_TE);
 2193              		.loc 1 1408 9
 2194 0062 7B68     		ldr	r3, [r7, #4]
 2195 0064 1B68     		ldr	r3, [r3]
 2196 0066 2122     		movs	r2, #33
 2197 0068 9A60     		str	r2, [r3, #8]
1409:Drivers/STM32F7xx_HAL_Driver/Src/stm32f7xx_hal_dma2d.c **** 
1410:Drivers/STM32F7xx_HAL_Driver/Src/stm32f7xx_hal_dma2d.c ****         /* Change DMA2D state */
1411:Drivers/STM32F7xx_HAL_Driver/Src/stm32f7xx_hal_dma2d.c ****         hdma2d->State = HAL_DMA2D_STATE_ERROR;
 2198              		.loc 1 1411 23
 2199 006a 7B68     		ldr	r3, [r7, #4]
 2200 006c 0422     		movs	r2, #4
 2201 006e 83F83920 		strb	r2, [r3, #57]
1412:Drivers/STM32F7xx_HAL_Driver/Src/stm32f7xx_hal_dma2d.c **** 
1413:Drivers/STM32F7xx_HAL_Driver/Src/stm32f7xx_hal_dma2d.c ****         /* Process unlocked */
1414:Drivers/STM32F7xx_HAL_Driver/Src/stm32f7xx_hal_dma2d.c ****         __HAL_UNLOCK(hdma2d);
 2202              		.loc 1 1414 9
 2203 0072 7B68     		ldr	r3, [r7, #4]
 2204 0074 0022     		movs	r2, #0
ARM GAS  C:\Users\jisu8\AppData\Local\Temp\ccmlnG2o.s 			page 64


 2205 0076 83F83820 		strb	r2, [r3, #56]
1415:Drivers/STM32F7xx_HAL_Driver/Src/stm32f7xx_hal_dma2d.c **** 
1416:Drivers/STM32F7xx_HAL_Driver/Src/stm32f7xx_hal_dma2d.c ****         return HAL_ERROR;
 2206              		.loc 1 1416 16
 2207 007a 0123     		movs	r3, #1
 2208 007c A5E0     		b	.L106
 2209              	.L103:
1417:Drivers/STM32F7xx_HAL_Driver/Src/stm32f7xx_hal_dma2d.c ****       }
1418:Drivers/STM32F7xx_HAL_Driver/Src/stm32f7xx_hal_dma2d.c ****       /* Check for the Timeout */
1419:Drivers/STM32F7xx_HAL_Driver/Src/stm32f7xx_hal_dma2d.c ****       if (Timeout != HAL_MAX_DELAY)
 2210              		.loc 1 1419 10
 2211 007e 3B68     		ldr	r3, [r7]
 2212 0080 B3F1FF3F 		cmp	r3, #-1
 2213 0084 1AD0     		beq	.L102
1420:Drivers/STM32F7xx_HAL_Driver/Src/stm32f7xx_hal_dma2d.c ****       {
1421:Drivers/STM32F7xx_HAL_Driver/Src/stm32f7xx_hal_dma2d.c ****         if (((HAL_GetTick() - tickstart) > Timeout) || (Timeout == 0U))
 2214              		.loc 1 1421 15
 2215 0086 FFF7FEFF 		bl	HAL_GetTick
 2216 008a 0246     		mov	r2, r0
 2217              		.loc 1 1421 29
 2218 008c 7B69     		ldr	r3, [r7, #20]
 2219 008e D31A     		subs	r3, r2, r3
 2220              		.loc 1 1421 12
 2221 0090 3A68     		ldr	r2, [r7]
 2222 0092 9A42     		cmp	r2, r3
 2223 0094 02D3     		bcc	.L107
 2224              		.loc 1 1421 53 discriminator 1
 2225 0096 3B68     		ldr	r3, [r7]
 2226 0098 002B     		cmp	r3, #0
 2227 009a 0FD1     		bne	.L102
 2228              	.L107:
1422:Drivers/STM32F7xx_HAL_Driver/Src/stm32f7xx_hal_dma2d.c ****         {
1423:Drivers/STM32F7xx_HAL_Driver/Src/stm32f7xx_hal_dma2d.c ****           /* Update error code */
1424:Drivers/STM32F7xx_HAL_Driver/Src/stm32f7xx_hal_dma2d.c ****           hdma2d->ErrorCode |= HAL_DMA2D_ERROR_TIMEOUT;
 2229              		.loc 1 1424 29
 2230 009c 7B68     		ldr	r3, [r7, #4]
 2231 009e DB6B     		ldr	r3, [r3, #60]
 2232 00a0 43F02002 		orr	r2, r3, #32
 2233 00a4 7B68     		ldr	r3, [r7, #4]
 2234 00a6 DA63     		str	r2, [r3, #60]
1425:Drivers/STM32F7xx_HAL_Driver/Src/stm32f7xx_hal_dma2d.c **** 
1426:Drivers/STM32F7xx_HAL_Driver/Src/stm32f7xx_hal_dma2d.c ****           /* Change the DMA2D state */
1427:Drivers/STM32F7xx_HAL_Driver/Src/stm32f7xx_hal_dma2d.c ****           hdma2d->State = HAL_DMA2D_STATE_TIMEOUT;
 2235              		.loc 1 1427 25
 2236 00a8 7B68     		ldr	r3, [r7, #4]
 2237 00aa 0322     		movs	r2, #3
 2238 00ac 83F83920 		strb	r2, [r3, #57]
1428:Drivers/STM32F7xx_HAL_Driver/Src/stm32f7xx_hal_dma2d.c **** 
1429:Drivers/STM32F7xx_HAL_Driver/Src/stm32f7xx_hal_dma2d.c ****           /* Process unlocked */
1430:Drivers/STM32F7xx_HAL_Driver/Src/stm32f7xx_hal_dma2d.c ****           __HAL_UNLOCK(hdma2d);
 2239              		.loc 1 1430 11
 2240 00b0 7B68     		ldr	r3, [r7, #4]
 2241 00b2 0022     		movs	r2, #0
 2242 00b4 83F83820 		strb	r2, [r3, #56]
1431:Drivers/STM32F7xx_HAL_Driver/Src/stm32f7xx_hal_dma2d.c **** 
1432:Drivers/STM32F7xx_HAL_Driver/Src/stm32f7xx_hal_dma2d.c ****           return HAL_TIMEOUT;
 2243              		.loc 1 1432 18
ARM GAS  C:\Users\jisu8\AppData\Local\Temp\ccmlnG2o.s 			page 65


 2244 00b8 0323     		movs	r3, #3
 2245 00ba 86E0     		b	.L106
 2246              	.L102:
1394:Drivers/STM32F7xx_HAL_Driver/Src/stm32f7xx_hal_dma2d.c ****     {
 2247              		.loc 1 1394 12
 2248 00bc 7B68     		ldr	r3, [r7, #4]
 2249 00be 1B68     		ldr	r3, [r3]
 2250 00c0 5B68     		ldr	r3, [r3, #4]
 2251 00c2 03F00203 		and	r3, r3, #2
1394:Drivers/STM32F7xx_HAL_Driver/Src/stm32f7xx_hal_dma2d.c ****     {
 2252              		.loc 1 1394 11
 2253 00c6 002B     		cmp	r3, #0
 2254 00c8 ACD0     		beq	.L108
 2255              	.L101:
1433:Drivers/STM32F7xx_HAL_Driver/Src/stm32f7xx_hal_dma2d.c ****         }
1434:Drivers/STM32F7xx_HAL_Driver/Src/stm32f7xx_hal_dma2d.c ****       }
1435:Drivers/STM32F7xx_HAL_Driver/Src/stm32f7xx_hal_dma2d.c ****     }
1436:Drivers/STM32F7xx_HAL_Driver/Src/stm32f7xx_hal_dma2d.c ****   }
1437:Drivers/STM32F7xx_HAL_Driver/Src/stm32f7xx_hal_dma2d.c ****   /* Polling for CLUT loading (foreground or background) */
1438:Drivers/STM32F7xx_HAL_Driver/Src/stm32f7xx_hal_dma2d.c ****   layer_start = hdma2d->Instance->FGPFCCR & DMA2D_FGPFCCR_START;
 2256              		.loc 1 1438 23
 2257 00ca 7B68     		ldr	r3, [r7, #4]
 2258 00cc 1B68     		ldr	r3, [r3]
 2259              		.loc 1 1438 33
 2260 00ce DB69     		ldr	r3, [r3, #28]
 2261              		.loc 1 1438 15
 2262 00d0 03F02003 		and	r3, r3, #32
 2263 00d4 3B61     		str	r3, [r7, #16]
1439:Drivers/STM32F7xx_HAL_Driver/Src/stm32f7xx_hal_dma2d.c ****   layer_start |= hdma2d->Instance->BGPFCCR & DMA2D_BGPFCCR_START;
 2264              		.loc 1 1439 24
 2265 00d6 7B68     		ldr	r3, [r7, #4]
 2266 00d8 1B68     		ldr	r3, [r3]
 2267              		.loc 1 1439 34
 2268 00da 5B6A     		ldr	r3, [r3, #36]
 2269              		.loc 1 1439 44
 2270 00dc 03F02003 		and	r3, r3, #32
 2271              		.loc 1 1439 15
 2272 00e0 3A69     		ldr	r2, [r7, #16]
 2273 00e2 1343     		orrs	r3, r3, r2
 2274 00e4 3B61     		str	r3, [r7, #16]
1440:Drivers/STM32F7xx_HAL_Driver/Src/stm32f7xx_hal_dma2d.c ****   if (layer_start != 0U)
 2275              		.loc 1 1440 6
 2276 00e6 3B69     		ldr	r3, [r7, #16]
 2277 00e8 002B     		cmp	r3, #0
 2278 00ea 61D0     		beq	.L109
1441:Drivers/STM32F7xx_HAL_Driver/Src/stm32f7xx_hal_dma2d.c ****   {
1442:Drivers/STM32F7xx_HAL_Driver/Src/stm32f7xx_hal_dma2d.c ****     /* Get tick */
1443:Drivers/STM32F7xx_HAL_Driver/Src/stm32f7xx_hal_dma2d.c ****     tickstart = HAL_GetTick();
 2279              		.loc 1 1443 17
 2280 00ec FFF7FEFF 		bl	HAL_GetTick
 2281 00f0 7861     		str	r0, [r7, #20]
1444:Drivers/STM32F7xx_HAL_Driver/Src/stm32f7xx_hal_dma2d.c **** 
1445:Drivers/STM32F7xx_HAL_Driver/Src/stm32f7xx_hal_dma2d.c ****     while (__HAL_DMA2D_GET_FLAG(hdma2d, DMA2D_FLAG_CTC) == 0U)
 2282              		.loc 1 1445 11
 2283 00f2 56E0     		b	.L110
 2284              	.L116:
1446:Drivers/STM32F7xx_HAL_Driver/Src/stm32f7xx_hal_dma2d.c ****     {
ARM GAS  C:\Users\jisu8\AppData\Local\Temp\ccmlnG2o.s 			page 66


1447:Drivers/STM32F7xx_HAL_Driver/Src/stm32f7xx_hal_dma2d.c ****       isrflags = READ_REG(hdma2d->Instance->ISR);
 2285              		.loc 1 1447 18
 2286 00f4 7B68     		ldr	r3, [r7, #4]
 2287 00f6 1B68     		ldr	r3, [r3]
 2288 00f8 5B68     		ldr	r3, [r3, #4]
 2289              		.loc 1 1447 16
 2290 00fa FB60     		str	r3, [r7, #12]
1448:Drivers/STM32F7xx_HAL_Driver/Src/stm32f7xx_hal_dma2d.c ****       if ((isrflags & (DMA2D_FLAG_CAE | DMA2D_FLAG_CE | DMA2D_FLAG_TE)) != 0U)
 2291              		.loc 1 1448 21
 2292 00fc FB68     		ldr	r3, [r7, #12]
 2293 00fe 03F02903 		and	r3, r3, #41
 2294              		.loc 1 1448 10
 2295 0102 002B     		cmp	r3, #0
 2296 0104 2ED0     		beq	.L111
1449:Drivers/STM32F7xx_HAL_Driver/Src/stm32f7xx_hal_dma2d.c ****       {
1450:Drivers/STM32F7xx_HAL_Driver/Src/stm32f7xx_hal_dma2d.c ****         if ((isrflags & DMA2D_FLAG_CAE) != 0U)
 2297              		.loc 1 1450 23
 2298 0106 FB68     		ldr	r3, [r7, #12]
 2299 0108 03F00803 		and	r3, r3, #8
 2300              		.loc 1 1450 12
 2301 010c 002B     		cmp	r3, #0
 2302 010e 05D0     		beq	.L112
1451:Drivers/STM32F7xx_HAL_Driver/Src/stm32f7xx_hal_dma2d.c ****         {
1452:Drivers/STM32F7xx_HAL_Driver/Src/stm32f7xx_hal_dma2d.c ****           hdma2d->ErrorCode |= HAL_DMA2D_ERROR_CAE;
 2303              		.loc 1 1452 29
 2304 0110 7B68     		ldr	r3, [r7, #4]
 2305 0112 DB6B     		ldr	r3, [r3, #60]
 2306 0114 43F00402 		orr	r2, r3, #4
 2307 0118 7B68     		ldr	r3, [r7, #4]
 2308 011a DA63     		str	r2, [r3, #60]
 2309              	.L112:
1453:Drivers/STM32F7xx_HAL_Driver/Src/stm32f7xx_hal_dma2d.c ****         }
1454:Drivers/STM32F7xx_HAL_Driver/Src/stm32f7xx_hal_dma2d.c ****         if ((isrflags & DMA2D_FLAG_CE) != 0U)
 2310              		.loc 1 1454 23
 2311 011c FB68     		ldr	r3, [r7, #12]
 2312 011e 03F02003 		and	r3, r3, #32
 2313              		.loc 1 1454 12
 2314 0122 002B     		cmp	r3, #0
 2315 0124 05D0     		beq	.L113
1455:Drivers/STM32F7xx_HAL_Driver/Src/stm32f7xx_hal_dma2d.c ****         {
1456:Drivers/STM32F7xx_HAL_Driver/Src/stm32f7xx_hal_dma2d.c ****           hdma2d->ErrorCode |= HAL_DMA2D_ERROR_CE;
 2316              		.loc 1 1456 29
 2317 0126 7B68     		ldr	r3, [r7, #4]
 2318 0128 DB6B     		ldr	r3, [r3, #60]
 2319 012a 43F00202 		orr	r2, r3, #2
 2320 012e 7B68     		ldr	r3, [r7, #4]
 2321 0130 DA63     		str	r2, [r3, #60]
 2322              	.L113:
1457:Drivers/STM32F7xx_HAL_Driver/Src/stm32f7xx_hal_dma2d.c ****         }
1458:Drivers/STM32F7xx_HAL_Driver/Src/stm32f7xx_hal_dma2d.c ****         if ((isrflags & DMA2D_FLAG_TE) != 0U)
 2323              		.loc 1 1458 23
 2324 0132 FB68     		ldr	r3, [r7, #12]
 2325 0134 03F00103 		and	r3, r3, #1
 2326              		.loc 1 1458 12
 2327 0138 002B     		cmp	r3, #0
 2328 013a 05D0     		beq	.L114
1459:Drivers/STM32F7xx_HAL_Driver/Src/stm32f7xx_hal_dma2d.c ****         {
ARM GAS  C:\Users\jisu8\AppData\Local\Temp\ccmlnG2o.s 			page 67


1460:Drivers/STM32F7xx_HAL_Driver/Src/stm32f7xx_hal_dma2d.c ****           hdma2d->ErrorCode |= HAL_DMA2D_ERROR_TE;
 2329              		.loc 1 1460 29
 2330 013c 7B68     		ldr	r3, [r7, #4]
 2331 013e DB6B     		ldr	r3, [r3, #60]
 2332 0140 43F00102 		orr	r2, r3, #1
 2333 0144 7B68     		ldr	r3, [r7, #4]
 2334 0146 DA63     		str	r2, [r3, #60]
 2335              	.L114:
1461:Drivers/STM32F7xx_HAL_Driver/Src/stm32f7xx_hal_dma2d.c ****         }
1462:Drivers/STM32F7xx_HAL_Driver/Src/stm32f7xx_hal_dma2d.c ****         /* Clear the CLUT Access Error, Configuration Error and Transfer Error flags */
1463:Drivers/STM32F7xx_HAL_Driver/Src/stm32f7xx_hal_dma2d.c ****         __HAL_DMA2D_CLEAR_FLAG(hdma2d, DMA2D_FLAG_CAE | DMA2D_FLAG_CE | DMA2D_FLAG_TE);
 2336              		.loc 1 1463 9
 2337 0148 7B68     		ldr	r3, [r7, #4]
 2338 014a 1B68     		ldr	r3, [r3]
 2339 014c 2922     		movs	r2, #41
 2340 014e 9A60     		str	r2, [r3, #8]
1464:Drivers/STM32F7xx_HAL_Driver/Src/stm32f7xx_hal_dma2d.c **** 
1465:Drivers/STM32F7xx_HAL_Driver/Src/stm32f7xx_hal_dma2d.c ****         /* Change DMA2D state */
1466:Drivers/STM32F7xx_HAL_Driver/Src/stm32f7xx_hal_dma2d.c ****         hdma2d->State = HAL_DMA2D_STATE_ERROR;
 2341              		.loc 1 1466 23
 2342 0150 7B68     		ldr	r3, [r7, #4]
 2343 0152 0422     		movs	r2, #4
 2344 0154 83F83920 		strb	r2, [r3, #57]
1467:Drivers/STM32F7xx_HAL_Driver/Src/stm32f7xx_hal_dma2d.c **** 
1468:Drivers/STM32F7xx_HAL_Driver/Src/stm32f7xx_hal_dma2d.c ****         /* Process unlocked */
1469:Drivers/STM32F7xx_HAL_Driver/Src/stm32f7xx_hal_dma2d.c ****         __HAL_UNLOCK(hdma2d);
 2345              		.loc 1 1469 9
 2346 0158 7B68     		ldr	r3, [r7, #4]
 2347 015a 0022     		movs	r2, #0
 2348 015c 83F83820 		strb	r2, [r3, #56]
1470:Drivers/STM32F7xx_HAL_Driver/Src/stm32f7xx_hal_dma2d.c **** 
1471:Drivers/STM32F7xx_HAL_Driver/Src/stm32f7xx_hal_dma2d.c ****         return HAL_ERROR;
 2349              		.loc 1 1471 16
 2350 0160 0123     		movs	r3, #1
 2351 0162 32E0     		b	.L106
 2352              	.L111:
1472:Drivers/STM32F7xx_HAL_Driver/Src/stm32f7xx_hal_dma2d.c ****       }
1473:Drivers/STM32F7xx_HAL_Driver/Src/stm32f7xx_hal_dma2d.c ****       /* Check for the Timeout */
1474:Drivers/STM32F7xx_HAL_Driver/Src/stm32f7xx_hal_dma2d.c ****       if (Timeout != HAL_MAX_DELAY)
 2353              		.loc 1 1474 10
 2354 0164 3B68     		ldr	r3, [r7]
 2355 0166 B3F1FF3F 		cmp	r3, #-1
 2356 016a 1AD0     		beq	.L110
1475:Drivers/STM32F7xx_HAL_Driver/Src/stm32f7xx_hal_dma2d.c ****       {
1476:Drivers/STM32F7xx_HAL_Driver/Src/stm32f7xx_hal_dma2d.c ****         if (((HAL_GetTick() - tickstart) > Timeout) || (Timeout == 0U))
 2357              		.loc 1 1476 15
 2358 016c FFF7FEFF 		bl	HAL_GetTick
 2359 0170 0246     		mov	r2, r0
 2360              		.loc 1 1476 29
 2361 0172 7B69     		ldr	r3, [r7, #20]
 2362 0174 D31A     		subs	r3, r2, r3
 2363              		.loc 1 1476 12
 2364 0176 3A68     		ldr	r2, [r7]
 2365 0178 9A42     		cmp	r2, r3
 2366 017a 02D3     		bcc	.L115
 2367              		.loc 1 1476 53 discriminator 1
 2368 017c 3B68     		ldr	r3, [r7]
ARM GAS  C:\Users\jisu8\AppData\Local\Temp\ccmlnG2o.s 			page 68


 2369 017e 002B     		cmp	r3, #0
 2370 0180 0FD1     		bne	.L110
 2371              	.L115:
1477:Drivers/STM32F7xx_HAL_Driver/Src/stm32f7xx_hal_dma2d.c ****         {
1478:Drivers/STM32F7xx_HAL_Driver/Src/stm32f7xx_hal_dma2d.c ****           /* Update error code */
1479:Drivers/STM32F7xx_HAL_Driver/Src/stm32f7xx_hal_dma2d.c ****           hdma2d->ErrorCode |= HAL_DMA2D_ERROR_TIMEOUT;
 2372              		.loc 1 1479 29
 2373 0182 7B68     		ldr	r3, [r7, #4]
 2374 0184 DB6B     		ldr	r3, [r3, #60]
 2375 0186 43F02002 		orr	r2, r3, #32
 2376 018a 7B68     		ldr	r3, [r7, #4]
 2377 018c DA63     		str	r2, [r3, #60]
1480:Drivers/STM32F7xx_HAL_Driver/Src/stm32f7xx_hal_dma2d.c **** 
1481:Drivers/STM32F7xx_HAL_Driver/Src/stm32f7xx_hal_dma2d.c ****           /* Change the DMA2D state */
1482:Drivers/STM32F7xx_HAL_Driver/Src/stm32f7xx_hal_dma2d.c ****           hdma2d->State = HAL_DMA2D_STATE_TIMEOUT;
 2378              		.loc 1 1482 25
 2379 018e 7B68     		ldr	r3, [r7, #4]
 2380 0190 0322     		movs	r2, #3
 2381 0192 83F83920 		strb	r2, [r3, #57]
1483:Drivers/STM32F7xx_HAL_Driver/Src/stm32f7xx_hal_dma2d.c **** 
1484:Drivers/STM32F7xx_HAL_Driver/Src/stm32f7xx_hal_dma2d.c ****           /* Process unlocked */
1485:Drivers/STM32F7xx_HAL_Driver/Src/stm32f7xx_hal_dma2d.c ****           __HAL_UNLOCK(hdma2d);
 2382              		.loc 1 1485 11
 2383 0196 7B68     		ldr	r3, [r7, #4]
 2384 0198 0022     		movs	r2, #0
 2385 019a 83F83820 		strb	r2, [r3, #56]
1486:Drivers/STM32F7xx_HAL_Driver/Src/stm32f7xx_hal_dma2d.c **** 
1487:Drivers/STM32F7xx_HAL_Driver/Src/stm32f7xx_hal_dma2d.c ****           return HAL_TIMEOUT;
 2386              		.loc 1 1487 18
 2387 019e 0323     		movs	r3, #3
 2388 01a0 13E0     		b	.L106
 2389              	.L110:
1445:Drivers/STM32F7xx_HAL_Driver/Src/stm32f7xx_hal_dma2d.c ****     {
 2390              		.loc 1 1445 12
 2391 01a2 7B68     		ldr	r3, [r7, #4]
 2392 01a4 1B68     		ldr	r3, [r3]
 2393 01a6 5B68     		ldr	r3, [r3, #4]
 2394 01a8 03F01003 		and	r3, r3, #16
1445:Drivers/STM32F7xx_HAL_Driver/Src/stm32f7xx_hal_dma2d.c ****     {
 2395              		.loc 1 1445 11
 2396 01ac 002B     		cmp	r3, #0
 2397 01ae A1D0     		beq	.L116
 2398              	.L109:
1488:Drivers/STM32F7xx_HAL_Driver/Src/stm32f7xx_hal_dma2d.c ****         }
1489:Drivers/STM32F7xx_HAL_Driver/Src/stm32f7xx_hal_dma2d.c ****       }
1490:Drivers/STM32F7xx_HAL_Driver/Src/stm32f7xx_hal_dma2d.c ****     }
1491:Drivers/STM32F7xx_HAL_Driver/Src/stm32f7xx_hal_dma2d.c ****   }
1492:Drivers/STM32F7xx_HAL_Driver/Src/stm32f7xx_hal_dma2d.c **** 
1493:Drivers/STM32F7xx_HAL_Driver/Src/stm32f7xx_hal_dma2d.c ****   /* Clear the transfer complete and CLUT loading flags */
1494:Drivers/STM32F7xx_HAL_Driver/Src/stm32f7xx_hal_dma2d.c ****   __HAL_DMA2D_CLEAR_FLAG(hdma2d, DMA2D_FLAG_TC | DMA2D_FLAG_CTC);
 2399              		.loc 1 1494 3
 2400 01b0 7B68     		ldr	r3, [r7, #4]
 2401 01b2 1B68     		ldr	r3, [r3]
 2402 01b4 1222     		movs	r2, #18
 2403 01b6 9A60     		str	r2, [r3, #8]
1495:Drivers/STM32F7xx_HAL_Driver/Src/stm32f7xx_hal_dma2d.c **** 
1496:Drivers/STM32F7xx_HAL_Driver/Src/stm32f7xx_hal_dma2d.c ****   /* Change DMA2D state */
ARM GAS  C:\Users\jisu8\AppData\Local\Temp\ccmlnG2o.s 			page 69


1497:Drivers/STM32F7xx_HAL_Driver/Src/stm32f7xx_hal_dma2d.c ****   hdma2d->State = HAL_DMA2D_STATE_READY;
 2404              		.loc 1 1497 17
 2405 01b8 7B68     		ldr	r3, [r7, #4]
 2406 01ba 0122     		movs	r2, #1
 2407 01bc 83F83920 		strb	r2, [r3, #57]
1498:Drivers/STM32F7xx_HAL_Driver/Src/stm32f7xx_hal_dma2d.c **** 
1499:Drivers/STM32F7xx_HAL_Driver/Src/stm32f7xx_hal_dma2d.c ****   /* Process unlocked */
1500:Drivers/STM32F7xx_HAL_Driver/Src/stm32f7xx_hal_dma2d.c ****   __HAL_UNLOCK(hdma2d);
 2408              		.loc 1 1500 3
 2409 01c0 7B68     		ldr	r3, [r7, #4]
 2410 01c2 0022     		movs	r2, #0
 2411 01c4 83F83820 		strb	r2, [r3, #56]
1501:Drivers/STM32F7xx_HAL_Driver/Src/stm32f7xx_hal_dma2d.c **** 
1502:Drivers/STM32F7xx_HAL_Driver/Src/stm32f7xx_hal_dma2d.c ****   return HAL_OK;
 2412              		.loc 1 1502 10
 2413 01c8 0023     		movs	r3, #0
 2414              	.L106:
1503:Drivers/STM32F7xx_HAL_Driver/Src/stm32f7xx_hal_dma2d.c **** }
 2415              		.loc 1 1503 1
 2416 01ca 1846     		mov	r0, r3
 2417 01cc 1837     		adds	r7, r7, #24
 2418              	.LCFI107:
 2419              		.cfi_def_cfa_offset 8
 2420 01ce BD46     		mov	sp, r7
 2421              	.LCFI108:
 2422              		.cfi_def_cfa_register 13
 2423              		@ sp needed
 2424 01d0 80BD     		pop	{r7, pc}
 2425              		.cfi_endproc
 2426              	.LFE160:
 2428              		.section	.text.HAL_DMA2D_IRQHandler,"ax",%progbits
 2429              		.align	1
 2430              		.global	HAL_DMA2D_IRQHandler
 2431              		.syntax unified
 2432              		.thumb
 2433              		.thumb_func
 2435              	HAL_DMA2D_IRQHandler:
 2436              	.LFB161:
1504:Drivers/STM32F7xx_HAL_Driver/Src/stm32f7xx_hal_dma2d.c **** /**
1505:Drivers/STM32F7xx_HAL_Driver/Src/stm32f7xx_hal_dma2d.c ****   * @brief  Handle DMA2D interrupt request.
1506:Drivers/STM32F7xx_HAL_Driver/Src/stm32f7xx_hal_dma2d.c ****   * @param  hdma2d Pointer to a DMA2D_HandleTypeDef structure that contains
1507:Drivers/STM32F7xx_HAL_Driver/Src/stm32f7xx_hal_dma2d.c ****   *                 the configuration information for the DMA2D.
1508:Drivers/STM32F7xx_HAL_Driver/Src/stm32f7xx_hal_dma2d.c ****   * @retval HAL status
1509:Drivers/STM32F7xx_HAL_Driver/Src/stm32f7xx_hal_dma2d.c ****   */
1510:Drivers/STM32F7xx_HAL_Driver/Src/stm32f7xx_hal_dma2d.c **** void HAL_DMA2D_IRQHandler(DMA2D_HandleTypeDef *hdma2d)
1511:Drivers/STM32F7xx_HAL_Driver/Src/stm32f7xx_hal_dma2d.c **** {
 2437              		.loc 1 1511 1
 2438              		.cfi_startproc
 2439              		@ args = 0, pretend = 0, frame = 16
 2440              		@ frame_needed = 1, uses_anonymous_args = 0
 2441 0000 80B5     		push	{r7, lr}
 2442              	.LCFI109:
 2443              		.cfi_def_cfa_offset 8
 2444              		.cfi_offset 7, -8
 2445              		.cfi_offset 14, -4
 2446 0002 84B0     		sub	sp, sp, #16
 2447              	.LCFI110:
ARM GAS  C:\Users\jisu8\AppData\Local\Temp\ccmlnG2o.s 			page 70


 2448              		.cfi_def_cfa_offset 24
 2449 0004 00AF     		add	r7, sp, #0
 2450              	.LCFI111:
 2451              		.cfi_def_cfa_register 7
 2452 0006 7860     		str	r0, [r7, #4]
1512:Drivers/STM32F7xx_HAL_Driver/Src/stm32f7xx_hal_dma2d.c ****   uint32_t isrflags = READ_REG(hdma2d->Instance->ISR);
 2453              		.loc 1 1512 23
 2454 0008 7B68     		ldr	r3, [r7, #4]
 2455 000a 1B68     		ldr	r3, [r3]
 2456              		.loc 1 1512 12
 2457 000c 5B68     		ldr	r3, [r3, #4]
 2458 000e FB60     		str	r3, [r7, #12]
1513:Drivers/STM32F7xx_HAL_Driver/Src/stm32f7xx_hal_dma2d.c ****   uint32_t crflags = READ_REG(hdma2d->Instance->CR);
 2459              		.loc 1 1513 22
 2460 0010 7B68     		ldr	r3, [r7, #4]
 2461 0012 1B68     		ldr	r3, [r3]
 2462              		.loc 1 1513 12
 2463 0014 1B68     		ldr	r3, [r3]
 2464 0016 BB60     		str	r3, [r7, #8]
1514:Drivers/STM32F7xx_HAL_Driver/Src/stm32f7xx_hal_dma2d.c **** 
1515:Drivers/STM32F7xx_HAL_Driver/Src/stm32f7xx_hal_dma2d.c ****   /* Transfer Error Interrupt management ***************************************/
1516:Drivers/STM32F7xx_HAL_Driver/Src/stm32f7xx_hal_dma2d.c ****   if ((isrflags & DMA2D_FLAG_TE) != 0U)
 2465              		.loc 1 1516 17
 2466 0018 FB68     		ldr	r3, [r7, #12]
 2467 001a 03F00103 		and	r3, r3, #1
 2468              		.loc 1 1516 6
 2469 001e 002B     		cmp	r3, #0
 2470 0020 26D0     		beq	.L118
1517:Drivers/STM32F7xx_HAL_Driver/Src/stm32f7xx_hal_dma2d.c ****   {
1518:Drivers/STM32F7xx_HAL_Driver/Src/stm32f7xx_hal_dma2d.c ****     if ((crflags & DMA2D_IT_TE) != 0U)
 2471              		.loc 1 1518 18
 2472 0022 BB68     		ldr	r3, [r7, #8]
 2473 0024 03F48073 		and	r3, r3, #256
 2474              		.loc 1 1518 8
 2475 0028 002B     		cmp	r3, #0
 2476 002a 21D0     		beq	.L118
1519:Drivers/STM32F7xx_HAL_Driver/Src/stm32f7xx_hal_dma2d.c ****     {
1520:Drivers/STM32F7xx_HAL_Driver/Src/stm32f7xx_hal_dma2d.c ****       /* Disable the transfer Error interrupt */
1521:Drivers/STM32F7xx_HAL_Driver/Src/stm32f7xx_hal_dma2d.c ****       __HAL_DMA2D_DISABLE_IT(hdma2d, DMA2D_IT_TE);
 2477              		.loc 1 1521 7
 2478 002c 7B68     		ldr	r3, [r7, #4]
 2479 002e 1B68     		ldr	r3, [r3]
 2480 0030 1A68     		ldr	r2, [r3]
 2481 0032 7B68     		ldr	r3, [r7, #4]
 2482 0034 1B68     		ldr	r3, [r3]
 2483 0036 22F48072 		bic	r2, r2, #256
 2484 003a 1A60     		str	r2, [r3]
1522:Drivers/STM32F7xx_HAL_Driver/Src/stm32f7xx_hal_dma2d.c **** 
