ARM GAS  C:\Users\jisu8\AppData\Local\Temp\ccA6Ygqq.s 			page 1


   1              		.cpu cortex-m7
   2              		.arch armv7e-m
   3              		.fpu fpv5-sp-d16
   4              		.eabi_attribute 27, 1
   5              		.eabi_attribute 28, 1
   6              		.eabi_attribute 20, 1
   7              		.eabi_attribute 21, 1
   8              		.eabi_attribute 23, 3
   9              		.eabi_attribute 24, 1
  10              		.eabi_attribute 25, 1
  11              		.eabi_attribute 26, 1
  12              		.eabi_attribute 30, 6
  13              		.eabi_attribute 34, 1
  14              		.eabi_attribute 18, 4
  15              		.file	"stm32f7xx_hal_qspi.c"
  16              		.text
  17              	.Ltext0:
  18              		.cfi_sections	.debug_frame
  19              		.section	.text.HAL_QSPI_Init,"ax",%progbits
  20              		.align	1
  21              		.global	HAL_QSPI_Init
  22              		.syntax unified
  23              		.thumb
  24              		.thumb_func
  26              	HAL_QSPI_Init:
  27              	.LFB141:
  28              		.file 1 "Drivers/STM32F7xx_HAL_Driver/Src/stm32f7xx_hal_qspi.c"
   1:Drivers/STM32F7xx_HAL_Driver/Src/stm32f7xx_hal_qspi.c **** /**
   2:Drivers/STM32F7xx_HAL_Driver/Src/stm32f7xx_hal_qspi.c ****   ******************************************************************************
   3:Drivers/STM32F7xx_HAL_Driver/Src/stm32f7xx_hal_qspi.c ****   * @file    stm32f7xx_hal_qspi.c
   4:Drivers/STM32F7xx_HAL_Driver/Src/stm32f7xx_hal_qspi.c ****   * @author  MCD Application Team
   5:Drivers/STM32F7xx_HAL_Driver/Src/stm32f7xx_hal_qspi.c ****   * @brief   QSPI HAL module driver.
   6:Drivers/STM32F7xx_HAL_Driver/Src/stm32f7xx_hal_qspi.c ****   *          This file provides firmware functions to manage the following
   7:Drivers/STM32F7xx_HAL_Driver/Src/stm32f7xx_hal_qspi.c ****   *          functionalities of the QuadSPI interface (QSPI).
   8:Drivers/STM32F7xx_HAL_Driver/Src/stm32f7xx_hal_qspi.c ****   *           + Initialization and de-initialization functions
   9:Drivers/STM32F7xx_HAL_Driver/Src/stm32f7xx_hal_qspi.c ****   *           + Indirect functional mode management
  10:Drivers/STM32F7xx_HAL_Driver/Src/stm32f7xx_hal_qspi.c ****   *           + Memory-mapped functional mode management
  11:Drivers/STM32F7xx_HAL_Driver/Src/stm32f7xx_hal_qspi.c ****   *           + Auto-polling functional mode management
  12:Drivers/STM32F7xx_HAL_Driver/Src/stm32f7xx_hal_qspi.c ****   *           + Interrupts and flags management
  13:Drivers/STM32F7xx_HAL_Driver/Src/stm32f7xx_hal_qspi.c ****   *           + DMA channel configuration for indirect functional mode
  14:Drivers/STM32F7xx_HAL_Driver/Src/stm32f7xx_hal_qspi.c ****   *           + Errors management and abort functionality
  15:Drivers/STM32F7xx_HAL_Driver/Src/stm32f7xx_hal_qspi.c ****   *
  16:Drivers/STM32F7xx_HAL_Driver/Src/stm32f7xx_hal_qspi.c ****   *
  17:Drivers/STM32F7xx_HAL_Driver/Src/stm32f7xx_hal_qspi.c ****   ******************************************************************************
  18:Drivers/STM32F7xx_HAL_Driver/Src/stm32f7xx_hal_qspi.c ****   * @attention
  19:Drivers/STM32F7xx_HAL_Driver/Src/stm32f7xx_hal_qspi.c ****   *
  20:Drivers/STM32F7xx_HAL_Driver/Src/stm32f7xx_hal_qspi.c ****   * Copyright (c) 2017 STMicroelectronics.
  21:Drivers/STM32F7xx_HAL_Driver/Src/stm32f7xx_hal_qspi.c ****   * All rights reserved.
  22:Drivers/STM32F7xx_HAL_Driver/Src/stm32f7xx_hal_qspi.c ****   *
  23:Drivers/STM32F7xx_HAL_Driver/Src/stm32f7xx_hal_qspi.c ****   * This software is licensed under terms that can be found in the LICENSE file
  24:Drivers/STM32F7xx_HAL_Driver/Src/stm32f7xx_hal_qspi.c ****   * in the root directory of this software component.
  25:Drivers/STM32F7xx_HAL_Driver/Src/stm32f7xx_hal_qspi.c ****   * If no LICENSE file comes with this software, it is provided AS-IS.
  26:Drivers/STM32F7xx_HAL_Driver/Src/stm32f7xx_hal_qspi.c ****   *
  27:Drivers/STM32F7xx_HAL_Driver/Src/stm32f7xx_hal_qspi.c ****   ******************************************************************************
  28:Drivers/STM32F7xx_HAL_Driver/Src/stm32f7xx_hal_qspi.c ****   @verbatim
  29:Drivers/STM32F7xx_HAL_Driver/Src/stm32f7xx_hal_qspi.c ****  ===============================================================================
  30:Drivers/STM32F7xx_HAL_Driver/Src/stm32f7xx_hal_qspi.c ****                         ##### How to use this driver #####
ARM GAS  C:\Users\jisu8\AppData\Local\Temp\ccA6Ygqq.s 			page 2


  31:Drivers/STM32F7xx_HAL_Driver/Src/stm32f7xx_hal_qspi.c ****  ===============================================================================
  32:Drivers/STM32F7xx_HAL_Driver/Src/stm32f7xx_hal_qspi.c ****   [..]
  33:Drivers/STM32F7xx_HAL_Driver/Src/stm32f7xx_hal_qspi.c ****     *** Initialization ***
  34:Drivers/STM32F7xx_HAL_Driver/Src/stm32f7xx_hal_qspi.c ****     ======================
  35:Drivers/STM32F7xx_HAL_Driver/Src/stm32f7xx_hal_qspi.c ****     [..]
  36:Drivers/STM32F7xx_HAL_Driver/Src/stm32f7xx_hal_qspi.c ****       (#) As prerequisite, fill in the HAL_QSPI_MspInit() :
  37:Drivers/STM32F7xx_HAL_Driver/Src/stm32f7xx_hal_qspi.c ****         (++) Enable QuadSPI clock interface with __HAL_RCC_QSPI_CLK_ENABLE().
  38:Drivers/STM32F7xx_HAL_Driver/Src/stm32f7xx_hal_qspi.c ****         (++) Reset QuadSPI Peripheral with __HAL_RCC_QSPI_FORCE_RESET() and __HAL_RCC_QSPI_RELEASE_
  39:Drivers/STM32F7xx_HAL_Driver/Src/stm32f7xx_hal_qspi.c ****         (++) Enable the clocks for the QuadSPI GPIOS with __HAL_RCC_GPIOx_CLK_ENABLE().
  40:Drivers/STM32F7xx_HAL_Driver/Src/stm32f7xx_hal_qspi.c ****         (++) Configure these QuadSPI pins in alternate mode using HAL_GPIO_Init().
  41:Drivers/STM32F7xx_HAL_Driver/Src/stm32f7xx_hal_qspi.c ****         (++) If interrupt mode is used, enable and configure QuadSPI global
  42:Drivers/STM32F7xx_HAL_Driver/Src/stm32f7xx_hal_qspi.c ****             interrupt with HAL_NVIC_SetPriority() and HAL_NVIC_EnableIRQ().
  43:Drivers/STM32F7xx_HAL_Driver/Src/stm32f7xx_hal_qspi.c ****         (++) If DMA mode is used, enable the clocks for the QuadSPI DMA channel
  44:Drivers/STM32F7xx_HAL_Driver/Src/stm32f7xx_hal_qspi.c ****             with __HAL_RCC_DMAx_CLK_ENABLE(), configure DMA with HAL_DMA_Init(),
  45:Drivers/STM32F7xx_HAL_Driver/Src/stm32f7xx_hal_qspi.c ****             link it with QuadSPI handle using __HAL_LINKDMA(), enable and configure
  46:Drivers/STM32F7xx_HAL_Driver/Src/stm32f7xx_hal_qspi.c ****             DMA channel global interrupt with HAL_NVIC_SetPriority() and HAL_NVIC_EnableIRQ().
  47:Drivers/STM32F7xx_HAL_Driver/Src/stm32f7xx_hal_qspi.c ****       (#) Configure the flash size, the clock prescaler, the fifo threshold, the
  48:Drivers/STM32F7xx_HAL_Driver/Src/stm32f7xx_hal_qspi.c ****           clock mode, the sample shifting and the CS high time using the HAL_QSPI_Init() function.
  49:Drivers/STM32F7xx_HAL_Driver/Src/stm32f7xx_hal_qspi.c **** 
  50:Drivers/STM32F7xx_HAL_Driver/Src/stm32f7xx_hal_qspi.c ****     *** Indirect functional mode ***
  51:Drivers/STM32F7xx_HAL_Driver/Src/stm32f7xx_hal_qspi.c ****     ================================
  52:Drivers/STM32F7xx_HAL_Driver/Src/stm32f7xx_hal_qspi.c ****     [..]
  53:Drivers/STM32F7xx_HAL_Driver/Src/stm32f7xx_hal_qspi.c ****       (#) Configure the command sequence using the HAL_QSPI_Command() or HAL_QSPI_Command_IT()
  54:Drivers/STM32F7xx_HAL_Driver/Src/stm32f7xx_hal_qspi.c ****           functions :
  55:Drivers/STM32F7xx_HAL_Driver/Src/stm32f7xx_hal_qspi.c ****          (++) Instruction phase : the mode used and if present the instruction opcode.
  56:Drivers/STM32F7xx_HAL_Driver/Src/stm32f7xx_hal_qspi.c ****          (++) Address phase : the mode used and if present the size and the address value.
  57:Drivers/STM32F7xx_HAL_Driver/Src/stm32f7xx_hal_qspi.c ****          (++) Alternate-bytes phase : the mode used and if present the size and the alternate
  58:Drivers/STM32F7xx_HAL_Driver/Src/stm32f7xx_hal_qspi.c ****              bytes values.
  59:Drivers/STM32F7xx_HAL_Driver/Src/stm32f7xx_hal_qspi.c ****          (++) Dummy-cycles phase : the number of dummy cycles (mode used is same as data phase).
  60:Drivers/STM32F7xx_HAL_Driver/Src/stm32f7xx_hal_qspi.c ****          (++) Data phase : the mode used and if present the number of bytes.
  61:Drivers/STM32F7xx_HAL_Driver/Src/stm32f7xx_hal_qspi.c ****          (++) Double Data Rate (DDR) mode : the activation (or not) of this mode and the delay
  62:Drivers/STM32F7xx_HAL_Driver/Src/stm32f7xx_hal_qspi.c ****              if activated.
  63:Drivers/STM32F7xx_HAL_Driver/Src/stm32f7xx_hal_qspi.c ****          (++) Sending Instruction Only Once (SIOO) mode : the activation (or not) of this mode.
  64:Drivers/STM32F7xx_HAL_Driver/Src/stm32f7xx_hal_qspi.c ****       (#) If no data is required for the command, it is sent directly to the memory :
  65:Drivers/STM32F7xx_HAL_Driver/Src/stm32f7xx_hal_qspi.c ****          (++) In polling mode, the output of the function is done when the transfer is complete.
  66:Drivers/STM32F7xx_HAL_Driver/Src/stm32f7xx_hal_qspi.c ****          (++) In interrupt mode, HAL_QSPI_CmdCpltCallback() will be called when the transfer is com
  67:Drivers/STM32F7xx_HAL_Driver/Src/stm32f7xx_hal_qspi.c ****       (#) For the indirect write mode, use HAL_QSPI_Transmit(), HAL_QSPI_Transmit_DMA() or
  68:Drivers/STM32F7xx_HAL_Driver/Src/stm32f7xx_hal_qspi.c ****           HAL_QSPI_Transmit_IT() after the command configuration :
  69:Drivers/STM32F7xx_HAL_Driver/Src/stm32f7xx_hal_qspi.c ****          (++) In polling mode, the output of the function is done when the transfer is complete.
  70:Drivers/STM32F7xx_HAL_Driver/Src/stm32f7xx_hal_qspi.c ****          (++) In interrupt mode, HAL_QSPI_FifoThresholdCallback() will be called when the fifo thre
  71:Drivers/STM32F7xx_HAL_Driver/Src/stm32f7xx_hal_qspi.c ****              is reached and HAL_QSPI_TxCpltCallback() will be called when the transfer is complete.
  72:Drivers/STM32F7xx_HAL_Driver/Src/stm32f7xx_hal_qspi.c ****          (++) In DMA mode, HAL_QSPI_TxHalfCpltCallback() will be called at the half transfer and
  73:Drivers/STM32F7xx_HAL_Driver/Src/stm32f7xx_hal_qspi.c ****              HAL_QSPI_TxCpltCallback() will be called when the transfer is complete.
  74:Drivers/STM32F7xx_HAL_Driver/Src/stm32f7xx_hal_qspi.c ****       (#) For the indirect read mode, use HAL_QSPI_Receive(), HAL_QSPI_Receive_DMA() or
  75:Drivers/STM32F7xx_HAL_Driver/Src/stm32f7xx_hal_qspi.c ****           HAL_QSPI_Receive_IT() after the command configuration :
  76:Drivers/STM32F7xx_HAL_Driver/Src/stm32f7xx_hal_qspi.c ****          (++) In polling mode, the output of the function is done when the transfer is complete.
  77:Drivers/STM32F7xx_HAL_Driver/Src/stm32f7xx_hal_qspi.c ****          (++) In interrupt mode, HAL_QSPI_FifoThresholdCallback() will be called when the fifo thre
  78:Drivers/STM32F7xx_HAL_Driver/Src/stm32f7xx_hal_qspi.c ****              is reached and HAL_QSPI_RxCpltCallback() will be called when the transfer is complete.
  79:Drivers/STM32F7xx_HAL_Driver/Src/stm32f7xx_hal_qspi.c ****          (++) In DMA mode, HAL_QSPI_RxHalfCpltCallback() will be called at the half transfer and
  80:Drivers/STM32F7xx_HAL_Driver/Src/stm32f7xx_hal_qspi.c ****              HAL_QSPI_RxCpltCallback() will be called when the transfer is complete.
  81:Drivers/STM32F7xx_HAL_Driver/Src/stm32f7xx_hal_qspi.c **** 
  82:Drivers/STM32F7xx_HAL_Driver/Src/stm32f7xx_hal_qspi.c ****     *** Auto-polling functional mode ***
  83:Drivers/STM32F7xx_HAL_Driver/Src/stm32f7xx_hal_qspi.c ****     ====================================
  84:Drivers/STM32F7xx_HAL_Driver/Src/stm32f7xx_hal_qspi.c ****     [..]
  85:Drivers/STM32F7xx_HAL_Driver/Src/stm32f7xx_hal_qspi.c ****       (#) Configure the command sequence and the auto-polling functional mode using the
  86:Drivers/STM32F7xx_HAL_Driver/Src/stm32f7xx_hal_qspi.c ****           HAL_QSPI_AutoPolling() or HAL_QSPI_AutoPolling_IT() functions :
  87:Drivers/STM32F7xx_HAL_Driver/Src/stm32f7xx_hal_qspi.c ****          (++) Instruction phase : the mode used and if present the instruction opcode.
ARM GAS  C:\Users\jisu8\AppData\Local\Temp\ccA6Ygqq.s 			page 3


  88:Drivers/STM32F7xx_HAL_Driver/Src/stm32f7xx_hal_qspi.c ****          (++) Address phase : the mode used and if present the size and the address value.
  89:Drivers/STM32F7xx_HAL_Driver/Src/stm32f7xx_hal_qspi.c ****          (++) Alternate-bytes phase : the mode used and if present the size and the alternate
  90:Drivers/STM32F7xx_HAL_Driver/Src/stm32f7xx_hal_qspi.c ****              bytes values.
  91:Drivers/STM32F7xx_HAL_Driver/Src/stm32f7xx_hal_qspi.c ****          (++) Dummy-cycles phase : the number of dummy cycles (mode used is same as data phase).
  92:Drivers/STM32F7xx_HAL_Driver/Src/stm32f7xx_hal_qspi.c ****          (++) Data phase : the mode used.
  93:Drivers/STM32F7xx_HAL_Driver/Src/stm32f7xx_hal_qspi.c ****          (++) Double Data Rate (DDR) mode : the activation (or not) of this mode and the delay
  94:Drivers/STM32F7xx_HAL_Driver/Src/stm32f7xx_hal_qspi.c ****              if activated.
  95:Drivers/STM32F7xx_HAL_Driver/Src/stm32f7xx_hal_qspi.c ****          (++) Sending Instruction Only Once (SIOO) mode : the activation (or not) of this mode.
  96:Drivers/STM32F7xx_HAL_Driver/Src/stm32f7xx_hal_qspi.c ****          (++) The size of the status bytes, the match value, the mask used, the match mode (OR/AND)
  97:Drivers/STM32F7xx_HAL_Driver/Src/stm32f7xx_hal_qspi.c ****              the polling interval and the automatic stop activation.
  98:Drivers/STM32F7xx_HAL_Driver/Src/stm32f7xx_hal_qspi.c ****       (#) After the configuration :
  99:Drivers/STM32F7xx_HAL_Driver/Src/stm32f7xx_hal_qspi.c ****          (++) In polling mode, the output of the function is done when the status match is reached.
 100:Drivers/STM32F7xx_HAL_Driver/Src/stm32f7xx_hal_qspi.c ****              automatic stop is activated to avoid an infinite loop.
 101:Drivers/STM32F7xx_HAL_Driver/Src/stm32f7xx_hal_qspi.c ****          (++) In interrupt mode, HAL_QSPI_StatusMatchCallback() will be called each time the status
 102:Drivers/STM32F7xx_HAL_Driver/Src/stm32f7xx_hal_qspi.c **** 
 103:Drivers/STM32F7xx_HAL_Driver/Src/stm32f7xx_hal_qspi.c ****     *** Memory-mapped functional mode ***
 104:Drivers/STM32F7xx_HAL_Driver/Src/stm32f7xx_hal_qspi.c ****     =====================================
 105:Drivers/STM32F7xx_HAL_Driver/Src/stm32f7xx_hal_qspi.c ****     [..]
 106:Drivers/STM32F7xx_HAL_Driver/Src/stm32f7xx_hal_qspi.c ****       (#) Configure the command sequence and the memory-mapped functional mode using the
 107:Drivers/STM32F7xx_HAL_Driver/Src/stm32f7xx_hal_qspi.c ****           HAL_QSPI_MemoryMapped() functions :
 108:Drivers/STM32F7xx_HAL_Driver/Src/stm32f7xx_hal_qspi.c ****          (++) Instruction phase : the mode used and if present the instruction opcode.
 109:Drivers/STM32F7xx_HAL_Driver/Src/stm32f7xx_hal_qspi.c ****          (++) Address phase : the mode used and the size.
 110:Drivers/STM32F7xx_HAL_Driver/Src/stm32f7xx_hal_qspi.c ****          (++) Alternate-bytes phase : the mode used and if present the size and the alternate
 111:Drivers/STM32F7xx_HAL_Driver/Src/stm32f7xx_hal_qspi.c ****              bytes values.
 112:Drivers/STM32F7xx_HAL_Driver/Src/stm32f7xx_hal_qspi.c ****          (++) Dummy-cycles phase : the number of dummy cycles (mode used is same as data phase).
 113:Drivers/STM32F7xx_HAL_Driver/Src/stm32f7xx_hal_qspi.c ****          (++) Data phase : the mode used.
 114:Drivers/STM32F7xx_HAL_Driver/Src/stm32f7xx_hal_qspi.c ****          (++) Double Data Rate (DDR) mode : the activation (or not) of this mode and the delay
 115:Drivers/STM32F7xx_HAL_Driver/Src/stm32f7xx_hal_qspi.c ****              if activated.
 116:Drivers/STM32F7xx_HAL_Driver/Src/stm32f7xx_hal_qspi.c ****          (++) Sending Instruction Only Once (SIOO) mode : the activation (or not) of this mode.
 117:Drivers/STM32F7xx_HAL_Driver/Src/stm32f7xx_hal_qspi.c ****          (++) The timeout activation and the timeout period.
 118:Drivers/STM32F7xx_HAL_Driver/Src/stm32f7xx_hal_qspi.c ****       (#) After the configuration, the QuadSPI will be used as soon as an access on the AHB is done
 119:Drivers/STM32F7xx_HAL_Driver/Src/stm32f7xx_hal_qspi.c ****           the address range. HAL_QSPI_TimeOutCallback() will be called when the timeout expires.
 120:Drivers/STM32F7xx_HAL_Driver/Src/stm32f7xx_hal_qspi.c **** 
 121:Drivers/STM32F7xx_HAL_Driver/Src/stm32f7xx_hal_qspi.c ****     *** Errors management and abort functionality ***
 122:Drivers/STM32F7xx_HAL_Driver/Src/stm32f7xx_hal_qspi.c ****     =================================================
 123:Drivers/STM32F7xx_HAL_Driver/Src/stm32f7xx_hal_qspi.c ****     [..]
 124:Drivers/STM32F7xx_HAL_Driver/Src/stm32f7xx_hal_qspi.c ****       (#) HAL_QSPI_GetError() function gives the error raised during the last operation.
 125:Drivers/STM32F7xx_HAL_Driver/Src/stm32f7xx_hal_qspi.c ****       (#) HAL_QSPI_Abort() and HAL_QSPI_Abort_IT() functions aborts any on-going operation and
 126:Drivers/STM32F7xx_HAL_Driver/Src/stm32f7xx_hal_qspi.c ****           flushes the fifo :
 127:Drivers/STM32F7xx_HAL_Driver/Src/stm32f7xx_hal_qspi.c ****          (++) In polling mode, the output of the function is done when the transfer
 128:Drivers/STM32F7xx_HAL_Driver/Src/stm32f7xx_hal_qspi.c ****               complete bit is set and the busy bit cleared.
 129:Drivers/STM32F7xx_HAL_Driver/Src/stm32f7xx_hal_qspi.c ****          (++) In interrupt mode, HAL_QSPI_AbortCpltCallback() will be called when
 130:Drivers/STM32F7xx_HAL_Driver/Src/stm32f7xx_hal_qspi.c ****               the transfer complete bit is set.
 131:Drivers/STM32F7xx_HAL_Driver/Src/stm32f7xx_hal_qspi.c **** 
 132:Drivers/STM32F7xx_HAL_Driver/Src/stm32f7xx_hal_qspi.c ****     *** Control functions ***
 133:Drivers/STM32F7xx_HAL_Driver/Src/stm32f7xx_hal_qspi.c ****     =========================
 134:Drivers/STM32F7xx_HAL_Driver/Src/stm32f7xx_hal_qspi.c ****     [..]
 135:Drivers/STM32F7xx_HAL_Driver/Src/stm32f7xx_hal_qspi.c ****       (#) HAL_QSPI_GetState() function gives the current state of the HAL QuadSPI driver.
 136:Drivers/STM32F7xx_HAL_Driver/Src/stm32f7xx_hal_qspi.c ****       (#) HAL_QSPI_SetTimeout() function configures the timeout value used in the driver.
 137:Drivers/STM32F7xx_HAL_Driver/Src/stm32f7xx_hal_qspi.c ****       (#) HAL_QSPI_SetFifoThreshold() function configures the threshold on the Fifo of the QSPI IP.
 138:Drivers/STM32F7xx_HAL_Driver/Src/stm32f7xx_hal_qspi.c ****       (#) HAL_QSPI_GetFifoThreshold() function gives the current of the Fifo's threshold
 139:Drivers/STM32F7xx_HAL_Driver/Src/stm32f7xx_hal_qspi.c ****       (#) HAL_QSPI_SetFlashID() function configures the index of the flash memory to be accessed.
 140:Drivers/STM32F7xx_HAL_Driver/Src/stm32f7xx_hal_qspi.c **** 
 141:Drivers/STM32F7xx_HAL_Driver/Src/stm32f7xx_hal_qspi.c ****     *** Callback registration ***
 142:Drivers/STM32F7xx_HAL_Driver/Src/stm32f7xx_hal_qspi.c ****     =============================================
 143:Drivers/STM32F7xx_HAL_Driver/Src/stm32f7xx_hal_qspi.c ****     [..]
 144:Drivers/STM32F7xx_HAL_Driver/Src/stm32f7xx_hal_qspi.c ****       The compilation define  USE_HAL_QSPI_REGISTER_CALLBACKS when set to 1
ARM GAS  C:\Users\jisu8\AppData\Local\Temp\ccA6Ygqq.s 			page 4


 145:Drivers/STM32F7xx_HAL_Driver/Src/stm32f7xx_hal_qspi.c ****       allows the user to configure dynamically the driver callbacks.
 146:Drivers/STM32F7xx_HAL_Driver/Src/stm32f7xx_hal_qspi.c **** 
 147:Drivers/STM32F7xx_HAL_Driver/Src/stm32f7xx_hal_qspi.c ****       Use Functions HAL_QSPI_RegisterCallback() to register a user callback,
 148:Drivers/STM32F7xx_HAL_Driver/Src/stm32f7xx_hal_qspi.c ****       it allows to register following callbacks:
 149:Drivers/STM32F7xx_HAL_Driver/Src/stm32f7xx_hal_qspi.c ****         (+) ErrorCallback : callback when error occurs.
 150:Drivers/STM32F7xx_HAL_Driver/Src/stm32f7xx_hal_qspi.c ****         (+) AbortCpltCallback : callback when abort is completed.
 151:Drivers/STM32F7xx_HAL_Driver/Src/stm32f7xx_hal_qspi.c ****         (+) FifoThresholdCallback : callback when the fifo threshold is reached.
 152:Drivers/STM32F7xx_HAL_Driver/Src/stm32f7xx_hal_qspi.c ****         (+) CmdCpltCallback : callback when a command without data is completed.
 153:Drivers/STM32F7xx_HAL_Driver/Src/stm32f7xx_hal_qspi.c ****         (+) RxCpltCallback : callback when a reception transfer is completed.
 154:Drivers/STM32F7xx_HAL_Driver/Src/stm32f7xx_hal_qspi.c ****         (+) TxCpltCallback : callback when a transmission transfer is completed.
 155:Drivers/STM32F7xx_HAL_Driver/Src/stm32f7xx_hal_qspi.c ****         (+) RxHalfCpltCallback : callback when half of the reception transfer is completed.
 156:Drivers/STM32F7xx_HAL_Driver/Src/stm32f7xx_hal_qspi.c ****         (+) TxHalfCpltCallback : callback when half of the transmission transfer is completed.
 157:Drivers/STM32F7xx_HAL_Driver/Src/stm32f7xx_hal_qspi.c ****         (+) StatusMatchCallback : callback when a status match occurs.
 158:Drivers/STM32F7xx_HAL_Driver/Src/stm32f7xx_hal_qspi.c ****         (+) TimeOutCallback : callback when the timeout perioed expires.
 159:Drivers/STM32F7xx_HAL_Driver/Src/stm32f7xx_hal_qspi.c ****         (+) MspInitCallback    : QSPI MspInit.
 160:Drivers/STM32F7xx_HAL_Driver/Src/stm32f7xx_hal_qspi.c ****         (+) MspDeInitCallback  : QSPI MspDeInit.
 161:Drivers/STM32F7xx_HAL_Driver/Src/stm32f7xx_hal_qspi.c ****       This function takes as parameters the HAL peripheral handle, the Callback ID
 162:Drivers/STM32F7xx_HAL_Driver/Src/stm32f7xx_hal_qspi.c ****       and a pointer to the user callback function.
 163:Drivers/STM32F7xx_HAL_Driver/Src/stm32f7xx_hal_qspi.c **** 
 164:Drivers/STM32F7xx_HAL_Driver/Src/stm32f7xx_hal_qspi.c ****       Use function HAL_QSPI_UnRegisterCallback() to reset a callback to the default
 165:Drivers/STM32F7xx_HAL_Driver/Src/stm32f7xx_hal_qspi.c ****       weak (surcharged) function. It allows to reset following callbacks:
 166:Drivers/STM32F7xx_HAL_Driver/Src/stm32f7xx_hal_qspi.c ****         (+) ErrorCallback : callback when error occurs.
 167:Drivers/STM32F7xx_HAL_Driver/Src/stm32f7xx_hal_qspi.c ****         (+) AbortCpltCallback : callback when abort is completed.
 168:Drivers/STM32F7xx_HAL_Driver/Src/stm32f7xx_hal_qspi.c ****         (+) FifoThresholdCallback : callback when the fifo threshold is reached.
 169:Drivers/STM32F7xx_HAL_Driver/Src/stm32f7xx_hal_qspi.c ****         (+) CmdCpltCallback : callback when a command without data is completed.
 170:Drivers/STM32F7xx_HAL_Driver/Src/stm32f7xx_hal_qspi.c ****         (+) RxCpltCallback : callback when a reception transfer is completed.
 171:Drivers/STM32F7xx_HAL_Driver/Src/stm32f7xx_hal_qspi.c ****         (+) TxCpltCallback : callback when a transmission transfer is completed.
 172:Drivers/STM32F7xx_HAL_Driver/Src/stm32f7xx_hal_qspi.c ****         (+) RxHalfCpltCallback : callback when half of the reception transfer is completed.
 173:Drivers/STM32F7xx_HAL_Driver/Src/stm32f7xx_hal_qspi.c ****         (+) TxHalfCpltCallback : callback when half of the transmission transfer is completed.
 174:Drivers/STM32F7xx_HAL_Driver/Src/stm32f7xx_hal_qspi.c ****         (+) StatusMatchCallback : callback when a status match occurs.
 175:Drivers/STM32F7xx_HAL_Driver/Src/stm32f7xx_hal_qspi.c ****         (+) TimeOutCallback : callback when the timeout perioed expires.
 176:Drivers/STM32F7xx_HAL_Driver/Src/stm32f7xx_hal_qspi.c ****         (+) MspInitCallback    : QSPI MspInit.
 177:Drivers/STM32F7xx_HAL_Driver/Src/stm32f7xx_hal_qspi.c ****         (+) MspDeInitCallback  : QSPI MspDeInit.
 178:Drivers/STM32F7xx_HAL_Driver/Src/stm32f7xx_hal_qspi.c ****       This function) takes as parameters the HAL peripheral handle and the Callback ID.
 179:Drivers/STM32F7xx_HAL_Driver/Src/stm32f7xx_hal_qspi.c **** 
 180:Drivers/STM32F7xx_HAL_Driver/Src/stm32f7xx_hal_qspi.c ****       By default, after the HAL_QSPI_Init and if the state is HAL_QSPI_STATE_RESET
 181:Drivers/STM32F7xx_HAL_Driver/Src/stm32f7xx_hal_qspi.c ****       all callbacks are reset to the corresponding legacy weak (surcharged) functions.
 182:Drivers/STM32F7xx_HAL_Driver/Src/stm32f7xx_hal_qspi.c ****       Exception done for MspInit and MspDeInit callbacks that are respectively
 183:Drivers/STM32F7xx_HAL_Driver/Src/stm32f7xx_hal_qspi.c ****       reset to the legacy weak (surcharged) functions in the HAL_QSPI_Init
 184:Drivers/STM32F7xx_HAL_Driver/Src/stm32f7xx_hal_qspi.c ****       and  HAL_QSPI_DeInit only when these callbacks are null (not registered beforehand).
 185:Drivers/STM32F7xx_HAL_Driver/Src/stm32f7xx_hal_qspi.c ****       If not, MspInit or MspDeInit are not null, the HAL_QSPI_Init and HAL_QSPI_DeInit
 186:Drivers/STM32F7xx_HAL_Driver/Src/stm32f7xx_hal_qspi.c ****       keep and use the user MspInit/MspDeInit callbacks (registered beforehand)
 187:Drivers/STM32F7xx_HAL_Driver/Src/stm32f7xx_hal_qspi.c **** 
 188:Drivers/STM32F7xx_HAL_Driver/Src/stm32f7xx_hal_qspi.c ****       Callbacks can be registered/unregistered in READY state only.
 189:Drivers/STM32F7xx_HAL_Driver/Src/stm32f7xx_hal_qspi.c ****       Exception done for MspInit/MspDeInit callbacks that can be registered/unregistered
 190:Drivers/STM32F7xx_HAL_Driver/Src/stm32f7xx_hal_qspi.c ****       in READY or RESET state, thus registered (user) MspInit/DeInit callbacks can be used
 191:Drivers/STM32F7xx_HAL_Driver/Src/stm32f7xx_hal_qspi.c ****       during the Init/DeInit.
 192:Drivers/STM32F7xx_HAL_Driver/Src/stm32f7xx_hal_qspi.c ****       In that case first register the MspInit/MspDeInit user callbacks
 193:Drivers/STM32F7xx_HAL_Driver/Src/stm32f7xx_hal_qspi.c ****       using HAL_QSPI_RegisterCallback before calling HAL_QSPI_DeInit
 194:Drivers/STM32F7xx_HAL_Driver/Src/stm32f7xx_hal_qspi.c ****       or HAL_QSPI_Init function.
 195:Drivers/STM32F7xx_HAL_Driver/Src/stm32f7xx_hal_qspi.c **** 
 196:Drivers/STM32F7xx_HAL_Driver/Src/stm32f7xx_hal_qspi.c ****       When The compilation define USE_HAL_QSPI_REGISTER_CALLBACKS is set to 0 or
 197:Drivers/STM32F7xx_HAL_Driver/Src/stm32f7xx_hal_qspi.c ****       not defined, the callback registering feature is not available
 198:Drivers/STM32F7xx_HAL_Driver/Src/stm32f7xx_hal_qspi.c ****       and weak (surcharged) callbacks are used.
 199:Drivers/STM32F7xx_HAL_Driver/Src/stm32f7xx_hal_qspi.c **** 
 200:Drivers/STM32F7xx_HAL_Driver/Src/stm32f7xx_hal_qspi.c ****     *** Workarounds linked to Silicon Limitation ***
 201:Drivers/STM32F7xx_HAL_Driver/Src/stm32f7xx_hal_qspi.c ****     ====================================================
ARM GAS  C:\Users\jisu8\AppData\Local\Temp\ccA6Ygqq.s 			page 5


 202:Drivers/STM32F7xx_HAL_Driver/Src/stm32f7xx_hal_qspi.c ****     [..]
 203:Drivers/STM32F7xx_HAL_Driver/Src/stm32f7xx_hal_qspi.c ****       (#) Workarounds Implemented inside HAL Driver
 204:Drivers/STM32F7xx_HAL_Driver/Src/stm32f7xx_hal_qspi.c ****          (++) Extra data written in the FIFO at the end of a read transfer
 205:Drivers/STM32F7xx_HAL_Driver/Src/stm32f7xx_hal_qspi.c **** 
 206:Drivers/STM32F7xx_HAL_Driver/Src/stm32f7xx_hal_qspi.c ****   @endverbatim
 207:Drivers/STM32F7xx_HAL_Driver/Src/stm32f7xx_hal_qspi.c ****   ******************************************************************************
 208:Drivers/STM32F7xx_HAL_Driver/Src/stm32f7xx_hal_qspi.c ****   */
 209:Drivers/STM32F7xx_HAL_Driver/Src/stm32f7xx_hal_qspi.c **** 
 210:Drivers/STM32F7xx_HAL_Driver/Src/stm32f7xx_hal_qspi.c **** /* Includes ------------------------------------------------------------------*/
 211:Drivers/STM32F7xx_HAL_Driver/Src/stm32f7xx_hal_qspi.c **** #include "stm32f7xx_hal.h"
 212:Drivers/STM32F7xx_HAL_Driver/Src/stm32f7xx_hal_qspi.c **** 
 213:Drivers/STM32F7xx_HAL_Driver/Src/stm32f7xx_hal_qspi.c **** #if defined(QUADSPI)
 214:Drivers/STM32F7xx_HAL_Driver/Src/stm32f7xx_hal_qspi.c **** 
 215:Drivers/STM32F7xx_HAL_Driver/Src/stm32f7xx_hal_qspi.c **** /** @addtogroup STM32F7xx_HAL_Driver
 216:Drivers/STM32F7xx_HAL_Driver/Src/stm32f7xx_hal_qspi.c ****   * @{
 217:Drivers/STM32F7xx_HAL_Driver/Src/stm32f7xx_hal_qspi.c ****   */
 218:Drivers/STM32F7xx_HAL_Driver/Src/stm32f7xx_hal_qspi.c **** 
 219:Drivers/STM32F7xx_HAL_Driver/Src/stm32f7xx_hal_qspi.c **** /** @defgroup QSPI QSPI
 220:Drivers/STM32F7xx_HAL_Driver/Src/stm32f7xx_hal_qspi.c ****   * @brief QSPI HAL module driver
 221:Drivers/STM32F7xx_HAL_Driver/Src/stm32f7xx_hal_qspi.c ****   * @{
 222:Drivers/STM32F7xx_HAL_Driver/Src/stm32f7xx_hal_qspi.c ****   */
 223:Drivers/STM32F7xx_HAL_Driver/Src/stm32f7xx_hal_qspi.c **** #ifdef HAL_QSPI_MODULE_ENABLED
 224:Drivers/STM32F7xx_HAL_Driver/Src/stm32f7xx_hal_qspi.c **** 
 225:Drivers/STM32F7xx_HAL_Driver/Src/stm32f7xx_hal_qspi.c **** /* Private typedef -----------------------------------------------------------*/
 226:Drivers/STM32F7xx_HAL_Driver/Src/stm32f7xx_hal_qspi.c **** 
 227:Drivers/STM32F7xx_HAL_Driver/Src/stm32f7xx_hal_qspi.c **** /* Private define ------------------------------------------------------------*/
 228:Drivers/STM32F7xx_HAL_Driver/Src/stm32f7xx_hal_qspi.c **** /** @defgroup QSPI_Private_Constants QSPI Private Constants
 229:Drivers/STM32F7xx_HAL_Driver/Src/stm32f7xx_hal_qspi.c ****   * @{
 230:Drivers/STM32F7xx_HAL_Driver/Src/stm32f7xx_hal_qspi.c ****   */
 231:Drivers/STM32F7xx_HAL_Driver/Src/stm32f7xx_hal_qspi.c **** #define QSPI_FUNCTIONAL_MODE_INDIRECT_WRITE 0x00000000U                     /*!<Indirect write mode
 232:Drivers/STM32F7xx_HAL_Driver/Src/stm32f7xx_hal_qspi.c **** #define QSPI_FUNCTIONAL_MODE_INDIRECT_READ  ((uint32_t)QUADSPI_CCR_FMODE_0) /*!<Indirect read mode*
 233:Drivers/STM32F7xx_HAL_Driver/Src/stm32f7xx_hal_qspi.c **** #define QSPI_FUNCTIONAL_MODE_AUTO_POLLING   ((uint32_t)QUADSPI_CCR_FMODE_1) /*!<Automatic polling m
 234:Drivers/STM32F7xx_HAL_Driver/Src/stm32f7xx_hal_qspi.c **** #define QSPI_FUNCTIONAL_MODE_MEMORY_MAPPED  ((uint32_t)QUADSPI_CCR_FMODE)   /*!<Memory-mapped mode*
 235:Drivers/STM32F7xx_HAL_Driver/Src/stm32f7xx_hal_qspi.c **** /**
 236:Drivers/STM32F7xx_HAL_Driver/Src/stm32f7xx_hal_qspi.c ****   * @}
 237:Drivers/STM32F7xx_HAL_Driver/Src/stm32f7xx_hal_qspi.c ****   */
 238:Drivers/STM32F7xx_HAL_Driver/Src/stm32f7xx_hal_qspi.c **** 
 239:Drivers/STM32F7xx_HAL_Driver/Src/stm32f7xx_hal_qspi.c **** /* Private macro -------------------------------------------------------------*/
 240:Drivers/STM32F7xx_HAL_Driver/Src/stm32f7xx_hal_qspi.c **** /** @defgroup QSPI_Private_Macros QSPI Private Macros
 241:Drivers/STM32F7xx_HAL_Driver/Src/stm32f7xx_hal_qspi.c ****   * @{
 242:Drivers/STM32F7xx_HAL_Driver/Src/stm32f7xx_hal_qspi.c ****   */
 243:Drivers/STM32F7xx_HAL_Driver/Src/stm32f7xx_hal_qspi.c **** #define IS_QSPI_FUNCTIONAL_MODE(MODE) (((MODE) == QSPI_FUNCTIONAL_MODE_INDIRECT_WRITE) || \
 244:Drivers/STM32F7xx_HAL_Driver/Src/stm32f7xx_hal_qspi.c ****                                        ((MODE) == QSPI_FUNCTIONAL_MODE_INDIRECT_READ)  || \
 245:Drivers/STM32F7xx_HAL_Driver/Src/stm32f7xx_hal_qspi.c ****                                        ((MODE) == QSPI_FUNCTIONAL_MODE_AUTO_POLLING)   || \
 246:Drivers/STM32F7xx_HAL_Driver/Src/stm32f7xx_hal_qspi.c ****                                        ((MODE) == QSPI_FUNCTIONAL_MODE_MEMORY_MAPPED))
 247:Drivers/STM32F7xx_HAL_Driver/Src/stm32f7xx_hal_qspi.c **** /**
 248:Drivers/STM32F7xx_HAL_Driver/Src/stm32f7xx_hal_qspi.c ****   * @}
 249:Drivers/STM32F7xx_HAL_Driver/Src/stm32f7xx_hal_qspi.c ****   */
 250:Drivers/STM32F7xx_HAL_Driver/Src/stm32f7xx_hal_qspi.c **** 
 251:Drivers/STM32F7xx_HAL_Driver/Src/stm32f7xx_hal_qspi.c **** /* Private variables ---------------------------------------------------------*/
 252:Drivers/STM32F7xx_HAL_Driver/Src/stm32f7xx_hal_qspi.c **** 
 253:Drivers/STM32F7xx_HAL_Driver/Src/stm32f7xx_hal_qspi.c **** /* Private function prototypes -----------------------------------------------*/
 254:Drivers/STM32F7xx_HAL_Driver/Src/stm32f7xx_hal_qspi.c **** static void QSPI_DMARxCplt(DMA_HandleTypeDef *hdma);
 255:Drivers/STM32F7xx_HAL_Driver/Src/stm32f7xx_hal_qspi.c **** static void QSPI_DMATxCplt(DMA_HandleTypeDef *hdma);
 256:Drivers/STM32F7xx_HAL_Driver/Src/stm32f7xx_hal_qspi.c **** static void QSPI_DMARxHalfCplt(DMA_HandleTypeDef *hdma);
 257:Drivers/STM32F7xx_HAL_Driver/Src/stm32f7xx_hal_qspi.c **** static void QSPI_DMATxHalfCplt(DMA_HandleTypeDef *hdma);
 258:Drivers/STM32F7xx_HAL_Driver/Src/stm32f7xx_hal_qspi.c **** static void QSPI_DMAError(DMA_HandleTypeDef *hdma);
ARM GAS  C:\Users\jisu8\AppData\Local\Temp\ccA6Ygqq.s 			page 6


 259:Drivers/STM32F7xx_HAL_Driver/Src/stm32f7xx_hal_qspi.c **** static void QSPI_DMAAbortCplt(DMA_HandleTypeDef *hdma);
 260:Drivers/STM32F7xx_HAL_Driver/Src/stm32f7xx_hal_qspi.c **** static HAL_StatusTypeDef QSPI_WaitFlagStateUntilTimeout(QSPI_HandleTypeDef *hqspi, uint32_t Flag, F
 261:Drivers/STM32F7xx_HAL_Driver/Src/stm32f7xx_hal_qspi.c **** static HAL_StatusTypeDef QSPI_WaitFlagStateUntilTimeout_CPUCycle(QSPI_HandleTypeDef *hqspi, uint32_
 262:Drivers/STM32F7xx_HAL_Driver/Src/stm32f7xx_hal_qspi.c **** static void QSPI_Config(QSPI_HandleTypeDef *hqspi, QSPI_CommandTypeDef *cmd, uint32_t FunctionalMod
 263:Drivers/STM32F7xx_HAL_Driver/Src/stm32f7xx_hal_qspi.c **** 
 264:Drivers/STM32F7xx_HAL_Driver/Src/stm32f7xx_hal_qspi.c **** /* Exported functions --------------------------------------------------------*/
 265:Drivers/STM32F7xx_HAL_Driver/Src/stm32f7xx_hal_qspi.c **** 
 266:Drivers/STM32F7xx_HAL_Driver/Src/stm32f7xx_hal_qspi.c **** /** @defgroup QSPI_Exported_Functions QSPI Exported Functions
 267:Drivers/STM32F7xx_HAL_Driver/Src/stm32f7xx_hal_qspi.c ****   * @{
 268:Drivers/STM32F7xx_HAL_Driver/Src/stm32f7xx_hal_qspi.c ****   */
 269:Drivers/STM32F7xx_HAL_Driver/Src/stm32f7xx_hal_qspi.c **** 
 270:Drivers/STM32F7xx_HAL_Driver/Src/stm32f7xx_hal_qspi.c **** /** @defgroup QSPI_Exported_Functions_Group1 Initialization/de-initialization functions
 271:Drivers/STM32F7xx_HAL_Driver/Src/stm32f7xx_hal_qspi.c ****   *  @brief    Initialization and Configuration functions
 272:Drivers/STM32F7xx_HAL_Driver/Src/stm32f7xx_hal_qspi.c ****   *
 273:Drivers/STM32F7xx_HAL_Driver/Src/stm32f7xx_hal_qspi.c **** @verbatim
 274:Drivers/STM32F7xx_HAL_Driver/Src/stm32f7xx_hal_qspi.c **** ===============================================================================
 275:Drivers/STM32F7xx_HAL_Driver/Src/stm32f7xx_hal_qspi.c ****             ##### Initialization and Configuration functions #####
 276:Drivers/STM32F7xx_HAL_Driver/Src/stm32f7xx_hal_qspi.c ****  ===============================================================================
 277:Drivers/STM32F7xx_HAL_Driver/Src/stm32f7xx_hal_qspi.c ****     [..]
 278:Drivers/STM32F7xx_HAL_Driver/Src/stm32f7xx_hal_qspi.c ****     This subsection provides a set of functions allowing to :
 279:Drivers/STM32F7xx_HAL_Driver/Src/stm32f7xx_hal_qspi.c ****       (+) Initialize the QuadSPI.
 280:Drivers/STM32F7xx_HAL_Driver/Src/stm32f7xx_hal_qspi.c ****       (+) De-initialize the QuadSPI.
 281:Drivers/STM32F7xx_HAL_Driver/Src/stm32f7xx_hal_qspi.c **** 
 282:Drivers/STM32F7xx_HAL_Driver/Src/stm32f7xx_hal_qspi.c **** @endverbatim
 283:Drivers/STM32F7xx_HAL_Driver/Src/stm32f7xx_hal_qspi.c ****   * @{
 284:Drivers/STM32F7xx_HAL_Driver/Src/stm32f7xx_hal_qspi.c ****   */
 285:Drivers/STM32F7xx_HAL_Driver/Src/stm32f7xx_hal_qspi.c **** 
 286:Drivers/STM32F7xx_HAL_Driver/Src/stm32f7xx_hal_qspi.c **** /**
 287:Drivers/STM32F7xx_HAL_Driver/Src/stm32f7xx_hal_qspi.c ****   * @brief Initialize the QSPI mode according to the specified parameters
 288:Drivers/STM32F7xx_HAL_Driver/Src/stm32f7xx_hal_qspi.c ****   *        in the QSPI_InitTypeDef and initialize the associated handle.
 289:Drivers/STM32F7xx_HAL_Driver/Src/stm32f7xx_hal_qspi.c ****   * @param hqspi QSPI handle
 290:Drivers/STM32F7xx_HAL_Driver/Src/stm32f7xx_hal_qspi.c ****   * @retval HAL status
 291:Drivers/STM32F7xx_HAL_Driver/Src/stm32f7xx_hal_qspi.c ****   */
 292:Drivers/STM32F7xx_HAL_Driver/Src/stm32f7xx_hal_qspi.c **** HAL_StatusTypeDef HAL_QSPI_Init(QSPI_HandleTypeDef *hqspi)
 293:Drivers/STM32F7xx_HAL_Driver/Src/stm32f7xx_hal_qspi.c **** {
  29              		.loc 1 293 1
  30              		.cfi_startproc
  31              		@ args = 0, pretend = 0, frame = 16
  32              		@ frame_needed = 1, uses_anonymous_args = 0
  33 0000 80B5     		push	{r7, lr}
  34              	.LCFI0:
  35              		.cfi_def_cfa_offset 8
  36              		.cfi_offset 7, -8
  37              		.cfi_offset 14, -4
  38 0002 86B0     		sub	sp, sp, #24
  39              	.LCFI1:
  40              		.cfi_def_cfa_offset 32
  41 0004 02AF     		add	r7, sp, #8
  42              	.LCFI2:
  43              		.cfi_def_cfa 7, 24
  44 0006 7860     		str	r0, [r7, #4]
 294:Drivers/STM32F7xx_HAL_Driver/Src/stm32f7xx_hal_qspi.c ****   HAL_StatusTypeDef status;
 295:Drivers/STM32F7xx_HAL_Driver/Src/stm32f7xx_hal_qspi.c ****   uint32_t tickstart = HAL_GetTick();
  45              		.loc 1 295 24
  46 0008 FFF7FEFF 		bl	HAL_GetTick
  47 000c F860     		str	r0, [r7, #12]
 296:Drivers/STM32F7xx_HAL_Driver/Src/stm32f7xx_hal_qspi.c **** 
ARM GAS  C:\Users\jisu8\AppData\Local\Temp\ccA6Ygqq.s 			page 7


 297:Drivers/STM32F7xx_HAL_Driver/Src/stm32f7xx_hal_qspi.c ****   /* Check the QSPI handle allocation */
 298:Drivers/STM32F7xx_HAL_Driver/Src/stm32f7xx_hal_qspi.c ****   if(hqspi == NULL)
  48              		.loc 1 298 5
  49 000e 7B68     		ldr	r3, [r7, #4]
  50 0010 002B     		cmp	r3, #0
  51 0012 01D1     		bne	.L2
 299:Drivers/STM32F7xx_HAL_Driver/Src/stm32f7xx_hal_qspi.c ****   {
 300:Drivers/STM32F7xx_HAL_Driver/Src/stm32f7xx_hal_qspi.c ****     return HAL_ERROR;
  52              		.loc 1 300 12
  53 0014 0123     		movs	r3, #1
  54 0016 67E0     		b	.L3
  55              	.L2:
 301:Drivers/STM32F7xx_HAL_Driver/Src/stm32f7xx_hal_qspi.c ****   }
 302:Drivers/STM32F7xx_HAL_Driver/Src/stm32f7xx_hal_qspi.c **** 
 303:Drivers/STM32F7xx_HAL_Driver/Src/stm32f7xx_hal_qspi.c ****   /* Check the parameters */
 304:Drivers/STM32F7xx_HAL_Driver/Src/stm32f7xx_hal_qspi.c ****   assert_param(IS_QSPI_ALL_INSTANCE(hqspi->Instance));
 305:Drivers/STM32F7xx_HAL_Driver/Src/stm32f7xx_hal_qspi.c ****   assert_param(IS_QSPI_CLOCK_PRESCALER(hqspi->Init.ClockPrescaler));
 306:Drivers/STM32F7xx_HAL_Driver/Src/stm32f7xx_hal_qspi.c ****   assert_param(IS_QSPI_FIFO_THRESHOLD(hqspi->Init.FifoThreshold));
 307:Drivers/STM32F7xx_HAL_Driver/Src/stm32f7xx_hal_qspi.c ****   assert_param(IS_QSPI_SSHIFT(hqspi->Init.SampleShifting));
 308:Drivers/STM32F7xx_HAL_Driver/Src/stm32f7xx_hal_qspi.c ****   assert_param(IS_QSPI_FLASH_SIZE(hqspi->Init.FlashSize));
 309:Drivers/STM32F7xx_HAL_Driver/Src/stm32f7xx_hal_qspi.c ****   assert_param(IS_QSPI_CS_HIGH_TIME(hqspi->Init.ChipSelectHighTime));
 310:Drivers/STM32F7xx_HAL_Driver/Src/stm32f7xx_hal_qspi.c ****   assert_param(IS_QSPI_CLOCK_MODE(hqspi->Init.ClockMode));
 311:Drivers/STM32F7xx_HAL_Driver/Src/stm32f7xx_hal_qspi.c ****   assert_param(IS_QSPI_DUAL_FLASH_MODE(hqspi->Init.DualFlash));
 312:Drivers/STM32F7xx_HAL_Driver/Src/stm32f7xx_hal_qspi.c **** 
 313:Drivers/STM32F7xx_HAL_Driver/Src/stm32f7xx_hal_qspi.c ****   if (hqspi->Init.DualFlash != QSPI_DUALFLASH_ENABLE )
 314:Drivers/STM32F7xx_HAL_Driver/Src/stm32f7xx_hal_qspi.c ****   {
 315:Drivers/STM32F7xx_HAL_Driver/Src/stm32f7xx_hal_qspi.c ****     assert_param(IS_QSPI_FLASH_ID(hqspi->Init.FlashID));
 316:Drivers/STM32F7xx_HAL_Driver/Src/stm32f7xx_hal_qspi.c ****   }
 317:Drivers/STM32F7xx_HAL_Driver/Src/stm32f7xx_hal_qspi.c **** 
 318:Drivers/STM32F7xx_HAL_Driver/Src/stm32f7xx_hal_qspi.c ****   if(hqspi->State == HAL_QSPI_STATE_RESET)
  56              		.loc 1 318 11
  57 0018 7B68     		ldr	r3, [r7, #4]
  58 001a 93F84130 		ldrb	r3, [r3, #65]
  59 001e DBB2     		uxtb	r3, r3
  60              		.loc 1 318 5
  61 0020 002B     		cmp	r3, #0
  62 0022 0BD1     		bne	.L4
 319:Drivers/STM32F7xx_HAL_Driver/Src/stm32f7xx_hal_qspi.c ****   {
 320:Drivers/STM32F7xx_HAL_Driver/Src/stm32f7xx_hal_qspi.c ****     /* Allocate lock resource and initialize it */
 321:Drivers/STM32F7xx_HAL_Driver/Src/stm32f7xx_hal_qspi.c ****     hqspi->Lock = HAL_UNLOCKED;
  63              		.loc 1 321 17
  64 0024 7B68     		ldr	r3, [r7, #4]
  65 0026 0022     		movs	r2, #0
  66 0028 83F84020 		strb	r2, [r3, #64]
 322:Drivers/STM32F7xx_HAL_Driver/Src/stm32f7xx_hal_qspi.c **** 
 323:Drivers/STM32F7xx_HAL_Driver/Src/stm32f7xx_hal_qspi.c **** #if (USE_HAL_QSPI_REGISTER_CALLBACKS == 1)
 324:Drivers/STM32F7xx_HAL_Driver/Src/stm32f7xx_hal_qspi.c ****     /* Reset Callback pointers in HAL_QSPI_STATE_RESET only */
 325:Drivers/STM32F7xx_HAL_Driver/Src/stm32f7xx_hal_qspi.c ****     hqspi->ErrorCallback         = HAL_QSPI_ErrorCallback;
 326:Drivers/STM32F7xx_HAL_Driver/Src/stm32f7xx_hal_qspi.c ****     hqspi->AbortCpltCallback     = HAL_QSPI_AbortCpltCallback;
 327:Drivers/STM32F7xx_HAL_Driver/Src/stm32f7xx_hal_qspi.c ****     hqspi->FifoThresholdCallback = HAL_QSPI_FifoThresholdCallback;
 328:Drivers/STM32F7xx_HAL_Driver/Src/stm32f7xx_hal_qspi.c ****     hqspi->CmdCpltCallback       = HAL_QSPI_CmdCpltCallback;
 329:Drivers/STM32F7xx_HAL_Driver/Src/stm32f7xx_hal_qspi.c ****     hqspi->RxCpltCallback        = HAL_QSPI_RxCpltCallback;
 330:Drivers/STM32F7xx_HAL_Driver/Src/stm32f7xx_hal_qspi.c ****     hqspi->TxCpltCallback        = HAL_QSPI_TxCpltCallback;
 331:Drivers/STM32F7xx_HAL_Driver/Src/stm32f7xx_hal_qspi.c ****     hqspi->RxHalfCpltCallback    = HAL_QSPI_RxHalfCpltCallback;
 332:Drivers/STM32F7xx_HAL_Driver/Src/stm32f7xx_hal_qspi.c ****     hqspi->TxHalfCpltCallback    = HAL_QSPI_TxHalfCpltCallback;
 333:Drivers/STM32F7xx_HAL_Driver/Src/stm32f7xx_hal_qspi.c ****     hqspi->StatusMatchCallback   = HAL_QSPI_StatusMatchCallback;
 334:Drivers/STM32F7xx_HAL_Driver/Src/stm32f7xx_hal_qspi.c ****     hqspi->TimeOutCallback       = HAL_QSPI_TimeOutCallback;
ARM GAS  C:\Users\jisu8\AppData\Local\Temp\ccA6Ygqq.s 			page 8


 335:Drivers/STM32F7xx_HAL_Driver/Src/stm32f7xx_hal_qspi.c **** 
 336:Drivers/STM32F7xx_HAL_Driver/Src/stm32f7xx_hal_qspi.c ****     if(hqspi->MspInitCallback == NULL)
 337:Drivers/STM32F7xx_HAL_Driver/Src/stm32f7xx_hal_qspi.c ****     {
 338:Drivers/STM32F7xx_HAL_Driver/Src/stm32f7xx_hal_qspi.c ****       hqspi->MspInitCallback = HAL_QSPI_MspInit;
 339:Drivers/STM32F7xx_HAL_Driver/Src/stm32f7xx_hal_qspi.c ****     }
 340:Drivers/STM32F7xx_HAL_Driver/Src/stm32f7xx_hal_qspi.c **** 
 341:Drivers/STM32F7xx_HAL_Driver/Src/stm32f7xx_hal_qspi.c ****     /* Init the low level hardware */
 342:Drivers/STM32F7xx_HAL_Driver/Src/stm32f7xx_hal_qspi.c ****     hqspi->MspInitCallback(hqspi);
 343:Drivers/STM32F7xx_HAL_Driver/Src/stm32f7xx_hal_qspi.c **** #else
 344:Drivers/STM32F7xx_HAL_Driver/Src/stm32f7xx_hal_qspi.c ****     /* Init the low level hardware : GPIO, CLOCK */
 345:Drivers/STM32F7xx_HAL_Driver/Src/stm32f7xx_hal_qspi.c ****     HAL_QSPI_MspInit(hqspi);
  67              		.loc 1 345 5
  68 002c 7868     		ldr	r0, [r7, #4]
  69 002e FFF7FEFF 		bl	HAL_QSPI_MspInit
 346:Drivers/STM32F7xx_HAL_Driver/Src/stm32f7xx_hal_qspi.c **** #endif
 347:Drivers/STM32F7xx_HAL_Driver/Src/stm32f7xx_hal_qspi.c **** 
 348:Drivers/STM32F7xx_HAL_Driver/Src/stm32f7xx_hal_qspi.c ****     /* Configure the default timeout for the QSPI memory access */
 349:Drivers/STM32F7xx_HAL_Driver/Src/stm32f7xx_hal_qspi.c ****     HAL_QSPI_SetTimeout(hqspi, HAL_QSPI_TIMEOUT_DEFAULT_VALUE);
  70              		.loc 1 349 5
  71 0032 41F28831 		movw	r1, #5000
  72 0036 7868     		ldr	r0, [r7, #4]
  73 0038 FFF7FEFF 		bl	HAL_QSPI_SetTimeout
  74              	.L4:
 350:Drivers/STM32F7xx_HAL_Driver/Src/stm32f7xx_hal_qspi.c ****   }
 351:Drivers/STM32F7xx_HAL_Driver/Src/stm32f7xx_hal_qspi.c **** 
 352:Drivers/STM32F7xx_HAL_Driver/Src/stm32f7xx_hal_qspi.c ****   /* Configure QSPI FIFO Threshold */
 353:Drivers/STM32F7xx_HAL_Driver/Src/stm32f7xx_hal_qspi.c ****   MODIFY_REG(hqspi->Instance->CR, QUADSPI_CR_FTHRES,
  75              		.loc 1 353 3
  76 003c 7B68     		ldr	r3, [r7, #4]
  77 003e 1B68     		ldr	r3, [r3]
  78 0040 1B68     		ldr	r3, [r3]
  79 0042 23F4F851 		bic	r1, r3, #7936
  80 0046 7B68     		ldr	r3, [r7, #4]
  81 0048 9B68     		ldr	r3, [r3, #8]
  82 004a 013B     		subs	r3, r3, #1
  83 004c 1A02     		lsls	r2, r3, #8
  84 004e 7B68     		ldr	r3, [r7, #4]
  85 0050 1B68     		ldr	r3, [r3]
  86 0052 0A43     		orrs	r2, r2, r1
  87 0054 1A60     		str	r2, [r3]
 354:Drivers/STM32F7xx_HAL_Driver/Src/stm32f7xx_hal_qspi.c ****              ((hqspi->Init.FifoThreshold - 1U) << QUADSPI_CR_FTHRES_Pos));
 355:Drivers/STM32F7xx_HAL_Driver/Src/stm32f7xx_hal_qspi.c **** 
 356:Drivers/STM32F7xx_HAL_Driver/Src/stm32f7xx_hal_qspi.c ****   /* Wait till BUSY flag reset */
 357:Drivers/STM32F7xx_HAL_Driver/Src/stm32f7xx_hal_qspi.c ****   status = QSPI_WaitFlagStateUntilTimeout(hqspi, QSPI_FLAG_BUSY, RESET, tickstart, hqspi->Timeout);
  88              		.loc 1 357 12
  89 0056 7B68     		ldr	r3, [r7, #4]
  90 0058 9B6C     		ldr	r3, [r3, #72]
  91 005a 0093     		str	r3, [sp]
  92 005c FB68     		ldr	r3, [r7, #12]
  93 005e 0022     		movs	r2, #0
  94 0060 2021     		movs	r1, #32
  95 0062 7868     		ldr	r0, [r7, #4]
  96 0064 FFF7FEFF 		bl	QSPI_WaitFlagStateUntilTimeout
  97 0068 0346     		mov	r3, r0
  98 006a FB72     		strb	r3, [r7, #11]
 358:Drivers/STM32F7xx_HAL_Driver/Src/stm32f7xx_hal_qspi.c **** 
 359:Drivers/STM32F7xx_HAL_Driver/Src/stm32f7xx_hal_qspi.c ****   if(status == HAL_OK)
ARM GAS  C:\Users\jisu8\AppData\Local\Temp\ccA6Ygqq.s 			page 9


  99              		.loc 1 359 5
 100 006c FB7A     		ldrb	r3, [r7, #11]	@ zero_extendqisi2
 101 006e 002B     		cmp	r3, #0
 102 0070 35D1     		bne	.L5
 360:Drivers/STM32F7xx_HAL_Driver/Src/stm32f7xx_hal_qspi.c ****   {
 361:Drivers/STM32F7xx_HAL_Driver/Src/stm32f7xx_hal_qspi.c ****     /* Configure QSPI Clock Prescaler and Sample Shift */
 362:Drivers/STM32F7xx_HAL_Driver/Src/stm32f7xx_hal_qspi.c ****     MODIFY_REG(hqspi->Instance->CR, (QUADSPI_CR_PRESCALER | QUADSPI_CR_SSHIFT | QUADSPI_CR_FSEL | Q
 103              		.loc 1 362 5
 104 0072 7B68     		ldr	r3, [r7, #4]
 105 0074 1B68     		ldr	r3, [r3]
 106 0076 1A68     		ldr	r2, [r3]
 107 0078 1D4B     		ldr	r3, .L6
 108 007a 1340     		ands	r3, r3, r2
 109 007c 7A68     		ldr	r2, [r7, #4]
 110 007e 5268     		ldr	r2, [r2, #4]
 111 0080 1106     		lsls	r1, r2, #24
 112 0082 7A68     		ldr	r2, [r7, #4]
 113 0084 D268     		ldr	r2, [r2, #12]
 114 0086 1143     		orrs	r1, r1, r2
 115 0088 7A68     		ldr	r2, [r7, #4]
 116 008a D269     		ldr	r2, [r2, #28]
 117 008c 1143     		orrs	r1, r1, r2
 118 008e 7A68     		ldr	r2, [r7, #4]
 119 0090 126A     		ldr	r2, [r2, #32]
 120 0092 1143     		orrs	r1, r1, r2
 121 0094 7A68     		ldr	r2, [r7, #4]
 122 0096 1268     		ldr	r2, [r2]
 123 0098 0B43     		orrs	r3, r3, r1
 124 009a 1360     		str	r3, [r2]
 363:Drivers/STM32F7xx_HAL_Driver/Src/stm32f7xx_hal_qspi.c ****                ((hqspi->Init.ClockPrescaler << QUADSPI_CR_PRESCALER_Pos) |
 364:Drivers/STM32F7xx_HAL_Driver/Src/stm32f7xx_hal_qspi.c ****                 hqspi->Init.SampleShifting  | hqspi->Init.FlashID | hqspi->Init.DualFlash));
 365:Drivers/STM32F7xx_HAL_Driver/Src/stm32f7xx_hal_qspi.c **** 
 366:Drivers/STM32F7xx_HAL_Driver/Src/stm32f7xx_hal_qspi.c ****     /* Configure QSPI Flash Size, CS High Time and Clock Mode */
 367:Drivers/STM32F7xx_HAL_Driver/Src/stm32f7xx_hal_qspi.c ****     MODIFY_REG(hqspi->Instance->DCR, (QUADSPI_DCR_FSIZE | QUADSPI_DCR_CSHT | QUADSPI_DCR_CKMODE),
 125              		.loc 1 367 5
 126 009c 7B68     		ldr	r3, [r7, #4]
 127 009e 1B68     		ldr	r3, [r3]
 128 00a0 5A68     		ldr	r2, [r3, #4]
 129 00a2 144B     		ldr	r3, .L6+4
 130 00a4 1340     		ands	r3, r3, r2
 131 00a6 7A68     		ldr	r2, [r7, #4]
 132 00a8 1269     		ldr	r2, [r2, #16]
 133 00aa 1104     		lsls	r1, r2, #16
 134 00ac 7A68     		ldr	r2, [r7, #4]
 135 00ae 5269     		ldr	r2, [r2, #20]
 136 00b0 1143     		orrs	r1, r1, r2
 137 00b2 7A68     		ldr	r2, [r7, #4]
 138 00b4 9269     		ldr	r2, [r2, #24]
 139 00b6 1143     		orrs	r1, r1, r2
 140 00b8 7A68     		ldr	r2, [r7, #4]
 141 00ba 1268     		ldr	r2, [r2]
 142 00bc 0B43     		orrs	r3, r3, r1
 143 00be 5360     		str	r3, [r2, #4]
 368:Drivers/STM32F7xx_HAL_Driver/Src/stm32f7xx_hal_qspi.c ****                ((hqspi->Init.FlashSize << QUADSPI_DCR_FSIZE_Pos) |
 369:Drivers/STM32F7xx_HAL_Driver/Src/stm32f7xx_hal_qspi.c ****                 hqspi->Init.ChipSelectHighTime | hqspi->Init.ClockMode));
 370:Drivers/STM32F7xx_HAL_Driver/Src/stm32f7xx_hal_qspi.c **** 
 371:Drivers/STM32F7xx_HAL_Driver/Src/stm32f7xx_hal_qspi.c ****     /* Enable the QSPI peripheral */
ARM GAS  C:\Users\jisu8\AppData\Local\Temp\ccA6Ygqq.s 			page 10


 372:Drivers/STM32F7xx_HAL_Driver/Src/stm32f7xx_hal_qspi.c ****     __HAL_QSPI_ENABLE(hqspi);
 144              		.loc 1 372 5
 145 00c0 7B68     		ldr	r3, [r7, #4]
 146 00c2 1B68     		ldr	r3, [r3]
 147 00c4 1A68     		ldr	r2, [r3]
 148 00c6 7B68     		ldr	r3, [r7, #4]
 149 00c8 1B68     		ldr	r3, [r3]
 150 00ca 42F00102 		orr	r2, r2, #1
 151 00ce 1A60     		str	r2, [r3]
 373:Drivers/STM32F7xx_HAL_Driver/Src/stm32f7xx_hal_qspi.c **** 
 374:Drivers/STM32F7xx_HAL_Driver/Src/stm32f7xx_hal_qspi.c ****     /* Set QSPI error code to none */
 375:Drivers/STM32F7xx_HAL_Driver/Src/stm32f7xx_hal_qspi.c ****     hqspi->ErrorCode = HAL_QSPI_ERROR_NONE;
 152              		.loc 1 375 22
 153 00d0 7B68     		ldr	r3, [r7, #4]
 154 00d2 0022     		movs	r2, #0
 155 00d4 5A64     		str	r2, [r3, #68]
 376:Drivers/STM32F7xx_HAL_Driver/Src/stm32f7xx_hal_qspi.c **** 
 377:Drivers/STM32F7xx_HAL_Driver/Src/stm32f7xx_hal_qspi.c ****     /* Initialize the QSPI state */
 378:Drivers/STM32F7xx_HAL_Driver/Src/stm32f7xx_hal_qspi.c ****     hqspi->State = HAL_QSPI_STATE_READY;
 156              		.loc 1 378 18
 157 00d6 7B68     		ldr	r3, [r7, #4]
 158 00d8 0122     		movs	r2, #1
 159 00da 83F84120 		strb	r2, [r3, #65]
 160              	.L5:
 379:Drivers/STM32F7xx_HAL_Driver/Src/stm32f7xx_hal_qspi.c ****   }
 380:Drivers/STM32F7xx_HAL_Driver/Src/stm32f7xx_hal_qspi.c **** 
 381:Drivers/STM32F7xx_HAL_Driver/Src/stm32f7xx_hal_qspi.c ****   /* Release Lock */
 382:Drivers/STM32F7xx_HAL_Driver/Src/stm32f7xx_hal_qspi.c ****   __HAL_UNLOCK(hqspi);
 161              		.loc 1 382 3
 162 00de 7B68     		ldr	r3, [r7, #4]
 163 00e0 0022     		movs	r2, #0
 164 00e2 83F84020 		strb	r2, [r3, #64]
 383:Drivers/STM32F7xx_HAL_Driver/Src/stm32f7xx_hal_qspi.c **** 
 384:Drivers/STM32F7xx_HAL_Driver/Src/stm32f7xx_hal_qspi.c ****   /* Return function status */
 385:Drivers/STM32F7xx_HAL_Driver/Src/stm32f7xx_hal_qspi.c ****   return status;
 165              		.loc 1 385 10
 166 00e6 FB7A     		ldrb	r3, [r7, #11]	@ zero_extendqisi2
 167              	.L3:
 386:Drivers/STM32F7xx_HAL_Driver/Src/stm32f7xx_hal_qspi.c **** }
 168              		.loc 1 386 1
 169 00e8 1846     		mov	r0, r3
 170 00ea 1037     		adds	r7, r7, #16
 171              	.LCFI3:
 172              		.cfi_def_cfa_offset 8
 173 00ec BD46     		mov	sp, r7
 174              	.LCFI4:
 175              		.cfi_def_cfa_register 13
 176              		@ sp needed
 177 00ee 80BD     		pop	{r7, pc}
 178              	.L7:
 179              		.align	2
 180              	.L6:
 181 00f0 2FFFFF00 		.word	16777007
 182 00f4 FEF8E0FF 		.word	-2033410
 183              		.cfi_endproc
 184              	.LFE141:
 186              		.section	.text.HAL_QSPI_DeInit,"ax",%progbits
ARM GAS  C:\Users\jisu8\AppData\Local\Temp\ccA6Ygqq.s 			page 11


 187              		.align	1
 188              		.global	HAL_QSPI_DeInit
 189              		.syntax unified
 190              		.thumb
 191              		.thumb_func
 193              	HAL_QSPI_DeInit:
 194              	.LFB142:
 387:Drivers/STM32F7xx_HAL_Driver/Src/stm32f7xx_hal_qspi.c **** 
 388:Drivers/STM32F7xx_HAL_Driver/Src/stm32f7xx_hal_qspi.c **** /**
 389:Drivers/STM32F7xx_HAL_Driver/Src/stm32f7xx_hal_qspi.c ****   * @brief De-Initialize the QSPI peripheral.
 390:Drivers/STM32F7xx_HAL_Driver/Src/stm32f7xx_hal_qspi.c ****   * @param hqspi QSPI handle
 391:Drivers/STM32F7xx_HAL_Driver/Src/stm32f7xx_hal_qspi.c ****   * @retval HAL status
 392:Drivers/STM32F7xx_HAL_Driver/Src/stm32f7xx_hal_qspi.c ****   */
 393:Drivers/STM32F7xx_HAL_Driver/Src/stm32f7xx_hal_qspi.c **** HAL_StatusTypeDef HAL_QSPI_DeInit(QSPI_HandleTypeDef *hqspi)
 394:Drivers/STM32F7xx_HAL_Driver/Src/stm32f7xx_hal_qspi.c **** {
 195              		.loc 1 394 1
 196              		.cfi_startproc
 197              		@ args = 0, pretend = 0, frame = 8
 198              		@ frame_needed = 1, uses_anonymous_args = 0
 199 0000 80B5     		push	{r7, lr}
 200              	.LCFI5:
 201              		.cfi_def_cfa_offset 8
 202              		.cfi_offset 7, -8
 203              		.cfi_offset 14, -4
 204 0002 82B0     		sub	sp, sp, #8
 205              	.LCFI6:
 206              		.cfi_def_cfa_offset 16
 207 0004 00AF     		add	r7, sp, #0
 208              	.LCFI7:
 209              		.cfi_def_cfa_register 7
 210 0006 7860     		str	r0, [r7, #4]
 395:Drivers/STM32F7xx_HAL_Driver/Src/stm32f7xx_hal_qspi.c ****   /* Check the QSPI handle allocation */
 396:Drivers/STM32F7xx_HAL_Driver/Src/stm32f7xx_hal_qspi.c ****   if(hqspi == NULL)
 211              		.loc 1 396 5
 212 0008 7B68     		ldr	r3, [r7, #4]
 213 000a 002B     		cmp	r3, #0
 214 000c 01D1     		bne	.L9
 397:Drivers/STM32F7xx_HAL_Driver/Src/stm32f7xx_hal_qspi.c ****   {
 398:Drivers/STM32F7xx_HAL_Driver/Src/stm32f7xx_hal_qspi.c ****     return HAL_ERROR;
 215              		.loc 1 398 12
 216 000e 0123     		movs	r3, #1
 217 0010 16E0     		b	.L10
 218              	.L9:
 399:Drivers/STM32F7xx_HAL_Driver/Src/stm32f7xx_hal_qspi.c ****   }
 400:Drivers/STM32F7xx_HAL_Driver/Src/stm32f7xx_hal_qspi.c **** 
 401:Drivers/STM32F7xx_HAL_Driver/Src/stm32f7xx_hal_qspi.c ****   /* Disable the QSPI Peripheral Clock */
 402:Drivers/STM32F7xx_HAL_Driver/Src/stm32f7xx_hal_qspi.c ****   __HAL_QSPI_DISABLE(hqspi);
 219              		.loc 1 402 3
 220 0012 7B68     		ldr	r3, [r7, #4]
 221 0014 1B68     		ldr	r3, [r3]
 222 0016 1A68     		ldr	r2, [r3]
 223 0018 7B68     		ldr	r3, [r7, #4]
 224 001a 1B68     		ldr	r3, [r3]
 225 001c 22F00102 		bic	r2, r2, #1
 226 0020 1A60     		str	r2, [r3]
 403:Drivers/STM32F7xx_HAL_Driver/Src/stm32f7xx_hal_qspi.c **** 
 404:Drivers/STM32F7xx_HAL_Driver/Src/stm32f7xx_hal_qspi.c **** #if (USE_HAL_QSPI_REGISTER_CALLBACKS == 1)
ARM GAS  C:\Users\jisu8\AppData\Local\Temp\ccA6Ygqq.s 			page 12


 405:Drivers/STM32F7xx_HAL_Driver/Src/stm32f7xx_hal_qspi.c ****   if(hqspi->MspDeInitCallback == NULL)
 406:Drivers/STM32F7xx_HAL_Driver/Src/stm32f7xx_hal_qspi.c ****   {
 407:Drivers/STM32F7xx_HAL_Driver/Src/stm32f7xx_hal_qspi.c ****     hqspi->MspDeInitCallback = HAL_QSPI_MspDeInit;
 408:Drivers/STM32F7xx_HAL_Driver/Src/stm32f7xx_hal_qspi.c ****   }
 409:Drivers/STM32F7xx_HAL_Driver/Src/stm32f7xx_hal_qspi.c **** 
 410:Drivers/STM32F7xx_HAL_Driver/Src/stm32f7xx_hal_qspi.c ****   /* DeInit the low level hardware */
 411:Drivers/STM32F7xx_HAL_Driver/Src/stm32f7xx_hal_qspi.c ****   hqspi->MspDeInitCallback(hqspi);
 412:Drivers/STM32F7xx_HAL_Driver/Src/stm32f7xx_hal_qspi.c **** #else
 413:Drivers/STM32F7xx_HAL_Driver/Src/stm32f7xx_hal_qspi.c ****   /* DeInit the low level hardware: GPIO, CLOCK, NVIC... */
 414:Drivers/STM32F7xx_HAL_Driver/Src/stm32f7xx_hal_qspi.c ****   HAL_QSPI_MspDeInit(hqspi);
 227              		.loc 1 414 3
 228 0022 7868     		ldr	r0, [r7, #4]
 229 0024 FFF7FEFF 		bl	HAL_QSPI_MspDeInit
 415:Drivers/STM32F7xx_HAL_Driver/Src/stm32f7xx_hal_qspi.c **** #endif
 416:Drivers/STM32F7xx_HAL_Driver/Src/stm32f7xx_hal_qspi.c **** 
 417:Drivers/STM32F7xx_HAL_Driver/Src/stm32f7xx_hal_qspi.c ****   /* Set QSPI error code to none */
 418:Drivers/STM32F7xx_HAL_Driver/Src/stm32f7xx_hal_qspi.c ****   hqspi->ErrorCode = HAL_QSPI_ERROR_NONE;
 230              		.loc 1 418 20
 231 0028 7B68     		ldr	r3, [r7, #4]
 232 002a 0022     		movs	r2, #0
 233 002c 5A64     		str	r2, [r3, #68]
 419:Drivers/STM32F7xx_HAL_Driver/Src/stm32f7xx_hal_qspi.c **** 
 420:Drivers/STM32F7xx_HAL_Driver/Src/stm32f7xx_hal_qspi.c ****   /* Initialize the QSPI state */
 421:Drivers/STM32F7xx_HAL_Driver/Src/stm32f7xx_hal_qspi.c ****   hqspi->State = HAL_QSPI_STATE_RESET;
 234              		.loc 1 421 16
 235 002e 7B68     		ldr	r3, [r7, #4]
 236 0030 0022     		movs	r2, #0
 237 0032 83F84120 		strb	r2, [r3, #65]
 422:Drivers/STM32F7xx_HAL_Driver/Src/stm32f7xx_hal_qspi.c **** 
 423:Drivers/STM32F7xx_HAL_Driver/Src/stm32f7xx_hal_qspi.c ****   /* Release Lock */
 424:Drivers/STM32F7xx_HAL_Driver/Src/stm32f7xx_hal_qspi.c ****   __HAL_UNLOCK(hqspi);
 238              		.loc 1 424 3
 239 0036 7B68     		ldr	r3, [r7, #4]
 240 0038 0022     		movs	r2, #0
 241 003a 83F84020 		strb	r2, [r3, #64]
 425:Drivers/STM32F7xx_HAL_Driver/Src/stm32f7xx_hal_qspi.c **** 
 426:Drivers/STM32F7xx_HAL_Driver/Src/stm32f7xx_hal_qspi.c ****   return HAL_OK;
 242              		.loc 1 426 10
 243 003e 0023     		movs	r3, #0
 244              	.L10:
 427:Drivers/STM32F7xx_HAL_Driver/Src/stm32f7xx_hal_qspi.c **** }
 245              		.loc 1 427 1
 246 0040 1846     		mov	r0, r3
 247 0042 0837     		adds	r7, r7, #8
 248              	.LCFI8:
 249              		.cfi_def_cfa_offset 8
 250 0044 BD46     		mov	sp, r7
 251              	.LCFI9:
 252              		.cfi_def_cfa_register 13
 253              		@ sp needed
 254 0046 80BD     		pop	{r7, pc}
 255              		.cfi_endproc
 256              	.LFE142:
 258              		.section	.text.HAL_QSPI_MspInit,"ax",%progbits
 259              		.align	1
 260              		.weak	HAL_QSPI_MspInit
 261              		.syntax unified
ARM GAS  C:\Users\jisu8\AppData\Local\Temp\ccA6Ygqq.s 			page 13


 262              		.thumb
 263              		.thumb_func
 265              	HAL_QSPI_MspInit:
 266              	.LFB143:
 428:Drivers/STM32F7xx_HAL_Driver/Src/stm32f7xx_hal_qspi.c **** 
 429:Drivers/STM32F7xx_HAL_Driver/Src/stm32f7xx_hal_qspi.c **** /**
 430:Drivers/STM32F7xx_HAL_Driver/Src/stm32f7xx_hal_qspi.c ****   * @brief Initialize the QSPI MSP.
 431:Drivers/STM32F7xx_HAL_Driver/Src/stm32f7xx_hal_qspi.c ****   * @param hqspi QSPI handle
 432:Drivers/STM32F7xx_HAL_Driver/Src/stm32f7xx_hal_qspi.c ****   * @retval None
 433:Drivers/STM32F7xx_HAL_Driver/Src/stm32f7xx_hal_qspi.c ****   */
 434:Drivers/STM32F7xx_HAL_Driver/Src/stm32f7xx_hal_qspi.c **** __weak void HAL_QSPI_MspInit(QSPI_HandleTypeDef *hqspi)
 435:Drivers/STM32F7xx_HAL_Driver/Src/stm32f7xx_hal_qspi.c **** {
 267              		.loc 1 435 1
 268              		.cfi_startproc
 269              		@ args = 0, pretend = 0, frame = 8
 270              		@ frame_needed = 1, uses_anonymous_args = 0
 271              		@ link register save eliminated.
 272 0000 80B4     		push	{r7}
 273              	.LCFI10:
 274              		.cfi_def_cfa_offset 4
 275              		.cfi_offset 7, -4
 276 0002 83B0     		sub	sp, sp, #12
 277              	.LCFI11:
 278              		.cfi_def_cfa_offset 16
 279 0004 00AF     		add	r7, sp, #0
 280              	.LCFI12:
 281              		.cfi_def_cfa_register 7
 282 0006 7860     		str	r0, [r7, #4]
 436:Drivers/STM32F7xx_HAL_Driver/Src/stm32f7xx_hal_qspi.c ****   /* Prevent unused argument(s) compilation warning */
 437:Drivers/STM32F7xx_HAL_Driver/Src/stm32f7xx_hal_qspi.c ****   UNUSED(hqspi);
 438:Drivers/STM32F7xx_HAL_Driver/Src/stm32f7xx_hal_qspi.c **** 
 439:Drivers/STM32F7xx_HAL_Driver/Src/stm32f7xx_hal_qspi.c ****   /* NOTE : This function should not be modified, when the callback is needed,
 440:Drivers/STM32F7xx_HAL_Driver/Src/stm32f7xx_hal_qspi.c ****             the HAL_QSPI_MspInit can be implemented in the user file
 441:Drivers/STM32F7xx_HAL_Driver/Src/stm32f7xx_hal_qspi.c ****    */
 442:Drivers/STM32F7xx_HAL_Driver/Src/stm32f7xx_hal_qspi.c **** }
 283              		.loc 1 442 1
 284 0008 00BF     		nop
 285 000a 0C37     		adds	r7, r7, #12
 286              	.LCFI13:
 287              		.cfi_def_cfa_offset 4
 288 000c BD46     		mov	sp, r7
 289              	.LCFI14:
 290              		.cfi_def_cfa_register 13
 291              		@ sp needed
 292 000e 5DF8047B 		ldr	r7, [sp], #4
 293              	.LCFI15:
 294              		.cfi_restore 7
 295              		.cfi_def_cfa_offset 0
 296 0012 7047     		bx	lr
 297              		.cfi_endproc
 298              	.LFE143:
 300              		.section	.text.HAL_QSPI_MspDeInit,"ax",%progbits
 301              		.align	1
 302              		.weak	HAL_QSPI_MspDeInit
 303              		.syntax unified
 304              		.thumb
 305              		.thumb_func
ARM GAS  C:\Users\jisu8\AppData\Local\Temp\ccA6Ygqq.s 			page 14


 307              	HAL_QSPI_MspDeInit:
 308              	.LFB144:
 443:Drivers/STM32F7xx_HAL_Driver/Src/stm32f7xx_hal_qspi.c **** 
 444:Drivers/STM32F7xx_HAL_Driver/Src/stm32f7xx_hal_qspi.c **** /**
 445:Drivers/STM32F7xx_HAL_Driver/Src/stm32f7xx_hal_qspi.c ****   * @brief DeInitialize the QSPI MSP.
 446:Drivers/STM32F7xx_HAL_Driver/Src/stm32f7xx_hal_qspi.c ****   * @param hqspi QSPI handle
 447:Drivers/STM32F7xx_HAL_Driver/Src/stm32f7xx_hal_qspi.c ****   * @retval None
 448:Drivers/STM32F7xx_HAL_Driver/Src/stm32f7xx_hal_qspi.c ****   */
 449:Drivers/STM32F7xx_HAL_Driver/Src/stm32f7xx_hal_qspi.c **** __weak void HAL_QSPI_MspDeInit(QSPI_HandleTypeDef *hqspi)
 450:Drivers/STM32F7xx_HAL_Driver/Src/stm32f7xx_hal_qspi.c **** {
 309              		.loc 1 450 1
 310              		.cfi_startproc
 311              		@ args = 0, pretend = 0, frame = 8
 312              		@ frame_needed = 1, uses_anonymous_args = 0
 313              		@ link register save eliminated.
 314 0000 80B4     		push	{r7}
 315              	.LCFI16:
 316              		.cfi_def_cfa_offset 4
 317              		.cfi_offset 7, -4
 318 0002 83B0     		sub	sp, sp, #12
 319              	.LCFI17:
 320              		.cfi_def_cfa_offset 16
 321 0004 00AF     		add	r7, sp, #0
 322              	.LCFI18:
 323              		.cfi_def_cfa_register 7
 324 0006 7860     		str	r0, [r7, #4]
 451:Drivers/STM32F7xx_HAL_Driver/Src/stm32f7xx_hal_qspi.c ****   /* Prevent unused argument(s) compilation warning */
 452:Drivers/STM32F7xx_HAL_Driver/Src/stm32f7xx_hal_qspi.c ****   UNUSED(hqspi);
 453:Drivers/STM32F7xx_HAL_Driver/Src/stm32f7xx_hal_qspi.c **** 
 454:Drivers/STM32F7xx_HAL_Driver/Src/stm32f7xx_hal_qspi.c ****   /* NOTE : This function should not be modified, when the callback is needed,
 455:Drivers/STM32F7xx_HAL_Driver/Src/stm32f7xx_hal_qspi.c ****             the HAL_QSPI_MspDeInit can be implemented in the user file
 456:Drivers/STM32F7xx_HAL_Driver/Src/stm32f7xx_hal_qspi.c ****    */
 457:Drivers/STM32F7xx_HAL_Driver/Src/stm32f7xx_hal_qspi.c **** }
 325              		.loc 1 457 1
 326 0008 00BF     		nop
 327 000a 0C37     		adds	r7, r7, #12
 328              	.LCFI19:
 329              		.cfi_def_cfa_offset 4
 330 000c BD46     		mov	sp, r7
 331              	.LCFI20:
 332              		.cfi_def_cfa_register 13
 333              		@ sp needed
 334 000e 5DF8047B 		ldr	r7, [sp], #4
 335              	.LCFI21:
 336              		.cfi_restore 7
 337              		.cfi_def_cfa_offset 0
 338 0012 7047     		bx	lr
 339              		.cfi_endproc
 340              	.LFE144:
 342              		.section	.text.HAL_QSPI_IRQHandler,"ax",%progbits
 343              		.align	1
 344              		.global	HAL_QSPI_IRQHandler
 345              		.syntax unified
 346              		.thumb
 347              		.thumb_func
 349              	HAL_QSPI_IRQHandler:
 350              	.LFB145:
ARM GAS  C:\Users\jisu8\AppData\Local\Temp\ccA6Ygqq.s 			page 15


 458:Drivers/STM32F7xx_HAL_Driver/Src/stm32f7xx_hal_qspi.c **** 
 459:Drivers/STM32F7xx_HAL_Driver/Src/stm32f7xx_hal_qspi.c **** /**
 460:Drivers/STM32F7xx_HAL_Driver/Src/stm32f7xx_hal_qspi.c ****   * @}
 461:Drivers/STM32F7xx_HAL_Driver/Src/stm32f7xx_hal_qspi.c ****   */
 462:Drivers/STM32F7xx_HAL_Driver/Src/stm32f7xx_hal_qspi.c **** 
 463:Drivers/STM32F7xx_HAL_Driver/Src/stm32f7xx_hal_qspi.c **** /** @defgroup QSPI_Exported_Functions_Group2 Input and Output operation functions
 464:Drivers/STM32F7xx_HAL_Driver/Src/stm32f7xx_hal_qspi.c ****   *  @brief QSPI Transmit/Receive functions
 465:Drivers/STM32F7xx_HAL_Driver/Src/stm32f7xx_hal_qspi.c ****   *
 466:Drivers/STM32F7xx_HAL_Driver/Src/stm32f7xx_hal_qspi.c **** @verbatim
 467:Drivers/STM32F7xx_HAL_Driver/Src/stm32f7xx_hal_qspi.c ****  ===============================================================================
 468:Drivers/STM32F7xx_HAL_Driver/Src/stm32f7xx_hal_qspi.c ****                       ##### IO operation functions #####
 469:Drivers/STM32F7xx_HAL_Driver/Src/stm32f7xx_hal_qspi.c ****  ===============================================================================
 470:Drivers/STM32F7xx_HAL_Driver/Src/stm32f7xx_hal_qspi.c ****     [..]
 471:Drivers/STM32F7xx_HAL_Driver/Src/stm32f7xx_hal_qspi.c ****     This subsection provides a set of functions allowing to :
 472:Drivers/STM32F7xx_HAL_Driver/Src/stm32f7xx_hal_qspi.c ****       (+) Handle the interrupts.
 473:Drivers/STM32F7xx_HAL_Driver/Src/stm32f7xx_hal_qspi.c ****       (+) Handle the command sequence.
 474:Drivers/STM32F7xx_HAL_Driver/Src/stm32f7xx_hal_qspi.c ****       (+) Transmit data in blocking, interrupt or DMA mode.
 475:Drivers/STM32F7xx_HAL_Driver/Src/stm32f7xx_hal_qspi.c ****       (+) Receive data in blocking, interrupt or DMA mode.
 476:Drivers/STM32F7xx_HAL_Driver/Src/stm32f7xx_hal_qspi.c ****       (+) Manage the auto-polling functional mode.
 477:Drivers/STM32F7xx_HAL_Driver/Src/stm32f7xx_hal_qspi.c ****       (+) Manage the memory-mapped functional mode.
 478:Drivers/STM32F7xx_HAL_Driver/Src/stm32f7xx_hal_qspi.c **** 
 479:Drivers/STM32F7xx_HAL_Driver/Src/stm32f7xx_hal_qspi.c **** @endverbatim
 480:Drivers/STM32F7xx_HAL_Driver/Src/stm32f7xx_hal_qspi.c ****   * @{
 481:Drivers/STM32F7xx_HAL_Driver/Src/stm32f7xx_hal_qspi.c ****   */
 482:Drivers/STM32F7xx_HAL_Driver/Src/stm32f7xx_hal_qspi.c **** 
 483:Drivers/STM32F7xx_HAL_Driver/Src/stm32f7xx_hal_qspi.c **** /**
 484:Drivers/STM32F7xx_HAL_Driver/Src/stm32f7xx_hal_qspi.c ****   * @brief Handle QSPI interrupt request.
 485:Drivers/STM32F7xx_HAL_Driver/Src/stm32f7xx_hal_qspi.c ****   * @param hqspi QSPI handle
 486:Drivers/STM32F7xx_HAL_Driver/Src/stm32f7xx_hal_qspi.c ****   * @retval None
 487:Drivers/STM32F7xx_HAL_Driver/Src/stm32f7xx_hal_qspi.c ****   */
 488:Drivers/STM32F7xx_HAL_Driver/Src/stm32f7xx_hal_qspi.c **** void HAL_QSPI_IRQHandler(QSPI_HandleTypeDef *hqspi)
 489:Drivers/STM32F7xx_HAL_Driver/Src/stm32f7xx_hal_qspi.c **** {
 351              		.loc 1 489 1
 352              		.cfi_startproc
 353              		@ args = 0, pretend = 0, frame = 24
 354              		@ frame_needed = 1, uses_anonymous_args = 0
 355 0000 80B5     		push	{r7, lr}
 356              	.LCFI22:
 357              		.cfi_def_cfa_offset 8
 358              		.cfi_offset 7, -8
 359              		.cfi_offset 14, -4
 360 0002 86B0     		sub	sp, sp, #24
 361              	.LCFI23:
 362              		.cfi_def_cfa_offset 32
 363 0004 00AF     		add	r7, sp, #0
 364              	.LCFI24:
 365              		.cfi_def_cfa_register 7
 366 0006 7860     		str	r0, [r7, #4]
 490:Drivers/STM32F7xx_HAL_Driver/Src/stm32f7xx_hal_qspi.c ****   __IO uint32_t *data_reg;
 491:Drivers/STM32F7xx_HAL_Driver/Src/stm32f7xx_hal_qspi.c ****   uint32_t flag = READ_REG(hqspi->Instance->SR);
 367              		.loc 1 491 19
 368 0008 7B68     		ldr	r3, [r7, #4]
 369 000a 1B68     		ldr	r3, [r3]
 370              		.loc 1 491 12
 371 000c 9B68     		ldr	r3, [r3, #8]
 372 000e 7B61     		str	r3, [r7, #20]
 492:Drivers/STM32F7xx_HAL_Driver/Src/stm32f7xx_hal_qspi.c ****   uint32_t itsource = READ_REG(hqspi->Instance->CR);
ARM GAS  C:\Users\jisu8\AppData\Local\Temp\ccA6Ygqq.s 			page 16


 373              		.loc 1 492 23
 374 0010 7B68     		ldr	r3, [r7, #4]
 375 0012 1B68     		ldr	r3, [r3]
 376              		.loc 1 492 12
 377 0014 1B68     		ldr	r3, [r3]
 378 0016 3B61     		str	r3, [r7, #16]
 493:Drivers/STM32F7xx_HAL_Driver/Src/stm32f7xx_hal_qspi.c **** 
 494:Drivers/STM32F7xx_HAL_Driver/Src/stm32f7xx_hal_qspi.c ****   /* QSPI Fifo Threshold interrupt occurred ----------------------------------*/
 495:Drivers/STM32F7xx_HAL_Driver/Src/stm32f7xx_hal_qspi.c ****   if(((flag & QSPI_FLAG_FT) != 0U) && ((itsource & QSPI_IT_FT) != 0U))
 379              		.loc 1 495 13
 380 0018 7B69     		ldr	r3, [r7, #20]
 381 001a 03F00403 		and	r3, r3, #4
 382              		.loc 1 495 5
 383 001e 002B     		cmp	r3, #0
 384 0020 64D0     		beq	.L14
 385              		.loc 1 495 50 discriminator 1
 386 0022 3B69     		ldr	r3, [r7, #16]
 387 0024 03F48023 		and	r3, r3, #262144
 388              		.loc 1 495 36 discriminator 1
 389 0028 002B     		cmp	r3, #0
 390 002a 5FD0     		beq	.L14
 496:Drivers/STM32F7xx_HAL_Driver/Src/stm32f7xx_hal_qspi.c ****   {
 497:Drivers/STM32F7xx_HAL_Driver/Src/stm32f7xx_hal_qspi.c ****     data_reg = &hqspi->Instance->DR;
 391              		.loc 1 497 22
 392 002c 7B68     		ldr	r3, [r7, #4]
 393 002e 1B68     		ldr	r3, [r3]
 394              		.loc 1 497 14
 395 0030 2033     		adds	r3, r3, #32
 396 0032 FB60     		str	r3, [r7, #12]
 498:Drivers/STM32F7xx_HAL_Driver/Src/stm32f7xx_hal_qspi.c **** 
 499:Drivers/STM32F7xx_HAL_Driver/Src/stm32f7xx_hal_qspi.c ****     if(hqspi->State == HAL_QSPI_STATE_BUSY_INDIRECT_TX)
 397              		.loc 1 499 13
 398 0034 7B68     		ldr	r3, [r7, #4]
 399 0036 93F84130 		ldrb	r3, [r3, #65]
 400 003a DBB2     		uxtb	r3, r3
 401              		.loc 1 499 7
 402 003c 122B     		cmp	r3, #18
 403 003e 25D1     		bne	.L15
 500:Drivers/STM32F7xx_HAL_Driver/Src/stm32f7xx_hal_qspi.c ****     {
 501:Drivers/STM32F7xx_HAL_Driver/Src/stm32f7xx_hal_qspi.c ****       /* Transmission process */
 502:Drivers/STM32F7xx_HAL_Driver/Src/stm32f7xx_hal_qspi.c ****       while(__HAL_QSPI_GET_FLAG(hqspi, QSPI_FLAG_FT) != RESET)
 404              		.loc 1 502 12
 405 0040 1CE0     		b	.L16
 406              	.L19:
 503:Drivers/STM32F7xx_HAL_Driver/Src/stm32f7xx_hal_qspi.c ****       {
 504:Drivers/STM32F7xx_HAL_Driver/Src/stm32f7xx_hal_qspi.c ****         if (hqspi->TxXferCount > 0U)
 407              		.loc 1 504 18
 408 0042 7B68     		ldr	r3, [r7, #4]
 409 0044 DB6A     		ldr	r3, [r3, #44]
 410              		.loc 1 504 12
 411 0046 002B     		cmp	r3, #0
 412 0048 0FD0     		beq	.L17
 505:Drivers/STM32F7xx_HAL_Driver/Src/stm32f7xx_hal_qspi.c ****         {
 506:Drivers/STM32F7xx_HAL_Driver/Src/stm32f7xx_hal_qspi.c ****           /* Fill the FIFO until the threshold is reached */
 507:Drivers/STM32F7xx_HAL_Driver/Src/stm32f7xx_hal_qspi.c ****           *((__IO uint8_t *)data_reg) = *hqspi->pTxBuffPtr;
 413              		.loc 1 507 47
 414 004a 7B68     		ldr	r3, [r7, #4]
ARM GAS  C:\Users\jisu8\AppData\Local\Temp\ccA6Ygqq.s 			page 17


 415 004c 5B6A     		ldr	r3, [r3, #36]
 416              		.loc 1 507 41
 417 004e 1A78     		ldrb	r2, [r3]	@ zero_extendqisi2
 418              		.loc 1 507 39
 419 0050 FB68     		ldr	r3, [r7, #12]
 420 0052 1A70     		strb	r2, [r3]
 508:Drivers/STM32F7xx_HAL_Driver/Src/stm32f7xx_hal_qspi.c ****           hqspi->pTxBuffPtr++;
 421              		.loc 1 508 16
 422 0054 7B68     		ldr	r3, [r7, #4]
 423 0056 5B6A     		ldr	r3, [r3, #36]
 424              		.loc 1 508 28
 425 0058 5A1C     		adds	r2, r3, #1
 426 005a 7B68     		ldr	r3, [r7, #4]
 427 005c 5A62     		str	r2, [r3, #36]
 509:Drivers/STM32F7xx_HAL_Driver/Src/stm32f7xx_hal_qspi.c ****           hqspi->TxXferCount--;
 428              		.loc 1 509 16
 429 005e 7B68     		ldr	r3, [r7, #4]
 430 0060 DB6A     		ldr	r3, [r3, #44]
 431              		.loc 1 509 29
 432 0062 5A1E     		subs	r2, r3, #1
 433 0064 7B68     		ldr	r3, [r7, #4]
 434 0066 DA62     		str	r2, [r3, #44]
 435 0068 08E0     		b	.L16
 436              	.L17:
 510:Drivers/STM32F7xx_HAL_Driver/Src/stm32f7xx_hal_qspi.c ****         }
 511:Drivers/STM32F7xx_HAL_Driver/Src/stm32f7xx_hal_qspi.c ****         else
 512:Drivers/STM32F7xx_HAL_Driver/Src/stm32f7xx_hal_qspi.c ****         {
 513:Drivers/STM32F7xx_HAL_Driver/Src/stm32f7xx_hal_qspi.c ****           /* No more data available for the transfer */
 514:Drivers/STM32F7xx_HAL_Driver/Src/stm32f7xx_hal_qspi.c ****           /* Disable the QSPI FIFO Threshold Interrupt */
 515:Drivers/STM32F7xx_HAL_Driver/Src/stm32f7xx_hal_qspi.c ****           __HAL_QSPI_DISABLE_IT(hqspi, QSPI_IT_FT);
 437              		.loc 1 515 11
 438 006a 7B68     		ldr	r3, [r7, #4]
 439 006c 1B68     		ldr	r3, [r3]
 440 006e 1A68     		ldr	r2, [r3]
 441 0070 7B68     		ldr	r3, [r7, #4]
 442 0072 1B68     		ldr	r3, [r3]
 443 0074 22F48022 		bic	r2, r2, #262144
 444 0078 1A60     		str	r2, [r3]
 516:Drivers/STM32F7xx_HAL_Driver/Src/stm32f7xx_hal_qspi.c ****           break;
 445              		.loc 1 516 11
 446 007a 33E0     		b	.L20
 447              	.L16:
 502:Drivers/STM32F7xx_HAL_Driver/Src/stm32f7xx_hal_qspi.c ****       {
 448              		.loc 1 502 13
 449 007c 7B68     		ldr	r3, [r7, #4]
 450 007e 1B68     		ldr	r3, [r3]
 451 0080 9B68     		ldr	r3, [r3, #8]
 452 0082 03F00403 		and	r3, r3, #4
 502:Drivers/STM32F7xx_HAL_Driver/Src/stm32f7xx_hal_qspi.c ****       {
 453              		.loc 1 502 12
 454 0086 002B     		cmp	r3, #0
 455 0088 DBD1     		bne	.L19
 456 008a 2BE0     		b	.L20
 457              	.L15:
 517:Drivers/STM32F7xx_HAL_Driver/Src/stm32f7xx_hal_qspi.c ****         }
 518:Drivers/STM32F7xx_HAL_Driver/Src/stm32f7xx_hal_qspi.c ****       }
 519:Drivers/STM32F7xx_HAL_Driver/Src/stm32f7xx_hal_qspi.c ****     }
ARM GAS  C:\Users\jisu8\AppData\Local\Temp\ccA6Ygqq.s 			page 18


 520:Drivers/STM32F7xx_HAL_Driver/Src/stm32f7xx_hal_qspi.c ****     else if(hqspi->State == HAL_QSPI_STATE_BUSY_INDIRECT_RX)
 458              		.loc 1 520 18
 459 008c 7B68     		ldr	r3, [r7, #4]
 460 008e 93F84130 		ldrb	r3, [r3, #65]
 461 0092 DBB2     		uxtb	r3, r3
 462              		.loc 1 520 12
 463 0094 222B     		cmp	r3, #34
 464 0096 25D1     		bne	.L20
 521:Drivers/STM32F7xx_HAL_Driver/Src/stm32f7xx_hal_qspi.c ****     {
 522:Drivers/STM32F7xx_HAL_Driver/Src/stm32f7xx_hal_qspi.c ****       /* Receiving Process */
 523:Drivers/STM32F7xx_HAL_Driver/Src/stm32f7xx_hal_qspi.c ****       while(__HAL_QSPI_GET_FLAG(hqspi, QSPI_FLAG_FT) != RESET)
 465              		.loc 1 523 12
 466 0098 1DE0     		b	.L21
 467              	.L24:
 524:Drivers/STM32F7xx_HAL_Driver/Src/stm32f7xx_hal_qspi.c ****       {
 525:Drivers/STM32F7xx_HAL_Driver/Src/stm32f7xx_hal_qspi.c ****         if (hqspi->RxXferCount > 0U)
 468              		.loc 1 525 18
 469 009a 7B68     		ldr	r3, [r7, #4]
 470 009c 9B6B     		ldr	r3, [r3, #56]
 471              		.loc 1 525 12
 472 009e 002B     		cmp	r3, #0
 473 00a0 10D0     		beq	.L22
 526:Drivers/STM32F7xx_HAL_Driver/Src/stm32f7xx_hal_qspi.c ****         {
 527:Drivers/STM32F7xx_HAL_Driver/Src/stm32f7xx_hal_qspi.c ****           /* Read the FIFO until the threshold is reached */
 528:Drivers/STM32F7xx_HAL_Driver/Src/stm32f7xx_hal_qspi.c ****           *hqspi->pRxBuffPtr = *((__IO uint8_t *)data_reg);
 474              		.loc 1 528 17
 475 00a2 7B68     		ldr	r3, [r7, #4]
 476 00a4 1B6B     		ldr	r3, [r3, #48]
 477              		.loc 1 528 32
 478 00a6 FA68     		ldr	r2, [r7, #12]
 479 00a8 1278     		ldrb	r2, [r2]
 480 00aa D2B2     		uxtb	r2, r2
 481              		.loc 1 528 30
 482 00ac 1A70     		strb	r2, [r3]
 529:Drivers/STM32F7xx_HAL_Driver/Src/stm32f7xx_hal_qspi.c ****           hqspi->pRxBuffPtr++;
 483              		.loc 1 529 16
 484 00ae 7B68     		ldr	r3, [r7, #4]
 485 00b0 1B6B     		ldr	r3, [r3, #48]
 486              		.loc 1 529 28
 487 00b2 5A1C     		adds	r2, r3, #1
 488 00b4 7B68     		ldr	r3, [r7, #4]
 489 00b6 1A63     		str	r2, [r3, #48]
 530:Drivers/STM32F7xx_HAL_Driver/Src/stm32f7xx_hal_qspi.c ****           hqspi->RxXferCount--;
 490              		.loc 1 530 16
 491 00b8 7B68     		ldr	r3, [r7, #4]
 492 00ba 9B6B     		ldr	r3, [r3, #56]
 493              		.loc 1 530 29
 494 00bc 5A1E     		subs	r2, r3, #1
 495 00be 7B68     		ldr	r3, [r7, #4]
 496 00c0 9A63     		str	r2, [r3, #56]
 497 00c2 08E0     		b	.L21
 498              	.L22:
 531:Drivers/STM32F7xx_HAL_Driver/Src/stm32f7xx_hal_qspi.c ****         }
 532:Drivers/STM32F7xx_HAL_Driver/Src/stm32f7xx_hal_qspi.c ****         else
 533:Drivers/STM32F7xx_HAL_Driver/Src/stm32f7xx_hal_qspi.c ****         {
 534:Drivers/STM32F7xx_HAL_Driver/Src/stm32f7xx_hal_qspi.c ****           /* All data have been received for the transfer */
 535:Drivers/STM32F7xx_HAL_Driver/Src/stm32f7xx_hal_qspi.c ****           /* Disable the QSPI FIFO Threshold Interrupt */
ARM GAS  C:\Users\jisu8\AppData\Local\Temp\ccA6Ygqq.s 			page 19


 536:Drivers/STM32F7xx_HAL_Driver/Src/stm32f7xx_hal_qspi.c ****           __HAL_QSPI_DISABLE_IT(hqspi, QSPI_IT_FT);
 499              		.loc 1 536 11
 500 00c4 7B68     		ldr	r3, [r7, #4]
 501 00c6 1B68     		ldr	r3, [r3]
 502 00c8 1A68     		ldr	r2, [r3]
 503 00ca 7B68     		ldr	r3, [r7, #4]
 504 00cc 1B68     		ldr	r3, [r3]
 505 00ce 22F48022 		bic	r2, r2, #262144
 506 00d2 1A60     		str	r2, [r3]
 537:Drivers/STM32F7xx_HAL_Driver/Src/stm32f7xx_hal_qspi.c ****           break;
 507              		.loc 1 537 11
 508 00d4 06E0     		b	.L20
 509              	.L21:
 523:Drivers/STM32F7xx_HAL_Driver/Src/stm32f7xx_hal_qspi.c ****       {
 510              		.loc 1 523 13
 511 00d6 7B68     		ldr	r3, [r7, #4]
 512 00d8 1B68     		ldr	r3, [r3]
 513 00da 9B68     		ldr	r3, [r3, #8]
 514 00dc 03F00403 		and	r3, r3, #4
 523:Drivers/STM32F7xx_HAL_Driver/Src/stm32f7xx_hal_qspi.c ****       {
 515              		.loc 1 523 12
 516 00e0 002B     		cmp	r3, #0
 517 00e2 DAD1     		bne	.L24
 518              	.L20:
 538:Drivers/STM32F7xx_HAL_Driver/Src/stm32f7xx_hal_qspi.c ****         }
 539:Drivers/STM32F7xx_HAL_Driver/Src/stm32f7xx_hal_qspi.c ****       }
 540:Drivers/STM32F7xx_HAL_Driver/Src/stm32f7xx_hal_qspi.c ****     }
 541:Drivers/STM32F7xx_HAL_Driver/Src/stm32f7xx_hal_qspi.c ****     else
 542:Drivers/STM32F7xx_HAL_Driver/Src/stm32f7xx_hal_qspi.c ****     {
 543:Drivers/STM32F7xx_HAL_Driver/Src/stm32f7xx_hal_qspi.c ****       /* Nothing to do */
 544:Drivers/STM32F7xx_HAL_Driver/Src/stm32f7xx_hal_qspi.c ****     }
 545:Drivers/STM32F7xx_HAL_Driver/Src/stm32f7xx_hal_qspi.c **** 
 546:Drivers/STM32F7xx_HAL_Driver/Src/stm32f7xx_hal_qspi.c ****     /* FIFO Threshold callback */
 547:Drivers/STM32F7xx_HAL_Driver/Src/stm32f7xx_hal_qspi.c **** #if (USE_HAL_QSPI_REGISTER_CALLBACKS == 1)
 548:Drivers/STM32F7xx_HAL_Driver/Src/stm32f7xx_hal_qspi.c ****     hqspi->FifoThresholdCallback(hqspi);
 549:Drivers/STM32F7xx_HAL_Driver/Src/stm32f7xx_hal_qspi.c **** #else
 550:Drivers/STM32F7xx_HAL_Driver/Src/stm32f7xx_hal_qspi.c ****     HAL_QSPI_FifoThresholdCallback(hqspi);
 519              		.loc 1 550 5
 520 00e4 7868     		ldr	r0, [r7, #4]
 521 00e6 FFF7FEFF 		bl	HAL_QSPI_FifoThresholdCallback
 522 00ea 42E1     		b	.L25
 523              	.L14:
 551:Drivers/STM32F7xx_HAL_Driver/Src/stm32f7xx_hal_qspi.c **** #endif
 552:Drivers/STM32F7xx_HAL_Driver/Src/stm32f7xx_hal_qspi.c ****   }
 553:Drivers/STM32F7xx_HAL_Driver/Src/stm32f7xx_hal_qspi.c **** 
 554:Drivers/STM32F7xx_HAL_Driver/Src/stm32f7xx_hal_qspi.c ****   /* QSPI Transfer Complete interrupt occurred -------------------------------*/
 555:Drivers/STM32F7xx_HAL_Driver/Src/stm32f7xx_hal_qspi.c ****   else if(((flag & QSPI_FLAG_TC) != 0U) && ((itsource & QSPI_IT_TC) != 0U))
 524              		.loc 1 555 18
 525 00ec 7B69     		ldr	r3, [r7, #20]
 526 00ee 03F00203 		and	r3, r3, #2
 527              		.loc 1 555 10
 528 00f2 002B     		cmp	r3, #0
 529 00f4 00F0B680 		beq	.L26
 530              		.loc 1 555 55 discriminator 1
 531 00f8 3B69     		ldr	r3, [r7, #16]
 532 00fa 03F40033 		and	r3, r3, #131072
 533              		.loc 1 555 41 discriminator 1
ARM GAS  C:\Users\jisu8\AppData\Local\Temp\ccA6Ygqq.s 			page 20


 534 00fe 002B     		cmp	r3, #0
 535 0100 00F0B080 		beq	.L26
 556:Drivers/STM32F7xx_HAL_Driver/Src/stm32f7xx_hal_qspi.c ****   {
 557:Drivers/STM32F7xx_HAL_Driver/Src/stm32f7xx_hal_qspi.c ****     /* Clear interrupt */
 558:Drivers/STM32F7xx_HAL_Driver/Src/stm32f7xx_hal_qspi.c ****     WRITE_REG(hqspi->Instance->FCR, QSPI_FLAG_TC);
 536              		.loc 1 558 5
 537 0104 7B68     		ldr	r3, [r7, #4]
 538 0106 1B68     		ldr	r3, [r3]
 539 0108 0222     		movs	r2, #2
 540 010a DA60     		str	r2, [r3, #12]
 559:Drivers/STM32F7xx_HAL_Driver/Src/stm32f7xx_hal_qspi.c **** 
 560:Drivers/STM32F7xx_HAL_Driver/Src/stm32f7xx_hal_qspi.c ****     /* Disable the QSPI FIFO Threshold, Transfer Error and Transfer complete Interrupts */
 561:Drivers/STM32F7xx_HAL_Driver/Src/stm32f7xx_hal_qspi.c ****     __HAL_QSPI_DISABLE_IT(hqspi, QSPI_IT_TC | QSPI_IT_TE | QSPI_IT_FT);
 541              		.loc 1 561 5
 542 010c 7B68     		ldr	r3, [r7, #4]
 543 010e 1B68     		ldr	r3, [r3]
 544 0110 1A68     		ldr	r2, [r3]
 545 0112 7B68     		ldr	r3, [r7, #4]
 546 0114 1B68     		ldr	r3, [r3]
 547 0116 22F4E022 		bic	r2, r2, #458752
 548 011a 1A60     		str	r2, [r3]
 562:Drivers/STM32F7xx_HAL_Driver/Src/stm32f7xx_hal_qspi.c **** 
 563:Drivers/STM32F7xx_HAL_Driver/Src/stm32f7xx_hal_qspi.c ****     /* Transfer complete callback */
 564:Drivers/STM32F7xx_HAL_Driver/Src/stm32f7xx_hal_qspi.c ****     if(hqspi->State == HAL_QSPI_STATE_BUSY_INDIRECT_TX)
 549              		.loc 1 564 13
 550 011c 7B68     		ldr	r3, [r7, #4]
 551 011e 93F84130 		ldrb	r3, [r3, #65]
 552 0122 DBB2     		uxtb	r3, r3
 553              		.loc 1 564 7
 554 0124 122B     		cmp	r3, #18
 555 0126 23D1     		bne	.L27
 565:Drivers/STM32F7xx_HAL_Driver/Src/stm32f7xx_hal_qspi.c ****     {
 566:Drivers/STM32F7xx_HAL_Driver/Src/stm32f7xx_hal_qspi.c ****       if ((hqspi->Instance->CR & QUADSPI_CR_DMAEN) != 0U)
 556              		.loc 1 566 17
 557 0128 7B68     		ldr	r3, [r7, #4]
 558 012a 1B68     		ldr	r3, [r3]
 559              		.loc 1 566 27
 560 012c 1B68     		ldr	r3, [r3]
 561              		.loc 1 566 32
 562 012e 03F00403 		and	r3, r3, #4
 563              		.loc 1 566 10
 564 0132 002B     		cmp	r3, #0
 565 0134 11D0     		beq	.L28
 567:Drivers/STM32F7xx_HAL_Driver/Src/stm32f7xx_hal_qspi.c ****       {
 568:Drivers/STM32F7xx_HAL_Driver/Src/stm32f7xx_hal_qspi.c ****         /* Disable the DMA transfer by clearing the DMAEN bit in the QSPI CR register */
 569:Drivers/STM32F7xx_HAL_Driver/Src/stm32f7xx_hal_qspi.c ****         CLEAR_BIT(hqspi->Instance->CR, QUADSPI_CR_DMAEN);
 566              		.loc 1 569 9
 567 0136 7B68     		ldr	r3, [r7, #4]
 568 0138 1B68     		ldr	r3, [r3]
 569 013a 1A68     		ldr	r2, [r3]
 570 013c 7B68     		ldr	r3, [r7, #4]
 571 013e 1B68     		ldr	r3, [r3]
 572 0140 22F00402 		bic	r2, r2, #4
 573 0144 1A60     		str	r2, [r3]
 570:Drivers/STM32F7xx_HAL_Driver/Src/stm32f7xx_hal_qspi.c **** 
 571:Drivers/STM32F7xx_HAL_Driver/Src/stm32f7xx_hal_qspi.c ****         /* Disable the DMA channel */
 572:Drivers/STM32F7xx_HAL_Driver/Src/stm32f7xx_hal_qspi.c ****         __HAL_DMA_DISABLE(hqspi->hdma);
ARM GAS  C:\Users\jisu8\AppData\Local\Temp\ccA6Ygqq.s 			page 21


 574              		.loc 1 572 9
 575 0146 7B68     		ldr	r3, [r7, #4]
 576 0148 DB6B     		ldr	r3, [r3, #60]
 577 014a 1B68     		ldr	r3, [r3]
 578 014c 1A68     		ldr	r2, [r3]
 579 014e 7B68     		ldr	r3, [r7, #4]
 580 0150 DB6B     		ldr	r3, [r3, #60]
 581 0152 1B68     		ldr	r3, [r3]
 582 0154 22F00102 		bic	r2, r2, #1
 583 0158 1A60     		str	r2, [r3]
 584              	.L28:
 573:Drivers/STM32F7xx_HAL_Driver/Src/stm32f7xx_hal_qspi.c ****       }
 574:Drivers/STM32F7xx_HAL_Driver/Src/stm32f7xx_hal_qspi.c **** 
 575:Drivers/STM32F7xx_HAL_Driver/Src/stm32f7xx_hal_qspi.c **** #if  defined(QSPI1_V1_0)
 576:Drivers/STM32F7xx_HAL_Driver/Src/stm32f7xx_hal_qspi.c ****       /* Clear Busy bit */
 577:Drivers/STM32F7xx_HAL_Driver/Src/stm32f7xx_hal_qspi.c ****       HAL_QSPI_Abort_IT(hqspi);
 585              		.loc 1 577 7
 586 015a 7868     		ldr	r0, [r7, #4]
 587 015c FFF7FEFF 		bl	HAL_QSPI_Abort_IT
 578:Drivers/STM32F7xx_HAL_Driver/Src/stm32f7xx_hal_qspi.c **** #endif
 579:Drivers/STM32F7xx_HAL_Driver/Src/stm32f7xx_hal_qspi.c **** 
 580:Drivers/STM32F7xx_HAL_Driver/Src/stm32f7xx_hal_qspi.c ****       /* Change state of QSPI */
 581:Drivers/STM32F7xx_HAL_Driver/Src/stm32f7xx_hal_qspi.c ****       hqspi->State = HAL_QSPI_STATE_READY;
 588              		.loc 1 581 20
 589 0160 7B68     		ldr	r3, [r7, #4]
 590 0162 0122     		movs	r2, #1
 591 0164 83F84120 		strb	r2, [r3, #65]
 582:Drivers/STM32F7xx_HAL_Driver/Src/stm32f7xx_hal_qspi.c **** 
 583:Drivers/STM32F7xx_HAL_Driver/Src/stm32f7xx_hal_qspi.c ****       /* TX Complete callback */
 584:Drivers/STM32F7xx_HAL_Driver/Src/stm32f7xx_hal_qspi.c **** #if (USE_HAL_QSPI_REGISTER_CALLBACKS == 1)
 585:Drivers/STM32F7xx_HAL_Driver/Src/stm32f7xx_hal_qspi.c ****       hqspi->TxCpltCallback(hqspi);
 586:Drivers/STM32F7xx_HAL_Driver/Src/stm32f7xx_hal_qspi.c **** #else
 587:Drivers/STM32F7xx_HAL_Driver/Src/stm32f7xx_hal_qspi.c ****       HAL_QSPI_TxCpltCallback(hqspi);
 592              		.loc 1 587 7
 593 0168 7868     		ldr	r0, [r7, #4]
 594 016a FFF7FEFF 		bl	HAL_QSPI_TxCpltCallback
 564:Drivers/STM32F7xx_HAL_Driver/Src/stm32f7xx_hal_qspi.c ****     {
 595              		.loc 1 564 7
 596 016e FDE0     		b	.L44
 597              	.L27:
 588:Drivers/STM32F7xx_HAL_Driver/Src/stm32f7xx_hal_qspi.c **** #endif
 589:Drivers/STM32F7xx_HAL_Driver/Src/stm32f7xx_hal_qspi.c ****     }
 590:Drivers/STM32F7xx_HAL_Driver/Src/stm32f7xx_hal_qspi.c ****     else if(hqspi->State == HAL_QSPI_STATE_BUSY_INDIRECT_RX)
 598              		.loc 1 590 18
 599 0170 7B68     		ldr	r3, [r7, #4]
 600 0172 93F84130 		ldrb	r3, [r3, #65]
 601 0176 DBB2     		uxtb	r3, r3
 602              		.loc 1 590 12
 603 0178 222B     		cmp	r3, #34
 604 017a 46D1     		bne	.L30
 591:Drivers/STM32F7xx_HAL_Driver/Src/stm32f7xx_hal_qspi.c ****     {
 592:Drivers/STM32F7xx_HAL_Driver/Src/stm32f7xx_hal_qspi.c ****       if ((hqspi->Instance->CR & QUADSPI_CR_DMAEN) != 0U)
 605              		.loc 1 592 17
 606 017c 7B68     		ldr	r3, [r7, #4]
 607 017e 1B68     		ldr	r3, [r3]
 608              		.loc 1 592 27
 609 0180 1B68     		ldr	r3, [r3]
ARM GAS  C:\Users\jisu8\AppData\Local\Temp\ccA6Ygqq.s 			page 22


 610              		.loc 1 592 32
 611 0182 03F00403 		and	r3, r3, #4
 612              		.loc 1 592 10
 613 0186 002B     		cmp	r3, #0
 614 0188 12D0     		beq	.L31
 593:Drivers/STM32F7xx_HAL_Driver/Src/stm32f7xx_hal_qspi.c ****       {
 594:Drivers/STM32F7xx_HAL_Driver/Src/stm32f7xx_hal_qspi.c ****         /* Disable the DMA transfer by clearing the DMAEN bit in the QSPI CR register */
 595:Drivers/STM32F7xx_HAL_Driver/Src/stm32f7xx_hal_qspi.c ****         CLEAR_BIT(hqspi->Instance->CR, QUADSPI_CR_DMAEN);
 615              		.loc 1 595 9
 616 018a 7B68     		ldr	r3, [r7, #4]
 617 018c 1B68     		ldr	r3, [r3]
 618 018e 1A68     		ldr	r2, [r3]
 619 0190 7B68     		ldr	r3, [r7, #4]
 620 0192 1B68     		ldr	r3, [r3]
 621 0194 22F00402 		bic	r2, r2, #4
 622 0198 1A60     		str	r2, [r3]
 596:Drivers/STM32F7xx_HAL_Driver/Src/stm32f7xx_hal_qspi.c **** 
 597:Drivers/STM32F7xx_HAL_Driver/Src/stm32f7xx_hal_qspi.c ****         /* Disable the DMA channel */
 598:Drivers/STM32F7xx_HAL_Driver/Src/stm32f7xx_hal_qspi.c ****         __HAL_DMA_DISABLE(hqspi->hdma);
 623              		.loc 1 598 9
 624 019a 7B68     		ldr	r3, [r7, #4]
 625 019c DB6B     		ldr	r3, [r3, #60]
 626 019e 1B68     		ldr	r3, [r3]
 627 01a0 1A68     		ldr	r2, [r3]
 628 01a2 7B68     		ldr	r3, [r7, #4]
 629 01a4 DB6B     		ldr	r3, [r3, #60]
 630 01a6 1B68     		ldr	r3, [r3]
 631 01a8 22F00102 		bic	r2, r2, #1
 632 01ac 1A60     		str	r2, [r3]
 633 01ae 21E0     		b	.L32
 634              	.L31:
 599:Drivers/STM32F7xx_HAL_Driver/Src/stm32f7xx_hal_qspi.c ****       }
 600:Drivers/STM32F7xx_HAL_Driver/Src/stm32f7xx_hal_qspi.c ****       else
 601:Drivers/STM32F7xx_HAL_Driver/Src/stm32f7xx_hal_qspi.c ****       {
 602:Drivers/STM32F7xx_HAL_Driver/Src/stm32f7xx_hal_qspi.c ****         data_reg = &hqspi->Instance->DR;
 635              		.loc 1 602 26
 636 01b0 7B68     		ldr	r3, [r7, #4]
 637 01b2 1B68     		ldr	r3, [r3]
 638              		.loc 1 602 18
 639 01b4 2033     		adds	r3, r3, #32
 640 01b6 FB60     		str	r3, [r7, #12]
 603:Drivers/STM32F7xx_HAL_Driver/Src/stm32f7xx_hal_qspi.c ****         while(READ_BIT(hqspi->Instance->SR, QUADSPI_SR_FLEVEL) != 0U)
 641              		.loc 1 603 14
 642 01b8 13E0     		b	.L33
 643              	.L35:
 604:Drivers/STM32F7xx_HAL_Driver/Src/stm32f7xx_hal_qspi.c ****         {
 605:Drivers/STM32F7xx_HAL_Driver/Src/stm32f7xx_hal_qspi.c ****           if (hqspi->RxXferCount > 0U)
 644              		.loc 1 605 20
 645 01ba 7B68     		ldr	r3, [r7, #4]
 646 01bc 9B6B     		ldr	r3, [r3, #56]
 647              		.loc 1 605 14
 648 01be 002B     		cmp	r3, #0
 649 01c0 17D0     		beq	.L43
 606:Drivers/STM32F7xx_HAL_Driver/Src/stm32f7xx_hal_qspi.c ****           {
 607:Drivers/STM32F7xx_HAL_Driver/Src/stm32f7xx_hal_qspi.c ****             /* Read the last data received in the FIFO until it is empty */
 608:Drivers/STM32F7xx_HAL_Driver/Src/stm32f7xx_hal_qspi.c ****             *hqspi->pRxBuffPtr = *((__IO uint8_t *)data_reg);
 650              		.loc 1 608 19
ARM GAS  C:\Users\jisu8\AppData\Local\Temp\ccA6Ygqq.s 			page 23


 651 01c2 7B68     		ldr	r3, [r7, #4]
 652 01c4 1B6B     		ldr	r3, [r3, #48]
 653              		.loc 1 608 34
 654 01c6 FA68     		ldr	r2, [r7, #12]
 655 01c8 1278     		ldrb	r2, [r2]
 656 01ca D2B2     		uxtb	r2, r2
 657              		.loc 1 608 32
 658 01cc 1A70     		strb	r2, [r3]
 609:Drivers/STM32F7xx_HAL_Driver/Src/stm32f7xx_hal_qspi.c ****             hqspi->pRxBuffPtr++;
 659              		.loc 1 609 18
 660 01ce 7B68     		ldr	r3, [r7, #4]
 661 01d0 1B6B     		ldr	r3, [r3, #48]
 662              		.loc 1 609 30
 663 01d2 5A1C     		adds	r2, r3, #1
 664 01d4 7B68     		ldr	r3, [r7, #4]
 665 01d6 1A63     		str	r2, [r3, #48]
 610:Drivers/STM32F7xx_HAL_Driver/Src/stm32f7xx_hal_qspi.c ****             hqspi->RxXferCount--;
 666              		.loc 1 610 18
 667 01d8 7B68     		ldr	r3, [r7, #4]
 668 01da 9B6B     		ldr	r3, [r3, #56]
 669              		.loc 1 610 31
 670 01dc 5A1E     		subs	r2, r3, #1
 671 01de 7B68     		ldr	r3, [r7, #4]
 672 01e0 9A63     		str	r2, [r3, #56]
 673              	.L33:
 603:Drivers/STM32F7xx_HAL_Driver/Src/stm32f7xx_hal_qspi.c ****         {
 674              		.loc 1 603 15
 675 01e2 7B68     		ldr	r3, [r7, #4]
 676 01e4 1B68     		ldr	r3, [r3]
 677 01e6 9B68     		ldr	r3, [r3, #8]
 678 01e8 03F47C53 		and	r3, r3, #16128
 603:Drivers/STM32F7xx_HAL_Driver/Src/stm32f7xx_hal_qspi.c ****         {
 679              		.loc 1 603 14
 680 01ec 002B     		cmp	r3, #0
 681 01ee E4D1     		bne	.L35
 682 01f0 00E0     		b	.L32
 683              	.L43:
 611:Drivers/STM32F7xx_HAL_Driver/Src/stm32f7xx_hal_qspi.c ****           }
 612:Drivers/STM32F7xx_HAL_Driver/Src/stm32f7xx_hal_qspi.c ****           else
 613:Drivers/STM32F7xx_HAL_Driver/Src/stm32f7xx_hal_qspi.c ****           {
 614:Drivers/STM32F7xx_HAL_Driver/Src/stm32f7xx_hal_qspi.c ****             /* All data have been received for the transfer */
 615:Drivers/STM32F7xx_HAL_Driver/Src/stm32f7xx_hal_qspi.c ****             break;
 684              		.loc 1 615 13
 685 01f2 00BF     		nop
 686              	.L32:
 616:Drivers/STM32F7xx_HAL_Driver/Src/stm32f7xx_hal_qspi.c ****           }
 617:Drivers/STM32F7xx_HAL_Driver/Src/stm32f7xx_hal_qspi.c ****         }
 618:Drivers/STM32F7xx_HAL_Driver/Src/stm32f7xx_hal_qspi.c ****       }
 619:Drivers/STM32F7xx_HAL_Driver/Src/stm32f7xx_hal_qspi.c **** 
 620:Drivers/STM32F7xx_HAL_Driver/Src/stm32f7xx_hal_qspi.c **** #if  defined(QSPI1_V1_0)
 621:Drivers/STM32F7xx_HAL_Driver/Src/stm32f7xx_hal_qspi.c ****       /* Workaround - Extra data written in the FIFO at the end of a read transfer */
 622:Drivers/STM32F7xx_HAL_Driver/Src/stm32f7xx_hal_qspi.c ****       HAL_QSPI_Abort_IT(hqspi);
 687              		.loc 1 622 7
 688 01f4 7868     		ldr	r0, [r7, #4]
 689 01f6 FFF7FEFF 		bl	HAL_QSPI_Abort_IT
 623:Drivers/STM32F7xx_HAL_Driver/Src/stm32f7xx_hal_qspi.c **** #endif
 624:Drivers/STM32F7xx_HAL_Driver/Src/stm32f7xx_hal_qspi.c **** 
ARM GAS  C:\Users\jisu8\AppData\Local\Temp\ccA6Ygqq.s 			page 24


 625:Drivers/STM32F7xx_HAL_Driver/Src/stm32f7xx_hal_qspi.c ****       /* Change state of QSPI */
 626:Drivers/STM32F7xx_HAL_Driver/Src/stm32f7xx_hal_qspi.c ****       hqspi->State = HAL_QSPI_STATE_READY;
 690              		.loc 1 626 20
 691 01fa 7B68     		ldr	r3, [r7, #4]
 692 01fc 0122     		movs	r2, #1
 693 01fe 83F84120 		strb	r2, [r3, #65]
 627:Drivers/STM32F7xx_HAL_Driver/Src/stm32f7xx_hal_qspi.c **** 
 628:Drivers/STM32F7xx_HAL_Driver/Src/stm32f7xx_hal_qspi.c ****       /* RX Complete callback */
 629:Drivers/STM32F7xx_HAL_Driver/Src/stm32f7xx_hal_qspi.c **** #if (USE_HAL_QSPI_REGISTER_CALLBACKS == 1)
 630:Drivers/STM32F7xx_HAL_Driver/Src/stm32f7xx_hal_qspi.c ****       hqspi->RxCpltCallback(hqspi);
 631:Drivers/STM32F7xx_HAL_Driver/Src/stm32f7xx_hal_qspi.c **** #else
 632:Drivers/STM32F7xx_HAL_Driver/Src/stm32f7xx_hal_qspi.c ****       HAL_QSPI_RxCpltCallback(hqspi);
 694              		.loc 1 632 7
 695 0202 7868     		ldr	r0, [r7, #4]
 696 0204 FFF7FEFF 		bl	HAL_QSPI_RxCpltCallback
 564:Drivers/STM32F7xx_HAL_Driver/Src/stm32f7xx_hal_qspi.c ****     {
 697              		.loc 1 564 7
 698 0208 B0E0     		b	.L44
 699              	.L30:
 633:Drivers/STM32F7xx_HAL_Driver/Src/stm32f7xx_hal_qspi.c **** #endif
 634:Drivers/STM32F7xx_HAL_Driver/Src/stm32f7xx_hal_qspi.c ****     }
 635:Drivers/STM32F7xx_HAL_Driver/Src/stm32f7xx_hal_qspi.c ****     else if(hqspi->State == HAL_QSPI_STATE_BUSY)
 700              		.loc 1 635 18
 701 020a 7B68     		ldr	r3, [r7, #4]
 702 020c 93F84130 		ldrb	r3, [r3, #65]
 703 0210 DBB2     		uxtb	r3, r3
 704              		.loc 1 635 12
 705 0212 022B     		cmp	r3, #2
 706 0214 07D1     		bne	.L36
 636:Drivers/STM32F7xx_HAL_Driver/Src/stm32f7xx_hal_qspi.c ****     {
 637:Drivers/STM32F7xx_HAL_Driver/Src/stm32f7xx_hal_qspi.c ****       /* Change state of QSPI */
 638:Drivers/STM32F7xx_HAL_Driver/Src/stm32f7xx_hal_qspi.c ****       hqspi->State = HAL_QSPI_STATE_READY;
 707              		.loc 1 638 20
 708 0216 7B68     		ldr	r3, [r7, #4]
 709 0218 0122     		movs	r2, #1
 710 021a 83F84120 		strb	r2, [r3, #65]
 639:Drivers/STM32F7xx_HAL_Driver/Src/stm32f7xx_hal_qspi.c **** 
 640:Drivers/STM32F7xx_HAL_Driver/Src/stm32f7xx_hal_qspi.c ****       /* Command Complete callback */
 641:Drivers/STM32F7xx_HAL_Driver/Src/stm32f7xx_hal_qspi.c **** #if (USE_HAL_QSPI_REGISTER_CALLBACKS == 1)
 642:Drivers/STM32F7xx_HAL_Driver/Src/stm32f7xx_hal_qspi.c ****       hqspi->CmdCpltCallback(hqspi);
 643:Drivers/STM32F7xx_HAL_Driver/Src/stm32f7xx_hal_qspi.c **** #else
 644:Drivers/STM32F7xx_HAL_Driver/Src/stm32f7xx_hal_qspi.c ****       HAL_QSPI_CmdCpltCallback(hqspi);
 711              		.loc 1 644 7
 712 021e 7868     		ldr	r0, [r7, #4]
 713 0220 FFF7FEFF 		bl	HAL_QSPI_CmdCpltCallback
 564:Drivers/STM32F7xx_HAL_Driver/Src/stm32f7xx_hal_qspi.c ****     {
 714              		.loc 1 564 7
 715 0224 A2E0     		b	.L44
 716              	.L36:
 645:Drivers/STM32F7xx_HAL_Driver/Src/stm32f7xx_hal_qspi.c **** #endif
 646:Drivers/STM32F7xx_HAL_Driver/Src/stm32f7xx_hal_qspi.c ****     }
 647:Drivers/STM32F7xx_HAL_Driver/Src/stm32f7xx_hal_qspi.c ****     else if(hqspi->State == HAL_QSPI_STATE_ABORT)
 717              		.loc 1 647 18
 718 0226 7B68     		ldr	r3, [r7, #4]
 719 0228 93F84130 		ldrb	r3, [r3, #65]
 720 022c DBB2     		uxtb	r3, r3
 721              		.loc 1 647 12
ARM GAS  C:\Users\jisu8\AppData\Local\Temp\ccA6Ygqq.s 			page 25


 722 022e 082B     		cmp	r3, #8
 723 0230 40F09C80 		bne	.L44
 648:Drivers/STM32F7xx_HAL_Driver/Src/stm32f7xx_hal_qspi.c ****     {
 649:Drivers/STM32F7xx_HAL_Driver/Src/stm32f7xx_hal_qspi.c ****       /* Reset functional mode configuration to indirect write mode by default */
 650:Drivers/STM32F7xx_HAL_Driver/Src/stm32f7xx_hal_qspi.c ****       CLEAR_BIT(hqspi->Instance->CCR, QUADSPI_CCR_FMODE);
 724              		.loc 1 650 7
 725 0234 7B68     		ldr	r3, [r7, #4]
 726 0236 1B68     		ldr	r3, [r3]
 727 0238 5A69     		ldr	r2, [r3, #20]
 728 023a 7B68     		ldr	r3, [r7, #4]
 729 023c 1B68     		ldr	r3, [r3]
 730 023e 22F04062 		bic	r2, r2, #201326592
 731 0242 5A61     		str	r2, [r3, #20]
 651:Drivers/STM32F7xx_HAL_Driver/Src/stm32f7xx_hal_qspi.c **** 
 652:Drivers/STM32F7xx_HAL_Driver/Src/stm32f7xx_hal_qspi.c ****       /* Change state of QSPI */
 653:Drivers/STM32F7xx_HAL_Driver/Src/stm32f7xx_hal_qspi.c ****       hqspi->State = HAL_QSPI_STATE_READY;
 732              		.loc 1 653 20
 733 0244 7B68     		ldr	r3, [r7, #4]
 734 0246 0122     		movs	r2, #1
 735 0248 83F84120 		strb	r2, [r3, #65]
 654:Drivers/STM32F7xx_HAL_Driver/Src/stm32f7xx_hal_qspi.c **** 
 655:Drivers/STM32F7xx_HAL_Driver/Src/stm32f7xx_hal_qspi.c ****       if (hqspi->ErrorCode == HAL_QSPI_ERROR_NONE)
 736              		.loc 1 655 16
 737 024c 7B68     		ldr	r3, [r7, #4]
 738 024e 5B6C     		ldr	r3, [r3, #68]
 739              		.loc 1 655 10
 740 0250 002B     		cmp	r3, #0
 741 0252 03D1     		bne	.L37
 656:Drivers/STM32F7xx_HAL_Driver/Src/stm32f7xx_hal_qspi.c ****       {
 657:Drivers/STM32F7xx_HAL_Driver/Src/stm32f7xx_hal_qspi.c ****         /* Abort called by the user */
 658:Drivers/STM32F7xx_HAL_Driver/Src/stm32f7xx_hal_qspi.c **** 
 659:Drivers/STM32F7xx_HAL_Driver/Src/stm32f7xx_hal_qspi.c ****         /* Abort Complete callback */
 660:Drivers/STM32F7xx_HAL_Driver/Src/stm32f7xx_hal_qspi.c **** #if (USE_HAL_QSPI_REGISTER_CALLBACKS == 1)
 661:Drivers/STM32F7xx_HAL_Driver/Src/stm32f7xx_hal_qspi.c ****         hqspi->AbortCpltCallback(hqspi);
 662:Drivers/STM32F7xx_HAL_Driver/Src/stm32f7xx_hal_qspi.c **** #else
 663:Drivers/STM32F7xx_HAL_Driver/Src/stm32f7xx_hal_qspi.c ****         HAL_QSPI_AbortCpltCallback(hqspi);
 742              		.loc 1 663 9
 743 0254 7868     		ldr	r0, [r7, #4]
 744 0256 FFF7FEFF 		bl	HAL_QSPI_AbortCpltCallback
 564:Drivers/STM32F7xx_HAL_Driver/Src/stm32f7xx_hal_qspi.c ****     {
 745              		.loc 1 564 7
 746 025a 87E0     		b	.L44
 747              	.L37:
 664:Drivers/STM32F7xx_HAL_Driver/Src/stm32f7xx_hal_qspi.c **** #endif
 665:Drivers/STM32F7xx_HAL_Driver/Src/stm32f7xx_hal_qspi.c ****       }
 666:Drivers/STM32F7xx_HAL_Driver/Src/stm32f7xx_hal_qspi.c ****       else
 667:Drivers/STM32F7xx_HAL_Driver/Src/stm32f7xx_hal_qspi.c ****       {
 668:Drivers/STM32F7xx_HAL_Driver/Src/stm32f7xx_hal_qspi.c ****         /* Abort due to an error (eg :  DMA error) */
 669:Drivers/STM32F7xx_HAL_Driver/Src/stm32f7xx_hal_qspi.c **** 
 670:Drivers/STM32F7xx_HAL_Driver/Src/stm32f7xx_hal_qspi.c ****         /* Error callback */
 671:Drivers/STM32F7xx_HAL_Driver/Src/stm32f7xx_hal_qspi.c **** #if (USE_HAL_QSPI_REGISTER_CALLBACKS == 1)
 672:Drivers/STM32F7xx_HAL_Driver/Src/stm32f7xx_hal_qspi.c ****         hqspi->ErrorCallback(hqspi);
 673:Drivers/STM32F7xx_HAL_Driver/Src/stm32f7xx_hal_qspi.c **** #else
 674:Drivers/STM32F7xx_HAL_Driver/Src/stm32f7xx_hal_qspi.c ****         HAL_QSPI_ErrorCallback(hqspi);
 748              		.loc 1 674 9
 749 025c 7868     		ldr	r0, [r7, #4]
 750 025e FFF7FEFF 		bl	HAL_QSPI_ErrorCallback
ARM GAS  C:\Users\jisu8\AppData\Local\Temp\ccA6Ygqq.s 			page 26


 564:Drivers/STM32F7xx_HAL_Driver/Src/stm32f7xx_hal_qspi.c ****     {
 751              		.loc 1 564 7
 752 0262 83E0     		b	.L44
 753              	.L26:
 675:Drivers/STM32F7xx_HAL_Driver/Src/stm32f7xx_hal_qspi.c **** #endif
 676:Drivers/STM32F7xx_HAL_Driver/Src/stm32f7xx_hal_qspi.c ****       }
 677:Drivers/STM32F7xx_HAL_Driver/Src/stm32f7xx_hal_qspi.c ****     }
 678:Drivers/STM32F7xx_HAL_Driver/Src/stm32f7xx_hal_qspi.c ****     else
 679:Drivers/STM32F7xx_HAL_Driver/Src/stm32f7xx_hal_qspi.c ****     {
 680:Drivers/STM32F7xx_HAL_Driver/Src/stm32f7xx_hal_qspi.c ****      /* Nothing to do */
 681:Drivers/STM32F7xx_HAL_Driver/Src/stm32f7xx_hal_qspi.c ****     }
 682:Drivers/STM32F7xx_HAL_Driver/Src/stm32f7xx_hal_qspi.c ****   }
 683:Drivers/STM32F7xx_HAL_Driver/Src/stm32f7xx_hal_qspi.c **** 
 684:Drivers/STM32F7xx_HAL_Driver/Src/stm32f7xx_hal_qspi.c ****   /* QSPI Status Match interrupt occurred ------------------------------------*/
 685:Drivers/STM32F7xx_HAL_Driver/Src/stm32f7xx_hal_qspi.c ****   else if(((flag & QSPI_FLAG_SM) != 0U) && ((itsource & QSPI_IT_SM) != 0U))
 754              		.loc 1 685 18
 755 0264 7B69     		ldr	r3, [r7, #20]
 756 0266 03F00803 		and	r3, r3, #8
 757              		.loc 1 685 10
 758 026a 002B     		cmp	r3, #0
 759 026c 1FD0     		beq	.L38
 760              		.loc 1 685 55 discriminator 1
 761 026e 3B69     		ldr	r3, [r7, #16]
 762 0270 03F40023 		and	r3, r3, #524288
 763              		.loc 1 685 41 discriminator 1
 764 0274 002B     		cmp	r3, #0
 765 0276 1AD0     		beq	.L38
 686:Drivers/STM32F7xx_HAL_Driver/Src/stm32f7xx_hal_qspi.c ****   {
 687:Drivers/STM32F7xx_HAL_Driver/Src/stm32f7xx_hal_qspi.c ****     /* Clear interrupt */
 688:Drivers/STM32F7xx_HAL_Driver/Src/stm32f7xx_hal_qspi.c ****     WRITE_REG(hqspi->Instance->FCR, QSPI_FLAG_SM);
 766              		.loc 1 688 5
 767 0278 7B68     		ldr	r3, [r7, #4]
 768 027a 1B68     		ldr	r3, [r3]
 769 027c 0822     		movs	r2, #8
 770 027e DA60     		str	r2, [r3, #12]
 689:Drivers/STM32F7xx_HAL_Driver/Src/stm32f7xx_hal_qspi.c **** 
 690:Drivers/STM32F7xx_HAL_Driver/Src/stm32f7xx_hal_qspi.c ****     /* Check if the automatic poll mode stop is activated */
 691:Drivers/STM32F7xx_HAL_Driver/Src/stm32f7xx_hal_qspi.c ****     if(READ_BIT(hqspi->Instance->CR, QUADSPI_CR_APMS) != 0U)
 771              		.loc 1 691 8
 772 0280 7B68     		ldr	r3, [r7, #4]
 773 0282 1B68     		ldr	r3, [r3]
 774 0284 1B68     		ldr	r3, [r3]
 775 0286 03F48003 		and	r3, r3, #4194304
 776              		.loc 1 691 7
 777 028a 002B     		cmp	r3, #0
 778 028c 0BD0     		beq	.L39
 692:Drivers/STM32F7xx_HAL_Driver/Src/stm32f7xx_hal_qspi.c ****     {
 693:Drivers/STM32F7xx_HAL_Driver/Src/stm32f7xx_hal_qspi.c ****       /* Disable the QSPI Transfer Error and Status Match Interrupts */
 694:Drivers/STM32F7xx_HAL_Driver/Src/stm32f7xx_hal_qspi.c ****       __HAL_QSPI_DISABLE_IT(hqspi, (QSPI_IT_SM | QSPI_IT_TE));
 779              		.loc 1 694 7
 780 028e 7B68     		ldr	r3, [r7, #4]
 781 0290 1B68     		ldr	r3, [r3]
 782 0292 1A68     		ldr	r2, [r3]
 783 0294 7B68     		ldr	r3, [r7, #4]
 784 0296 1B68     		ldr	r3, [r3]
 785 0298 22F41022 		bic	r2, r2, #589824
 786 029c 1A60     		str	r2, [r3]
ARM GAS  C:\Users\jisu8\AppData\Local\Temp\ccA6Ygqq.s 			page 27


 695:Drivers/STM32F7xx_HAL_Driver/Src/stm32f7xx_hal_qspi.c **** 
 696:Drivers/STM32F7xx_HAL_Driver/Src/stm32f7xx_hal_qspi.c ****       /* Change state of QSPI */
 697:Drivers/STM32F7xx_HAL_Driver/Src/stm32f7xx_hal_qspi.c ****       hqspi->State = HAL_QSPI_STATE_READY;
 787              		.loc 1 697 20
 788 029e 7B68     		ldr	r3, [r7, #4]
 789 02a0 0122     		movs	r2, #1
 790 02a2 83F84120 		strb	r2, [r3, #65]
 791              	.L39:
 698:Drivers/STM32F7xx_HAL_Driver/Src/stm32f7xx_hal_qspi.c ****     }
 699:Drivers/STM32F7xx_HAL_Driver/Src/stm32f7xx_hal_qspi.c **** 
 700:Drivers/STM32F7xx_HAL_Driver/Src/stm32f7xx_hal_qspi.c ****     /* Status match callback */
 701:Drivers/STM32F7xx_HAL_Driver/Src/stm32f7xx_hal_qspi.c **** #if (USE_HAL_QSPI_REGISTER_CALLBACKS == 1)
 702:Drivers/STM32F7xx_HAL_Driver/Src/stm32f7xx_hal_qspi.c ****     hqspi->StatusMatchCallback(hqspi);
 703:Drivers/STM32F7xx_HAL_Driver/Src/stm32f7xx_hal_qspi.c **** #else
 704:Drivers/STM32F7xx_HAL_Driver/Src/stm32f7xx_hal_qspi.c ****     HAL_QSPI_StatusMatchCallback(hqspi);
 792              		.loc 1 704 5
 793 02a6 7868     		ldr	r0, [r7, #4]
 794 02a8 FFF7FEFF 		bl	HAL_QSPI_StatusMatchCallback
 795 02ac 61E0     		b	.L25
 796              	.L38:
 705:Drivers/STM32F7xx_HAL_Driver/Src/stm32f7xx_hal_qspi.c **** #endif
 706:Drivers/STM32F7xx_HAL_Driver/Src/stm32f7xx_hal_qspi.c ****   }
 707:Drivers/STM32F7xx_HAL_Driver/Src/stm32f7xx_hal_qspi.c **** 
 708:Drivers/STM32F7xx_HAL_Driver/Src/stm32f7xx_hal_qspi.c ****   /* QSPI Transfer Error interrupt occurred ----------------------------------*/
 709:Drivers/STM32F7xx_HAL_Driver/Src/stm32f7xx_hal_qspi.c ****   else if(((flag & QSPI_FLAG_TE) != 0U) && ((itsource & QSPI_IT_TE) != 0U))
 797              		.loc 1 709 18
 798 02ae 7B69     		ldr	r3, [r7, #20]
 799 02b0 03F00103 		and	r3, r3, #1
 800              		.loc 1 709 10
 801 02b4 002B     		cmp	r3, #0
 802 02b6 47D0     		beq	.L40
 803              		.loc 1 709 55 discriminator 1
 804 02b8 3B69     		ldr	r3, [r7, #16]
 805 02ba 03F48033 		and	r3, r3, #65536
 806              		.loc 1 709 41 discriminator 1
 807 02be 002B     		cmp	r3, #0
 808 02c0 42D0     		beq	.L40
 710:Drivers/STM32F7xx_HAL_Driver/Src/stm32f7xx_hal_qspi.c ****   {
 711:Drivers/STM32F7xx_HAL_Driver/Src/stm32f7xx_hal_qspi.c ****     /* Clear interrupt */
 712:Drivers/STM32F7xx_HAL_Driver/Src/stm32f7xx_hal_qspi.c ****     WRITE_REG(hqspi->Instance->FCR, QSPI_FLAG_TE);
 809              		.loc 1 712 5
 810 02c2 7B68     		ldr	r3, [r7, #4]
 811 02c4 1B68     		ldr	r3, [r3]
 812 02c6 0122     		movs	r2, #1
 813 02c8 DA60     		str	r2, [r3, #12]
 713:Drivers/STM32F7xx_HAL_Driver/Src/stm32f7xx_hal_qspi.c **** 
 714:Drivers/STM32F7xx_HAL_Driver/Src/stm32f7xx_hal_qspi.c ****     /* Disable all the QSPI Interrupts */
 715:Drivers/STM32F7xx_HAL_Driver/Src/stm32f7xx_hal_qspi.c ****     __HAL_QSPI_DISABLE_IT(hqspi, QSPI_IT_SM | QSPI_IT_TC | QSPI_IT_TE | QSPI_IT_FT);
 814              		.loc 1 715 5
 815 02ca 7B68     		ldr	r3, [r7, #4]
 816 02cc 1B68     		ldr	r3, [r3]
 817 02ce 1A68     		ldr	r2, [r3]
 818 02d0 7B68     		ldr	r3, [r7, #4]
 819 02d2 1B68     		ldr	r3, [r3]
 820 02d4 22F47022 		bic	r2, r2, #983040
 821 02d8 1A60     		str	r2, [r3]
 716:Drivers/STM32F7xx_HAL_Driver/Src/stm32f7xx_hal_qspi.c **** 
ARM GAS  C:\Users\jisu8\AppData\Local\Temp\ccA6Ygqq.s 			page 28


 717:Drivers/STM32F7xx_HAL_Driver/Src/stm32f7xx_hal_qspi.c ****     /* Set error code */
 718:Drivers/STM32F7xx_HAL_Driver/Src/stm32f7xx_hal_qspi.c ****     hqspi->ErrorCode |= HAL_QSPI_ERROR_TRANSFER;
 822              		.loc 1 718 22
 823 02da 7B68     		ldr	r3, [r7, #4]
 824 02dc 5B6C     		ldr	r3, [r3, #68]
 825 02de 43F00202 		orr	r2, r3, #2
 826 02e2 7B68     		ldr	r3, [r7, #4]
 827 02e4 5A64     		str	r2, [r3, #68]
 719:Drivers/STM32F7xx_HAL_Driver/Src/stm32f7xx_hal_qspi.c **** 
 720:Drivers/STM32F7xx_HAL_Driver/Src/stm32f7xx_hal_qspi.c ****     if ((hqspi->Instance->CR & QUADSPI_CR_DMAEN) != 0U)
 828              		.loc 1 720 15
 829 02e6 7B68     		ldr	r3, [r7, #4]
 830 02e8 1B68     		ldr	r3, [r3]
 831              		.loc 1 720 25
 832 02ea 1B68     		ldr	r3, [r3]
 833              		.loc 1 720 30
 834 02ec 03F00403 		and	r3, r3, #4
 835              		.loc 1 720 8
 836 02f0 002B     		cmp	r3, #0
 837 02f2 21D0     		beq	.L41
 721:Drivers/STM32F7xx_HAL_Driver/Src/stm32f7xx_hal_qspi.c ****     {
 722:Drivers/STM32F7xx_HAL_Driver/Src/stm32f7xx_hal_qspi.c ****       /* Disable the DMA transfer by clearing the DMAEN bit in the QSPI CR register */
 723:Drivers/STM32F7xx_HAL_Driver/Src/stm32f7xx_hal_qspi.c ****       CLEAR_BIT(hqspi->Instance->CR, QUADSPI_CR_DMAEN);
 838              		.loc 1 723 7
 839 02f4 7B68     		ldr	r3, [r7, #4]
 840 02f6 1B68     		ldr	r3, [r3]
 841 02f8 1A68     		ldr	r2, [r3]
 842 02fa 7B68     		ldr	r3, [r7, #4]
 843 02fc 1B68     		ldr	r3, [r3]
 844 02fe 22F00402 		bic	r2, r2, #4
 845 0302 1A60     		str	r2, [r3]
 724:Drivers/STM32F7xx_HAL_Driver/Src/stm32f7xx_hal_qspi.c **** 
 725:Drivers/STM32F7xx_HAL_Driver/Src/stm32f7xx_hal_qspi.c ****       /* Disable the DMA channel */
 726:Drivers/STM32F7xx_HAL_Driver/Src/stm32f7xx_hal_qspi.c ****       hqspi->hdma->XferAbortCallback = QSPI_DMAAbortCplt;
 846              		.loc 1 726 12
 847 0304 7B68     		ldr	r3, [r7, #4]
 848 0306 DB6B     		ldr	r3, [r3, #60]
 849              		.loc 1 726 38
 850 0308 1C4A     		ldr	r2, .L47
 851 030a 1A65     		str	r2, [r3, #80]
 727:Drivers/STM32F7xx_HAL_Driver/Src/stm32f7xx_hal_qspi.c ****       if (HAL_DMA_Abort_IT(hqspi->hdma) != HAL_OK)
 852              		.loc 1 727 11
 853 030c 7B68     		ldr	r3, [r7, #4]
 854 030e DB6B     		ldr	r3, [r3, #60]
 855 0310 1846     		mov	r0, r3
 856 0312 FFF7FEFF 		bl	HAL_DMA_Abort_IT
 857 0316 0346     		mov	r3, r0
 858              		.loc 1 727 10
 859 0318 002B     		cmp	r3, #0
 860 031a 29D0     		beq	.L45
 728:Drivers/STM32F7xx_HAL_Driver/Src/stm32f7xx_hal_qspi.c ****       {
 729:Drivers/STM32F7xx_HAL_Driver/Src/stm32f7xx_hal_qspi.c ****         /* Set error code to DMA */
 730:Drivers/STM32F7xx_HAL_Driver/Src/stm32f7xx_hal_qspi.c ****         hqspi->ErrorCode |= HAL_QSPI_ERROR_DMA;
 861              		.loc 1 730 26
 862 031c 7B68     		ldr	r3, [r7, #4]
 863 031e 5B6C     		ldr	r3, [r3, #68]
 864 0320 43F00402 		orr	r2, r3, #4
ARM GAS  C:\Users\jisu8\AppData\Local\Temp\ccA6Ygqq.s 			page 29


 865 0324 7B68     		ldr	r3, [r7, #4]
 866 0326 5A64     		str	r2, [r3, #68]
 731:Drivers/STM32F7xx_HAL_Driver/Src/stm32f7xx_hal_qspi.c **** 
 732:Drivers/STM32F7xx_HAL_Driver/Src/stm32f7xx_hal_qspi.c ****         /* Change state of QSPI */
 733:Drivers/STM32F7xx_HAL_Driver/Src/stm32f7xx_hal_qspi.c ****         hqspi->State = HAL_QSPI_STATE_READY;
 867              		.loc 1 733 22
 868 0328 7B68     		ldr	r3, [r7, #4]
 869 032a 0122     		movs	r2, #1
 870 032c 83F84120 		strb	r2, [r3, #65]
 734:Drivers/STM32F7xx_HAL_Driver/Src/stm32f7xx_hal_qspi.c **** 
 735:Drivers/STM32F7xx_HAL_Driver/Src/stm32f7xx_hal_qspi.c ****         /* Error callback */
 736:Drivers/STM32F7xx_HAL_Driver/Src/stm32f7xx_hal_qspi.c **** #if (USE_HAL_QSPI_REGISTER_CALLBACKS == 1)
 737:Drivers/STM32F7xx_HAL_Driver/Src/stm32f7xx_hal_qspi.c ****         hqspi->ErrorCallback(hqspi);
 738:Drivers/STM32F7xx_HAL_Driver/Src/stm32f7xx_hal_qspi.c **** #else
 739:Drivers/STM32F7xx_HAL_Driver/Src/stm32f7xx_hal_qspi.c ****         HAL_QSPI_ErrorCallback(hqspi);
 871              		.loc 1 739 9
 872 0330 7868     		ldr	r0, [r7, #4]
 873 0332 FFF7FEFF 		bl	HAL_QSPI_ErrorCallback
 720:Drivers/STM32F7xx_HAL_Driver/Src/stm32f7xx_hal_qspi.c ****     {
 874              		.loc 1 720 8
 875 0336 1BE0     		b	.L45
 876              	.L41:
 740:Drivers/STM32F7xx_HAL_Driver/Src/stm32f7xx_hal_qspi.c **** #endif
 741:Drivers/STM32F7xx_HAL_Driver/Src/stm32f7xx_hal_qspi.c ****       }
 742:Drivers/STM32F7xx_HAL_Driver/Src/stm32f7xx_hal_qspi.c ****     }
 743:Drivers/STM32F7xx_HAL_Driver/Src/stm32f7xx_hal_qspi.c ****     else
 744:Drivers/STM32F7xx_HAL_Driver/Src/stm32f7xx_hal_qspi.c ****     {
 745:Drivers/STM32F7xx_HAL_Driver/Src/stm32f7xx_hal_qspi.c ****       /* Change state of QSPI */
 746:Drivers/STM32F7xx_HAL_Driver/Src/stm32f7xx_hal_qspi.c ****       hqspi->State = HAL_QSPI_STATE_READY;
 877              		.loc 1 746 20
 878 0338 7B68     		ldr	r3, [r7, #4]
 879 033a 0122     		movs	r2, #1
 880 033c 83F84120 		strb	r2, [r3, #65]
 747:Drivers/STM32F7xx_HAL_Driver/Src/stm32f7xx_hal_qspi.c **** 
 748:Drivers/STM32F7xx_HAL_Driver/Src/stm32f7xx_hal_qspi.c ****       /* Error callback */
 749:Drivers/STM32F7xx_HAL_Driver/Src/stm32f7xx_hal_qspi.c **** #if (USE_HAL_QSPI_REGISTER_CALLBACKS == 1)
 750:Drivers/STM32F7xx_HAL_Driver/Src/stm32f7xx_hal_qspi.c ****       hqspi->ErrorCallback(hqspi);
 751:Drivers/STM32F7xx_HAL_Driver/Src/stm32f7xx_hal_qspi.c **** #else
 752:Drivers/STM32F7xx_HAL_Driver/Src/stm32f7xx_hal_qspi.c ****       HAL_QSPI_ErrorCallback(hqspi);
 881              		.loc 1 752 7
 882 0340 7868     		ldr	r0, [r7, #4]
 883 0342 FFF7FEFF 		bl	HAL_QSPI_ErrorCallback
 720:Drivers/STM32F7xx_HAL_Driver/Src/stm32f7xx_hal_qspi.c ****     {
 884              		.loc 1 720 8
 885 0346 13E0     		b	.L45
 886              	.L40:
 753:Drivers/STM32F7xx_HAL_Driver/Src/stm32f7xx_hal_qspi.c **** #endif
 754:Drivers/STM32F7xx_HAL_Driver/Src/stm32f7xx_hal_qspi.c ****     }
 755:Drivers/STM32F7xx_HAL_Driver/Src/stm32f7xx_hal_qspi.c ****   }
 756:Drivers/STM32F7xx_HAL_Driver/Src/stm32f7xx_hal_qspi.c **** 
 757:Drivers/STM32F7xx_HAL_Driver/Src/stm32f7xx_hal_qspi.c ****   /* QSPI Timeout interrupt occurred -----------------------------------------*/
 758:Drivers/STM32F7xx_HAL_Driver/Src/stm32f7xx_hal_qspi.c ****   else if(((flag & QSPI_FLAG_TO) != 0U) && ((itsource & QSPI_IT_TO) != 0U))
 887              		.loc 1 758 18
 888 0348 7B69     		ldr	r3, [r7, #20]
 889 034a 03F01003 		and	r3, r3, #16
 890              		.loc 1 758 10
 891 034e 002B     		cmp	r3, #0
ARM GAS  C:\Users\jisu8\AppData\Local\Temp\ccA6Ygqq.s 			page 30


 892 0350 0FD0     		beq	.L46
 893              		.loc 1 758 55 discriminator 1
 894 0352 3B69     		ldr	r3, [r7, #16]
 895 0354 03F48013 		and	r3, r3, #1048576
 896              		.loc 1 758 41 discriminator 1
 897 0358 002B     		cmp	r3, #0
 898 035a 0AD0     		beq	.L46
 759:Drivers/STM32F7xx_HAL_Driver/Src/stm32f7xx_hal_qspi.c ****   {
 760:Drivers/STM32F7xx_HAL_Driver/Src/stm32f7xx_hal_qspi.c ****     /* Clear interrupt */
 761:Drivers/STM32F7xx_HAL_Driver/Src/stm32f7xx_hal_qspi.c ****     WRITE_REG(hqspi->Instance->FCR, QSPI_FLAG_TO);
 899              		.loc 1 761 5
 900 035c 7B68     		ldr	r3, [r7, #4]
 901 035e 1B68     		ldr	r3, [r3]
 902 0360 1022     		movs	r2, #16
 903 0362 DA60     		str	r2, [r3, #12]
 762:Drivers/STM32F7xx_HAL_Driver/Src/stm32f7xx_hal_qspi.c **** 
 763:Drivers/STM32F7xx_HAL_Driver/Src/stm32f7xx_hal_qspi.c ****     /* Timeout callback */
 764:Drivers/STM32F7xx_HAL_Driver/Src/stm32f7xx_hal_qspi.c **** #if (USE_HAL_QSPI_REGISTER_CALLBACKS == 1)
 765:Drivers/STM32F7xx_HAL_Driver/Src/stm32f7xx_hal_qspi.c ****     hqspi->TimeOutCallback(hqspi);
 766:Drivers/STM32F7xx_HAL_Driver/Src/stm32f7xx_hal_qspi.c **** #else
 767:Drivers/STM32F7xx_HAL_Driver/Src/stm32f7xx_hal_qspi.c ****     HAL_QSPI_TimeOutCallback(hqspi);
 904              		.loc 1 767 5
 905 0364 7868     		ldr	r0, [r7, #4]
 906 0366 FFF7FEFF 		bl	HAL_QSPI_TimeOutCallback
 768:Drivers/STM32F7xx_HAL_Driver/Src/stm32f7xx_hal_qspi.c **** #endif
 769:Drivers/STM32F7xx_HAL_Driver/Src/stm32f7xx_hal_qspi.c ****   }
 770:Drivers/STM32F7xx_HAL_Driver/Src/stm32f7xx_hal_qspi.c **** 
 771:Drivers/STM32F7xx_HAL_Driver/Src/stm32f7xx_hal_qspi.c ****    else
 772:Drivers/STM32F7xx_HAL_Driver/Src/stm32f7xx_hal_qspi.c ****   {
 773:Drivers/STM32F7xx_HAL_Driver/Src/stm32f7xx_hal_qspi.c ****    /* Nothing to do */
 774:Drivers/STM32F7xx_HAL_Driver/Src/stm32f7xx_hal_qspi.c ****   }
 775:Drivers/STM32F7xx_HAL_Driver/Src/stm32f7xx_hal_qspi.c **** }
 907              		.loc 1 775 1
 908 036a 02E0     		b	.L46
 909              	.L44:
 564:Drivers/STM32F7xx_HAL_Driver/Src/stm32f7xx_hal_qspi.c ****     {
 910              		.loc 1 564 7
 911 036c 00BF     		nop
 912 036e 00E0     		b	.L46
 913              	.L45:
 720:Drivers/STM32F7xx_HAL_Driver/Src/stm32f7xx_hal_qspi.c ****     {
 914              		.loc 1 720 8
 915 0370 00BF     		nop
 916              	.L25:
 917              	.L46:
 918              		.loc 1 775 1
 919 0372 00BF     		nop
 920 0374 1837     		adds	r7, r7, #24
 921              	.LCFI25:
 922              		.cfi_def_cfa_offset 8
 923 0376 BD46     		mov	sp, r7
 924              	.LCFI26:
 925              		.cfi_def_cfa_register 13
 926              		@ sp needed
 927 0378 80BD     		pop	{r7, pc}
 928              	.L48:
 929 037a 00BF     		.align	2
ARM GAS  C:\Users\jisu8\AppData\Local\Temp\ccA6Ygqq.s 			page 31


 930              	.L47:
 931 037c 00000000 		.word	QSPI_DMAAbortCplt
 932              		.cfi_endproc
 933              	.LFE145:
 935              		.section	.text.HAL_QSPI_Command,"ax",%progbits
 936              		.align	1
 937              		.global	HAL_QSPI_Command
 938              		.syntax unified
 939              		.thumb
 940              		.thumb_func
 942              	HAL_QSPI_Command:
 943              	.LFB146:
 776:Drivers/STM32F7xx_HAL_Driver/Src/stm32f7xx_hal_qspi.c **** 
 777:Drivers/STM32F7xx_HAL_Driver/Src/stm32f7xx_hal_qspi.c **** /**
 778:Drivers/STM32F7xx_HAL_Driver/Src/stm32f7xx_hal_qspi.c ****   * @brief Set the command configuration.
 779:Drivers/STM32F7xx_HAL_Driver/Src/stm32f7xx_hal_qspi.c ****   * @param hqspi QSPI handle
 780:Drivers/STM32F7xx_HAL_Driver/Src/stm32f7xx_hal_qspi.c ****   * @param cmd : structure that contains the command configuration information
 781:Drivers/STM32F7xx_HAL_Driver/Src/stm32f7xx_hal_qspi.c ****   * @param Timeout Timeout duration
 782:Drivers/STM32F7xx_HAL_Driver/Src/stm32f7xx_hal_qspi.c ****   * @note   This function is used only in Indirect Read or Write Modes
 783:Drivers/STM32F7xx_HAL_Driver/Src/stm32f7xx_hal_qspi.c ****   * @retval HAL status
 784:Drivers/STM32F7xx_HAL_Driver/Src/stm32f7xx_hal_qspi.c ****   */
 785:Drivers/STM32F7xx_HAL_Driver/Src/stm32f7xx_hal_qspi.c **** HAL_StatusTypeDef HAL_QSPI_Command(QSPI_HandleTypeDef *hqspi, QSPI_CommandTypeDef *cmd, uint32_t Ti
 786:Drivers/STM32F7xx_HAL_Driver/Src/stm32f7xx_hal_qspi.c **** {
 944              		.loc 1 786 1
 945              		.cfi_startproc
 946              		@ args = 0, pretend = 0, frame = 24
 947              		@ frame_needed = 1, uses_anonymous_args = 0
 948 0000 80B5     		push	{r7, lr}
 949              	.LCFI27:
 950              		.cfi_def_cfa_offset 8
 951              		.cfi_offset 7, -8
 952              		.cfi_offset 14, -4
 953 0002 88B0     		sub	sp, sp, #32
 954              	.LCFI28:
 955              		.cfi_def_cfa_offset 40
 956 0004 02AF     		add	r7, sp, #8
 957              	.LCFI29:
 958              		.cfi_def_cfa 7, 32
 959 0006 F860     		str	r0, [r7, #12]
 960 0008 B960     		str	r1, [r7, #8]
 961 000a 7A60     		str	r2, [r7, #4]
 787:Drivers/STM32F7xx_HAL_Driver/Src/stm32f7xx_hal_qspi.c ****   HAL_StatusTypeDef status;
 788:Drivers/STM32F7xx_HAL_Driver/Src/stm32f7xx_hal_qspi.c ****   uint32_t tickstart = HAL_GetTick();
 962              		.loc 1 788 24
 963 000c FFF7FEFF 		bl	HAL_GetTick
 964 0010 3861     		str	r0, [r7, #16]
 789:Drivers/STM32F7xx_HAL_Driver/Src/stm32f7xx_hal_qspi.c **** 
 790:Drivers/STM32F7xx_HAL_Driver/Src/stm32f7xx_hal_qspi.c ****   /* Check the parameters */
 791:Drivers/STM32F7xx_HAL_Driver/Src/stm32f7xx_hal_qspi.c ****   assert_param(IS_QSPI_INSTRUCTION_MODE(cmd->InstructionMode));
 792:Drivers/STM32F7xx_HAL_Driver/Src/stm32f7xx_hal_qspi.c ****   if (cmd->InstructionMode != QSPI_INSTRUCTION_NONE)
 793:Drivers/STM32F7xx_HAL_Driver/Src/stm32f7xx_hal_qspi.c ****   {
 794:Drivers/STM32F7xx_HAL_Driver/Src/stm32f7xx_hal_qspi.c ****     assert_param(IS_QSPI_INSTRUCTION(cmd->Instruction));
 795:Drivers/STM32F7xx_HAL_Driver/Src/stm32f7xx_hal_qspi.c ****   }
 796:Drivers/STM32F7xx_HAL_Driver/Src/stm32f7xx_hal_qspi.c **** 
 797:Drivers/STM32F7xx_HAL_Driver/Src/stm32f7xx_hal_qspi.c ****   assert_param(IS_QSPI_ADDRESS_MODE(cmd->AddressMode));
 798:Drivers/STM32F7xx_HAL_Driver/Src/stm32f7xx_hal_qspi.c ****   if (cmd->AddressMode != QSPI_ADDRESS_NONE)
 799:Drivers/STM32F7xx_HAL_Driver/Src/stm32f7xx_hal_qspi.c ****   {
ARM GAS  C:\Users\jisu8\AppData\Local\Temp\ccA6Ygqq.s 			page 32


 800:Drivers/STM32F7xx_HAL_Driver/Src/stm32f7xx_hal_qspi.c ****     assert_param(IS_QSPI_ADDRESS_SIZE(cmd->AddressSize));
 801:Drivers/STM32F7xx_HAL_Driver/Src/stm32f7xx_hal_qspi.c ****   }
 802:Drivers/STM32F7xx_HAL_Driver/Src/stm32f7xx_hal_qspi.c **** 
 803:Drivers/STM32F7xx_HAL_Driver/Src/stm32f7xx_hal_qspi.c ****   assert_param(IS_QSPI_ALTERNATE_BYTES_MODE(cmd->AlternateByteMode));
 804:Drivers/STM32F7xx_HAL_Driver/Src/stm32f7xx_hal_qspi.c ****   if (cmd->AlternateByteMode != QSPI_ALTERNATE_BYTES_NONE)
 805:Drivers/STM32F7xx_HAL_Driver/Src/stm32f7xx_hal_qspi.c ****   {
 806:Drivers/STM32F7xx_HAL_Driver/Src/stm32f7xx_hal_qspi.c ****     assert_param(IS_QSPI_ALTERNATE_BYTES_SIZE(cmd->AlternateBytesSize));
 807:Drivers/STM32F7xx_HAL_Driver/Src/stm32f7xx_hal_qspi.c ****   }
 808:Drivers/STM32F7xx_HAL_Driver/Src/stm32f7xx_hal_qspi.c **** 
 809:Drivers/STM32F7xx_HAL_Driver/Src/stm32f7xx_hal_qspi.c ****   assert_param(IS_QSPI_DUMMY_CYCLES(cmd->DummyCycles));
 810:Drivers/STM32F7xx_HAL_Driver/Src/stm32f7xx_hal_qspi.c ****   assert_param(IS_QSPI_DATA_MODE(cmd->DataMode));
 811:Drivers/STM32F7xx_HAL_Driver/Src/stm32f7xx_hal_qspi.c **** 
 812:Drivers/STM32F7xx_HAL_Driver/Src/stm32f7xx_hal_qspi.c ****   assert_param(IS_QSPI_DDR_MODE(cmd->DdrMode));
 813:Drivers/STM32F7xx_HAL_Driver/Src/stm32f7xx_hal_qspi.c ****   assert_param(IS_QSPI_DDR_HHC(cmd->DdrHoldHalfCycle));
 814:Drivers/STM32F7xx_HAL_Driver/Src/stm32f7xx_hal_qspi.c ****   assert_param(IS_QSPI_SIOO_MODE(cmd->SIOOMode));
 815:Drivers/STM32F7xx_HAL_Driver/Src/stm32f7xx_hal_qspi.c **** 
 816:Drivers/STM32F7xx_HAL_Driver/Src/stm32f7xx_hal_qspi.c ****   /* Process locked */
 817:Drivers/STM32F7xx_HAL_Driver/Src/stm32f7xx_hal_qspi.c ****   __HAL_LOCK(hqspi);
 965              		.loc 1 817 3
 966 0012 FB68     		ldr	r3, [r7, #12]
 967 0014 93F84030 		ldrb	r3, [r3, #64]
 968 0018 DBB2     		uxtb	r3, r3
 969 001a 012B     		cmp	r3, #1
 970 001c 01D1     		bne	.L50
 971              		.loc 1 817 3 is_stmt 0 discriminator 1
 972 001e 0223     		movs	r3, #2
 973 0020 48E0     		b	.L51
 974              	.L50:
 975              		.loc 1 817 3 discriminator 2
 976 0022 FB68     		ldr	r3, [r7, #12]
 977 0024 0122     		movs	r2, #1
 978 0026 83F84020 		strb	r2, [r3, #64]
 818:Drivers/STM32F7xx_HAL_Driver/Src/stm32f7xx_hal_qspi.c **** 
 819:Drivers/STM32F7xx_HAL_Driver/Src/stm32f7xx_hal_qspi.c ****   if(hqspi->State == HAL_QSPI_STATE_READY)
 979              		.loc 1 819 11 is_stmt 1 discriminator 2
 980 002a FB68     		ldr	r3, [r7, #12]
 981 002c 93F84130 		ldrb	r3, [r3, #65]
 982 0030 DBB2     		uxtb	r3, r3
 983              		.loc 1 819 5 discriminator 2
 984 0032 012B     		cmp	r3, #1
 985 0034 37D1     		bne	.L52
 820:Drivers/STM32F7xx_HAL_Driver/Src/stm32f7xx_hal_qspi.c ****   {
 821:Drivers/STM32F7xx_HAL_Driver/Src/stm32f7xx_hal_qspi.c ****     hqspi->ErrorCode = HAL_QSPI_ERROR_NONE;
 986              		.loc 1 821 22
 987 0036 FB68     		ldr	r3, [r7, #12]
 988 0038 0022     		movs	r2, #0
 989 003a 5A64     		str	r2, [r3, #68]
 822:Drivers/STM32F7xx_HAL_Driver/Src/stm32f7xx_hal_qspi.c **** 
 823:Drivers/STM32F7xx_HAL_Driver/Src/stm32f7xx_hal_qspi.c ****     /* Update QSPI state */
 824:Drivers/STM32F7xx_HAL_Driver/Src/stm32f7xx_hal_qspi.c ****     hqspi->State = HAL_QSPI_STATE_BUSY;
 990              		.loc 1 824 18
 991 003c FB68     		ldr	r3, [r7, #12]
 992 003e 0222     		movs	r2, #2
 993 0040 83F84120 		strb	r2, [r3, #65]
 825:Drivers/STM32F7xx_HAL_Driver/Src/stm32f7xx_hal_qspi.c **** 
 826:Drivers/STM32F7xx_HAL_Driver/Src/stm32f7xx_hal_qspi.c ****     /* Wait till BUSY flag reset */
 827:Drivers/STM32F7xx_HAL_Driver/Src/stm32f7xx_hal_qspi.c ****     status = QSPI_WaitFlagStateUntilTimeout(hqspi, QSPI_FLAG_BUSY, RESET, tickstart, Timeout);
ARM GAS  C:\Users\jisu8\AppData\Local\Temp\ccA6Ygqq.s 			page 33


 994              		.loc 1 827 14
 995 0044 7B68     		ldr	r3, [r7, #4]
 996 0046 0093     		str	r3, [sp]
 997 0048 3B69     		ldr	r3, [r7, #16]
 998 004a 0022     		movs	r2, #0
 999 004c 2021     		movs	r1, #32
 1000 004e F868     		ldr	r0, [r7, #12]
 1001 0050 FFF7FEFF 		bl	QSPI_WaitFlagStateUntilTimeout
 1002 0054 0346     		mov	r3, r0
 1003 0056 FB75     		strb	r3, [r7, #23]
 828:Drivers/STM32F7xx_HAL_Driver/Src/stm32f7xx_hal_qspi.c **** 
 829:Drivers/STM32F7xx_HAL_Driver/Src/stm32f7xx_hal_qspi.c ****     if (status == HAL_OK)
 1004              		.loc 1 829 8
 1005 0058 FB7D     		ldrb	r3, [r7, #23]	@ zero_extendqisi2
 1006 005a 002B     		cmp	r3, #0
 1007 005c 25D1     		bne	.L53
 830:Drivers/STM32F7xx_HAL_Driver/Src/stm32f7xx_hal_qspi.c ****     {
 831:Drivers/STM32F7xx_HAL_Driver/Src/stm32f7xx_hal_qspi.c ****       /* Call the configuration function */
 832:Drivers/STM32F7xx_HAL_Driver/Src/stm32f7xx_hal_qspi.c ****       QSPI_Config(hqspi, cmd, QSPI_FUNCTIONAL_MODE_INDIRECT_WRITE);
 1008              		.loc 1 832 7
 1009 005e 0022     		movs	r2, #0
 1010 0060 B968     		ldr	r1, [r7, #8]
 1011 0062 F868     		ldr	r0, [r7, #12]
 1012 0064 FFF7FEFF 		bl	QSPI_Config
 833:Drivers/STM32F7xx_HAL_Driver/Src/stm32f7xx_hal_qspi.c **** 
 834:Drivers/STM32F7xx_HAL_Driver/Src/stm32f7xx_hal_qspi.c ****       if (cmd->DataMode == QSPI_DATA_NONE)
 1013              		.loc 1 834 14
 1014 0068 BB68     		ldr	r3, [r7, #8]
 1015 006a 5B6A     		ldr	r3, [r3, #36]
 1016              		.loc 1 834 10
 1017 006c 002B     		cmp	r3, #0
 1018 006e 15D1     		bne	.L54
 835:Drivers/STM32F7xx_HAL_Driver/Src/stm32f7xx_hal_qspi.c ****       {
 836:Drivers/STM32F7xx_HAL_Driver/Src/stm32f7xx_hal_qspi.c ****         /* When there is no data phase, the transfer start as soon as the configuration is done
 837:Drivers/STM32F7xx_HAL_Driver/Src/stm32f7xx_hal_qspi.c ****         so wait until TC flag is set to go back in idle state */
 838:Drivers/STM32F7xx_HAL_Driver/Src/stm32f7xx_hal_qspi.c ****         status = QSPI_WaitFlagStateUntilTimeout(hqspi, QSPI_FLAG_TC, SET, tickstart, Timeout);
 1019              		.loc 1 838 18
 1020 0070 7B68     		ldr	r3, [r7, #4]
 1021 0072 0093     		str	r3, [sp]
 1022 0074 3B69     		ldr	r3, [r7, #16]
 1023 0076 0122     		movs	r2, #1
 1024 0078 0221     		movs	r1, #2
 1025 007a F868     		ldr	r0, [r7, #12]
 1026 007c FFF7FEFF 		bl	QSPI_WaitFlagStateUntilTimeout
 1027 0080 0346     		mov	r3, r0
 1028 0082 FB75     		strb	r3, [r7, #23]
 839:Drivers/STM32F7xx_HAL_Driver/Src/stm32f7xx_hal_qspi.c **** 
 840:Drivers/STM32F7xx_HAL_Driver/Src/stm32f7xx_hal_qspi.c ****         if (status == HAL_OK)
 1029              		.loc 1 840 12
 1030 0084 FB7D     		ldrb	r3, [r7, #23]	@ zero_extendqisi2
 1031 0086 002B     		cmp	r3, #0
 1032 0088 0FD1     		bne	.L53
 841:Drivers/STM32F7xx_HAL_Driver/Src/stm32f7xx_hal_qspi.c ****         {
 842:Drivers/STM32F7xx_HAL_Driver/Src/stm32f7xx_hal_qspi.c ****           __HAL_QSPI_CLEAR_FLAG(hqspi, QSPI_FLAG_TC);
 1033              		.loc 1 842 11
 1034 008a FB68     		ldr	r3, [r7, #12]
 1035 008c 1B68     		ldr	r3, [r3]
ARM GAS  C:\Users\jisu8\AppData\Local\Temp\ccA6Ygqq.s 			page 34


 1036 008e 0222     		movs	r2, #2
 1037 0090 DA60     		str	r2, [r3, #12]
 843:Drivers/STM32F7xx_HAL_Driver/Src/stm32f7xx_hal_qspi.c **** 
 844:Drivers/STM32F7xx_HAL_Driver/Src/stm32f7xx_hal_qspi.c ****           /* Update QSPI state */
 845:Drivers/STM32F7xx_HAL_Driver/Src/stm32f7xx_hal_qspi.c ****           hqspi->State = HAL_QSPI_STATE_READY;
 1038              		.loc 1 845 24
 1039 0092 FB68     		ldr	r3, [r7, #12]
 1040 0094 0122     		movs	r2, #1
 1041 0096 83F84120 		strb	r2, [r3, #65]
 1042 009a 06E0     		b	.L53
 1043              	.L54:
 846:Drivers/STM32F7xx_HAL_Driver/Src/stm32f7xx_hal_qspi.c ****         }
 847:Drivers/STM32F7xx_HAL_Driver/Src/stm32f7xx_hal_qspi.c ****       }
 848:Drivers/STM32F7xx_HAL_Driver/Src/stm32f7xx_hal_qspi.c ****       else
 849:Drivers/STM32F7xx_HAL_Driver/Src/stm32f7xx_hal_qspi.c ****       {
 850:Drivers/STM32F7xx_HAL_Driver/Src/stm32f7xx_hal_qspi.c ****         /* Update QSPI state */
 851:Drivers/STM32F7xx_HAL_Driver/Src/stm32f7xx_hal_qspi.c ****         hqspi->State = HAL_QSPI_STATE_READY;
 1044              		.loc 1 851 22
 1045 009c FB68     		ldr	r3, [r7, #12]
 1046 009e 0122     		movs	r2, #1
 1047 00a0 83F84120 		strb	r2, [r3, #65]
 1048 00a4 01E0     		b	.L53
 1049              	.L52:
 852:Drivers/STM32F7xx_HAL_Driver/Src/stm32f7xx_hal_qspi.c ****       }
 853:Drivers/STM32F7xx_HAL_Driver/Src/stm32f7xx_hal_qspi.c ****     }
 854:Drivers/STM32F7xx_HAL_Driver/Src/stm32f7xx_hal_qspi.c ****   }
 855:Drivers/STM32F7xx_HAL_Driver/Src/stm32f7xx_hal_qspi.c ****   else
 856:Drivers/STM32F7xx_HAL_Driver/Src/stm32f7xx_hal_qspi.c ****   {
 857:Drivers/STM32F7xx_HAL_Driver/Src/stm32f7xx_hal_qspi.c ****     status = HAL_BUSY;
 1050              		.loc 1 857 12
 1051 00a6 0223     		movs	r3, #2
 1052 00a8 FB75     		strb	r3, [r7, #23]
 1053              	.L53:
 858:Drivers/STM32F7xx_HAL_Driver/Src/stm32f7xx_hal_qspi.c ****   }
 859:Drivers/STM32F7xx_HAL_Driver/Src/stm32f7xx_hal_qspi.c **** 
 860:Drivers/STM32F7xx_HAL_Driver/Src/stm32f7xx_hal_qspi.c ****   /* Process unlocked */
 861:Drivers/STM32F7xx_HAL_Driver/Src/stm32f7xx_hal_qspi.c ****   __HAL_UNLOCK(hqspi);
 1054              		.loc 1 861 3
 1055 00aa FB68     		ldr	r3, [r7, #12]
 1056 00ac 0022     		movs	r2, #0
 1057 00ae 83F84020 		strb	r2, [r3, #64]
 862:Drivers/STM32F7xx_HAL_Driver/Src/stm32f7xx_hal_qspi.c **** 
 863:Drivers/STM32F7xx_HAL_Driver/Src/stm32f7xx_hal_qspi.c ****   /* Return function status */
 864:Drivers/STM32F7xx_HAL_Driver/Src/stm32f7xx_hal_qspi.c ****   return status;
 1058              		.loc 1 864 10
 1059 00b2 FB7D     		ldrb	r3, [r7, #23]	@ zero_extendqisi2
 1060              	.L51:
 865:Drivers/STM32F7xx_HAL_Driver/Src/stm32f7xx_hal_qspi.c **** }
 1061              		.loc 1 865 1
 1062 00b4 1846     		mov	r0, r3
 1063 00b6 1837     		adds	r7, r7, #24
 1064              	.LCFI30:
 1065              		.cfi_def_cfa_offset 8
 1066 00b8 BD46     		mov	sp, r7
 1067              	.LCFI31:
 1068              		.cfi_def_cfa_register 13
 1069              		@ sp needed
ARM GAS  C:\Users\jisu8\AppData\Local\Temp\ccA6Ygqq.s 			page 35


 1070 00ba 80BD     		pop	{r7, pc}
 1071              		.cfi_endproc
 1072              	.LFE146:
 1074              		.section	.text.HAL_QSPI_Command_IT,"ax",%progbits
 1075              		.align	1
 1076              		.global	HAL_QSPI_Command_IT
 1077              		.syntax unified
 1078              		.thumb
 1079              		.thumb_func
 1081              	HAL_QSPI_Command_IT:
 1082              	.LFB147:
 866:Drivers/STM32F7xx_HAL_Driver/Src/stm32f7xx_hal_qspi.c **** 
 867:Drivers/STM32F7xx_HAL_Driver/Src/stm32f7xx_hal_qspi.c **** /**
 868:Drivers/STM32F7xx_HAL_Driver/Src/stm32f7xx_hal_qspi.c ****   * @brief Set the command configuration in interrupt mode.
 869:Drivers/STM32F7xx_HAL_Driver/Src/stm32f7xx_hal_qspi.c ****   * @param hqspi QSPI handle
 870:Drivers/STM32F7xx_HAL_Driver/Src/stm32f7xx_hal_qspi.c ****   * @param cmd structure that contains the command configuration information
 871:Drivers/STM32F7xx_HAL_Driver/Src/stm32f7xx_hal_qspi.c ****   * @note   This function is used only in Indirect Read or Write Modes
 872:Drivers/STM32F7xx_HAL_Driver/Src/stm32f7xx_hal_qspi.c ****   * @retval HAL status
 873:Drivers/STM32F7xx_HAL_Driver/Src/stm32f7xx_hal_qspi.c ****   */
 874:Drivers/STM32F7xx_HAL_Driver/Src/stm32f7xx_hal_qspi.c **** HAL_StatusTypeDef HAL_QSPI_Command_IT(QSPI_HandleTypeDef *hqspi, QSPI_CommandTypeDef *cmd)
 875:Drivers/STM32F7xx_HAL_Driver/Src/stm32f7xx_hal_qspi.c **** {
 1083              		.loc 1 875 1
 1084              		.cfi_startproc
 1085              		@ args = 0, pretend = 0, frame = 16
 1086              		@ frame_needed = 1, uses_anonymous_args = 0
 1087 0000 80B5     		push	{r7, lr}
 1088              	.LCFI32:
 1089              		.cfi_def_cfa_offset 8
 1090              		.cfi_offset 7, -8
 1091              		.cfi_offset 14, -4
 1092 0002 84B0     		sub	sp, sp, #16
 1093              	.LCFI33:
 1094              		.cfi_def_cfa_offset 24
 1095 0004 00AF     		add	r7, sp, #0
 1096              	.LCFI34:
 1097              		.cfi_def_cfa_register 7
 1098 0006 7860     		str	r0, [r7, #4]
 1099 0008 3960     		str	r1, [r7]
 876:Drivers/STM32F7xx_HAL_Driver/Src/stm32f7xx_hal_qspi.c ****   HAL_StatusTypeDef status;
 877:Drivers/STM32F7xx_HAL_Driver/Src/stm32f7xx_hal_qspi.c **** 
 878:Drivers/STM32F7xx_HAL_Driver/Src/stm32f7xx_hal_qspi.c ****   /* Check the parameters */
 879:Drivers/STM32F7xx_HAL_Driver/Src/stm32f7xx_hal_qspi.c ****   assert_param(IS_QSPI_INSTRUCTION_MODE(cmd->InstructionMode));
 880:Drivers/STM32F7xx_HAL_Driver/Src/stm32f7xx_hal_qspi.c ****   if (cmd->InstructionMode != QSPI_INSTRUCTION_NONE)
 881:Drivers/STM32F7xx_HAL_Driver/Src/stm32f7xx_hal_qspi.c ****   {
 882:Drivers/STM32F7xx_HAL_Driver/Src/stm32f7xx_hal_qspi.c ****     assert_param(IS_QSPI_INSTRUCTION(cmd->Instruction));
 883:Drivers/STM32F7xx_HAL_Driver/Src/stm32f7xx_hal_qspi.c ****   }
 884:Drivers/STM32F7xx_HAL_Driver/Src/stm32f7xx_hal_qspi.c **** 
 885:Drivers/STM32F7xx_HAL_Driver/Src/stm32f7xx_hal_qspi.c ****   assert_param(IS_QSPI_ADDRESS_MODE(cmd->AddressMode));
 886:Drivers/STM32F7xx_HAL_Driver/Src/stm32f7xx_hal_qspi.c ****   if (cmd->AddressMode != QSPI_ADDRESS_NONE)
 887:Drivers/STM32F7xx_HAL_Driver/Src/stm32f7xx_hal_qspi.c ****   {
 888:Drivers/STM32F7xx_HAL_Driver/Src/stm32f7xx_hal_qspi.c ****     assert_param(IS_QSPI_ADDRESS_SIZE(cmd->AddressSize));
 889:Drivers/STM32F7xx_HAL_Driver/Src/stm32f7xx_hal_qspi.c ****   }
 890:Drivers/STM32F7xx_HAL_Driver/Src/stm32f7xx_hal_qspi.c **** 
 891:Drivers/STM32F7xx_HAL_Driver/Src/stm32f7xx_hal_qspi.c ****   assert_param(IS_QSPI_ALTERNATE_BYTES_MODE(cmd->AlternateByteMode));
 892:Drivers/STM32F7xx_HAL_Driver/Src/stm32f7xx_hal_qspi.c ****   if (cmd->AlternateByteMode != QSPI_ALTERNATE_BYTES_NONE)
 893:Drivers/STM32F7xx_HAL_Driver/Src/stm32f7xx_hal_qspi.c ****   {
 894:Drivers/STM32F7xx_HAL_Driver/Src/stm32f7xx_hal_qspi.c ****     assert_param(IS_QSPI_ALTERNATE_BYTES_SIZE(cmd->AlternateBytesSize));
ARM GAS  C:\Users\jisu8\AppData\Local\Temp\ccA6Ygqq.s 			page 36


 895:Drivers/STM32F7xx_HAL_Driver/Src/stm32f7xx_hal_qspi.c ****   }
 896:Drivers/STM32F7xx_HAL_Driver/Src/stm32f7xx_hal_qspi.c **** 
 897:Drivers/STM32F7xx_HAL_Driver/Src/stm32f7xx_hal_qspi.c ****   assert_param(IS_QSPI_DUMMY_CYCLES(cmd->DummyCycles));
 898:Drivers/STM32F7xx_HAL_Driver/Src/stm32f7xx_hal_qspi.c ****   assert_param(IS_QSPI_DATA_MODE(cmd->DataMode));
 899:Drivers/STM32F7xx_HAL_Driver/Src/stm32f7xx_hal_qspi.c **** 
 900:Drivers/STM32F7xx_HAL_Driver/Src/stm32f7xx_hal_qspi.c ****   assert_param(IS_QSPI_DDR_MODE(cmd->DdrMode));
 901:Drivers/STM32F7xx_HAL_Driver/Src/stm32f7xx_hal_qspi.c ****   assert_param(IS_QSPI_DDR_HHC(cmd->DdrHoldHalfCycle));
 902:Drivers/STM32F7xx_HAL_Driver/Src/stm32f7xx_hal_qspi.c ****   assert_param(IS_QSPI_SIOO_MODE(cmd->SIOOMode));
 903:Drivers/STM32F7xx_HAL_Driver/Src/stm32f7xx_hal_qspi.c **** 
 904:Drivers/STM32F7xx_HAL_Driver/Src/stm32f7xx_hal_qspi.c ****   /* Process locked */
 905:Drivers/STM32F7xx_HAL_Driver/Src/stm32f7xx_hal_qspi.c ****   __HAL_LOCK(hqspi);
 1100              		.loc 1 905 3
 1101 000a 7B68     		ldr	r3, [r7, #4]
 1102 000c 93F84030 		ldrb	r3, [r3, #64]
 1103 0010 DBB2     		uxtb	r3, r3
 1104 0012 012B     		cmp	r3, #1
 1105 0014 01D1     		bne	.L56
 1106              		.loc 1 905 3 is_stmt 0 discriminator 1
 1107 0016 0223     		movs	r3, #2
 1108 0018 4FE0     		b	.L57
 1109              	.L56:
 1110              		.loc 1 905 3 discriminator 2
 1111 001a 7B68     		ldr	r3, [r7, #4]
 1112 001c 0122     		movs	r2, #1
 1113 001e 83F84020 		strb	r2, [r3, #64]
 906:Drivers/STM32F7xx_HAL_Driver/Src/stm32f7xx_hal_qspi.c **** 
 907:Drivers/STM32F7xx_HAL_Driver/Src/stm32f7xx_hal_qspi.c ****   if(hqspi->State == HAL_QSPI_STATE_READY)
 1114              		.loc 1 907 11 is_stmt 1 discriminator 2
 1115 0022 7B68     		ldr	r3, [r7, #4]
 1116 0024 93F84130 		ldrb	r3, [r3, #65]
 1117 0028 DBB2     		uxtb	r3, r3
 1118              		.loc 1 907 5 discriminator 2
 1119 002a 012B     		cmp	r3, #1
 1120 002c 3ED1     		bne	.L58
 908:Drivers/STM32F7xx_HAL_Driver/Src/stm32f7xx_hal_qspi.c ****   {
 909:Drivers/STM32F7xx_HAL_Driver/Src/stm32f7xx_hal_qspi.c ****     hqspi->ErrorCode = HAL_QSPI_ERROR_NONE;
 1121              		.loc 1 909 22
 1122 002e 7B68     		ldr	r3, [r7, #4]
 1123 0030 0022     		movs	r2, #0
 1124 0032 5A64     		str	r2, [r3, #68]
 910:Drivers/STM32F7xx_HAL_Driver/Src/stm32f7xx_hal_qspi.c **** 
 911:Drivers/STM32F7xx_HAL_Driver/Src/stm32f7xx_hal_qspi.c ****     /* Update QSPI state */
 912:Drivers/STM32F7xx_HAL_Driver/Src/stm32f7xx_hal_qspi.c ****     hqspi->State = HAL_QSPI_STATE_BUSY;
 1125              		.loc 1 912 18
 1126 0034 7B68     		ldr	r3, [r7, #4]
 1127 0036 0222     		movs	r2, #2
 1128 0038 83F84120 		strb	r2, [r3, #65]
 913:Drivers/STM32F7xx_HAL_Driver/Src/stm32f7xx_hal_qspi.c **** 
 914:Drivers/STM32F7xx_HAL_Driver/Src/stm32f7xx_hal_qspi.c ****     /* Wait till BUSY flag reset */
 915:Drivers/STM32F7xx_HAL_Driver/Src/stm32f7xx_hal_qspi.c ****     status = QSPI_WaitFlagStateUntilTimeout_CPUCycle(hqspi, QSPI_FLAG_BUSY, RESET, hqspi->Timeout);
 1129              		.loc 1 915 14
 1130 003c 7B68     		ldr	r3, [r7, #4]
 1131 003e 9B6C     		ldr	r3, [r3, #72]
 1132 0040 0022     		movs	r2, #0
 1133 0042 2021     		movs	r1, #32
 1134 0044 7868     		ldr	r0, [r7, #4]
 1135 0046 FFF7FEFF 		bl	QSPI_WaitFlagStateUntilTimeout_CPUCycle
ARM GAS  C:\Users\jisu8\AppData\Local\Temp\ccA6Ygqq.s 			page 37


 1136 004a 0346     		mov	r3, r0
 1137 004c FB73     		strb	r3, [r7, #15]
 916:Drivers/STM32F7xx_HAL_Driver/Src/stm32f7xx_hal_qspi.c **** 
 917:Drivers/STM32F7xx_HAL_Driver/Src/stm32f7xx_hal_qspi.c ****     if (status == HAL_OK)
 1138              		.loc 1 917 8
 1139 004e FB7B     		ldrb	r3, [r7, #15]	@ zero_extendqisi2
 1140 0050 002B     		cmp	r3, #0
 1141 0052 26D1     		bne	.L59
 918:Drivers/STM32F7xx_HAL_Driver/Src/stm32f7xx_hal_qspi.c ****     {
 919:Drivers/STM32F7xx_HAL_Driver/Src/stm32f7xx_hal_qspi.c ****       if (cmd->DataMode == QSPI_DATA_NONE)
 1142              		.loc 1 919 14
 1143 0054 3B68     		ldr	r3, [r7]
 1144 0056 5B6A     		ldr	r3, [r3, #36]
 1145              		.loc 1 919 10
 1146 0058 002B     		cmp	r3, #0
 1147 005a 03D1     		bne	.L60
 920:Drivers/STM32F7xx_HAL_Driver/Src/stm32f7xx_hal_qspi.c ****       {
 921:Drivers/STM32F7xx_HAL_Driver/Src/stm32f7xx_hal_qspi.c ****         /* Clear interrupt */
 922:Drivers/STM32F7xx_HAL_Driver/Src/stm32f7xx_hal_qspi.c ****         __HAL_QSPI_CLEAR_FLAG(hqspi, QSPI_FLAG_TE | QSPI_FLAG_TC);
 1148              		.loc 1 922 9
 1149 005c 7B68     		ldr	r3, [r7, #4]
 1150 005e 1B68     		ldr	r3, [r3]
 1151 0060 0322     		movs	r2, #3
 1152 0062 DA60     		str	r2, [r3, #12]
 1153              	.L60:
 923:Drivers/STM32F7xx_HAL_Driver/Src/stm32f7xx_hal_qspi.c ****       }
 924:Drivers/STM32F7xx_HAL_Driver/Src/stm32f7xx_hal_qspi.c **** 
 925:Drivers/STM32F7xx_HAL_Driver/Src/stm32f7xx_hal_qspi.c ****       /* Call the configuration function */
 926:Drivers/STM32F7xx_HAL_Driver/Src/stm32f7xx_hal_qspi.c ****       QSPI_Config(hqspi, cmd, QSPI_FUNCTIONAL_MODE_INDIRECT_WRITE);
 1154              		.loc 1 926 7
 1155 0064 0022     		movs	r2, #0
 1156 0066 3968     		ldr	r1, [r7]
 1157 0068 7868     		ldr	r0, [r7, #4]
 1158 006a FFF7FEFF 		bl	QSPI_Config
 927:Drivers/STM32F7xx_HAL_Driver/Src/stm32f7xx_hal_qspi.c **** 
 928:Drivers/STM32F7xx_HAL_Driver/Src/stm32f7xx_hal_qspi.c ****       if (cmd->DataMode == QSPI_DATA_NONE)
 1159              		.loc 1 928 14
 1160 006e 3B68     		ldr	r3, [r7]
 1161 0070 5B6A     		ldr	r3, [r3, #36]
 1162              		.loc 1 928 10
 1163 0072 002B     		cmp	r3, #0
 1164 0074 0CD1     		bne	.L61
 929:Drivers/STM32F7xx_HAL_Driver/Src/stm32f7xx_hal_qspi.c ****       {
 930:Drivers/STM32F7xx_HAL_Driver/Src/stm32f7xx_hal_qspi.c ****         /* When there is no data phase, the transfer start as soon as the configuration is done
 931:Drivers/STM32F7xx_HAL_Driver/Src/stm32f7xx_hal_qspi.c ****         so activate TC and TE interrupts */
 932:Drivers/STM32F7xx_HAL_Driver/Src/stm32f7xx_hal_qspi.c ****         /* Process unlocked */
 933:Drivers/STM32F7xx_HAL_Driver/Src/stm32f7xx_hal_qspi.c ****         __HAL_UNLOCK(hqspi);
 1165              		.loc 1 933 9
 1166 0076 7B68     		ldr	r3, [r7, #4]
 1167 0078 0022     		movs	r2, #0
 1168 007a 83F84020 		strb	r2, [r3, #64]
 934:Drivers/STM32F7xx_HAL_Driver/Src/stm32f7xx_hal_qspi.c **** 
 935:Drivers/STM32F7xx_HAL_Driver/Src/stm32f7xx_hal_qspi.c ****         /* Enable the QSPI Transfer Error Interrupt */
 936:Drivers/STM32F7xx_HAL_Driver/Src/stm32f7xx_hal_qspi.c ****         __HAL_QSPI_ENABLE_IT(hqspi, QSPI_IT_TE | QSPI_IT_TC);
 1169              		.loc 1 936 9
 1170 007e 7B68     		ldr	r3, [r7, #4]
 1171 0080 1B68     		ldr	r3, [r3]
ARM GAS  C:\Users\jisu8\AppData\Local\Temp\ccA6Ygqq.s 			page 38


 1172 0082 1A68     		ldr	r2, [r3]
 1173 0084 7B68     		ldr	r3, [r7, #4]
 1174 0086 1B68     		ldr	r3, [r3]
 1175 0088 42F44032 		orr	r2, r2, #196608
 1176 008c 1A60     		str	r2, [r3]
 1177 008e 13E0     		b	.L62
 1178              	.L61:
 937:Drivers/STM32F7xx_HAL_Driver/Src/stm32f7xx_hal_qspi.c ****       }
 938:Drivers/STM32F7xx_HAL_Driver/Src/stm32f7xx_hal_qspi.c ****       else
 939:Drivers/STM32F7xx_HAL_Driver/Src/stm32f7xx_hal_qspi.c ****       {
 940:Drivers/STM32F7xx_HAL_Driver/Src/stm32f7xx_hal_qspi.c ****         /* Update QSPI state */
 941:Drivers/STM32F7xx_HAL_Driver/Src/stm32f7xx_hal_qspi.c ****         hqspi->State = HAL_QSPI_STATE_READY;
 1179              		.loc 1 941 22
 1180 0090 7B68     		ldr	r3, [r7, #4]
 1181 0092 0122     		movs	r2, #1
 1182 0094 83F84120 		strb	r2, [r3, #65]
 942:Drivers/STM32F7xx_HAL_Driver/Src/stm32f7xx_hal_qspi.c **** 
 943:Drivers/STM32F7xx_HAL_Driver/Src/stm32f7xx_hal_qspi.c ****         /* Process unlocked */
 944:Drivers/STM32F7xx_HAL_Driver/Src/stm32f7xx_hal_qspi.c ****         __HAL_UNLOCK(hqspi);
 1183              		.loc 1 944 9
 1184 0098 7B68     		ldr	r3, [r7, #4]
 1185 009a 0022     		movs	r2, #0
 1186 009c 83F84020 		strb	r2, [r3, #64]
 1187 00a0 0AE0     		b	.L62
 1188              	.L59:
 945:Drivers/STM32F7xx_HAL_Driver/Src/stm32f7xx_hal_qspi.c ****       }
 946:Drivers/STM32F7xx_HAL_Driver/Src/stm32f7xx_hal_qspi.c ****     }
 947:Drivers/STM32F7xx_HAL_Driver/Src/stm32f7xx_hal_qspi.c ****     else
 948:Drivers/STM32F7xx_HAL_Driver/Src/stm32f7xx_hal_qspi.c ****     {
 949:Drivers/STM32F7xx_HAL_Driver/Src/stm32f7xx_hal_qspi.c ****       /* Process unlocked */
 950:Drivers/STM32F7xx_HAL_Driver/Src/stm32f7xx_hal_qspi.c ****       __HAL_UNLOCK(hqspi);
 1189              		.loc 1 950 7
 1190 00a2 7B68     		ldr	r3, [r7, #4]
 1191 00a4 0022     		movs	r2, #0
 1192 00a6 83F84020 		strb	r2, [r3, #64]
 1193 00aa 05E0     		b	.L62
 1194              	.L58:
 951:Drivers/STM32F7xx_HAL_Driver/Src/stm32f7xx_hal_qspi.c ****     }
 952:Drivers/STM32F7xx_HAL_Driver/Src/stm32f7xx_hal_qspi.c ****   }
 953:Drivers/STM32F7xx_HAL_Driver/Src/stm32f7xx_hal_qspi.c ****   else
 954:Drivers/STM32F7xx_HAL_Driver/Src/stm32f7xx_hal_qspi.c ****   {
 955:Drivers/STM32F7xx_HAL_Driver/Src/stm32f7xx_hal_qspi.c ****     status = HAL_BUSY;
 1195              		.loc 1 955 12
 1196 00ac 0223     		movs	r3, #2
 1197 00ae FB73     		strb	r3, [r7, #15]
 956:Drivers/STM32F7xx_HAL_Driver/Src/stm32f7xx_hal_qspi.c **** 
 957:Drivers/STM32F7xx_HAL_Driver/Src/stm32f7xx_hal_qspi.c ****     /* Process unlocked */
 958:Drivers/STM32F7xx_HAL_Driver/Src/stm32f7xx_hal_qspi.c ****     __HAL_UNLOCK(hqspi);
 1198              		.loc 1 958 5
 1199 00b0 7B68     		ldr	r3, [r7, #4]
 1200 00b2 0022     		movs	r2, #0
 1201 00b4 83F84020 		strb	r2, [r3, #64]
 1202              	.L62:
 959:Drivers/STM32F7xx_HAL_Driver/Src/stm32f7xx_hal_qspi.c ****   }
 960:Drivers/STM32F7xx_HAL_Driver/Src/stm32f7xx_hal_qspi.c **** 
 961:Drivers/STM32F7xx_HAL_Driver/Src/stm32f7xx_hal_qspi.c ****   /* Return function status */
 962:Drivers/STM32F7xx_HAL_Driver/Src/stm32f7xx_hal_qspi.c ****   return status;
ARM GAS  C:\Users\jisu8\AppData\Local\Temp\ccA6Ygqq.s 			page 39


 1203              		.loc 1 962 10
 1204 00b8 FB7B     		ldrb	r3, [r7, #15]	@ zero_extendqisi2
 1205              	.L57:
 963:Drivers/STM32F7xx_HAL_Driver/Src/stm32f7xx_hal_qspi.c **** }
 1206              		.loc 1 963 1
 1207 00ba 1846     		mov	r0, r3
 1208 00bc 1037     		adds	r7, r7, #16
 1209              	.LCFI35:
 1210              		.cfi_def_cfa_offset 8
 1211 00be BD46     		mov	sp, r7
 1212              	.LCFI36:
 1213              		.cfi_def_cfa_register 13
 1214              		@ sp needed
 1215 00c0 80BD     		pop	{r7, pc}
 1216              		.cfi_endproc
 1217              	.LFE147:
 1219              		.section	.text.HAL_QSPI_Transmit,"ax",%progbits
 1220              		.align	1
 1221              		.global	HAL_QSPI_Transmit
 1222              		.syntax unified
 1223              		.thumb
 1224              		.thumb_func
 1226              	HAL_QSPI_Transmit:
 1227              	.LFB148:
 964:Drivers/STM32F7xx_HAL_Driver/Src/stm32f7xx_hal_qspi.c **** 
 965:Drivers/STM32F7xx_HAL_Driver/Src/stm32f7xx_hal_qspi.c **** /**
 966:Drivers/STM32F7xx_HAL_Driver/Src/stm32f7xx_hal_qspi.c ****   * @brief Transmit an amount of data in blocking mode.
 967:Drivers/STM32F7xx_HAL_Driver/Src/stm32f7xx_hal_qspi.c ****   * @param hqspi QSPI handle
 968:Drivers/STM32F7xx_HAL_Driver/Src/stm32f7xx_hal_qspi.c ****   * @param pData pointer to data buffer
 969:Drivers/STM32F7xx_HAL_Driver/Src/stm32f7xx_hal_qspi.c ****   * @param Timeout Timeout duration
 970:Drivers/STM32F7xx_HAL_Driver/Src/stm32f7xx_hal_qspi.c ****   * @note   This function is used only in Indirect Write Mode
 971:Drivers/STM32F7xx_HAL_Driver/Src/stm32f7xx_hal_qspi.c ****   * @retval HAL status
 972:Drivers/STM32F7xx_HAL_Driver/Src/stm32f7xx_hal_qspi.c ****   */
 973:Drivers/STM32F7xx_HAL_Driver/Src/stm32f7xx_hal_qspi.c **** HAL_StatusTypeDef HAL_QSPI_Transmit(QSPI_HandleTypeDef *hqspi, uint8_t *pData, uint32_t Timeout)
 974:Drivers/STM32F7xx_HAL_Driver/Src/stm32f7xx_hal_qspi.c **** {
 1228              		.loc 1 974 1
 1229              		.cfi_startproc
 1230              		@ args = 0, pretend = 0, frame = 32
 1231              		@ frame_needed = 1, uses_anonymous_args = 0
 1232 0000 80B5     		push	{r7, lr}
 1233              	.LCFI37:
 1234              		.cfi_def_cfa_offset 8
 1235              		.cfi_offset 7, -8
 1236              		.cfi_offset 14, -4
 1237 0002 8AB0     		sub	sp, sp, #40
 1238              	.LCFI38:
 1239              		.cfi_def_cfa_offset 48
 1240 0004 02AF     		add	r7, sp, #8
 1241              	.LCFI39:
 1242              		.cfi_def_cfa 7, 40
 1243 0006 F860     		str	r0, [r7, #12]
 1244 0008 B960     		str	r1, [r7, #8]
 1245 000a 7A60     		str	r2, [r7, #4]
 975:Drivers/STM32F7xx_HAL_Driver/Src/stm32f7xx_hal_qspi.c ****   HAL_StatusTypeDef status = HAL_OK;
 1246              		.loc 1 975 21
 1247 000c 0023     		movs	r3, #0
 1248 000e FB77     		strb	r3, [r7, #31]
ARM GAS  C:\Users\jisu8\AppData\Local\Temp\ccA6Ygqq.s 			page 40


 976:Drivers/STM32F7xx_HAL_Driver/Src/stm32f7xx_hal_qspi.c ****   uint32_t tickstart = HAL_GetTick();
 1249              		.loc 1 976 24
 1250 0010 FFF7FEFF 		bl	HAL_GetTick
 1251 0014 B861     		str	r0, [r7, #24]
 977:Drivers/STM32F7xx_HAL_Driver/Src/stm32f7xx_hal_qspi.c ****   __IO uint32_t *data_reg = &hqspi->Instance->DR;
 1252              		.loc 1 977 35
 1253 0016 FB68     		ldr	r3, [r7, #12]
 1254 0018 1B68     		ldr	r3, [r3]
 1255              		.loc 1 977 18
 1256 001a 2033     		adds	r3, r3, #32
 1257 001c 7B61     		str	r3, [r7, #20]
 978:Drivers/STM32F7xx_HAL_Driver/Src/stm32f7xx_hal_qspi.c **** 
 979:Drivers/STM32F7xx_HAL_Driver/Src/stm32f7xx_hal_qspi.c ****   /* Process locked */
 980:Drivers/STM32F7xx_HAL_Driver/Src/stm32f7xx_hal_qspi.c ****   __HAL_LOCK(hqspi);
 1258              		.loc 1 980 3
 1259 001e FB68     		ldr	r3, [r7, #12]
 1260 0020 93F84030 		ldrb	r3, [r3, #64]
 1261 0024 DBB2     		uxtb	r3, r3
 1262 0026 012B     		cmp	r3, #1
 1263 0028 01D1     		bne	.L64
 1264              		.loc 1 980 3 is_stmt 0 discriminator 1
 1265 002a 0223     		movs	r3, #2
 1266 002c 7BE0     		b	.L65
 1267              	.L64:
 1268              		.loc 1 980 3 discriminator 2
 1269 002e FB68     		ldr	r3, [r7, #12]
 1270 0030 0122     		movs	r2, #1
 1271 0032 83F84020 		strb	r2, [r3, #64]
 981:Drivers/STM32F7xx_HAL_Driver/Src/stm32f7xx_hal_qspi.c **** 
 982:Drivers/STM32F7xx_HAL_Driver/Src/stm32f7xx_hal_qspi.c ****   if(hqspi->State == HAL_QSPI_STATE_READY)
 1272              		.loc 1 982 11 is_stmt 1 discriminator 2
 1273 0036 FB68     		ldr	r3, [r7, #12]
 1274 0038 93F84130 		ldrb	r3, [r3, #65]
 1275 003c DBB2     		uxtb	r3, r3
 1276              		.loc 1 982 5 discriminator 2
 1277 003e 012B     		cmp	r3, #1
 1278 0040 6AD1     		bne	.L66
 983:Drivers/STM32F7xx_HAL_Driver/Src/stm32f7xx_hal_qspi.c ****   {
 984:Drivers/STM32F7xx_HAL_Driver/Src/stm32f7xx_hal_qspi.c ****     hqspi->ErrorCode = HAL_QSPI_ERROR_NONE;
 1279              		.loc 1 984 22
 1280 0042 FB68     		ldr	r3, [r7, #12]
 1281 0044 0022     		movs	r2, #0
 1282 0046 5A64     		str	r2, [r3, #68]
 985:Drivers/STM32F7xx_HAL_Driver/Src/stm32f7xx_hal_qspi.c **** 
 986:Drivers/STM32F7xx_HAL_Driver/Src/stm32f7xx_hal_qspi.c ****     if(pData != NULL )
 1283              		.loc 1 986 7
 1284 0048 BB68     		ldr	r3, [r7, #8]
 1285 004a 002B     		cmp	r3, #0
 1286 004c 5BD0     		beq	.L67
 987:Drivers/STM32F7xx_HAL_Driver/Src/stm32f7xx_hal_qspi.c ****     {
 988:Drivers/STM32F7xx_HAL_Driver/Src/stm32f7xx_hal_qspi.c ****       /* Update state */
 989:Drivers/STM32F7xx_HAL_Driver/Src/stm32f7xx_hal_qspi.c ****       hqspi->State = HAL_QSPI_STATE_BUSY_INDIRECT_TX;
 1287              		.loc 1 989 20
 1288 004e FB68     		ldr	r3, [r7, #12]
 1289 0050 1222     		movs	r2, #18
 1290 0052 83F84120 		strb	r2, [r3, #65]
 990:Drivers/STM32F7xx_HAL_Driver/Src/stm32f7xx_hal_qspi.c **** 
ARM GAS  C:\Users\jisu8\AppData\Local\Temp\ccA6Ygqq.s 			page 41


 991:Drivers/STM32F7xx_HAL_Driver/Src/stm32f7xx_hal_qspi.c ****       /* Configure counters and size of the handle */
 992:Drivers/STM32F7xx_HAL_Driver/Src/stm32f7xx_hal_qspi.c ****       hqspi->TxXferCount = READ_REG(hqspi->Instance->DLR) + 1U;
 1291              		.loc 1 992 28
 1292 0056 FB68     		ldr	r3, [r7, #12]
 1293 0058 1B68     		ldr	r3, [r3]
 1294 005a 1B69     		ldr	r3, [r3, #16]
 1295              		.loc 1 992 59
 1296 005c 5A1C     		adds	r2, r3, #1
 1297              		.loc 1 992 26
 1298 005e FB68     		ldr	r3, [r7, #12]
 1299 0060 DA62     		str	r2, [r3, #44]
 993:Drivers/STM32F7xx_HAL_Driver/Src/stm32f7xx_hal_qspi.c ****       hqspi->TxXferSize = READ_REG(hqspi->Instance->DLR) + 1U;
 1300              		.loc 1 993 27
 1301 0062 FB68     		ldr	r3, [r7, #12]
 1302 0064 1B68     		ldr	r3, [r3]
 1303 0066 1B69     		ldr	r3, [r3, #16]
 1304              		.loc 1 993 58
 1305 0068 5A1C     		adds	r2, r3, #1
 1306              		.loc 1 993 25
 1307 006a FB68     		ldr	r3, [r7, #12]
 1308 006c 9A62     		str	r2, [r3, #40]
 994:Drivers/STM32F7xx_HAL_Driver/Src/stm32f7xx_hal_qspi.c ****       hqspi->pTxBuffPtr = pData;
 1309              		.loc 1 994 25
 1310 006e FB68     		ldr	r3, [r7, #12]
 1311 0070 BA68     		ldr	r2, [r7, #8]
 1312 0072 5A62     		str	r2, [r3, #36]
 995:Drivers/STM32F7xx_HAL_Driver/Src/stm32f7xx_hal_qspi.c **** 
 996:Drivers/STM32F7xx_HAL_Driver/Src/stm32f7xx_hal_qspi.c ****       /* Configure QSPI: CCR register with functional as indirect write */
 997:Drivers/STM32F7xx_HAL_Driver/Src/stm32f7xx_hal_qspi.c ****       MODIFY_REG(hqspi->Instance->CCR, QUADSPI_CCR_FMODE, QSPI_FUNCTIONAL_MODE_INDIRECT_WRITE);
 1313              		.loc 1 997 7
 1314 0074 FB68     		ldr	r3, [r7, #12]
 1315 0076 1B68     		ldr	r3, [r3]
 1316 0078 5A69     		ldr	r2, [r3, #20]
 1317 007a FB68     		ldr	r3, [r7, #12]
 1318 007c 1B68     		ldr	r3, [r3]
 1319 007e 22F04062 		bic	r2, r2, #201326592
 1320 0082 5A61     		str	r2, [r3, #20]
 998:Drivers/STM32F7xx_HAL_Driver/Src/stm32f7xx_hal_qspi.c **** 
 999:Drivers/STM32F7xx_HAL_Driver/Src/stm32f7xx_hal_qspi.c ****       while(hqspi->TxXferCount > 0U)
 1321              		.loc 1 999 12
 1322 0084 1BE0     		b	.L68
 1323              	.L71:
1000:Drivers/STM32F7xx_HAL_Driver/Src/stm32f7xx_hal_qspi.c ****       {
1001:Drivers/STM32F7xx_HAL_Driver/Src/stm32f7xx_hal_qspi.c ****         /* Wait until FT flag is set to send data */
1002:Drivers/STM32F7xx_HAL_Driver/Src/stm32f7xx_hal_qspi.c ****         status = QSPI_WaitFlagStateUntilTimeout(hqspi, QSPI_FLAG_FT, SET, tickstart, Timeout);
 1324              		.loc 1 1002 18
 1325 0086 7B68     		ldr	r3, [r7, #4]
 1326 0088 0093     		str	r3, [sp]
 1327 008a BB69     		ldr	r3, [r7, #24]
 1328 008c 0122     		movs	r2, #1
 1329 008e 0421     		movs	r1, #4
 1330 0090 F868     		ldr	r0, [r7, #12]
 1331 0092 FFF7FEFF 		bl	QSPI_WaitFlagStateUntilTimeout
 1332 0096 0346     		mov	r3, r0
 1333 0098 FB77     		strb	r3, [r7, #31]
1003:Drivers/STM32F7xx_HAL_Driver/Src/stm32f7xx_hal_qspi.c **** 
1004:Drivers/STM32F7xx_HAL_Driver/Src/stm32f7xx_hal_qspi.c ****         if (status != HAL_OK)
ARM GAS  C:\Users\jisu8\AppData\Local\Temp\ccA6Ygqq.s 			page 42


 1334              		.loc 1 1004 12
 1335 009a FB7F     		ldrb	r3, [r7, #31]	@ zero_extendqisi2
 1336 009c 002B     		cmp	r3, #0
 1337 009e 13D1     		bne	.L74
1005:Drivers/STM32F7xx_HAL_Driver/Src/stm32f7xx_hal_qspi.c ****         {
1006:Drivers/STM32F7xx_HAL_Driver/Src/stm32f7xx_hal_qspi.c ****           break;
1007:Drivers/STM32F7xx_HAL_Driver/Src/stm32f7xx_hal_qspi.c ****         }
1008:Drivers/STM32F7xx_HAL_Driver/Src/stm32f7xx_hal_qspi.c **** 
1009:Drivers/STM32F7xx_HAL_Driver/Src/stm32f7xx_hal_qspi.c ****         *((__IO uint8_t *)data_reg) = *hqspi->pTxBuffPtr;
 1338              		.loc 1 1009 45
 1339 00a0 FB68     		ldr	r3, [r7, #12]
 1340 00a2 5B6A     		ldr	r3, [r3, #36]
 1341              		.loc 1 1009 39
 1342 00a4 1A78     		ldrb	r2, [r3]	@ zero_extendqisi2
 1343              		.loc 1 1009 37
 1344 00a6 7B69     		ldr	r3, [r7, #20]
 1345 00a8 1A70     		strb	r2, [r3]
1010:Drivers/STM32F7xx_HAL_Driver/Src/stm32f7xx_hal_qspi.c ****         hqspi->pTxBuffPtr++;
 1346              		.loc 1 1010 14
 1347 00aa FB68     		ldr	r3, [r7, #12]
 1348 00ac 5B6A     		ldr	r3, [r3, #36]
 1349              		.loc 1 1010 26
 1350 00ae 5A1C     		adds	r2, r3, #1
 1351 00b0 FB68     		ldr	r3, [r7, #12]
 1352 00b2 5A62     		str	r2, [r3, #36]
1011:Drivers/STM32F7xx_HAL_Driver/Src/stm32f7xx_hal_qspi.c ****         hqspi->TxXferCount--;
 1353              		.loc 1 1011 14
 1354 00b4 FB68     		ldr	r3, [r7, #12]
 1355 00b6 DB6A     		ldr	r3, [r3, #44]
 1356              		.loc 1 1011 27
 1357 00b8 5A1E     		subs	r2, r3, #1
 1358 00ba FB68     		ldr	r3, [r7, #12]
 1359 00bc DA62     		str	r2, [r3, #44]
 1360              	.L68:
 999:Drivers/STM32F7xx_HAL_Driver/Src/stm32f7xx_hal_qspi.c ****       {
 1361              		.loc 1 999 18
 1362 00be FB68     		ldr	r3, [r7, #12]
 1363 00c0 DB6A     		ldr	r3, [r3, #44]
 999:Drivers/STM32F7xx_HAL_Driver/Src/stm32f7xx_hal_qspi.c ****       {
 1364              		.loc 1 999 12
 1365 00c2 002B     		cmp	r3, #0
 1366 00c4 DFD1     		bne	.L71
 1367 00c6 00E0     		b	.L70
 1368              	.L74:
1006:Drivers/STM32F7xx_HAL_Driver/Src/stm32f7xx_hal_qspi.c ****         }
 1369              		.loc 1 1006 11
 1370 00c8 00BF     		nop
 1371              	.L70:
1012:Drivers/STM32F7xx_HAL_Driver/Src/stm32f7xx_hal_qspi.c ****       }
1013:Drivers/STM32F7xx_HAL_Driver/Src/stm32f7xx_hal_qspi.c **** 
1014:Drivers/STM32F7xx_HAL_Driver/Src/stm32f7xx_hal_qspi.c ****       if (status == HAL_OK)
 1372              		.loc 1 1014 10
 1373 00ca FB7F     		ldrb	r3, [r7, #31]	@ zero_extendqisi2
 1374 00cc 002B     		cmp	r3, #0
 1375 00ce 15D1     		bne	.L72
1015:Drivers/STM32F7xx_HAL_Driver/Src/stm32f7xx_hal_qspi.c ****       {
1016:Drivers/STM32F7xx_HAL_Driver/Src/stm32f7xx_hal_qspi.c ****         /* Wait until TC flag is set to go back in idle state */
ARM GAS  C:\Users\jisu8\AppData\Local\Temp\ccA6Ygqq.s 			page 43


1017:Drivers/STM32F7xx_HAL_Driver/Src/stm32f7xx_hal_qspi.c ****         status = QSPI_WaitFlagStateUntilTimeout(hqspi, QSPI_FLAG_TC, SET, tickstart, Timeout);
 1376              		.loc 1 1017 18
 1377 00d0 7B68     		ldr	r3, [r7, #4]
 1378 00d2 0093     		str	r3, [sp]
 1379 00d4 BB69     		ldr	r3, [r7, #24]
 1380 00d6 0122     		movs	r2, #1
 1381 00d8 0221     		movs	r1, #2
 1382 00da F868     		ldr	r0, [r7, #12]
 1383 00dc FFF7FEFF 		bl	QSPI_WaitFlagStateUntilTimeout
 1384 00e0 0346     		mov	r3, r0
 1385 00e2 FB77     		strb	r3, [r7, #31]
1018:Drivers/STM32F7xx_HAL_Driver/Src/stm32f7xx_hal_qspi.c **** 
1019:Drivers/STM32F7xx_HAL_Driver/Src/stm32f7xx_hal_qspi.c ****         if (status == HAL_OK)
 1386              		.loc 1 1019 12
 1387 00e4 FB7F     		ldrb	r3, [r7, #31]	@ zero_extendqisi2
 1388 00e6 002B     		cmp	r3, #0
 1389 00e8 08D1     		bne	.L72
1020:Drivers/STM32F7xx_HAL_Driver/Src/stm32f7xx_hal_qspi.c ****         {
1021:Drivers/STM32F7xx_HAL_Driver/Src/stm32f7xx_hal_qspi.c ****           /* Clear Transfer Complete bit */
1022:Drivers/STM32F7xx_HAL_Driver/Src/stm32f7xx_hal_qspi.c ****           __HAL_QSPI_CLEAR_FLAG(hqspi, QSPI_FLAG_TC);
 1390              		.loc 1 1022 11
 1391 00ea FB68     		ldr	r3, [r7, #12]
 1392 00ec 1B68     		ldr	r3, [r3]
 1393 00ee 0222     		movs	r2, #2
 1394 00f0 DA60     		str	r2, [r3, #12]
1023:Drivers/STM32F7xx_HAL_Driver/Src/stm32f7xx_hal_qspi.c **** 
1024:Drivers/STM32F7xx_HAL_Driver/Src/stm32f7xx_hal_qspi.c **** #if  defined(QSPI1_V1_0)
1025:Drivers/STM32F7xx_HAL_Driver/Src/stm32f7xx_hal_qspi.c ****           /* Clear Busy bit */
1026:Drivers/STM32F7xx_HAL_Driver/Src/stm32f7xx_hal_qspi.c ****           status = HAL_QSPI_Abort(hqspi);
 1395              		.loc 1 1026 20
 1396 00f2 F868     		ldr	r0, [r7, #12]
 1397 00f4 FFF7FEFF 		bl	HAL_QSPI_Abort
 1398 00f8 0346     		mov	r3, r0
 1399 00fa FB77     		strb	r3, [r7, #31]
 1400              	.L72:
1027:Drivers/STM32F7xx_HAL_Driver/Src/stm32f7xx_hal_qspi.c **** #endif
1028:Drivers/STM32F7xx_HAL_Driver/Src/stm32f7xx_hal_qspi.c ****         }
1029:Drivers/STM32F7xx_HAL_Driver/Src/stm32f7xx_hal_qspi.c ****       }
1030:Drivers/STM32F7xx_HAL_Driver/Src/stm32f7xx_hal_qspi.c **** 
1031:Drivers/STM32F7xx_HAL_Driver/Src/stm32f7xx_hal_qspi.c ****       /* Update QSPI state */
1032:Drivers/STM32F7xx_HAL_Driver/Src/stm32f7xx_hal_qspi.c ****       hqspi->State = HAL_QSPI_STATE_READY;
 1401              		.loc 1 1032 20
 1402 00fc FB68     		ldr	r3, [r7, #12]
 1403 00fe 0122     		movs	r2, #1
 1404 0100 83F84120 		strb	r2, [r3, #65]
 1405 0104 0AE0     		b	.L73
 1406              	.L67:
1033:Drivers/STM32F7xx_HAL_Driver/Src/stm32f7xx_hal_qspi.c ****     }
1034:Drivers/STM32F7xx_HAL_Driver/Src/stm32f7xx_hal_qspi.c ****     else
1035:Drivers/STM32F7xx_HAL_Driver/Src/stm32f7xx_hal_qspi.c ****     {
1036:Drivers/STM32F7xx_HAL_Driver/Src/stm32f7xx_hal_qspi.c ****       hqspi->ErrorCode |= HAL_QSPI_ERROR_INVALID_PARAM;
 1407              		.loc 1 1036 24
 1408 0106 FB68     		ldr	r3, [r7, #12]
 1409 0108 5B6C     		ldr	r3, [r3, #68]
 1410 010a 43F00802 		orr	r2, r3, #8
 1411 010e FB68     		ldr	r3, [r7, #12]
 1412 0110 5A64     		str	r2, [r3, #68]
ARM GAS  C:\Users\jisu8\AppData\Local\Temp\ccA6Ygqq.s 			page 44


1037:Drivers/STM32F7xx_HAL_Driver/Src/stm32f7xx_hal_qspi.c ****       status = HAL_ERROR;
 1413              		.loc 1 1037 14
 1414 0112 0123     		movs	r3, #1
 1415 0114 FB77     		strb	r3, [r7, #31]
 1416 0116 01E0     		b	.L73
 1417              	.L66:
1038:Drivers/STM32F7xx_HAL_Driver/Src/stm32f7xx_hal_qspi.c ****     }
1039:Drivers/STM32F7xx_HAL_Driver/Src/stm32f7xx_hal_qspi.c ****   }
1040:Drivers/STM32F7xx_HAL_Driver/Src/stm32f7xx_hal_qspi.c ****   else
1041:Drivers/STM32F7xx_HAL_Driver/Src/stm32f7xx_hal_qspi.c ****   {
1042:Drivers/STM32F7xx_HAL_Driver/Src/stm32f7xx_hal_qspi.c ****     status = HAL_BUSY;
 1418              		.loc 1 1042 12
 1419 0118 0223     		movs	r3, #2
 1420 011a FB77     		strb	r3, [r7, #31]
 1421              	.L73:
1043:Drivers/STM32F7xx_HAL_Driver/Src/stm32f7xx_hal_qspi.c ****   }
1044:Drivers/STM32F7xx_HAL_Driver/Src/stm32f7xx_hal_qspi.c **** 
1045:Drivers/STM32F7xx_HAL_Driver/Src/stm32f7xx_hal_qspi.c ****   /* Process unlocked */
1046:Drivers/STM32F7xx_HAL_Driver/Src/stm32f7xx_hal_qspi.c ****   __HAL_UNLOCK(hqspi);
 1422              		.loc 1 1046 3
 1423 011c FB68     		ldr	r3, [r7, #12]
 1424 011e 0022     		movs	r2, #0
 1425 0120 83F84020 		strb	r2, [r3, #64]
1047:Drivers/STM32F7xx_HAL_Driver/Src/stm32f7xx_hal_qspi.c **** 
1048:Drivers/STM32F7xx_HAL_Driver/Src/stm32f7xx_hal_qspi.c ****   return status;
 1426              		.loc 1 1048 10
 1427 0124 FB7F     		ldrb	r3, [r7, #31]	@ zero_extendqisi2
 1428              	.L65:
1049:Drivers/STM32F7xx_HAL_Driver/Src/stm32f7xx_hal_qspi.c **** }
 1429              		.loc 1 1049 1
 1430 0126 1846     		mov	r0, r3
 1431 0128 2037     		adds	r7, r7, #32
 1432              	.LCFI40:
 1433              		.cfi_def_cfa_offset 8
 1434 012a BD46     		mov	sp, r7
 1435              	.LCFI41:
 1436              		.cfi_def_cfa_register 13
 1437              		@ sp needed
 1438 012c 80BD     		pop	{r7, pc}
 1439              		.cfi_endproc
 1440              	.LFE148:
 1442              		.section	.text.HAL_QSPI_Receive,"ax",%progbits
 1443              		.align	1
 1444              		.global	HAL_QSPI_Receive
 1445              		.syntax unified
 1446              		.thumb
 1447              		.thumb_func
 1449              	HAL_QSPI_Receive:
 1450              	.LFB149:
1050:Drivers/STM32F7xx_HAL_Driver/Src/stm32f7xx_hal_qspi.c **** 
1051:Drivers/STM32F7xx_HAL_Driver/Src/stm32f7xx_hal_qspi.c **** 
1052:Drivers/STM32F7xx_HAL_Driver/Src/stm32f7xx_hal_qspi.c **** /**
1053:Drivers/STM32F7xx_HAL_Driver/Src/stm32f7xx_hal_qspi.c ****   * @brief Receive an amount of data in blocking mode.
1054:Drivers/STM32F7xx_HAL_Driver/Src/stm32f7xx_hal_qspi.c ****   * @param hqspi QSPI handle
1055:Drivers/STM32F7xx_HAL_Driver/Src/stm32f7xx_hal_qspi.c ****   * @param pData pointer to data buffer
1056:Drivers/STM32F7xx_HAL_Driver/Src/stm32f7xx_hal_qspi.c ****   * @param Timeout Timeout duration
1057:Drivers/STM32F7xx_HAL_Driver/Src/stm32f7xx_hal_qspi.c ****   * @note   This function is used only in Indirect Read Mode
ARM GAS  C:\Users\jisu8\AppData\Local\Temp\ccA6Ygqq.s 			page 45


1058:Drivers/STM32F7xx_HAL_Driver/Src/stm32f7xx_hal_qspi.c ****   * @retval HAL status
1059:Drivers/STM32F7xx_HAL_Driver/Src/stm32f7xx_hal_qspi.c ****   */
1060:Drivers/STM32F7xx_HAL_Driver/Src/stm32f7xx_hal_qspi.c **** HAL_StatusTypeDef HAL_QSPI_Receive(QSPI_HandleTypeDef *hqspi, uint8_t *pData, uint32_t Timeout)
1061:Drivers/STM32F7xx_HAL_Driver/Src/stm32f7xx_hal_qspi.c **** {
 1451              		.loc 1 1061 1
 1452              		.cfi_startproc
 1453              		@ args = 0, pretend = 0, frame = 32
 1454              		@ frame_needed = 1, uses_anonymous_args = 0
 1455 0000 80B5     		push	{r7, lr}
 1456              	.LCFI42:
 1457              		.cfi_def_cfa_offset 8
 1458              		.cfi_offset 7, -8
 1459              		.cfi_offset 14, -4
 1460 0002 8AB0     		sub	sp, sp, #40
 1461              	.LCFI43:
 1462              		.cfi_def_cfa_offset 48
 1463 0004 02AF     		add	r7, sp, #8
 1464              	.LCFI44:
 1465              		.cfi_def_cfa 7, 40
 1466 0006 F860     		str	r0, [r7, #12]
 1467 0008 B960     		str	r1, [r7, #8]
 1468 000a 7A60     		str	r2, [r7, #4]
1062:Drivers/STM32F7xx_HAL_Driver/Src/stm32f7xx_hal_qspi.c ****   HAL_StatusTypeDef status = HAL_OK;
 1469              		.loc 1 1062 21
 1470 000c 0023     		movs	r3, #0
 1471 000e FB77     		strb	r3, [r7, #31]
1063:Drivers/STM32F7xx_HAL_Driver/Src/stm32f7xx_hal_qspi.c ****   uint32_t tickstart = HAL_GetTick();
 1472              		.loc 1 1063 24
 1473 0010 FFF7FEFF 		bl	HAL_GetTick
 1474 0014 B861     		str	r0, [r7, #24]
1064:Drivers/STM32F7xx_HAL_Driver/Src/stm32f7xx_hal_qspi.c ****   uint32_t addr_reg = READ_REG(hqspi->Instance->AR);
 1475              		.loc 1 1064 23
 1476 0016 FB68     		ldr	r3, [r7, #12]
 1477 0018 1B68     		ldr	r3, [r3]
 1478              		.loc 1 1064 12
 1479 001a 9B69     		ldr	r3, [r3, #24]
 1480 001c 7B61     		str	r3, [r7, #20]
1065:Drivers/STM32F7xx_HAL_Driver/Src/stm32f7xx_hal_qspi.c ****   __IO uint32_t *data_reg = &hqspi->Instance->DR;
 1481              		.loc 1 1065 35
 1482 001e FB68     		ldr	r3, [r7, #12]
 1483 0020 1B68     		ldr	r3, [r3]
 1484              		.loc 1 1065 18
 1485 0022 2033     		adds	r3, r3, #32
 1486 0024 3B61     		str	r3, [r7, #16]
1066:Drivers/STM32F7xx_HAL_Driver/Src/stm32f7xx_hal_qspi.c **** 
1067:Drivers/STM32F7xx_HAL_Driver/Src/stm32f7xx_hal_qspi.c ****   /* Process locked */
1068:Drivers/STM32F7xx_HAL_Driver/Src/stm32f7xx_hal_qspi.c ****   __HAL_LOCK(hqspi);
 1487              		.loc 1 1068 3
 1488 0026 FB68     		ldr	r3, [r7, #12]
 1489 0028 93F84030 		ldrb	r3, [r3, #64]
 1490 002c DBB2     		uxtb	r3, r3
 1491 002e 012B     		cmp	r3, #1
 1492 0030 01D1     		bne	.L76
 1493              		.loc 1 1068 3 is_stmt 0 discriminator 1
 1494 0032 0223     		movs	r3, #2
 1495 0034 82E0     		b	.L77
 1496              	.L76:
ARM GAS  C:\Users\jisu8\AppData\Local\Temp\ccA6Ygqq.s 			page 46


 1497              		.loc 1 1068 3 discriminator 2
 1498 0036 FB68     		ldr	r3, [r7, #12]
 1499 0038 0122     		movs	r2, #1
 1500 003a 83F84020 		strb	r2, [r3, #64]
1069:Drivers/STM32F7xx_HAL_Driver/Src/stm32f7xx_hal_qspi.c **** 
1070:Drivers/STM32F7xx_HAL_Driver/Src/stm32f7xx_hal_qspi.c ****   if(hqspi->State == HAL_QSPI_STATE_READY)
 1501              		.loc 1 1070 11 is_stmt 1 discriminator 2
 1502 003e FB68     		ldr	r3, [r7, #12]
 1503 0040 93F84130 		ldrb	r3, [r3, #65]
 1504 0044 DBB2     		uxtb	r3, r3
 1505              		.loc 1 1070 5 discriminator 2
 1506 0046 012B     		cmp	r3, #1
 1507 0048 71D1     		bne	.L78
1071:Drivers/STM32F7xx_HAL_Driver/Src/stm32f7xx_hal_qspi.c ****   {
1072:Drivers/STM32F7xx_HAL_Driver/Src/stm32f7xx_hal_qspi.c ****     hqspi->ErrorCode = HAL_QSPI_ERROR_NONE;
 1508              		.loc 1 1072 22
 1509 004a FB68     		ldr	r3, [r7, #12]
 1510 004c 0022     		movs	r2, #0
 1511 004e 5A64     		str	r2, [r3, #68]
1073:Drivers/STM32F7xx_HAL_Driver/Src/stm32f7xx_hal_qspi.c **** 
1074:Drivers/STM32F7xx_HAL_Driver/Src/stm32f7xx_hal_qspi.c ****     if(pData != NULL )
 1512              		.loc 1 1074 7
 1513 0050 BB68     		ldr	r3, [r7, #8]
 1514 0052 002B     		cmp	r3, #0
 1515 0054 62D0     		beq	.L79
1075:Drivers/STM32F7xx_HAL_Driver/Src/stm32f7xx_hal_qspi.c ****     {
1076:Drivers/STM32F7xx_HAL_Driver/Src/stm32f7xx_hal_qspi.c ****       /* Update state */
1077:Drivers/STM32F7xx_HAL_Driver/Src/stm32f7xx_hal_qspi.c ****       hqspi->State = HAL_QSPI_STATE_BUSY_INDIRECT_RX;
 1516              		.loc 1 1077 20
 1517 0056 FB68     		ldr	r3, [r7, #12]
 1518 0058 2222     		movs	r2, #34
 1519 005a 83F84120 		strb	r2, [r3, #65]
1078:Drivers/STM32F7xx_HAL_Driver/Src/stm32f7xx_hal_qspi.c **** 
1079:Drivers/STM32F7xx_HAL_Driver/Src/stm32f7xx_hal_qspi.c ****       /* Configure counters and size of the handle */
1080:Drivers/STM32F7xx_HAL_Driver/Src/stm32f7xx_hal_qspi.c ****       hqspi->RxXferCount = READ_REG(hqspi->Instance->DLR) + 1U;
 1520              		.loc 1 1080 28
 1521 005e FB68     		ldr	r3, [r7, #12]
 1522 0060 1B68     		ldr	r3, [r3]
 1523 0062 1B69     		ldr	r3, [r3, #16]
 1524              		.loc 1 1080 59
 1525 0064 5A1C     		adds	r2, r3, #1
 1526              		.loc 1 1080 26
 1527 0066 FB68     		ldr	r3, [r7, #12]
 1528 0068 9A63     		str	r2, [r3, #56]
1081:Drivers/STM32F7xx_HAL_Driver/Src/stm32f7xx_hal_qspi.c ****       hqspi->RxXferSize = READ_REG(hqspi->Instance->DLR) + 1U;
 1529              		.loc 1 1081 27
 1530 006a FB68     		ldr	r3, [r7, #12]
 1531 006c 1B68     		ldr	r3, [r3]
 1532 006e 1B69     		ldr	r3, [r3, #16]
 1533              		.loc 1 1081 58
 1534 0070 5A1C     		adds	r2, r3, #1
 1535              		.loc 1 1081 25
 1536 0072 FB68     		ldr	r3, [r7, #12]
 1537 0074 5A63     		str	r2, [r3, #52]
1082:Drivers/STM32F7xx_HAL_Driver/Src/stm32f7xx_hal_qspi.c ****       hqspi->pRxBuffPtr = pData;
 1538              		.loc 1 1082 25
 1539 0076 FB68     		ldr	r3, [r7, #12]
ARM GAS  C:\Users\jisu8\AppData\Local\Temp\ccA6Ygqq.s 			page 47


 1540 0078 BA68     		ldr	r2, [r7, #8]
 1541 007a 1A63     		str	r2, [r3, #48]
1083:Drivers/STM32F7xx_HAL_Driver/Src/stm32f7xx_hal_qspi.c **** 
1084:Drivers/STM32F7xx_HAL_Driver/Src/stm32f7xx_hal_qspi.c ****       /* Configure QSPI: CCR register with functional as indirect read */
1085:Drivers/STM32F7xx_HAL_Driver/Src/stm32f7xx_hal_qspi.c ****       MODIFY_REG(hqspi->Instance->CCR, QUADSPI_CCR_FMODE, QSPI_FUNCTIONAL_MODE_INDIRECT_READ);
 1542              		.loc 1 1085 7
 1543 007c FB68     		ldr	r3, [r7, #12]
 1544 007e 1B68     		ldr	r3, [r3]
 1545 0080 5B69     		ldr	r3, [r3, #20]
 1546 0082 23F04062 		bic	r2, r3, #201326592
 1547 0086 FB68     		ldr	r3, [r7, #12]
 1548 0088 1B68     		ldr	r3, [r3]
 1549 008a 42F08062 		orr	r2, r2, #67108864
 1550 008e 5A61     		str	r2, [r3, #20]
1086:Drivers/STM32F7xx_HAL_Driver/Src/stm32f7xx_hal_qspi.c **** 
1087:Drivers/STM32F7xx_HAL_Driver/Src/stm32f7xx_hal_qspi.c ****       /* Start the transfer by re-writing the address in AR register */
1088:Drivers/STM32F7xx_HAL_Driver/Src/stm32f7xx_hal_qspi.c ****       WRITE_REG(hqspi->Instance->AR, addr_reg);
 1551              		.loc 1 1088 7
 1552 0090 FB68     		ldr	r3, [r7, #12]
 1553 0092 1B68     		ldr	r3, [r3]
 1554 0094 7A69     		ldr	r2, [r7, #20]
 1555 0096 9A61     		str	r2, [r3, #24]
1089:Drivers/STM32F7xx_HAL_Driver/Src/stm32f7xx_hal_qspi.c **** 
1090:Drivers/STM32F7xx_HAL_Driver/Src/stm32f7xx_hal_qspi.c ****       while(hqspi->RxXferCount > 0U)
 1556              		.loc 1 1090 12
 1557 0098 1CE0     		b	.L80
 1558              	.L83:
1091:Drivers/STM32F7xx_HAL_Driver/Src/stm32f7xx_hal_qspi.c ****       {
1092:Drivers/STM32F7xx_HAL_Driver/Src/stm32f7xx_hal_qspi.c ****         /* Wait until FT or TC flag is set to read received data */
1093:Drivers/STM32F7xx_HAL_Driver/Src/stm32f7xx_hal_qspi.c ****         status = QSPI_WaitFlagStateUntilTimeout(hqspi, (QSPI_FLAG_FT | QSPI_FLAG_TC), SET, tickstar
 1559              		.loc 1 1093 18
 1560 009a 7B68     		ldr	r3, [r7, #4]
 1561 009c 0093     		str	r3, [sp]
 1562 009e BB69     		ldr	r3, [r7, #24]
 1563 00a0 0122     		movs	r2, #1
 1564 00a2 0621     		movs	r1, #6
 1565 00a4 F868     		ldr	r0, [r7, #12]
 1566 00a6 FFF7FEFF 		bl	QSPI_WaitFlagStateUntilTimeout
 1567 00aa 0346     		mov	r3, r0
 1568 00ac FB77     		strb	r3, [r7, #31]
1094:Drivers/STM32F7xx_HAL_Driver/Src/stm32f7xx_hal_qspi.c **** 
1095:Drivers/STM32F7xx_HAL_Driver/Src/stm32f7xx_hal_qspi.c ****         if  (status != HAL_OK)
 1569              		.loc 1 1095 13
 1570 00ae FB7F     		ldrb	r3, [r7, #31]	@ zero_extendqisi2
 1571 00b0 002B     		cmp	r3, #0
 1572 00b2 14D1     		bne	.L86
1096:Drivers/STM32F7xx_HAL_Driver/Src/stm32f7xx_hal_qspi.c ****         {
1097:Drivers/STM32F7xx_HAL_Driver/Src/stm32f7xx_hal_qspi.c ****           break;
1098:Drivers/STM32F7xx_HAL_Driver/Src/stm32f7xx_hal_qspi.c ****         }
1099:Drivers/STM32F7xx_HAL_Driver/Src/stm32f7xx_hal_qspi.c **** 
1100:Drivers/STM32F7xx_HAL_Driver/Src/stm32f7xx_hal_qspi.c ****         *hqspi->pRxBuffPtr = *((__IO uint8_t *)data_reg);
 1573              		.loc 1 1100 15
 1574 00b4 FB68     		ldr	r3, [r7, #12]
 1575 00b6 1B6B     		ldr	r3, [r3, #48]
 1576              		.loc 1 1100 30
 1577 00b8 3A69     		ldr	r2, [r7, #16]
 1578 00ba 1278     		ldrb	r2, [r2]
ARM GAS  C:\Users\jisu8\AppData\Local\Temp\ccA6Ygqq.s 			page 48


 1579 00bc D2B2     		uxtb	r2, r2
 1580              		.loc 1 1100 28
 1581 00be 1A70     		strb	r2, [r3]
1101:Drivers/STM32F7xx_HAL_Driver/Src/stm32f7xx_hal_qspi.c ****         hqspi->pRxBuffPtr++;
 1582              		.loc 1 1101 14
 1583 00c0 FB68     		ldr	r3, [r7, #12]
 1584 00c2 1B6B     		ldr	r3, [r3, #48]
 1585              		.loc 1 1101 26
 1586 00c4 5A1C     		adds	r2, r3, #1
 1587 00c6 FB68     		ldr	r3, [r7, #12]
 1588 00c8 1A63     		str	r2, [r3, #48]
1102:Drivers/STM32F7xx_HAL_Driver/Src/stm32f7xx_hal_qspi.c ****         hqspi->RxXferCount--;
 1589              		.loc 1 1102 14
 1590 00ca FB68     		ldr	r3, [r7, #12]
 1591 00cc 9B6B     		ldr	r3, [r3, #56]
 1592              		.loc 1 1102 27
 1593 00ce 5A1E     		subs	r2, r3, #1
 1594 00d0 FB68     		ldr	r3, [r7, #12]
 1595 00d2 9A63     		str	r2, [r3, #56]
 1596              	.L80:
1090:Drivers/STM32F7xx_HAL_Driver/Src/stm32f7xx_hal_qspi.c ****       {
 1597              		.loc 1 1090 18
 1598 00d4 FB68     		ldr	r3, [r7, #12]
 1599 00d6 9B6B     		ldr	r3, [r3, #56]
1090:Drivers/STM32F7xx_HAL_Driver/Src/stm32f7xx_hal_qspi.c ****       {
 1600              		.loc 1 1090 12
 1601 00d8 002B     		cmp	r3, #0
 1602 00da DED1     		bne	.L83
 1603 00dc 00E0     		b	.L82
 1604              	.L86:
1097:Drivers/STM32F7xx_HAL_Driver/Src/stm32f7xx_hal_qspi.c ****         }
 1605              		.loc 1 1097 11
 1606 00de 00BF     		nop
 1607              	.L82:
1103:Drivers/STM32F7xx_HAL_Driver/Src/stm32f7xx_hal_qspi.c ****       }
1104:Drivers/STM32F7xx_HAL_Driver/Src/stm32f7xx_hal_qspi.c **** 
1105:Drivers/STM32F7xx_HAL_Driver/Src/stm32f7xx_hal_qspi.c ****       if (status == HAL_OK)
 1608              		.loc 1 1105 10
 1609 00e0 FB7F     		ldrb	r3, [r7, #31]	@ zero_extendqisi2
 1610 00e2 002B     		cmp	r3, #0
 1611 00e4 15D1     		bne	.L84
1106:Drivers/STM32F7xx_HAL_Driver/Src/stm32f7xx_hal_qspi.c ****       {
1107:Drivers/STM32F7xx_HAL_Driver/Src/stm32f7xx_hal_qspi.c ****         /* Wait until TC flag is set to go back in idle state */
1108:Drivers/STM32F7xx_HAL_Driver/Src/stm32f7xx_hal_qspi.c ****         status = QSPI_WaitFlagStateUntilTimeout(hqspi, QSPI_FLAG_TC, SET, tickstart, Timeout);
 1612              		.loc 1 1108 18
 1613 00e6 7B68     		ldr	r3, [r7, #4]
 1614 00e8 0093     		str	r3, [sp]
 1615 00ea BB69     		ldr	r3, [r7, #24]
 1616 00ec 0122     		movs	r2, #1
 1617 00ee 0221     		movs	r1, #2
 1618 00f0 F868     		ldr	r0, [r7, #12]
 1619 00f2 FFF7FEFF 		bl	QSPI_WaitFlagStateUntilTimeout
 1620 00f6 0346     		mov	r3, r0
 1621 00f8 FB77     		strb	r3, [r7, #31]
1109:Drivers/STM32F7xx_HAL_Driver/Src/stm32f7xx_hal_qspi.c **** 
1110:Drivers/STM32F7xx_HAL_Driver/Src/stm32f7xx_hal_qspi.c ****         if  (status == HAL_OK)
 1622              		.loc 1 1110 13
ARM GAS  C:\Users\jisu8\AppData\Local\Temp\ccA6Ygqq.s 			page 49


 1623 00fa FB7F     		ldrb	r3, [r7, #31]	@ zero_extendqisi2
 1624 00fc 002B     		cmp	r3, #0
 1625 00fe 08D1     		bne	.L84
1111:Drivers/STM32F7xx_HAL_Driver/Src/stm32f7xx_hal_qspi.c ****         {
1112:Drivers/STM32F7xx_HAL_Driver/Src/stm32f7xx_hal_qspi.c ****           /* Clear Transfer Complete bit */
1113:Drivers/STM32F7xx_HAL_Driver/Src/stm32f7xx_hal_qspi.c ****           __HAL_QSPI_CLEAR_FLAG(hqspi, QSPI_FLAG_TC);
 1626              		.loc 1 1113 11
 1627 0100 FB68     		ldr	r3, [r7, #12]
 1628 0102 1B68     		ldr	r3, [r3]
 1629 0104 0222     		movs	r2, #2
 1630 0106 DA60     		str	r2, [r3, #12]
1114:Drivers/STM32F7xx_HAL_Driver/Src/stm32f7xx_hal_qspi.c **** 
1115:Drivers/STM32F7xx_HAL_Driver/Src/stm32f7xx_hal_qspi.c **** #if  defined(QSPI1_V1_0)
1116:Drivers/STM32F7xx_HAL_Driver/Src/stm32f7xx_hal_qspi.c ****           /* Workaround - Extra data written in the FIFO at the end of a read transfer */
1117:Drivers/STM32F7xx_HAL_Driver/Src/stm32f7xx_hal_qspi.c ****           status = HAL_QSPI_Abort(hqspi);
 1631              		.loc 1 1117 20
 1632 0108 F868     		ldr	r0, [r7, #12]
 1633 010a FFF7FEFF 		bl	HAL_QSPI_Abort
 1634 010e 0346     		mov	r3, r0
 1635 0110 FB77     		strb	r3, [r7, #31]
 1636              	.L84:
1118:Drivers/STM32F7xx_HAL_Driver/Src/stm32f7xx_hal_qspi.c **** #endif
1119:Drivers/STM32F7xx_HAL_Driver/Src/stm32f7xx_hal_qspi.c ****         }
1120:Drivers/STM32F7xx_HAL_Driver/Src/stm32f7xx_hal_qspi.c ****       }
1121:Drivers/STM32F7xx_HAL_Driver/Src/stm32f7xx_hal_qspi.c **** 
1122:Drivers/STM32F7xx_HAL_Driver/Src/stm32f7xx_hal_qspi.c ****       /* Update QSPI state */
1123:Drivers/STM32F7xx_HAL_Driver/Src/stm32f7xx_hal_qspi.c ****       hqspi->State = HAL_QSPI_STATE_READY;
 1637              		.loc 1 1123 20
 1638 0112 FB68     		ldr	r3, [r7, #12]
 1639 0114 0122     		movs	r2, #1
 1640 0116 83F84120 		strb	r2, [r3, #65]
 1641 011a 0AE0     		b	.L85
 1642              	.L79:
1124:Drivers/STM32F7xx_HAL_Driver/Src/stm32f7xx_hal_qspi.c ****     }
1125:Drivers/STM32F7xx_HAL_Driver/Src/stm32f7xx_hal_qspi.c ****     else
1126:Drivers/STM32F7xx_HAL_Driver/Src/stm32f7xx_hal_qspi.c ****     {
1127:Drivers/STM32F7xx_HAL_Driver/Src/stm32f7xx_hal_qspi.c ****       hqspi->ErrorCode |= HAL_QSPI_ERROR_INVALID_PARAM;
 1643              		.loc 1 1127 24
 1644 011c FB68     		ldr	r3, [r7, #12]
 1645 011e 5B6C     		ldr	r3, [r3, #68]
 1646 0120 43F00802 		orr	r2, r3, #8
 1647 0124 FB68     		ldr	r3, [r7, #12]
 1648 0126 5A64     		str	r2, [r3, #68]
1128:Drivers/STM32F7xx_HAL_Driver/Src/stm32f7xx_hal_qspi.c ****       status = HAL_ERROR;
 1649              		.loc 1 1128 14
 1650 0128 0123     		movs	r3, #1
 1651 012a FB77     		strb	r3, [r7, #31]
 1652 012c 01E0     		b	.L85
 1653              	.L78:
1129:Drivers/STM32F7xx_HAL_Driver/Src/stm32f7xx_hal_qspi.c ****     }
1130:Drivers/STM32F7xx_HAL_Driver/Src/stm32f7xx_hal_qspi.c ****   }
1131:Drivers/STM32F7xx_HAL_Driver/Src/stm32f7xx_hal_qspi.c ****   else
1132:Drivers/STM32F7xx_HAL_Driver/Src/stm32f7xx_hal_qspi.c ****   {
1133:Drivers/STM32F7xx_HAL_Driver/Src/stm32f7xx_hal_qspi.c ****     status = HAL_BUSY;
 1654              		.loc 1 1133 12
 1655 012e 0223     		movs	r3, #2
 1656 0130 FB77     		strb	r3, [r7, #31]
ARM GAS  C:\Users\jisu8\AppData\Local\Temp\ccA6Ygqq.s 			page 50


 1657              	.L85:
1134:Drivers/STM32F7xx_HAL_Driver/Src/stm32f7xx_hal_qspi.c ****   }
1135:Drivers/STM32F7xx_HAL_Driver/Src/stm32f7xx_hal_qspi.c **** 
1136:Drivers/STM32F7xx_HAL_Driver/Src/stm32f7xx_hal_qspi.c ****   /* Process unlocked */
1137:Drivers/STM32F7xx_HAL_Driver/Src/stm32f7xx_hal_qspi.c ****   __HAL_UNLOCK(hqspi);
 1658              		.loc 1 1137 3
 1659 0132 FB68     		ldr	r3, [r7, #12]
 1660 0134 0022     		movs	r2, #0
 1661 0136 83F84020 		strb	r2, [r3, #64]
1138:Drivers/STM32F7xx_HAL_Driver/Src/stm32f7xx_hal_qspi.c **** 
1139:Drivers/STM32F7xx_HAL_Driver/Src/stm32f7xx_hal_qspi.c ****   return status;
 1662              		.loc 1 1139 10
 1663 013a FB7F     		ldrb	r3, [r7, #31]	@ zero_extendqisi2
 1664              	.L77:
1140:Drivers/STM32F7xx_HAL_Driver/Src/stm32f7xx_hal_qspi.c **** }
 1665              		.loc 1 1140 1
 1666 013c 1846     		mov	r0, r3
 1667 013e 2037     		adds	r7, r7, #32
 1668              	.LCFI45:
 1669              		.cfi_def_cfa_offset 8
 1670 0140 BD46     		mov	sp, r7
 1671              	.LCFI46:
 1672              		.cfi_def_cfa_register 13
 1673              		@ sp needed
 1674 0142 80BD     		pop	{r7, pc}
 1675              		.cfi_endproc
 1676              	.LFE149:
 1678              		.section	.text.HAL_QSPI_Transmit_IT,"ax",%progbits
 1679              		.align	1
 1680              		.global	HAL_QSPI_Transmit_IT
 1681              		.syntax unified
 1682              		.thumb
 1683              		.thumb_func
 1685              	HAL_QSPI_Transmit_IT:
 1686              	.LFB150:
1141:Drivers/STM32F7xx_HAL_Driver/Src/stm32f7xx_hal_qspi.c **** 
1142:Drivers/STM32F7xx_HAL_Driver/Src/stm32f7xx_hal_qspi.c **** /**
1143:Drivers/STM32F7xx_HAL_Driver/Src/stm32f7xx_hal_qspi.c ****   * @brief  Send an amount of data in non-blocking mode with interrupt.
1144:Drivers/STM32F7xx_HAL_Driver/Src/stm32f7xx_hal_qspi.c ****   * @param  hqspi QSPI handle
1145:Drivers/STM32F7xx_HAL_Driver/Src/stm32f7xx_hal_qspi.c ****   * @param  pData pointer to data buffer
1146:Drivers/STM32F7xx_HAL_Driver/Src/stm32f7xx_hal_qspi.c ****   * @note   This function is used only in Indirect Write Mode
1147:Drivers/STM32F7xx_HAL_Driver/Src/stm32f7xx_hal_qspi.c ****   * @retval HAL status
1148:Drivers/STM32F7xx_HAL_Driver/Src/stm32f7xx_hal_qspi.c ****   */
1149:Drivers/STM32F7xx_HAL_Driver/Src/stm32f7xx_hal_qspi.c **** HAL_StatusTypeDef HAL_QSPI_Transmit_IT(QSPI_HandleTypeDef *hqspi, uint8_t *pData)
1150:Drivers/STM32F7xx_HAL_Driver/Src/stm32f7xx_hal_qspi.c **** {
 1687              		.loc 1 1150 1
 1688              		.cfi_startproc
 1689              		@ args = 0, pretend = 0, frame = 16
 1690              		@ frame_needed = 1, uses_anonymous_args = 0
 1691              		@ link register save eliminated.
 1692 0000 80B4     		push	{r7}
 1693              	.LCFI47:
 1694              		.cfi_def_cfa_offset 4
 1695              		.cfi_offset 7, -4
 1696 0002 85B0     		sub	sp, sp, #20
 1697              	.LCFI48:
 1698              		.cfi_def_cfa_offset 24
ARM GAS  C:\Users\jisu8\AppData\Local\Temp\ccA6Ygqq.s 			page 51


 1699 0004 00AF     		add	r7, sp, #0
 1700              	.LCFI49:
 1701              		.cfi_def_cfa_register 7
 1702 0006 7860     		str	r0, [r7, #4]
 1703 0008 3960     		str	r1, [r7]
1151:Drivers/STM32F7xx_HAL_Driver/Src/stm32f7xx_hal_qspi.c ****   HAL_StatusTypeDef status = HAL_OK;
 1704              		.loc 1 1151 21
 1705 000a 0023     		movs	r3, #0
 1706 000c FB73     		strb	r3, [r7, #15]
1152:Drivers/STM32F7xx_HAL_Driver/Src/stm32f7xx_hal_qspi.c **** 
1153:Drivers/STM32F7xx_HAL_Driver/Src/stm32f7xx_hal_qspi.c ****   /* Process locked */
1154:Drivers/STM32F7xx_HAL_Driver/Src/stm32f7xx_hal_qspi.c ****   __HAL_LOCK(hqspi);
 1707              		.loc 1 1154 3
 1708 000e 7B68     		ldr	r3, [r7, #4]
 1709 0010 93F84030 		ldrb	r3, [r3, #64]
 1710 0014 DBB2     		uxtb	r3, r3
 1711 0016 012B     		cmp	r3, #1
 1712 0018 01D1     		bne	.L88
 1713              		.loc 1 1154 3 is_stmt 0 discriminator 1
 1714 001a 0223     		movs	r3, #2
 1715 001c 4FE0     		b	.L89
 1716              	.L88:
 1717              		.loc 1 1154 3 discriminator 2
 1718 001e 7B68     		ldr	r3, [r7, #4]
 1719 0020 0122     		movs	r2, #1
 1720 0022 83F84020 		strb	r2, [r3, #64]
1155:Drivers/STM32F7xx_HAL_Driver/Src/stm32f7xx_hal_qspi.c **** 
1156:Drivers/STM32F7xx_HAL_Driver/Src/stm32f7xx_hal_qspi.c ****   if(hqspi->State == HAL_QSPI_STATE_READY)
 1721              		.loc 1 1156 11 is_stmt 1 discriminator 2
 1722 0026 7B68     		ldr	r3, [r7, #4]
 1723 0028 93F84130 		ldrb	r3, [r3, #65]
 1724 002c DBB2     		uxtb	r3, r3
 1725              		.loc 1 1156 5 discriminator 2
 1726 002e 012B     		cmp	r3, #1
 1727 0030 3ED1     		bne	.L90
1157:Drivers/STM32F7xx_HAL_Driver/Src/stm32f7xx_hal_qspi.c ****   {
1158:Drivers/STM32F7xx_HAL_Driver/Src/stm32f7xx_hal_qspi.c ****     hqspi->ErrorCode = HAL_QSPI_ERROR_NONE;
 1728              		.loc 1 1158 22
 1729 0032 7B68     		ldr	r3, [r7, #4]
 1730 0034 0022     		movs	r2, #0
 1731 0036 5A64     		str	r2, [r3, #68]
1159:Drivers/STM32F7xx_HAL_Driver/Src/stm32f7xx_hal_qspi.c **** 
1160:Drivers/STM32F7xx_HAL_Driver/Src/stm32f7xx_hal_qspi.c ****     if(pData != NULL )
 1732              		.loc 1 1160 7
 1733 0038 3B68     		ldr	r3, [r7]
 1734 003a 002B     		cmp	r3, #0
 1735 003c 2BD0     		beq	.L91
1161:Drivers/STM32F7xx_HAL_Driver/Src/stm32f7xx_hal_qspi.c ****     {
1162:Drivers/STM32F7xx_HAL_Driver/Src/stm32f7xx_hal_qspi.c ****       /* Update state */
1163:Drivers/STM32F7xx_HAL_Driver/Src/stm32f7xx_hal_qspi.c ****       hqspi->State = HAL_QSPI_STATE_BUSY_INDIRECT_TX;
 1736              		.loc 1 1163 20
 1737 003e 7B68     		ldr	r3, [r7, #4]
 1738 0040 1222     		movs	r2, #18
 1739 0042 83F84120 		strb	r2, [r3, #65]
1164:Drivers/STM32F7xx_HAL_Driver/Src/stm32f7xx_hal_qspi.c **** 
1165:Drivers/STM32F7xx_HAL_Driver/Src/stm32f7xx_hal_qspi.c ****       /* Configure counters and size of the handle */
1166:Drivers/STM32F7xx_HAL_Driver/Src/stm32f7xx_hal_qspi.c ****       hqspi->TxXferCount = READ_REG(hqspi->Instance->DLR) + 1U;
ARM GAS  C:\Users\jisu8\AppData\Local\Temp\ccA6Ygqq.s 			page 52


 1740              		.loc 1 1166 28
 1741 0046 7B68     		ldr	r3, [r7, #4]
 1742 0048 1B68     		ldr	r3, [r3]
 1743 004a 1B69     		ldr	r3, [r3, #16]
 1744              		.loc 1 1166 59
 1745 004c 5A1C     		adds	r2, r3, #1
 1746              		.loc 1 1166 26
 1747 004e 7B68     		ldr	r3, [r7, #4]
 1748 0050 DA62     		str	r2, [r3, #44]
1167:Drivers/STM32F7xx_HAL_Driver/Src/stm32f7xx_hal_qspi.c ****       hqspi->TxXferSize = READ_REG(hqspi->Instance->DLR) + 1U;
 1749              		.loc 1 1167 27
 1750 0052 7B68     		ldr	r3, [r7, #4]
 1751 0054 1B68     		ldr	r3, [r3]
 1752 0056 1B69     		ldr	r3, [r3, #16]
 1753              		.loc 1 1167 58
 1754 0058 5A1C     		adds	r2, r3, #1
 1755              		.loc 1 1167 25
 1756 005a 7B68     		ldr	r3, [r7, #4]
 1757 005c 9A62     		str	r2, [r3, #40]
1168:Drivers/STM32F7xx_HAL_Driver/Src/stm32f7xx_hal_qspi.c ****       hqspi->pTxBuffPtr = pData;
 1758              		.loc 1 1168 25
 1759 005e 7B68     		ldr	r3, [r7, #4]
 1760 0060 3A68     		ldr	r2, [r7]
 1761 0062 5A62     		str	r2, [r3, #36]
1169:Drivers/STM32F7xx_HAL_Driver/Src/stm32f7xx_hal_qspi.c **** 
1170:Drivers/STM32F7xx_HAL_Driver/Src/stm32f7xx_hal_qspi.c ****       /* Clear interrupt */
1171:Drivers/STM32F7xx_HAL_Driver/Src/stm32f7xx_hal_qspi.c ****       __HAL_QSPI_CLEAR_FLAG(hqspi, QSPI_FLAG_TE | QSPI_FLAG_TC);
 1762              		.loc 1 1171 7
 1763 0064 7B68     		ldr	r3, [r7, #4]
 1764 0066 1B68     		ldr	r3, [r3]
 1765 0068 0322     		movs	r2, #3
 1766 006a DA60     		str	r2, [r3, #12]
1172:Drivers/STM32F7xx_HAL_Driver/Src/stm32f7xx_hal_qspi.c **** 
1173:Drivers/STM32F7xx_HAL_Driver/Src/stm32f7xx_hal_qspi.c ****       /* Configure QSPI: CCR register with functional as indirect write */
1174:Drivers/STM32F7xx_HAL_Driver/Src/stm32f7xx_hal_qspi.c ****       MODIFY_REG(hqspi->Instance->CCR, QUADSPI_CCR_FMODE, QSPI_FUNCTIONAL_MODE_INDIRECT_WRITE);
 1767              		.loc 1 1174 7
 1768 006c 7B68     		ldr	r3, [r7, #4]
 1769 006e 1B68     		ldr	r3, [r3]
 1770 0070 5A69     		ldr	r2, [r3, #20]
 1771 0072 7B68     		ldr	r3, [r7, #4]
 1772 0074 1B68     		ldr	r3, [r3]
 1773 0076 22F04062 		bic	r2, r2, #201326592
 1774 007a 5A61     		str	r2, [r3, #20]
1175:Drivers/STM32F7xx_HAL_Driver/Src/stm32f7xx_hal_qspi.c **** 
1176:Drivers/STM32F7xx_HAL_Driver/Src/stm32f7xx_hal_qspi.c ****       /* Process unlocked */
1177:Drivers/STM32F7xx_HAL_Driver/Src/stm32f7xx_hal_qspi.c ****       __HAL_UNLOCK(hqspi);
 1775              		.loc 1 1177 7
 1776 007c 7B68     		ldr	r3, [r7, #4]
 1777 007e 0022     		movs	r2, #0
 1778 0080 83F84020 		strb	r2, [r3, #64]
1178:Drivers/STM32F7xx_HAL_Driver/Src/stm32f7xx_hal_qspi.c **** 
1179:Drivers/STM32F7xx_HAL_Driver/Src/stm32f7xx_hal_qspi.c ****       /* Enable the QSPI transfer error, FIFO threshold and transfer complete Interrupts */
1180:Drivers/STM32F7xx_HAL_Driver/Src/stm32f7xx_hal_qspi.c ****       __HAL_QSPI_ENABLE_IT(hqspi, QSPI_IT_TE | QSPI_IT_FT | QSPI_IT_TC);
 1779              		.loc 1 1180 7
 1780 0084 7B68     		ldr	r3, [r7, #4]
 1781 0086 1B68     		ldr	r3, [r3]
 1782 0088 1A68     		ldr	r2, [r3]
ARM GAS  C:\Users\jisu8\AppData\Local\Temp\ccA6Ygqq.s 			page 53


 1783 008a 7B68     		ldr	r3, [r7, #4]
 1784 008c 1B68     		ldr	r3, [r3]
 1785 008e 42F4E022 		orr	r2, r2, #458752
 1786 0092 1A60     		str	r2, [r3]
 1787 0094 12E0     		b	.L92
 1788              	.L91:
1181:Drivers/STM32F7xx_HAL_Driver/Src/stm32f7xx_hal_qspi.c ****     }
1182:Drivers/STM32F7xx_HAL_Driver/Src/stm32f7xx_hal_qspi.c ****     else
1183:Drivers/STM32F7xx_HAL_Driver/Src/stm32f7xx_hal_qspi.c ****     {
1184:Drivers/STM32F7xx_HAL_Driver/Src/stm32f7xx_hal_qspi.c ****       hqspi->ErrorCode |= HAL_QSPI_ERROR_INVALID_PARAM;
 1789              		.loc 1 1184 24
 1790 0096 7B68     		ldr	r3, [r7, #4]
 1791 0098 5B6C     		ldr	r3, [r3, #68]
 1792 009a 43F00802 		orr	r2, r3, #8
 1793 009e 7B68     		ldr	r3, [r7, #4]
 1794 00a0 5A64     		str	r2, [r3, #68]
1185:Drivers/STM32F7xx_HAL_Driver/Src/stm32f7xx_hal_qspi.c ****       status = HAL_ERROR;
 1795              		.loc 1 1185 14
 1796 00a2 0123     		movs	r3, #1
 1797 00a4 FB73     		strb	r3, [r7, #15]
1186:Drivers/STM32F7xx_HAL_Driver/Src/stm32f7xx_hal_qspi.c **** 
1187:Drivers/STM32F7xx_HAL_Driver/Src/stm32f7xx_hal_qspi.c ****       /* Process unlocked */
1188:Drivers/STM32F7xx_HAL_Driver/Src/stm32f7xx_hal_qspi.c ****       __HAL_UNLOCK(hqspi);
 1798              		.loc 1 1188 7
 1799 00a6 7B68     		ldr	r3, [r7, #4]
 1800 00a8 0022     		movs	r2, #0
 1801 00aa 83F84020 		strb	r2, [r3, #64]
 1802 00ae 05E0     		b	.L92
 1803              	.L90:
1189:Drivers/STM32F7xx_HAL_Driver/Src/stm32f7xx_hal_qspi.c ****     }
1190:Drivers/STM32F7xx_HAL_Driver/Src/stm32f7xx_hal_qspi.c ****   }
1191:Drivers/STM32F7xx_HAL_Driver/Src/stm32f7xx_hal_qspi.c ****   else
1192:Drivers/STM32F7xx_HAL_Driver/Src/stm32f7xx_hal_qspi.c ****   {
1193:Drivers/STM32F7xx_HAL_Driver/Src/stm32f7xx_hal_qspi.c ****     status = HAL_BUSY;
 1804              		.loc 1 1193 12
 1805 00b0 0223     		movs	r3, #2
 1806 00b2 FB73     		strb	r3, [r7, #15]
1194:Drivers/STM32F7xx_HAL_Driver/Src/stm32f7xx_hal_qspi.c **** 
1195:Drivers/STM32F7xx_HAL_Driver/Src/stm32f7xx_hal_qspi.c ****     /* Process unlocked */
1196:Drivers/STM32F7xx_HAL_Driver/Src/stm32f7xx_hal_qspi.c ****     __HAL_UNLOCK(hqspi);
 1807              		.loc 1 1196 5
 1808 00b4 7B68     		ldr	r3, [r7, #4]
 1809 00b6 0022     		movs	r2, #0
 1810 00b8 83F84020 		strb	r2, [r3, #64]
 1811              	.L92:
1197:Drivers/STM32F7xx_HAL_Driver/Src/stm32f7xx_hal_qspi.c ****   }
1198:Drivers/STM32F7xx_HAL_Driver/Src/stm32f7xx_hal_qspi.c **** 
1199:Drivers/STM32F7xx_HAL_Driver/Src/stm32f7xx_hal_qspi.c ****   return status;
 1812              		.loc 1 1199 10
 1813 00bc FB7B     		ldrb	r3, [r7, #15]	@ zero_extendqisi2
 1814              	.L89:
1200:Drivers/STM32F7xx_HAL_Driver/Src/stm32f7xx_hal_qspi.c **** }
 1815              		.loc 1 1200 1
 1816 00be 1846     		mov	r0, r3
 1817 00c0 1437     		adds	r7, r7, #20
 1818              	.LCFI50:
 1819              		.cfi_def_cfa_offset 4
ARM GAS  C:\Users\jisu8\AppData\Local\Temp\ccA6Ygqq.s 			page 54


 1820 00c2 BD46     		mov	sp, r7
 1821              	.LCFI51:
 1822              		.cfi_def_cfa_register 13
 1823              		@ sp needed
 1824 00c4 5DF8047B 		ldr	r7, [sp], #4
 1825              	.LCFI52:
 1826              		.cfi_restore 7
 1827              		.cfi_def_cfa_offset 0
 1828 00c8 7047     		bx	lr
 1829              		.cfi_endproc
 1830              	.LFE150:
 1832              		.section	.text.HAL_QSPI_Receive_IT,"ax",%progbits
 1833              		.align	1
 1834              		.global	HAL_QSPI_Receive_IT
 1835              		.syntax unified
 1836              		.thumb
 1837              		.thumb_func
 1839              	HAL_QSPI_Receive_IT:
 1840              	.LFB151:
1201:Drivers/STM32F7xx_HAL_Driver/Src/stm32f7xx_hal_qspi.c **** 
1202:Drivers/STM32F7xx_HAL_Driver/Src/stm32f7xx_hal_qspi.c **** /**
1203:Drivers/STM32F7xx_HAL_Driver/Src/stm32f7xx_hal_qspi.c ****   * @brief  Receive an amount of data in non-blocking mode with interrupt.
1204:Drivers/STM32F7xx_HAL_Driver/Src/stm32f7xx_hal_qspi.c ****   * @param  hqspi QSPI handle
1205:Drivers/STM32F7xx_HAL_Driver/Src/stm32f7xx_hal_qspi.c ****   * @param  pData pointer to data buffer
1206:Drivers/STM32F7xx_HAL_Driver/Src/stm32f7xx_hal_qspi.c ****   * @note   This function is used only in Indirect Read Mode
1207:Drivers/STM32F7xx_HAL_Driver/Src/stm32f7xx_hal_qspi.c ****   * @retval HAL status
1208:Drivers/STM32F7xx_HAL_Driver/Src/stm32f7xx_hal_qspi.c ****   */
1209:Drivers/STM32F7xx_HAL_Driver/Src/stm32f7xx_hal_qspi.c **** HAL_StatusTypeDef HAL_QSPI_Receive_IT(QSPI_HandleTypeDef *hqspi, uint8_t *pData)
1210:Drivers/STM32F7xx_HAL_Driver/Src/stm32f7xx_hal_qspi.c **** {
 1841              		.loc 1 1210 1
 1842              		.cfi_startproc
 1843              		@ args = 0, pretend = 0, frame = 16
 1844              		@ frame_needed = 1, uses_anonymous_args = 0
 1845              		@ link register save eliminated.
 1846 0000 80B4     		push	{r7}
 1847              	.LCFI53:
 1848              		.cfi_def_cfa_offset 4
 1849              		.cfi_offset 7, -4
 1850 0002 85B0     		sub	sp, sp, #20
 1851              	.LCFI54:
 1852              		.cfi_def_cfa_offset 24
 1853 0004 00AF     		add	r7, sp, #0
 1854              	.LCFI55:
 1855              		.cfi_def_cfa_register 7
 1856 0006 7860     		str	r0, [r7, #4]
 1857 0008 3960     		str	r1, [r7]
1211:Drivers/STM32F7xx_HAL_Driver/Src/stm32f7xx_hal_qspi.c ****   HAL_StatusTypeDef status = HAL_OK;
 1858              		.loc 1 1211 21
 1859 000a 0023     		movs	r3, #0
 1860 000c FB73     		strb	r3, [r7, #15]
1212:Drivers/STM32F7xx_HAL_Driver/Src/stm32f7xx_hal_qspi.c ****   uint32_t addr_reg = READ_REG(hqspi->Instance->AR);
 1861              		.loc 1 1212 23
 1862 000e 7B68     		ldr	r3, [r7, #4]
 1863 0010 1B68     		ldr	r3, [r3]
 1864              		.loc 1 1212 12
 1865 0012 9B69     		ldr	r3, [r3, #24]
 1866 0014 BB60     		str	r3, [r7, #8]
ARM GAS  C:\Users\jisu8\AppData\Local\Temp\ccA6Ygqq.s 			page 55


1213:Drivers/STM32F7xx_HAL_Driver/Src/stm32f7xx_hal_qspi.c **** 
1214:Drivers/STM32F7xx_HAL_Driver/Src/stm32f7xx_hal_qspi.c ****   /* Process locked */
1215:Drivers/STM32F7xx_HAL_Driver/Src/stm32f7xx_hal_qspi.c ****   __HAL_LOCK(hqspi);
 1867              		.loc 1 1215 3
 1868 0016 7B68     		ldr	r3, [r7, #4]
 1869 0018 93F84030 		ldrb	r3, [r3, #64]
 1870 001c DBB2     		uxtb	r3, r3
 1871 001e 012B     		cmp	r3, #1
 1872 0020 01D1     		bne	.L94
 1873              		.loc 1 1215 3 is_stmt 0 discriminator 1
 1874 0022 0223     		movs	r3, #2
 1875 0024 55E0     		b	.L95
 1876              	.L94:
 1877              		.loc 1 1215 3 discriminator 2
 1878 0026 7B68     		ldr	r3, [r7, #4]
 1879 0028 0122     		movs	r2, #1
 1880 002a 83F84020 		strb	r2, [r3, #64]
1216:Drivers/STM32F7xx_HAL_Driver/Src/stm32f7xx_hal_qspi.c **** 
1217:Drivers/STM32F7xx_HAL_Driver/Src/stm32f7xx_hal_qspi.c ****   if(hqspi->State == HAL_QSPI_STATE_READY)
 1881              		.loc 1 1217 11 is_stmt 1 discriminator 2
 1882 002e 7B68     		ldr	r3, [r7, #4]
 1883 0030 93F84130 		ldrb	r3, [r3, #65]
 1884 0034 DBB2     		uxtb	r3, r3
 1885              		.loc 1 1217 5 discriminator 2
 1886 0036 012B     		cmp	r3, #1
 1887 0038 44D1     		bne	.L96
1218:Drivers/STM32F7xx_HAL_Driver/Src/stm32f7xx_hal_qspi.c ****   {
1219:Drivers/STM32F7xx_HAL_Driver/Src/stm32f7xx_hal_qspi.c ****     hqspi->ErrorCode = HAL_QSPI_ERROR_NONE;
 1888              		.loc 1 1219 22
 1889 003a 7B68     		ldr	r3, [r7, #4]
 1890 003c 0022     		movs	r2, #0
 1891 003e 5A64     		str	r2, [r3, #68]
1220:Drivers/STM32F7xx_HAL_Driver/Src/stm32f7xx_hal_qspi.c **** 
1221:Drivers/STM32F7xx_HAL_Driver/Src/stm32f7xx_hal_qspi.c ****     if(pData != NULL )
 1892              		.loc 1 1221 7
 1893 0040 3B68     		ldr	r3, [r7]
 1894 0042 002B     		cmp	r3, #0
 1895 0044 31D0     		beq	.L97
1222:Drivers/STM32F7xx_HAL_Driver/Src/stm32f7xx_hal_qspi.c ****     {
1223:Drivers/STM32F7xx_HAL_Driver/Src/stm32f7xx_hal_qspi.c ****       /* Update state */
1224:Drivers/STM32F7xx_HAL_Driver/Src/stm32f7xx_hal_qspi.c ****       hqspi->State = HAL_QSPI_STATE_BUSY_INDIRECT_RX;
 1896              		.loc 1 1224 20
 1897 0046 7B68     		ldr	r3, [r7, #4]
 1898 0048 2222     		movs	r2, #34
 1899 004a 83F84120 		strb	r2, [r3, #65]
1225:Drivers/STM32F7xx_HAL_Driver/Src/stm32f7xx_hal_qspi.c **** 
1226:Drivers/STM32F7xx_HAL_Driver/Src/stm32f7xx_hal_qspi.c ****       /* Configure counters and size of the handle */
1227:Drivers/STM32F7xx_HAL_Driver/Src/stm32f7xx_hal_qspi.c ****       hqspi->RxXferCount = READ_REG(hqspi->Instance->DLR) + 1U;
 1900              		.loc 1 1227 28
 1901 004e 7B68     		ldr	r3, [r7, #4]
 1902 0050 1B68     		ldr	r3, [r3]
 1903 0052 1B69     		ldr	r3, [r3, #16]
 1904              		.loc 1 1227 59
 1905 0054 5A1C     		adds	r2, r3, #1
 1906              		.loc 1 1227 26
 1907 0056 7B68     		ldr	r3, [r7, #4]
 1908 0058 9A63     		str	r2, [r3, #56]
ARM GAS  C:\Users\jisu8\AppData\Local\Temp\ccA6Ygqq.s 			page 56


1228:Drivers/STM32F7xx_HAL_Driver/Src/stm32f7xx_hal_qspi.c ****       hqspi->RxXferSize = READ_REG(hqspi->Instance->DLR) + 1U;
 1909              		.loc 1 1228 27
 1910 005a 7B68     		ldr	r3, [r7, #4]
 1911 005c 1B68     		ldr	r3, [r3]
 1912 005e 1B69     		ldr	r3, [r3, #16]
 1913              		.loc 1 1228 58
 1914 0060 5A1C     		adds	r2, r3, #1
 1915              		.loc 1 1228 25
 1916 0062 7B68     		ldr	r3, [r7, #4]
 1917 0064 5A63     		str	r2, [r3, #52]
1229:Drivers/STM32F7xx_HAL_Driver/Src/stm32f7xx_hal_qspi.c ****       hqspi->pRxBuffPtr = pData;
 1918              		.loc 1 1229 25
 1919 0066 7B68     		ldr	r3, [r7, #4]
 1920 0068 3A68     		ldr	r2, [r7]
 1921 006a 1A63     		str	r2, [r3, #48]
1230:Drivers/STM32F7xx_HAL_Driver/Src/stm32f7xx_hal_qspi.c **** 
1231:Drivers/STM32F7xx_HAL_Driver/Src/stm32f7xx_hal_qspi.c ****       /* Clear interrupt */
1232:Drivers/STM32F7xx_HAL_Driver/Src/stm32f7xx_hal_qspi.c ****       __HAL_QSPI_CLEAR_FLAG(hqspi, QSPI_FLAG_TE | QSPI_FLAG_TC);
 1922              		.loc 1 1232 7
 1923 006c 7B68     		ldr	r3, [r7, #4]
 1924 006e 1B68     		ldr	r3, [r3]
 1925 0070 0322     		movs	r2, #3
 1926 0072 DA60     		str	r2, [r3, #12]
1233:Drivers/STM32F7xx_HAL_Driver/Src/stm32f7xx_hal_qspi.c **** 
1234:Drivers/STM32F7xx_HAL_Driver/Src/stm32f7xx_hal_qspi.c ****       /* Configure QSPI: CCR register with functional as indirect read */
1235:Drivers/STM32F7xx_HAL_Driver/Src/stm32f7xx_hal_qspi.c ****       MODIFY_REG(hqspi->Instance->CCR, QUADSPI_CCR_FMODE, QSPI_FUNCTIONAL_MODE_INDIRECT_READ);
 1927              		.loc 1 1235 7
 1928 0074 7B68     		ldr	r3, [r7, #4]
 1929 0076 1B68     		ldr	r3, [r3]
 1930 0078 5B69     		ldr	r3, [r3, #20]
 1931 007a 23F04062 		bic	r2, r3, #201326592
 1932 007e 7B68     		ldr	r3, [r7, #4]
 1933 0080 1B68     		ldr	r3, [r3]
 1934 0082 42F08062 		orr	r2, r2, #67108864
 1935 0086 5A61     		str	r2, [r3, #20]
1236:Drivers/STM32F7xx_HAL_Driver/Src/stm32f7xx_hal_qspi.c **** 
1237:Drivers/STM32F7xx_HAL_Driver/Src/stm32f7xx_hal_qspi.c ****       /* Start the transfer by re-writing the address in AR register */
1238:Drivers/STM32F7xx_HAL_Driver/Src/stm32f7xx_hal_qspi.c ****       WRITE_REG(hqspi->Instance->AR, addr_reg);
 1936              		.loc 1 1238 7
 1937 0088 7B68     		ldr	r3, [r7, #4]
 1938 008a 1B68     		ldr	r3, [r3]
 1939 008c BA68     		ldr	r2, [r7, #8]
 1940 008e 9A61     		str	r2, [r3, #24]
1239:Drivers/STM32F7xx_HAL_Driver/Src/stm32f7xx_hal_qspi.c **** 
1240:Drivers/STM32F7xx_HAL_Driver/Src/stm32f7xx_hal_qspi.c ****       /* Process unlocked */
1241:Drivers/STM32F7xx_HAL_Driver/Src/stm32f7xx_hal_qspi.c ****       __HAL_UNLOCK(hqspi);
 1941              		.loc 1 1241 7
 1942 0090 7B68     		ldr	r3, [r7, #4]
 1943 0092 0022     		movs	r2, #0
 1944 0094 83F84020 		strb	r2, [r3, #64]
1242:Drivers/STM32F7xx_HAL_Driver/Src/stm32f7xx_hal_qspi.c **** 
1243:Drivers/STM32F7xx_HAL_Driver/Src/stm32f7xx_hal_qspi.c ****       /* Enable the QSPI transfer error, FIFO threshold and transfer complete Interrupts */
1244:Drivers/STM32F7xx_HAL_Driver/Src/stm32f7xx_hal_qspi.c ****       __HAL_QSPI_ENABLE_IT(hqspi, QSPI_IT_TE | QSPI_IT_FT | QSPI_IT_TC);
 1945              		.loc 1 1244 7
 1946 0098 7B68     		ldr	r3, [r7, #4]
 1947 009a 1B68     		ldr	r3, [r3]
 1948 009c 1A68     		ldr	r2, [r3]
ARM GAS  C:\Users\jisu8\AppData\Local\Temp\ccA6Ygqq.s 			page 57


 1949 009e 7B68     		ldr	r3, [r7, #4]
 1950 00a0 1B68     		ldr	r3, [r3]
 1951 00a2 42F4E022 		orr	r2, r2, #458752
 1952 00a6 1A60     		str	r2, [r3]
 1953 00a8 12E0     		b	.L98
 1954              	.L97:
1245:Drivers/STM32F7xx_HAL_Driver/Src/stm32f7xx_hal_qspi.c ****     }
1246:Drivers/STM32F7xx_HAL_Driver/Src/stm32f7xx_hal_qspi.c ****     else
1247:Drivers/STM32F7xx_HAL_Driver/Src/stm32f7xx_hal_qspi.c ****     {
1248:Drivers/STM32F7xx_HAL_Driver/Src/stm32f7xx_hal_qspi.c ****       hqspi->ErrorCode |= HAL_QSPI_ERROR_INVALID_PARAM;
 1955              		.loc 1 1248 24
 1956 00aa 7B68     		ldr	r3, [r7, #4]
 1957 00ac 5B6C     		ldr	r3, [r3, #68]
 1958 00ae 43F00802 		orr	r2, r3, #8
 1959 00b2 7B68     		ldr	r3, [r7, #4]
 1960 00b4 5A64     		str	r2, [r3, #68]
1249:Drivers/STM32F7xx_HAL_Driver/Src/stm32f7xx_hal_qspi.c ****       status = HAL_ERROR;
 1961              		.loc 1 1249 14
 1962 00b6 0123     		movs	r3, #1
 1963 00b8 FB73     		strb	r3, [r7, #15]
1250:Drivers/STM32F7xx_HAL_Driver/Src/stm32f7xx_hal_qspi.c **** 
1251:Drivers/STM32F7xx_HAL_Driver/Src/stm32f7xx_hal_qspi.c ****       /* Process unlocked */
1252:Drivers/STM32F7xx_HAL_Driver/Src/stm32f7xx_hal_qspi.c ****       __HAL_UNLOCK(hqspi);
 1964              		.loc 1 1252 7
 1965 00ba 7B68     		ldr	r3, [r7, #4]
 1966 00bc 0022     		movs	r2, #0
 1967 00be 83F84020 		strb	r2, [r3, #64]
 1968 00c2 05E0     		b	.L98
 1969              	.L96:
1253:Drivers/STM32F7xx_HAL_Driver/Src/stm32f7xx_hal_qspi.c ****     }
1254:Drivers/STM32F7xx_HAL_Driver/Src/stm32f7xx_hal_qspi.c ****   }
1255:Drivers/STM32F7xx_HAL_Driver/Src/stm32f7xx_hal_qspi.c ****   else
1256:Drivers/STM32F7xx_HAL_Driver/Src/stm32f7xx_hal_qspi.c ****   {
1257:Drivers/STM32F7xx_HAL_Driver/Src/stm32f7xx_hal_qspi.c ****     status = HAL_BUSY;
 1970              		.loc 1 1257 12
 1971 00c4 0223     		movs	r3, #2
 1972 00c6 FB73     		strb	r3, [r7, #15]
1258:Drivers/STM32F7xx_HAL_Driver/Src/stm32f7xx_hal_qspi.c **** 
1259:Drivers/STM32F7xx_HAL_Driver/Src/stm32f7xx_hal_qspi.c ****     /* Process unlocked */
1260:Drivers/STM32F7xx_HAL_Driver/Src/stm32f7xx_hal_qspi.c ****     __HAL_UNLOCK(hqspi);
 1973              		.loc 1 1260 5
 1974 00c8 7B68     		ldr	r3, [r7, #4]
 1975 00ca 0022     		movs	r2, #0
 1976 00cc 83F84020 		strb	r2, [r3, #64]
 1977              	.L98:
1261:Drivers/STM32F7xx_HAL_Driver/Src/stm32f7xx_hal_qspi.c ****   }
1262:Drivers/STM32F7xx_HAL_Driver/Src/stm32f7xx_hal_qspi.c **** 
1263:Drivers/STM32F7xx_HAL_Driver/Src/stm32f7xx_hal_qspi.c ****   return status;
 1978              		.loc 1 1263 10
 1979 00d0 FB7B     		ldrb	r3, [r7, #15]	@ zero_extendqisi2
 1980              	.L95:
1264:Drivers/STM32F7xx_HAL_Driver/Src/stm32f7xx_hal_qspi.c **** }
 1981              		.loc 1 1264 1
 1982 00d2 1846     		mov	r0, r3
 1983 00d4 1437     		adds	r7, r7, #20
 1984              	.LCFI56:
 1985              		.cfi_def_cfa_offset 4
ARM GAS  C:\Users\jisu8\AppData\Local\Temp\ccA6Ygqq.s 			page 58


 1986 00d6 BD46     		mov	sp, r7
 1987              	.LCFI57:
 1988              		.cfi_def_cfa_register 13
 1989              		@ sp needed
 1990 00d8 5DF8047B 		ldr	r7, [sp], #4
 1991              	.LCFI58:
 1992              		.cfi_restore 7
 1993              		.cfi_def_cfa_offset 0
 1994 00dc 7047     		bx	lr
 1995              		.cfi_endproc
 1996              	.LFE151:
 1998              		.section	.text.HAL_QSPI_Transmit_DMA,"ax",%progbits
 1999              		.align	1
 2000              		.global	HAL_QSPI_Transmit_DMA
 2001              		.syntax unified
 2002              		.thumb
 2003              		.thumb_func
 2005              	HAL_QSPI_Transmit_DMA:
 2006              	.LFB152:
1265:Drivers/STM32F7xx_HAL_Driver/Src/stm32f7xx_hal_qspi.c **** 
1266:Drivers/STM32F7xx_HAL_Driver/Src/stm32f7xx_hal_qspi.c **** /**
1267:Drivers/STM32F7xx_HAL_Driver/Src/stm32f7xx_hal_qspi.c ****   * @brief  Send an amount of data in non-blocking mode with DMA.
1268:Drivers/STM32F7xx_HAL_Driver/Src/stm32f7xx_hal_qspi.c ****   * @param  hqspi QSPI handle
1269:Drivers/STM32F7xx_HAL_Driver/Src/stm32f7xx_hal_qspi.c ****   * @param  pData pointer to data buffer
1270:Drivers/STM32F7xx_HAL_Driver/Src/stm32f7xx_hal_qspi.c ****   * @note   This function is used only in Indirect Write Mode
1271:Drivers/STM32F7xx_HAL_Driver/Src/stm32f7xx_hal_qspi.c ****   * @note   If DMA peripheral access is configured as halfword, the number
1272:Drivers/STM32F7xx_HAL_Driver/Src/stm32f7xx_hal_qspi.c ****   *         of data and the fifo threshold should be aligned on halfword
1273:Drivers/STM32F7xx_HAL_Driver/Src/stm32f7xx_hal_qspi.c ****   * @note   If DMA peripheral access is configured as word, the number
1274:Drivers/STM32F7xx_HAL_Driver/Src/stm32f7xx_hal_qspi.c ****   *         of data and the fifo threshold should be aligned on word
1275:Drivers/STM32F7xx_HAL_Driver/Src/stm32f7xx_hal_qspi.c ****   * @retval HAL status
1276:Drivers/STM32F7xx_HAL_Driver/Src/stm32f7xx_hal_qspi.c ****   */
1277:Drivers/STM32F7xx_HAL_Driver/Src/stm32f7xx_hal_qspi.c **** HAL_StatusTypeDef HAL_QSPI_Transmit_DMA(QSPI_HandleTypeDef *hqspi, uint8_t *pData)
1278:Drivers/STM32F7xx_HAL_Driver/Src/stm32f7xx_hal_qspi.c **** {
 2007              		.loc 1 1278 1
 2008              		.cfi_startproc
 2009              		@ args = 0, pretend = 0, frame = 16
 2010              		@ frame_needed = 1, uses_anonymous_args = 0
 2011 0000 80B5     		push	{r7, lr}
 2012              	.LCFI59:
 2013              		.cfi_def_cfa_offset 8
 2014              		.cfi_offset 7, -8
 2015              		.cfi_offset 14, -4
 2016 0002 84B0     		sub	sp, sp, #16
 2017              	.LCFI60:
 2018              		.cfi_def_cfa_offset 24
 2019 0004 00AF     		add	r7, sp, #0
 2020              	.LCFI61:
 2021              		.cfi_def_cfa_register 7
 2022 0006 7860     		str	r0, [r7, #4]
 2023 0008 3960     		str	r1, [r7]
1279:Drivers/STM32F7xx_HAL_Driver/Src/stm32f7xx_hal_qspi.c ****   HAL_StatusTypeDef status = HAL_OK;
 2024              		.loc 1 1279 21
 2025 000a 0023     		movs	r3, #0
 2026 000c FB73     		strb	r3, [r7, #15]
1280:Drivers/STM32F7xx_HAL_Driver/Src/stm32f7xx_hal_qspi.c ****   uint32_t data_size = (READ_REG(hqspi->Instance->DLR) + 1U);
 2027              		.loc 1 1280 25
 2028 000e 7B68     		ldr	r3, [r7, #4]
ARM GAS  C:\Users\jisu8\AppData\Local\Temp\ccA6Ygqq.s 			page 59


 2029 0010 1B68     		ldr	r3, [r3]
 2030 0012 1B69     		ldr	r3, [r3, #16]
 2031              		.loc 1 1280 12
 2032 0014 0133     		adds	r3, r3, #1
 2033 0016 BB60     		str	r3, [r7, #8]
1281:Drivers/STM32F7xx_HAL_Driver/Src/stm32f7xx_hal_qspi.c **** 
1282:Drivers/STM32F7xx_HAL_Driver/Src/stm32f7xx_hal_qspi.c ****   /* Process locked */
1283:Drivers/STM32F7xx_HAL_Driver/Src/stm32f7xx_hal_qspi.c ****   __HAL_LOCK(hqspi);
 2034              		.loc 1 1283 3
 2035 0018 7B68     		ldr	r3, [r7, #4]
 2036 001a 93F84030 		ldrb	r3, [r3, #64]
 2037 001e DBB2     		uxtb	r3, r3
 2038 0020 012B     		cmp	r3, #1
 2039 0022 01D1     		bne	.L100
 2040              		.loc 1 1283 3 is_stmt 0 discriminator 1
 2041 0024 0223     		movs	r3, #2
 2042 0026 E3E0     		b	.L101
 2043              	.L100:
 2044              		.loc 1 1283 3 discriminator 2
 2045 0028 7B68     		ldr	r3, [r7, #4]
 2046 002a 0122     		movs	r2, #1
 2047 002c 83F84020 		strb	r2, [r3, #64]
1284:Drivers/STM32F7xx_HAL_Driver/Src/stm32f7xx_hal_qspi.c **** 
1285:Drivers/STM32F7xx_HAL_Driver/Src/stm32f7xx_hal_qspi.c ****   if(hqspi->State == HAL_QSPI_STATE_READY)
 2048              		.loc 1 1285 11 is_stmt 1 discriminator 2
 2049 0030 7B68     		ldr	r3, [r7, #4]
 2050 0032 93F84130 		ldrb	r3, [r3, #65]
 2051 0036 DBB2     		uxtb	r3, r3
 2052              		.loc 1 1285 5 discriminator 2
 2053 0038 012B     		cmp	r3, #1
 2054 003a 40F0D280 		bne	.L102
1286:Drivers/STM32F7xx_HAL_Driver/Src/stm32f7xx_hal_qspi.c ****   {
1287:Drivers/STM32F7xx_HAL_Driver/Src/stm32f7xx_hal_qspi.c ****     /* Clear the error code */
1288:Drivers/STM32F7xx_HAL_Driver/Src/stm32f7xx_hal_qspi.c ****     hqspi->ErrorCode = HAL_QSPI_ERROR_NONE;
 2055              		.loc 1 1288 22
 2056 003e 7B68     		ldr	r3, [r7, #4]
 2057 0040 0022     		movs	r2, #0
 2058 0042 5A64     		str	r2, [r3, #68]
1289:Drivers/STM32F7xx_HAL_Driver/Src/stm32f7xx_hal_qspi.c **** 
1290:Drivers/STM32F7xx_HAL_Driver/Src/stm32f7xx_hal_qspi.c ****     if(pData != NULL )
 2059              		.loc 1 1290 7
 2060 0044 3B68     		ldr	r3, [r7]
 2061 0046 002B     		cmp	r3, #0
 2062 0048 00F0BE80 		beq	.L103
1291:Drivers/STM32F7xx_HAL_Driver/Src/stm32f7xx_hal_qspi.c ****     {
1292:Drivers/STM32F7xx_HAL_Driver/Src/stm32f7xx_hal_qspi.c ****       /* Configure counters of the handle */
1293:Drivers/STM32F7xx_HAL_Driver/Src/stm32f7xx_hal_qspi.c ****       if (hqspi->hdma->Init.PeriphDataAlignment == DMA_PDATAALIGN_BYTE)
 2063              		.loc 1 1293 16
 2064 004c 7B68     		ldr	r3, [r7, #4]
 2065 004e DB6B     		ldr	r3, [r3, #60]
 2066              		.loc 1 1293 28
 2067 0050 5B69     		ldr	r3, [r3, #20]
 2068              		.loc 1 1293 10
 2069 0052 002B     		cmp	r3, #0
 2070 0054 03D1     		bne	.L104
1294:Drivers/STM32F7xx_HAL_Driver/Src/stm32f7xx_hal_qspi.c ****       {
1295:Drivers/STM32F7xx_HAL_Driver/Src/stm32f7xx_hal_qspi.c ****         hqspi->TxXferCount = data_size;
ARM GAS  C:\Users\jisu8\AppData\Local\Temp\ccA6Ygqq.s 			page 60


 2071              		.loc 1 1295 28
 2072 0056 7B68     		ldr	r3, [r7, #4]
 2073 0058 BA68     		ldr	r2, [r7, #8]
 2074 005a DA62     		str	r2, [r3, #44]
 2075 005c 44E0     		b	.L105
 2076              	.L104:
1296:Drivers/STM32F7xx_HAL_Driver/Src/stm32f7xx_hal_qspi.c ****       }
1297:Drivers/STM32F7xx_HAL_Driver/Src/stm32f7xx_hal_qspi.c ****       else if (hqspi->hdma->Init.PeriphDataAlignment == DMA_PDATAALIGN_HALFWORD)
 2077              		.loc 1 1297 21
 2078 005e 7B68     		ldr	r3, [r7, #4]
 2079 0060 DB6B     		ldr	r3, [r3, #60]
 2080              		.loc 1 1297 33
 2081 0062 5B69     		ldr	r3, [r3, #20]
 2082              		.loc 1 1297 15
 2083 0064 B3F5006F 		cmp	r3, #2048
 2084 0068 1CD1     		bne	.L106
1298:Drivers/STM32F7xx_HAL_Driver/Src/stm32f7xx_hal_qspi.c ****       {
1299:Drivers/STM32F7xx_HAL_Driver/Src/stm32f7xx_hal_qspi.c ****         if (((data_size % 2U) != 0U) || ((hqspi->Init.FifoThreshold % 2U) != 0U))
 2085              		.loc 1 1299 25
 2086 006a BB68     		ldr	r3, [r7, #8]
 2087 006c 03F00103 		and	r3, r3, #1
 2088              		.loc 1 1299 12
 2089 0070 002B     		cmp	r3, #0
 2090 0072 05D1     		bne	.L107
 2091              		.loc 1 1299 54 discriminator 1
 2092 0074 7B68     		ldr	r3, [r7, #4]
 2093 0076 9B68     		ldr	r3, [r3, #8]
 2094              		.loc 1 1299 69 discriminator 1
 2095 0078 03F00103 		and	r3, r3, #1
 2096              		.loc 1 1299 38 discriminator 1
 2097 007c 002B     		cmp	r3, #0
 2098 007e 0CD0     		beq	.L108
 2099              	.L107:
1300:Drivers/STM32F7xx_HAL_Driver/Src/stm32f7xx_hal_qspi.c ****         {
1301:Drivers/STM32F7xx_HAL_Driver/Src/stm32f7xx_hal_qspi.c ****           /* The number of data or the fifo threshold is not aligned on halfword
1302:Drivers/STM32F7xx_HAL_Driver/Src/stm32f7xx_hal_qspi.c ****           => no transfer possible with DMA peripheral access configured as halfword */
1303:Drivers/STM32F7xx_HAL_Driver/Src/stm32f7xx_hal_qspi.c ****           hqspi->ErrorCode |= HAL_QSPI_ERROR_INVALID_PARAM;
 2100              		.loc 1 1303 28
 2101 0080 7B68     		ldr	r3, [r7, #4]
 2102 0082 5B6C     		ldr	r3, [r3, #68]
 2103 0084 43F00802 		orr	r2, r3, #8
 2104 0088 7B68     		ldr	r3, [r7, #4]
 2105 008a 5A64     		str	r2, [r3, #68]
1304:Drivers/STM32F7xx_HAL_Driver/Src/stm32f7xx_hal_qspi.c ****           status = HAL_ERROR;
 2106              		.loc 1 1304 18
 2107 008c 0123     		movs	r3, #1
 2108 008e FB73     		strb	r3, [r7, #15]
1305:Drivers/STM32F7xx_HAL_Driver/Src/stm32f7xx_hal_qspi.c **** 
1306:Drivers/STM32F7xx_HAL_Driver/Src/stm32f7xx_hal_qspi.c ****           /* Process unlocked */
1307:Drivers/STM32F7xx_HAL_Driver/Src/stm32f7xx_hal_qspi.c ****           __HAL_UNLOCK(hqspi);
 2109              		.loc 1 1307 11
 2110 0090 7B68     		ldr	r3, [r7, #4]
 2111 0092 0022     		movs	r2, #0
 2112 0094 83F84020 		strb	r2, [r3, #64]
 2113 0098 26E0     		b	.L105
 2114              	.L108:
1308:Drivers/STM32F7xx_HAL_Driver/Src/stm32f7xx_hal_qspi.c ****         }
ARM GAS  C:\Users\jisu8\AppData\Local\Temp\ccA6Ygqq.s 			page 61


1309:Drivers/STM32F7xx_HAL_Driver/Src/stm32f7xx_hal_qspi.c ****         else
1310:Drivers/STM32F7xx_HAL_Driver/Src/stm32f7xx_hal_qspi.c ****         {
1311:Drivers/STM32F7xx_HAL_Driver/Src/stm32f7xx_hal_qspi.c ****           hqspi->TxXferCount = (data_size >> 1U);
 2115              		.loc 1 1311 43
 2116 009a BB68     		ldr	r3, [r7, #8]
 2117 009c 5A08     		lsrs	r2, r3, #1
 2118              		.loc 1 1311 30
 2119 009e 7B68     		ldr	r3, [r7, #4]
 2120 00a0 DA62     		str	r2, [r3, #44]
 2121 00a2 21E0     		b	.L105
 2122              	.L106:
1312:Drivers/STM32F7xx_HAL_Driver/Src/stm32f7xx_hal_qspi.c ****         }
1313:Drivers/STM32F7xx_HAL_Driver/Src/stm32f7xx_hal_qspi.c ****       }
1314:Drivers/STM32F7xx_HAL_Driver/Src/stm32f7xx_hal_qspi.c ****       else if (hqspi->hdma->Init.PeriphDataAlignment == DMA_PDATAALIGN_WORD)
 2123              		.loc 1 1314 21
 2124 00a4 7B68     		ldr	r3, [r7, #4]
 2125 00a6 DB6B     		ldr	r3, [r3, #60]
 2126              		.loc 1 1314 33
 2127 00a8 5B69     		ldr	r3, [r3, #20]
 2128              		.loc 1 1314 15
 2129 00aa B3F5805F 		cmp	r3, #4096
 2130 00ae 1BD1     		bne	.L105
1315:Drivers/STM32F7xx_HAL_Driver/Src/stm32f7xx_hal_qspi.c ****       {
1316:Drivers/STM32F7xx_HAL_Driver/Src/stm32f7xx_hal_qspi.c ****         if (((data_size % 4U) != 0U) || ((hqspi->Init.FifoThreshold % 4U) != 0U))
 2131              		.loc 1 1316 25
 2132 00b0 BB68     		ldr	r3, [r7, #8]
 2133 00b2 03F00303 		and	r3, r3, #3
 2134              		.loc 1 1316 12
 2135 00b6 002B     		cmp	r3, #0
 2136 00b8 05D1     		bne	.L110
 2137              		.loc 1 1316 54 discriminator 1
 2138 00ba 7B68     		ldr	r3, [r7, #4]
 2139 00bc 9B68     		ldr	r3, [r3, #8]
 2140              		.loc 1 1316 69 discriminator 1
 2141 00be 03F00303 		and	r3, r3, #3
 2142              		.loc 1 1316 38 discriminator 1
 2143 00c2 002B     		cmp	r3, #0
 2144 00c4 0CD0     		beq	.L111
 2145              	.L110:
1317:Drivers/STM32F7xx_HAL_Driver/Src/stm32f7xx_hal_qspi.c ****         {
1318:Drivers/STM32F7xx_HAL_Driver/Src/stm32f7xx_hal_qspi.c ****           /* The number of data or the fifo threshold is not aligned on word
1319:Drivers/STM32F7xx_HAL_Driver/Src/stm32f7xx_hal_qspi.c ****           => no transfer possible with DMA peripheral access configured as word */
1320:Drivers/STM32F7xx_HAL_Driver/Src/stm32f7xx_hal_qspi.c ****           hqspi->ErrorCode |= HAL_QSPI_ERROR_INVALID_PARAM;
 2146              		.loc 1 1320 28
 2147 00c6 7B68     		ldr	r3, [r7, #4]
 2148 00c8 5B6C     		ldr	r3, [r3, #68]
 2149 00ca 43F00802 		orr	r2, r3, #8
 2150 00ce 7B68     		ldr	r3, [r7, #4]
 2151 00d0 5A64     		str	r2, [r3, #68]
1321:Drivers/STM32F7xx_HAL_Driver/Src/stm32f7xx_hal_qspi.c ****           status = HAL_ERROR;
 2152              		.loc 1 1321 18
 2153 00d2 0123     		movs	r3, #1
 2154 00d4 FB73     		strb	r3, [r7, #15]
1322:Drivers/STM32F7xx_HAL_Driver/Src/stm32f7xx_hal_qspi.c **** 
1323:Drivers/STM32F7xx_HAL_Driver/Src/stm32f7xx_hal_qspi.c ****           /* Process unlocked */
1324:Drivers/STM32F7xx_HAL_Driver/Src/stm32f7xx_hal_qspi.c ****           __HAL_UNLOCK(hqspi);
 2155              		.loc 1 1324 11
ARM GAS  C:\Users\jisu8\AppData\Local\Temp\ccA6Ygqq.s 			page 62


 2156 00d6 7B68     		ldr	r3, [r7, #4]
 2157 00d8 0022     		movs	r2, #0
 2158 00da 83F84020 		strb	r2, [r3, #64]
 2159 00de 03E0     		b	.L105
 2160              	.L111:
1325:Drivers/STM32F7xx_HAL_Driver/Src/stm32f7xx_hal_qspi.c ****         }
1326:Drivers/STM32F7xx_HAL_Driver/Src/stm32f7xx_hal_qspi.c ****         else
1327:Drivers/STM32F7xx_HAL_Driver/Src/stm32f7xx_hal_qspi.c ****         {
1328:Drivers/STM32F7xx_HAL_Driver/Src/stm32f7xx_hal_qspi.c ****           hqspi->TxXferCount = (data_size >> 2U);
 2161              		.loc 1 1328 43
 2162 00e0 BB68     		ldr	r3, [r7, #8]
 2163 00e2 9A08     		lsrs	r2, r3, #2
 2164              		.loc 1 1328 30
 2165 00e4 7B68     		ldr	r3, [r7, #4]
 2166 00e6 DA62     		str	r2, [r3, #44]
 2167              	.L105:
1329:Drivers/STM32F7xx_HAL_Driver/Src/stm32f7xx_hal_qspi.c ****         }
1330:Drivers/STM32F7xx_HAL_Driver/Src/stm32f7xx_hal_qspi.c ****       }
1331:Drivers/STM32F7xx_HAL_Driver/Src/stm32f7xx_hal_qspi.c ****       else
1332:Drivers/STM32F7xx_HAL_Driver/Src/stm32f7xx_hal_qspi.c ****       {
1333:Drivers/STM32F7xx_HAL_Driver/Src/stm32f7xx_hal_qspi.c ****         /* Nothing to do */
1334:Drivers/STM32F7xx_HAL_Driver/Src/stm32f7xx_hal_qspi.c ****       }
1335:Drivers/STM32F7xx_HAL_Driver/Src/stm32f7xx_hal_qspi.c **** 
1336:Drivers/STM32F7xx_HAL_Driver/Src/stm32f7xx_hal_qspi.c ****       if (status == HAL_OK)
 2168              		.loc 1 1336 10
 2169 00e8 FB7B     		ldrb	r3, [r7, #15]	@ zero_extendqisi2
 2170 00ea 002B     		cmp	r3, #0
 2171 00ec 7FD1     		bne	.L113
1337:Drivers/STM32F7xx_HAL_Driver/Src/stm32f7xx_hal_qspi.c ****       {
1338:Drivers/STM32F7xx_HAL_Driver/Src/stm32f7xx_hal_qspi.c ****         /* Update state */
1339:Drivers/STM32F7xx_HAL_Driver/Src/stm32f7xx_hal_qspi.c ****         hqspi->State = HAL_QSPI_STATE_BUSY_INDIRECT_TX;
 2172              		.loc 1 1339 22
 2173 00ee 7B68     		ldr	r3, [r7, #4]
 2174 00f0 1222     		movs	r2, #18
 2175 00f2 83F84120 		strb	r2, [r3, #65]
1340:Drivers/STM32F7xx_HAL_Driver/Src/stm32f7xx_hal_qspi.c **** 
1341:Drivers/STM32F7xx_HAL_Driver/Src/stm32f7xx_hal_qspi.c ****         /* Clear interrupt */
1342:Drivers/STM32F7xx_HAL_Driver/Src/stm32f7xx_hal_qspi.c ****         __HAL_QSPI_CLEAR_FLAG(hqspi, (QSPI_FLAG_TE | QSPI_FLAG_TC));
 2176              		.loc 1 1342 9
 2177 00f6 7B68     		ldr	r3, [r7, #4]
 2178 00f8 1B68     		ldr	r3, [r3]
 2179 00fa 0322     		movs	r2, #3
 2180 00fc DA60     		str	r2, [r3, #12]
1343:Drivers/STM32F7xx_HAL_Driver/Src/stm32f7xx_hal_qspi.c **** 
1344:Drivers/STM32F7xx_HAL_Driver/Src/stm32f7xx_hal_qspi.c ****         /* Configure size and pointer of the handle */
1345:Drivers/STM32F7xx_HAL_Driver/Src/stm32f7xx_hal_qspi.c ****         hqspi->TxXferSize = hqspi->TxXferCount;
 2181              		.loc 1 1345 34
 2182 00fe 7B68     		ldr	r3, [r7, #4]
 2183 0100 DA6A     		ldr	r2, [r3, #44]
 2184              		.loc 1 1345 27
 2185 0102 7B68     		ldr	r3, [r7, #4]
 2186 0104 9A62     		str	r2, [r3, #40]
1346:Drivers/STM32F7xx_HAL_Driver/Src/stm32f7xx_hal_qspi.c ****         hqspi->pTxBuffPtr = pData;
 2187              		.loc 1 1346 27
 2188 0106 7B68     		ldr	r3, [r7, #4]
 2189 0108 3A68     		ldr	r2, [r7]
 2190 010a 5A62     		str	r2, [r3, #36]
ARM GAS  C:\Users\jisu8\AppData\Local\Temp\ccA6Ygqq.s 			page 63


1347:Drivers/STM32F7xx_HAL_Driver/Src/stm32f7xx_hal_qspi.c **** 
1348:Drivers/STM32F7xx_HAL_Driver/Src/stm32f7xx_hal_qspi.c ****         /* Configure QSPI: CCR register with functional mode as indirect write */
1349:Drivers/STM32F7xx_HAL_Driver/Src/stm32f7xx_hal_qspi.c ****         MODIFY_REG(hqspi->Instance->CCR, QUADSPI_CCR_FMODE, QSPI_FUNCTIONAL_MODE_INDIRECT_WRITE);
 2191              		.loc 1 1349 9
 2192 010c 7B68     		ldr	r3, [r7, #4]
 2193 010e 1B68     		ldr	r3, [r3]
 2194 0110 5A69     		ldr	r2, [r3, #20]
 2195 0112 7B68     		ldr	r3, [r7, #4]
 2196 0114 1B68     		ldr	r3, [r3]
 2197 0116 22F04062 		bic	r2, r2, #201326592
 2198 011a 5A61     		str	r2, [r3, #20]
1350:Drivers/STM32F7xx_HAL_Driver/Src/stm32f7xx_hal_qspi.c **** 
1351:Drivers/STM32F7xx_HAL_Driver/Src/stm32f7xx_hal_qspi.c ****         /* Set the QSPI DMA transfer complete callback */
1352:Drivers/STM32F7xx_HAL_Driver/Src/stm32f7xx_hal_qspi.c ****         hqspi->hdma->XferCpltCallback = QSPI_DMATxCplt;
 2199              		.loc 1 1352 14
 2200 011c 7B68     		ldr	r3, [r7, #4]
 2201 011e DB6B     		ldr	r3, [r3, #60]
 2202              		.loc 1 1352 39
 2203 0120 354A     		ldr	r2, .L115
 2204 0122 DA63     		str	r2, [r3, #60]
1353:Drivers/STM32F7xx_HAL_Driver/Src/stm32f7xx_hal_qspi.c **** 
1354:Drivers/STM32F7xx_HAL_Driver/Src/stm32f7xx_hal_qspi.c ****         /* Set the QSPI DMA Half transfer complete callback */
1355:Drivers/STM32F7xx_HAL_Driver/Src/stm32f7xx_hal_qspi.c ****         hqspi->hdma->XferHalfCpltCallback = QSPI_DMATxHalfCplt;
 2205              		.loc 1 1355 14
 2206 0124 7B68     		ldr	r3, [r7, #4]
 2207 0126 DB6B     		ldr	r3, [r3, #60]
 2208              		.loc 1 1355 43
 2209 0128 344A     		ldr	r2, .L115+4
 2210 012a 1A64     		str	r2, [r3, #64]
1356:Drivers/STM32F7xx_HAL_Driver/Src/stm32f7xx_hal_qspi.c **** 
1357:Drivers/STM32F7xx_HAL_Driver/Src/stm32f7xx_hal_qspi.c ****         /* Set the DMA error callback */
1358:Drivers/STM32F7xx_HAL_Driver/Src/stm32f7xx_hal_qspi.c ****         hqspi->hdma->XferErrorCallback = QSPI_DMAError;
 2211              		.loc 1 1358 14
 2212 012c 7B68     		ldr	r3, [r7, #4]
 2213 012e DB6B     		ldr	r3, [r3, #60]
 2214              		.loc 1 1358 40
 2215 0130 334A     		ldr	r2, .L115+8
 2216 0132 DA64     		str	r2, [r3, #76]
1359:Drivers/STM32F7xx_HAL_Driver/Src/stm32f7xx_hal_qspi.c **** 
1360:Drivers/STM32F7xx_HAL_Driver/Src/stm32f7xx_hal_qspi.c ****         /* Clear the DMA abort callback */
1361:Drivers/STM32F7xx_HAL_Driver/Src/stm32f7xx_hal_qspi.c ****         hqspi->hdma->XferAbortCallback = NULL;
 2217              		.loc 1 1361 14
 2218 0134 7B68     		ldr	r3, [r7, #4]
 2219 0136 DB6B     		ldr	r3, [r3, #60]
 2220              		.loc 1 1361 40
 2221 0138 0022     		movs	r2, #0
 2222 013a 1A65     		str	r2, [r3, #80]
1362:Drivers/STM32F7xx_HAL_Driver/Src/stm32f7xx_hal_qspi.c **** 
1363:Drivers/STM32F7xx_HAL_Driver/Src/stm32f7xx_hal_qspi.c ****         /* Configure the direction of the DMA */
1364:Drivers/STM32F7xx_HAL_Driver/Src/stm32f7xx_hal_qspi.c ****         hqspi->hdma->Init.Direction = DMA_MEMORY_TO_PERIPH;
 2223              		.loc 1 1364 14
 2224 013c 7B68     		ldr	r3, [r7, #4]
 2225 013e DB6B     		ldr	r3, [r3, #60]
 2226              		.loc 1 1364 37
 2227 0140 4022     		movs	r2, #64
 2228 0142 9A60     		str	r2, [r3, #8]
1365:Drivers/STM32F7xx_HAL_Driver/Src/stm32f7xx_hal_qspi.c ****         MODIFY_REG(hqspi->hdma->Instance->CR, DMA_SxCR_DIR, hqspi->hdma->Init.Direction);
ARM GAS  C:\Users\jisu8\AppData\Local\Temp\ccA6Ygqq.s 			page 64


 2229              		.loc 1 1365 9
 2230 0144 7B68     		ldr	r3, [r7, #4]
 2231 0146 DB6B     		ldr	r3, [r3, #60]
 2232 0148 1B68     		ldr	r3, [r3]
 2233 014a 1B68     		ldr	r3, [r3]
 2234 014c 23F0C001 		bic	r1, r3, #192
 2235 0150 7B68     		ldr	r3, [r7, #4]
 2236 0152 DB6B     		ldr	r3, [r3, #60]
 2237 0154 9A68     		ldr	r2, [r3, #8]
 2238 0156 7B68     		ldr	r3, [r7, #4]
 2239 0158 DB6B     		ldr	r3, [r3, #60]
 2240 015a 1B68     		ldr	r3, [r3]
 2241 015c 0A43     		orrs	r2, r2, r1
 2242 015e 1A60     		str	r2, [r3]
1366:Drivers/STM32F7xx_HAL_Driver/Src/stm32f7xx_hal_qspi.c **** 
1367:Drivers/STM32F7xx_HAL_Driver/Src/stm32f7xx_hal_qspi.c ****         /* Enable the QSPI transmit DMA Channel */
1368:Drivers/STM32F7xx_HAL_Driver/Src/stm32f7xx_hal_qspi.c ****         if (HAL_DMA_Start_IT(hqspi->hdma, (uint32_t)pData, (uint32_t)&hqspi->Instance->DR, hqspi->T
 2243              		.loc 1 1368 13
 2244 0160 7B68     		ldr	r3, [r7, #4]
 2245 0162 D86B     		ldr	r0, [r3, #60]
 2246 0164 3968     		ldr	r1, [r7]
 2247              		.loc 1 1368 76
 2248 0166 7B68     		ldr	r3, [r7, #4]
 2249 0168 1B68     		ldr	r3, [r3]
 2250              		.loc 1 1368 70
 2251 016a 2033     		adds	r3, r3, #32
 2252              		.loc 1 1368 13
 2253 016c 1A46     		mov	r2, r3
 2254 016e 7B68     		ldr	r3, [r7, #4]
 2255 0170 9B6A     		ldr	r3, [r3, #40]
 2256 0172 FFF7FEFF 		bl	HAL_DMA_Start_IT
 2257 0176 0346     		mov	r3, r0
 2258              		.loc 1 1368 12
 2259 0178 002B     		cmp	r3, #0
 2260 017a 14D1     		bne	.L114
1369:Drivers/STM32F7xx_HAL_Driver/Src/stm32f7xx_hal_qspi.c ****         {
1370:Drivers/STM32F7xx_HAL_Driver/Src/stm32f7xx_hal_qspi.c ****           /* Process unlocked */
1371:Drivers/STM32F7xx_HAL_Driver/Src/stm32f7xx_hal_qspi.c ****           __HAL_UNLOCK(hqspi);
 2261              		.loc 1 1371 11
 2262 017c 7B68     		ldr	r3, [r7, #4]
 2263 017e 0022     		movs	r2, #0
 2264 0180 83F84020 		strb	r2, [r3, #64]
1372:Drivers/STM32F7xx_HAL_Driver/Src/stm32f7xx_hal_qspi.c **** 
1373:Drivers/STM32F7xx_HAL_Driver/Src/stm32f7xx_hal_qspi.c ****           /* Enable the QSPI transfer error Interrupt */
1374:Drivers/STM32F7xx_HAL_Driver/Src/stm32f7xx_hal_qspi.c ****           __HAL_QSPI_ENABLE_IT(hqspi, QSPI_IT_TE);
 2265              		.loc 1 1374 11
 2266 0184 7B68     		ldr	r3, [r7, #4]
 2267 0186 1B68     		ldr	r3, [r3]
 2268 0188 1A68     		ldr	r2, [r3]
 2269 018a 7B68     		ldr	r3, [r7, #4]
 2270 018c 1B68     		ldr	r3, [r3]
 2271 018e 42F48032 		orr	r2, r2, #65536
 2272 0192 1A60     		str	r2, [r3]
1375:Drivers/STM32F7xx_HAL_Driver/Src/stm32f7xx_hal_qspi.c **** 
1376:Drivers/STM32F7xx_HAL_Driver/Src/stm32f7xx_hal_qspi.c ****           /* Enable the DMA transfer by setting the DMAEN bit in the QSPI CR register */
1377:Drivers/STM32F7xx_HAL_Driver/Src/stm32f7xx_hal_qspi.c ****           SET_BIT(hqspi->Instance->CR, QUADSPI_CR_DMAEN);
 2273              		.loc 1 1377 11
ARM GAS  C:\Users\jisu8\AppData\Local\Temp\ccA6Ygqq.s 			page 65


 2274 0194 7B68     		ldr	r3, [r7, #4]
 2275 0196 1B68     		ldr	r3, [r3]
 2276 0198 1A68     		ldr	r2, [r3]
 2277 019a 7B68     		ldr	r3, [r7, #4]
 2278 019c 1B68     		ldr	r3, [r3]
 2279 019e 42F00402 		orr	r2, r2, #4
 2280 01a2 1A60     		str	r2, [r3]
 2281 01a4 23E0     		b	.L113
 2282              	.L114:
1378:Drivers/STM32F7xx_HAL_Driver/Src/stm32f7xx_hal_qspi.c ****         }
1379:Drivers/STM32F7xx_HAL_Driver/Src/stm32f7xx_hal_qspi.c ****         else
1380:Drivers/STM32F7xx_HAL_Driver/Src/stm32f7xx_hal_qspi.c ****         {
1381:Drivers/STM32F7xx_HAL_Driver/Src/stm32f7xx_hal_qspi.c ****           status = HAL_ERROR;
 2283              		.loc 1 1381 18
 2284 01a6 0123     		movs	r3, #1
 2285 01a8 FB73     		strb	r3, [r7, #15]
1382:Drivers/STM32F7xx_HAL_Driver/Src/stm32f7xx_hal_qspi.c ****           hqspi->ErrorCode |= HAL_QSPI_ERROR_DMA;
 2286              		.loc 1 1382 28
 2287 01aa 7B68     		ldr	r3, [r7, #4]
 2288 01ac 5B6C     		ldr	r3, [r3, #68]
 2289 01ae 43F00402 		orr	r2, r3, #4
 2290 01b2 7B68     		ldr	r3, [r7, #4]
 2291 01b4 5A64     		str	r2, [r3, #68]
1383:Drivers/STM32F7xx_HAL_Driver/Src/stm32f7xx_hal_qspi.c ****           hqspi->State = HAL_QSPI_STATE_READY;
 2292              		.loc 1 1383 24
 2293 01b6 7B68     		ldr	r3, [r7, #4]
 2294 01b8 0122     		movs	r2, #1
 2295 01ba 83F84120 		strb	r2, [r3, #65]
1384:Drivers/STM32F7xx_HAL_Driver/Src/stm32f7xx_hal_qspi.c **** 
1385:Drivers/STM32F7xx_HAL_Driver/Src/stm32f7xx_hal_qspi.c ****           /* Process unlocked */
1386:Drivers/STM32F7xx_HAL_Driver/Src/stm32f7xx_hal_qspi.c ****           __HAL_UNLOCK(hqspi);
 2296              		.loc 1 1386 11
 2297 01be 7B68     		ldr	r3, [r7, #4]
 2298 01c0 0022     		movs	r2, #0
 2299 01c2 83F84020 		strb	r2, [r3, #64]
 2300 01c6 12E0     		b	.L113
 2301              	.L103:
1387:Drivers/STM32F7xx_HAL_Driver/Src/stm32f7xx_hal_qspi.c ****         }
1388:Drivers/STM32F7xx_HAL_Driver/Src/stm32f7xx_hal_qspi.c ****      }
1389:Drivers/STM32F7xx_HAL_Driver/Src/stm32f7xx_hal_qspi.c ****     }
1390:Drivers/STM32F7xx_HAL_Driver/Src/stm32f7xx_hal_qspi.c ****     else
1391:Drivers/STM32F7xx_HAL_Driver/Src/stm32f7xx_hal_qspi.c ****     {
1392:Drivers/STM32F7xx_HAL_Driver/Src/stm32f7xx_hal_qspi.c ****       hqspi->ErrorCode |= HAL_QSPI_ERROR_INVALID_PARAM;
 2302              		.loc 1 1392 24
 2303 01c8 7B68     		ldr	r3, [r7, #4]
 2304 01ca 5B6C     		ldr	r3, [r3, #68]
 2305 01cc 43F00802 		orr	r2, r3, #8
 2306 01d0 7B68     		ldr	r3, [r7, #4]
 2307 01d2 5A64     		str	r2, [r3, #68]
1393:Drivers/STM32F7xx_HAL_Driver/Src/stm32f7xx_hal_qspi.c ****       status = HAL_ERROR;
 2308              		.loc 1 1393 14
 2309 01d4 0123     		movs	r3, #1
 2310 01d6 FB73     		strb	r3, [r7, #15]
1394:Drivers/STM32F7xx_HAL_Driver/Src/stm32f7xx_hal_qspi.c **** 
1395:Drivers/STM32F7xx_HAL_Driver/Src/stm32f7xx_hal_qspi.c ****       /* Process unlocked */
1396:Drivers/STM32F7xx_HAL_Driver/Src/stm32f7xx_hal_qspi.c ****       __HAL_UNLOCK(hqspi);
 2311              		.loc 1 1396 7
ARM GAS  C:\Users\jisu8\AppData\Local\Temp\ccA6Ygqq.s 			page 66


 2312 01d8 7B68     		ldr	r3, [r7, #4]
 2313 01da 0022     		movs	r2, #0
 2314 01dc 83F84020 		strb	r2, [r3, #64]
 2315 01e0 05E0     		b	.L113
 2316              	.L102:
1397:Drivers/STM32F7xx_HAL_Driver/Src/stm32f7xx_hal_qspi.c ****     }
1398:Drivers/STM32F7xx_HAL_Driver/Src/stm32f7xx_hal_qspi.c ****   }
1399:Drivers/STM32F7xx_HAL_Driver/Src/stm32f7xx_hal_qspi.c ****   else
1400:Drivers/STM32F7xx_HAL_Driver/Src/stm32f7xx_hal_qspi.c ****   {
1401:Drivers/STM32F7xx_HAL_Driver/Src/stm32f7xx_hal_qspi.c ****     status = HAL_BUSY;
 2317              		.loc 1 1401 12
 2318 01e2 0223     		movs	r3, #2
 2319 01e4 FB73     		strb	r3, [r7, #15]
1402:Drivers/STM32F7xx_HAL_Driver/Src/stm32f7xx_hal_qspi.c **** 
1403:Drivers/STM32F7xx_HAL_Driver/Src/stm32f7xx_hal_qspi.c ****     /* Process unlocked */
1404:Drivers/STM32F7xx_HAL_Driver/Src/stm32f7xx_hal_qspi.c ****     __HAL_UNLOCK(hqspi);
 2320              		.loc 1 1404 5
 2321 01e6 7B68     		ldr	r3, [r7, #4]
 2322 01e8 0022     		movs	r2, #0
 2323 01ea 83F84020 		strb	r2, [r3, #64]
 2324              	.L113:
1405:Drivers/STM32F7xx_HAL_Driver/Src/stm32f7xx_hal_qspi.c ****   }
1406:Drivers/STM32F7xx_HAL_Driver/Src/stm32f7xx_hal_qspi.c **** 
1407:Drivers/STM32F7xx_HAL_Driver/Src/stm32f7xx_hal_qspi.c ****   return status;
 2325              		.loc 1 1407 10
 2326 01ee FB7B     		ldrb	r3, [r7, #15]	@ zero_extendqisi2
 2327              	.L101:
1408:Drivers/STM32F7xx_HAL_Driver/Src/stm32f7xx_hal_qspi.c **** }
 2328              		.loc 1 1408 1
 2329 01f0 1846     		mov	r0, r3
 2330 01f2 1037     		adds	r7, r7, #16
 2331              	.LCFI62:
 2332              		.cfi_def_cfa_offset 8
 2333 01f4 BD46     		mov	sp, r7
 2334              	.LCFI63:
 2335              		.cfi_def_cfa_register 13
 2336              		@ sp needed
 2337 01f6 80BD     		pop	{r7, pc}
 2338              	.L116:
 2339              		.align	2
 2340              	.L115:
 2341 01f8 00000000 		.word	QSPI_DMATxCplt
 2342 01fc 00000000 		.word	QSPI_DMATxHalfCplt
 2343 0200 00000000 		.word	QSPI_DMAError
 2344              		.cfi_endproc
 2345              	.LFE152:
 2347              		.section	.text.HAL_QSPI_Receive_DMA,"ax",%progbits
 2348              		.align	1
 2349              		.global	HAL_QSPI_Receive_DMA
 2350              		.syntax unified
 2351              		.thumb
 2352              		.thumb_func
 2354              	HAL_QSPI_Receive_DMA:
 2355              	.LFB153:
1409:Drivers/STM32F7xx_HAL_Driver/Src/stm32f7xx_hal_qspi.c **** 
1410:Drivers/STM32F7xx_HAL_Driver/Src/stm32f7xx_hal_qspi.c **** /**
1411:Drivers/STM32F7xx_HAL_Driver/Src/stm32f7xx_hal_qspi.c ****   * @brief  Receive an amount of data in non-blocking mode with DMA.
ARM GAS  C:\Users\jisu8\AppData\Local\Temp\ccA6Ygqq.s 			page 67


1412:Drivers/STM32F7xx_HAL_Driver/Src/stm32f7xx_hal_qspi.c ****   * @param  hqspi QSPI handle
1413:Drivers/STM32F7xx_HAL_Driver/Src/stm32f7xx_hal_qspi.c ****   * @param  pData pointer to data buffer.
1414:Drivers/STM32F7xx_HAL_Driver/Src/stm32f7xx_hal_qspi.c ****   * @note   This function is used only in Indirect Read Mode
1415:Drivers/STM32F7xx_HAL_Driver/Src/stm32f7xx_hal_qspi.c ****   * @note   If DMA peripheral access is configured as halfword, the number
1416:Drivers/STM32F7xx_HAL_Driver/Src/stm32f7xx_hal_qspi.c ****   *         of data and the fifo threshold should be aligned on halfword
1417:Drivers/STM32F7xx_HAL_Driver/Src/stm32f7xx_hal_qspi.c ****   * @note   If DMA peripheral access is configured as word, the number
1418:Drivers/STM32F7xx_HAL_Driver/Src/stm32f7xx_hal_qspi.c ****   *         of data and the fifo threshold should be aligned on word
1419:Drivers/STM32F7xx_HAL_Driver/Src/stm32f7xx_hal_qspi.c ****   * @retval HAL status
1420:Drivers/STM32F7xx_HAL_Driver/Src/stm32f7xx_hal_qspi.c ****   */
1421:Drivers/STM32F7xx_HAL_Driver/Src/stm32f7xx_hal_qspi.c **** HAL_StatusTypeDef HAL_QSPI_Receive_DMA(QSPI_HandleTypeDef *hqspi, uint8_t *pData)
1422:Drivers/STM32F7xx_HAL_Driver/Src/stm32f7xx_hal_qspi.c **** {
 2356              		.loc 1 1422 1
 2357              		.cfi_startproc
 2358              		@ args = 0, pretend = 0, frame = 24
 2359              		@ frame_needed = 1, uses_anonymous_args = 0
 2360 0000 80B5     		push	{r7, lr}
 2361              	.LCFI64:
 2362              		.cfi_def_cfa_offset 8
 2363              		.cfi_offset 7, -8
 2364              		.cfi_offset 14, -4
 2365 0002 86B0     		sub	sp, sp, #24
 2366              	.LCFI65:
 2367              		.cfi_def_cfa_offset 32
 2368 0004 00AF     		add	r7, sp, #0
 2369              	.LCFI66:
 2370              		.cfi_def_cfa_register 7
 2371 0006 7860     		str	r0, [r7, #4]
 2372 0008 3960     		str	r1, [r7]
1423:Drivers/STM32F7xx_HAL_Driver/Src/stm32f7xx_hal_qspi.c ****   HAL_StatusTypeDef status = HAL_OK;
 2373              		.loc 1 1423 21
 2374 000a 0023     		movs	r3, #0
 2375 000c FB75     		strb	r3, [r7, #23]
1424:Drivers/STM32F7xx_HAL_Driver/Src/stm32f7xx_hal_qspi.c ****   uint32_t addr_reg = READ_REG(hqspi->Instance->AR);
 2376              		.loc 1 1424 23
 2377 000e 7B68     		ldr	r3, [r7, #4]
 2378 0010 1B68     		ldr	r3, [r3]
 2379              		.loc 1 1424 12
 2380 0012 9B69     		ldr	r3, [r3, #24]
 2381 0014 3B61     		str	r3, [r7, #16]
1425:Drivers/STM32F7xx_HAL_Driver/Src/stm32f7xx_hal_qspi.c ****   uint32_t data_size = (READ_REG(hqspi->Instance->DLR) + 1U);
 2382              		.loc 1 1425 25
 2383 0016 7B68     		ldr	r3, [r7, #4]
 2384 0018 1B68     		ldr	r3, [r3]
 2385 001a 1B69     		ldr	r3, [r3, #16]
 2386              		.loc 1 1425 12
 2387 001c 0133     		adds	r3, r3, #1
 2388 001e FB60     		str	r3, [r7, #12]
1426:Drivers/STM32F7xx_HAL_Driver/Src/stm32f7xx_hal_qspi.c **** 
1427:Drivers/STM32F7xx_HAL_Driver/Src/stm32f7xx_hal_qspi.c ****   /* Process locked */
1428:Drivers/STM32F7xx_HAL_Driver/Src/stm32f7xx_hal_qspi.c ****   __HAL_LOCK(hqspi);
 2389              		.loc 1 1428 3
 2390 0020 7B68     		ldr	r3, [r7, #4]
 2391 0022 93F84030 		ldrb	r3, [r3, #64]
 2392 0026 DBB2     		uxtb	r3, r3
 2393 0028 012B     		cmp	r3, #1
 2394 002a 01D1     		bne	.L118
 2395              		.loc 1 1428 3 is_stmt 0 discriminator 1
ARM GAS  C:\Users\jisu8\AppData\Local\Temp\ccA6Ygqq.s 			page 68


 2396 002c 0223     		movs	r3, #2
 2397 002e EAE0     		b	.L119
 2398              	.L118:
 2399              		.loc 1 1428 3 discriminator 2
 2400 0030 7B68     		ldr	r3, [r7, #4]
 2401 0032 0122     		movs	r2, #1
 2402 0034 83F84020 		strb	r2, [r3, #64]
1429:Drivers/STM32F7xx_HAL_Driver/Src/stm32f7xx_hal_qspi.c **** 
1430:Drivers/STM32F7xx_HAL_Driver/Src/stm32f7xx_hal_qspi.c ****   if(hqspi->State == HAL_QSPI_STATE_READY)
 2403              		.loc 1 1430 11 is_stmt 1 discriminator 2
 2404 0038 7B68     		ldr	r3, [r7, #4]
 2405 003a 93F84130 		ldrb	r3, [r3, #65]
 2406 003e DBB2     		uxtb	r3, r3
 2407              		.loc 1 1430 5 discriminator 2
 2408 0040 012B     		cmp	r3, #1
 2409 0042 40F0D980 		bne	.L120
1431:Drivers/STM32F7xx_HAL_Driver/Src/stm32f7xx_hal_qspi.c ****   {
1432:Drivers/STM32F7xx_HAL_Driver/Src/stm32f7xx_hal_qspi.c ****     /* Clear the error code */
1433:Drivers/STM32F7xx_HAL_Driver/Src/stm32f7xx_hal_qspi.c ****     hqspi->ErrorCode = HAL_QSPI_ERROR_NONE;
 2410              		.loc 1 1433 22
 2411 0046 7B68     		ldr	r3, [r7, #4]
 2412 0048 0022     		movs	r2, #0
 2413 004a 5A64     		str	r2, [r3, #68]
1434:Drivers/STM32F7xx_HAL_Driver/Src/stm32f7xx_hal_qspi.c **** 
1435:Drivers/STM32F7xx_HAL_Driver/Src/stm32f7xx_hal_qspi.c ****     if(pData != NULL )
 2414              		.loc 1 1435 7
 2415 004c 3B68     		ldr	r3, [r7]
 2416 004e 002B     		cmp	r3, #0
 2417 0050 00F0C580 		beq	.L121
1436:Drivers/STM32F7xx_HAL_Driver/Src/stm32f7xx_hal_qspi.c ****     {
1437:Drivers/STM32F7xx_HAL_Driver/Src/stm32f7xx_hal_qspi.c ****       /* Configure counters of the handle */
1438:Drivers/STM32F7xx_HAL_Driver/Src/stm32f7xx_hal_qspi.c ****       if (hqspi->hdma->Init.PeriphDataAlignment == DMA_PDATAALIGN_BYTE)
 2418              		.loc 1 1438 16
 2419 0054 7B68     		ldr	r3, [r7, #4]
 2420 0056 DB6B     		ldr	r3, [r3, #60]
 2421              		.loc 1 1438 28
 2422 0058 5B69     		ldr	r3, [r3, #20]
 2423              		.loc 1 1438 10
 2424 005a 002B     		cmp	r3, #0
 2425 005c 03D1     		bne	.L122
1439:Drivers/STM32F7xx_HAL_Driver/Src/stm32f7xx_hal_qspi.c ****       {
1440:Drivers/STM32F7xx_HAL_Driver/Src/stm32f7xx_hal_qspi.c ****         hqspi->RxXferCount = data_size;
 2426              		.loc 1 1440 28
 2427 005e 7B68     		ldr	r3, [r7, #4]
 2428 0060 FA68     		ldr	r2, [r7, #12]
 2429 0062 9A63     		str	r2, [r3, #56]
 2430 0064 44E0     		b	.L123
 2431              	.L122:
1441:Drivers/STM32F7xx_HAL_Driver/Src/stm32f7xx_hal_qspi.c ****       }
1442:Drivers/STM32F7xx_HAL_Driver/Src/stm32f7xx_hal_qspi.c ****       else if (hqspi->hdma->Init.PeriphDataAlignment == DMA_PDATAALIGN_HALFWORD)
 2432              		.loc 1 1442 21
 2433 0066 7B68     		ldr	r3, [r7, #4]
 2434 0068 DB6B     		ldr	r3, [r3, #60]
 2435              		.loc 1 1442 33
 2436 006a 5B69     		ldr	r3, [r3, #20]
 2437              		.loc 1 1442 15
 2438 006c B3F5006F 		cmp	r3, #2048
ARM GAS  C:\Users\jisu8\AppData\Local\Temp\ccA6Ygqq.s 			page 69


 2439 0070 1CD1     		bne	.L124
1443:Drivers/STM32F7xx_HAL_Driver/Src/stm32f7xx_hal_qspi.c ****       {
1444:Drivers/STM32F7xx_HAL_Driver/Src/stm32f7xx_hal_qspi.c ****         if (((data_size % 2U) != 0U) || ((hqspi->Init.FifoThreshold % 2U) != 0U))
 2440              		.loc 1 1444 25
 2441 0072 FB68     		ldr	r3, [r7, #12]
 2442 0074 03F00103 		and	r3, r3, #1
 2443              		.loc 1 1444 12
 2444 0078 002B     		cmp	r3, #0
 2445 007a 05D1     		bne	.L125
 2446              		.loc 1 1444 54 discriminator 1
 2447 007c 7B68     		ldr	r3, [r7, #4]
 2448 007e 9B68     		ldr	r3, [r3, #8]
 2449              		.loc 1 1444 69 discriminator 1
 2450 0080 03F00103 		and	r3, r3, #1
 2451              		.loc 1 1444 38 discriminator 1
 2452 0084 002B     		cmp	r3, #0
 2453 0086 0CD0     		beq	.L126
 2454              	.L125:
1445:Drivers/STM32F7xx_HAL_Driver/Src/stm32f7xx_hal_qspi.c ****         {
1446:Drivers/STM32F7xx_HAL_Driver/Src/stm32f7xx_hal_qspi.c ****           /* The number of data or the fifo threshold is not aligned on halfword
1447:Drivers/STM32F7xx_HAL_Driver/Src/stm32f7xx_hal_qspi.c ****              => no transfer possible with DMA peripheral access configured as halfword */
1448:Drivers/STM32F7xx_HAL_Driver/Src/stm32f7xx_hal_qspi.c ****           hqspi->ErrorCode |= HAL_QSPI_ERROR_INVALID_PARAM;
 2455              		.loc 1 1448 28
 2456 0088 7B68     		ldr	r3, [r7, #4]
 2457 008a 5B6C     		ldr	r3, [r3, #68]
 2458 008c 43F00802 		orr	r2, r3, #8
 2459 0090 7B68     		ldr	r3, [r7, #4]
 2460 0092 5A64     		str	r2, [r3, #68]
1449:Drivers/STM32F7xx_HAL_Driver/Src/stm32f7xx_hal_qspi.c ****           status = HAL_ERROR;
 2461              		.loc 1 1449 18
 2462 0094 0123     		movs	r3, #1
 2463 0096 FB75     		strb	r3, [r7, #23]
1450:Drivers/STM32F7xx_HAL_Driver/Src/stm32f7xx_hal_qspi.c **** 
1451:Drivers/STM32F7xx_HAL_Driver/Src/stm32f7xx_hal_qspi.c ****           /* Process unlocked */
1452:Drivers/STM32F7xx_HAL_Driver/Src/stm32f7xx_hal_qspi.c ****           __HAL_UNLOCK(hqspi);
 2464              		.loc 1 1452 11
 2465 0098 7B68     		ldr	r3, [r7, #4]
 2466 009a 0022     		movs	r2, #0
 2467 009c 83F84020 		strb	r2, [r3, #64]
 2468 00a0 26E0     		b	.L123
 2469              	.L126:
1453:Drivers/STM32F7xx_HAL_Driver/Src/stm32f7xx_hal_qspi.c ****         }
1454:Drivers/STM32F7xx_HAL_Driver/Src/stm32f7xx_hal_qspi.c ****         else
1455:Drivers/STM32F7xx_HAL_Driver/Src/stm32f7xx_hal_qspi.c ****         {
1456:Drivers/STM32F7xx_HAL_Driver/Src/stm32f7xx_hal_qspi.c ****           hqspi->RxXferCount = (data_size >> 1U);
 2470              		.loc 1 1456 43
 2471 00a2 FB68     		ldr	r3, [r7, #12]
 2472 00a4 5A08     		lsrs	r2, r3, #1
 2473              		.loc 1 1456 30
 2474 00a6 7B68     		ldr	r3, [r7, #4]
 2475 00a8 9A63     		str	r2, [r3, #56]
 2476 00aa 21E0     		b	.L123
 2477              	.L124:
1457:Drivers/STM32F7xx_HAL_Driver/Src/stm32f7xx_hal_qspi.c ****         }
1458:Drivers/STM32F7xx_HAL_Driver/Src/stm32f7xx_hal_qspi.c ****       }
1459:Drivers/STM32F7xx_HAL_Driver/Src/stm32f7xx_hal_qspi.c ****       else if (hqspi->hdma->Init.PeriphDataAlignment == DMA_PDATAALIGN_WORD)
 2478              		.loc 1 1459 21
ARM GAS  C:\Users\jisu8\AppData\Local\Temp\ccA6Ygqq.s 			page 70


 2479 00ac 7B68     		ldr	r3, [r7, #4]
 2480 00ae DB6B     		ldr	r3, [r3, #60]
 2481              		.loc 1 1459 33
 2482 00b0 5B69     		ldr	r3, [r3, #20]
 2483              		.loc 1 1459 15
 2484 00b2 B3F5805F 		cmp	r3, #4096
 2485 00b6 1BD1     		bne	.L123
1460:Drivers/STM32F7xx_HAL_Driver/Src/stm32f7xx_hal_qspi.c ****       {
1461:Drivers/STM32F7xx_HAL_Driver/Src/stm32f7xx_hal_qspi.c ****         if (((data_size % 4U) != 0U) || ((hqspi->Init.FifoThreshold % 4U) != 0U))
 2486              		.loc 1 1461 25
 2487 00b8 FB68     		ldr	r3, [r7, #12]
 2488 00ba 03F00303 		and	r3, r3, #3
 2489              		.loc 1 1461 12
 2490 00be 002B     		cmp	r3, #0
 2491 00c0 05D1     		bne	.L128
 2492              		.loc 1 1461 54 discriminator 1
 2493 00c2 7B68     		ldr	r3, [r7, #4]
 2494 00c4 9B68     		ldr	r3, [r3, #8]
 2495              		.loc 1 1461 69 discriminator 1
 2496 00c6 03F00303 		and	r3, r3, #3
 2497              		.loc 1 1461 38 discriminator 1
 2498 00ca 002B     		cmp	r3, #0
 2499 00cc 0CD0     		beq	.L129
 2500              	.L128:
1462:Drivers/STM32F7xx_HAL_Driver/Src/stm32f7xx_hal_qspi.c ****         {
1463:Drivers/STM32F7xx_HAL_Driver/Src/stm32f7xx_hal_qspi.c ****           /* The number of data or the fifo threshold is not aligned on word
1464:Drivers/STM32F7xx_HAL_Driver/Src/stm32f7xx_hal_qspi.c ****              => no transfer possible with DMA peripheral access configured as word */
1465:Drivers/STM32F7xx_HAL_Driver/Src/stm32f7xx_hal_qspi.c ****           hqspi->ErrorCode |= HAL_QSPI_ERROR_INVALID_PARAM;
 2501              		.loc 1 1465 28
 2502 00ce 7B68     		ldr	r3, [r7, #4]
 2503 00d0 5B6C     		ldr	r3, [r3, #68]
 2504 00d2 43F00802 		orr	r2, r3, #8
 2505 00d6 7B68     		ldr	r3, [r7, #4]
 2506 00d8 5A64     		str	r2, [r3, #68]
1466:Drivers/STM32F7xx_HAL_Driver/Src/stm32f7xx_hal_qspi.c ****           status = HAL_ERROR;
 2507              		.loc 1 1466 18
 2508 00da 0123     		movs	r3, #1
 2509 00dc FB75     		strb	r3, [r7, #23]
1467:Drivers/STM32F7xx_HAL_Driver/Src/stm32f7xx_hal_qspi.c **** 
1468:Drivers/STM32F7xx_HAL_Driver/Src/stm32f7xx_hal_qspi.c ****           /* Process unlocked */
1469:Drivers/STM32F7xx_HAL_Driver/Src/stm32f7xx_hal_qspi.c ****           __HAL_UNLOCK(hqspi);
 2510              		.loc 1 1469 11
 2511 00de 7B68     		ldr	r3, [r7, #4]
 2512 00e0 0022     		movs	r2, #0
 2513 00e2 83F84020 		strb	r2, [r3, #64]
 2514 00e6 03E0     		b	.L123
 2515              	.L129:
1470:Drivers/STM32F7xx_HAL_Driver/Src/stm32f7xx_hal_qspi.c ****         }
1471:Drivers/STM32F7xx_HAL_Driver/Src/stm32f7xx_hal_qspi.c ****         else
1472:Drivers/STM32F7xx_HAL_Driver/Src/stm32f7xx_hal_qspi.c ****         {
1473:Drivers/STM32F7xx_HAL_Driver/Src/stm32f7xx_hal_qspi.c ****           hqspi->RxXferCount = (data_size >> 2U);
 2516              		.loc 1 1473 43
 2517 00e8 FB68     		ldr	r3, [r7, #12]
 2518 00ea 9A08     		lsrs	r2, r3, #2
 2519              		.loc 1 1473 30
 2520 00ec 7B68     		ldr	r3, [r7, #4]
 2521 00ee 9A63     		str	r2, [r3, #56]
ARM GAS  C:\Users\jisu8\AppData\Local\Temp\ccA6Ygqq.s 			page 71


 2522              	.L123:
1474:Drivers/STM32F7xx_HAL_Driver/Src/stm32f7xx_hal_qspi.c ****         }
1475:Drivers/STM32F7xx_HAL_Driver/Src/stm32f7xx_hal_qspi.c ****       }
1476:Drivers/STM32F7xx_HAL_Driver/Src/stm32f7xx_hal_qspi.c ****       else
1477:Drivers/STM32F7xx_HAL_Driver/Src/stm32f7xx_hal_qspi.c ****       {
1478:Drivers/STM32F7xx_HAL_Driver/Src/stm32f7xx_hal_qspi.c ****         /* Nothing to do */
1479:Drivers/STM32F7xx_HAL_Driver/Src/stm32f7xx_hal_qspi.c ****       }
1480:Drivers/STM32F7xx_HAL_Driver/Src/stm32f7xx_hal_qspi.c **** 
1481:Drivers/STM32F7xx_HAL_Driver/Src/stm32f7xx_hal_qspi.c ****       if (status == HAL_OK)
 2523              		.loc 1 1481 10
 2524 00f0 FB7D     		ldrb	r3, [r7, #23]	@ zero_extendqisi2
 2525 00f2 002B     		cmp	r3, #0
 2526 00f4 40F08680 		bne	.L131
1482:Drivers/STM32F7xx_HAL_Driver/Src/stm32f7xx_hal_qspi.c ****       {
1483:Drivers/STM32F7xx_HAL_Driver/Src/stm32f7xx_hal_qspi.c ****         /* Update state */
1484:Drivers/STM32F7xx_HAL_Driver/Src/stm32f7xx_hal_qspi.c ****         hqspi->State = HAL_QSPI_STATE_BUSY_INDIRECT_RX;
 2527              		.loc 1 1484 22
 2528 00f8 7B68     		ldr	r3, [r7, #4]
 2529 00fa 2222     		movs	r2, #34
 2530 00fc 83F84120 		strb	r2, [r3, #65]
1485:Drivers/STM32F7xx_HAL_Driver/Src/stm32f7xx_hal_qspi.c **** 
1486:Drivers/STM32F7xx_HAL_Driver/Src/stm32f7xx_hal_qspi.c ****         /* Clear interrupt */
1487:Drivers/STM32F7xx_HAL_Driver/Src/stm32f7xx_hal_qspi.c ****         __HAL_QSPI_CLEAR_FLAG(hqspi, (QSPI_FLAG_TE | QSPI_FLAG_TC));
 2531              		.loc 1 1487 9
 2532 0100 7B68     		ldr	r3, [r7, #4]
 2533 0102 1B68     		ldr	r3, [r3]
 2534 0104 0322     		movs	r2, #3
 2535 0106 DA60     		str	r2, [r3, #12]
1488:Drivers/STM32F7xx_HAL_Driver/Src/stm32f7xx_hal_qspi.c **** 
1489:Drivers/STM32F7xx_HAL_Driver/Src/stm32f7xx_hal_qspi.c ****         /* Configure size and pointer of the handle */
1490:Drivers/STM32F7xx_HAL_Driver/Src/stm32f7xx_hal_qspi.c ****         hqspi->RxXferSize = hqspi->RxXferCount;
 2536              		.loc 1 1490 34
 2537 0108 7B68     		ldr	r3, [r7, #4]
 2538 010a 9A6B     		ldr	r2, [r3, #56]
 2539              		.loc 1 1490 27
 2540 010c 7B68     		ldr	r3, [r7, #4]
 2541 010e 5A63     		str	r2, [r3, #52]
1491:Drivers/STM32F7xx_HAL_Driver/Src/stm32f7xx_hal_qspi.c ****         hqspi->pRxBuffPtr = pData;
 2542              		.loc 1 1491 27
 2543 0110 7B68     		ldr	r3, [r7, #4]
 2544 0112 3A68     		ldr	r2, [r7]
 2545 0114 1A63     		str	r2, [r3, #48]
1492:Drivers/STM32F7xx_HAL_Driver/Src/stm32f7xx_hal_qspi.c **** 
1493:Drivers/STM32F7xx_HAL_Driver/Src/stm32f7xx_hal_qspi.c ****         /* Set the QSPI DMA transfer complete callback */
1494:Drivers/STM32F7xx_HAL_Driver/Src/stm32f7xx_hal_qspi.c ****         hqspi->hdma->XferCpltCallback = QSPI_DMARxCplt;
 2546              		.loc 1 1494 14
 2547 0116 7B68     		ldr	r3, [r7, #4]
 2548 0118 DB6B     		ldr	r3, [r3, #60]
 2549              		.loc 1 1494 39
 2550 011a 3D4A     		ldr	r2, .L133
 2551 011c DA63     		str	r2, [r3, #60]
1495:Drivers/STM32F7xx_HAL_Driver/Src/stm32f7xx_hal_qspi.c **** 
1496:Drivers/STM32F7xx_HAL_Driver/Src/stm32f7xx_hal_qspi.c ****         /* Set the QSPI DMA Half transfer complete callback */
1497:Drivers/STM32F7xx_HAL_Driver/Src/stm32f7xx_hal_qspi.c ****         hqspi->hdma->XferHalfCpltCallback = QSPI_DMARxHalfCplt;
 2552              		.loc 1 1497 14
 2553 011e 7B68     		ldr	r3, [r7, #4]
 2554 0120 DB6B     		ldr	r3, [r3, #60]
ARM GAS  C:\Users\jisu8\AppData\Local\Temp\ccA6Ygqq.s 			page 72


 2555              		.loc 1 1497 43
 2556 0122 3C4A     		ldr	r2, .L133+4
 2557 0124 1A64     		str	r2, [r3, #64]
1498:Drivers/STM32F7xx_HAL_Driver/Src/stm32f7xx_hal_qspi.c **** 
1499:Drivers/STM32F7xx_HAL_Driver/Src/stm32f7xx_hal_qspi.c ****         /* Set the DMA error callback */
1500:Drivers/STM32F7xx_HAL_Driver/Src/stm32f7xx_hal_qspi.c ****         hqspi->hdma->XferErrorCallback = QSPI_DMAError;
 2558              		.loc 1 1500 14
 2559 0126 7B68     		ldr	r3, [r7, #4]
 2560 0128 DB6B     		ldr	r3, [r3, #60]
 2561              		.loc 1 1500 40
 2562 012a 3B4A     		ldr	r2, .L133+8
 2563 012c DA64     		str	r2, [r3, #76]
1501:Drivers/STM32F7xx_HAL_Driver/Src/stm32f7xx_hal_qspi.c **** 
1502:Drivers/STM32F7xx_HAL_Driver/Src/stm32f7xx_hal_qspi.c ****         /* Clear the DMA abort callback */
1503:Drivers/STM32F7xx_HAL_Driver/Src/stm32f7xx_hal_qspi.c ****         hqspi->hdma->XferAbortCallback = NULL;
 2564              		.loc 1 1503 14
 2565 012e 7B68     		ldr	r3, [r7, #4]
 2566 0130 DB6B     		ldr	r3, [r3, #60]
 2567              		.loc 1 1503 40
 2568 0132 0022     		movs	r2, #0
 2569 0134 1A65     		str	r2, [r3, #80]
1504:Drivers/STM32F7xx_HAL_Driver/Src/stm32f7xx_hal_qspi.c **** 
1505:Drivers/STM32F7xx_HAL_Driver/Src/stm32f7xx_hal_qspi.c ****         /* Configure the direction of the DMA */
1506:Drivers/STM32F7xx_HAL_Driver/Src/stm32f7xx_hal_qspi.c ****         hqspi->hdma->Init.Direction = DMA_PERIPH_TO_MEMORY;
 2570              		.loc 1 1506 14
 2571 0136 7B68     		ldr	r3, [r7, #4]
 2572 0138 DB6B     		ldr	r3, [r3, #60]
 2573              		.loc 1 1506 37
 2574 013a 0022     		movs	r2, #0
 2575 013c 9A60     		str	r2, [r3, #8]
1507:Drivers/STM32F7xx_HAL_Driver/Src/stm32f7xx_hal_qspi.c ****         MODIFY_REG(hqspi->hdma->Instance->CR, DMA_SxCR_DIR, hqspi->hdma->Init.Direction);
 2576              		.loc 1 1507 9
 2577 013e 7B68     		ldr	r3, [r7, #4]
 2578 0140 DB6B     		ldr	r3, [r3, #60]
 2579 0142 1B68     		ldr	r3, [r3]
 2580 0144 1B68     		ldr	r3, [r3]
 2581 0146 23F0C001 		bic	r1, r3, #192
 2582 014a 7B68     		ldr	r3, [r7, #4]
 2583 014c DB6B     		ldr	r3, [r3, #60]
 2584 014e 9A68     		ldr	r2, [r3, #8]
 2585 0150 7B68     		ldr	r3, [r7, #4]
 2586 0152 DB6B     		ldr	r3, [r3, #60]
 2587 0154 1B68     		ldr	r3, [r3]
 2588 0156 0A43     		orrs	r2, r2, r1
 2589 0158 1A60     		str	r2, [r3]
1508:Drivers/STM32F7xx_HAL_Driver/Src/stm32f7xx_hal_qspi.c **** 
1509:Drivers/STM32F7xx_HAL_Driver/Src/stm32f7xx_hal_qspi.c ****         /* Enable the DMA Channel */
1510:Drivers/STM32F7xx_HAL_Driver/Src/stm32f7xx_hal_qspi.c ****         if (HAL_DMA_Start_IT(hqspi->hdma, (uint32_t)&hqspi->Instance->DR, (uint32_t)pData, hqspi->R
 2590              		.loc 1 1510 13
 2591 015a 7B68     		ldr	r3, [r7, #4]
 2592 015c D86B     		ldr	r0, [r3, #60]
 2593              		.loc 1 1510 59
 2594 015e 7B68     		ldr	r3, [r7, #4]
 2595 0160 1B68     		ldr	r3, [r3]
 2596              		.loc 1 1510 53
 2597 0162 2033     		adds	r3, r3, #32
 2598              		.loc 1 1510 13
ARM GAS  C:\Users\jisu8\AppData\Local\Temp\ccA6Ygqq.s 			page 73


 2599 0164 1946     		mov	r1, r3
 2600 0166 3A68     		ldr	r2, [r7]
 2601 0168 7B68     		ldr	r3, [r7, #4]
 2602 016a 5B6B     		ldr	r3, [r3, #52]
 2603 016c FFF7FEFF 		bl	HAL_DMA_Start_IT
 2604 0170 0346     		mov	r3, r0
 2605              		.loc 1 1510 12
 2606 0172 002B     		cmp	r3, #0
 2607 0174 22D1     		bne	.L132
1511:Drivers/STM32F7xx_HAL_Driver/Src/stm32f7xx_hal_qspi.c ****         {
1512:Drivers/STM32F7xx_HAL_Driver/Src/stm32f7xx_hal_qspi.c ****           /* Configure QSPI: CCR register with functional as indirect read */
1513:Drivers/STM32F7xx_HAL_Driver/Src/stm32f7xx_hal_qspi.c ****           MODIFY_REG(hqspi->Instance->CCR, QUADSPI_CCR_FMODE, QSPI_FUNCTIONAL_MODE_INDIRECT_READ);
 2608              		.loc 1 1513 11
 2609 0176 7B68     		ldr	r3, [r7, #4]
 2610 0178 1B68     		ldr	r3, [r3]
 2611 017a 5B69     		ldr	r3, [r3, #20]
 2612 017c 23F04062 		bic	r2, r3, #201326592
 2613 0180 7B68     		ldr	r3, [r7, #4]
