ARM GAS  C:\Users\jisu8\AppData\Local\Temp\ccA6Ygqq.s 			page 1


   1              		.cpu cortex-m7
   2              		.arch armv7e-m
   3              		.fpu fpv5-sp-d16
   4              		.eabi_attribute 27, 1
   5              		.eabi_attribute 28, 1
   6              		.eabi_attribute 20, 1
   7              		.eabi_attribute 21, 1
   8              		.eabi_attribute 23, 3
   9              		.eabi_attribute 24, 1
  10              		.eabi_attribute 25, 1
  11              		.eabi_attribute 26, 1
  12              		.eabi_attribute 30, 6
  13              		.eabi_attribute 34, 1
  14              		.eabi_attribute 18, 4
  15              		.file	"stm32f7xx_hal_qspi.c"
  16              		.text
  17              	.Ltext0:
  18              		.cfi_sections	.debug_frame
  19              		.section	.text.HAL_QSPI_Init,"ax",%progbits
  20              		.align	1
  21              		.global	HAL_QSPI_Init
  22              		.syntax unified
  23              		.thumb
  24              		.thumb_func
  26              	HAL_QSPI_Init:
  27              	.LFB141:
  28              		.file 1 "Drivers/STM32F7xx_HAL_Driver/Src/stm32f7xx_hal_qspi.c"
   1:Drivers/STM32F7xx_HAL_Driver/Src/stm32f7xx_hal_qspi.c **** /**
   2:Drivers/STM32F7xx_HAL_Driver/Src/stm32f7xx_hal_qspi.c ****   ******************************************************************************
   3:Drivers/STM32F7xx_HAL_Driver/Src/stm32f7xx_hal_qspi.c ****   * @file    stm32f7xx_hal_qspi.c
   4:Drivers/STM32F7xx_HAL_Driver/Src/stm32f7xx_hal_qspi.c ****   * @author  MCD Application Team
   5:Drivers/STM32F7xx_HAL_Driver/Src/stm32f7xx_hal_qspi.c ****   * @brief   QSPI HAL module driver.
   6:Drivers/STM32F7xx_HAL_Driver/Src/stm32f7xx_hal_qspi.c ****   *          This file provides firmware functions to manage the following
   7:Drivers/STM32F7xx_HAL_Driver/Src/stm32f7xx_hal_qspi.c ****   *          functionalities of the QuadSPI interface (QSPI).
   8:Drivers/STM32F7xx_HAL_Driver/Src/stm32f7xx_hal_qspi.c ****   *           + Initialization and de-initialization functions
   9:Drivers/STM32F7xx_HAL_Driver/Src/stm32f7xx_hal_qspi.c ****   *           + Indirect functional mode management
  10:Drivers/STM32F7xx_HAL_Driver/Src/stm32f7xx_hal_qspi.c ****   *           + Memory-mapped functional mode management
  11:Drivers/STM32F7xx_HAL_Driver/Src/stm32f7xx_hal_qspi.c ****   *           + Auto-polling functional mode management
  12:Drivers/STM32F7xx_HAL_Driver/Src/stm32f7xx_hal_qspi.c ****   *           + Interrupts and flags management
  13:Drivers/STM32F7xx_HAL_Driver/Src/stm32f7xx_hal_qspi.c ****   *           + DMA channel configuration for indirect functional mode
  14:Drivers/STM32F7xx_HAL_Driver/Src/stm32f7xx_hal_qspi.c ****   *           + Errors management and abort functionality
  15:Drivers/STM32F7xx_HAL_Driver/Src/stm32f7xx_hal_qspi.c ****   *
  16:Drivers/STM32F7xx_HAL_Driver/Src/stm32f7xx_hal_qspi.c ****   *
  17:Drivers/STM32F7xx_HAL_Driver/Src/stm32f7xx_hal_qspi.c ****   ******************************************************************************
  18:Drivers/STM32F7xx_HAL_Driver/Src/stm32f7xx_hal_qspi.c ****   * @attention
  19:Drivers/STM32F7xx_HAL_Driver/Src/stm32f7xx_hal_qspi.c ****   *
  20:Drivers/STM32F7xx_HAL_Driver/Src/stm32f7xx_hal_qspi.c ****   * Copyright (c) 2017 STMicroelectronics.
  21:Drivers/STM32F7xx_HAL_Driver/Src/stm32f7xx_hal_qspi.c ****   * All rights reserved.
  22:Drivers/STM32F7xx_HAL_Driver/Src/stm32f7xx_hal_qspi.c ****   *
  23:Drivers/STM32F7xx_HAL_Driver/Src/stm32f7xx_hal_qspi.c ****   * This software is licensed under terms that can be found in the LICENSE file
  24:Drivers/STM32F7xx_HAL_Driver/Src/stm32f7xx_hal_qspi.c ****   * in the root directory of this software component.
  25:Drivers/STM32F7xx_HAL_Driver/Src/stm32f7xx_hal_qspi.c ****   * If no LICENSE file comes with this software, it is provided AS-IS.
  26:Drivers/STM32F7xx_HAL_Driver/Src/stm32f7xx_hal_qspi.c ****   *
  27:Drivers/STM32F7xx_HAL_Driver/Src/stm32f7xx_hal_qspi.c ****   ******************************************************************************
  28:Drivers/STM32F7xx_HAL_Driver/Src/stm32f7xx_hal_qspi.c ****   @verbatim
  29:Drivers/STM32F7xx_HAL_Driver/Src/stm32f7xx_hal_qspi.c ****  ===============================================================================
  30:Drivers/STM32F7xx_HAL_Driver/Src/stm32f7xx_hal_qspi.c ****                         ##### How to use this driver #####
ARM GAS  C:\Users\jisu8\AppData\Local\Temp\ccA6Ygqq.s 			page 2


  31:Drivers/STM32F7xx_HAL_Driver/Src/stm32f7xx_hal_qspi.c ****  ===============================================================================
  32:Drivers/STM32F7xx_HAL_Driver/Src/stm32f7xx_hal_qspi.c ****   [..]
  33:Drivers/STM32F7xx_HAL_Driver/Src/stm32f7xx_hal_qspi.c ****     *** Initialization ***
  34:Drivers/STM32F7xx_HAL_Driver/Src/stm32f7xx_hal_qspi.c ****     ======================
  35:Drivers/STM32F7xx_HAL_Driver/Src/stm32f7xx_hal_qspi.c ****     [..]
  36:Drivers/STM32F7xx_HAL_Driver/Src/stm32f7xx_hal_qspi.c ****       (#) As prerequisite, fill in the HAL_QSPI_MspInit() :
  37:Drivers/STM32F7xx_HAL_Driver/Src/stm32f7xx_hal_qspi.c ****         (++) Enable QuadSPI clock interface with __HAL_RCC_QSPI_CLK_ENABLE().
  38:Drivers/STM32F7xx_HAL_Driver/Src/stm32f7xx_hal_qspi.c ****         (++) Reset QuadSPI Peripheral with __HAL_RCC_QSPI_FORCE_RESET() and __HAL_RCC_QSPI_RELEASE_
  39:Drivers/STM32F7xx_HAL_Driver/Src/stm32f7xx_hal_qspi.c ****         (++) Enable the clocks for the QuadSPI GPIOS with __HAL_RCC_GPIOx_CLK_ENABLE().
  40:Drivers/STM32F7xx_HAL_Driver/Src/stm32f7xx_hal_qspi.c ****         (++) Configure these QuadSPI pins in alternate mode using HAL_GPIO_Init().
  41:Drivers/STM32F7xx_HAL_Driver/Src/stm32f7xx_hal_qspi.c ****         (++) If interrupt mode is used, enable and configure QuadSPI global
  42:Drivers/STM32F7xx_HAL_Driver/Src/stm32f7xx_hal_qspi.c ****             interrupt with HAL_NVIC_SetPriority() and HAL_NVIC_EnableIRQ().
  43:Drivers/STM32F7xx_HAL_Driver/Src/stm32f7xx_hal_qspi.c ****         (++) If DMA mode is used, enable the clocks for the QuadSPI DMA channel
  44:Drivers/STM32F7xx_HAL_Driver/Src/stm32f7xx_hal_qspi.c ****             with __HAL_RCC_DMAx_CLK_ENABLE(), configure DMA with HAL_DMA_Init(),
  45:Drivers/STM32F7xx_HAL_Driver/Src/stm32f7xx_hal_qspi.c ****             link it with QuadSPI handle using __HAL_LINKDMA(), enable and configure
  46:Drivers/STM32F7xx_HAL_Driver/Src/stm32f7xx_hal_qspi.c ****             DMA channel global interrupt with HAL_NVIC_SetPriority() and HAL_NVIC_EnableIRQ().
  47:Drivers/STM32F7xx_HAL_Driver/Src/stm32f7xx_hal_qspi.c ****       (#) Configure the flash size, the clock prescaler, the fifo threshold, the
  48:Drivers/STM32F7xx_HAL_Driver/Src/stm32f7xx_hal_qspi.c ****           clock mode, the sample shifting and the CS high time using the HAL_QSPI_Init() function.
  49:Drivers/STM32F7xx_HAL_Driver/Src/stm32f7xx_hal_qspi.c **** 
  50:Drivers/STM32F7xx_HAL_Driver/Src/stm32f7xx_hal_qspi.c ****     *** Indirect functional mode ***
  51:Drivers/STM32F7xx_HAL_Driver/Src/stm32f7xx_hal_qspi.c ****     ================================
  52:Drivers/STM32F7xx_HAL_Driver/Src/stm32f7xx_hal_qspi.c ****     [..]
  53:Drivers/STM32F7xx_HAL_Driver/Src/stm32f7xx_hal_qspi.c ****       (#) Configure the command sequence using the HAL_QSPI_Command() or HAL_QSPI_Command_IT()
  54:Drivers/STM32F7xx_HAL_Driver/Src/stm32f7xx_hal_qspi.c ****           functions :
  55:Drivers/STM32F7xx_HAL_Driver/Src/stm32f7xx_hal_qspi.c ****          (++) Instruction phase : the mode used and if present the instruction opcode.
  56:Drivers/STM32F7xx_HAL_Driver/Src/stm32f7xx_hal_qspi.c ****          (++) Address phase : the mode used and if present the size and the address value.
  57:Drivers/STM32F7xx_HAL_Driver/Src/stm32f7xx_hal_qspi.c ****          (++) Alternate-bytes phase : the mode used and if present the size and the alternate
  58:Drivers/STM32F7xx_HAL_Driver/Src/stm32f7xx_hal_qspi.c ****              bytes values.
  59:Drivers/STM32F7xx_HAL_Driver/Src/stm32f7xx_hal_qspi.c ****          (++) Dummy-cycles phase : the number of dummy cycles (mode used is same as data phase).
  60:Drivers/STM32F7xx_HAL_Driver/Src/stm32f7xx_hal_qspi.c ****          (++) Data phase : the mode used and if present the number of bytes.
  61:Drivers/STM32F7xx_HAL_Driver/Src/stm32f7xx_hal_qspi.c ****          (++) Double Data Rate (DDR) mode : the activation (or not) of this mode and the delay
  62:Drivers/STM32F7xx_HAL_Driver/Src/stm32f7xx_hal_qspi.c ****              if activated.
  63:Drivers/STM32F7xx_HAL_Driver/Src/stm32f7xx_hal_qspi.c ****          (++) Sending Instruction Only Once (SIOO) mode : the activation (or not) of this mode.
  64:Drivers/STM32F7xx_HAL_Driver/Src/stm32f7xx_hal_qspi.c ****       (#) If no data is required for the command, it is sent directly to the memory :
  65:Drivers/STM32F7xx_HAL_Driver/Src/stm32f7xx_hal_qspi.c ****          (++) In polling mode, the output of the function is done when the transfer is complete.
  66:Drivers/STM32F7xx_HAL_Driver/Src/stm32f7xx_hal_qspi.c ****          (++) In interrupt mode, HAL_QSPI_CmdCpltCallback() will be called when the transfer is com
  67:Drivers/STM32F7xx_HAL_Driver/Src/stm32f7xx_hal_qspi.c ****       (#) For the indirect write mode, use HAL_QSPI_Transmit(), HAL_QSPI_Transmit_DMA() or
  68:Drivers/STM32F7xx_HAL_Driver/Src/stm32f7xx_hal_qspi.c ****           HAL_QSPI_Transmit_IT() after the command configuration :
  69:Drivers/STM32F7xx_HAL_Driver/Src/stm32f7xx_hal_qspi.c ****          (++) In polling mode, the output of the function is done when the transfer is complete.
  70:Drivers/STM32F7xx_HAL_Driver/Src/stm32f7xx_hal_qspi.c ****          (++) In interrupt mode, HAL_QSPI_FifoThresholdCallback() will be called when the fifo thre
  71:Drivers/STM32F7xx_HAL_Driver/Src/stm32f7xx_hal_qspi.c ****              is reached and HAL_QSPI_TxCpltCallback() will be called when the transfer is complete.
  72:Drivers/STM32F7xx_HAL_Driver/Src/stm32f7xx_hal_qspi.c ****          (++) In DMA mode, HAL_QSPI_TxHalfCpltCallback() will be called at the half transfer and
  73:Drivers/STM32F7xx_HAL_Driver/Src/stm32f7xx_hal_qspi.c ****              HAL_QSPI_TxCpltCallback() will be called when the transfer is complete.
  74:Drivers/STM32F7xx_HAL_Driver/Src/stm32f7xx_hal_qspi.c ****       (#) For the indirect read mode, use HAL_QSPI_Receive(), HAL_QSPI_Receive_DMA() or
  75:Drivers/STM32F7xx_HAL_Driver/Src/stm32f7xx_hal_qspi.c ****           HAL_QSPI_Receive_IT() after the command configuration :
  76:Drivers/STM32F7xx_HAL_Driver/Src/stm32f7xx_hal_qspi.c ****          (++) In polling mode, the output of the function is done when the transfer is complete.
  77:Drivers/STM32F7xx_HAL_Driver/Src/stm32f7xx_hal_qspi.c ****          (++) In interrupt mode, HAL_QSPI_FifoThresholdCallback() will be called when the fifo thre
  78:Drivers/STM32F7xx_HAL_Driver/Src/stm32f7xx_hal_qspi.c ****              is reached and HAL_QSPI_RxCpltCallback() will be called when the transfer is complete.
  79:Drivers/STM32F7xx_HAL_Driver/Src/stm32f7xx_hal_qspi.c ****          (++) In DMA mode, HAL_QSPI_RxHalfCpltCallback() will be called at the half transfer and
  80:Drivers/STM32F7xx_HAL_Driver/Src/stm32f7xx_hal_qspi.c ****              HAL_QSPI_RxCpltCallback() will be called when the transfer is complete.
  81:Drivers/STM32F7xx_HAL_Driver/Src/stm32f7xx_hal_qspi.c **** 
  82:Drivers/STM32F7xx_HAL_Driver/Src/stm32f7xx_hal_qspi.c ****     *** Auto-polling functional mode ***
  83:Drivers/STM32F7xx_HAL_Driver/Src/stm32f7xx_hal_qspi.c ****     ====================================
  84:Drivers/STM32F7xx_HAL_Driver/Src/stm32f7xx_hal_qspi.c ****     [..]
  85:Drivers/STM32F7xx_HAL_Driver/Src/stm32f7xx_hal_qspi.c ****       (#) Configure the command sequence and the auto-polling functional mode using the
  86:Drivers/STM32F7xx_HAL_Driver/Src/stm32f7xx_hal_qspi.c ****           HAL_QSPI_AutoPolling() or HAL_QSPI_AutoPolling_IT() functions :
  87:Drivers/STM32F7xx_HAL_Driver/Src/stm32f7xx_hal_qspi.c ****          (++) Instruction phase : the mode used and if present the instruction opcode.
ARM GAS  C:\Users\jisu8\AppData\Local\Temp\ccA6Ygqq.s 			page 3


  88:Drivers/STM32F7xx_HAL_Driver/Src/stm32f7xx_hal_qspi.c ****          (++) Address phase : the mode used and if present the size and the address value.
  89:Drivers/STM32F7xx_HAL_Driver/Src/stm32f7xx_hal_qspi.c ****          (++) Alternate-bytes phase : the mode used and if present the size and the alternate
  90:Drivers/STM32F7xx_HAL_Driver/Src/stm32f7xx_hal_qspi.c ****              bytes values.
  91:Drivers/STM32F7xx_HAL_Driver/Src/stm32f7xx_hal_qspi.c ****          (++) Dummy-cycles phase : the number of dummy cycles (mode used is same as data phase).
  92:Drivers/STM32F7xx_HAL_Driver/Src/stm32f7xx_hal_qspi.c ****          (++) Data phase : the mode used.
  93:Drivers/STM32F7xx_HAL_Driver/Src/stm32f7xx_hal_qspi.c ****          (++) Double Data Rate (DDR) mode : the activation (or not) of this mode and the delay
  94:Drivers/STM32F7xx_HAL_Driver/Src/stm32f7xx_hal_qspi.c ****              if activated.
  95:Drivers/STM32F7xx_HAL_Driver/Src/stm32f7xx_hal_qspi.c ****          (++) Sending Instruction Only Once (SIOO) mode : the activation (or not) of this mode.
  96:Drivers/STM32F7xx_HAL_Driver/Src/stm32f7xx_hal_qspi.c ****          (++) The size of the status bytes, the match value, the mask used, the match mode (OR/AND)
  97:Drivers/STM32F7xx_HAL_Driver/Src/stm32f7xx_hal_qspi.c ****              the polling interval and the automatic stop activation.
  98:Drivers/STM32F7xx_HAL_Driver/Src/stm32f7xx_hal_qspi.c ****       (#) After the configuration :
  99:Drivers/STM32F7xx_HAL_Driver/Src/stm32f7xx_hal_qspi.c ****          (++) In polling mode, the output of the function is done when the status match is reached.
 100:Drivers/STM32F7xx_HAL_Driver/Src/stm32f7xx_hal_qspi.c ****              automatic stop is activated to avoid an infinite loop.
 101:Drivers/STM32F7xx_HAL_Driver/Src/stm32f7xx_hal_qspi.c ****          (++) In interrupt mode, HAL_QSPI_StatusMatchCallback() will be called each time the status
 102:Drivers/STM32F7xx_HAL_Driver/Src/stm32f7xx_hal_qspi.c **** 
 103:Drivers/STM32F7xx_HAL_Driver/Src/stm32f7xx_hal_qspi.c ****     *** Memory-mapped functional mode ***
 104:Drivers/STM32F7xx_HAL_Driver/Src/stm32f7xx_hal_qspi.c ****     =====================================
 105:Drivers/STM32F7xx_HAL_Driver/Src/stm32f7xx_hal_qspi.c ****     [..]
 106:Drivers/STM32F7xx_HAL_Driver/Src/stm32f7xx_hal_qspi.c ****       (#) Configure the command sequence and the memory-mapped functional mode using the
 107:Drivers/STM32F7xx_HAL_Driver/Src/stm32f7xx_hal_qspi.c ****           HAL_QSPI_MemoryMapped() functions :
 108:Drivers/STM32F7xx_HAL_Driver/Src/stm32f7xx_hal_qspi.c ****          (++) Instruction phase : the mode used and if present the instruction opcode.
 109:Drivers/STM32F7xx_HAL_Driver/Src/stm32f7xx_hal_qspi.c ****          (++) Address phase : the mode used and the size.
 110:Drivers/STM32F7xx_HAL_Driver/Src/stm32f7xx_hal_qspi.c ****          (++) Alternate-bytes phase : the mode used and if present the size and the alternate
 111:Drivers/STM32F7xx_HAL_Driver/Src/stm32f7xx_hal_qspi.c ****              bytes values.
 112:Drivers/STM32F7xx_HAL_Driver/Src/stm32f7xx_hal_qspi.c ****          (++) Dummy-cycles phase : the number of dummy cycles (mode used is same as data phase).
 113:Drivers/STM32F7xx_HAL_Driver/Src/stm32f7xx_hal_qspi.c ****          (++) Data phase : the mode used.
 114:Drivers/STM32F7xx_HAL_Driver/Src/stm32f7xx_hal_qspi.c ****          (++) Double Data Rate (DDR) mode : the activation (or not) of this mode and the delay
 115:Drivers/STM32F7xx_HAL_Driver/Src/stm32f7xx_hal_qspi.c ****              if activated.
 116:Drivers/STM32F7xx_HAL_Driver/Src/stm32f7xx_hal_qspi.c ****          (++) Sending Instruction Only Once (SIOO) mode : the activation (or not) of this mode.
 117:Drivers/STM32F7xx_HAL_Driver/Src/stm32f7xx_hal_qspi.c ****          (++) The timeout activation and the timeout period.
 118:Drivers/STM32F7xx_HAL_Driver/Src/stm32f7xx_hal_qspi.c ****       (#) After the configuration, the QuadSPI will be used as soon as an access on the AHB is done
 119:Drivers/STM32F7xx_HAL_Driver/Src/stm32f7xx_hal_qspi.c ****           the address range. HAL_QSPI_TimeOutCallback() will be called when the timeout expires.
 120:Drivers/STM32F7xx_HAL_Driver/Src/stm32f7xx_hal_qspi.c **** 
 121:Drivers/STM32F7xx_HAL_Driver/Src/stm32f7xx_hal_qspi.c ****     *** Errors management and abort functionality ***
 122:Drivers/STM32F7xx_HAL_Driver/Src/stm32f7xx_hal_qspi.c ****     =================================================
 123:Drivers/STM32F7xx_HAL_Driver/Src/stm32f7xx_hal_qspi.c ****     [..]
 124:Drivers/STM32F7xx_HAL_Driver/Src/stm32f7xx_hal_qspi.c ****       (#) HAL_QSPI_GetError() function gives the error raised during the last operation.
 125:Drivers/STM32F7xx_HAL_Driver/Src/stm32f7xx_hal_qspi.c ****       (#) HAL_QSPI_Abort() and HAL_QSPI_Abort_IT() functions aborts any on-going operation and
 126:Drivers/STM32F7xx_HAL_Driver/Src/stm32f7xx_hal_qspi.c ****           flushes the fifo :
 127:Drivers/STM32F7xx_HAL_Driver/Src/stm32f7xx_hal_qspi.c ****          (++) In polling mode, the output of the function is done when the transfer
 128:Drivers/STM32F7xx_HAL_Driver/Src/stm32f7xx_hal_qspi.c ****               complete bit is set and the busy bit cleared.
 129:Drivers/STM32F7xx_HAL_Driver/Src/stm32f7xx_hal_qspi.c ****          (++) In interrupt mode, HAL_QSPI_AbortCpltCallback() will be called when
 130:Drivers/STM32F7xx_HAL_Driver/Src/stm32f7xx_hal_qspi.c ****               the transfer complete bit is set.
 131:Drivers/STM32F7xx_HAL_Driver/Src/stm32f7xx_hal_qspi.c **** 
 132:Drivers/STM32F7xx_HAL_Driver/Src/stm32f7xx_hal_qspi.c ****     *** Control functions ***
 133:Drivers/STM32F7xx_HAL_Driver/Src/stm32f7xx_hal_qspi.c ****     =========================
 134:Drivers/STM32F7xx_HAL_Driver/Src/stm32f7xx_hal_qspi.c ****     [..]
 135:Drivers/STM32F7xx_HAL_Driver/Src/stm32f7xx_hal_qspi.c ****       (#) HAL_QSPI_GetState() function gives the current state of the HAL QuadSPI driver.
 136:Drivers/STM32F7xx_HAL_Driver/Src/stm32f7xx_hal_qspi.c ****       (#) HAL_QSPI_SetTimeout() function configures the timeout value used in the driver.
 137:Drivers/STM32F7xx_HAL_Driver/Src/stm32f7xx_hal_qspi.c ****       (#) HAL_QSPI_SetFifoThreshold() function configures the threshold on the Fifo of the QSPI IP.
 138:Drivers/STM32F7xx_HAL_Driver/Src/stm32f7xx_hal_qspi.c ****       (#) HAL_QSPI_GetFifoThreshold() function gives the current of the Fifo's threshold
 139:Drivers/STM32F7xx_HAL_Driver/Src/stm32f7xx_hal_qspi.c ****       (#) HAL_QSPI_SetFlashID() function configures the index of the flash memory to be accessed.
 140:Drivers/STM32F7xx_HAL_Driver/Src/stm32f7xx_hal_qspi.c **** 
 141:Drivers/STM32F7xx_HAL_Driver/Src/stm32f7xx_hal_qspi.c ****     *** Callback registration ***
 142:Drivers/STM32F7xx_HAL_Driver/Src/stm32f7xx_hal_qspi.c ****     =============================================
 143:Drivers/STM32F7xx_HAL_Driver/Src/stm32f7xx_hal_qspi.c ****     [..]
 144:Drivers/STM32F7xx_HAL_Driver/Src/stm32f7xx_hal_qspi.c ****       The compilation define  USE_HAL_QSPI_REGISTER_CALLBACKS when set to 1
ARM GAS  C:\Users\jisu8\AppData\Local\Temp\ccA6Ygqq.s 			page 4


 145:Drivers/STM32F7xx_HAL_Driver/Src/stm32f7xx_hal_qspi.c ****       allows the user to configure dynamically the driver callbacks.
 146:Drivers/STM32F7xx_HAL_Driver/Src/stm32f7xx_hal_qspi.c **** 
 147:Drivers/STM32F7xx_HAL_Driver/Src/stm32f7xx_hal_qspi.c ****       Use Functions HAL_QSPI_RegisterCallback() to register a user callback,
 148:Drivers/STM32F7xx_HAL_Driver/Src/stm32f7xx_hal_qspi.c ****       it allows to register following callbacks:
 149:Drivers/STM32F7xx_HAL_Driver/Src/stm32f7xx_hal_qspi.c ****         (+) ErrorCallback : callback when error occurs.
 150:Drivers/STM32F7xx_HAL_Driver/Src/stm32f7xx_hal_qspi.c ****         (+) AbortCpltCallback : callback when abort is completed.
 151:Drivers/STM32F7xx_HAL_Driver/Src/stm32f7xx_hal_qspi.c ****         (+) FifoThresholdCallback : callback when the fifo threshold is reached.
 152:Drivers/STM32F7xx_HAL_Driver/Src/stm32f7xx_hal_qspi.c ****         (+) CmdCpltCallback : callback when a command without data is completed.
 153:Drivers/STM32F7xx_HAL_Driver/Src/stm32f7xx_hal_qspi.c ****         (+) RxCpltCallback : callback when a reception transfer is completed.
 154:Drivers/STM32F7xx_HAL_Driver/Src/stm32f7xx_hal_qspi.c ****         (+) TxCpltCallback : callback when a transmission transfer is completed.
 155:Drivers/STM32F7xx_HAL_Driver/Src/stm32f7xx_hal_qspi.c ****         (+) RxHalfCpltCallback : callback when half of the reception transfer is completed.
 156:Drivers/STM32F7xx_HAL_Driver/Src/stm32f7xx_hal_qspi.c ****         (+) TxHalfCpltCallback : callback when half of the transmission transfer is completed.
 157:Drivers/STM32F7xx_HAL_Driver/Src/stm32f7xx_hal_qspi.c ****         (+) StatusMatchCallback : callback when a status match occurs.
 158:Drivers/STM32F7xx_HAL_Driver/Src/stm32f7xx_hal_qspi.c ****         (+) TimeOutCallback : callback when the timeout perioed expires.
 159:Drivers/STM32F7xx_HAL_Driver/Src/stm32f7xx_hal_qspi.c ****         (+) MspInitCallback    : QSPI MspInit.
 160:Drivers/STM32F7xx_HAL_Driver/Src/stm32f7xx_hal_qspi.c ****         (+) MspDeInitCallback  : QSPI MspDeInit.
 161:Drivers/STM32F7xx_HAL_Driver/Src/stm32f7xx_hal_qspi.c ****       This function takes as parameters the HAL peripheral handle, the Callback ID
 162:Drivers/STM32F7xx_HAL_Driver/Src/stm32f7xx_hal_qspi.c ****       and a pointer to the user callback function.
 163:Drivers/STM32F7xx_HAL_Driver/Src/stm32f7xx_hal_qspi.c **** 
 164:Drivers/STM32F7xx_HAL_Driver/Src/stm32f7xx_hal_qspi.c ****       Use function HAL_QSPI_UnRegisterCallback() to reset a callback to the default
 165:Drivers/STM32F7xx_HAL_Driver/Src/stm32f7xx_hal_qspi.c ****       weak (surcharged) function. It allows to reset following callbacks:
 166:Drivers/STM32F7xx_HAL_Driver/Src/stm32f7xx_hal_qspi.c ****         (+) ErrorCallback : callback when error occurs.
 167:Drivers/STM32F7xx_HAL_Driver/Src/stm32f7xx_hal_qspi.c ****         (+) AbortCpltCallback : callback when abort is completed.
 168:Drivers/STM32F7xx_HAL_Driver/Src/stm32f7xx_hal_qspi.c ****         (+) FifoThresholdCallback : callback when the fifo threshold is reached.
 169:Drivers/STM32F7xx_HAL_Driver/Src/stm32f7xx_hal_qspi.c ****         (+) CmdCpltCallback : callback when a command without data is completed.
 170:Drivers/STM32F7xx_HAL_Driver/Src/stm32f7xx_hal_qspi.c ****         (+) RxCpltCallback : callback when a reception transfer is completed.
 171:Drivers/STM32F7xx_HAL_Driver/Src/stm32f7xx_hal_qspi.c ****         (+) TxCpltCallback : callback when a transmission transfer is completed.
 172:Drivers/STM32F7xx_HAL_Driver/Src/stm32f7xx_hal_qspi.c ****         (+) RxHalfCpltCallback : callback when half of the reception transfer is completed.
 173:Drivers/STM32F7xx_HAL_Driver/Src/stm32f7xx_hal_qspi.c ****         (+) TxHalfCpltCallback : callback when half of the transmission transfer is completed.
 174:Drivers/STM32F7xx_HAL_Driver/Src/stm32f7xx_hal_qspi.c ****         (+) StatusMatchCallback : callback when a status match occurs.
 175:Drivers/STM32F7xx_HAL_Driver/Src/stm32f7xx_hal_qspi.c ****         (+) TimeOutCallback : callback when the timeout perioed expires.
 176:Drivers/STM32F7xx_HAL_Driver/Src/stm32f7xx_hal_qspi.c ****         (+) MspInitCallback    : QSPI MspInit.
 177:Drivers/STM32F7xx_HAL_Driver/Src/stm32f7xx_hal_qspi.c ****         (+) MspDeInitCallback  : QSPI MspDeInit.
 178:Drivers/STM32F7xx_HAL_Driver/Src/stm32f7xx_hal_qspi.c ****       This function) takes as parameters the HAL peripheral handle and the Callback ID.
 179:Drivers/STM32F7xx_HAL_Driver/Src/stm32f7xx_hal_qspi.c **** 
 180:Drivers/STM32F7xx_HAL_Driver/Src/stm32f7xx_hal_qspi.c ****       By default, after the HAL_QSPI_Init and if the state is HAL_QSPI_STATE_RESET
 181:Drivers/STM32F7xx_HAL_Driver/Src/stm32f7xx_hal_qspi.c ****       all callbacks are reset to the corresponding legacy weak (surcharged) functions.
 182:Drivers/STM32F7xx_HAL_Driver/Src/stm32f7xx_hal_qspi.c ****       Exception done for MspInit and MspDeInit callbacks that are respectively
 183:Drivers/STM32F7xx_HAL_Driver/Src/stm32f7xx_hal_qspi.c ****       reset to the legacy weak (surcharged) functions in the HAL_QSPI_Init
 184:Drivers/STM32F7xx_HAL_Driver/Src/stm32f7xx_hal_qspi.c ****       and  HAL_QSPI_DeInit only when these callbacks are null (not registered beforehand).
 185:Drivers/STM32F7xx_HAL_Driver/Src/stm32f7xx_hal_qspi.c ****       If not, MspInit or MspDeInit are not null, the HAL_QSPI_Init and HAL_QSPI_DeInit
 186:Drivers/STM32F7xx_HAL_Driver/Src/stm32f7xx_hal_qspi.c ****       keep and use the user MspInit/MspDeInit callbacks (registered beforehand)
 187:Drivers/STM32F7xx_HAL_Driver/Src/stm32f7xx_hal_qspi.c **** 
 188:Drivers/STM32F7xx_HAL_Driver/Src/stm32f7xx_hal_qspi.c ****       Callbacks can be registered/unregistered in READY state only.
 189:Drivers/STM32F7xx_HAL_Driver/Src/stm32f7xx_hal_qspi.c ****       Exception done for MspInit/MspDeInit callbacks that can be registered/unregistered
 190:Drivers/STM32F7xx_HAL_Driver/Src/stm32f7xx_hal_qspi.c ****       in READY or RESET state, thus registered (user) MspInit/DeInit callbacks can be used
 191:Drivers/STM32F7xx_HAL_Driver/Src/stm32f7xx_hal_qspi.c ****       during the Init/DeInit.
 192:Drivers/STM32F7xx_HAL_Driver/Src/stm32f7xx_hal_qspi.c ****       In that case first register the MspInit/MspDeInit user callbacks
 193:Drivers/STM32F7xx_HAL_Driver/Src/stm32f7xx_hal_qspi.c ****       using HAL_QSPI_RegisterCallback before calling HAL_QSPI_DeInit
 194:Drivers/STM32F7xx_HAL_Driver/Src/stm32f7xx_hal_qspi.c ****       or HAL_QSPI_Init function.
 195:Drivers/STM32F7xx_HAL_Driver/Src/stm32f7xx_hal_qspi.c **** 
 196:Drivers/STM32F7xx_HAL_Driver/Src/stm32f7xx_hal_qspi.c ****       When The compilation define USE_HAL_QSPI_REGISTER_CALLBACKS is set to 0 or
 197:Drivers/STM32F7xx_HAL_Driver/Src/stm32f7xx_hal_qspi.c ****       not defined, the callback registering feature is not available
 198:Drivers/STM32F7xx_HAL_Driver/Src/stm32f7xx_hal_qspi.c ****       and weak (surcharged) callbacks are used.
 199:Drivers/STM32F7xx_HAL_Driver/Src/stm32f7xx_hal_qspi.c **** 
 200:Drivers/STM32F7xx_HAL_Driver/Src/stm32f7xx_hal_qspi.c ****     *** Workarounds linked to Silicon Limitation ***
 201:Drivers/STM32F7xx_HAL_Driver/Src/stm32f7xx_hal_qspi.c ****     ====================================================
ARM GAS  C:\Users\jisu8\AppData\Local\Temp\ccA6Ygqq.s 			page 5


 202:Drivers/STM32F7xx_HAL_Driver/Src/stm32f7xx_hal_qspi.c ****     [..]
 203:Drivers/STM32F7xx_HAL_Driver/Src/stm32f7xx_hal_qspi.c ****       (#) Workarounds Implemented inside HAL Driver
 204:Drivers/STM32F7xx_HAL_Driver/Src/stm32f7xx_hal_qspi.c ****          (++) Extra data written in the FIFO at the end of a read transfer
 205:Drivers/STM32F7xx_HAL_Driver/Src/stm32f7xx_hal_qspi.c **** 
 206:Drivers/STM32F7xx_HAL_Driver/Src/stm32f7xx_hal_qspi.c ****   @endverbatim
 207:Drivers/STM32F7xx_HAL_Driver/Src/stm32f7xx_hal_qspi.c ****   ******************************************************************************
 208:Drivers/STM32F7xx_HAL_Driver/Src/stm32f7xx_hal_qspi.c ****   */
 209:Drivers/STM32F7xx_HAL_Driver/Src/stm32f7xx_hal_qspi.c **** 
 210:Drivers/STM32F7xx_HAL_Driver/Src/stm32f7xx_hal_qspi.c **** /* Includes ------------------------------------------------------------------*/
 211:Drivers/STM32F7xx_HAL_Driver/Src/stm32f7xx_hal_qspi.c **** #include "stm32f7xx_hal.h"
 212:Drivers/STM32F7xx_HAL_Driver/Src/stm32f7xx_hal_qspi.c **** 
 213:Drivers/STM32F7xx_HAL_Driver/Src/stm32f7xx_hal_qspi.c **** #if defined(QUADSPI)
 214:Drivers/STM32F7xx_HAL_Driver/Src/stm32f7xx_hal_qspi.c **** 
 215:Drivers/STM32F7xx_HAL_Driver/Src/stm32f7xx_hal_qspi.c **** /** @addtogroup STM32F7xx_HAL_Driver
 216:Drivers/STM32F7xx_HAL_Driver/Src/stm32f7xx_hal_qspi.c ****   * @{
 217:Drivers/STM32F7xx_HAL_Driver/Src/stm32f7xx_hal_qspi.c ****   */
 218:Drivers/STM32F7xx_HAL_Driver/Src/stm32f7xx_hal_qspi.c **** 
 219:Drivers/STM32F7xx_HAL_Driver/Src/stm32f7xx_hal_qspi.c **** /** @defgroup QSPI QSPI
 220:Drivers/STM32F7xx_HAL_Driver/Src/stm32f7xx_hal_qspi.c ****   * @brief QSPI HAL module driver
 221:Drivers/STM32F7xx_HAL_Driver/Src/stm32f7xx_hal_qspi.c ****   * @{
 222:Drivers/STM32F7xx_HAL_Driver/Src/stm32f7xx_hal_qspi.c ****   */
 223:Drivers/STM32F7xx_HAL_Driver/Src/stm32f7xx_hal_qspi.c **** #ifdef HAL_QSPI_MODULE_ENABLED
 224:Drivers/STM32F7xx_HAL_Driver/Src/stm32f7xx_hal_qspi.c **** 
 225:Drivers/STM32F7xx_HAL_Driver/Src/stm32f7xx_hal_qspi.c **** /* Private typedef -----------------------------------------------------------*/
 226:Drivers/STM32F7xx_HAL_Driver/Src/stm32f7xx_hal_qspi.c **** 
 227:Drivers/STM32F7xx_HAL_Driver/Src/stm32f7xx_hal_qspi.c **** /* Private define ------------------------------------------------------------*/
 228:Drivers/STM32F7xx_HAL_Driver/Src/stm32f7xx_hal_qspi.c **** /** @defgroup QSPI_Private_Constants QSPI Private Constants
 229:Drivers/STM32F7xx_HAL_Driver/Src/stm32f7xx_hal_qspi.c ****   * @{
 230:Drivers/STM32F7xx_HAL_Driver/Src/stm32f7xx_hal_qspi.c ****   */
 231:Drivers/STM32F7xx_HAL_Driver/Src/stm32f7xx_hal_qspi.c **** #define QSPI_FUNCTIONAL_MODE_INDIRECT_WRITE 0x00000000U                     /*!<Indirect write mode
 232:Drivers/STM32F7xx_HAL_Driver/Src/stm32f7xx_hal_qspi.c **** #define QSPI_FUNCTIONAL_MODE_INDIRECT_READ  ((uint32_t)QUADSPI_CCR_FMODE_0) /*!<Indirect read mode*
 233:Drivers/STM32F7xx_HAL_Driver/Src/stm32f7xx_hal_qspi.c **** #define QSPI_FUNCTIONAL_MODE_AUTO_POLLING   ((uint32_t)QUADSPI_CCR_FMODE_1) /*!<Automatic polling m
 234:Drivers/STM32F7xx_HAL_Driver/Src/stm32f7xx_hal_qspi.c **** #define QSPI_FUNCTIONAL_MODE_MEMORY_MAPPED  ((uint32_t)QUADSPI_CCR_FMODE)   /*!<Memory-mapped mode*
 235:Drivers/STM32F7xx_HAL_Driver/Src/stm32f7xx_hal_qspi.c **** /**
 236:Drivers/STM32F7xx_HAL_Driver/Src/stm32f7xx_hal_qspi.c ****   * @}
 237:Drivers/STM32F7xx_HAL_Driver/Src/stm32f7xx_hal_qspi.c ****   */
 238:Drivers/STM32F7xx_HAL_Driver/Src/stm32f7xx_hal_qspi.c **** 
 239:Drivers/STM32F7xx_HAL_Driver/Src/stm32f7xx_hal_qspi.c **** /* Private macro -------------------------------------------------------------*/
 240:Drivers/STM32F7xx_HAL_Driver/Src/stm32f7xx_hal_qspi.c **** /** @defgroup QSPI_Private_Macros QSPI Private Macros
 241:Drivers/STM32F7xx_HAL_Driver/Src/stm32f7xx_hal_qspi.c ****   * @{
 242:Drivers/STM32F7xx_HAL_Driver/Src/stm32f7xx_hal_qspi.c ****   */
 243:Drivers/STM32F7xx_HAL_Driver/Src/stm32f7xx_hal_qspi.c **** #define IS_QSPI_FUNCTIONAL_MODE(MODE) (((MODE) == QSPI_FUNCTIONAL_MODE_INDIRECT_WRITE) || \
 244:Drivers/STM32F7xx_HAL_Driver/Src/stm32f7xx_hal_qspi.c ****                                        ((MODE) == QSPI_FUNCTIONAL_MODE_INDIRECT_READ)  || \
 245:Drivers/STM32F7xx_HAL_Driver/Src/stm32f7xx_hal_qspi.c ****                                        ((MODE) == QSPI_FUNCTIONAL_MODE_AUTO_POLLING)   || \
 246:Drivers/STM32F7xx_HAL_Driver/Src/stm32f7xx_hal_qspi.c ****                                        ((MODE) == QSPI_FUNCTIONAL_MODE_MEMORY_MAPPED))
 247:Drivers/STM32F7xx_HAL_Driver/Src/stm32f7xx_hal_qspi.c **** /**
 248:Drivers/STM32F7xx_HAL_Driver/Src/stm32f7xx_hal_qspi.c ****   * @}
 249:Drivers/STM32F7xx_HAL_Driver/Src/stm32f7xx_hal_qspi.c ****   */
 250:Drivers/STM32F7xx_HAL_Driver/Src/stm32f7xx_hal_qspi.c **** 
 251:Drivers/STM32F7xx_HAL_Driver/Src/stm32f7xx_hal_qspi.c **** /* Private variables ---------------------------------------------------------*/
 252:Drivers/STM32F7xx_HAL_Driver/Src/stm32f7xx_hal_qspi.c **** 
 253:Drivers/STM32F7xx_HAL_Driver/Src/stm32f7xx_hal_qspi.c **** /* Private function prototypes -----------------------------------------------*/
 254:Drivers/STM32F7xx_HAL_Driver/Src/stm32f7xx_hal_qspi.c **** static void QSPI_DMARxCplt(DMA_HandleTypeDef *hdma);
 255:Drivers/STM32F7xx_HAL_Driver/Src/stm32f7xx_hal_qspi.c **** static void QSPI_DMATxCplt(DMA_HandleTypeDef *hdma);
 256:Drivers/STM32F7xx_HAL_Driver/Src/stm32f7xx_hal_qspi.c **** static void QSPI_DMARxHalfCplt(DMA_HandleTypeDef *hdma);
 257:Drivers/STM32F7xx_HAL_Driver/Src/stm32f7xx_hal_qspi.c **** static void QSPI_DMATxHalfCplt(DMA_HandleTypeDef *hdma);
 258:Drivers/STM32F7xx_HAL_Driver/Src/stm32f7xx_hal_qspi.c **** static void QSPI_DMAError(DMA_HandleTypeDef *hdma);
ARM GAS  C:\Users\jisu8\AppData\Local\Temp\ccA6Ygqq.s 			page 6


 259:Drivers/STM32F7xx_HAL_Driver/Src/stm32f7xx_hal_qspi.c **** static void QSPI_DMAAbortCplt(DMA_HandleTypeDef *hdma);
 260:Drivers/STM32F7xx_HAL_Driver/Src/stm32f7xx_hal_qspi.c **** static HAL_StatusTypeDef QSPI_WaitFlagStateUntilTimeout(QSPI_HandleTypeDef *hqspi, uint32_t Flag, F
 261:Drivers/STM32F7xx_HAL_Driver/Src/stm32f7xx_hal_qspi.c **** static HAL_StatusTypeDef QSPI_WaitFlagStateUntilTimeout_CPUCycle(QSPI_HandleTypeDef *hqspi, uint32_
 262:Drivers/STM32F7xx_HAL_Driver/Src/stm32f7xx_hal_qspi.c **** static void QSPI_Config(QSPI_HandleTypeDef *hqspi, QSPI_CommandTypeDef *cmd, uint32_t FunctionalMod
 263:Drivers/STM32F7xx_HAL_Driver/Src/stm32f7xx_hal_qspi.c **** 
 264:Drivers/STM32F7xx_HAL_Driver/Src/stm32f7xx_hal_qspi.c **** /* Exported functions --------------------------------------------------------*/
 265:Drivers/STM32F7xx_HAL_Driver/Src/stm32f7xx_hal_qspi.c **** 
 266:Drivers/STM32F7xx_HAL_Driver/Src/stm32f7xx_hal_qspi.c **** /** @defgroup QSPI_Exported_Functions QSPI Exported Functions
 267:Drivers/STM32F7xx_HAL_Driver/Src/stm32f7xx_hal_qspi.c ****   * @{
 268:Drivers/STM32F7xx_HAL_Driver/Src/stm32f7xx_hal_qspi.c ****   */
 269:Drivers/STM32F7xx_HAL_Driver/Src/stm32f7xx_hal_qspi.c **** 
 270:Drivers/STM32F7xx_HAL_Driver/Src/stm32f7xx_hal_qspi.c **** /** @defgroup QSPI_Exported_Functions_Group1 Initialization/de-initialization functions
 271:Drivers/STM32F7xx_HAL_Driver/Src/stm32f7xx_hal_qspi.c ****   *  @brief    Initialization and Configuration functions
 272:Drivers/STM32F7xx_HAL_Driver/Src/stm32f7xx_hal_qspi.c ****   *
 273:Drivers/STM32F7xx_HAL_Driver/Src/stm32f7xx_hal_qspi.c **** @verbatim
 274:Drivers/STM32F7xx_HAL_Driver/Src/stm32f7xx_hal_qspi.c **** ===============================================================================
 275:Drivers/STM32F7xx_HAL_Driver/Src/stm32f7xx_hal_qspi.c ****             ##### Initialization and Configuration functions #####
 276:Drivers/STM32F7xx_HAL_Driver/Src/stm32f7xx_hal_qspi.c ****  ===============================================================================
 277:Drivers/STM32F7xx_HAL_Driver/Src/stm32f7xx_hal_qspi.c ****     [..]
 278:Drivers/STM32F7xx_HAL_Driver/Src/stm32f7xx_hal_qspi.c ****     This subsection provides a set of functions allowing to :
 279:Drivers/STM32F7xx_HAL_Driver/Src/stm32f7xx_hal_qspi.c ****       (+) Initialize the QuadSPI.
 280:Drivers/STM32F7xx_HAL_Driver/Src/stm32f7xx_hal_qspi.c ****       (+) De-initialize the QuadSPI.
 281:Drivers/STM32F7xx_HAL_Driver/Src/stm32f7xx_hal_qspi.c **** 
 282:Drivers/STM32F7xx_HAL_Driver/Src/stm32f7xx_hal_qspi.c **** @endverbatim
 283:Drivers/STM32F7xx_HAL_Driver/Src/stm32f7xx_hal_qspi.c ****   * @{
 284:Drivers/STM32F7xx_HAL_Driver/Src/stm32f7xx_hal_qspi.c ****   */
 285:Drivers/STM32F7xx_HAL_Driver/Src/stm32f7xx_hal_qspi.c **** 
 286:Drivers/STM32F7xx_HAL_Driver/Src/stm32f7xx_hal_qspi.c **** /**
 287:Drivers/STM32F7xx_HAL_Driver/Src/stm32f7xx_hal_qspi.c ****   * @brief Initialize the QSPI mode according to the specified parameters
 288:Drivers/STM32F7xx_HAL_Driver/Src/stm32f7xx_hal_qspi.c ****   *        in the QSPI_InitTypeDef and initialize the associated handle.
 289:Drivers/STM32F7xx_HAL_Driver/Src/stm32f7xx_hal_qspi.c ****   * @param hqspi QSPI handle
 290:Drivers/STM32F7xx_HAL_Driver/Src/stm32f7xx_hal_qspi.c ****   * @retval HAL status
 291:Drivers/STM32F7xx_HAL_Driver/Src/stm32f7xx_hal_qspi.c ****   */
 292:Drivers/STM32F7xx_HAL_Driver/Src/stm32f7xx_hal_qspi.c **** HAL_StatusTypeDef HAL_QSPI_Init(QSPI_HandleTypeDef *hqspi)
 293:Drivers/STM32F7xx_HAL_Driver/Src/stm32f7xx_hal_qspi.c **** {
  29              		.loc 1 293 1
  30              		.cfi_startproc
  31              		@ args = 0, pretend = 0, frame = 16
  32              		@ frame_needed = 1, uses_anonymous_args = 0
  33 0000 80B5     		push	{r7, lr}
  34              	.LCFI0:
  35              		.cfi_def_cfa_offset 8
  36              		.cfi_offset 7, -8
  37              		.cfi_offset 14, -4
  38 0002 86B0     		sub	sp, sp, #24
  39              	.LCFI1:
  40              		.cfi_def_cfa_offset 32
  41 0004 02AF     		add	r7, sp, #8
  42              	.LCFI2:
  43              		.cfi_def_cfa 7, 24
  44 0006 7860     		str	r0, [r7, #4]
 294:Drivers/STM32F7xx_HAL_Driver/Src/stm32f7xx_hal_qspi.c ****   HAL_StatusTypeDef status;
 295:Drivers/STM32F7xx_HAL_Driver/Src/stm32f7xx_hal_qspi.c ****   uint32_t tickstart = HAL_GetTick();
  45              		.loc 1 295 24
  46 0008 FFF7FEFF 		bl	HAL_GetTick
  47 000c F860     		str	r0, [r7, #12]
 296:Drivers/STM32F7xx_HAL_Driver/Src/stm32f7xx_hal_qspi.c **** 
ARM GAS  C:\Users\jisu8\AppData\Local\Temp\ccA6Ygqq.s 			page 7


 297:Drivers/STM32F7xx_HAL_Driver/Src/stm32f7xx_hal_qspi.c ****   /* Check the QSPI handle allocation */
 298:Drivers/STM32F7xx_HAL_Driver/Src/stm32f7xx_hal_qspi.c ****   if(hqspi == NULL)
  48              		.loc 1 298 5
  49 000e 7B68     		ldr	r3, [r7, #4]
  50 0010 002B     		cmp	r3, #0
  51 0012 01D1     		bne	.L2
 299:Drivers/STM32F7xx_HAL_Driver/Src/stm32f7xx_hal_qspi.c ****   {
 300:Drivers/STM32F7xx_HAL_Driver/Src/stm32f7xx_hal_qspi.c ****     return HAL_ERROR;
  52              		.loc 1 300 12
  53 0014 0123     		movs	r3, #1
  54 0016 67E0     		b	.L3
  55              	.L2:
 301:Drivers/STM32F7xx_HAL_Driver/Src/stm32f7xx_hal_qspi.c ****   }
 302:Drivers/STM32F7xx_HAL_Driver/Src/stm32f7xx_hal_qspi.c **** 
 303:Drivers/STM32F7xx_HAL_Driver/Src/stm32f7xx_hal_qspi.c ****   /* Check the parameters */
 304:Drivers/STM32F7xx_HAL_Driver/Src/stm32f7xx_hal_qspi.c ****   assert_param(IS_QSPI_ALL_INSTANCE(hqspi->Instance));
 305:Drivers/STM32F7xx_HAL_Driver/Src/stm32f7xx_hal_qspi.c ****   assert_param(IS_QSPI_CLOCK_PRESCALER(hqspi->Init.ClockPrescaler));
 306:Drivers/STM32F7xx_HAL_Driver/Src/stm32f7xx_hal_qspi.c ****   assert_param(IS_QSPI_FIFO_THRESHOLD(hqspi->Init.FifoThreshold));
 307:Drivers/STM32F7xx_HAL_Driver/Src/stm32f7xx_hal_qspi.c ****   assert_param(IS_QSPI_SSHIFT(hqspi->Init.SampleShifting));
 308:Drivers/STM32F7xx_HAL_Driver/Src/stm32f7xx_hal_qspi.c ****   assert_param(IS_QSPI_FLASH_SIZE(hqspi->Init.FlashSize));
 309:Drivers/STM32F7xx_HAL_Driver/Src/stm32f7xx_hal_qspi.c ****   assert_param(IS_QSPI_CS_HIGH_TIME(hqspi->Init.ChipSelectHighTime));
 310:Drivers/STM32F7xx_HAL_Driver/Src/stm32f7xx_hal_qspi.c ****   assert_param(IS_QSPI_CLOCK_MODE(hqspi->Init.ClockMode));
 311:Drivers/STM32F7xx_HAL_Driver/Src/stm32f7xx_hal_qspi.c ****   assert_param(IS_QSPI_DUAL_FLASH_MODE(hqspi->Init.DualFlash));
 312:Drivers/STM32F7xx_HAL_Driver/Src/stm32f7xx_hal_qspi.c **** 
 313:Drivers/STM32F7xx_HAL_Driver/Src/stm32f7xx_hal_qspi.c ****   if (hqspi->Init.DualFlash != QSPI_DUALFLASH_ENABLE )
 314:Drivers/STM32F7xx_HAL_Driver/Src/stm32f7xx_hal_qspi.c ****   {
 315:Drivers/STM32F7xx_HAL_Driver/Src/stm32f7xx_hal_qspi.c ****     assert_param(IS_QSPI_FLASH_ID(hqspi->Init.FlashID));
 316:Drivers/STM32F7xx_HAL_Driver/Src/stm32f7xx_hal_qspi.c ****   }
 317:Drivers/STM32F7xx_HAL_Driver/Src/stm32f7xx_hal_qspi.c **** 
 318:Drivers/STM32F7xx_HAL_Driver/Src/stm32f7xx_hal_qspi.c ****   if(hqspi->State == HAL_QSPI_STATE_RESET)
  56              		.loc 1 318 11
  57 0018 7B68     		ldr	r3, [r7, #4]
  58 001a 93F84130 		ldrb	r3, [r3, #65]
  59 001e DBB2     		uxtb	r3, r3
  60              		.loc 1 318 5
  61 0020 002B     		cmp	r3, #0
  62 0022 0BD1     		bne	.L4
 319:Drivers/STM32F7xx_HAL_Driver/Src/stm32f7xx_hal_qspi.c ****   {
 320:Drivers/STM32F7xx_HAL_Driver/Src/stm32f7xx_hal_qspi.c ****     /* Allocate lock resource and initialize it */
 321:Drivers/STM32F7xx_HAL_Driver/Src/stm32f7xx_hal_qspi.c ****     hqspi->Lock = HAL_UNLOCKED;
  63              		.loc 1 321 17
  64 0024 7B68     		ldr	r3, [r7, #4]
  65 0026 0022     		movs	r2, #0
  66 0028 83F84020 		strb	r2, [r3, #64]
 322:Drivers/STM32F7xx_HAL_Driver/Src/stm32f7xx_hal_qspi.c **** 
 323:Drivers/STM32F7xx_HAL_Driver/Src/stm32f7xx_hal_qspi.c **** #if (USE_HAL_QSPI_REGISTER_CALLBACKS == 1)
 324:Drivers/STM32F7xx_HAL_Driver/Src/stm32f7xx_hal_qspi.c ****     /* Reset Callback pointers in HAL_QSPI_STATE_RESET only */
 325:Drivers/STM32F7xx_HAL_Driver/Src/stm32f7xx_hal_qspi.c ****     hqspi->ErrorCallback         = HAL_QSPI_ErrorCallback;
 326:Drivers/STM32F7xx_HAL_Driver/Src/stm32f7xx_hal_qspi.c ****     hqspi->AbortCpltCallback     = HAL_QSPI_AbortCpltCallback;
 327:Drivers/STM32F7xx_HAL_Driver/Src/stm32f7xx_hal_qspi.c ****     hqspi->FifoThresholdCallback = HAL_QSPI_FifoThresholdCallback;
 328:Drivers/STM32F7xx_HAL_Driver/Src/stm32f7xx_hal_qspi.c ****     hqspi->CmdCpltCallback       = HAL_QSPI_CmdCpltCallback;
 329:Drivers/STM32F7xx_HAL_Driver/Src/stm32f7xx_hal_qspi.c ****     hqspi->RxCpltCallback        = HAL_QSPI_RxCpltCallback;
 330:Drivers/STM32F7xx_HAL_Driver/Src/stm32f7xx_hal_qspi.c ****     hqspi->TxCpltCallback        = HAL_QSPI_TxCpltCallback;
 331:Drivers/STM32F7xx_HAL_Driver/Src/stm32f7xx_hal_qspi.c ****     hqspi->RxHalfCpltCallback    = HAL_QSPI_RxHalfCpltCallback;
 332:Drivers/STM32F7xx_HAL_Driver/Src/stm32f7xx_hal_qspi.c ****     hqspi->TxHalfCpltCallback    = HAL_QSPI_TxHalfCpltCallback;
 333:Drivers/STM32F7xx_HAL_Driver/Src/stm32f7xx_hal_qspi.c ****     hqspi->StatusMatchCallback   = HAL_QSPI_StatusMatchCallback;
 334:Drivers/STM32F7xx_HAL_Driver/Src/stm32f7xx_hal_qspi.c ****     hqspi->TimeOutCallback       = HAL_QSPI_TimeOutCallback;
ARM GAS  C:\Users\jisu8\AppData\Local\Temp\ccA6Ygqq.s 			page 8


 335:Drivers/STM32F7xx_HAL_Driver/Src/stm32f7xx_hal_qspi.c **** 
 336:Drivers/STM32F7xx_HAL_Driver/Src/stm32f7xx_hal_qspi.c ****     if(hqspi->MspInitCallback == NULL)
 337:Drivers/STM32F7xx_HAL_Driver/Src/stm32f7xx_hal_qspi.c ****     {
 338:Drivers/STM32F7xx_HAL_Driver/Src/stm32f7xx_hal_qspi.c ****       hqspi->MspInitCallback = HAL_QSPI_MspInit;
 339:Drivers/STM32F7xx_HAL_Driver/Src/stm32f7xx_hal_qspi.c ****     }
 340:Drivers/STM32F7xx_HAL_Driver/Src/stm32f7xx_hal_qspi.c **** 
 341:Drivers/STM32F7xx_HAL_Driver/Src/stm32f7xx_hal_qspi.c ****     /* Init the low level hardware */
 342:Drivers/STM32F7xx_HAL_Driver/Src/stm32f7xx_hal_qspi.c ****     hqspi->MspInitCallback(hqspi);
 343:Drivers/STM32F7xx_HAL_Driver/Src/stm32f7xx_hal_qspi.c **** #else
 344:Drivers/STM32F7xx_HAL_Driver/Src/stm32f7xx_hal_qspi.c ****     /* Init the low level hardware : GPIO, CLOCK */
 345:Drivers/STM32F7xx_HAL_Driver/Src/stm32f7xx_hal_qspi.c ****     HAL_QSPI_MspInit(hqspi);
  67              		.loc 1 345 5
  68 002c 7868     		ldr	r0, [r7, #4]
  69 002e FFF7FEFF 		bl	HAL_QSPI_MspInit
 346:Drivers/STM32F7xx_HAL_Driver/Src/stm32f7xx_hal_qspi.c **** #endif
 347:Drivers/STM32F7xx_HAL_Driver/Src/stm32f7xx_hal_qspi.c **** 
 348:Drivers/STM32F7xx_HAL_Driver/Src/stm32f7xx_hal_qspi.c ****     /* Configure the default timeout for the QSPI memory access */
 349:Drivers/STM32F7xx_HAL_Driver/Src/stm32f7xx_hal_qspi.c ****     HAL_QSPI_SetTimeout(hqspi, HAL_QSPI_TIMEOUT_DEFAULT_VALUE);
  70              		.loc 1 349 5
  71 0032 41F28831 		movw	r1, #5000
  72 0036 7868     		ldr	r0, [r7, #4]
  73 0038 FFF7FEFF 		bl	HAL_QSPI_SetTimeout
  74              	.L4:
 350:Drivers/STM32F7xx_HAL_Driver/Src/stm32f7xx_hal_qspi.c ****   }
 351:Drivers/STM32F7xx_HAL_Driver/Src/stm32f7xx_hal_qspi.c **** 
 352:Drivers/STM32F7xx_HAL_Driver/Src/stm32f7xx_hal_qspi.c ****   /* Configure QSPI FIFO Threshold */
 353:Drivers/STM32F7xx_HAL_Driver/Src/stm32f7xx_hal_qspi.c ****   MODIFY_REG(hqspi->Instance->CR, QUADSPI_CR_FTHRES,
  75              		.loc 1 353 3
  76 003c 7B68     		ldr	r3, [r7, #4]
  77 003e 1B68     		ldr	r3, [r3]
  78 0040 1B68     		ldr	r3, [r3]
  79 0042 23F4F851 		bic	r1, r3, #7936
  80 0046 7B68     		ldr	r3, [r7, #4]
  81 0048 9B68     		ldr	r3, [r3, #8]
  82 004a 013B     		subs	r3, r3, #1
  83 004c 1A02     		lsls	r2, r3, #8
  84 004e 7B68     		ldr	r3, [r7, #4]
  85 0050 1B68     		ldr	r3, [r3]
  86 0052 0A43     		orrs	r2, r2, r1
  87 0054 1A60     		str	r2, [r3]
 354:Drivers/STM32F7xx_HAL_Driver/Src/stm32f7xx_hal_qspi.c ****              ((hqspi->Init.FifoThreshold - 1U) << QUADSPI_CR_FTHRES_Pos));
 355:Drivers/STM32F7xx_HAL_Driver/Src/stm32f7xx_hal_qspi.c **** 
 356:Drivers/STM32F7xx_HAL_Driver/Src/stm32f7xx_hal_qspi.c ****   /* Wait till BUSY flag reset */
 357:Drivers/STM32F7xx_HAL_Driver/Src/stm32f7xx_hal_qspi.c ****   status = QSPI_WaitFlagStateUntilTimeout(hqspi, QSPI_FLAG_BUSY, RESET, tickstart, hqspi->Timeout);
  88              		.loc 1 357 12
  89 0056 7B68     		ldr	r3, [r7, #4]
  90 0058 9B6C     		ldr	r3, [r3, #72]
  91 005a 0093     		str	r3, [sp]
  92 005c FB68     		ldr	r3, [r7, #12]
  93 005e 0022     		movs	r2, #0
  94 0060 2021     		movs	r1, #32
  95 0062 7868     		ldr	r0, [r7, #4]
  96 0064 FFF7FEFF 		bl	QSPI_WaitFlagStateUntilTimeout
  97 0068 0346     		mov	r3, r0
  98 006a FB72     		strb	r3, [r7, #11]
 358:Drivers/STM32F7xx_HAL_Driver/Src/stm32f7xx_hal_qspi.c **** 
 359:Drivers/STM32F7xx_HAL_Driver/Src/stm32f7xx_hal_qspi.c ****   if(status == HAL_OK)
ARM GAS  C:\Users\jisu8\AppData\Local\Temp\ccA6Ygqq.s 			page 9


  99              		.loc 1 359 5
 100 006c FB7A     		ldrb	r3, [r7, #11]	@ zero_extendqisi2
 101 006e 002B     		cmp	r3, #0
 102 0070 35D1     		bne	.L5
 360:Drivers/STM32F7xx_HAL_Driver/Src/stm32f7xx_hal_qspi.c ****   {
 361:Drivers/STM32F7xx_HAL_Driver/Src/stm32f7xx_hal_qspi.c ****     /* Configure QSPI Clock Prescaler and Sample Shift */
 362:Drivers/STM32F7xx_HAL_Driver/Src/stm32f7xx_hal_qspi.c ****     MODIFY_REG(hqspi->Instance->CR, (QUADSPI_CR_PRESCALER | QUADSPI_CR_SSHIFT | QUADSPI_CR_FSEL | Q
 103              		.loc 1 362 5
 104 0072 7B68     		ldr	r3, [r7, #4]
 105 0074 1B68     		ldr	r3, [r3]
 106 0076 1A68     		ldr	r2, [r3]
 107 0078 1D4B     		ldr	r3, .L6
 108 007a 1340     		ands	r3, r3, r2
 109 007c 7A68     		ldr	r2, [r7, #4]
 110 007e 5268     		ldr	r2, [r2, #4]
 111 0080 1106     		lsls	r1, r2, #24
 112 0082 7A68     		ldr	r2, [r7, #4]
 113 0084 D268     		ldr	r2, [r2, #12]
 114 0086 1143     		orrs	r1, r1, r2
 115 0088 7A68     		ldr	r2, [r7, #4]
 116 008a D269     		ldr	r2, [r2, #28]
 117 008c 1143     		orrs	r1, r1, r2
 118 008e 7A68     		ldr	r2, [r7, #4]
 119 0090 126A     		ldr	r2, [r2, #32]
 120 0092 1143     		orrs	r1, r1, r2
 121 0094 7A68     		ldr	r2, [r7, #4]
 122 0096 1268     		ldr	r2, [r2]
 123 0098 0B43     		orrs	r3, r3, r1
 124 009a 1360     		str	r3, [r2]
 363:Drivers/STM32F7xx_HAL_Driver/Src/stm32f7xx_hal_qspi.c ****                ((hqspi->Init.ClockPrescaler << QUADSPI_CR_PRESCALER_Pos) |
 364:Drivers/STM32F7xx_HAL_Driver/Src/stm32f7xx_hal_qspi.c ****                 hqspi->Init.SampleShifting  | hqspi->Init.FlashID | hqspi->Init.DualFlash));
 365:Drivers/STM32F7xx_HAL_Driver/Src/stm32f7xx_hal_qspi.c **** 
 366:Drivers/STM32F7xx_HAL_Driver/Src/stm32f7xx_hal_qspi.c ****     /* Configure QSPI Flash Size, CS High Time and Clock Mode */
 367:Drivers/STM32F7xx_HAL_Driver/Src/stm32f7xx_hal_qspi.c ****     MODIFY_REG(hqspi->Instance->DCR, (QUADSPI_DCR_FSIZE | QUADSPI_DCR_CSHT | QUADSPI_DCR_CKMODE),
 125              		.loc 1 367 5
 126 009c 7B68     		ldr	r3, [r7, #4]
 127 009e 1B68     		ldr	r3, [r3]
 128 00a0 5A68     		ldr	r2, [r3, #4]
 129 00a2 144B     		ldr	r3, .L6+4
 130 00a4 1340     		ands	r3, r3, r2
 131 00a6 7A68     		ldr	r2, [r7, #4]
 132 00a8 1269     		ldr	r2, [r2, #16]
 133 00aa 1104     		lsls	r1, r2, #16
 134 00ac 7A68     		ldr	r2, [r7, #4]
 135 00ae 5269     		ldr	r2, [r2, #20]
 136 00b0 1143     		orrs	r1, r1, r2
 137 00b2 7A68     		ldr	r2, [r7, #4]
 138 00b4 9269     		ldr	r2, [r2, #24]
 139 00b6 1143     		orrs	r1, r1, r2
 140 00b8 7A68     		ldr	r2, [r7, #4]
 141 00ba 1268     		ldr	r2, [r2]
 142 00bc 0B43     		orrs	r3, r3, r1
 143 00be 5360     		str	r3, [r2, #4]
 368:Drivers/STM32F7xx_HAL_Driver/Src/stm32f7xx_hal_qspi.c ****                ((hqspi->Init.FlashSize << QUADSPI_DCR_FSIZE_Pos) |
 369:Drivers/STM32F7xx_HAL_Driver/Src/stm32f7xx_hal_qspi.c ****                 hqspi->Init.ChipSelectHighTime | hqspi->Init.ClockMode));
 370:Drivers/STM32F7xx_HAL_Driver/Src/stm32f7xx_hal_qspi.c **** 
 371:Drivers/STM32F7xx_HAL_Driver/Src/stm32f7xx_hal_qspi.c ****     /* Enable the QSPI peripheral */
ARM GAS  C:\Users\jisu8\AppData\Local\Temp\ccA6Ygqq.s 			page 10


 372:Drivers/STM32F7xx_HAL_Driver/Src/stm32f7xx_hal_qspi.c ****     __HAL_QSPI_ENABLE(hqspi);
 144              		.loc 1 372 5
 145 00c0 7B68     		ldr	r3, [r7, #4]
 146 00c2 1B68     		ldr	r3, [r3]
 147 00c4 1A68     		ldr	r2, [r3]
 148 00c6 7B68     		ldr	r3, [r7, #4]
 149 00c8 1B68     		ldr	r3, [r3]
 150 00ca 42F00102 		orr	r2, r2, #1
 151 00ce 1A60     		str	r2, [r3]
 373:Drivers/STM32F7xx_HAL_Driver/Src/stm32f7xx_hal_qspi.c **** 
 374:Drivers/STM32F7xx_HAL_Driver/Src/stm32f7xx_hal_qspi.c ****     /* Set QSPI error code to none */
 375:Drivers/STM32F7xx_HAL_Driver/Src/stm32f7xx_hal_qspi.c ****     hqspi->ErrorCode = HAL_QSPI_ERROR_NONE;
 152              		.loc 1 375 22
 153 00d0 7B68     		ldr	r3, [r7, #4]
 154 00d2 0022     		movs	r2, #0
 155 00d4 5A64     		str	r2, [r3, #68]
 376:Drivers/STM32F7xx_HAL_Driver/Src/stm32f7xx_hal_qspi.c **** 
 377:Drivers/STM32F7xx_HAL_Driver/Src/stm32f7xx_hal_qspi.c ****     /* Initialize the QSPI state */
 378:Drivers/STM32F7xx_HAL_Driver/Src/stm32f7xx_hal_qspi.c ****     hqspi->State = HAL_QSPI_STATE_READY;
 156              		.loc 1 378 18
 157 00d6 7B68     		ldr	r3, [r7, #4]
 158 00d8 0122     		movs	r2, #1
 159 00da 83F84120 		strb	r2, [r3, #65]
 160              	.L5:
 379:Drivers/STM32F7xx_HAL_Driver/Src/stm32f7xx_hal_qspi.c ****   }
 380:Drivers/STM32F7xx_HAL_Driver/Src/stm32f7xx_hal_qspi.c **** 
 381:Drivers/STM32F7xx_HAL_Driver/Src/stm32f7xx_hal_qspi.c ****   /* Release Lock */
 382:Drivers/STM32F7xx_HAL_Driver/Src/stm32f7xx_hal_qspi.c ****   __HAL_UNLOCK(hqspi);
 161              		.loc 1 382 3
 162 00de 7B68     		ldr	r3, [r7, #4]
 163 00e0 0022     		movs	r2, #0
 164 00e2 83F84020 		strb	r2, [r3, #64]
 383:Drivers/STM32F7xx_HAL_Driver/Src/stm32f7xx_hal_qspi.c **** 
 384:Drivers/STM32F7xx_HAL_Driver/Src/stm32f7xx_hal_qspi.c ****   /* Return function status */
 385:Drivers/STM32F7xx_HAL_Driver/Src/stm32f7xx_hal_qspi.c ****   return status;
 165              		.loc 1 385 10
 166 00e6 FB7A     		ldrb	r3, [r7, #11]	@ zero_extendqisi2
 167              	.L3:
 386:Drivers/STM32F7xx_HAL_Driver/Src/stm32f7xx_hal_qspi.c **** }
 168              		.loc 1 386 1
 169 00e8 1846     		mov	r0, r3
 170 00ea 1037     		adds	r7, r7, #16
 171              	.LCFI3:
 172              		.cfi_def_cfa_offset 8
 173 00ec BD46     		mov	sp, r7
 174              	.LCFI4:
 175              		.cfi_def_cfa_register 13
 176              		@ sp needed
 177 00ee 80BD     		pop	{r7, pc}
 178              	.L7:
 179              		.align	2
 180              	.L6:
 181 00f0 2FFFFF00 		.word	16777007
 182 00f4 FEF8E0FF 		.word	-2033410
 183              		.cfi_endproc
 184              	.LFE141:
 186              		.section	.text.HAL_QSPI_DeInit,"ax",%progbits
ARM GAS  C:\Users\jisu8\AppData\Local\Temp\ccA6Ygqq.s 			page 11


 187              		.align	1
 188              		.global	HAL_QSPI_DeInit
 189              		.syntax unified
 190              		.thumb
 191              		.thumb_func
 193              	HAL_QSPI_DeInit:
 194              	.LFB142:
 387:Drivers/STM32F7xx_HAL_Driver/Src/stm32f7xx_hal_qspi.c **** 
 388:Drivers/STM32F7xx_HAL_Driver/Src/stm32f7xx_hal_qspi.c **** /**
 389:Drivers/STM32F7xx_HAL_Driver/Src/stm32f7xx_hal_qspi.c ****   * @brief De-Initialize the QSPI peripheral.
 390:Drivers/STM32F7xx_HAL_Driver/Src/stm32f7xx_hal_qspi.c ****   * @param hqspi QSPI handle
 391:Drivers/STM32F7xx_HAL_Driver/Src/stm32f7xx_hal_qspi.c ****   * @retval HAL status
 392:Drivers/STM32F7xx_HAL_Driver/Src/stm32f7xx_hal_qspi.c ****   */
 393:Drivers/STM32F7xx_HAL_Driver/Src/stm32f7xx_hal_qspi.c **** HAL_StatusTypeDef HAL_QSPI_DeInit(QSPI_HandleTypeDef *hqspi)
 394:Drivers/STM32F7xx_HAL_Driver/Src/stm32f7xx_hal_qspi.c **** {
 195              		.loc 1 394 1
 196              		.cfi_startproc
 197              		@ args = 0, pretend = 0, frame = 8
 198              		@ frame_needed = 1, uses_anonymous_args = 0
 199 0000 80B5     		push	{r7, lr}
 200              	.LCFI5:
 201              		.cfi_def_cfa_offset 8
 202              		.cfi_offset 7, -8
 203              		.cfi_offset 14, -4
 204 0002 82B0     		sub	sp, sp, #8
 205              	.LCFI6:
 206              		.cfi_def_cfa_offset 16
 207 0004 00AF     		add	r7, sp, #0
 208              	.LCFI7:
 209              		.cfi_def_cfa_register 7
 210 0006 7860     		str	r0, [r7, #4]
 395:Drivers/STM32F7xx_HAL_Driver/Src/stm32f7xx_hal_qspi.c ****   /* Check the QSPI handle allocation */
 396:Drivers/STM32F7xx_HAL_Driver/Src/stm32f7xx_hal_qspi.c ****   if(hqspi == NULL)
 211              		.loc 1 396 5
 212 0008 7B68     		ldr	r3, [r7, #4]
 213 000a 002B     		cmp	r3, #0
 214 000c 01D1     		bne	.L9
 397:Drivers/STM32F7xx_HAL_Driver/Src/stm32f7xx_hal_qspi.c ****   {
 398:Drivers/STM32F7xx_HAL_Driver/Src/stm32f7xx_hal_qspi.c ****     return HAL_ERROR;
 215              		.loc 1 398 12
 216 000e 0123     		movs	r3, #1
 217 0010 16E0     		b	.L10
 218              	.L9:
 399:Drivers/STM32F7xx_HAL_Driver/Src/stm32f7xx_hal_qspi.c ****   }
 400:Drivers/STM32F7xx_HAL_Driver/Src/stm32f7xx_hal_qspi.c **** 
 401:Drivers/STM32F7xx_HAL_Driver/Src/stm32f7xx_hal_qspi.c ****   /* Disable the QSPI Peripheral Clock */
 402:Drivers/STM32F7xx_HAL_Driver/Src/stm32f7xx_hal_qspi.c ****   __HAL_QSPI_DISABLE(hqspi);
 219              		.loc 1 402 3
 220 0012 7B68     		ldr	r3, [r7, #4]
 221 0014 1B68     		ldr	r3, [r3]
 222 0016 1A68     		ldr	r2, [r3]
 223 0018 7B68     		ldr	r3, [r7, #4]
 224 001a 1B68     		ldr	r3, [r3]
 225 001c 22F00102 		bic	r2, r2, #1
 226 0020 1A60     		str	r2, [r3]
 403:Drivers/STM32F7xx_HAL_Driver/Src/stm32f7xx_hal_qspi.c **** 
 404:Drivers/STM32F7xx_HAL_Driver/Src/stm32f7xx_hal_qspi.c **** #if (USE_HAL_QSPI_REGISTER_CALLBACKS == 1)
ARM GAS  C:\Users\jisu8\AppData\Local\Temp\ccA6Ygqq.s 			page 12


 405:Drivers/STM32F7xx_HAL_Driver/Src/stm32f7xx_hal_qspi.c ****   if(hqspi->MspDeInitCallback == NULL)
 406:Drivers/STM32F7xx_HAL_Driver/Src/stm32f7xx_hal_qspi.c ****   {
 407:Drivers/STM32F7xx_HAL_Driver/Src/stm32f7xx_hal_qspi.c ****     hqspi->MspDeInitCallback = HAL_QSPI_MspDeInit;
 408:Drivers/STM32F7xx_HAL_Driver/Src/stm32f7xx_hal_qspi.c ****   }
 409:Drivers/STM32F7xx_HAL_Driver/Src/stm32f7xx_hal_qspi.c **** 
 410:Drivers/STM32F7xx_HAL_Driver/Src/stm32f7xx_hal_qspi.c ****   /* DeInit the low level hardware */
 411:Drivers/STM32F7xx_HAL_Driver/Src/stm32f7xx_hal_qspi.c ****   hqspi->MspDeInitCallback(hqspi);
 412:Drivers/STM32F7xx_HAL_Driver/Src/stm32f7xx_hal_qspi.c **** #else
 413:Drivers/STM32F7xx_HAL_Driver/Src/stm32f7xx_hal_qspi.c ****   /* DeInit the low level hardware: GPIO, CLOCK, NVIC... */
 414:Drivers/STM32F7xx_HAL_Driver/Src/stm32f7xx_hal_qspi.c ****   HAL_QSPI_MspDeInit(hqspi);
 227              		.loc 1 414 3
 228 0022 7868     		ldr	r0, [r7, #4]
 229 0024 FFF7FEFF 		bl	HAL_QSPI_MspDeInit
 415:Drivers/STM32F7xx_HAL_Driver/Src/stm32f7xx_hal_qspi.c **** #endif
 416:Drivers/STM32F7xx_HAL_Driver/Src/stm32f7xx_hal_qspi.c **** 
 417:Drivers/STM32F7xx_HAL_Driver/Src/stm32f7xx_hal_qspi.c ****   /* Set QSPI error code to none */
 418:Drivers/STM32F7xx_HAL_Driver/Src/stm32f7xx_hal_qspi.c ****   hqspi->ErrorCode = HAL_QSPI_ERROR_NONE;
 230              		.loc 1 418 20
 231 0028 7B68     		ldr	r3, [r7, #4]
 232 002a 0022     		movs	r2, #0
 233 002c 5A64     		str	r2, [r3, #68]
 419:Drivers/STM32F7xx_HAL_Driver/Src/stm32f7xx_hal_qspi.c **** 
 420:Drivers/STM32F7xx_HAL_Driver/Src/stm32f7xx_hal_qspi.c ****   /* Initialize the QSPI state */
 421:Drivers/STM32F7xx_HAL_Driver/Src/stm32f7xx_hal_qspi.c ****   hqspi->State = HAL_QSPI_STATE_RESET;
 234              		.loc 1 421 16
 235 002e 7B68     		ldr	r3, [r7, #4]
 236 0030 0022     		movs	r2, #0
 237 0032 83F84120 		strb	r2, [r3, #65]
 422:Drivers/STM32F7xx_HAL_Driver/Src/stm32f7xx_hal_qspi.c **** 
 423:Drivers/STM32F7xx_HAL_Driver/Src/stm32f7xx_hal_qspi.c ****   /* Release Lock */
 424:Drivers/STM32F7xx_HAL_Driver/Src/stm32f7xx_hal_qspi.c ****   __HAL_UNLOCK(hqspi);
 238              		.loc 1 424 3
 239 0036 7B68     		ldr	r3, [r7, #4]
 240 0038 0022     		movs	r2, #0
 241 003a 83F84020 		strb	r2, [r3, #64]
 425:Drivers/STM32F7xx_HAL_Driver/Src/stm32f7xx_hal_qspi.c **** 
 426:Drivers/STM32F7xx_HAL_Driver/Src/stm32f7xx_hal_qspi.c ****   return HAL_OK;
 242              		.loc 1 426 10
 243 003e 0023     		movs	r3, #0
 244              	.L10:
 427:Drivers/STM32F7xx_HAL_Driver/Src/stm32f7xx_hal_qspi.c **** }
 245              		.loc 1 427 1
 246 0040 1846     		mov	r0, r3
 247 0042 0837     		adds	r7, r7, #8
 248              	.LCFI8:
 249              		.cfi_def_cfa_offset 8
 250 0044 BD46     		mov	sp, r7
 251              	.LCFI9:
 252              		.cfi_def_cfa_register 13
 253              		@ sp needed
 254 0046 80BD     		pop	{r7, pc}
 255              		.cfi_endproc
 256              	.LFE142:
 258              		.section	.text.HAL_QSPI_MspInit,"ax",%progbits
 259              		.align	1
 260              		.weak	HAL_QSPI_MspInit
 261              		.syntax unified
ARM GAS  C:\Users\jisu8\AppData\Local\Temp\ccA6Ygqq.s 			page 13


 262              		.thumb
 263              		.thumb_func
 265              	HAL_QSPI_MspInit:
 266              	.LFB143:
 428:Drivers/STM32F7xx_HAL_Driver/Src/stm32f7xx_hal_qspi.c **** 
 429:Drivers/STM32F7xx_HAL_Driver/Src/stm32f7xx_hal_qspi.c **** /**
 430:Drivers/STM32F7xx_HAL_Driver/Src/stm32f7xx_hal_qspi.c ****   * @brief Initialize the QSPI MSP.
 431:Drivers/STM32F7xx_HAL_Driver/Src/stm32f7xx_hal_qspi.c ****   * @param hqspi QSPI handle
 432:Drivers/STM32F7xx_HAL_Driver/Src/stm32f7xx_hal_qspi.c ****   * @retval None
 433:Drivers/STM32F7xx_HAL_Driver/Src/stm32f7xx_hal_qspi.c ****   */
 434:Drivers/STM32F7xx_HAL_Driver/Src/stm32f7xx_hal_qspi.c **** __weak void HAL_QSPI_MspInit(QSPI_HandleTypeDef *hqspi)
 435:Drivers/STM32F7xx_HAL_Driver/Src/stm32f7xx_hal_qspi.c **** {
 267              		.loc 1 435 1
 268              		.cfi_startproc
 269              		@ args = 0, pretend = 0, frame = 8
 270              		@ frame_needed = 1, uses_anonymous_args = 0
 271              		@ link register save eliminated.
 272 0000 80B4     		push	{r7}
 273              	.LCFI10:
 274              		.cfi_def_cfa_offset 4
 275              		.cfi_offset 7, -4
 276 0002 83B0     		sub	sp, sp, #12
 277              	.LCFI11:
 278              		.cfi_def_cfa_offset 16
 279 0004 00AF     		add	r7, sp, #0
 280              	.LCFI12:
 281              		.cfi_def_cfa_register 7
 282 0006 7860     		str	r0, [r7, #4]
 436:Drivers/STM32F7xx_HAL_Driver/Src/stm32f7xx_hal_qspi.c ****   /* Prevent unused argument(s) compilation warning */
 437:Drivers/STM32F7xx_HAL_Driver/Src/stm32f7xx_hal_qspi.c ****   UNUSED(hqspi);
 438:Drivers/STM32F7xx_HAL_Driver/Src/stm32f7xx_hal_qspi.c **** 
 439:Drivers/STM32F7xx_HAL_Driver/Src/stm32f7xx_hal_qspi.c ****   /* NOTE : This function should not be modified, when the callback is needed,
 440:Drivers/STM32F7xx_HAL_Driver/Src/stm32f7xx_hal_qspi.c ****             the HAL_QSPI_MspInit can be implemented in the user file
 441:Drivers/STM32F7xx_HAL_Driver/Src/stm32f7xx_hal_qspi.c ****    */
 442:Drivers/STM32F7xx_HAL_Driver/Src/stm32f7xx_hal_qspi.c **** }
 283              		.loc 1 442 1
 284 0008 00BF     		nop
 285 000a 0C37     		adds	r7, r7, #12
 286              	.LCFI13:
 287              		.cfi_def_cfa_offset 4
 288 000c BD46     		mov	sp, r7
 289              	.LCFI14:
 290              		.cfi_def_cfa_register 13
 291              		@ sp needed
 292 000e 5DF8047B 		ldr	r7, [sp], #4
 293              	.LCFI15:
 294              		.cfi_restore 7
 295              		.cfi_def_cfa_offset 0
 296 0012 7047     		bx	lr
 297              		.cfi_endproc
 298              	.LFE143:
 300              		.section	.text.HAL_QSPI_MspDeInit,"ax",%progbits
 301              		.align	1
 302              		.weak	HAL_QSPI_MspDeInit
 303              		.syntax unified
 304              		.thumb
 305              		.thumb_func
ARM GAS  C:\Users\jisu8\AppData\Local\Temp\ccA6Ygqq.s 			page 14


 307              	HAL_QSPI_MspDeInit:
 308              	.LFB144:
 443:Drivers/STM32F7xx_HAL_Driver/Src/stm32f7xx_hal_qspi.c **** 
 444:Drivers/STM32F7xx_HAL_Driver/Src/stm32f7xx_hal_qspi.c **** /**
 445:Drivers/STM32F7xx_HAL_Driver/Src/stm32f7xx_hal_qspi.c ****   * @brief DeInitialize the QSPI MSP.
 446:Drivers/STM32F7xx_HAL_Driver/Src/stm32f7xx_hal_qspi.c ****   * @param hqspi QSPI handle
 447:Drivers/STM32F7xx_HAL_Driver/Src/stm32f7xx_hal_qspi.c ****   * @retval None
 448:Drivers/STM32F7xx_HAL_Driver/Src/stm32f7xx_hal_qspi.c ****   */
 449:Drivers/STM32F7xx_HAL_Driver/Src/stm32f7xx_hal_qspi.c **** __weak void HAL_QSPI_MspDeInit(QSPI_HandleTypeDef *hqspi)
 450:Drivers/STM32F7xx_HAL_Driver/Src/stm32f7xx_hal_qspi.c **** {
 309              		.loc 1 450 1
 310              		.cfi_startproc
 311              		@ args = 0, pretend = 0, frame = 8
 312              		@ frame_needed = 1, uses_anonymous_args = 0
 313              		@ link register save eliminated.
 314 0000 80B4     		push	{r7}
 315              	.LCFI16:
 316              		.cfi_def_cfa_offset 4
 317              		.cfi_offset 7, -4
 318 0002 83B0     		sub	sp, sp, #12
 319              	.LCFI17:
 320              		.cfi_def_cfa_offset 16
 321 0004 00AF     		add	r7, sp, #0
 322              	.LCFI18:
 323              		.cfi_def_cfa_register 7
 324 0006 7860     		str	r0, [r7, #4]
 451:Drivers/STM32F7xx_HAL_Driver/Src/stm32f7xx_hal_qspi.c ****   /* Prevent unused argument(s) compilation warning */
 452:Drivers/STM32F7xx_HAL_Driver/Src/stm32f7xx_hal_qspi.c ****   UNUSED(hqspi);
 453:Drivers/STM32F7xx_HAL_Driver/Src/stm32f7xx_hal_qspi.c **** 
 454:Drivers/STM32F7xx_HAL_Driver/Src/stm32f7xx_hal_qspi.c ****   /* NOTE : This function should not be modified, when the callback is needed,
 455:Drivers/STM32F7xx_HAL_Driver/Src/stm32f7xx_hal_qspi.c ****             the HAL_QSPI_MspDeInit can be implemented in the user file
 456:Drivers/STM32F7xx_HAL_Driver/Src/stm32f7xx_hal_qspi.c ****    */
 457:Drivers/STM32F7xx_HAL_Driver/Src/stm32f7xx_hal_qspi.c **** }
 325              		.loc 1 457 1
 326 0008 00BF     		nop
 327 000a 0C37     		adds	r7, r7, #12
 328              	.LCFI19:
 329              		.cfi_def_cfa_offset 4
 330 000c BD46     		mov	sp, r7
 331              	.LCFI20:
 332              		.cfi_def_cfa_register 13
 333              		@ sp needed
 334 000e 5DF8047B 		ldr	r7, [sp], #4
 335              	.LCFI21:
 336              		.cfi_restore 7
 337              		.cfi_def_cfa_offset 0
 338 0012 7047     		bx	lr
 339              		.cfi_endproc
 340              	.LFE144:
 342              		.section	.text.HAL_QSPI_IRQHandler,"ax",%progbits
 343              		.align	1
 344              		.global	HAL_QSPI_IRQHandler
 345              		.syntax unified
 346              		.thumb
 347              		.thumb_func
 349              	HAL_QSPI_IRQHandler:
 350              	.LFB145:
ARM GAS  C:\Users\jisu8\AppData\Local\Temp\ccA6Ygqq.s 			page 15


 458:Drivers/STM32F7xx_HAL_Driver/Src/stm32f7xx_hal_qspi.c **** 
 459:Drivers/STM32F7xx_HAL_Driver/Src/stm32f7xx_hal_qspi.c **** /**
 460:Drivers/STM32F7xx_HAL_Driver/Src/stm32f7xx_hal_qspi.c ****   * @}
 461:Drivers/STM32F7xx_HAL_Driver/Src/stm32f7xx_hal_qspi.c ****   */
 462:Drivers/STM32F7xx_HAL_Driver/Src/stm32f7xx_hal_qspi.c **** 
 463:Drivers/STM32F7xx_HAL_Driver/Src/stm32f7xx_hal_qspi.c **** /** @defgroup QSPI_Exported_Functions_Group2 Input and Output operation functions
 464:Drivers/STM32F7xx_HAL_Driver/Src/stm32f7xx_hal_qspi.c ****   *  @brief QSPI Transmit/Receive functions
 465:Drivers/STM32F7xx_HAL_Driver/Src/stm32f7xx_hal_qspi.c ****   *
 466:Drivers/STM32F7xx_HAL_Driver/Src/stm32f7xx_hal_qspi.c **** @verbatim
 467:Drivers/STM32F7xx_HAL_Driver/Src/stm32f7xx_hal_qspi.c ****  ===============================================================================
 468:Drivers/STM32F7xx_HAL_Driver/Src/stm32f7xx_hal_qspi.c ****                       ##### IO operation functions #####
 469:Drivers/STM32F7xx_HAL_Driver/Src/stm32f7xx_hal_qspi.c ****  ===============================================================================
 470:Drivers/STM32F7xx_HAL_Driver/Src/stm32f7xx_hal_qspi.c ****     [..]
 471:Drivers/STM32F7xx_HAL_Driver/Src/stm32f7xx_hal_qspi.c ****     This subsection provides a set of functions allowing to :
 472:Drivers/STM32F7xx_HAL_Driver/Src/stm32f7xx_hal_qspi.c ****       (+) Handle the interrupts.
 473:Drivers/STM32F7xx_HAL_Driver/Src/stm32f7xx_hal_qspi.c ****       (+) Handle the command sequence.
 474:Drivers/STM32F7xx_HAL_Driver/Src/stm32f7xx_hal_qspi.c ****       (+) Transmit data in blocking, interrupt or DMA mode.
 475:Drivers/STM32F7xx_HAL_Driver/Src/stm32f7xx_hal_qspi.c ****       (+) Receive data in blocking, interrupt or DMA mode.
 476:Drivers/STM32F7xx_HAL_Driver/Src/stm32f7xx_hal_qspi.c ****       (+) Manage the auto-polling functional mode.
 477:Drivers/STM32F7xx_HAL_Driver/Src/stm32f7xx_hal_qspi.c ****       (+) Manage the memory-mapped functional mode.
 478:Drivers/STM32F7xx_HAL_Driver/Src/stm32f7xx_hal_qspi.c **** 
 479:Drivers/STM32F7xx_HAL_Driver/Src/stm32f7xx_hal_qspi.c **** @endverbatim
 480:Drivers/STM32F7xx_HAL_Driver/Src/stm32f7xx_hal_qspi.c ****   * @{
 481:Drivers/STM32F7xx_HAL_Driver/Src/stm32f7xx_hal_qspi.c ****   */
 482:Drivers/STM32F7xx_HAL_Driver/Src/stm32f7xx_hal_qspi.c **** 
 483:Drivers/STM32F7xx_HAL_Driver/Src/stm32f7xx_hal_qspi.c **** /**
 484:Drivers/STM32F7xx_HAL_Driver/Src/stm32f7xx_hal_qspi.c ****   * @brief Handle QSPI interrupt request.
 485:Drivers/STM32F7xx_HAL_Driver/Src/stm32f7xx_hal_qspi.c ****   * @param hqspi QSPI handle
 486:Drivers/STM32F7xx_HAL_Driver/Src/stm32f7xx_hal_qspi.c ****   * @retval None
 487:Drivers/STM32F7xx_HAL_Driver/Src/stm32f7xx_hal_qspi.c ****   */
 488:Drivers/STM32F7xx_HAL_Driver/Src/stm32f7xx_hal_qspi.c **** void HAL_QSPI_IRQHandler(QSPI_HandleTypeDef *hqspi)
 489:Drivers/STM32F7xx_HAL_Driver/Src/stm32f7xx_hal_qspi.c **** {
 351              		.loc 1 489 1
 352              		.cfi_startproc
 353              		@ args = 0, pretend = 0, frame = 24
 354              		@ frame_needed = 1, uses_anonymous_args = 0
 355 0000 80B5     		push	{r7, lr}
 356              	.LCFI22:
 357              		.cfi_def_cfa_offset 8
 358              		.cfi_offset 7, -8
 359              		.cfi_offset 14, -4
 360 0002 86B0     		sub	sp, sp, #24
 361              	.LCFI23:
 362              		.cfi_def_cfa_offset 32
 363 0004 00AF     		add	r7, sp, #0
 364              	.LCFI24:
 365              		.cfi_def_cfa_register 7
 366 0006 7860     		str	r0, [r7, #4]
 490:Drivers/STM32F7xx_HAL_Driver/Src/stm32f7xx_hal_qspi.c ****   __IO uint32_t *data_reg;
 491:Drivers/STM32F7xx_HAL_Driver/Src/stm32f7xx_hal_qspi.c ****   uint32_t flag = READ_REG(hqspi->Instance->SR);
 367              		.loc 1 491 19
 368 0008 7B68     		ldr	r3, [r7, #4]
 369 000a 1B68     		ldr	r3, [r3]
 370              		.loc 1 491 12
 371 000c 9B68     		ldr	r3, [r3, #8]
 372 000e 7B61     		str	r3, [r7, #20]
 492:Drivers/STM32F7xx_HAL_Driver/Src/stm32f7xx_hal_qspi.c ****   uint32_t itsource = READ_REG(hqspi->Instance->CR);
ARM GAS  C:\Users\jisu8\AppData\Local\Temp\ccA6Ygqq.s 			page 16


 373              		.loc 1 492 23
 374 0010 7B68     		ldr	r3, [r7, #4]
 375 0012 1B68     		ldr	r3, [r3]
 376              		.loc 1 492 12
 377 0014 1B68     		ldr	r3, [r3]
 378 0016 3B61     		str	r3, [r7, #16]
 493:Drivers/STM32F7xx_HAL_Driver/Src/stm32f7xx_hal_qspi.c **** 
 494:Drivers/STM32F7xx_HAL_Driver/Src/stm32f7xx_hal_qspi.c ****   /* QSPI Fifo Threshold interrupt occurred ----------------------------------*/
 495:Drivers/STM32F7xx_HAL_Driver/Src/stm32f7xx_hal_qspi.c ****   if(((flag & QSPI_FLAG_FT) != 0U) && ((itsource & QSPI_IT_FT) != 0U))
 379              		.loc 1 495 13
 380 0018 7B69     		ldr	r3, [r7, #20]
 381 001a 03F00403 		and	r3, r3, #4
 382              		.loc 1 495 5
 383 001e 002B     		cmp	r3, #0
 384 0020 64D0     		beq	.L14
 385              		.loc 1 495 50 discriminator 1
 386 0022 3B69     		ldr	r3, [r7, #16]
 387 0024 03F48023 		and	r3, r3, #262144
 388              		.loc 1 495 36 discriminator 1
 389 0028 002B     		cmp	r3, #0
 390 002a 5FD0     		beq	.L14
 496:Drivers/STM32F7xx_HAL_Driver/Src/stm32f7xx_hal_qspi.c ****   {
 497:Drivers/STM32F7xx_HAL_Driver/Src/stm32f7xx_hal_qspi.c ****     data_reg = &hqspi->Instance->DR;
 391              		.loc 1 497 22
 392 002c 7B68     		ldr	r3, [r7, #4]
 393 002e 1B68     		ldr	r3, [r3]
 394              		.loc 1 497 14
 395 0030 2033     		adds	r3, r3, #32
 396 0032 FB60     		str	r3, [r7, #12]
 498:Drivers/STM32F7xx_HAL_Driver/Src/stm32f7xx_hal_qspi.c **** 
 499:Drivers/STM32F7xx_HAL_Driver/Src/stm32f7xx_hal_qspi.c ****     if(hqspi->State == HAL_QSPI_STATE_BUSY_INDIRECT_TX)
 397              		.loc 1 499 13
 398 0034 7B68     		ldr	r3, [r7, #4]
 399 0036 93F84130 		ldrb	r3, [r3, #65]
 400 003a DBB2     		uxtb	r3, r3
 401              		.loc 1 499 7
 402 003c 122B     		cmp	r3, #18
 403 003e 25D1     		bne	.L15
 500:Drivers/STM32F7xx_HAL_Driver/Src/stm32f7xx_hal_qspi.c ****     {
 501:Drivers/STM32F7xx_HAL_Driver/Src/stm32f7xx_hal_qspi.c ****       /* Transmission process */
 502:Drivers/STM32F7xx_HAL_Driver/Src/stm32f7xx_hal_qspi.c ****       while(__HAL_QSPI_GET_FLAG(hqspi, QSPI_FLAG_FT) != RESET)
 404              		.loc 1 502 12
 405 0040 1CE0     		b	.L16
 406              	.L19:
 503:Drivers/STM32F7xx_HAL_Driver/Src/stm32f7xx_hal_qspi.c ****       {
 504:Drivers/STM32F7xx_HAL_Driver/Src/stm32f7xx_hal_qspi.c ****         if (hqspi->TxXferCount > 0U)
 407              		.loc 1 504 18
 408 0042 7B68     		ldr	r3, [r7, #4]
 409 0044 DB6A     		ldr	r3, [r3, #44]
 410              		.loc 1 504 12
 411 0046 002B     		cmp	r3, #0
 412 0048 0FD0     		beq	.L17
 505:Drivers/STM32F7xx_HAL_Driver/Src/stm32f7xx_hal_qspi.c ****         {
 506:Drivers/STM32F7xx_HAL_Driver/Src/stm32f7xx_hal_qspi.c ****           /* Fill the FIFO until the threshold is reached */
 507:Drivers/STM32F7xx_HAL_Driver/Src/stm32f7xx_hal_qspi.c ****           *((__IO uint8_t *)data_reg) = *hqspi->pTxBuffPtr;
 413              		.loc 1 507 47
 414 004a 7B68     		ldr	r3, [r7, #4]
ARM GAS  C:\Users\jisu8\AppData\Local\Temp\ccA6Ygqq.s 			page 17


 415 004c 5B6A     		ldr	r3, [r3, #36]
 416              		.loc 1 507 41
 417 004e 1A78     		ldrb	r2, [r3]	@ zero_extendqisi2
 418              		.loc 1 507 39
 419 0050 FB68     		ldr	r3, [r7, #12]
 420 0052 1A70     		strb	r2, [r3]
 508:Drivers/STM32F7xx_HAL_Driver/Src/stm32f7xx_hal_qspi.c ****           hqspi->pTxBuffPtr++;
 421              		.loc 1 508 16
 422 0054 7B68     		ldr	r3, [r7, #4]
 423 0056 5B6A     		ldr	r3, [r3, #36]
 424              		.loc 1 508 28
 425 0058 5A1C     		adds	r2, r3, #1
 426 005a 7B68     		ldr	r3, [r7, #4]
 427 005c 5A62     		str	r2, [r3, #36]
 509:Drivers/STM32F7xx_HAL_Driver/Src/stm32f7xx_hal_qspi.c ****           hqspi->TxXferCount--;
 428              		.loc 1 509 16
 429 005e 7B68     		ldr	r3, [r7, #4]
 430 0060 DB6A     		ldr	r3, [r3, #44]
 431              		.loc 1 509 29
 432 0062 5A1E     		subs	r2, r3, #1
 433 0064 7B68     		ldr	r3, [r7, #4]
 434 0066 DA62     		str	r2, [r3, #44]
 435 0068 08E0     		b	.L16
 436              	.L17:
 510:Drivers/STM32F7xx_HAL_Driver/Src/stm32f7xx_hal_qspi.c ****         }
 511:Drivers/STM32F7xx_HAL_Driver/Src/stm32f7xx_hal_qspi.c ****         else
 512:Drivers/STM32F7xx_HAL_Driver/Src/stm32f7xx_hal_qspi.c ****         {
 513:Drivers/STM32F7xx_HAL_Driver/Src/stm32f7xx_hal_qspi.c ****           /* No more data available for the transfer */
 514:Drivers/STM32F7xx_HAL_Driver/Src/stm32f7xx_hal_qspi.c ****           /* Disable the QSPI FIFO Threshold Interrupt */
 515:Drivers/STM32F7xx_HAL_Driver/Src/stm32f7xx_hal_qspi.c ****           __HAL_QSPI_DISABLE_IT(hqspi, QSPI_IT_FT);
 437              		.loc 1 515 11
 438 006a 7B68     		ldr	r3, [r7, #4]
 439 006c 1B68     		ldr	r3, [r3]
 440 006e 1A68     		ldr	r2, [r3]
 441 0070 7B68     		ldr	r3, [r7, #4]
 442 0072 1B68     		ldr	r3, [r3]
 443 0074 22F48022 		bic	r2, r2, #262144
 444 0078 1A60     		str	r2, [r3]
 516:Drivers/STM32F7xx_HAL_Driver/Src/stm32f7xx_hal_qspi.c ****           break;
 445              		.loc 1 516 11
 446 007a 33E0     		b	.L20
 447              	.L16:
 502:Drivers/STM32F7xx_HAL_Driver/Src/stm32f7xx_hal_qspi.c ****       {
 448              		.loc 1 502 13
 449 007c 7B68     		ldr	r3, [r7, #4]
 450 007e 1B68     		ldr	r3, [r3]
 451 0080 9B68     		ldr	r3, [r3, #8]
 452 0082 03F00403 		and	r3, r3, #4
 502:Drivers/STM32F7xx_HAL_Driver/Src/stm32f7xx_hal_qspi.c ****       {
 453              		.loc 1 502 12
 454 0086 002B     		cmp	r3, #0
 455 0088 DBD1     		bne	.L19
 456 008a 2BE0     		b	.L20
 457              	.L15:
 517:Drivers/STM32F7xx_HAL_Driver/Src/stm32f7xx_hal_qspi.c ****         }
 518:Drivers/STM32F7xx_HAL_Driver/Src/stm32f7xx_hal_qspi.c ****       }
 519:Drivers/STM32F7xx_HAL_Driver/Src/stm32f7xx_hal_qspi.c ****     }
ARM GAS  C:\Users\jisu8\AppData\Local\Temp\ccA6Ygqq.s 			page 18


 520:Drivers/STM32F7xx_HAL_Driver/Src/stm32f7xx_hal_qspi.c ****     else if(hqspi->State == HAL_QSPI_STATE_BUSY_INDIRECT_RX)
 458              		.loc 1 520 18
 459 008c 7B68     		ldr	r3, [r7, #4]
 460 008e 93F84130 		ldrb	r3, [r3, #65]
 461 0092 DBB2     		uxtb	r3, r3
 462              		.loc 1 520 12
 463 0094 222B     		cmp	r3, #34
 464 0096 25D1     		bne	.L20
 521:Drivers/STM32F7xx_HAL_Driver/Src/stm32f7xx_hal_qspi.c ****     {
 522:Drivers/STM32F7xx_HAL_Driver/Src/stm32f7xx_hal_qspi.c ****       /* Receiving Process */
 523:Drivers/STM32F7xx_HAL_Driver/Src/stm32f7xx_hal_qspi.c ****       while(__HAL_QSPI_GET_FLAG(hqspi, QSPI_FLAG_FT) != RESET)
 465              		.loc 1 523 12
 466 0098 1DE0     		b	.L21
 467              	.L24:
 524:Drivers/STM32F7xx_HAL_Driver/Src/stm32f7xx_hal_qspi.c ****       {
 525:Drivers/STM32F7xx_HAL_Driver/Src/stm32f7xx_hal_qspi.c ****         if (hqspi->RxXferCount > 0U)
 468              		.loc 1 525 18
 469 009a 7B68     		ldr	r3, [r7, #4]
 470 009c 9B6B     		ldr	r3, [r3, #56]
 471              		.loc 1 525 12
 472 009e 002B     		cmp	r3, #0
 473 00a0 10D0     		beq	.L22
 526:Drivers/STM32F7xx_HAL_Driver/Src/stm32f7xx_hal_qspi.c ****         {
 527:Drivers/STM32F7xx_HAL_Driver/Src/stm32f7xx_hal_qspi.c ****           /* Read the FIFO until the threshold is reached */
 528:Drivers/STM32F7xx_HAL_Driver/Src/stm32f7xx_hal_qspi.c ****           *hqspi->pRxBuffPtr = *((__IO uint8_t *)data_reg);
 474              		.loc 1 528 17
 475 00a2 7B68     		ldr	r3, [r7, #4]
 476 00a4 1B6B     		ldr	r3, [r3, #48]
 477              		.loc 1 528 32
 478 00a6 FA68     		ldr	r2, [r7, #12]
 479 00a8 1278     		ldrb	r2, [r2]
 480 00aa D2B2     		uxtb	r2, r2
 481              		.loc 1 528 30
 482 00ac 1A70     		strb	r2, [r3]
 529:Drivers/STM32F7xx_HAL_Driver/Src/stm32f7xx_hal_qspi.c ****           hqspi->pRxBuffPtr++;
 483              		.loc 1 529 16
 484 00ae 7B68     		ldr	r3, [r7, #4]
 485 00b0 1B6B     		ldr	r3, [r3, #48]
 486              		.loc 1 529 28
 487 00b2 5A1C     		adds	r2, r3, #1
 488 00b4 7B68     		ldr	r3, [r7, #4]
 489 00b6 1A63     		str	r2, [r3, #48]
 530:Drivers/STM32F7xx_HAL_Driver/Src/stm32f7xx_hal_qspi.c ****           hqspi->RxXferCount--;
 490              		.loc 1 530 16
 491 00b8 7B68     		ldr	r3, [r7, #4]
 492 00ba 9B6B     		ldr	r3, [r3, #56]
 493              		.loc 1 530 29
 494 00bc 5A1E     		subs	r2, r3, #1
 495 00be 7B68     		ldr	r3, [r7, #4]
 496 00c0 9A63     		str	r2, [r3, #56]
 497 00c2 08E0     		b	.L21
 498              	.L22:
 531:Drivers/STM32F7xx_HAL_Driver/Src/stm32f7xx_hal_qspi.c ****         }
 532:Drivers/STM32F7xx_HAL_Driver/Src/stm32f7xx_hal_qspi.c ****         else
 533:Drivers/STM32F7xx_HAL_Driver/Src/stm32f7xx_hal_qspi.c ****         {
 534:Drivers/STM32F7xx_HAL_Driver/Src/stm32f7xx_hal_qspi.c ****           /* All data have been received for the transfer */
 535:Drivers/STM32F7xx_HAL_Driver/Src/stm32f7xx_hal_qspi.c ****           /* Disable the QSPI FIFO Threshold Interrupt */
ARM GAS  C:\Users\jisu8\AppData\Local\Temp\ccA6Ygqq.s 			page 19


 536:Drivers/STM32F7xx_HAL_Driver/Src/stm32f7xx_hal_qspi.c ****           __HAL_QSPI_DISABLE_IT(hqspi, QSPI_IT_FT);
 499              		.loc 1 536 11
 500 00c4 7B68     		ldr	r3, [r7, #4]
 501 00c6 1B68     		ldr	r3, [r3]
 502 00c8 1A68     		ldr	r2, [r3]
 503 00ca 7B68     		ldr	r3, [r7, #4]
 504 00cc 1B68     		ldr	r3, [r3]
 505 00ce 22F48022 		bic	r2, r2, #262144
 506 00d2 1A60     		str	r2, [r3]
 537:Drivers/STM32F7xx_HAL_Driver/Src/stm32f7xx_hal_qspi.c ****           break;
 507              		.loc 1 537 11
 508 00d4 06E0     		b	.L20
 509              	.L21:
 523:Drivers/STM32F7xx_HAL_Driver/Src/stm32f7xx_hal_qspi.c ****       {
 510              		.loc 1 523 13
 511 00d6 7B68     		ldr	r3, [r7, #4]
 512 00d8 1B68     		ldr	r3, [r3]
 513 00da 9B68     		ldr	r3, [r3, #8]
 514 00dc 03F00403 		and	r3, r3, #4
 523:Drivers/STM32F7xx_HAL_Driver/Src/stm32f7xx_hal_qspi.c ****       {
 515              		.loc 1 523 12
 516 00e0 002B     		cmp	r3, #0
 517 00e2 DAD1     		bne	.L24
 518              	.L20:
 538:Drivers/STM32F7xx_HAL_Driver/Src/stm32f7xx_hal_qspi.c ****         }
 539:Drivers/STM32F7xx_HAL_Driver/Src/stm32f7xx_hal_qspi.c ****       }
 540:Drivers/STM32F7xx_HAL_Driver/Src/stm32f7xx_hal_qspi.c ****     }
 541:Drivers/STM32F7xx_HAL_Driver/Src/stm32f7xx_hal_qspi.c ****     else
 542:Drivers/STM32F7xx_HAL_Driver/Src/stm32f7xx_hal_qspi.c ****     {
 543:Drivers/STM32F7xx_HAL_Driver/Src/stm32f7xx_hal_qspi.c ****       /* Nothing to do */
 544:Drivers/STM32F7xx_HAL_Driver/Src/stm32f7xx_hal_qspi.c ****     }
 545:Drivers/STM32F7xx_HAL_Driver/Src/stm32f7xx_hal_qspi.c **** 
 546:Drivers/STM32F7xx_HAL_Driver/Src/stm32f7xx_hal_qspi.c ****     /* FIFO Threshold callback */
 547:Drivers/STM32F7xx_HAL_Driver/Src/stm32f7xx_hal_qspi.c **** #if (USE_HAL_QSPI_REGISTER_CALLBACKS == 1)
 548:Drivers/STM32F7xx_HAL_Driver/Src/stm32f7xx_hal_qspi.c ****     hqspi->FifoThresholdCallback(hqspi);
 549:Drivers/STM32F7xx_HAL_Driver/Src/stm32f7xx_hal_qspi.c **** #else
 550:Drivers/STM32F7xx_HAL_Driver/Src/stm32f7xx_hal_qspi.c ****     HAL_QSPI_FifoThresholdCallback(hqspi);
 519              		.loc 1 550 5
 520 00e4 7868     		ldr	r0, [r7, #4]
 521 00e6 FFF7FEFF 		bl	HAL_QSPI_FifoThresholdCallback
 522 00ea 42E1     		b	.L25
 523              	.L14:
 551:Drivers/STM32F7xx_HAL_Driver/Src/stm32f7xx_hal_qspi.c **** #endif
 552:Drivers/STM32F7xx_HAL_Driver/Src/stm32f7xx_hal_qspi.c ****   }
 553:Drivers/STM32F7xx_HAL_Driver/Src/stm32f7xx_hal_qspi.c **** 
 554:Drivers/STM32F7xx_HAL_Driver/Src/stm32f7xx_hal_qspi.c ****   /* QSPI Transfer Complete interrupt occurred -------------------------------*/
 555:Drivers/STM32F7xx_HAL_Driver/Src/stm32f7xx_hal_qspi.c ****   else if(((flag & QSPI_FLAG_TC) != 0U) && ((itsource & QSPI_IT_TC) != 0U))
 524              		.loc 1 555 18
 525 00ec 7B69     		ldr	r3, [r7, #20]
 526 00ee 03F00203 		and	r3, r3, #2
 527              		.loc 1 555 10
 528 00f2 002B     		cmp	r3, #0
 529 00f4 00F0B680 		beq	.L26
 530              		.loc 1 555 55 discriminator 1
 531 00f8 3B69     		ldr	r3, [r7, #16]
 532 00fa 03F40033 		and	r3, r3, #131072
 533              		.loc 1 555 41 discriminator 1
ARM GAS  C:\Users\jisu8\AppData\Local\Temp\ccA6Ygqq.s 			page 20


 534 00fe 002B     		cmp	r3, #0
 535 0100 00F0B080 		beq	.L26
 556:Drivers/STM32F7xx_HAL_Driver/Src/stm32f7xx_hal_qspi.c ****   {
 557:Drivers/STM32F7xx_HAL_Driver/Src/stm32f7xx_hal_qspi.c ****     /* Clear interrupt */
 558:Drivers/STM32F7xx_HAL_Driver/Src/stm32f7xx_hal_qspi.c ****     WRITE_REG(hqspi->Instance->FCR, QSPI_FLAG_TC);
 536              		.loc 1 558 5
 537 0104 7B68     		ldr	r3, [r7, #4]
 538 0106 1B68     		ldr	r3, [r3]
 539 0108 0222     		movs	r2, #2
 540 010a DA60     		str	r2, [r3, #12]
 559:Drivers/STM32F7xx_HAL_Driver/Src/stm32f7xx_hal_qspi.c **** 
 560:Drivers/STM32F7xx_HAL_Driver/Src/stm32f7xx_hal_qspi.c ****     /* Disable the QSPI FIFO Threshold, Transfer Error and Transfer complete Interrupts */
 561:Drivers/STM32F7xx_HAL_Driver/Src/stm32f7xx_hal_qspi.c ****     __HAL_QSPI_DISABLE_IT(hqspi, QSPI_IT_TC | QSPI_IT_TE | QSPI_IT_FT);
 541              		.loc 1 561 5
 542 010c 7B68     		ldr	r3, [r7, #4]
 543 010e 1B68     		ldr	r3, [r3]
 544 0110 1A68     		ldr	r2, [r3]
 545 0112 7B68     		ldr	r3, [r7, #4]
 546 0114 1B68     		ldr	r3, [r3]
 547 0116 22F4E022 		bic	r2, r2, #458752
 548 011a 1A60     		str	r2, [r3]
 562:Drivers/STM32F7xx_HAL_Driver/Src/stm32f7xx_hal_qspi.c **** 
 563:Drivers/STM32F7xx_HAL_Driver/Src/stm32f7xx_hal_qspi.c ****     /* Transfer complete callback */
 564:Drivers/STM32F7xx_HAL_Driver/Src/stm32f7xx_hal_qspi.c ****     if(hqspi->State == HAL_QSPI_STATE_BUSY_INDIRECT_TX)
 549              		.loc 1 564 13
 550 011c 7B68     		ldr	r3, [r7, #4]
 551 011e 93F84130 		ldrb	r3, [r3, #65]
 552 0122 DBB2     		uxtb	r3, r3
 553              		.loc 1 564 7
 554 0124 122B     		cmp	r3, #18
 555 0126 23D1     		bne	.L27
 565:Drivers/STM32F7xx_HAL_Driver/Src/stm32f7xx_hal_qspi.c ****     {
 566:Drivers/STM32F7xx_HAL_Driver/Src/stm32f7xx_hal_qspi.c ****       if ((hqspi->Instance->CR & QUADSPI_CR_DMAEN) != 0U)
 556              		.loc 1 566 17
 557 0128 7B68     		ldr	r3, [r7, #4]
 558 012a 1B68     		ldr	r3, [r3]
 559              		.loc 1 566 27
 560 012c 1B68     		ldr	r3, [r3]
 561              		.loc 1 566 32
 562 012e 03F00403 		and	r3, r3, #4
 563              		.loc 1 566 10
 564 0132 002B     		cmp	r3, #0
 565 0134 11D0     		beq	.L28
 567:Drivers/STM32F7xx_HAL_Driver/Src/stm32f7xx_hal_qspi.c ****       {
 568:Drivers/STM32F7xx_HAL_Driver/Src/stm32f7xx_hal_qspi.c ****         /* Disable the DMA transfer by clearing the DMAEN bit in the QSPI CR register */
 569:Drivers/STM32F7xx_HAL_Driver/Src/stm32f7xx_hal_qspi.c ****         CLEAR_BIT(hqspi->Instance->CR, QUADSPI_CR_DMAEN);
 566              		.loc 1 569 9
 567 0136 7B68     		ldr	r3, [r7, #4]
 568 0138 1B68     		ldr	r3, [r3]
 569 013a 1A68     		ldr	r2, [r3]
 570 013c 7B68     		ldr	r3, [r7, #4]
 571 013e 1B68     		ldr	r3, [r3]
 572 0140 22F00402 		bic	r2, r2, #4
 573 0144 1A60     		str	r2, [r3]
 570:Drivers/STM32F7xx_HAL_Driver/Src/stm32f7xx_hal_qspi.c **** 
 571:Drivers/STM32F7xx_HAL_Driver/Src/stm32f7xx_hal_qspi.c ****         /* Disable the DMA channel */
 572:Drivers/STM32F7xx_HAL_Driver/Src/stm32f7xx_hal_qspi.c ****         __HAL_DMA_DISABLE(hqspi->hdma);
ARM GAS  C:\Users\jisu8\AppData\Local\Temp\ccA6Ygqq.s 			page 21


 574              		.loc 1 572 9
 575 0146 7B68     		ldr	r3, [r7, #4]
 576 0148 DB6B     		ldr	r3, [r3, #60]
 577 014a 1B68     		ldr	r3, [r3]
 578 014c 1A68     		ldr	r2, [r3]
 579 014e 7B68     		ldr	r3, [r7, #4]
 580 0150 DB6B     		ldr	r3, [r3, #60]
 581 0152 1B68     		ldr	r3, [r3]
 582 0154 22F00102 		bic	r2, r2, #1
 583 0158 1A60     		str	r2, [r3]
 584              	.L28:
 573:Drivers/STM32F7xx_HAL_Driver/Src/stm32f7xx_hal_qspi.c ****       }
 574:Drivers/STM32F7xx_HAL_Driver/Src/stm32f7xx_hal_qspi.c **** 
 575:Drivers/STM32F7xx_HAL_Driver/Src/stm32f7xx_hal_qspi.c **** #if  defined(QSPI1_V1_0)
 576:Drivers/STM32F7xx_HAL_Driver/Src/stm32f7xx_hal_qspi.c ****       /* Clear Busy bit */
 577:Drivers/STM32F7xx_HAL_Driver/Src/stm32f7xx_hal_qspi.c ****       HAL_QSPI_Abort_IT(hqspi);
 585              		.loc 1 577 7
 586 015a 7868     		ldr	r0, [r7, #4]
 587 015c FFF7FEFF 		bl	HAL_QSPI_Abort_IT
 578:Drivers/STM32F7xx_HAL_Driver/Src/stm32f7xx_hal_qspi.c **** #endif
 579:Drivers/STM32F7xx_HAL_Driver/Src/stm32f7xx_hal_qspi.c **** 
 580:Drivers/STM32F7xx_HAL_Driver/Src/stm32f7xx_hal_qspi.c ****       /* Change state of QSPI */
 581:Drivers/STM32F7xx_HAL_Driver/Src/stm32f7xx_hal_qspi.c ****       hqspi->State = HAL_QSPI_STATE_READY;
 588              		.loc 1 581 20
 589 0160 7B68     		ldr	r3, [r7, #4]
 590 0162 0122     		movs	r2, #1
 591 0164 83F84120 		strb	r2, [r3, #65]
 582:Drivers/STM32F7xx_HAL_Driver/Src/stm32f7xx_hal_qspi.c **** 
 583:Drivers/STM32F7xx_HAL_Driver/Src/stm32f7xx_hal_qspi.c ****       /* TX Complete callback */
 584:Drivers/STM32F7xx_HAL_Driver/Src/stm32f7xx_hal_qspi.c **** #if (USE_HAL_QSPI_REGISTER_CALLBACKS == 1)
 585:Drivers/STM32F7xx_HAL_Driver/Src/stm32f7xx_hal_qspi.c ****       hqspi->TxCpltCallback(hqspi);
 586:Drivers/STM32F7xx_HAL_Driver/Src/stm32f7xx_hal_qspi.c **** #else
 587:Drivers/STM32F7xx_HAL_Driver/Src/stm32f7xx_hal_qspi.c ****       HAL_QSPI_TxCpltCallback(hqspi);
 592              		.loc 1 587 7
 593 0168 7868     		ldr	r0, [r7, #4]
 594 016a FFF7FEFF 		bl	HAL_QSPI_TxCpltCallback
 564:Drivers/STM32F7xx_HAL_Driver/Src/stm32f7xx_hal_qspi.c ****     {
 595              		.loc 1 564 7
 596 016e FDE0     		b	.L44
 597              	.L27:
 588:Drivers/STM32F7xx_HAL_Driver/Src/stm32f7xx_hal_qspi.c **** #endif
 589:Drivers/STM32F7xx_HAL_Driver/Src/stm32f7xx_hal_qspi.c ****     }
 590:Drivers/STM32F7xx_HAL_Driver/Src/stm32f7xx_hal_qspi.c ****     else if(hqspi->State == HAL_QSPI_STATE_BUSY_INDIRECT_RX)
 598              		.loc 1 590 18
 599 0170 7B68     		ldr	r3, [r7, #4]
 600 0172 93F84130 		ldrb	r3, [r3, #65]
 601 0176 DBB2     		uxtb	r3, r3
 602              		.loc 1 590 12
 603 0178 222B     		cmp	r3, #34
 604 017a 46D1     		bne	.L30
 591:Drivers/STM32F7xx_HAL_Driver/Src/stm32f7xx_hal_qspi.c ****     {
 592:Drivers/STM32F7xx_HAL_Driver/Src/stm32f7xx_hal_qspi.c ****       if ((hqspi->Instance->CR & QUADSPI_CR_DMAEN) != 0U)
 605              		.loc 1 592 17
 606 017c 7B68     		ldr	r3, [r7, #4]
 607 017e 1B68     		ldr	r3, [r3]
 608              		.loc 1 592 27
 609 0180 1B68     		ldr	r3, [r3]
ARM GAS  C:\Users\jisu8\AppData\Local\Temp\ccA6Ygqq.s 			page 22


 610              		.loc 1 592 32
 611 0182 03F00403 		and	r3, r3, #4
 612              		.loc 1 592 10
 613 0186 002B     		cmp	r3, #0
 614 0188 12D0     		beq	.L31
 593:Drivers/STM32F7xx_HAL_Driver/Src/stm32f7xx_hal_qspi.c ****       {
 594:Drivers/STM32F7xx_HAL_Driver/Src/stm32f7xx_hal_qspi.c ****         /* Disable the DMA transfer by clearing the DMAEN bit in the QSPI CR register */
 595:Drivers/STM32F7xx_HAL_Driver/Src/stm32f7xx_hal_qspi.c ****         CLEAR_BIT(hqspi->Instance->CR, QUADSPI_CR_DMAEN);
 615              		.loc 1 595 9
 616 018a 7B68     		ldr	r3, [r7, #4]
 617 018c 1B68     		ldr	r3, [r3]
 618 018e 1A68     		ldr	r2, [r3]
 619 0190 7B68     		ldr	r3, [r7, #4]
 620 0192 1B68     		ldr	r3, [r3]
 621 0194 22F00402 		bic	r2, r2, #4
 622 0198 1A60     		str	r2, [r3]
 596:Drivers/STM32F7xx_HAL_Driver/Src/stm32f7xx_hal_qspi.c **** 
 597:Drivers/STM32F7xx_HAL_Driver/Src/stm32f7xx_hal_qspi.c ****         /* Disable the DMA channel */
 598:Drivers/STM32F7xx_HAL_Driver/Src/stm32f7xx_hal_qspi.c ****         __HAL_DMA_DISABLE(hqspi->hdma);
 623              		.loc 1 598 9
 624 019a 7B68     		ldr	r3, [r7, #4]
 625 019c DB6B     		ldr	r3, [r3, #60]
 626 019e 1B68     		ldr	r3, [r3]
 627 01a0 1A68     		ldr	r2, [r3]
 628 01a2 7B68     		ldr	r3, [r7, #4]
 629 01a4 DB6B     		ldr	r3, [r3, #60]
 630 01a6 1B68     		ldr	r3, [r3]
 631 01a8 22F00102 		bic	r2, r2, #1
 632 01ac 1A60     		str	r2, [r3]
 633 01ae 21E0     		b	.L32
 634              	.L31:
 599:Drivers/STM32F7xx_HAL_Driver/Src/stm32f7xx_hal_qspi.c ****       }
 600:Drivers/STM32F7xx_HAL_Driver/Src/stm32f7xx_hal_qspi.c ****       else
 601:Drivers/STM32F7xx_HAL_Driver/Src/stm32f7xx_hal_qspi.c ****       {
 602:Drivers/STM32F7xx_HAL_Driver/Src/stm32f7xx_hal_qspi.c ****         data_reg = &hqspi->Instance->DR;
 635              		.loc 1 602 26
 636 01b0 7B68     		ldr	r3, [r7, #4]
 637 01b2 1B68     		ldr	r3, [r3]
 638              		.loc 1 602 18
 639 01b4 2033     		adds	r3, r3, #32
 640 01b6 FB60     		str	r3, [r7, #12]
 603:Drivers/STM32F7xx_HAL_Driver/Src/stm32f7xx_hal_qspi.c ****         while(READ_BIT(hqspi->Instance->SR, QUADSPI_SR_FLEVEL) != 0U)
 641              		.loc 1 603 14
 642 01b8 13E0     		b	.L33
 643              	.L35:
 604:Drivers/STM32F7xx_HAL_Driver/Src/stm32f7xx_hal_qspi.c ****         {
 605:Drivers/STM32F7xx_HAL_Driver/Src/stm32f7xx_hal_qspi.c ****           if (hqspi->RxXferCount > 0U)
 644              		.loc 1 605 20
 645 01ba 7B68     		ldr	r3, [r7, #4]
 646 01bc 9B6B     		ldr	r3, [r3, #56]
 647              		.loc 1 605 14
 648 01be 002B     		cmp	r3, #0
 649 01c0 17D0     		beq	.L43
 606:Drivers/STM32F7xx_HAL_Driver/Src/stm32f7xx_hal_qspi.c ****           {
 607:Drivers/STM32F7xx_HAL_Driver/Src/stm32f7xx_hal_qspi.c ****             /* Read the last data received in the FIFO until it is empty */
 608:Drivers/STM32F7xx_HAL_Driver/Src/stm32f7xx_hal_qspi.c ****             *hqspi->pRxBuffPtr = *((__IO uint8_t *)data_reg);
 650              		.loc 1 608 19
ARM GAS  C:\Users\jisu8\AppData\Local\Temp\ccA6Ygqq.s 			page 23


 651 01c2 7B68     		ldr	r3, [r7, #4]
 652 01c4 1B6B     		ldr	r3, [r3, #48]
 653              		.loc 1 608 34
 654 01c6 FA68     		ldr	r2, [r7, #12]
 655 01c8 1278     		ldrb	r2, [r2]
 656 01ca D2B2     		uxtb	r2, r2
 657              		.loc 1 608 32
 658 01cc 1A70     		strb	r2, [r3]
 609:Drivers/STM32F7xx_HAL_Driver/Src/stm32f7xx_hal_qspi.c ****             hqspi->pRxBuffPtr++;
 659              		.loc 1 609 18
 660 01ce 7B68     		ldr	r3, [r7, #4]
 661 01d0 1B6B     		ldr	r3, [r3, #48]
 662              		.loc 1 609 30
 663 01d2 5A1C     		adds	r2, r3, #1
 664 01d4 7B68     		ldr	r3, [r7, #4]
 665 01d6 1A63     		str	r2, [r3, #48]
 610:Drivers/STM32F7xx_HAL_Driver/Src/stm32f7xx_hal_qspi.c ****             hqspi->RxXferCount--;
 666              		.loc 1 610 18
 667 01d8 7B68     		ldr	r3, [r7, #4]
 668 01da 9B6B     		ldr	r3, [r3, #56]
 669              		.loc 1 610 31
 670 01dc 5A1E     		subs	r2, r3, #1
 671 01de 7B68     		ldr	r3, [r7, #4]
 672 01e0 9A63     		str	r2, [r3, #56]
 673              	.L33:
 603:Drivers/STM32F7xx_HAL_Driver/Src/stm32f7xx_hal_qspi.c ****         {
 674              		.loc 1 603 15
 675 01e2 7B68     		ldr	r3, [r7, #4]
 676 01e4 1B68     		ldr	r3, [r3]
 677 01e6 9B68     		ldr	r3, [r3, #8]
 678 01e8 03F47C53 		and	r3, r3, #16128
 603:Drivers/STM32F7xx_HAL_Driver/Src/stm32f7xx_hal_qspi.c ****         {
 679              		.loc 1 603 14
 680 01ec 002B     		cmp	r3, #0
 681 01ee E4D1     		bne	.L35
 682 01f0 00E0     		b	.L32
 683              	.L43:
 611:Drivers/STM32F7xx_HAL_Driver/Src/stm32f7xx_hal_qspi.c ****           }
 612:Drivers/STM32F7xx_HAL_Driver/Src/stm32f7xx_hal_qspi.c ****           else
 613:Drivers/STM32F7xx_HAL_Driver/Src/stm32f7xx_hal_qspi.c ****           {
 614:Drivers/STM32F7xx_HAL_Driver/Src/stm32f7xx_hal_qspi.c ****             /* All data have been received for the transfer */
 615:Drivers/STM32F7xx_HAL_Driver/Src/stm32f7xx_hal_qspi.c ****             break;
 684              		.loc 1 615 13
 685 01f2 00BF     		nop
 686              	.L32:
 616:Drivers/STM32F7xx_HAL_Driver/Src/stm32f7xx_hal_qspi.c ****           }
 617:Drivers/STM32F7xx_HAL_Driver/Src/stm32f7xx_hal_qspi.c ****         }
 618:Drivers/STM32F7xx_HAL_Driver/Src/stm32f7xx_hal_qspi.c ****       }
 619:Drivers/STM32F7xx_HAL_Driver/Src/stm32f7xx_hal_qspi.c **** 
 620:Drivers/STM32F7xx_HAL_Driver/Src/stm32f7xx_hal_qspi.c **** #if  defined(QSPI1_V1_0)
 621:Drivers/STM32F7xx_HAL_Driver/Src/stm32f7xx_hal_qspi.c ****       /* Workaround - Extra data written in the FIFO at the end of a read transfer */
 622:Drivers/STM32F7xx_HAL_Driver/Src/stm32f7xx_hal_qspi.c ****       HAL_QSPI_Abort_IT(hqspi);
 687              		.loc 1 622 7
 688 01f4 7868     		ldr	r0, [r7, #4]
 689 01f6 FFF7FEFF 		bl	HAL_QSPI_Abort_IT
 623:Drivers/STM32F7xx_HAL_Driver/Src/stm32f7xx_hal_qspi.c **** #endif
 624:Drivers/STM32F7xx_HAL_Driver/Src/stm32f7xx_hal_qspi.c **** 
ARM GAS  C:\Users\jisu8\AppData\Local\Temp\ccA6Ygqq.s 			page 24


 625:Drivers/STM32F7xx_HAL_Driver/Src/stm32f7xx_hal_qspi.c ****       /* Change state of QSPI */
 626:Drivers/STM32F7xx_HAL_Driver/Src/stm32f7xx_hal_qspi.c ****       hqspi->State = HAL_QSPI_STATE_READY;
 690              		.loc 1 626 20
 691 01fa 7B68     		ldr	r3, [r7, #4]
 692 01fc 0122     		movs	r2, #1
 693 01fe 83F84120 		strb	r2, [r3, #65]
 627:Drivers/STM32F7xx_HAL_Driver/Src/stm32f7xx_hal_qspi.c **** 
 628:Drivers/STM32F7xx_HAL_Driver/Src/stm32f7xx_hal_qspi.c ****       /* RX Complete callback */
 629:Drivers/STM32F7xx_HAL_Driver/Src/stm32f7xx_hal_qspi.c **** #if (USE_HAL_QSPI_REGISTER_CALLBACKS == 1)
 630:Drivers/STM32F7xx_HAL_Driver/Src/stm32f7xx_hal_qspi.c ****       hqspi->RxCpltCallback(hqspi);
 631:Drivers/STM32F7xx_HAL_Driver/Src/stm32f7xx_hal_qspi.c **** #else
 632:Drivers/STM32F7xx_HAL_Driver/Src/stm32f7xx_hal_qspi.c ****       HAL_QSPI_RxCpltCallback(hqspi);
 694              		.loc 1 632 7
 695 0202 7868     		ldr	r0, [r7, #4]
 696 0204 FFF7FEFF 		bl	HAL_QSPI_RxCpltCallback
 564:Drivers/STM32F7xx_HAL_Driver/Src/stm32f7xx_hal_qspi.c ****     {
 697              		.loc 1 564 7
 698 0208 B0E0     		b	.L44
 699              	.L30:
 633:Drivers/STM32F7xx_HAL_Driver/Src/stm32f7xx_hal_qspi.c **** #endif
 634:Drivers/STM32F7xx_HAL_Driver/Src/stm32f7xx_hal_qspi.c ****     }
 635:Drivers/STM32F7xx_HAL_Driver/Src/stm32f7xx_hal_qspi.c ****     else if(hqspi->State == HAL_QSPI_STATE_BUSY)
 700              		.loc 1 635 18
 701 020a 7B68     		ldr	r3, [r7, #4]
 702 020c 93F84130 		ldrb	r3, [r3, #65]
 703 0210 DBB2     		uxtb	r3, r3
 704              		.loc 1 635 12
 705 0212 022B     		cmp	r3, #2
 706 0214 07D1     		bne	.L36
 636:Drivers/STM32F7xx_HAL_Driver/Src/stm32f7xx_hal_qspi.c ****     {
 637:Drivers/STM32F7xx_HAL_Driver/Src/stm32f7xx_hal_qspi.c ****       /* Change state of QSPI */
 638:Drivers/STM32F7xx_HAL_Driver/Src/stm32f7xx_hal_qspi.c ****       hqspi->State = HAL_QSPI_STATE_READY;
 707              		.loc 1 638 20
 708 0216 7B68     		ldr	r3, [r7, #4]
 709 0218 0122     		movs	r2, #1
 710 021a 83F84120 		strb	r2, [r3, #65]
 639:Drivers/STM32F7xx_HAL_Driver/Src/stm32f7xx_hal_qspi.c **** 
 640:Drivers/STM32F7xx_HAL_Driver/Src/stm32f7xx_hal_qspi.c ****       /* Command Complete callback */
 641:Drivers/STM32F7xx_HAL_Driver/Src/stm32f7xx_hal_qspi.c **** #if (USE_HAL_QSPI_REGISTER_CALLBACKS == 1)
 642:Drivers/STM32F7xx_HAL_Driver/Src/stm32f7xx_hal_qspi.c ****       hqspi->CmdCpltCallback(hqspi);
 643:Drivers/STM32F7xx_HAL_Driver/Src/stm32f7xx_hal_qspi.c **** #else
 644:Drivers/STM32F7xx_HAL_Driver/Src/stm32f7xx_hal_qspi.c ****       HAL_QSPI_CmdCpltCallback(hqspi);
 711              		.loc 1 644 7
 712 021e 7868     		ldr	r0, [r7, #4]
 713 0220 FFF7FEFF 		bl	HAL_QSPI_CmdCpltCallback
 564:Drivers/STM32F7xx_HAL_Driver/Src/stm32f7xx_hal_qspi.c ****     {
 714              		.loc 1 564 7
 715 0224 A2E0     		b	.L44
 716              	.L36:
 645:Drivers/STM32F7xx_HAL_Driver/Src/stm32f7xx_hal_qspi.c **** #endif
 646:Drivers/STM32F7xx_HAL_Driver/Src/stm32f7xx_hal_qspi.c ****     }
 647:Drivers/STM32F7xx_HAL_Driver/Src/stm32f7xx_hal_qspi.c ****     else if(hqspi->State == HAL_QSPI_STATE_ABORT)
 717              		.loc 1 647 18
 718 0226 7B68     		ldr	r3, [r7, #4]
 719 0228 93F84130 		ldrb	r3, [r3, #65]
 720 022c DBB2     		uxtb	r3, r3
 721              		.loc 1 647 12
ARM GAS  C:\Users\jisu8\AppData\Local\Temp\ccA6Ygqq.s 			page 25


 722 022e 082B     		cmp	r3, #8
 723 0230 40F09C80 		bne	.L44
 648:Drivers/STM32F7xx_HAL_Driver/Src/stm32f7xx_hal_qspi.c ****     {
 649:Drivers/STM32F7xx_HAL_Driver/Src/stm32f7xx_hal_qspi.c ****       /* Reset functional mode configuration to indirect write mode by default */
 650:Drivers/STM32F7xx_HAL_Driver/Src/stm32f7xx_hal_qspi.c ****       CLEAR_BIT(hqspi->Instance->CCR, QUADSPI_CCR_FMODE);
 724              		.loc 1 650 7
 725 0234 7B68     		ldr	r3, [r7, #4]
 726 0236 1B68     		ldr	r3, [r3]
 727 0238 5A69     		ldr	r2, [r3, #20]
 728 023a 7B68     		ldr	r3, [r7, #4]
 729 023c 1B68     		ldr	r3, [r3]
 730 023e 22F04062 		bic	r2, r2, #201326592
 731 0242 5A61     		str	r2, [r3, #20]
 651:Drivers/STM32F7xx_HAL_Driver/Src/stm32f7xx_hal_qspi.c **** 
 652:Drivers/STM32F7xx_HAL_Driver/Src/stm32f7xx_hal_qspi.c ****       /* Change state of QSPI */
 653:Drivers/STM32F7xx_HAL_Driver/Src/stm32f7xx_hal_qspi.c ****       hqspi->State = HAL_QSPI_STATE_READY;
 732              		.loc 1 653 20
 733 0244 7B68     		ldr	r3, [r7, #4]
 734 0246 0122     		movs	r2, #1
 735 0248 83F84120 		strb	r2, [r3, #65]
 654:Drivers/STM32F7xx_HAL_Driver/Src/stm32f7xx_hal_qspi.c **** 
 655:Drivers/STM32F7xx_HAL_Driver/Src/stm32f7xx_hal_qspi.c ****       if (hqspi->ErrorCode == HAL_QSPI_ERROR_NONE)
 736              		.loc 1 655 16
 737 024c 7B68     		ldr	r3, [r7, #4]
 738 024e 5B6C     		ldr	r3, [r3, #68]
 739              		.loc 1 655 10
 740 0250 002B     		cmp	r3, #0
 741 0252 03D1     		bne	.L37
 656:Drivers/STM32F7xx_HAL_Driver/Src/stm32f7xx_hal_qspi.c ****       {
 657:Drivers/STM32F7xx_HAL_Driver/Src/stm32f7xx_hal_qspi.c ****         /* Abort called by the user */
 658:Drivers/STM32F7xx_HAL_Driver/Src/stm32f7xx_hal_qspi.c **** 
 659:Drivers/STM32F7xx_HAL_Driver/Src/stm32f7xx_hal_qspi.c ****         /* Abort Complete callback */
 660:Drivers/STM32F7xx_HAL_Driver/Src/stm32f7xx_hal_qspi.c **** #if (USE_HAL_QSPI_REGISTER_CALLBACKS == 1)
 661:Drivers/STM32F7xx_HAL_Driver/Src/stm32f7xx_hal_qspi.c ****         hqspi->AbortCpltCallback(hqspi);
 662:Drivers/STM32F7xx_HAL_Driver/Src/stm32f7xx_hal_qspi.c **** #else
 663:Drivers/STM32F7xx_HAL_Driver/Src/stm32f7xx_hal_qspi.c ****         HAL_QSPI_AbortCpltCallback(hqspi);
 742              		.loc 1 663 9
 743 0254 7868     		ldr	r0, [r7, #4]
 744 0256 FFF7FEFF 		bl	HAL_QSPI_AbortCpltCallback
 564:Drivers/STM32F7xx_HAL_Driver/Src/stm32f7xx_hal_qspi.c ****     {
 745              		.loc 1 564 7
 746 025a 87E0     		b	.L44
 747              	.L37:
 664:Drivers/STM32F7xx_HAL_Driver/Src/stm32f7xx_hal_qspi.c **** #endif
 665:Drivers/STM32F7xx_HAL_Driver/Src/stm32f7xx_hal_qspi.c ****       }
 666:Drivers/STM32F7xx_HAL_Driver/Src/stm32f7xx_hal_qspi.c ****       else
 667:Drivers/STM32F7xx_HAL_Driver/Src/stm32f7xx_hal_qspi.c ****       {
 668:Drivers/STM32F7xx_HAL_Driver/Src/stm32f7xx_hal_qspi.c ****         /* Abort due to an error (eg :  DMA error) */
 669:Drivers/STM32F7xx_HAL_Driver/Src/stm32f7xx_hal_qspi.c **** 
 670:Drivers/STM32F7xx_HAL_Driver/Src/stm32f7xx_hal_qspi.c ****         /* Error callback */
 671:Drivers/STM32F7xx_HAL_Driver/Src/stm32f7xx_hal_qspi.c **** #if (USE_HAL_QSPI_REGISTER_CALLBACKS == 1)
 672:Drivers/STM32F7xx_HAL_Driver/Src/stm32f7xx_hal_qspi.c ****         hqspi->ErrorCallback(hqspi);
 673:Drivers/STM32F7xx_HAL_Driver/Src/stm32f7xx_hal_qspi.c **** #else
 674:Drivers/STM32F7xx_HAL_Driver/Src/stm32f7xx_hal_qspi.c ****         HAL_QSPI_ErrorCallback(hqspi);
 748              		.loc 1 674 9
 749 025c 7868     		ldr	r0, [r7, #4]
 750 025e FFF7FEFF 		bl	HAL_QSPI_ErrorCallback
ARM GAS  C:\Users\jisu8\AppData\Local\Temp\ccA6Ygqq.s 			page 26


 564:Drivers/STM32F7xx_HAL_Driver/Src/stm32f7xx_hal_qspi.c ****     {
 751              		.loc 1 564 7
 752 0262 83E0     		b	.L44
 753              	.L26:
 675:Drivers/STM32F7xx_HAL_Driver/Src/stm32f7xx_hal_qspi.c **** #endif
 676:Drivers/STM32F7xx_HAL_Driver/Src/stm32f7xx_hal_qspi.c ****       }
 677:Drivers/STM32F7xx_HAL_Driver/Src/stm32f7xx_hal_qspi.c ****     }
 678:Drivers/STM32F7xx_HAL_Driver/Src/stm32f7xx_hal_qspi.c ****     else
 679:Drivers/STM32F7xx_HAL_Driver/Src/stm32f7xx_hal_qspi.c ****     {
 680:Drivers/STM32F7xx_HAL_Driver/Src/stm32f7xx_hal_qspi.c ****      /* Nothing to do */
 681:Drivers/STM32F7xx_HAL_Driver/Src/stm32f7xx_hal_qspi.c ****     }
 682:Drivers/STM32F7xx_HAL_Driver/Src/stm32f7xx_hal_qspi.c ****   }
 683:Drivers/STM32F7xx_HAL_Driver/Src/stm32f7xx_hal_qspi.c **** 
 684:Drivers/STM32F7xx_HAL_Driver/Src/stm32f7xx_hal_qspi.c ****   /* QSPI Status Match interrupt occurred ------------------------------------*/
 685:Drivers/STM32F7xx_HAL_Driver/Src/stm32f7xx_hal_qspi.c ****   else if(((flag & QSPI_FLAG_SM) != 0U) && ((itsource & QSPI_IT_SM) != 0U))
 754              		.loc 1 685 18
 755 0264 7B69     		ldr	r3, [r7, #20]
 756 0266 03F00803 		and	r3, r3, #8
 757              		.loc 1 685 10
 758 026a 002B     		cmp	r3, #0
 759 026c 1FD0     		beq	.L38
 760              		.loc 1 685 55 discriminator 1
 761 026e 3B69     		ldr	r3, [r7, #16]
 762 0270 03F40023 		and	r3, r3, #524288
 763              		.loc 1 685 41 discriminator 1
 764 0274 002B     		cmp	r3, #0
 765 0276 1AD0     		beq	.L38
 686:Drivers/STM32F7xx_HAL_Driver/Src/stm32f7xx_hal_qspi.c ****   {
 687:Drivers/STM32F7xx_HAL_Driver/Src/stm32f7xx_hal_qspi.c ****     /* Clear interrupt */
 688:Drivers/STM32F7xx_HAL_Driver/Src/stm32f7xx_hal_qspi.c ****     WRITE_REG(hqspi->Instance->FCR, QSPI_FLAG_SM);
 766              		.loc 1 688 5
 767 0278 7B68     		ldr	r3, [r7, #4]
 768 027a 1B68     		ldr	r3, [r3]
 769 027c 0822     		movs	r2, #8
 770 027e DA60     		str	r2, [r3, #12]
 689:Drivers/STM32F7xx_HAL_Driver/Src/stm32f7xx_hal_qspi.c **** 
 690:Drivers/STM32F7xx_HAL_Driver/Src/stm32f7xx_hal_qspi.c ****     /* Check if the automatic poll mode stop is activated */
 691:Drivers/STM32F7xx_HAL_Driver/Src/stm32f7xx_hal_qspi.c ****     if(READ_BIT(hqspi->Instance->CR, QUADSPI_CR_APMS) != 0U)
 771              		.loc 1 691 8
 772 0280 7B68     		ldr	r3, [r7, #4]
 773 0282 1B68     		ldr	r3, [r3]
 774 0284 1B68     		ldr	r3, [r3]
 775 0286 03F48003 		and	r3, r3, #4194304
 776              		.loc 1 691 7
 777 028a 002B     		cmp	r3, #0
 778 028c 0BD0     		beq	.L39
 692:Drivers/STM32F7xx_HAL_Driver/Src/stm32f7xx_hal_qspi.c ****     {
 693:Drivers/STM32F7xx_HAL_Driver/Src/stm32f7xx_hal_qspi.c ****       /* Disable the QSPI Transfer Error and Status Match Interrupts */
 694:Drivers/STM32F7xx_HAL_Driver/Src/stm32f7xx_hal_qspi.c ****       __HAL_QSPI_DISABLE_IT(hqspi, (QSPI_IT_SM | QSPI_IT_TE));
 779              		.loc 1 694 7
 780 028e 7B68     		ldr	r3, [r7, #4]
 781 0290 1B68     		ldr	r3, [r3]
 782 0292 1A68     		ldr	r2, [r3]
 783 0294 7B68     		ldr	r3, [r7, #4]
 784 0296 1B68     		ldr	r3, [r3]
 785 0298 22F41022 		bic	r2, r2, #589824
 786 029c 1A60     		str	r2, [r3]
ARM GAS  C:\Users\jisu8\AppData\Local\Temp\ccA6Ygqq.s 			page 27


 695:Drivers/STM32F7xx_HAL_Driver/Src/stm32f7xx_hal_qspi.c **** 
 696:Drivers/STM32F7xx_HAL_Driver/Src/stm32f7xx_hal_qspi.c ****       /* Change state of QSPI */
 697:Drivers/STM32F7xx_HAL_Driver/Src/stm32f7xx_hal_qspi.c ****       hqspi->State = HAL_QSPI_STATE_READY;
 787              		.loc 1 697 20
 788 029e 7B68     		ldr	r3, [r7, #4]
 789 02a0 0122     		movs	r2, #1
 790 02a2 83F84120 		strb	r2, [r3, #65]
 791              	.L39:
 698:Drivers/STM32F7xx_HAL_Driver/Src/stm32f7xx_hal_qspi.c ****     }
 699:Drivers/STM32F7xx_HAL_Driver/Src/stm32f7xx_hal_qspi.c **** 
 700:Drivers/STM32F7xx_HAL_Driver/Src/stm32f7xx_hal_qspi.c ****     /* Status match callback */
 701:Drivers/STM32F7xx_HAL_Driver/Src/stm32f7xx_hal_qspi.c **** #if (USE_HAL_QSPI_REGISTER_CALLBACKS == 1)
 702:Drivers/STM32F7xx_HAL_Driver/Src/stm32f7xx_hal_qspi.c ****     hqspi->StatusMatchCallback(hqspi);
 703:Drivers/STM32F7xx_HAL_Driver/Src/stm32f7xx_hal_qspi.c **** #else
 704:Drivers/STM32F7xx_HAL_Driver/Src/stm32f7xx_hal_qspi.c ****     HAL_QSPI_StatusMatchCallback(hqspi);
 792              		.loc 1 704 5
 793 02a6 7868     		ldr	r0, [r7, #4]
 794 02a8 FFF7FEFF 		bl	HAL_QSPI_StatusMatchCallback
 795 02ac 61E0     		b	.L25
 796              	.L38:
 705:Drivers/STM32F7xx_HAL_Driver/Src/stm32f7xx_hal_qspi.c **** #endif
 706:Drivers/STM32F7xx_HAL_Driver/Src/stm32f7xx_hal_qspi.c ****   }
 707:Drivers/STM32F7xx_HAL_Driver/Src/stm32f7xx_hal_qspi.c **** 
 708:Drivers/STM32F7xx_HAL_Driver/Src/stm32f7xx_hal_qspi.c ****   /* QSPI Transfer Error interrupt occurred ----------------------------------*/
 709:Drivers/STM32F7xx_HAL_Driver/Src/stm32f7xx_hal_qspi.c ****   else if(((flag & QSPI_FLAG_TE) != 0U) && ((itsource & QSPI_IT_TE) != 0U))
 797              		.loc 1 709 18
 798 02ae 7B69     		ldr	r3, [r7, #20]
 799 02b0 03F00103 		and	r3, r3, #1
 800              		.loc 1 709 10
 801 02b4 002B     		cmp	r3, #0
 802 02b6 47D0     		beq	.L40
 803              		.loc 1 709 55 discriminator 1
 804 02b8 3B69     		ldr	r3, [r7, #16]
 805 02ba 03F48033 		and	r3, r3, #65536
 806              		.loc 1 709 41 discriminator 1
 807 02be 002B     		cmp	r3, #0
 808 02c0 42D0     		beq	.L40
 710:Drivers/STM32F7xx_HAL_Driver/Src/stm32f7xx_hal_qspi.c ****   {
 711:Drivers/STM32F7xx_HAL_Driver/Src/stm32f7xx_hal_qspi.c ****     /* Clear interrupt */
 712:Drivers/STM32F7xx_HAL_Driver/Src/stm32f7xx_hal_qspi.c ****     WRITE_REG(hqspi->Instance->FCR, QSPI_FLAG_TE);
 809              		.loc 1 712 5
 810 02c2 7B68     		ldr	r3, [r7, #4]
 811 02c4 1B68     		ldr	r3, [r3]
 812 02c6 0122     		movs	r2, #1
 813 02c8 DA60     		str	r2, [r3, #12]
 713:Drivers/STM32F7xx_HAL_Driver/Src/stm32f7xx_hal_qspi.c **** 
 714:Drivers/STM32F7xx_HAL_Driver/Src/stm32f7xx_hal_qspi.c ****     /* Disable all the QSPI Interrupts */
 715:Drivers/STM32F7xx_HAL_Driver/Src/stm32f7xx_hal_qspi.c ****     __HAL_QSPI_DISABLE_IT(hqspi, QSPI_IT_SM | QSPI_IT_TC | QSPI_IT_TE | QSPI_IT_FT);
 814              		.loc 1 715 5
 815 02ca 7B68     		ldr	r3, [r7, #4]
 816 02cc 1B68     		ldr	r3, [r3]
 817 02ce 1A68     		ldr	r2, [r3]
 818 02d0 7B68     		ldr	r3, [r7, #4]
 819 02d2 1B68     		ldr	r3, [r3]
 820 02d4 22F47022 		bic	r2, r2, #983040
 821 02d8 1A60     		str	r2, [r3]
 716:Drivers/STM32F7xx_HAL_Driver/Src/stm32f7xx_hal_qspi.c **** 
ARM GAS  C:\Users\jisu8\AppData\Local\Temp\ccA6Ygqq.s 			page 28


 717:Drivers/STM32F7xx_HAL_Driver/Src/stm32f7xx_hal_qspi.c ****     /* Set error code */
 718:Drivers/STM32F7xx_HAL_Driver/Src/stm32f7xx_hal_qspi.c ****     hqspi->ErrorCode |= HAL_QSPI_ERROR_TRANSFER;
 822              		.loc 1 718 22
 823 02da 7B68     		ldr	r3, [r7, #4]
 824 02dc 5B6C     		ldr	r3, [r3, #68]
 825 02de 43F00202 		orr	r2, r3, #2
 826 02e2 7B68     		ldr	r3, [r7, #4]
 827 02e4 5A64     		str	r2, [r3, #68]
 719:Drivers/STM32F7xx_HAL_Driver/Src/stm32f7xx_hal_qspi.c **** 
 720:Drivers/STM32F7xx_HAL_Driver/Src/stm32f7xx_hal_qspi.c ****     if ((hqspi->Instance->CR & QUADSPI_CR_DMAEN) != 0U)
 828              		.loc 1 720 15
 829 02e6 7B68     		ldr	r3, [r7, #4]
 830 02e8 1B68     		ldr	r3, [r3]
 831              		.loc 1 720 25
 832 02ea 1B68     		ldr	r3, [r3]
 833              		.loc 1 720 30
 834 02ec 03F00403 		and	r3, r3, #4
 835              		.loc 1 720 8
 836 02f0 002B     		cmp	r3, #0
 837 02f2 21D0     		beq	.L41
 721:Drivers/STM32F7xx_HAL_Driver/Src/stm32f7xx_hal_qspi.c ****     {
 722:Drivers/STM32F7xx_HAL_Driver/Src/stm32f7xx_hal_qspi.c ****       /* Disable the DMA transfer by clearing the DMAEN bit in the QSPI CR register */
 723:Drivers/STM32F7xx_HAL_Driver/Src/stm32f7xx_hal_qspi.c ****       CLEAR_BIT(hqspi->Instance->CR, QUADSPI_CR_DMAEN);
 838              		.loc 1 723 7
 839 02f4 7B68     		ldr	r3, [r7, #4]
 840 02f6 1B68     		ldr	r3, [r3]
 841 02f8 1A68     		ldr	r2, [r3]
 842 02fa 7B68     		ldr	r3, [r7, #4]
 843 02fc 1B68     		ldr	r3, [r3]
 844 02fe 22F00402 		bic	r2, r2, #4
 845 0302 1A60     		str	r2, [r3]
 724:Drivers/STM32F7xx_HAL_Driver/Src/stm32f7xx_hal_qspi.c **** 
 725:Drivers/STM32F7xx_HAL_Driver/Src/stm32f7xx_hal_qspi.c ****       /* Disable the DMA channel */
 726:Drivers/STM32F7xx_HAL_Driver/Src/stm32f7xx_hal_qspi.c ****       hqspi->hdma->XferAbortCallback = QSPI_DMAAbortCplt;
 846              		.loc 1 726 12
 847 0304 7B68     		ldr	r3, [r7, #4]
 848 0306 DB6B     		ldr	r3, [r3, #60]
 849              		.loc 1 726 38
 850 0308 1C4A     		ldr	r2, .L47
 851 030a 1A65     		str	r2, [r3, #80]
 727:Drivers/STM32F7xx_HAL_Driver/Src/stm32f7xx_hal_qspi.c ****       if (HAL_DMA_Abort_IT(hqspi->hdma) != HAL_OK)
 852              		.loc 1 727 11
 853 030c 7B68     		ldr	r3, [r7, #4]
 854 030e DB6B     		ldr	r3, [r3, #60]
 855 0310 1846     		mov	r0, r3
 856 0312 FFF7FEFF 		bl	HAL_DMA_Abort_IT
 857 0316 0346     		mov	r3, r0
 858              		.loc 1 727 10
 859 0318 002B     		cmp	r3, #0
 860 031a 29D0     		beq	.L45
 728:Drivers/STM32F7xx_HAL_Driver/Src/stm32f7xx_hal_qspi.c ****       {
 729:Drivers/STM32F7xx_HAL_Driver/Src/stm32f7xx_hal_qspi.c ****         /* Set error code to DMA */
 730:Drivers/STM32F7xx_HAL_Driver/Src/stm32f7xx_hal_qspi.c ****         hqspi->ErrorCode |= HAL_QSPI_ERROR_DMA;
 861              		.loc 1 730 26
 862 031c 7B68     		ldr	r3, [r7, #4]
 863 031e 5B6C     		ldr	r3, [r3, #68]
 864 0320 43F00402 		orr	r2, r3, #4
ARM GAS  C:\Users\jisu8\AppData\Local\Temp\ccA6Ygqq.s 			page 29


 865 0324 7B68     		ldr	r3, [r7, #4]
 866 0326 5A64     		str	r2, [r3, #68]
 731:Drivers/STM32F7xx_HAL_Driver/Src/stm32f7xx_hal_qspi.c **** 
 732:Drivers/STM32F7xx_HAL_Driver/Src/stm32f7xx_hal_qspi.c ****         /* Change state of QSPI */
 733:Drivers/STM32F7xx_HAL_Driver/Src/stm32f7xx_hal_qspi.c ****         hqspi->State = HAL_QSPI_STATE_READY;
 867              		.loc 1 733 22
 868 0328 7B68     		ldr	r3, [r7, #4]
 869 032a 0122     		movs	r2, #1
 870 032c 83F84120 		strb	r2, [r3, #65]
 734:Drivers/STM32F7xx_HAL_Driver/Src/stm32f7xx_hal_qspi.c **** 
 735:Drivers/STM32F7xx_HAL_Driver/Src/stm32f7xx_hal_qspi.c ****         /* Error callback */
 736:Drivers/STM32F7xx_HAL_Driver/Src/stm32f7xx_hal_qspi.c **** #if (USE_HAL_QSPI_REGISTER_CALLBACKS == 1)
 737:Drivers/STM32F7xx_HAL_Driver/Src/stm32f7xx_hal_qspi.c ****         hqspi->ErrorCallback(hqspi);
 738:Drivers/STM32F7xx_HAL_Driver/Src/stm32f7xx_hal_qspi.c **** #else
 739:Drivers/STM32F7xx_HAL_Driver/Src/stm32f7xx_hal_qspi.c ****         HAL_QSPI_ErrorCallback(hqspi);
 871              		.loc 1 739 9
 872 0330 7868     		ldr	r0, [r7, #4]
 873 0332 FFF7FEFF 		bl	HAL_QSPI_ErrorCallback
 720:Drivers/STM32F7xx_HAL_Driver/Src/stm32f7xx_hal_qspi.c ****     {
 874              		.loc 1 720 8
 875 0336 1BE0     		b	.L45
 876              	.L41:
 740:Drivers/STM32F7xx_HAL_Driver/Src/stm32f7xx_hal_qspi.c **** #endif
 741:Drivers/STM32F7xx_HAL_Driver/Src/stm32f7xx_hal_qspi.c ****       }
 742:Drivers/STM32F7xx_HAL_Driver/Src/stm32f7xx_hal_qspi.c ****     }
 743:Drivers/STM32F7xx_HAL_Driver/Src/stm32f7xx_hal_qspi.c ****     else
 744:Drivers/STM32F7xx_HAL_Driver/Src/stm32f7xx_hal_qspi.c ****     {
 745:Drivers/STM32F7xx_HAL_Driver/Src/stm32f7xx_hal_qspi.c ****       /* Change state of QSPI */
 746:Drivers/STM32F7xx_HAL_Driver/Src/stm32f7xx_hal_qspi.c ****       hqspi->State = HAL_QSPI_STATE_READY;
 877              		.loc 1 746 20
 878 0338 7B68     		ldr	r3, [r7, #4]
 879 033a 0122     		movs	r2, #1
 880 033c 83F84120 		strb	r2, [r3, #65]
 747:Drivers/STM32F7xx_HAL_Driver/Src/stm32f7xx_hal_qspi.c **** 
 748:Drivers/STM32F7xx_HAL_Driver/Src/stm32f7xx_hal_qspi.c ****       /* Error callback */
 749:Drivers/STM32F7xx_HAL_Driver/Src/stm32f7xx_hal_qspi.c **** #if (USE_HAL_QSPI_REGISTER_CALLBACKS == 1)
 750:Drivers/STM32F7xx_HAL_Driver/Src/stm32f7xx_hal_qspi.c ****       hqspi->ErrorCallback(hqspi);
 751:Drivers/STM32F7xx_HAL_Driver/Src/stm32f7xx_hal_qspi.c **** #else
 752:Drivers/STM32F7xx_HAL_Driver/Src/stm32f7xx_hal_qspi.c ****       HAL_QSPI_ErrorCallback(hqspi);
 881              		.loc 1 752 7
 882 0340 7868     		ldr	r0, [r7, #4]
 883 0342 FFF7FEFF 		bl	HAL_QSPI_ErrorCallback
 720:Drivers/STM32F7xx_HAL_Driver/Src/stm32f7xx_hal_qspi.c ****     {
 884              		.loc 1 720 8
 885 0346 13E0     		b	.L45
 886              	.L40:
 753:Drivers/STM32F7xx_HAL_Driver/Src/stm32f7xx_hal_qspi.c **** #endif
 754:Drivers/STM32F7xx_HAL_Driver/Src/stm32f7xx_hal_qspi.c ****     }
 755:Drivers/STM32F7xx_HAL_Driver/Src/stm32f7xx_hal_qspi.c ****   }
 756:Drivers/STM32F7xx_HAL_Driver/Src/stm32f7xx_hal_qspi.c **** 
 757:Drivers/STM32F7xx_HAL_Driver/Src/stm32f7xx_hal_qspi.c ****   /* QSPI Timeout interrupt occurred -----------------------------------------*/
 758:Drivers/STM32F7xx_HAL_Driver/Src/stm32f7xx_hal_qspi.c ****   else if(((flag & QSPI_FLAG_TO) != 0U) && ((itsource & QSPI_IT_TO) != 0U))
 887              		.loc 1 758 18
 888 0348 7B69     		ldr	r3, [r7, #20]
 889 034a 03F01003 		and	r3, r3, #16
 890              		.loc 1 758 10
 891 034e 002B     		cmp	r3, #0
ARM GAS  C:\Users\jisu8\AppData\Local\Temp\ccA6Ygqq.s 			page 30


 892 0350 0FD0     		beq	.L46
 893              		.loc 1 758 55 discriminator 1
 894 0352 3B69     		ldr	r3, [r7, #16]
 895 0354 03F48013 		and	r3, r3, #1048576
 896              		.loc 1 758 41 discriminator 1
 897 0358 002B     		cmp	r3, #0
 898 035a 0AD0     		beq	.L46
 759:Drivers/STM32F7xx_HAL_Driver/Src/stm32f7xx_hal_qspi.c ****   {
 760:Drivers/STM32F7xx_HAL_Driver/Src/stm32f7xx_hal_qspi.c ****     /* Clear interrupt */
 761:Drivers/STM32F7xx_HAL_Driver/Src/stm32f7xx_hal_qspi.c ****     WRITE_REG(hqspi->Instance->FCR, QSPI_FLAG_TO);
 899              		.loc 1 761 5
 900 035c 7B68     		ldr	r3, [r7, #4]
 901 035e 1B68     		ldr	r3, [r3]
 902 0360 1022     		movs	r2, #16
 903 0362 DA60     		str	r2, [r3, #12]
 762:Drivers/STM32F7xx_HAL_Driver/Src/stm32f7xx_hal_qspi.c **** 
 763:Drivers/STM32F7xx_HAL_Driver/Src/stm32f7xx_hal_qspi.c ****     /* Timeout callback */
 764:Drivers/STM32F7xx_HAL_Driver/Src/stm32f7xx_hal_qspi.c **** #if (USE_HAL_QSPI_REGISTER_CALLBACKS == 1)
 765:Drivers/STM32F7xx_HAL_Driver/Src/stm32f7xx_hal_qspi.c ****     hqspi->TimeOutCallback(hqspi);
 766:Drivers/STM32F7xx_HAL_Driver/Src/stm32f7xx_hal_qspi.c **** #else
 767:Drivers/STM32F7xx_HAL_Driver/Src/stm32f7xx_hal_qspi.c ****     HAL_QSPI_TimeOutCallback(hqspi);
 904              		.loc 1 767 5
 905 0364 7868     		ldr	r0, [r7, #4]
 906 0366 FFF7FEFF 		bl	HAL_QSPI_TimeOutCallback
 768:Drivers/STM32F7xx_HAL_Driver/Src/stm32f7xx_hal_qspi.c **** #endif
 769:Drivers/STM32F7xx_HAL_Driver/Src/stm32f7xx_hal_qspi.c ****   }
 770:Drivers/STM32F7xx_HAL_Driver/Src/stm32f7xx_hal_qspi.c **** 
 771:Drivers/STM32F7xx_HAL_Driver/Src/stm32f7xx_hal_qspi.c ****    else
 772:Drivers/STM32F7xx_HAL_Driver/Src/stm32f7xx_hal_qspi.c ****   {
 773:Drivers/STM32F7xx_HAL_Driver/Src/stm32f7xx_hal_qspi.c ****    /* Nothing to do */
 774:Drivers/STM32F7xx_HAL_Driver/Src/stm32f7xx_hal_qspi.c ****   }
 775:Drivers/STM32F7xx_HAL_Driver/Src/stm32f7xx_hal_qspi.c **** }
 907              		.loc 1 775 1
 908 036a 02E0     		b	.L46
 909              	.L44:
 564:Drivers/STM32F7xx_HAL_Driver/Src/stm32f7xx_hal_qspi.c ****     {
 910              		.loc 1 564 7
 911 036c 00BF     		nop
 912 036e 00E0     		b	.L46
 913              	.L45:
 720:Drivers/STM32F7xx_HAL_Driver/Src/stm32f7xx_hal_qspi.c ****     {
 914              		.loc 1 720 8
 915 0370 00BF     		nop
 916              	.L25:
 917              	.L46:
 918              		.loc 1 775 1
 919 0372 00BF     		nop
 920 0374 1837     		adds	r7, r7, #24
 921              	.LCFI25:
 922              		.cfi_def_cfa_offset 8
 923 0376 BD46     		mov	sp, r7
 924              	.LCFI26:
 925              		.cfi_def_cfa_register 13
 926              		@ sp needed
 927 0378 80BD     		pop	{r7, pc}
 928              	.L48:
 929 037a 00BF     		.align	2
ARM GAS  C:\Users\jisu8\AppData\Local\Temp\ccA6Ygqq.s 			page 31


 930              	.L47:
 931 037c 00000000 		.word	QSPI_DMAAbortCplt
 932              		.cfi_endproc
 933              	.LFE145:
 935              		.section	.text.HAL_QSPI_Command,"ax",%progbits
 936              		.align	1
 937              		.global	HAL_QSPI_Command
 938              		.syntax unified
 939              		.thumb
 940              		.thumb_func
 942              	HAL_QSPI_Command:
 943              	.LFB146:
 776:Drivers/STM32F7xx_HAL_Driver/Src/stm32f7xx_hal_qspi.c **** 
 777:Drivers/STM32F7xx_HAL_Driver/Src/stm32f7xx_hal_qspi.c **** /**
 778:Drivers/STM32F7xx_HAL_Driver/Src/stm32f7xx_hal_qspi.c ****   * @brief Set the command configuration.
 779:Drivers/STM32F7xx_HAL_Driver/Src/stm32f7xx_hal_qspi.c ****   * @param hqspi QSPI handle
 780:Drivers/STM32F7xx_HAL_Driver/Src/stm32f7xx_hal_qspi.c ****   * @param cmd : structure that contains the command configuration information
 781:Drivers/STM32F7xx_HAL_Driver/Src/stm32f7xx_hal_qspi.c ****   * @param Timeout Timeout duration
 782:Drivers/STM32F7xx_HAL_Driver/Src/stm32f7xx_hal_qspi.c ****   * @note   This function is used only in Indirect Read or Write Modes
 783:Drivers/STM32F7xx_HAL_Driver/Src/stm32f7xx_hal_qspi.c ****   * @retval HAL status
 784:Drivers/STM32F7xx_HAL_Driver/Src/stm32f7xx_hal_qspi.c ****   */
 785:Drivers/STM32F7xx_HAL_Driver/Src/stm32f7xx_hal_qspi.c **** HAL_StatusTypeDef HAL_QSPI_Command(QSPI_HandleTypeDef *hqspi, QSPI_CommandTypeDef *cmd, uint32_t Ti
 786:Drivers/STM32F7xx_HAL_Driver/Src/stm32f7xx_hal_qspi.c **** {
 944              		.loc 1 786 1
 945              		.cfi_startproc
 946              		@ args = 0, pretend = 0, frame = 24
 947              		@ frame_needed = 1, uses_anonymous_args = 0
 948 0000 80B5     		push	{r7, lr}
 949              	.LCFI27:
 950              		.cfi_def_cfa_offset 8
 951              		.cfi_offset 7, -8
 952              		.cfi_offset 14, -4
 953 0002 88B0     		sub	sp, sp, #32
 954              	.LCFI28:
 955              		.cfi_def_cfa_offset 40
 956 0004 02AF     		add	r7, sp, #8
 957              	.LCFI29:
 958              		.cfi_def_cfa 7, 32
 959 0006 F860     		str	r0, [r7, #12]
 960 0008 B960     		str	r1, [r7, #8]
 961 000a 7A60     		str	r2, [r7, #4]
 787:Drivers/STM32F7xx_HAL_Driver/Src/stm32f7xx_hal_qspi.c ****   HAL_StatusTypeDef status;
 788:Drivers/STM32F7xx_HAL_Driver/Src/stm32f7xx_hal_qspi.c ****   uint32_t tickstart = HAL_GetTick();
 962              		.loc 1 788 24
 963 000c FFF7FEFF 		bl	HAL_GetTick
 964 0010 3861     		str	r0, [r7, #16]
 789:Drivers/STM32F7xx_HAL_Driver/Src/stm32f7xx_hal_qspi.c **** 
 790:Drivers/STM32F7xx_HAL_Driver/Src/stm32f7xx_hal_qspi.c ****   /* Check the parameters */
 791:Drivers/STM32F7xx_HAL_Driver/Src/stm32f7xx_hal_qspi.c ****   assert_param(IS_QSPI_INSTRUCTION_MODE(cmd->InstructionMode));
 792:Drivers/STM32F7xx_HAL_Driver/Src/stm32f7xx_hal_qspi.c ****   if (cmd->InstructionMode != QSPI_INSTRUCTION_NONE)
 793:Drivers/STM32F7xx_HAL_Driver/Src/stm32f7xx_hal_qspi.c ****   {
 794:Drivers/STM32F7xx_HAL_Driver/Src/stm32f7xx_hal_qspi.c ****     assert_param(IS_QSPI_INSTRUCTION(cmd->Instruction));
 795:Drivers/STM32F7xx_HAL_Driver/Src/stm32f7xx_hal_qspi.c ****   }
 796:Drivers/STM32F7xx_HAL_Driver/Src/stm32f7xx_hal_qspi.c **** 
 797:Drivers/STM32F7xx_HAL_Driver/Src/stm32f7xx_hal_qspi.c ****   assert_param(IS_QSPI_ADDRESS_MODE(cmd->AddressMode));
 798:Drivers/STM32F7xx_HAL_Driver/Src/stm32f7xx_hal_qspi.c ****   if (cmd->AddressMode != QSPI_ADDRESS_NONE)
 799:Drivers/STM32F7xx_HAL_Driver/Src/stm32f7xx_hal_qspi.c ****   {
ARM GAS  C:\Users\jisu8\AppData\Local\Temp\ccA6Ygqq.s 			page 32


 800:Drivers/STM32F7xx_HAL_Driver/Src/stm32f7xx_hal_qspi.c ****     assert_param(IS_QSPI_ADDRESS_SIZE(cmd->AddressSize));
 801:Drivers/STM32F7xx_HAL_Driver/Src/stm32f7xx_hal_qspi.c ****   }
 802:Drivers/STM32F7xx_HAL_Driver/Src/stm32f7xx_hal_qspi.c **** 
 803:Drivers/STM32F7xx_HAL_Driver/Src/stm32f7xx_hal_qspi.c ****   assert_param(IS_QSPI_ALTERNATE_BYTES_MODE(cmd->AlternateByteMode));
 804:Drivers/STM32F7xx_HAL_Driver/Src/stm32f7xx_hal_qspi.c ****   if (cmd->AlternateByteMode != QSPI_ALTERNATE_BYTES_NONE)
 805:Drivers/STM32F7xx_HAL_Driver/Src/stm32f7xx_hal_qspi.c ****   {
 806:Drivers/STM32F7xx_HAL_Driver/Src/stm32f7xx_hal_qspi.c ****     assert_param(IS_QSPI_ALTERNATE_BYTES_SIZE(cmd->AlternateBytesSize));
 807:Drivers/STM32F7xx_HAL_Driver/Src/stm32f7xx_hal_qspi.c ****   }
 808:Drivers/STM32F7xx_HAL_Driver/Src/stm32f7xx_hal_qspi.c **** 
 809:Drivers/STM32F7xx_HAL_Driver/Src/stm32f7xx_hal_qspi.c ****   assert_param(IS_QSPI_DUMMY_CYCLES(cmd->DummyCycles));
 810:Drivers/STM32F7xx_HAL_Driver/Src/stm32f7xx_hal_qspi.c ****   assert_param(IS_QSPI_DATA_MODE(cmd->DataMode));
 811:Drivers/STM32F7xx_HAL_Driver/Src/stm32f7xx_hal_qspi.c **** 
 812:Drivers/STM32F7xx_HAL_Driver/Src/stm32f7xx_hal_qspi.c ****   assert_param(IS_QSPI_DDR_MODE(cmd->DdrMode));
 813:Drivers/STM32F7xx_HAL_Driver/Src/stm32f7xx_hal_qspi.c ****   assert_param(IS_QSPI_DDR_HHC(cmd->DdrHoldHalfCycle));
 814:Drivers/STM32F7xx_HAL_Driver/Src/stm32f7xx_hal_qspi.c ****   assert_param(IS_QSPI_SIOO_MODE(cmd->SIOOMode));
 815:Drivers/STM32F7xx_HAL_Driver/Src/stm32f7xx_hal_qspi.c **** 
 816:Drivers/STM32F7xx_HAL_Driver/Src/stm32f7xx_hal_qspi.c ****   /* Process locked */
 817:Drivers/STM32F7xx_HAL_Driver/Src/stm32f7xx_hal_qspi.c ****   __HAL_LOCK(hqspi);
 965              		.loc 1 817 3
 966 0012 FB68     		ldr	r3, [r7, #12]
 967 0014 93F84030 		ldrb	r3, [r3, #64]
 968 0018 DBB2     		uxtb	r3, r3
 969 001a 012B     		cmp	r3, #1
 970 001c 01D1     		bne	.L50
 971              		.loc 1 817 3 is_stmt 0 discriminator 1
 972 001e 0223     		movs	r3, #2
 973 0020 48E0     		b	.L51
 974              	.L50:
 975              		.loc 1 817 3 discriminator 2
 976 0022 FB68     		ldr	r3, [r7, #12]
 977 0024 0122     		movs	r2, #1
 978 0026 83F84020 		strb	r2, [r3, #64]
 818:Drivers/STM32F7xx_HAL_Driver/Src/stm32f7xx_hal_qspi.c **** 
 819:Drivers/STM32F7xx_HAL_Driver/Src/stm32f7xx_hal_qspi.c ****   if(hqspi->State == HAL_QSPI_STATE_READY)
 979              		.loc 1 819 11 is_stmt 1 discriminator 2
 980 002a FB68     		ldr	r3, [r7, #12]
 981 002c 93F84130 		ldrb	r3, [r3, #65]
 982 0030 DBB2     		uxtb	r3, r3
 983              		.loc 1 819 5 discriminator 2
 984 0032 012B     		cmp	r3, #1
 985 0034 37D1     		bne	.L52
 820:Drivers/STM32F7xx_HAL_Driver/Src/stm32f7xx_hal_qspi.c ****   {
 821:Drivers/STM32F7xx_HAL_Driver/Src/stm32f7xx_hal_qspi.c ****     hqspi->ErrorCode = HAL_QSPI_ERROR_NONE;
 986              		.loc 1 821 22
 987 0036 FB68     		ldr	r3, [r7, #12]
 988 0038 0022     		movs	r2, #0
 989 003a 5A64     		str	r2, [r3, #68]
 822:Drivers/STM32F7xx_HAL_Driver/Src/stm32f7xx_hal_qspi.c **** 
 823:Drivers/STM32F7xx_HAL_Driver/Src/stm32f7xx_hal_qspi.c ****     /* Update QSPI state */
 824:Drivers/STM32F7xx_HAL_Driver/Src/stm32f7xx_hal_qspi.c ****     hqspi->State = HAL_QSPI_STATE_BUSY;
 990              		.loc 1 824 18
 991 003c FB68     		ldr	r3, [r7, #12]
 992 003e 0222     		movs	r2, #2
 993 0040 83F84120 		strb	r2, [r3, #65]
 825:Drivers/STM32F7xx_HAL_Driver/Src/stm32f7xx_hal_qspi.c **** 
 826:Drivers/STM32F7xx_HAL_Driver/Src/stm32f7xx_hal_qspi.c ****     /* Wait till BUSY flag reset */
 827:Drivers/STM32F7xx_HAL_Driver/Src/stm32f7xx_hal_qspi.c ****     status = QSPI_WaitFlagStateUntilTimeout(hqspi, QSPI_FLAG_BUSY, RESET, tickstart, Timeout);
ARM GAS  C:\Users\jisu8\AppData\Local\Temp\ccA6Ygqq.s 			page 33


 994              		.loc 1 827 14
 995 0044 7B68     		ldr	r3, [r7, #4]
 996 0046 0093     		str	r3, [sp]
 997 0048 3B69     		ldr	r3, [r7, #16]
 998 004a 0022     		movs	r2, #0
 999 004c 2021     		movs	r1, #32
 1000 004e F868     		ldr	r0, [r7, #12]
 1001 0050 FFF7FEFF 		bl	QSPI_WaitFlagStateUntilTimeout
 1002 0054 0346     		mov	r3, r0
 1003 0056 FB75     		strb	r3, [r7, #23]
 828:Drivers/STM32F7xx_HAL_Driver/Src/stm32f7xx_hal_qspi.c **** 
 829:Drivers/STM32F7xx_HAL_Driver/Src/stm32f7xx_hal_qspi.c ****     if (status == HAL_OK)
 1004              		.loc 1 829 8
 1005 0058 FB7D     		ldrb	r3, [r7, #23]	@ zero_extendqisi2
 1006 005a 002B     		cmp	r3, #0
 1007 005c 25D1     		bne	.L53
 830:Drivers/STM32F7xx_HAL_Driver/Src/stm32f7xx_hal_qspi.c ****     {
 831:Drivers/STM32F7xx_HAL_Driver/Src/stm32f7xx_hal_qspi.c ****       /* Call the configuration function */
 832:Drivers/STM32F7xx_HAL_Driver/Src/stm32f7xx_hal_qspi.c ****       QSPI_Config(hqspi, cmd, QSPI_FUNCTIONAL_MODE_INDIRECT_WRITE);
 1008              		.loc 1 832 7
 1009 005e 0022     		movs	r2, #0
 1010 0060 B968     		ldr	r1, [r7, #8]
 1011 0062 F868     		ldr	r0, [r7, #12]
 1012 0064 FFF7FEFF 		bl	QSPI_Config
 833:Drivers/STM32F7xx_HAL_Driver/Src/stm32f7xx_hal_qspi.c **** 
 834:Drivers/STM32F7xx_HAL_Driver/Src/stm32f7xx_hal_qspi.c ****       if (cmd->DataMode == QSPI_DATA_NONE)
 1013              		.loc 1 834 14
 1014 0068 BB68     		ldr	r3, [r7, #8]
 1015 006a 5B6A     		ldr	r3, [r3, #36]
 1016              		.loc 1 834 10
 1017 006c 002B     		cmp	r3, #0
 1018 006e 15D1     		bne	.L54
 835:Drivers/STM32F7xx_HAL_Driver/Src/stm32f7xx_hal_qspi.c ****       {
 836:Drivers/STM32F7xx_HAL_Driver/Src/stm32f7xx_hal_qspi.c ****         /* When there is no data phase, the transfer start as soon as the configuration is done
 837:Drivers/STM32F7xx_HAL_Driver/Src/stm32f7xx_hal_qspi.c ****         so wait until TC flag is set to go back in idle state */
 838:Drivers/STM32F7xx_HAL_Driver/Src/stm32f7xx_hal_qspi.c ****         status = QSPI_WaitFlagStateUntilTimeout(hqspi, QSPI_FLAG_TC, SET, tickstart, Timeout);
 1019              		.loc 1 838 18
 1020 0070 7B68     		ldr	r3, [r7, #4]
 1021 0072 0093     		str	r3, [sp]
 1022 0074 3B69     		ldr	r3, [r7, #16]
 1023 0076 0122     		movs	r2, #1
 1024 0078 0221     		movs	r1, #2
 1025 007a F868     		ldr	r0, [r7, #12]
 1026 007c FFF7FEFF 		bl	QSPI_WaitFlagStateUntilTimeout
 1027 0080 0346     		mov	r3, r0
 1028 0082 FB75     		strb	r3, [r7, #23]
 839:Drivers/STM32F7xx_HAL_Driver/Src/stm32f7xx_hal_qspi.c **** 
 840:Drivers/STM32F7xx_HAL_Driver/Src/stm32f7xx_hal_qspi.c ****         if (status == HAL_OK)
 1029              		.loc 1 840 12
 1030 0084 FB7D     		ldrb	r3, [r7, #23]	@ zero_extendqisi2
 1031 0086 002B     		cmp	r3, #0
 1032 0088 0FD1     		bne	.L53
 841:Drivers/STM32F7xx_HAL_Driver/Src/stm32f7xx_hal_qspi.c ****         {
 842:Drivers/STM32F7xx_HAL_Driver/Src/stm32f7xx_hal_qspi.c ****           __HAL_QSPI_CLEAR_FLAG(hqspi, QSPI_FLAG_TC);
 1033              		.loc 1 842 11
 1034 008a FB68     		ldr	r3, [r7, #12]
 1035 008c 1B68     		ldr	r3, [r3]
ARM GAS  C:\Users\jisu8\AppData\Local\Temp\ccA6Ygqq.s 			page 34


 1036 008e 0222     		movs	r2, #2
 1037 0090 DA60     		str	r2, [r3, #12]
 843:Drivers/STM32F7xx_HAL_Driver/Src/stm32f7xx_hal_qspi.c **** 
 844:Drivers/STM32F7xx_HAL_Driver/Src/stm32f7xx_hal_qspi.c ****           /* Update QSPI state */
 845:Drivers/STM32F7xx_HAL_Driver/Src/stm32f7xx_hal_qspi.c ****           hqspi->State = HAL_QSPI_STATE_READY;
 1038              		.loc 1 845 24
 1039 0092 FB68     		ldr	r3, [r7, #12]
 1040 0094 0122     		movs	r2, #1
 1041 0096 83F84120 		strb	r2, [r3, #65]
 1042 009a 06E0     		b	.L53
 1043              	.L54:
 846:Drivers/STM32F7xx_HAL_Driver/Src/stm32f7xx_hal_qspi.c ****         }
 847:Drivers/STM32F7xx_HAL_Driver/Src/stm32f7xx_hal_qspi.c ****       }
 848:Drivers/STM32F7xx_HAL_Driver/Src/stm32f7xx_hal_qspi.c ****       else
 849:Drivers/STM32F7xx_HAL_Driver/Src/stm32f7xx_hal_qspi.c ****       {
 850:Drivers/STM32F7xx_HAL_Driver/Src/stm32f7xx_hal_qspi.c ****         /* Update QSPI state */
 851:Drivers/STM32F7xx_HAL_Driver/Src/stm32f7xx_hal_qspi.c ****         hqspi->State = HAL_QSPI_STATE_READY;
 1044              		.loc 1 851 22
 1045 009c FB68     		ldr	r3, [r7, #12]
 1046 009e 0122     		movs	r2, #1
 1047 00a0 83F84120 		strb	r2, [r3, #65]
 1048 00a4 01E0     		b	.L53
 1049              	.L52:
 852:Drivers/STM32F7xx_HAL_Driver/Src/stm32f7xx_hal_qspi.c ****       }
 853:Drivers/STM32F7xx_HAL_Driver/Src/stm32f7xx_hal_qspi.c ****     }
 854:Drivers/STM32F7xx_HAL_Driver/Src/stm32f7xx_hal_qspi.c ****   }
 855:Drivers/STM32F7xx_HAL_Driver/Src/stm32f7xx_hal_qspi.c ****   else
 856:Drivers/STM32F7xx_HAL_Driver/Src/stm32f7xx_hal_qspi.c ****   {
 857:Drivers/STM32F7xx_HAL_Driver/Src/stm32f7xx_hal_qspi.c ****     status = HAL_BUSY;
 1050              		.loc 1 857 12
 1051 00a6 0223     		movs	r3, #2
 1052 00a8 FB75     		strb	r3, [r7, #23]
 1053              	.L53:
 858:Drivers/STM32F7xx_HAL_Driver/Src/stm32f7xx_hal_qspi.c ****   }
 859:Drivers/STM32F7xx_HAL_Driver/Src/stm32f7xx_hal_qspi.c **** 
 860:Drivers/STM32F7xx_HAL_Driver/Src/stm32f7xx_hal_qspi.c ****   /* Process unlocked */
 861:Drivers/STM32F7xx_HAL_Driver/Src/stm32f7xx_hal_qspi.c ****   __HAL_UNLOCK(hqspi);
 1054              		.loc 1 861 3
 1055 00aa FB68     		ldr	r3, [r7, #12]
 1056 00ac 0022     		movs	r2, #0
 1057 00ae 83F84020 		strb	r2, [r3, #64]
 862:Drivers/STM32F7xx_HAL_Driver/Src/stm32f7xx_hal_qspi.c **** 
 863:Drivers/STM32F7xx_HAL_Driver/Src/stm32f7xx_hal_qspi.c ****   /* Return function status */
 864:Drivers/STM32F7xx_HAL_Driver/Src/stm32f7xx_hal_qspi.c ****   return status;
 1058              		.loc 1 864 10
 1059 00b2 FB7D     		ldrb	r3, [r7, #23]	@ zero_extendqisi2
 1060              	.L51:
 865:Drivers/STM32F7xx_HAL_Driver/Src/stm32f7xx_hal_qspi.c **** }
 1061              		.loc 1 865 1
 1062 00b4 1846     		mov	r0, r3
 1063 00b6 1837     		adds	r7, r7, #24
 1064              	.LCFI30:
 1065              		.cfi_def_cfa_offset 8
 1066 00b8 BD46     		mov	sp, r7
 1067              	.LCFI31:
 1068              		.cfi_def_cfa_register 13
 1069              		@ sp needed
ARM GAS  C:\Users\jisu8\AppData\Local\Temp\ccA6Ygqq.s 			page 35


 1070 00ba 80BD     		pop	{r7, pc}
 1071              		.cfi_endproc
 1072              	.LFE146:
 1074              		.section	.text.HAL_QSPI_Command_IT,"ax",%progbits
 1075              		.align	1
 1076              		.global	HAL_QSPI_Command_IT
 1077              		.syntax unified
 1078              		.thumb
 1079              		.thumb_func
 1081              	HAL_QSPI_Command_IT:
 1082              	.LFB147:
 866:Drivers/STM32F7xx_HAL_Driver/Src/stm32f7xx_hal_qspi.c **** 
 867:Drivers/STM32F7xx_HAL_Driver/Src/stm32f7xx_hal_qspi.c **** /**
 868:Drivers/STM32F7xx_HAL_Driver/Src/stm32f7xx_hal_qspi.c ****   * @brief Set the command configuration in interrupt mode.
 869:Drivers/STM32F7xx_HAL_Driver/Src/stm32f7xx_hal_qspi.c ****   * @param hqspi QSPI handle
 870:Drivers/STM32F7xx_HAL_Driver/Src/stm32f7xx_hal_qspi.c ****   * @param cmd structure that contains the command configuration information
 871:Drivers/STM32F7xx_HAL_Driver/Src/stm32f7xx_hal_qspi.c ****   * @note   This function is used only in Indirect Read or Write Modes
 872:Drivers/STM32F7xx_HAL_Driver/Src/stm32f7xx_hal_qspi.c ****   * @retval HAL status
 873:Drivers/STM32F7xx_HAL_Driver/Src/stm32f7xx_hal_qspi.c ****   */
 874:Drivers/STM32F7xx_HAL_Driver/Src/stm32f7xx_hal_qspi.c **** HAL_StatusTypeDef HAL_QSPI_Command_IT(QSPI_HandleTypeDef *hqspi, QSPI_CommandTypeDef *cmd)
 875:Drivers/STM32F7xx_HAL_Driver/Src/stm32f7xx_hal_qspi.c **** {
 1083              		.loc 1 875 1
 1084              		.cfi_startproc
 1085              		@ args = 0, pretend = 0, frame = 16
 1086              		@ frame_needed = 1, uses_anonymous_args = 0
 1087 0000 80B5     		push	{r7, lr}
 1088              	.LCFI32:
 1089              		.cfi_def_cfa_offset 8
 1090              		.cfi_offset 7, -8
 1091              		.cfi_offset 14, -4
 1092 0002 84B0     		sub	sp, sp, #16
 1093              	.LCFI33:
 1094              		.cfi_def_cfa_offset 24
 1095 0004 00AF     		add	r7, sp, #0
 1096              	.LCFI34:
 1097              		.cfi_def_cfa_register 7
 1098 0006 7860     		str	r0, [r7, #4]
 1099 0008 3960     		str	r1, [r7]
 876:Drivers/STM32F7xx_HAL_Driver/Src/stm32f7xx_hal_qspi.c ****   HAL_StatusTypeDef status;
 877:Drivers/STM32F7xx_HAL_Driver/Src/stm32f7xx_hal_qspi.c **** 
 878:Drivers/STM32F7xx_HAL_Driver/Src/stm32f7xx_hal_qspi.c ****   /* Check the parameters */
 879:Drivers/STM32F7xx_HAL_Driver/Src/stm32f7xx_hal_qspi.c ****   assert_param(IS_QSPI_INSTRUCTION_MODE(cmd->InstructionMode));
 880:Drivers/STM32F7xx_HAL_Driver/Src/stm32f7xx_hal_qspi.c ****   if (cmd->InstructionMode != QSPI_INSTRUCTION_NONE)
 881:Drivers/STM32F7xx_HAL_Driver/Src/stm32f7xx_hal_qspi.c ****   {
 882:Drivers/STM32F7xx_HAL_Driver/Src/stm32f7xx_hal_qspi.c ****     assert_param(IS_QSPI_INSTRUCTION(cmd->Instruction));
 883:Drivers/STM32F7xx_HAL_Driver/Src/stm32f7xx_hal_qspi.c ****   }
 884:Drivers/STM32F7xx_HAL_Driver/Src/stm32f7xx_hal_qspi.c **** 
 885:Drivers/STM32F7xx_HAL_Driver/Src/stm32f7xx_hal_qspi.c ****   assert_param(IS_QSPI_ADDRESS_MODE(cmd->AddressMode));
 886:Drivers/STM32F7xx_HAL_Driver/Src/stm32f7xx_hal_qspi.c ****   if (cmd->AddressMode != QSPI_ADDRESS_NONE)
 887:Drivers/STM32F7xx_HAL_Driver/Src/stm32f7xx_hal_qspi.c ****   {
 888:Drivers/STM32F7xx_HAL_Driver/Src/stm32f7xx_hal_qspi.c ****     assert_param(IS_QSPI_ADDRESS_SIZE(cmd->AddressSize));
 889:Drivers/STM32F7xx_HAL_Driver/Src/stm32f7xx_hal_qspi.c ****   }
 890:Drivers/STM32F7xx_HAL_Driver/Src/stm32f7xx_hal_qspi.c **** 
 891:Drivers/STM32F7xx_HAL_Driver/Src/stm32f7xx_hal_qspi.c ****   assert_param(IS_QSPI_ALTERNATE_BYTES_MODE(cmd->AlternateByteMode));
 892:Drivers/STM32F7xx_HAL_Driver/Src/stm32f7xx_hal_qspi.c ****   if (cmd->AlternateByteMode != QSPI_ALTERNATE_BYTES_NONE)
 893:Drivers/STM32F7xx_HAL_Driver/Src/stm32f7xx_hal_qspi.c ****   {
 894:Drivers/STM32F7xx_HAL_Driver/Src/stm32f7xx_hal_qspi.c ****     assert_param(IS_QSPI_ALTERNATE_BYTES_SIZE(cmd->AlternateBytesSize));
ARM GAS  C:\Users\jisu8\AppData\Local\Temp\ccA6Ygqq.s 			page 36


 895:Drivers/STM32F7xx_HAL_Driver/Src/stm32f7xx_hal_qspi.c ****   }
 896:Drivers/STM32F7xx_HAL_Driver/Src/stm32f7xx_hal_qspi.c **** 
 897:Drivers/STM32F7xx_HAL_Driver/Src/stm32f7xx_hal_qspi.c ****   assert_param(IS_QSPI_DUMMY_CYCLES(cmd->DummyCycles));
 898:Drivers/STM32F7xx_HAL_Driver/Src/stm32f7xx_hal_qspi.c ****   assert_param(IS_QSPI_DATA_MODE(cmd->DataMode));
 899:Drivers/STM32F7xx_HAL_Driver/Src/stm32f7xx_hal_qspi.c **** 
 900:Drivers/STM32F7xx_HAL_Driver/Src/stm32f7xx_hal_qspi.c ****   assert_param(IS_QSPI_DDR_MODE(cmd->DdrMode));
 901:Drivers/STM32F7xx_HAL_Driver/Src/stm32f7xx_hal_qspi.c ****   assert_param(IS_QSPI_DDR_HHC(cmd->DdrHoldHalfCycle));
 902:Drivers/STM32F7xx_HAL_Driver/Src/stm32f7xx_hal_qspi.c ****   assert_param(IS_QSPI_SIOO_MODE(cmd->SIOOMode));
 903:Drivers/STM32F7xx_HAL_Driver/Src/stm32f7xx_hal_qspi.c **** 
 904:Drivers/STM32F7xx_HAL_Driver/Src/stm32f7xx_hal_qspi.c ****   /* Process locked */
 905:Drivers/STM32F7xx_HAL_Driver/Src/stm32f7xx_hal_qspi.c ****   __HAL_LOCK(hqspi);
 1100              		.loc 1 905 3
 1101 000a 7B68     		ldr	r3, [r7, #4]
 1102 000c 93F84030 		ldrb	r3, [r3, #64]
 1103 0010 DBB2     		uxtb	r3, r3
 1104 0012 012B     		cmp	r3, #1
 1105 0014 01D1     		bne	.L56
 1106              		.loc 1 905 3 is_stmt 0 discriminator 1
 1107 0016 0223     		movs	r3, #2
 1108 0018 4FE0     		b	.L57
 1109              	.L56:
 1110              		.loc 1 905 3 discriminator 2
 1111 001a 7B68     		ldr	r3, [r7, #4]
 1112 001c 0122     		movs	r2, #1
 1113 001e 83F84020 		strb	r2, [r3, #64]
 906:Drivers/STM32F7xx_HAL_Driver/Src/stm32f7xx_hal_qspi.c **** 
 907:Drivers/STM32F7xx_HAL_Driver/Src/stm32f7xx_hal_qspi.c ****   if(hqspi->State == HAL_QSPI_STATE_READY)
 1114              		.loc 1 907 11 is_stmt 1 discriminator 2
 1115 0022 7B68     		ldr	r3, [r7, #4]
 1116 0024 93F84130 		ldrb	r3, [r3, #65]
 1117 0028 DBB2     		uxtb	r3, r3
 1118              		.loc 1 907 5 discriminator 2
 1119 002a 012B     		cmp	r3, #1
 1120 002c 3ED1     		bne	.L58
 908:Drivers/STM32F7xx_HAL_Driver/Src/stm32f7xx_hal_qspi.c ****   {
 909:Drivers/STM32F7xx_HAL_Driver/Src/stm32f7xx_hal_qspi.c ****     hqspi->ErrorCode = HAL_QSPI_ERROR_NONE;
 1121              		.loc 1 909 22
 1122 002e 7B68     		ldr	r3, [r7, #4]
 1123 0030 0022     		movs	r2, #0
 1124 0032 5A64     		str	r2, [r3, #68]
 910:Drivers/STM32F7xx_HAL_Driver/Src/stm32f7xx_hal_qspi.c **** 
 911:Drivers/STM32F7xx_HAL_Driver/Src/stm32f7xx_hal_qspi.c ****     /* Update QSPI state */
 912:Drivers/STM32F7xx_HAL_Driver/Src/stm32f7xx_hal_qspi.c ****     hqspi->State = HAL_QSPI_STATE_BUSY;
 1125              		.loc 1 912 18
 1126 0034 7B68     		ldr	r3, [r7, #4]
 1127 0036 0222     		movs	r2, #2
 1128 0038 83F84120 		strb	r2, [r3, #65]
 913:Drivers/STM32F7xx_HAL_Driver/Src/stm32f7xx_hal_qspi.c **** 
 914:Drivers/STM32F7xx_HAL_Driver/Src/stm32f7xx_hal_qspi.c ****     /* Wait till BUSY flag reset */
 915:Drivers/STM32F7xx_HAL_Driver/Src/stm32f7xx_hal_qspi.c ****     status = QSPI_WaitFlagStateUntilTimeout_CPUCycle(hqspi, QSPI_FLAG_BUSY, RESET, hqspi->Timeout);
 1129              		.loc 1 915 14
 1130 003c 7B68     		ldr	r3, [r7, #4]
 1131 003e 9B6C     		ldr	r3, [r3, #72]
 1132 0040 0022     		movs	r2, #0
 1133 0042 2021     		movs	r1, #32
 1134 0044 7868     		ldr	r0, [r7, #4]
 1135 0046 FFF7FEFF 		bl	QSPI_WaitFlagStateUntilTimeout_CPUCycle
ARM GAS  C:\Users\jisu8\AppData\Local\Temp\ccA6Ygqq.s 			page 37


 1136 004a 0346     		mov	r3, r0
 1137 004c FB73     		strb	r3, [r7, #15]
 916:Drivers/STM32F7xx_HAL_Driver/Src/stm32f7xx_hal_qspi.c **** 
 917:Drivers/STM32F7xx_HAL_Driver/Src/stm32f7xx_hal_qspi.c ****     if (status == HAL_OK)
 1138              		.loc 1 917 8
 1139 004e FB7B     		ldrb	r3, [r7, #15]	@ zero_extendqisi2
 1140 0050 002B     		cmp	r3, #0
 1141 0052 26D1     		bne	.L59
 918:Drivers/STM32F7xx_HAL_Driver/Src/stm32f7xx_hal_qspi.c ****     {
 919:Drivers/STM32F7xx_HAL_Driver/Src/stm32f7xx_hal_qspi.c ****       if (cmd->DataMode == QSPI_DATA_NONE)
 1142              		.loc 1 919 14
 1143 0054 3B68     		ldr	r3, [r7]
 1144 0056 5B6A     		ldr	r3, [r3, #36]
 1145              		.loc 1 919 10
 1146 0058 002B     		cmp	r3, #0
 1147 005a 03D1     		bne	.L60
 920:Drivers/STM32F7xx_HAL_Driver/Src/stm32f7xx_hal_qspi.c ****       {
 921:Drivers/STM32F7xx_HAL_Driver/Src/stm32f7xx_hal_qspi.c ****         /* Clear interrupt */
 922:Drivers/STM32F7xx_HAL_Driver/Src/stm32f7xx_hal_qspi.c ****         __HAL_QSPI_CLEAR_FLAG(hqspi, QSPI_FLAG_TE | QSPI_FLAG_TC);
 1148              		.loc 1 922 9
 1149 005c 7B68     		ldr	r3, [r7, #4]
 1150 005e 1B68     		ldr	r3, [r3]
 1151 0060 0322     		movs	r2, #3
 1152 0062 DA60     		str	r2, [r3, #12]
 1153              	.L60:
 923:Drivers/STM32F7xx_HAL_Driver/Src/stm32f7xx_hal_qspi.c ****       }
 924:Drivers/STM32F7xx_HAL_Driver/Src/stm32f7xx_hal_qspi.c **** 
 925:Drivers/STM32F7xx_HAL_Driver/Src/stm32f7xx_hal_qspi.c ****       /* Call the configuration function */
 926:Drivers/STM32F7xx_HAL_Driver/Src/stm32f7xx_hal_qspi.c ****       QSPI_Config(hqspi, cmd, QSPI_FUNCTIONAL_MODE_INDIRECT_WRITE);
 1154              		.loc 1 926 7
 1155 0064 0022     		movs	r2, #0
 1156 0066 3968     		ldr	r1, [r7]
 1157 0068 7868     		ldr	r0, [r7, #4]
 1158 006a FFF7FEFF 		bl	QSPI_Config
 927:Drivers/STM32F7xx_HAL_Driver/Src/stm32f7xx_hal_qspi.c **** 
 928:Drivers/STM32F7xx_HAL_Driver/Src/stm32f7xx_hal_qspi.c ****       if (cmd->DataMode == QSPI_DATA_NONE)
 1159              		.loc 1 928 14
 1160 006e 3B68     		ldr	r3, [r7]
 1161 0070 5B6A     		ldr	r3, [r3, #36]
 1162              		.loc 1 928 10
 1163 0072 002B     		cmp	r3, #0
 1164 0074 0CD1     		bne	.L61
 929:Drivers/STM32F7xx_HAL_Driver/Src/stm32f7xx_hal_qspi.c ****       {
 930:Drivers/STM32F7xx_HAL_Driver/Src/stm32f7xx_hal_qspi.c ****         /* When there is no data phase, the transfer start as soon as the configuration is done
 931:Drivers/STM32F7xx_HAL_Driver/Src/stm32f7xx_hal_qspi.c ****         so activate TC and TE interrupts */
 932:Drivers/STM32F7xx_HAL_Driver/Src/stm32f7xx_hal_qspi.c ****         /* Process unlocked */
 933:Drivers/STM32F7xx_HAL_Driver/Src/stm32f7xx_hal_qspi.c ****         __HAL_UNLOCK(hqspi);
 1165              		.loc 1 933 9
 1166 0076 7B68     		ldr	r3, [r7, #4]
 1167 0078 0022     		movs	r2, #0
 1168 007a 83F84020 		strb	r2, [r3, #64]
 934:Drivers/STM32F7xx_HAL_Driver/Src/stm32f7xx_hal_qspi.c **** 
 935:Drivers/STM32F7xx_HAL_Driver/Src/stm32f7xx_hal_qspi.c ****         /* Enable the QSPI Transfer Error Interrupt */
 936:Drivers/STM32F7xx_HAL_Driver/Src/stm32f7xx_hal_qspi.c ****         __HAL_QSPI_ENABLE_IT(hqspi, QSPI_IT_TE | QSPI_IT_TC);
 1169              		.loc 1 936 9
 1170 007e 7B68     		ldr	r3, [r7, #4]
 1171 0080 1B68     		ldr	r3, [r3]
ARM GAS  C:\Users\jisu8\AppData\Local\Temp\ccA6Ygqq.s 			page 38


 1172 0082 1A68     		ldr	r2, [r3]
 1173 0084 7B68     		ldr	r3, [r7, #4]
 1174 0086 1B68     		ldr	r3, [r3]
 1175 0088 42F44032 		orr	r2, r2, #196608
 1176 008c 1A60     		str	r2, [r3]
 1177 008e 13E0     		b	.L62
 1178              	.L61:
 937:Drivers/STM32F7xx_HAL_Driver/Src/stm32f7xx_hal_qspi.c ****       }
 938:Drivers/STM32F7xx_HAL_Driver/Src/stm32f7xx_hal_qspi.c ****       else
 939:Drivers/STM32F7xx_HAL_Driver/Src/stm32f7xx_hal_qspi.c ****       {
 940:Drivers/STM32F7xx_HAL_Driver/Src/stm32f7xx_hal_qspi.c ****         /* Update QSPI state */
 941:Drivers/STM32F7xx_HAL_Driver/Src/stm32f7xx_hal_qspi.c ****         hqspi->State = HAL_QSPI_STATE_READY;
 1179              		.loc 1 941 22
 1180 0090 7B68     		ldr	r3, [r7, #4]
 1181 0092 0122     		movs	r2, #1
 1182 0094 83F84120 		strb	r2, [r3, #65]
 942:Drivers/STM32F7xx_HAL_Driver/Src/stm32f7xx_hal_qspi.c **** 
 943:Drivers/STM32F7xx_HAL_Driver/Src/stm32f7xx_hal_qspi.c ****         /* Process unlocked */
 944:Drivers/STM32F7xx_HAL_Driver/Src/stm32f7xx_hal_qspi.c ****         __HAL_UNLOCK(hqspi);
 1183              		.loc 1 944 9
 1184 0098 7B68     		ldr	r3, [r7, #4]
 1185 009a 0022     		movs	r2, #0
 1186 009c 83F84020 		strb	r2, [r3, #64]
 1187 00a0 0AE0     		b	.L62
 1188              	.L59:
 945:Drivers/STM32F7xx_HAL_Driver/Src/stm32f7xx_hal_qspi.c ****       }
 946:Drivers/STM32F7xx_HAL_Driver/Src/stm32f7xx_hal_qspi.c ****     }
 947:Drivers/STM32F7xx_HAL_Driver/Src/stm32f7xx_hal_qspi.c ****     else
 948:Drivers/STM32F7xx_HAL_Driver/Src/stm32f7xx_hal_qspi.c ****     {
 949:Drivers/STM32F7xx_HAL_Driver/Src/stm32f7xx_hal_qspi.c ****       /* Process unlocked */
 950:Drivers/STM32F7xx_HAL_Driver/Src/stm32f7xx_hal_qspi.c ****       __HAL_UNLOCK(hqspi);
 1189              		.loc 1 950 7
 1190 00a2 7B68     		ldr	r3, [r7, #4]
 1191 00a4 0022     		movs	r2, #0
 1192 00a6 83F84020 		strb	r2, [r3, #64]
 1193 00aa 05E0     		b	.L62
 1194              	.L58:
 951:Drivers/STM32F7xx_HAL_Driver/Src/stm32f7xx_hal_qspi.c ****     }
 952:Drivers/STM32F7xx_HAL_Driver/Src/stm32f7xx_hal_qspi.c ****   }
 953:Drivers/STM32F7xx_HAL_Driver/Src/stm32f7xx_hal_qspi.c ****   else
 954:Drivers/STM32F7xx_HAL_Driver/Src/stm32f7xx_hal_qspi.c ****   {
 955:Drivers/STM32F7xx_HAL_Driver/Src/stm32f7xx_hal_qspi.c ****     status = HAL_BUSY;
 1195              		.loc 1 955 12
 1196 00ac 0223     		movs	r3, #2
 1197 00ae FB73     		strb	r3, [r7, #15]
 956:Drivers/STM32F7xx_HAL_Driver/Src/stm32f7xx_hal_qspi.c **** 
 957:Drivers/STM32F7xx_HAL_Driver/Src/stm32f7xx_hal_qspi.c ****     /* Process unlocked */
 958:Drivers/STM32F7xx_HAL_Driver/Src/stm32f7xx_hal_qspi.c ****     __HAL_UNLOCK(hqspi);
 1198              		.loc 1 958 5
 1199 00b0 7B68     		ldr	r3, [r7, #4]
 1200 00b2 0022     		movs	r2, #0
 1201 00b4 83F84020 		strb	r2, [r3, #64]
 1202              	.L62:
 959:Drivers/STM32F7xx_HAL_Driver/Src/stm32f7xx_hal_qspi.c ****   }
 960:Drivers/STM32F7xx_HAL_Driver/Src/stm32f7xx_hal_qspi.c **** 
 961:Drivers/STM32F7xx_HAL_Driver/Src/stm32f7xx_hal_qspi.c ****   /* Return function status */
 962:Drivers/STM32F7xx_HAL_Driver/Src/stm32f7xx_hal_qspi.c ****   return status;
ARM GAS  C:\Users\jisu8\AppData\Local\Temp\ccA6Ygqq.s 			page 39


 1203              		.loc 1 962 10
 1204 00b8 FB7B     		ldrb	r3, [r7, #15]	@ zero_extendqisi2
 1205              	.L57:
 963:Drivers/STM32F7xx_HAL_Driver/Src/stm32f7xx_hal_qspi.c **** }
 1206              		.loc 1 963 1
 1207 00ba 1846     		mov	r0, r3
 1208 00bc 1037     		adds	r7, r7, #16
 1209              	.LCFI35:
 1210              		.cfi_def_cfa_offset 8
 1211 00be BD46     		mov	sp, r7
 1212              	.LCFI36:
 1213              		.cfi_def_cfa_register 13
 1214              		@ sp needed
 1215 00c0 80BD     		pop	{r7, pc}
 1216              		.cfi_endproc
 1217              	.LFE147:
 1219              		.section	.text.HAL_QSPI_Transmit,"ax",%progbits
 1220              		.align	1
 1221              		.global	HAL_QSPI_Transmit
 1222              		.syntax unified
 1223              		.thumb
 1224              		.thumb_func
 1226              	HAL_QSPI_Transmit:
 1227              	.LFB148:
 964:Drivers/STM32F7xx_HAL_Driver/Src/stm32f7xx_hal_qspi.c **** 
 965:Drivers/STM32F7xx_HAL_Driver/Src/stm32f7xx_hal_qspi.c **** /**
 966:Drivers/STM32F7xx_HAL_Driver/Src/stm32f7xx_hal_qspi.c ****   * @brief Transmit an amount of data in blocking mode.
 967:Drivers/STM32F7xx_HAL_Driver/Src/stm32f7xx_hal_qspi.c ****   * @param hqspi QSPI handle
 968:Drivers/STM32F7xx_HAL_Driver/Src/stm32f7xx_hal_qspi.c ****   * @param pData pointer to data buffer
 969:Drivers/STM32F7xx_HAL_Driver/Src/stm32f7xx_hal_qspi.c ****   * @param Timeout Timeout duration
 970:Drivers/STM32F7xx_HAL_Driver/Src/stm32f7xx_hal_qspi.c ****   * @note   This function is used only in Indirect Write Mode
 971:Drivers/STM32F7xx_HAL_Driver/Src/stm32f7xx_hal_qspi.c ****   * @retval HAL status
 972:Drivers/STM32F7xx_HAL_Driver/Src/stm32f7xx_hal_qspi.c ****   */
 973:Drivers/STM32F7xx_HAL_Driver/Src/stm32f7xx_hal_qspi.c **** HAL_StatusTypeDef HAL_QSPI_Transmit(QSPI_HandleTypeDef *hqspi, uint8_t *pData, uint32_t Timeout)
 974:Drivers/STM32F7xx_HAL_Driver/Src/stm32f7xx_hal_qspi.c **** {
 1228              		.loc 1 974 1
 1229              		.cfi_startproc
 1230              		@ args = 0, pretend = 0, frame = 32
 1231              		@ frame_needed = 1, uses_anonymous_args = 0
 1232 0000 80B5     		push	{r7, lr}
 1233              	.LCFI37:
 1234              		.cfi_def_cfa_offset 8
 1235              		.cfi_offset 7, -8
 1236              		.cfi_offset 14, -4
 1237 0002 8AB0     		sub	sp, sp, #40
 1238              	.LCFI38:
 1239              		.cfi_def_cfa_offset 48
 1240 0004 02AF     		add	r7, sp, #8
 1241              	.LCFI39:
 1242              		.cfi_def_cfa 7, 40
 1243 0006 F860     		str	r0, [r7, #12]
 1244 0008 B960     		str	r1, [r7, #8]
 1245 000a 7A60     		str	r2, [r7, #4]
 975:Drivers/STM32F7xx_HAL_Driver/Src/stm32f7xx_hal_qspi.c ****   HAL_StatusTypeDef status = HAL_OK;
 1246              		.loc 1 975 21
 1247 000c 0023     		movs	r3, #0
 1248 000e FB77     		strb	r3, [r7, #31]
ARM GAS  C:\Users\jisu8\AppData\Local\Temp\ccA6Ygqq.s 			page 40


 976:Drivers/STM32F7xx_HAL_Driver/Src/stm32f7xx_hal_qspi.c ****   uint32_t tickstart = HAL_GetTick();
 1249              		.loc 1 976 24
 1250 0010 FFF7FEFF 		bl	HAL_GetTick
 1251 0014 B861     		str	r0, [r7, #24]
 977:Drivers/STM32F7xx_HAL_Driver/Src/stm32f7xx_hal_qspi.c ****   __IO uint32_t *data_reg = &hqspi->Instance->DR;
 1252              		.loc 1 977 35
 1253 0016 FB68     		ldr	r3, [r7, #12]
 1254 0018 1B68     		ldr	r3, [r3]
 1255              		.loc 1 977 18
 1256 001a 2033     		adds	r3, r3, #32
 1257 001c 7B61     		str	r3, [r7, #20]
 978:Drivers/STM32F7xx_HAL_Driver/Src/stm32f7xx_hal_qspi.c **** 
 979:Drivers/STM32F7xx_HAL_Driver/Src/stm32f7xx_hal_qspi.c ****   /* Process locked */
 980:Drivers/STM32F7xx_HAL_Driver/Src/stm32f7xx_hal_qspi.c ****   __HAL_LOCK(hqspi);
 1258              		.loc 1 980 3
 1259 001e FB68     		ldr	r3, [r7, #12]
 1260 0020 93F84030 		ldrb	r3, [r3, #64]
 1261 0024 DBB2     		uxtb	r3, r3
 1262 0026 012B     		cmp	r3, #1
 1263 0028 01D1     		bne	.L64
 1264              		.loc 1 980 3 is_stmt 0 discriminator 1
 1265 002a 0223     		movs	r3, #2
 1266 002c 7BE0     		b	.L65
 1267              	.L64:
 1268              		.loc 1 980 3 discriminator 2
 1269 002e FB68     		ldr	r3, [r7, #12]
 1270 0030 0122     		movs	r2, #1
 1271 0032 83F84020 		strb	r2, [r3, #64]
 981:Drivers/STM32F7xx_HAL_Driver/Src/stm32f7xx_hal_qspi.c **** 
 982:Drivers/STM32F7xx_HAL_Driver/Src/stm32f7xx_hal_qspi.c ****   if(hqspi->State == HAL_QSPI_STATE_READY)
 1272              		.loc 1 982 11 is_stmt 1 discriminator 2
 1273 0036 FB68     		ldr	r3, [r7, #12]
 1274 0038 93F84130 		ldrb	r3, [r3, #65]
 1275 003c DBB2     		uxtb	r3, r3
 1276              		.loc 1 982 5 discriminator 2
 1277 003e 012B     		cmp	r3, #1
 1278 0040 6AD1     		bne	.L66
 983:Drivers/STM32F7xx_HAL_Driver/Src/stm32f7xx_hal_qspi.c ****   {
 984:Drivers/STM32F7xx_HAL_Driver/Src/stm32f7xx_hal_qspi.c ****     hqspi->ErrorCode = HAL_QSPI_ERROR_NONE;
 1279              		.loc 1 984 22
 1280 0042 FB68     		ldr	r3, [r7, #12]
 1281 0044 0022     		movs	r2, #0
 1282 0046 5A64     		str	r2, [r3, #68]
 985:Drivers/STM32F7xx_HAL_Driver/Src/stm32f7xx_hal_qspi.c **** 
 986:Drivers/STM32F7xx_HAL_Driver/Src/stm32f7xx_hal_qspi.c ****     if(pData != NULL )
 1283              		.loc 1 986 7
 1284 0048 BB68     		ldr	r3, [r7, #8]
 1285 004a 002B     		cmp	r3, #0
 1286 004c 5BD0     		beq	.L67
 987:Drivers/STM32F7xx_HAL_Driver/Src/stm32f7xx_hal_qspi.c ****     {
 988:Drivers/STM32F7xx_HAL_Driver/Src/stm32f7xx_hal_qspi.c ****       /* Update state */
 989:Drivers/STM32F7xx_HAL_Driver/Src/stm32f7xx_hal_qspi.c ****       hqspi->State = HAL_QSPI_STATE_BUSY_INDIRECT_TX;
 1287              		.loc 1 989 20
 1288 004e FB68     		ldr	r3, [r7, #12]
 1289 0050 1222     		movs	r2, #18
 1290 0052 83F84120 		strb	r2, [r3, #65]
 990:Drivers/STM32F7xx_HAL_Driver/Src/stm32f7xx_hal_qspi.c **** 
ARM GAS  C:\Users\jisu8\AppData\Local\Temp\ccA6Ygqq.s 			page 41


 991:Drivers/STM32F7xx_HAL_Driver/Src/stm32f7xx_hal_qspi.c ****       /* Configure counters and size of the handle */
 992:Drivers/STM32F7xx_HAL_Driver/Src/stm32f7xx_hal_qspi.c ****       hqspi->TxXferCount = READ_REG(hqspi->Instance->DLR) + 1U;
 1291              		.loc 1 992 28
 1292 0056 FB68     		ldr	r3, [r7, #12]
 1293 0058 1B68     		ldr	r3, [r3]
 1294 005a 1B69     		ldr	r3, [r3, #16]
 1295              		.loc 1 992 59
 1296 005c 5A1C     		adds	r2, r3, #1
 1297              		.loc 1 992 26
 1298 005e FB68     		ldr	r3, [r7, #12]
 1299 0060 DA62     		str	r2, [r3, #44]
 993:Drivers/STM32F7xx_HAL_Driver/Src/stm32f7xx_hal_qspi.c ****       hqspi->TxXferSize = READ_REG(hqspi->Instance->DLR) + 1U;
 1300              		.loc 1 993 27
 1301 0062 FB68     		ldr	r3, [r7, #12]
 1302 0064 1B68     		ldr	r3, [r3]
 1303 0066 1B69     		ldr	r3, [r3, #16]
 1304              		.loc 1 993 58
 1305 0068 5A1C     		adds	r2, r3, #1
 1306              		.loc 1 993 25
 1307 006a FB68     		ldr	r3, [r7, #12]
 1308 006c 9A62     		str	r2, [r3, #40]
 994:Drivers/STM32F7xx_HAL_Driver/Src/stm32f7xx_hal_qspi.c ****       hqspi->pTxBuffPtr = pData;
 1309              		.loc 1 994 25
 1310 006e FB68     		ldr	r3, [r7, #12]
 1311 0070 BA68     		ldr	r2, [r7, #8]
 1312 0072 5A62     		str	r2, [r3, #36]
 995:Drivers/STM32F7xx_HAL_Driver/Src/stm32f7xx_hal_qspi.c **** 
 996:Drivers/STM32F7xx_HAL_Driver/Src/stm32f7xx_hal_qspi.c ****       /* Configure QSPI: CCR register with functional as indirect write */
 997:Drivers/STM32F7xx_HAL_Driver/Src/stm32f7xx_hal_qspi.c ****       MODIFY_REG(hqspi->Instance->CCR, QUADSPI_CCR_FMODE, QSPI_FUNCTIONAL_MODE_INDIRECT_WRITE);
 1313              		.loc 1 997 7
 1314 0074 FB68     		ldr	r3, [r7, #12]
 1315 0076 1B68     		ldr	r3, [r3]
 1316 0078 5A69     		ldr	r2, [r3, #20]
 1317 007a FB68     		ldr	r3, [r7, #12]
 1318 007c 1B68     		ldr	r3, [r3]
 1319 007e 22F04062 		bic	r2, r2, #201326592
 1320 0082 5A61     		str	r2, [r3, #20]
 998:Drivers/STM32F7xx_HAL_Driver/Src/stm32f7xx_hal_qspi.c **** 
 999:Drivers/STM32F7xx_HAL_Driver/Src/stm32f7xx_hal_qspi.c ****       while(hqspi->TxXferCount > 0U)
 1321              		.loc 1 999 12
 1322 0084 1BE0     		b	.L68
 1323              	.L71:
1000:Drivers/STM32F7xx_HAL_Driver/Src/stm32f7xx_hal_qspi.c ****       {
1001:Drivers/STM32F7xx_HAL_Driver/Src/stm32f7xx_hal_qspi.c ****         /* Wait until FT flag is set to send data */
1002:Drivers/STM32F7xx_HAL_Driver/Src/stm32f7xx_hal_qspi.c ****         status = QSPI_WaitFlagStateUntilTimeout(hqspi, QSPI_FLAG_FT, SET, tickstart, Timeout);
 1324              		.loc 1 1002 18
 1325 0086 7B68     		ldr	r3, [r7, #4]
 1326 0088 0093     		str	r3, [sp]
 1327 008a BB69     		ldr	r3, [r7, #24]
 1328 008c 0122     		movs	r2, #1
 1329 008e 0421     		movs	r1, #4
 1330 0090 F868     		ldr	r0, [r7, #12]
 1331 0092 FFF7FEFF 		bl	QSPI_WaitFlagStateUntilTimeout
 1332 0096 0346     		mov	r3, r0
 1333 0098 FB77     		strb	r3, [r7, #31]
1003:Drivers/STM32F7xx_HAL_Driver/Src/stm32f7xx_hal_qspi.c **** 
1004:Drivers/STM32F7xx_HAL_Driver/Src/stm32f7xx_hal_qspi.c ****         if (status != HAL_OK)
ARM GAS  C:\Users\jisu8\AppData\Local\Temp\ccA6Ygqq.s 			page 42


 1334              		.loc 1 1004 12
 1335 009a FB7F     		ldrb	r3, [r7, #31]	@ zero_extendqisi2
 1336 009c 002B     		cmp	r3, #0
 1337 009e 13D1     		bne	.L74
1005:Drivers/STM32F7xx_HAL_Driver/Src/stm32f7xx_hal_qspi.c ****         {
1006:Drivers/STM32F7xx_HAL_Driver/Src/stm32f7xx_hal_qspi.c ****           break;
1007:Drivers/STM32F7xx_HAL_Driver/Src/stm32f7xx_hal_qspi.c ****         }
1008:Drivers/STM32F7xx_HAL_Driver/Src/stm32f7xx_hal_qspi.c **** 
1009:Drivers/STM32F7xx_HAL_Driver/Src/stm32f7xx_hal_qspi.c ****         *((__IO uint8_t *)data_reg) = *hqspi->pTxBuffPtr;
 1338              		.loc 1 1009 45
 1339 00a0 FB68     		ldr	r3, [r7, #12]
 1340 00a2 5B6A     		ldr	r3, [r3, #36]
 1341              		.loc 1 1009 39
 1342 00a4 1A78     		ldrb	r2, [r3]	@ zero_extendqisi2
 1343              		.loc 1 1009 37
 1344 00a6 7B69     		ldr	r3, [r7, #20]
 1345 00a8 1A70     		strb	r2, [r3]
1010:Drivers/STM32F7xx_HAL_Driver/Src/stm32f7xx_hal_qspi.c ****         hqspi->pTxBuffPtr++;
 1346              		.loc 1 1010 14
 1347 00aa FB68     		ldr	r3, [r7, #12]
 1348 00ac 5B6A     		ldr	r3, [r3, #36]
 1349              		.loc 1 1010 26
 1350 00ae 5A1C     		adds	r2, r3, #1
 1351 00b0 FB68     		ldr	r3, [r7, #12]
 1352 00b2 5A62     		str	r2, [r3, #36]
1011:Drivers/STM32F7xx_HAL_Driver/Src/stm32f7xx_hal_qspi.c ****         hqspi->TxXferCount--;
 1353              		.loc 1 1011 14
 1354 00b4 FB68     		ldr	r3, [r7, #12]
 1355 00b6 DB6A     		ldr	r3, [r3, #44]
 1356              		.loc 1 1011 27
 1357 00b8 5A1E     		subs	r2, r3, #1
 1358 00ba FB68     		ldr	r3, [r7, #12]
 1359 00bc DA62     		str	r2, [r3, #44]
 1360              	.L68:
 999:Drivers/STM32F7xx_HAL_Driver/Src/stm32f7xx_hal_qspi.c ****       {
 1361              		.loc 1 999 18
 1362 00be FB68     		ldr	r3, [r7, #12]
 1363 00c0 DB6A     		ldr	r3, [r3, #44]
 999:Drivers/STM32F7xx_HAL_Driver/Src/stm32f7xx_hal_qspi.c ****       {
 1364              		.loc 1 999 12
 1365 00c2 002B     		cmp	r3, #0
 1366 00c4 DFD1     		bne	.L71
 1367 00c6 00E0     		b	.L70
 1368              	.L74:
1006:Drivers/STM32F7xx_HAL_Driver/Src/stm32f7xx_hal_qspi.c ****         }
 1369              		.loc 1 1006 11
 1370 00c8 00BF     		nop
 1371              	.L70:
1012:Drivers/STM32F7xx_HAL_Driver/Src/stm32f7xx_hal_qspi.c ****       }
1013:Drivers/STM32F7xx_HAL_Driver/Src/stm32f7xx_hal_qspi.c **** 
1014:Drivers/STM32F7xx_HAL_Driver/Src/stm32f7xx_hal_qspi.c ****       if (status == HAL_OK)
 1372              		.loc 1 1014 10
 1373 00ca FB7F     		ldrb	r3, [r7, #31]	@ zero_extendqisi2
 1374 00cc 002B     		cmp	r3, #0
 1375 00ce 15D1     		bne	.L72
1015:Drivers/STM32F7xx_HAL_Driver/Src/stm32f7xx_hal_qspi.c ****       {
1016:Drivers/STM32F7xx_HAL_Driver/Src/stm32f7xx_hal_qspi.c ****         /* Wait until TC flag is set to go back in idle state */
ARM GAS  C:\Users\jisu8\AppData\Local\Temp\ccA6Ygqq.s 			page 43


1017:Drivers/STM32F7xx_HAL_Driver/Src/stm32f7xx_hal_qspi.c ****         status = QSPI_WaitFlagStateUntilTimeout(hqspi, QSPI_FLAG_TC, SET, tickstart, Timeout);
 1376              		.loc 1 1017 18
 1377 00d0 7B68     		ldr	r3, [r7, #4]
 1378 00d2 0093     		str	r3, [sp]
 1379 00d4 BB69     		ldr	r3, [r7, #24]
 1380 00d6 0122     		movs	r2, #1
 1381 00d8 0221     		movs	r1, #2
 1382 00da F868     		ldr	r0, [r7, #12]
 1383 00dc FFF7FEFF 		bl	QSPI_WaitFlagStateUntilTimeout
 1384 00e0 0346     		mov	r3, r0
 1385 00e2 FB77     		strb	r3, [r7, #31]
1018:Drivers/STM32F7xx_HAL_Driver/Src/stm32f7xx_hal_qspi.c **** 
1019:Drivers/STM32F7xx_HAL_Driver/Src/stm32f7xx_hal_qspi.c ****         if (status == HAL_OK)
 1386              		.loc 1 1019 12
 1387 00e4 FB7F     		ldrb	r3, [r7, #31]	@ zero_extendqisi2
 1388 00e6 002B     		cmp	r3, #0
 1389 00e8 08D1     		bne	.L72
1020:Drivers/STM32F7xx_HAL_Driver/Src/stm32f7xx_hal_qspi.c ****         {
1021:Drivers/STM32F7xx_HAL_Driver/Src/stm32f7xx_hal_qspi.c ****           /* Clear Transfer Complete bit */
1022:Drivers/STM32F7xx_HAL_Driver/Src/stm32f7xx_hal_qspi.c ****           __HAL_QSPI_CLEAR_FLAG(hqspi, QSPI_FLAG_TC);
 1390              		.loc 1 1022 11
 1391 00ea FB68     		ldr	r3, [r7, #12]
 1392 00ec 1B68     		ldr	r3, [r3]
 1393 00ee 0222     		movs	r2, #2
 1394 00f0 DA60     		str	r2, [r3, #12]
1023:Drivers/STM32F7xx_HAL_Driver/Src/stm32f7xx_hal_qspi.c **** 
1024:Drivers/STM32F7xx_HAL_Driver/Src/stm32f7xx_hal_qspi.c **** #if  defined(QSPI1_V1_0)
1025:Drivers/STM32F7xx_HAL_Driver/Src/stm32f7xx_hal_qspi.c ****           /* Clear Busy bit */
1026:Drivers/STM32F7xx_HAL_Driver/Src/stm32f7xx_hal_qspi.c ****           status = HAL_QSPI_Abort(hqspi);
 1395              		.loc 1 1026 20
 1396 00f2 F868     		ldr	r0, [r7, #12]
 1397 00f4 FFF7FEFF 		bl	HAL_QSPI_Abort
 1398 00f8 0346     		mov	r3, r0
 1399 00fa FB77     		strb	r3, [r7, #31]
 1400              	.L72:
1027:Drivers/STM32F7xx_HAL_Driver/Src/stm32f7xx_hal_qspi.c **** #endif
1028:Drivers/STM32F7xx_HAL_Driver/Src/stm32f7xx_hal_qspi.c ****         }
1029:Drivers/STM32F7xx_HAL_Driver/Src/stm32f7xx_hal_qspi.c ****       }
1030:Drivers/STM32F7xx_HAL_Driver/Src/stm32f7xx_hal_qspi.c **** 
1031:Drivers/STM32F7xx_HAL_Driver/Src/stm32f7xx_hal_qspi.c ****       /* Update QSPI state */
1032:Drivers/STM32F7xx_HAL_Driver/Src/stm32f7xx_hal_qspi.c ****       hqspi->State = HAL_QSPI_STATE_READY;
 1401              		.loc 1 1032 20
 1402 00fc FB68     		ldr	r3, [r7, #12]
 1403 00fe 0122     		movs	r2, #1
 1404 0100 83F84120 		strb	r2, [r3, #65]
 1405 0104 0AE0     		b	.L73
 1406              	.L67:
1033:Drivers/STM32F7xx_HAL_Driver/Src/stm32f7xx_hal_qspi.c ****     }
1034:Drivers/STM32F7xx_HAL_Driver/Src/stm32f7xx_hal_qspi.c ****     else
1035:Drivers/STM32F7xx_HAL_Driver/Src/stm32f7xx_hal_qspi.c ****     {
1036:Drivers/STM32F7xx_HAL_Driver/Src/stm32f7xx_hal_qspi.c ****       hqspi->ErrorCode |= HAL_QSPI_ERROR_INVALID_PARAM;
 1407              		.loc 1 1036 24
 1408 0106 FB68     		ldr	r3, [r7, #12]
 1409 0108 5B6C     		ldr	r3, [r3, #68]
 1410 010a 43F00802 		orr	r2, r3, #8
 1411 010e FB68     		ldr	r3, [r7, #12]
 1412 0110 5A64     		str	r2, [r3, #68]
ARM GAS  C:\Users\jisu8\AppData\Local\Temp\ccA6Ygqq.s 			page 44


1037:Drivers/STM32F7xx_HAL_Driver/Src/stm32f7xx_hal_qspi.c ****       status = HAL_ERROR;
 1413              		.loc 1 1037 14
 1414 0112 0123     		movs	r3, #1
 1415 0114 FB77     		strb	r3, [r7, #31]
 1416 0116 01E0     		b	.L73
 1417              	.L66:
1038:Drivers/STM32F7xx_HAL_Driver/Src/stm32f7xx_hal_qspi.c ****     }
1039:Drivers/STM32F7xx_HAL_Driver/Src/stm32f7xx_hal_qspi.c ****   }
1040:Drivers/STM32F7xx_HAL_Driver/Src/stm32f7xx_hal_qspi.c ****   else
1041:Drivers/STM32F7xx_HAL_Driver/Src/stm32f7xx_hal_qspi.c ****   {
1042:Drivers/STM32F7xx_HAL_Driver/Src/stm32f7xx_hal_qspi.c ****     status = HAL_BUSY;
 1418              		.loc 1 1042 12
 1419 0118 0223     		movs	r3, #2
 1420 011a FB77     		strb	r3, [r7, #31]
 1421              	.L73:
1043:Drivers/STM32F7xx_HAL_Driver/Src/stm32f7xx_hal_qspi.c ****   }
1044:Drivers/STM32F7xx_HAL_Driver/Src/stm32f7xx_hal_qspi.c **** 
1045:Drivers/STM32F7xx_HAL_Driver/Src/stm32f7xx_hal_qspi.c ****   /* Process unlocked */
1046:Drivers/STM32F7xx_HAL_Driver/Src/stm32f7xx_hal_qspi.c ****   __HAL_UNLOCK(hqspi);
 1422              		.loc 1 1046 3
 1423 011c FB68     		ldr	r3, [r7, #12]
 1424 011e 0022     		movs	r2, #0
 1425 0120 83F84020 		strb	r2, [r3, #64]
1047:Drivers/STM32F7xx_HAL_Driver/Src/stm32f7xx_hal_qspi.c **** 
1048:Drivers/STM32F7xx_HAL_Driver/Src/stm32f7xx_hal_qspi.c ****   return status;
 1426              		.loc 1 1048 10
 1427 0124 FB7F     		ldrb	r3, [r7, #31]	@ zero_extendqisi2
 1428              	.L65:
1049:Drivers/STM32F7xx_HAL_Driver/Src/stm32f7xx_hal_qspi.c **** }
 1429              		.loc 1 1049 1
 1430 0126 1846     		mov	r0, r3
 1431 0128 2037     		adds	r7, r7, #32
 1432              	.LCFI40:
 1433              		.cfi_def_cfa_offset 8
 1434 012a BD46     		mov	sp, r7
 1435              	.LCFI41:
 1436              		.cfi_def_cfa_register 13
 1437              		@ sp needed
 1438 012c 80BD     		pop	{r7, pc}
 1439              		.cfi_endproc
 1440              	.LFE148:
 1442              		.section	.text.HAL_QSPI_Receive,"ax",%progbits
 1443              		.align	1
 1444              		.global	HAL_QSPI_Receive
 1445              		.syntax unified
 1446              		.thumb
 1447              		.thumb_func
 1449              	HAL_QSPI_Receive:
 1450              	.LFB149:
1050:Drivers/STM32F7xx_HAL_Driver/Src/stm32f7xx_hal_qspi.c **** 
1051:Drivers/STM32F7xx_HAL_Driver/Src/stm32f7xx_hal_qspi.c **** 
1052:Drivers/STM32F7xx_HAL_Driver/Src/stm32f7xx_hal_qspi.c **** /**
1053:Drivers/STM32F7xx_HAL_Driver/Src/stm32f7xx_hal_qspi.c ****   * @brief Receive an amount of data in blocking mode.
1054:Drivers/STM32F7xx_HAL_Driver/Src/stm32f7xx_hal_qspi.c ****   * @param hqspi QSPI handle
1055:Drivers/STM32F7xx_HAL_Driver/Src/stm32f7xx_hal_qspi.c ****   * @param pData pointer to data buffer
1056:Drivers/STM32F7xx_HAL_Driver/Src/stm32f7xx_hal_qspi.c ****   * @param Timeout Timeout duration
1057:Drivers/STM32F7xx_HAL_Driver/Src/stm32f7xx_hal_qspi.c ****   * @note   This function is used only in Indirect Read Mode
ARM GAS  C:\Users\jisu8\AppData\Local\Temp\ccA6Ygqq.s 			page 45


1058:Drivers/STM32F7xx_HAL_Driver/Src/stm32f7xx_hal_qspi.c ****   * @retval HAL status
1059:Drivers/STM32F7xx_HAL_Driver/Src/stm32f7xx_hal_qspi.c ****   */
1060:Drivers/STM32F7xx_HAL_Driver/Src/stm32f7xx_hal_qspi.c **** HAL_StatusTypeDef HAL_QSPI_Receive(QSPI_HandleTypeDef *hqspi, uint8_t *pData, uint32_t Timeout)
1061:Drivers/STM32F7xx_HAL_Driver/Src/stm32f7xx_hal_qspi.c **** {
 1451              		.loc 1 1061 1
 1452              		.cfi_startproc
 1453              		@ args = 0, pretend = 0, frame = 32
 1454              		@ frame_needed = 1, uses_anonymous_args = 0
 1455 0000 80B5     		push	{r7, lr}
 1456              	.LCFI42:
 1457              		.cfi_def_cfa_offset 8
 1458              		.cfi_offset 7, -8
 1459              		.cfi_offset 14, -4
 1460 0002 8AB0     		sub	sp, sp, #40
 1461              	.LCFI43:
 1462              		.cfi_def_cfa_offset 48
 1463 0004 02AF     		add	r7, sp, #8
 1464              	.LCFI44:
 1465              		.cfi_def_cfa 7, 40
 1466 0006 F860     		str	r0, [r7, #12]
 1467 0008 B960     		str	r1, [r7, #8]
 1468 000a 7A60     		str	r2, [r7, #4]
1062:Drivers/STM32F7xx_HAL_Driver/Src/stm32f7xx_hal_qspi.c ****   HAL_StatusTypeDef status = HAL_OK;
 1469              		.loc 1 1062 21
 1470 000c 0023     		movs	r3, #0
 1471 000e FB77     		strb	r3, [r7, #31]
1063:Drivers/STM32F7xx_HAL_Driver/Src/stm32f7xx_hal_qspi.c ****   uint32_t tickstart = HAL_GetTick();
 1472              		.loc 1 1063 24
 1473 0010 FFF7FEFF 		bl	HAL_GetTick
 1474 0014 B861     		str	r0, [r7, #24]
1064:Drivers/STM32F7xx_HAL_Driver/Src/stm32f7xx_hal_qspi.c ****   uint32_t addr_reg = READ_REG(hqspi->Instance->AR);
 1475              		.loc 1 1064 23
 1476 0016 FB68     		ldr	r3, [r7, #12]
 1477 0018 1B68     		ldr	r3, [r3]
 1478              		.loc 1 1064 12
 1479 001a 9B69     		ldr	r3, [r3, #24]
 1480 001c 7B61     		str	r3, [r7, #20]
1065:Drivers/STM32F7xx_HAL_Driver/Src/stm32f7xx_hal_qspi.c ****   __IO uint32_t *data_reg = &hqspi->Instance->DR;
 1481              		.loc 1 1065 35
 1482 001e FB68     		ldr	r3, [r7, #12]
 1483 0020 1B68     		ldr	r3, [r3]
 1484              		.loc 1 1065 18
 1485 0022 2033     		adds	r3, r3, #32
 1486 0024 3B61     		str	r3, [r7, #16]
1066:Drivers/STM32F7xx_HAL_Driver/Src/stm32f7xx_hal_qspi.c **** 
1067:Drivers/STM32F7xx_HAL_Driver/Src/stm32f7xx_hal_qspi.c ****   /* Process locked */
1068:Drivers/STM32F7xx_HAL_Driver/Src/stm32f7xx_hal_qspi.c ****   __HAL_LOCK(hqspi);
 1487              		.loc 1 1068 3
 1488 0026 FB68     		ldr	r3, [r7, #12]
 1489 0028 93F84030 		ldrb	r3, [r3, #64]
 1490 002c DBB2     		uxtb	r3, r3
 1491 002e 012B     		cmp	r3, #1
 1492 0030 01D1     		bne	.L76
 1493              		.loc 1 1068 3 is_stmt 0 discriminator 1
 1494 0032 0223     		movs	r3, #2
 1495 0034 82E0     		b	.L77
 1496              	.L76:
ARM GAS  C:\Users\jisu8\AppData\Local\Temp\ccA6Ygqq.s 			page 46


 1497              		.loc 1 1068 3 discriminator 2
 1498 0036 FB68     		ldr	r3, [r7, #12]
 1499 0038 0122     		movs	r2, #1
 1500 003a 83F84020 		strb	r2, [r3, #64]
1069:Drivers/STM32F7xx_HAL_Driver/Src/stm32f7xx_hal_qspi.c **** 
1070:Drivers/STM32F7xx_HAL_Driver/Src/stm32f7xx_hal_qspi.c ****   if(hqspi->State == HAL_QSPI_STATE_READY)
 1501              		.loc 1 1070 11 is_stmt 1 discriminator 2
 1502 003e FB68     		ldr	r3, [r7, #12]
 1503 0040 93F84130 		ldrb	r3, [r3, #65]
 1504 0044 DBB2     		uxtb	r3, r3
 1505              		.loc 1 1070 5 discriminator 2
 1506 0046 012B     		cmp	r3, #1
 1507 0048 71D1     		bne	.L78
1071:Drivers/STM32F7xx_HAL_Driver/Src/stm32f7xx_hal_qspi.c ****   {
1072:Drivers/STM32F7xx_HAL_Driver/Src/stm32f7xx_hal_qspi.c ****     hqspi->ErrorCode = HAL_QSPI_ERROR_NONE;
 1508              		.loc 1 1072 22
 1509 004a FB68     		ldr	r3, [r7, #12]
 1510 004c 0022     		movs	r2, #0
 1511 004e 5A64     		str	r2, [r3, #68]
1073:Drivers/STM32F7xx_HAL_Driver/Src/stm32f7xx_hal_qspi.c **** 
1074:Drivers/STM32F7xx_HAL_Driver/Src/stm32f7xx_hal_qspi.c ****     if(pData != NULL )
 1512              		.loc 1 1074 7
 1513 0050 BB68     		ldr	r3, [r7, #8]
 1514 0052 002B     		cmp	r3, #0
 1515 0054 62D0     		beq	.L79
1075:Drivers/STM32F7xx_HAL_Driver/Src/stm32f7xx_hal_qspi.c ****     {
1076:Drivers/STM32F7xx_HAL_Driver/Src/stm32f7xx_hal_qspi.c ****       /* Update state */
1077:Drivers/STM32F7xx_HAL_Driver/Src/stm32f7xx_hal_qspi.c ****       hqspi->State = HAL_QSPI_STATE_BUSY_INDIRECT_RX;
 1516              		.loc 1 1077 20
 1517 0056 FB68     		ldr	r3, [r7, #12]
 1518 0058 2222     		movs	r2, #34
 1519 005a 83F84120 		strb	r2, [r3, #65]
1078:Drivers/STM32F7xx_HAL_Driver/Src/stm32f7xx_hal_qspi.c **** 
1079:Drivers/STM32F7xx_HAL_Driver/Src/stm32f7xx_hal_qspi.c ****       /* Configure counters and size of the handle */
1080:Drivers/STM32F7xx_HAL_Driver/Src/stm32f7xx_hal_qspi.c ****       hqspi->RxXferCount = READ_REG(hqspi->Instance->DLR) + 1U;
 1520              		.loc 1 1080 28
 1521 005e FB68     		ldr	r3, [r7, #12]
 1522 0060 1B68     		ldr	r3, [r3]
 1523 0062 1B69     		ldr	r3, [r3, #16]
 1524              		.loc 1 1080 59
 1525 0064 5A1C     		adds	r2, r3, #1
 1526              		.loc 1 1080 26
 1527 0066 FB68     		ldr	r3, [r7, #12]
 1528 0068 9A63     		str	r2, [r3, #56]
1081:Drivers/STM32F7xx_HAL_Driver/Src/stm32f7xx_hal_qspi.c ****       hqspi->RxXferSize = READ_REG(hqspi->Instance->DLR) + 1U;
 1529              		.loc 1 1081 27
 1530 006a FB68     		ldr	r3, [r7, #12]
 1531 006c 1B68     		ldr	r3, [r3]
 1532 006e 1B69     		ldr	r3, [r3, #16]
 1533              		.loc 1 1081 58
 1534 0070 5A1C     		adds	r2, r3, #1
 1535              		.loc 1 1081 25
 1536 0072 FB68     		ldr	r3, [r7, #12]
 1537 0074 5A63     		str	r2, [r3, #52]
1082:Drivers/STM32F7xx_HAL_Driver/Src/stm32f7xx_hal_qspi.c ****       hqspi->pRxBuffPtr = pData;
 1538              		.loc 1 1082 25
 1539 0076 FB68     		ldr	r3, [r7, #12]
ARM GAS  C:\Users\jisu8\AppData\Local\Temp\ccA6Ygqq.s 			page 47


 1540 0078 BA68     		ldr	r2, [r7, #8]
 1541 007a 1A63     		str	r2, [r3, #48]
1083:Drivers/STM32F7xx_HAL_Driver/Src/stm32f7xx_hal_qspi.c **** 
1084:Drivers/STM32F7xx_HAL_Driver/Src/stm32f7xx_hal_qspi.c ****       /* Configure QSPI: CCR register with functional as indirect read */
1085:Drivers/STM32F7xx_HAL_Driver/Src/stm32f7xx_hal_qspi.c ****       MODIFY_REG(hqspi->Instance->CCR, QUADSPI_CCR_FMODE, QSPI_FUNCTIONAL_MODE_INDIRECT_READ);
 1542              		.loc 1 1085 7
 1543 007c FB68     		ldr	r3, [r7, #12]
 1544 007e 1B68     		ldr	r3, [r3]
 1545 0080 5B69     		ldr	r3, [r3, #20]
 1546 0082 23F04062 		bic	r2, r3, #201326592
 1547 0086 FB68     		ldr	r3, [r7, #12]
 1548 0088 1B68     		ldr	r3, [r3]
 1549 008a 42F08062 		orr	r2, r2, #67108864
 1550 008e 5A61     		str	r2, [r3, #20]
1086:Drivers/STM32F7xx_HAL_Driver/Src/stm32f7xx_hal_qspi.c **** 
1087:Drivers/STM32F7xx_HAL_Driver/Src/stm32f7xx_hal_qspi.c ****       /* Start the transfer by re-writing the address in AR register */
1088:Drivers/STM32F7xx_HAL_Driver/Src/stm32f7xx_hal_qspi.c ****       WRITE_REG(hqspi->Instance->AR, addr_reg);
 1551              		.loc 1 1088 7
 1552 0090 FB68     		ldr	r3, [r7, #12]
 1553 0092 1B68     		ldr	r3, [r3]
 1554 0094 7A69     		ldr	r2, [r7, #20]
 1555 0096 9A61     		str	r2, [r3, #24]
1089:Drivers/STM32F7xx_HAL_Driver/Src/stm32f7xx_hal_qspi.c **** 
1090:Drivers/STM32F7xx_HAL_Driver/Src/stm32f7xx_hal_qspi.c ****       while(hqspi->RxXferCount > 0U)
 1556              		.loc 1 1090 12
 1557 0098 1CE0     		b	.L80
 1558              	.L83:
1091:Drivers/STM32F7xx_HAL_Driver/Src/stm32f7xx_hal_qspi.c ****       {
1092:Drivers/STM32F7xx_HAL_Driver/Src/stm32f7xx_hal_qspi.c ****         /* Wait until FT or TC flag is set to read received data */
1093:Drivers/STM32F7xx_HAL_Driver/Src/stm32f7xx_hal_qspi.c ****         status = QSPI_WaitFlagStateUntilTimeout(hqspi, (QSPI_FLAG_FT | QSPI_FLAG_TC), SET, tickstar
 1559              		.loc 1 1093 18
 1560 009a 7B68     		ldr	r3, [r7, #4]
 1561 009c 0093     		str	r3, [sp]
 1562 009e BB69     		ldr	r3, [r7, #24]
 1563 00a0 0122     		movs	r2, #1
 1564 00a2 0621     		movs	r1, #6
 1565 00a4 F868     		ldr	r0, [r7, #12]
 1566 00a6 FFF7FEFF 		bl	QSPI_WaitFlagStateUntilTimeout
 1567 00aa 0346     		mov	r3, r0
 1568 00ac FB77     		strb	r3, [r7, #31]
1094:Drivers/STM32F7xx_HAL_Driver/Src/stm32f7xx_hal_qspi.c **** 
1095:Drivers/STM32F7xx_HAL_Driver/Src/stm32f7xx_hal_qspi.c ****         if  (status != HAL_OK)
 1569              		.loc 1 1095 13
 1570 00ae FB7F     		ldrb	r3, [r7, #31]	@ zero_extendqisi2
 1571 00b0 002B     		cmp	r3, #0
 1572 00b2 14D1     		bne	.L86
1096:Drivers/STM32F7xx_HAL_Driver/Src/stm32f7xx_hal_qspi.c ****         {
1097:Drivers/STM32F7xx_HAL_Driver/Src/stm32f7xx_hal_qspi.c ****           break;
1098:Drivers/STM32F7xx_HAL_Driver/Src/stm32f7xx_hal_qspi.c ****         }
1099:Drivers/STM32F7xx_HAL_Driver/Src/stm32f7xx_hal_qspi.c **** 
1100:Drivers/STM32F7xx_HAL_Driver/Src/stm32f7xx_hal_qspi.c ****         *hqspi->pRxBuffPtr = *((__IO uint8_t *)data_reg);
 1573              		.loc 1 1100 15
 1574 00b4 FB68     		ldr	r3, [r7, #12]
 1575 00b6 1B6B     		ldr	r3, [r3, #48]
 1576              		.loc 1 1100 30
 1577 00b8 3A69     		ldr	r2, [r7, #16]
 1578 00ba 1278     		ldrb	r2, [r2]
ARM GAS  C:\Users\jisu8\AppData\Local\Temp\ccA6Ygqq.s 			page 48


 1579 00bc D2B2     		uxtb	r2, r2
 1580              		.loc 1 1100 28
 1581 00be 1A70     		strb	r2, [r3]
1101:Drivers/STM32F7xx_HAL_Driver/Src/stm32f7xx_hal_qspi.c ****         hqspi->pRxBuffPtr++;
 1582              		.loc 1 1101 14
 1583 00c0 FB68     		ldr	r3, [r7, #12]
 1584 00c2 1B6B     		ldr	r3, [r3, #48]
 1585              		.loc 1 1101 26
 1586 00c4 5A1C     		adds	r2, r3, #1
 1587 00c6 FB68     		ldr	r3, [r7, #12]
 1588 00c8 1A63     		str	r2, [r3, #48]
1102:Drivers/STM32F7xx_HAL_Driver/Src/stm32f7xx_hal_qspi.c ****         hqspi->RxXferCount--;
 1589              		.loc 1 1102 14
 1590 00ca FB68     		ldr	r3, [r7, #12]
 1591 00cc 9B6B     		ldr	r3, [r3, #56]
 1592              		.loc 1 1102 27
 1593 00ce 5A1E     		subs	r2, r3, #1
 1594 00d0 FB68     		ldr	r3, [r7, #12]
 1595 00d2 9A63     		str	r2, [r3, #56]
 1596              	.L80:
1090:Drivers/STM32F7xx_HAL_Driver/Src/stm32f7xx_hal_qspi.c ****       {
 1597              		.loc 1 1090 18
 1598 00d4 FB68     		ldr	r3, [r7, #12]
 1599 00d6 9B6B     		ldr	r3, [r3, #56]
1090:Drivers/STM32F7xx_HAL_Driver/Src/stm32f7xx_hal_qspi.c ****       {
 1600              		.loc 1 1090 12
 1601 00d8 002B     		cmp	r3, #0
 1602 00da DED1     		bne	.L83
 1603 00dc 00E0     		b	.L82
 1604              	.L86:
1097:Drivers/STM32F7xx_HAL_Driver/Src/stm32f7xx_hal_qspi.c ****         }
 1605              		.loc 1 1097 11
 1606 00de 00BF     		nop
 1607              	.L82:
1103:Drivers/STM32F7xx_HAL_Driver/Src/stm32f7xx_hal_qspi.c ****       }
1104:Drivers/STM32F7xx_HAL_Driver/Src/stm32f7xx_hal_qspi.c **** 
1105:Drivers/STM32F7xx_HAL_Driver/Src/stm32f7xx_hal_qspi.c ****       if (status == HAL_OK)
 1608              		.loc 1 1105 10
 1609 00e0 FB7F     		ldrb	r3, [r7, #31]	@ zero_extendqisi2
 1610 00e2 002B     		cmp	r3, #0
 1611 00e4 15D1     		bne	.L84
1106:Drivers/STM32F7xx_HAL_Driver/Src/stm32f7xx_hal_qspi.c ****       {
1107:Drivers/STM32F7xx_HAL_Driver/Src/stm32f7xx_hal_qspi.c ****         /* Wait until TC flag is set to go back in idle state */
1108:Drivers/STM32F7xx_HAL_Driver/Src/stm32f7xx_hal_qspi.c ****         status = QSPI_WaitFlagStateUntilTimeout(hqspi, QSPI_FLAG_TC, SET, tickstart, Timeout);
 1612              		.loc 1 1108 18
 1613 00e6 7B68     		ldr	r3, [r7, #4]
 1614 00e8 0093     		str	r3, [sp]
 1615 00ea BB69     		ldr	r3, [r7, #24]
 1616 00ec 0122     		movs	r2, #1
 1617 00ee 0221     		movs	r1, #2
 1618 00f0 F868     		ldr	r0, [r7, #12]
 1619 00f2 FFF7FEFF 		bl	QSPI_WaitFlagStateUntilTimeout
 1620 00f6 0346     		mov	r3, r0
 1621 00f8 FB77     		strb	r3, [r7, #31]
1109:Drivers/STM32F7xx_HAL_Driver/Src/stm32f7xx_hal_qspi.c **** 
1110:Drivers/STM32F7xx_HAL_Driver/Src/stm32f7xx_hal_qspi.c ****         if  (status == HAL_OK)
 1622              		.loc 1 1110 13
ARM GAS  C:\Users\jisu8\AppData\Local\Temp\ccA6Ygqq.s 			page 49


 1623 00fa FB7F     		ldrb	r3, [r7, #31]	@ zero_extendqisi2
 1624 00fc 002B     		cmp	r3, #0
 1625 00fe 08D1     		bne	.L84
1111:Drivers/STM32F7xx_HAL_Driver/Src/stm32f7xx_hal_qspi.c ****         {
1112:Drivers/STM32F7xx_HAL_Driver/Src/stm32f7xx_hal_qspi.c ****           /* Clear Transfer Complete bit */
1113:Drivers/STM32F7xx_HAL_Driver/Src/stm32f7xx_hal_qspi.c ****           __HAL_QSPI_CLEAR_FLAG(hqspi, QSPI_FLAG_TC);
 1626              		.loc 1 1113 11
 1627 0100 FB68     		ldr	r3, [r7, #12]
 1628 0102 1B68     		ldr	r3, [r3]
 1629 0104 0222     		movs	r2, #2
 1630 0106 DA60     		str	r2, [r3, #12]
1114:Drivers/STM32F7xx_HAL_Driver/Src/stm32f7xx_hal_qspi.c **** 
1115:Drivers/STM32F7xx_HAL_Driver/Src/stm32f7xx_hal_qspi.c **** #if  defined(QSPI1_V1_0)
1116:Drivers/STM32F7xx_HAL_Driver/Src/stm32f7xx_hal_qspi.c ****           /* Workaround - Extra data written in the FIFO at the end of a read transfer */
1117:Drivers/STM32F7xx_HAL_Driver/Src/stm32f7xx_hal_qspi.c ****           status = HAL_QSPI_Abort(hqspi);
 1631              		.loc 1 1117 20
 1632 0108 F868     		ldr	r0, [r7, #12]
 1633 010a FFF7FEFF 		bl	HAL_QSPI_Abort
 1634 010e 0346     		mov	r3, r0
 1635 0110 FB77     		strb	r3, [r7, #31]
 1636              	.L84:
1118:Drivers/STM32F7xx_HAL_Driver/Src/stm32f7xx_hal_qspi.c **** #endif
1119:Drivers/STM32F7xx_HAL_Driver/Src/stm32f7xx_hal_qspi.c ****         }
1120:Drivers/STM32F7xx_HAL_Driver/Src/stm32f7xx_hal_qspi.c ****       }
1121:Drivers/STM32F7xx_HAL_Driver/Src/stm32f7xx_hal_qspi.c **** 
1122:Drivers/STM32F7xx_HAL_Driver/Src/stm32f7xx_hal_qspi.c ****       /* Update QSPI state */
1123:Drivers/STM32F7xx_HAL_Driver/Src/stm32f7xx_hal_qspi.c ****       hqspi->State = HAL_QSPI_STATE_READY;
 1637              		.loc 1 1123 20
 1638 0112 FB68     		ldr	r3, [r7, #12]
 1639 0114 0122     		movs	r2, #1
 1640 0116 83F84120 		strb	r2, [r3, #65]
 1641 011a 0AE0     		b	.L85
 1642              	.L79:
1124:Drivers/STM32F7xx_HAL_Driver/Src/stm32f7xx_hal_qspi.c ****     }
1125:Drivers/STM32F7xx_HAL_Driver/Src/stm32f7xx_hal_qspi.c ****     else
1126:Drivers/STM32F7xx_HAL_Driver/Src/stm32f7xx_hal_qspi.c ****     {
1127:Drivers/STM32F7xx_HAL_Driver/Src/stm32f7xx_hal_qspi.c ****       hqspi->ErrorCode |= HAL_QSPI_ERROR_INVALID_PARAM;
 1643              		.loc 1 1127 24
 1644 011c FB68     		ldr	r3, [r7, #12]
 1645 011e 5B6C     		ldr	r3, [r3, #68]
 1646 0120 43F00802 		orr	r2, r3, #8
 1647 0124 FB68     		ldr	r3, [r7, #12]
 1648 0126 5A64     		str	r2, [r3, #68]
1128:Drivers/STM32F7xx_HAL_Driver/Src/stm32f7xx_hal_qspi.c ****       status = HAL_ERROR;
 1649              		.loc 1 1128 14
 1650 0128 0123     		movs	r3, #1
 1651 012a FB77     		strb	r3, [r7, #31]
 1652 012c 01E0     		b	.L85
 1653              	.L78:
1129:Drivers/STM32F7xx_HAL_Driver/Src/stm32f7xx_hal_qspi.c ****     }
1130:Drivers/STM32F7xx_HAL_Driver/Src/stm32f7xx_hal_qspi.c ****   }
1131:Drivers/STM32F7xx_HAL_Driver/Src/stm32f7xx_hal_qspi.c ****   else
1132:Drivers/STM32F7xx_HAL_Driver/Src/stm32f7xx_hal_qspi.c ****   {
1133:Drivers/STM32F7xx_HAL_Driver/Src/stm32f7xx_hal_qspi.c ****     status = HAL_BUSY;
 1654              		.loc 1 1133 12
 1655 012e 0223     		movs	r3, #2
 1656 0130 FB77     		strb	r3, [r7, #31]
ARM GAS  C:\Users\jisu8\AppData\Local\Temp\ccA6Ygqq.s 			page 50


 1657              	.L85:
1134:Drivers/STM32F7xx_HAL_Driver/Src/stm32f7xx_hal_qspi.c ****   }
1135:Drivers/STM32F7xx_HAL_Driver/Src/stm32f7xx_hal_qspi.c **** 
1136:Drivers/STM32F7xx_HAL_Driver/Src/stm32f7xx_hal_qspi.c ****   /* Process unlocked */
1137:Drivers/STM32F7xx_HAL_Driver/Src/stm32f7xx_hal_qspi.c ****   __HAL_UNLOCK(hqspi);
 1658              		.loc 1 1137 3
 1659 0132 FB68     		ldr	r3, [r7, #12]
 1660 0134 0022     		movs	r2, #0
 1661 0136 83F84020 		strb	r2, [r3, #64]
1138:Drivers/STM32F7xx_HAL_Driver/Src/stm32f7xx_hal_qspi.c **** 
1139:Drivers/STM32F7xx_HAL_Driver/Src/stm32f7xx_hal_qspi.c ****   return status;
 1662              		.loc 1 1139 10
 1663 013a FB7F     		ldrb	r3, [r7, #31]	@ zero_extendqisi2
 1664              	.L77:
1140:Drivers/STM32F7xx_HAL_Driver/Src/stm32f7xx_hal_qspi.c **** }
 1665              		.loc 1 1140 1
 1666 013c 1846     		mov	r0, r3
 1667 013e 2037     		adds	r7, r7, #32
 1668              	.LCFI45:
 1669              		.cfi_def_cfa_offset 8
 1670 0140 BD46     		mov	sp, r7
 1671              	.LCFI46:
 1672              		.cfi_def_cfa_register 13
 1673              		@ sp needed
 1674 0142 80BD     		pop	{r7, pc}
 1675              		.cfi_endproc
 1676              	.LFE149:
 1678              		.section	.text.HAL_QSPI_Transmit_IT,"ax",%progbits
 1679              		.align	1
 1680              		.global	HAL_QSPI_Transmit_IT
 1681              		.syntax unified
 1682              		.thumb
 1683              		.thumb_func
 1685              	HAL_QSPI_Transmit_IT:
 1686              	.LFB150:
1141:Drivers/STM32F7xx_HAL_Driver/Src/stm32f7xx_hal_qspi.c **** 
1142:Drivers/STM32F7xx_HAL_Driver/Src/stm32f7xx_hal_qspi.c **** /**
1143:Drivers/STM32F7xx_HAL_Driver/Src/stm32f7xx_hal_qspi.c ****   * @brief  Send an amount of data in non-blocking mode with interrupt.
1144:Drivers/STM32F7xx_HAL_Driver/Src/stm32f7xx_hal_qspi.c ****   * @param  hqspi QSPI handle
1145:Drivers/STM32F7xx_HAL_Driver/Src/stm32f7xx_hal_qspi.c ****   * @param  pData pointer to data buffer
1146:Drivers/STM32F7xx_HAL_Driver/Src/stm32f7xx_hal_qspi.c ****   * @note   This function is used only in Indirect Write Mode
1147:Drivers/STM32F7xx_HAL_Driver/Src/stm32f7xx_hal_qspi.c ****   * @retval HAL status
1148:Drivers/STM32F7xx_HAL_Driver/Src/stm32f7xx_hal_qspi.c ****   */
1149:Drivers/STM32F7xx_HAL_Driver/Src/stm32f7xx_hal_qspi.c **** HAL_StatusTypeDef HAL_QSPI_Transmit_IT(QSPI_HandleTypeDef *hqspi, uint8_t *pData)
1150:Drivers/STM32F7xx_HAL_Driver/Src/stm32f7xx_hal_qspi.c **** {
 1687              		.loc 1 1150 1
 1688              		.cfi_startproc
 1689              		@ args = 0, pretend = 0, frame = 16
 1690              		@ frame_needed = 1, uses_anonymous_args = 0
 1691              		@ link register save eliminated.
 1692 0000 80B4     		push	{r7}
 1693              	.LCFI47:
 1694              		.cfi_def_cfa_offset 4
 1695              		.cfi_offset 7, -4
 1696 0002 85B0     		sub	sp, sp, #20
 1697              	.LCFI48:
 1698              		.cfi_def_cfa_offset 24
ARM GAS  C:\Users\jisu8\AppData\Local\Temp\ccA6Ygqq.s 			page 51


 1699 0004 00AF     		add	r7, sp, #0
 1700              	.LCFI49:
 1701              		.cfi_def_cfa_register 7
 1702 0006 7860     		str	r0, [r7, #4]
 1703 0008 3960     		str	r1, [r7]
1151:Drivers/STM32F7xx_HAL_Driver/Src/stm32f7xx_hal_qspi.c ****   HAL_StatusTypeDef status = HAL_OK;
 1704              		.loc 1 1151 21
 1705 000a 0023     		movs	r3, #0
 1706 000c FB73     		strb	r3, [r7, #15]
1152:Drivers/STM32F7xx_HAL_Driver/Src/stm32f7xx_hal_qspi.c **** 
1153:Drivers/STM32F7xx_HAL_Driver/Src/stm32f7xx_hal_qspi.c ****   /* Process locked */
1154:Drivers/STM32F7xx_HAL_Driver/Src/stm32f7xx_hal_qspi.c ****   __HAL_LOCK(hqspi);
 1707              		.loc 1 1154 3
 1708 000e 7B68     		ldr	r3, [r7, #4]
 1709 0010 93F84030 		ldrb	r3, [r3, #64]
 1710 0014 DBB2     		uxtb	r3, r3
 1711 0016 012B     		cmp	r3, #1
 1712 0018 01D1     		bne	.L88
 1713              		.loc 1 1154 3 is_stmt 0 discriminator 1
 1714 001a 0223     		movs	r3, #2
 1715 001c 4FE0     		b	.L89
 1716              	.L88:
 1717              		.loc 1 1154 3 discriminator 2
 1718 001e 7B68     		ldr	r3, [r7, #4]
 1719 0020 0122     		movs	r2, #1
 1720 0022 83F84020 		strb	r2, [r3, #64]
1155:Drivers/STM32F7xx_HAL_Driver/Src/stm32f7xx_hal_qspi.c **** 
1156:Drivers/STM32F7xx_HAL_Driver/Src/stm32f7xx_hal_qspi.c ****   if(hqspi->State == HAL_QSPI_STATE_READY)
 1721              		.loc 1 1156 11 is_stmt 1 discriminator 2
 1722 0026 7B68     		ldr	r3, [r7, #4]
 1723 0028 93F84130 		ldrb	r3, [r3, #65]
 1724 002c DBB2     		uxtb	r3, r3
 1725              		.loc 1 1156 5 discriminator 2
 1726 002e 012B     		cmp	r3, #1
 1727 0030 3ED1     		bne	.L90
1157:Drivers/STM32F7xx_HAL_Driver/Src/stm32f7xx_hal_qspi.c ****   {
1158:Drivers/STM32F7xx_HAL_Driver/Src/stm32f7xx_hal_qspi.c ****     hqspi->ErrorCode = HAL_QSPI_ERROR_NONE;
 1728              		.loc 1 1158 22
 1729 0032 7B68     		ldr	r3, [r7, #4]
 1730 0034 0022     		movs	r2, #0
 1731 0036 5A64     		str	r2, [r3, #68]
1159:Drivers/STM32F7xx_HAL_Driver/Src/stm32f7xx_hal_qspi.c **** 
1160:Drivers/STM32F7xx_HAL_Driver/Src/stm32f7xx_hal_qspi.c ****     if(pData != NULL )
 1732              		.loc 1 1160 7
 1733 0038 3B68     		ldr	r3, [r7]
 1734 003a 002B     		cmp	r3, #0
 1735 003c 2BD0     		beq	.L91
1161:Drivers/STM32F7xx_HAL_Driver/Src/stm32f7xx_hal_qspi.c ****     {
1162:Drivers/STM32F7xx_HAL_Driver/Src/stm32f7xx_hal_qspi.c ****       /* Update state */
1163:Drivers/STM32F7xx_HAL_Driver/Src/stm32f7xx_hal_qspi.c ****       hqspi->State = HAL_QSPI_STATE_BUSY_INDIRECT_TX;
 1736              		.loc 1 1163 20
 1737 003e 7B68     		ldr	r3, [r7, #4]
 1738 0040 1222     		movs	r2, #18
 1739 0042 83F84120 		strb	r2, [r3, #65]
1164:Drivers/STM32F7xx_HAL_Driver/Src/stm32f7xx_hal_qspi.c **** 
1165:Drivers/STM32F7xx_HAL_Driver/Src/stm32f7xx_hal_qspi.c ****       /* Configure counters and size of the handle */
1166:Drivers/STM32F7xx_HAL_Driver/Src/stm32f7xx_hal_qspi.c ****       hqspi->TxXferCount = READ_REG(hqspi->Instance->DLR) + 1U;
ARM GAS  C:\Users\jisu8\AppData\Local\Temp\ccA6Ygqq.s 			page 52


 1740              		.loc 1 1166 28
 1741 0046 7B68     		ldr	r3, [r7, #4]
 1742 0048 1B68     		ldr	r3, [r3]
 1743 004a 1B69     		ldr	r3, [r3, #16]
 1744              		.loc 1 1166 59
 1745 004c 5A1C     		adds	r2, r3, #1
 1746              		.loc 1 1166 26
 1747 004e 7B68     		ldr	r3, [r7, #4]
 1748 0050 DA62     		str	r2, [r3, #44]
1167:Drivers/STM32F7xx_HAL_Driver/Src/stm32f7xx_hal_qspi.c ****       hqspi->TxXferSize = READ_REG(hqspi->Instance->DLR) + 1U;
 1749              		.loc 1 1167 27
 1750 0052 7B68     		ldr	r3, [r7, #4]
 1751 0054 1B68     		ldr	r3, [r3]
 1752 0056 1B69     		ldr	r3, [r3, #16]
 1753              		.loc 1 1167 58
 1754 0058 5A1C     		adds	r2, r3, #1
 1755              		.loc 1 1167 25
 1756 005a 7B68     		ldr	r3, [r7, #4]
 1757 005c 9A62     		str	r2, [r3, #40]
1168:Drivers/STM32F7xx_HAL_Driver/Src/stm32f7xx_hal_qspi.c ****       hqspi->pTxBuffPtr = pData;
 1758              		.loc 1 1168 25
 1759 005e 7B68     		ldr	r3, [r7, #4]
 1760 0060 3A68     		ldr	r2, [r7]
 1761 0062 5A62     		str	r2, [r3, #36]
1169:Drivers/STM32F7xx_HAL_Driver/Src/stm32f7xx_hal_qspi.c **** 
1170:Drivers/STM32F7xx_HAL_Driver/Src/stm32f7xx_hal_qspi.c ****       /* Clear interrupt */
1171:Drivers/STM32F7xx_HAL_Driver/Src/stm32f7xx_hal_qspi.c ****       __HAL_QSPI_CLEAR_FLAG(hqspi, QSPI_FLAG_TE | QSPI_FLAG_TC);
 1762              		.loc 1 1171 7
 1763 0064 7B68     		ldr	r3, [r7, #4]
 1764 0066 1B68     		ldr	r3, [r3]
 1765 0068 0322     		movs	r2, #3
 1766 006a DA60     		str	r2, [r3, #12]
1172:Drivers/STM32F7xx_HAL_Driver/Src/stm32f7xx_hal_qspi.c **** 
1173:Drivers/STM32F7xx_HAL_Driver/Src/stm32f7xx_hal_qspi.c ****       /* Configure QSPI: CCR register with functional as indirect write */
1174:Drivers/STM32F7xx_HAL_Driver/Src/stm32f7xx_hal_qspi.c ****       MODIFY_REG(hqspi->Instance->CCR, QUADSPI_CCR_FMODE, QSPI_FUNCTIONAL_MODE_INDIRECT_WRITE);
 1767              		.loc 1 1174 7
 1768 006c 7B68     		ldr	r3, [r7, #4]
 1769 006e 1B68     		ldr	r3, [r3]
 1770 0070 5A69     		ldr	r2, [r3, #20]
 1771 0072 7B68     		ldr	r3, [r7, #4]
 1772 0074 1B68     		ldr	r3, [r3]
 1773 0076 22F04062 		bic	r2, r2, #201326592
 1774 007a 5A61     		str	r2, [r3, #20]
1175:Drivers/STM32F7xx_HAL_Driver/Src/stm32f7xx_hal_qspi.c **** 
1176:Drivers/STM32F7xx_HAL_Driver/Src/stm32f7xx_hal_qspi.c ****       /* Process unlocked */
1177:Drivers/STM32F7xx_HAL_Driver/Src/stm32f7xx_hal_qspi.c ****       __HAL_UNLOCK(hqspi);
 1775              		.loc 1 1177 7
 1776 007c 7B68     		ldr	r3, [r7, #4]
 1777 007e 0022     		movs	r2, #0
 1778 0080 83F84020 		strb	r2, [r3, #64]
1178:Drivers/STM32F7xx_HAL_Driver/Src/stm32f7xx_hal_qspi.c **** 
1179:Drivers/STM32F7xx_HAL_Driver/Src/stm32f7xx_hal_qspi.c ****       /* Enable the QSPI transfer error, FIFO threshold and transfer complete Interrupts */
1180:Drivers/STM32F7xx_HAL_Driver/Src/stm32f7xx_hal_qspi.c ****       __HAL_QSPI_ENABLE_IT(hqspi, QSPI_IT_TE | QSPI_IT_FT | QSPI_IT_TC);
 1779              		.loc 1 1180 7
 1780 0084 7B68     		ldr	r3, [r7, #4]
 1781 0086 1B68     		ldr	r3, [r3]
 1782 0088 1A68     		ldr	r2, [r3]
ARM GAS  C:\Users\jisu8\AppData\Local\Temp\ccA6Ygqq.s 			page 53


 1783 008a 7B68     		ldr	r3, [r7, #4]
 1784 008c 1B68     		ldr	r3, [r3]
 1785 008e 42F4E022 		orr	r2, r2, #458752
 1786 0092 1A60     		str	r2, [r3]
 1787 0094 12E0     		b	.L92
 1788              	.L91:
1181:Drivers/STM32F7xx_HAL_Driver/Src/stm32f7xx_hal_qspi.c ****     }
1182:Drivers/STM32F7xx_HAL_Driver/Src/stm32f7xx_hal_qspi.c ****     else
1183:Drivers/STM32F7xx_HAL_Driver/Src/stm32f7xx_hal_qspi.c ****     {
1184:Drivers/STM32F7xx_HAL_Driver/Src/stm32f7xx_hal_qspi.c ****       hqspi->ErrorCode |= HAL_QSPI_ERROR_INVALID_PARAM;
 1789              		.loc 1 1184 24
 1790 0096 7B68     		ldr	r3, [r7, #4]
 1791 0098 5B6C     		ldr	r3, [r3, #68]
 1792 009a 43F00802 		orr	r2, r3, #8
 1793 009e 7B68     		ldr	r3, [r7, #4]
 1794 00a0 5A64     		str	r2, [r3, #68]
1185:Drivers/STM32F7xx_HAL_Driver/Src/stm32f7xx_hal_qspi.c ****       status = HAL_ERROR;
 1795              		.loc 1 1185 14
 1796 00a2 0123     		movs	r3, #1
 1797 00a4 FB73     		strb	r3, [r7, #15]
1186:Drivers/STM32F7xx_HAL_Driver/Src/stm32f7xx_hal_qspi.c **** 
1187:Drivers/STM32F7xx_HAL_Driver/Src/stm32f7xx_hal_qspi.c ****       /* Process unlocked */
1188:Drivers/STM32F7xx_HAL_Driver/Src/stm32f7xx_hal_qspi.c ****       __HAL_UNLOCK(hqspi);
 1798              		.loc 1 1188 7
 1799 00a6 7B68     		ldr	r3, [r7, #4]
 1800 00a8 0022     		movs	r2, #0
 1801 00aa 83F84020 		strb	r2, [r3, #64]
 1802 00ae 05E0     		b	.L92
 1803              	.L90:
1189:Drivers/STM32F7xx_HAL_Driver/Src/stm32f7xx_hal_qspi.c ****     }
1190:Drivers/STM32F7xx_HAL_Driver/Src/stm32f7xx_hal_qspi.c ****   }
1191:Drivers/STM32F7xx_HAL_Driver/Src/stm32f7xx_hal_qspi.c ****   else
1192:Drivers/STM32F7xx_HAL_Driver/Src/stm32f7xx_hal_qspi.c ****   {
1193:Drivers/STM32F7xx_HAL_Driver/Src/stm32f7xx_hal_qspi.c ****     status = HAL_BUSY;
 1804              		.loc 1 1193 12
 1805 00b0 0223     		movs	r3, #2
 1806 00b2 FB73     		strb	r3, [r7, #15]
1194:Drivers/STM32F7xx_HAL_Driver/Src/stm32f7xx_hal_qspi.c **** 
1195:Drivers/STM32F7xx_HAL_Driver/Src/stm32f7xx_hal_qspi.c ****     /* Process unlocked */
1196:Drivers/STM32F7xx_HAL_Driver/Src/stm32f7xx_hal_qspi.c ****     __HAL_UNLOCK(hqspi);
 1807              		.loc 1 1196 5
 1808 00b4 7B68     		ldr	r3, [r7, #4]
 1809 00b6 0022     		movs	r2, #0
 1810 00b8 83F84020 		strb	r2, [r3, #64]
 1811              	.L92:
1197:Drivers/STM32F7xx_HAL_Driver/Src/stm32f7xx_hal_qspi.c ****   }
1198:Drivers/STM32F7xx_HAL_Driver/Src/stm32f7xx_hal_qspi.c **** 
1199:Drivers/STM32F7xx_HAL_Driver/Src/stm32f7xx_hal_qspi.c ****   return status;
 1812              		.loc 1 1199 10
 1813 00bc FB7B     		ldrb	r3, [r7, #15]	@ zero_extendqisi2
 1814              	.L89:
1200:Drivers/STM32F7xx_HAL_Driver/Src/stm32f7xx_hal_qspi.c **** }
 1815              		.loc 1 1200 1
 1816 00be 1846     		mov	r0, r3
 1817 00c0 1437     		adds	r7, r7, #20
 1818              	.LCFI50:
 1819              		.cfi_def_cfa_offset 4
ARM GAS  C:\Users\jisu8\AppData\Local\Temp\ccA6Ygqq.s 			page 54


 1820 00c2 BD46     		mov	sp, r7
 1821              	.LCFI51:
 1822              		.cfi_def_cfa_register 13
 1823              		@ sp needed
 1824 00c4 5DF8047B 		ldr	r7, [sp], #4
 1825              	.LCFI52:
 1826              		.cfi_restore 7
 1827              		.cfi_def_cfa_offset 0
 1828 00c8 7047     		bx	lr
 1829              		.cfi_endproc
 1830              	.LFE150:
 1832              		.section	.text.HAL_QSPI_Receive_IT,"ax",%progbits
 1833              		.align	1
 1834              		.global	HAL_QSPI_Receive_IT
 1835              		.syntax unified
 1836              		.thumb
 1837              		.thumb_func
 1839              	HAL_QSPI_Receive_IT:
 1840              	.LFB151:
1201:Drivers/STM32F7xx_HAL_Driver/Src/stm32f7xx_hal_qspi.c **** 
1202:Drivers/STM32F7xx_HAL_Driver/Src/stm32f7xx_hal_qspi.c **** /**
1203:Drivers/STM32F7xx_HAL_Driver/Src/stm32f7xx_hal_qspi.c ****   * @brief  Receive an amount of data in non-blocking mode with interrupt.
1204:Drivers/STM32F7xx_HAL_Driver/Src/stm32f7xx_hal_qspi.c ****   * @param  hqspi QSPI handle
1205:Drivers/STM32F7xx_HAL_Driver/Src/stm32f7xx_hal_qspi.c ****   * @param  pData pointer to data buffer
1206:Drivers/STM32F7xx_HAL_Driver/Src/stm32f7xx_hal_qspi.c ****   * @note   This function is used only in Indirect Read Mode
1207:Drivers/STM32F7xx_HAL_Driver/Src/stm32f7xx_hal_qspi.c ****   * @retval HAL status
1208:Drivers/STM32F7xx_HAL_Driver/Src/stm32f7xx_hal_qspi.c ****   */
1209:Drivers/STM32F7xx_HAL_Driver/Src/stm32f7xx_hal_qspi.c **** HAL_StatusTypeDef HAL_QSPI_Receive_IT(QSPI_HandleTypeDef *hqspi, uint8_t *pData)
1210:Drivers/STM32F7xx_HAL_Driver/Src/stm32f7xx_hal_qspi.c **** {
 1841              		.loc 1 1210 1
 1842              		.cfi_startproc
 1843              		@ args = 0, pretend = 0, frame = 16
 1844              		@ frame_needed = 1, uses_anonymous_args = 0
 1845              		@ link register save eliminated.
 1846 0000 80B4     		push	{r7}
 1847              	.LCFI53:
 1848              		.cfi_def_cfa_offset 4
 1849              		.cfi_offset 7, -4
 1850 0002 85B0     		sub	sp, sp, #20
 1851              	.LCFI54:
 1852              		.cfi_def_cfa_offset 24
 1853 0004 00AF     		add	r7, sp, #0
 1854              	.LCFI55:
 1855              		.cfi_def_cfa_register 7
 1856 0006 7860     		str	r0, [r7, #4]
 1857 0008 3960     		str	r1, [r7]
1211:Drivers/STM32F7xx_HAL_Driver/Src/stm32f7xx_hal_qspi.c ****   HAL_StatusTypeDef status = HAL_OK;
 1858              		.loc 1 1211 21
 1859 000a 0023     		movs	r3, #0
 1860 000c FB73     		strb	r3, [r7, #15]
1212:Drivers/STM32F7xx_HAL_Driver/Src/stm32f7xx_hal_qspi.c ****   uint32_t addr_reg = READ_REG(hqspi->Instance->AR);
 1861              		.loc 1 1212 23
 1862 000e 7B68     		ldr	r3, [r7, #4]
 1863 0010 1B68     		ldr	r3, [r3]
 1864              		.loc 1 1212 12
 1865 0012 9B69     		ldr	r3, [r3, #24]
 1866 0014 BB60     		str	r3, [r7, #8]
ARM GAS  C:\Users\jisu8\AppData\Local\Temp\ccA6Ygqq.s 			page 55


1213:Drivers/STM32F7xx_HAL_Driver/Src/stm32f7xx_hal_qspi.c **** 
1214:Drivers/STM32F7xx_HAL_Driver/Src/stm32f7xx_hal_qspi.c ****   /* Process locked */
1215:Drivers/STM32F7xx_HAL_Driver/Src/stm32f7xx_hal_qspi.c ****   __HAL_LOCK(hqspi);
 1867              		.loc 1 1215 3
 1868 0016 7B68     		ldr	r3, [r7, #4]
 1869 0018 93F84030 		ldrb	r3, [r3, #64]
 1870 001c DBB2     		uxtb	r3, r3
 1871 001e 012B     		cmp	r3, #1
 1872 0020 01D1     		bne	.L94
 1873              		.loc 1 1215 3 is_stmt 0 discriminator 1
 1874 0022 0223     		movs	r3, #2
 1875 0024 55E0     		b	.L95
 1876              	.L94:
 1877              		.loc 1 1215 3 discriminator 2
 1878 0026 7B68     		ldr	r3, [r7, #4]
 1879 0028 0122     		movs	r2, #1
 1880 002a 83F84020 		strb	r2, [r3, #64]
1216:Drivers/STM32F7xx_HAL_Driver/Src/stm32f7xx_hal_qspi.c **** 
1217:Drivers/STM32F7xx_HAL_Driver/Src/stm32f7xx_hal_qspi.c ****   if(hqspi->State == HAL_QSPI_STATE_READY)
 1881              		.loc 1 1217 11 is_stmt 1 discriminator 2
 1882 002e 7B68     		ldr	r3, [r7, #4]
 1883 0030 93F84130 		ldrb	r3, [r3, #65]
 1884 0034 DBB2     		uxtb	r3, r3
 1885              		.loc 1 1217 5 discriminator 2
 1886 0036 012B     		cmp	r3, #1
 1887 0038 44D1     		bne	.L96
1218:Drivers/STM32F7xx_HAL_Driver/Src/stm32f7xx_hal_qspi.c ****   {
1219:Drivers/STM32F7xx_HAL_Driver/Src/stm32f7xx_hal_qspi.c ****     hqspi->ErrorCode = HAL_QSPI_ERROR_NONE;
 1888              		.loc 1 1219 22
 1889 003a 7B68     		ldr	r3, [r7, #4]
 1890 003c 0022     		movs	r2, #0
 1891 003e 5A64     		str	r2, [r3, #68]
1220:Drivers/STM32F7xx_HAL_Driver/Src/stm32f7xx_hal_qspi.c **** 
1221:Drivers/STM32F7xx_HAL_Driver/Src/stm32f7xx_hal_qspi.c ****     if(pData != NULL )
 1892              		.loc 1 1221 7
 1893 0040 3B68     		ldr	r3, [r7]
 1894 0042 002B     		cmp	r3, #0
 1895 0044 31D0     		beq	.L97
1222:Drivers/STM32F7xx_HAL_Driver/Src/stm32f7xx_hal_qspi.c ****     {
1223:Drivers/STM32F7xx_HAL_Driver/Src/stm32f7xx_hal_qspi.c ****       /* Update state */
1224:Drivers/STM32F7xx_HAL_Driver/Src/stm32f7xx_hal_qspi.c ****       hqspi->State = HAL_QSPI_STATE_BUSY_INDIRECT_RX;
 1896              		.loc 1 1224 20
 1897 0046 7B68     		ldr	r3, [r7, #4]
 1898 0048 2222     		movs	r2, #34
 1899 004a 83F84120 		strb	r2, [r3, #65]
1225:Drivers/STM32F7xx_HAL_Driver/Src/stm32f7xx_hal_qspi.c **** 
1226:Drivers/STM32F7xx_HAL_Driver/Src/stm32f7xx_hal_qspi.c ****       /* Configure counters and size of the handle */
1227:Drivers/STM32F7xx_HAL_Driver/Src/stm32f7xx_hal_qspi.c ****       hqspi->RxXferCount = READ_REG(hqspi->Instance->DLR) + 1U;
 1900              		.loc 1 1227 28
 1901 004e 7B68     		ldr	r3, [r7, #4]
 1902 0050 1B68     		ldr	r3, [r3]
 1903 0052 1B69     		ldr	r3, [r3, #16]
 1904              		.loc 1 1227 59
 1905 0054 5A1C     		adds	r2, r3, #1
 1906              		.loc 1 1227 26
 1907 0056 7B68     		ldr	r3, [r7, #4]
 1908 0058 9A63     		str	r2, [r3, #56]
ARM GAS  C:\Users\jisu8\AppData\Local\Temp\ccA6Ygqq.s 			page 56


1228:Drivers/STM32F7xx_HAL_Driver/Src/stm32f7xx_hal_qspi.c ****       hqspi->RxXferSize = READ_REG(hqspi->Instance->DLR) + 1U;
 1909              		.loc 1 1228 27
 1910 005a 7B68     		ldr	r3, [r7, #4]
 1911 005c 1B68     		ldr	r3, [r3]
 1912 005e 1B69     		ldr	r3, [r3, #16]
 1913              		.loc 1 1228 58
 1914 0060 5A1C     		adds	r2, r3, #1
 1915              		.loc 1 1228 25
 1916 0062 7B68     		ldr	r3, [r7, #4]
 1917 0064 5A63     		str	r2, [r3, #52]
1229:Drivers/STM32F7xx_HAL_Driver/Src/stm32f7xx_hal_qspi.c ****       hqspi->pRxBuffPtr = pData;
 1918              		.loc 1 1229 25
 1919 0066 7B68     		ldr	r3, [r7, #4]
 1920 0068 3A68     		ldr	r2, [r7]
 1921 006a 1A63     		str	r2, [r3, #48]
1230:Drivers/STM32F7xx_HAL_Driver/Src/stm32f7xx_hal_qspi.c **** 
1231:Drivers/STM32F7xx_HAL_Driver/Src/stm32f7xx_hal_qspi.c ****       /* Clear interrupt */
1232:Drivers/STM32F7xx_HAL_Driver/Src/stm32f7xx_hal_qspi.c ****       __HAL_QSPI_CLEAR_FLAG(hqspi, QSPI_FLAG_TE | QSPI_FLAG_TC);
 1922              		.loc 1 1232 7
 1923 006c 7B68     		ldr	r3, [r7, #4]
 1924 006e 1B68     		ldr	r3, [r3]
 1925 0070 0322     		movs	r2, #3
 1926 0072 DA60     		str	r2, [r3, #12]
1233:Drivers/STM32F7xx_HAL_Driver/Src/stm32f7xx_hal_qspi.c **** 
1234:Drivers/STM32F7xx_HAL_Driver/Src/stm32f7xx_hal_qspi.c ****       /* Configure QSPI: CCR register with functional as indirect read */
1235:Drivers/STM32F7xx_HAL_Driver/Src/stm32f7xx_hal_qspi.c ****       MODIFY_REG(hqspi->Instance->CCR, QUADSPI_CCR_FMODE, QSPI_FUNCTIONAL_MODE_INDIRECT_READ);
 1927              		.loc 1 1235 7
 1928 0074 7B68     		ldr	r3, [r7, #4]
 1929 0076 1B68     		ldr	r3, [r3]
 1930 0078 5B69     		ldr	r3, [r3, #20]
 1931 007a 23F04062 		bic	r2, r3, #201326592
 1932 007e 7B68     		ldr	r3, [r7, #4]
 1933 0080 1B68     		ldr	r3, [r3]
 1934 0082 42F08062 		orr	r2, r2, #67108864
 1935 0086 5A61     		str	r2, [r3, #20]
1236:Drivers/STM32F7xx_HAL_Driver/Src/stm32f7xx_hal_qspi.c **** 
1237:Drivers/STM32F7xx_HAL_Driver/Src/stm32f7xx_hal_qspi.c ****       /* Start the transfer by re-writing the address in AR register */
1238:Drivers/STM32F7xx_HAL_Driver/Src/stm32f7xx_hal_qspi.c ****       WRITE_REG(hqspi->Instance->AR, addr_reg);
 1936              		.loc 1 1238 7
 1937 0088 7B68     		ldr	r3, [r7, #4]
 1938 008a 1B68     		ldr	r3, [r3]
 1939 008c BA68     		ldr	r2, [r7, #8]
 1940 008e 9A61     		str	r2, [r3, #24]
1239:Drivers/STM32F7xx_HAL_Driver/Src/stm32f7xx_hal_qspi.c **** 
1240:Drivers/STM32F7xx_HAL_Driver/Src/stm32f7xx_hal_qspi.c ****       /* Process unlocked */
1241:Drivers/STM32F7xx_HAL_Driver/Src/stm32f7xx_hal_qspi.c ****       __HAL_UNLOCK(hqspi);
 1941              		.loc 1 1241 7
 1942 0090 7B68     		ldr	r3, [r7, #4]
 1943 0092 0022     		movs	r2, #0
 1944 0094 83F84020 		strb	r2, [r3, #64]
1242:Drivers/STM32F7xx_HAL_Driver/Src/stm32f7xx_hal_qspi.c **** 
1243:Drivers/STM32F7xx_HAL_Driver/Src/stm32f7xx_hal_qspi.c ****       /* Enable the QSPI transfer error, FIFO threshold and transfer complete Interrupts */
1244:Drivers/STM32F7xx_HAL_Driver/Src/stm32f7xx_hal_qspi.c ****       __HAL_QSPI_ENABLE_IT(hqspi, QSPI_IT_TE | QSPI_IT_FT | QSPI_IT_TC);
 1945              		.loc 1 1244 7
 1946 0098 7B68     		ldr	r3, [r7, #4]
 1947 009a 1B68     		ldr	r3, [r3]
 1948 009c 1A68     		ldr	r2, [r3]
ARM GAS  C:\Users\jisu8\AppData\Local\Temp\ccA6Ygqq.s 			page 57


 1949 009e 7B68     		ldr	r3, [r7, #4]
 1950 00a0 1B68     		ldr	r3, [r3]
 1951 00a2 42F4E022 		orr	r2, r2, #458752
 1952 00a6 1A60     		str	r2, [r3]
 1953 00a8 12E0     		b	.L98
 1954              	.L97:
1245:Drivers/STM32F7xx_HAL_Driver/Src/stm32f7xx_hal_qspi.c ****     }
1246:Drivers/STM32F7xx_HAL_Driver/Src/stm32f7xx_hal_qspi.c ****     else
1247:Drivers/STM32F7xx_HAL_Driver/Src/stm32f7xx_hal_qspi.c ****     {
1248:Drivers/STM32F7xx_HAL_Driver/Src/stm32f7xx_hal_qspi.c ****       hqspi->ErrorCode |= HAL_QSPI_ERROR_INVALID_PARAM;
 1955              		.loc 1 1248 24
 1956 00aa 7B68     		ldr	r3, [r7, #4]
 1957 00ac 5B6C     		ldr	r3, [r3, #68]
 1958 00ae 43F00802 		orr	r2, r3, #8
 1959 00b2 7B68     		ldr	r3, [r7, #4]
 1960 00b4 5A64     		str	r2, [r3, #68]
1249:Drivers/STM32F7xx_HAL_Driver/Src/stm32f7xx_hal_qspi.c ****       status = HAL_ERROR;
 1961              		.loc 1 1249 14
 1962 00b6 0123     		movs	r3, #1
 1963 00b8 FB73     		strb	r3, [r7, #15]
1250:Drivers/STM32F7xx_HAL_Driver/Src/stm32f7xx_hal_qspi.c **** 
1251:Drivers/STM32F7xx_HAL_Driver/Src/stm32f7xx_hal_qspi.c ****       /* Process unlocked */
1252:Drivers/STM32F7xx_HAL_Driver/Src/stm32f7xx_hal_qspi.c ****       __HAL_UNLOCK(hqspi);
 1964              		.loc 1 1252 7
 1965 00ba 7B68     		ldr	r3, [r7, #4]
 1966 00bc 0022     		movs	r2, #0
 1967 00be 83F84020 		strb	r2, [r3, #64]
 1968 00c2 05E0     		b	.L98
 1969              	.L96:
1253:Drivers/STM32F7xx_HAL_Driver/Src/stm32f7xx_hal_qspi.c ****     }
1254:Drivers/STM32F7xx_HAL_Driver/Src/stm32f7xx_hal_qspi.c ****   }
1255:Drivers/STM32F7xx_HAL_Driver/Src/stm32f7xx_hal_qspi.c ****   else
1256:Drivers/STM32F7xx_HAL_Driver/Src/stm32f7xx_hal_qspi.c ****   {
1257:Drivers/STM32F7xx_HAL_Driver/Src/stm32f7xx_hal_qspi.c ****     status = HAL_BUSY;
 1970              		.loc 1 1257 12
 1971 00c4 0223     		movs	r3, #2
 1972 00c6 FB73     		strb	r3, [r7, #15]
1258:Drivers/STM32F7xx_HAL_Driver/Src/stm32f7xx_hal_qspi.c **** 
1259:Drivers/STM32F7xx_HAL_Driver/Src/stm32f7xx_hal_qspi.c ****     /* Process unlocked */
1260:Drivers/STM32F7xx_HAL_Driver/Src/stm32f7xx_hal_qspi.c ****     __HAL_UNLOCK(hqspi);
 1973              		.loc 1 1260 5
 1974 00c8 7B68     		ldr	r3, [r7, #4]
 1975 00ca 0022     		movs	r2, #0
 1976 00cc 83F84020 		strb	r2, [r3, #64]
 1977              	.L98:
1261:Drivers/STM32F7xx_HAL_Driver/Src/stm32f7xx_hal_qspi.c ****   }
1262:Drivers/STM32F7xx_HAL_Driver/Src/stm32f7xx_hal_qspi.c **** 
1263:Drivers/STM32F7xx_HAL_Driver/Src/stm32f7xx_hal_qspi.c ****   return status;
 1978              		.loc 1 1263 10
 1979 00d0 FB7B     		ldrb	r3, [r7, #15]	@ zero_extendqisi2
 1980              	.L95:
1264:Drivers/STM32F7xx_HAL_Driver/Src/stm32f7xx_hal_qspi.c **** }
 1981              		.loc 1 1264 1
 1982 00d2 1846     		mov	r0, r3
 1983 00d4 1437     		adds	r7, r7, #20
 1984              	.LCFI56:
 1985              		.cfi_def_cfa_offset 4
ARM GAS  C:\Users\jisu8\AppData\Local\Temp\ccA6Ygqq.s 			page 58


 1986 00d6 BD46     		mov	sp, r7
 1987              	.LCFI57:
 1988              		.cfi_def_cfa_register 13
 1989              		@ sp needed
 1990 00d8 5DF8047B 		ldr	r7, [sp], #4
 1991              	.LCFI58:
 1992              		.cfi_restore 7
 1993              		.cfi_def_cfa_offset 0
 1994 00dc 7047     		bx	lr
 1995              		.cfi_endproc
 1996              	.LFE151:
 1998              		.section	.text.HAL_QSPI_Transmit_DMA,"ax",%progbits
 1999              		.align	1
 2000              		.global	HAL_QSPI_Transmit_DMA
 2001              		.syntax unified
 2002              		.thumb
 2003              		.thumb_func
 2005              	HAL_QSPI_Transmit_DMA:
 2006              	.LFB152:
1265:Drivers/STM32F7xx_HAL_Driver/Src/stm32f7xx_hal_qspi.c **** 
1266:Drivers/STM32F7xx_HAL_Driver/Src/stm32f7xx_hal_qspi.c **** /**
1267:Drivers/STM32F7xx_HAL_Driver/Src/stm32f7xx_hal_qspi.c ****   * @brief  Send an amount of data in non-blocking mode with DMA.
1268:Drivers/STM32F7xx_HAL_Driver/Src/stm32f7xx_hal_qspi.c ****   * @param  hqspi QSPI handle
1269:Drivers/STM32F7xx_HAL_Driver/Src/stm32f7xx_hal_qspi.c ****   * @param  pData pointer to data buffer
1270:Drivers/STM32F7xx_HAL_Driver/Src/stm32f7xx_hal_qspi.c ****   * @note   This function is used only in Indirect Write Mode
1271:Drivers/STM32F7xx_HAL_Driver/Src/stm32f7xx_hal_qspi.c ****   * @note   If DMA peripheral access is configured as halfword, the number
1272:Drivers/STM32F7xx_HAL_Driver/Src/stm32f7xx_hal_qspi.c ****   *         of data and the fifo threshold should be aligned on halfword
1273:Drivers/STM32F7xx_HAL_Driver/Src/stm32f7xx_hal_qspi.c ****   * @note   If DMA peripheral access is configured as word, the number
1274:Drivers/STM32F7xx_HAL_Driver/Src/stm32f7xx_hal_qspi.c ****   *         of data and the fifo threshold should be aligned on word
1275:Drivers/STM32F7xx_HAL_Driver/Src/stm32f7xx_hal_qspi.c ****   * @retval HAL status
1276:Drivers/STM32F7xx_HAL_Driver/Src/stm32f7xx_hal_qspi.c ****   */
1277:Drivers/STM32F7xx_HAL_Driver/Src/stm32f7xx_hal_qspi.c **** HAL_StatusTypeDef HAL_QSPI_Transmit_DMA(QSPI_HandleTypeDef *hqspi, uint8_t *pData)
1278:Drivers/STM32F7xx_HAL_Driver/Src/stm32f7xx_hal_qspi.c **** {
 2007              		.loc 1 1278 1
 2008              		.cfi_startproc
 2009              		@ args = 0, pretend = 0, frame = 16
 2010              		@ frame_needed = 1, uses_anonymous_args = 0
 2011 0000 80B5     		push	{r7, lr}
 2012              	.LCFI59:
 2013              		.cfi_def_cfa_offset 8
 2014              		.cfi_offset 7, -8
 2015              		.cfi_offset 14, -4
 2016 0002 84B0     		sub	sp, sp, #16
 2017              	.LCFI60:
 2018              		.cfi_def_cfa_offset 24
 2019 0004 00AF     		add	r7, sp, #0
 2020              	.LCFI61:
 2021              		.cfi_def_cfa_register 7
 2022 0006 7860     		str	r0, [r7, #4]
 2023 0008 3960     		str	r1, [r7]
1279:Drivers/STM32F7xx_HAL_Driver/Src/stm32f7xx_hal_qspi.c ****   HAL_StatusTypeDef status = HAL_OK;
 2024              		.loc 1 1279 21
 2025 000a 0023     		movs	r3, #0
 2026 000c FB73     		strb	r3, [r7, #15]
1280:Drivers/STM32F7xx_HAL_Driver/Src/stm32f7xx_hal_qspi.c ****   uint32_t data_size = (READ_REG(hqspi->Instance->DLR) + 1U);
 2027              		.loc 1 1280 25
 2028 000e 7B68     		ldr	r3, [r7, #4]
ARM GAS  C:\Users\jisu8\AppData\Local\Temp\ccA6Ygqq.s 			page 59


 2029 0010 1B68     		ldr	r3, [r3]
 2030 0012 1B69     		ldr	r3, [r3, #16]
 2031              		.loc 1 1280 12
 2032 0014 0133     		adds	r3, r3, #1
 2033 0016 BB60     		str	r3, [r7, #8]
1281:Drivers/STM32F7xx_HAL_Driver/Src/stm32f7xx_hal_qspi.c **** 
1282:Drivers/STM32F7xx_HAL_Driver/Src/stm32f7xx_hal_qspi.c ****   /* Process locked */
1283:Drivers/STM32F7xx_HAL_Driver/Src/stm32f7xx_hal_qspi.c ****   __HAL_LOCK(hqspi);
 2034              		.loc 1 1283 3
 2035 0018 7B68     		ldr	r3, [r7, #4]
 2036 001a 93F84030 		ldrb	r3, [r3, #64]
 2037 001e DBB2     		uxtb	r3, r3
 2038 0020 012B     		cmp	r3, #1
 2039 0022 01D1     		bne	.L100
 2040              		.loc 1 1283 3 is_stmt 0 discriminator 1
 2041 0024 0223     		movs	r3, #2
 2042 0026 E3E0     		b	.L101
 2043              	.L100:
 2044              		.loc 1 1283 3 discriminator 2
 2045 0028 7B68     		ldr	r3, [r7, #4]
 2046 002a 0122     		movs	r2, #1
 2047 002c 83F84020 		strb	r2, [r3, #64]
1284:Drivers/STM32F7xx_HAL_Driver/Src/stm32f7xx_hal_qspi.c **** 
1285:Drivers/STM32F7xx_HAL_Driver/Src/stm32f7xx_hal_qspi.c ****   if(hqspi->State == HAL_QSPI_STATE_READY)
 2048              		.loc 1 1285 11 is_stmt 1 discriminator 2
 2049 0030 7B68     		ldr	r3, [r7, #4]
 2050 0032 93F84130 		ldrb	r3, [r3, #65]
 2051 0036 DBB2     		uxtb	r3, r3
 2052              		.loc 1 1285 5 discriminator 2
 2053 0038 012B     		cmp	r3, #1
 2054 003a 40F0D280 		bne	.L102
1286:Drivers/STM32F7xx_HAL_Driver/Src/stm32f7xx_hal_qspi.c ****   {
1287:Drivers/STM32F7xx_HAL_Driver/Src/stm32f7xx_hal_qspi.c ****     /* Clear the error code */
1288:Drivers/STM32F7xx_HAL_Driver/Src/stm32f7xx_hal_qspi.c ****     hqspi->ErrorCode = HAL_QSPI_ERROR_NONE;
 2055              		.loc 1 1288 22
 2056 003e 7B68     		ldr	r3, [r7, #4]
 2057 0040 0022     		movs	r2, #0
 2058 0042 5A64     		str	r2, [r3, #68]
1289:Drivers/STM32F7xx_HAL_Driver/Src/stm32f7xx_hal_qspi.c **** 
1290:Drivers/STM32F7xx_HAL_Driver/Src/stm32f7xx_hal_qspi.c ****     if(pData != NULL )
 2059              		.loc 1 1290 7
 2060 0044 3B68     		ldr	r3, [r7]
 2061 0046 002B     		cmp	r3, #0
 2062 0048 00F0BE80 		beq	.L103
1291:Drivers/STM32F7xx_HAL_Driver/Src/stm32f7xx_hal_qspi.c ****     {
1292:Drivers/STM32F7xx_HAL_Driver/Src/stm32f7xx_hal_qspi.c ****       /* Configure counters of the handle */
1293:Drivers/STM32F7xx_HAL_Driver/Src/stm32f7xx_hal_qspi.c ****       if (hqspi->hdma->Init.PeriphDataAlignment == DMA_PDATAALIGN_BYTE)
 2063              		.loc 1 1293 16
 2064 004c 7B68     		ldr	r3, [r7, #4]
 2065 004e DB6B     		ldr	r3, [r3, #60]
 2066              		.loc 1 1293 28
 2067 0050 5B69     		ldr	r3, [r3, #20]
 2068              		.loc 1 1293 10
 2069 0052 002B     		cmp	r3, #0
 2070 0054 03D1     		bne	.L104
1294:Drivers/STM32F7xx_HAL_Driver/Src/stm32f7xx_hal_qspi.c ****       {
1295:Drivers/STM32F7xx_HAL_Driver/Src/stm32f7xx_hal_qspi.c ****         hqspi->TxXferCount = data_size;
ARM GAS  C:\Users\jisu8\AppData\Local\Temp\ccA6Ygqq.s 			page 60


 2071              		.loc 1 1295 28
 2072 0056 7B68     		ldr	r3, [r7, #4]
 2073 0058 BA68     		ldr	r2, [r7, #8]
 2074 005a DA62     		str	r2, [r3, #44]
 2075 005c 44E0     		b	.L105
 2076              	.L104:
1296:Drivers/STM32F7xx_HAL_Driver/Src/stm32f7xx_hal_qspi.c ****       }
1297:Drivers/STM32F7xx_HAL_Driver/Src/stm32f7xx_hal_qspi.c ****       else if (hqspi->hdma->Init.PeriphDataAlignment == DMA_PDATAALIGN_HALFWORD)
 2077              		.loc 1 1297 21
 2078 005e 7B68     		ldr	r3, [r7, #4]
 2079 0060 DB6B     		ldr	r3, [r3, #60]
 2080              		.loc 1 1297 33
 2081 0062 5B69     		ldr	r3, [r3, #20]
 2082              		.loc 1 1297 15
 2083 0064 B3F5006F 		cmp	r3, #2048
 2084 0068 1CD1     		bne	.L106
1298:Drivers/STM32F7xx_HAL_Driver/Src/stm32f7xx_hal_qspi.c ****       {
1299:Drivers/STM32F7xx_HAL_Driver/Src/stm32f7xx_hal_qspi.c ****         if (((data_size % 2U) != 0U) || ((hqspi->Init.FifoThreshold % 2U) != 0U))
 2085              		.loc 1 1299 25
 2086 006a BB68     		ldr	r3, [r7, #8]
 2087 006c 03F00103 		and	r3, r3, #1
 2088              		.loc 1 1299 12
 2089 0070 002B     		cmp	r3, #0
 2090 0072 05D1     		bne	.L107
 2091              		.loc 1 1299 54 discriminator 1
 2092 0074 7B68     		ldr	r3, [r7, #4]
 2093 0076 9B68     		ldr	r3, [r3, #8]
 2094              		.loc 1 1299 69 discriminator 1
 2095 0078 03F00103 		and	r3, r3, #1
 2096              		.loc 1 1299 38 discriminator 1
 2097 007c 002B     		cmp	r3, #0
 2098 007e 0CD0     		beq	.L108
 2099              	.L107:
1300:Drivers/STM32F7xx_HAL_Driver/Src/stm32f7xx_hal_qspi.c ****         {
1301:Drivers/STM32F7xx_HAL_Driver/Src/stm32f7xx_hal_qspi.c ****           /* The number of data or the fifo threshold is not aligned on halfword
1302:Drivers/STM32F7xx_HAL_Driver/Src/stm32f7xx_hal_qspi.c ****           => no transfer possible with DMA peripheral access configured as halfword */
1303:Drivers/STM32F7xx_HAL_Driver/Src/stm32f7xx_hal_qspi.c ****           hqspi->ErrorCode |= HAL_QSPI_ERROR_INVALID_PARAM;
 2100              		.loc 1 1303 28
 2101 0080 7B68     		ldr	r3, [r7, #4]
 2102 0082 5B6C     		ldr	r3, [r3, #68]
 2103 0084 43F00802 		orr	r2, r3, #8
 2104 0088 7B68     		ldr	r3, [r7, #4]
 2105 008a 5A64     		str	r2, [r3, #68]
1304:Drivers/STM32F7xx_HAL_Driver/Src/stm32f7xx_hal_qspi.c ****           status = HAL_ERROR;
 2106              		.loc 1 1304 18
 2107 008c 0123     		movs	r3, #1
 2108 008e FB73     		strb	r3, [r7, #15]
1305:Drivers/STM32F7xx_HAL_Driver/Src/stm32f7xx_hal_qspi.c **** 
1306:Drivers/STM32F7xx_HAL_Driver/Src/stm32f7xx_hal_qspi.c ****           /* Process unlocked */
1307:Drivers/STM32F7xx_HAL_Driver/Src/stm32f7xx_hal_qspi.c ****           __HAL_UNLOCK(hqspi);
 2109              		.loc 1 1307 11
 2110 0090 7B68     		ldr	r3, [r7, #4]
 2111 0092 0022     		movs	r2, #0
 2112 0094 83F84020 		strb	r2, [r3, #64]
 2113 0098 26E0     		b	.L105
 2114              	.L108:
1308:Drivers/STM32F7xx_HAL_Driver/Src/stm32f7xx_hal_qspi.c ****         }
ARM GAS  C:\Users\jisu8\AppData\Local\Temp\ccA6Ygqq.s 			page 61


1309:Drivers/STM32F7xx_HAL_Driver/Src/stm32f7xx_hal_qspi.c ****         else
1310:Drivers/STM32F7xx_HAL_Driver/Src/stm32f7xx_hal_qspi.c ****         {
1311:Drivers/STM32F7xx_HAL_Driver/Src/stm32f7xx_hal_qspi.c ****           hqspi->TxXferCount = (data_size >> 1U);
 2115              		.loc 1 1311 43
 2116 009a BB68     		ldr	r3, [r7, #8]
 2117 009c 5A08     		lsrs	r2, r3, #1
 2118              		.loc 1 1311 30
 2119 009e 7B68     		ldr	r3, [r7, #4]
 2120 00a0 DA62     		str	r2, [r3, #44]
 2121 00a2 21E0     		b	.L105
 2122              	.L106:
1312:Drivers/STM32F7xx_HAL_Driver/Src/stm32f7xx_hal_qspi.c ****         }
1313:Drivers/STM32F7xx_HAL_Driver/Src/stm32f7xx_hal_qspi.c ****       }
1314:Drivers/STM32F7xx_HAL_Driver/Src/stm32f7xx_hal_qspi.c ****       else if (hqspi->hdma->Init.PeriphDataAlignment == DMA_PDATAALIGN_WORD)
 2123              		.loc 1 1314 21
 2124 00a4 7B68     		ldr	r3, [r7, #4]
 2125 00a6 DB6B     		ldr	r3, [r3, #60]
 2126              		.loc 1 1314 33
 2127 00a8 5B69     		ldr	r3, [r3, #20]
 2128              		.loc 1 1314 15
 2129 00aa B3F5805F 		cmp	r3, #4096
 2130 00ae 1BD1     		bne	.L105
1315:Drivers/STM32F7xx_HAL_Driver/Src/stm32f7xx_hal_qspi.c ****       {
1316:Drivers/STM32F7xx_HAL_Driver/Src/stm32f7xx_hal_qspi.c ****         if (((data_size % 4U) != 0U) || ((hqspi->Init.FifoThreshold % 4U) != 0U))
 2131              		.loc 1 1316 25
 2132 00b0 BB68     		ldr	r3, [r7, #8]
 2133 00b2 03F00303 		and	r3, r3, #3
 2134              		.loc 1 1316 12
 2135 00b6 002B     		cmp	r3, #0
 2136 00b8 05D1     		bne	.L110
 2137              		.loc 1 1316 54 discriminator 1
 2138 00ba 7B68     		ldr	r3, [r7, #4]
 2139 00bc 9B68     		ldr	r3, [r3, #8]
 2140              		.loc 1 1316 69 discriminator 1
 2141 00be 03F00303 		and	r3, r3, #3
 2142              		.loc 1 1316 38 discriminator 1
 2143 00c2 002B     		cmp	r3, #0
 2144 00c4 0CD0     		beq	.L111
 2145              	.L110:
1317:Drivers/STM32F7xx_HAL_Driver/Src/stm32f7xx_hal_qspi.c ****         {
1318:Drivers/STM32F7xx_HAL_Driver/Src/stm32f7xx_hal_qspi.c ****           /* The number of data or the fifo threshold is not aligned on word
1319:Drivers/STM32F7xx_HAL_Driver/Src/stm32f7xx_hal_qspi.c ****           => no transfer possible with DMA peripheral access configured as word */
1320:Drivers/STM32F7xx_HAL_Driver/Src/stm32f7xx_hal_qspi.c ****           hqspi->ErrorCode |= HAL_QSPI_ERROR_INVALID_PARAM;
 2146              		.loc 1 1320 28
 2147 00c6 7B68     		ldr	r3, [r7, #4]
 2148 00c8 5B6C     		ldr	r3, [r3, #68]
 2149 00ca 43F00802 		orr	r2, r3, #8
 2150 00ce 7B68     		ldr	r3, [r7, #4]
 2151 00d0 5A64     		str	r2, [r3, #68]
1321:Drivers/STM32F7xx_HAL_Driver/Src/stm32f7xx_hal_qspi.c ****           status = HAL_ERROR;
 2152              		.loc 1 1321 18
 2153 00d2 0123     		movs	r3, #1
 2154 00d4 FB73     		strb	r3, [r7, #15]
1322:Drivers/STM32F7xx_HAL_Driver/Src/stm32f7xx_hal_qspi.c **** 
1323:Drivers/STM32F7xx_HAL_Driver/Src/stm32f7xx_hal_qspi.c ****           /* Process unlocked */
1324:Drivers/STM32F7xx_HAL_Driver/Src/stm32f7xx_hal_qspi.c ****           __HAL_UNLOCK(hqspi);
 2155              		.loc 1 1324 11
ARM GAS  C:\Users\jisu8\AppData\Local\Temp\ccA6Ygqq.s 			page 62


 2156 00d6 7B68     		ldr	r3, [r7, #4]
 2157 00d8 0022     		movs	r2, #0
 2158 00da 83F84020 		strb	r2, [r3, #64]
 2159 00de 03E0     		b	.L105
 2160              	.L111:
1325:Drivers/STM32F7xx_HAL_Driver/Src/stm32f7xx_hal_qspi.c ****         }
1326:Drivers/STM32F7xx_HAL_Driver/Src/stm32f7xx_hal_qspi.c ****         else
1327:Drivers/STM32F7xx_HAL_Driver/Src/stm32f7xx_hal_qspi.c ****         {
1328:Drivers/STM32F7xx_HAL_Driver/Src/stm32f7xx_hal_qspi.c ****           hqspi->TxXferCount = (data_size >> 2U);
 2161              		.loc 1 1328 43
 2162 00e0 BB68     		ldr	r3, [r7, #8]
 2163 00e2 9A08     		lsrs	r2, r3, #2
 2164              		.loc 1 1328 30
 2165 00e4 7B68     		ldr	r3, [r7, #4]
 2166 00e6 DA62     		str	r2, [r3, #44]
 2167              	.L105:
1329:Drivers/STM32F7xx_HAL_Driver/Src/stm32f7xx_hal_qspi.c ****         }
1330:Drivers/STM32F7xx_HAL_Driver/Src/stm32f7xx_hal_qspi.c ****       }
1331:Drivers/STM32F7xx_HAL_Driver/Src/stm32f7xx_hal_qspi.c ****       else
1332:Drivers/STM32F7xx_HAL_Driver/Src/stm32f7xx_hal_qspi.c ****       {
1333:Drivers/STM32F7xx_HAL_Driver/Src/stm32f7xx_hal_qspi.c ****         /* Nothing to do */
1334:Drivers/STM32F7xx_HAL_Driver/Src/stm32f7xx_hal_qspi.c ****       }
1335:Drivers/STM32F7xx_HAL_Driver/Src/stm32f7xx_hal_qspi.c **** 
1336:Drivers/STM32F7xx_HAL_Driver/Src/stm32f7xx_hal_qspi.c ****       if (status == HAL_OK)
 2168              		.loc 1 1336 10
 2169 00e8 FB7B     		ldrb	r3, [r7, #15]	@ zero_extendqisi2
 2170 00ea 002B     		cmp	r3, #0
 2171 00ec 7FD1     		bne	.L113
1337:Drivers/STM32F7xx_HAL_Driver/Src/stm32f7xx_hal_qspi.c ****       {
1338:Drivers/STM32F7xx_HAL_Driver/Src/stm32f7xx_hal_qspi.c ****         /* Update state */
1339:Drivers/STM32F7xx_HAL_Driver/Src/stm32f7xx_hal_qspi.c ****         hqspi->State = HAL_QSPI_STATE_BUSY_INDIRECT_TX;
 2172              		.loc 1 1339 22
 2173 00ee 7B68     		ldr	r3, [r7, #4]
 2174 00f0 1222     		movs	r2, #18
 2175 00f2 83F84120 		strb	r2, [r3, #65]
1340:Drivers/STM32F7xx_HAL_Driver/Src/stm32f7xx_hal_qspi.c **** 
1341:Drivers/STM32F7xx_HAL_Driver/Src/stm32f7xx_hal_qspi.c ****         /* Clear interrupt */
1342:Drivers/STM32F7xx_HAL_Driver/Src/stm32f7xx_hal_qspi.c ****         __HAL_QSPI_CLEAR_FLAG(hqspi, (QSPI_FLAG_TE | QSPI_FLAG_TC));
 2176              		.loc 1 1342 9
 2177 00f6 7B68     		ldr	r3, [r7, #4]
 2178 00f8 1B68     		ldr	r3, [r3]
 2179 00fa 0322     		movs	r2, #3
 2180 00fc DA60     		str	r2, [r3, #12]
1343:Drivers/STM32F7xx_HAL_Driver/Src/stm32f7xx_hal_qspi.c **** 
1344:Drivers/STM32F7xx_HAL_Driver/Src/stm32f7xx_hal_qspi.c ****         /* Configure size and pointer of the handle */
1345:Drivers/STM32F7xx_HAL_Driver/Src/stm32f7xx_hal_qspi.c ****         hqspi->TxXferSize = hqspi->TxXferCount;
 2181              		.loc 1 1345 34
 2182 00fe 7B68     		ldr	r3, [r7, #4]
 2183 0100 DA6A     		ldr	r2, [r3, #44]
 2184              		.loc 1 1345 27
 2185 0102 7B68     		ldr	r3, [r7, #4]
 2186 0104 9A62     		str	r2, [r3, #40]
1346:Drivers/STM32F7xx_HAL_Driver/Src/stm32f7xx_hal_qspi.c ****         hqspi->pTxBuffPtr = pData;
 2187              		.loc 1 1346 27
 2188 0106 7B68     		ldr	r3, [r7, #4]
 2189 0108 3A68     		ldr	r2, [r7]
 2190 010a 5A62     		str	r2, [r3, #36]
ARM GAS  C:\Users\jisu8\AppData\Local\Temp\ccA6Ygqq.s 			page 63


1347:Drivers/STM32F7xx_HAL_Driver/Src/stm32f7xx_hal_qspi.c **** 
1348:Drivers/STM32F7xx_HAL_Driver/Src/stm32f7xx_hal_qspi.c ****         /* Configure QSPI: CCR register with functional mode as indirect write */
1349:Drivers/STM32F7xx_HAL_Driver/Src/stm32f7xx_hal_qspi.c ****         MODIFY_REG(hqspi->Instance->CCR, QUADSPI_CCR_FMODE, QSPI_FUNCTIONAL_MODE_INDIRECT_WRITE);
 2191              		.loc 1 1349 9
 2192 010c 7B68     		ldr	r3, [r7, #4]
 2193 010e 1B68     		ldr	r3, [r3]
 2194 0110 5A69     		ldr	r2, [r3, #20]
 2195 0112 7B68     		ldr	r3, [r7, #4]
 2196 0114 1B68     		ldr	r3, [r3]
 2197 0116 22F04062 		bic	r2, r2, #201326592
 2198 011a 5A61     		str	r2, [r3, #20]
1350:Drivers/STM32F7xx_HAL_Driver/Src/stm32f7xx_hal_qspi.c **** 
1351:Drivers/STM32F7xx_HAL_Driver/Src/stm32f7xx_hal_qspi.c ****         /* Set the QSPI DMA transfer complete callback */
1352:Drivers/STM32F7xx_HAL_Driver/Src/stm32f7xx_hal_qspi.c ****         hqspi->hdma->XferCpltCallback = QSPI_DMATxCplt;
 2199              		.loc 1 1352 14
 2200 011c 7B68     		ldr	r3, [r7, #4]
 2201 011e DB6B     		ldr	r3, [r3, #60]
 2202              		.loc 1 1352 39
 2203 0120 354A     		ldr	r2, .L115
 2204 0122 DA63     		str	r2, [r3, #60]
1353:Drivers/STM32F7xx_HAL_Driver/Src/stm32f7xx_hal_qspi.c **** 
1354:Drivers/STM32F7xx_HAL_Driver/Src/stm32f7xx_hal_qspi.c ****         /* Set the QSPI DMA Half transfer complete callback */
1355:Drivers/STM32F7xx_HAL_Driver/Src/stm32f7xx_hal_qspi.c ****         hqspi->hdma->XferHalfCpltCallback = QSPI_DMATxHalfCplt;
 2205              		.loc 1 1355 14
 2206 0124 7B68     		ldr	r3, [r7, #4]
 2207 0126 DB6B     		ldr	r3, [r3, #60]
 2208              		.loc 1 1355 43
 2209 0128 344A     		ldr	r2, .L115+4
 2210 012a 1A64     		str	r2, [r3, #64]
1356:Drivers/STM32F7xx_HAL_Driver/Src/stm32f7xx_hal_qspi.c **** 
1357:Drivers/STM32F7xx_HAL_Driver/Src/stm32f7xx_hal_qspi.c ****         /* Set the DMA error callback */
1358:Drivers/STM32F7xx_HAL_Driver/Src/stm32f7xx_hal_qspi.c ****         hqspi->hdma->XferErrorCallback = QSPI_DMAError;
 2211              		.loc 1 1358 14
 2212 012c 7B68     		ldr	r3, [r7, #4]
 2213 012e DB6B     		ldr	r3, [r3, #60]
 2214              		.loc 1 1358 40
 2215 0130 334A     		ldr	r2, .L115+8
 2216 0132 DA64     		str	r2, [r3, #76]
1359:Drivers/STM32F7xx_HAL_Driver/Src/stm32f7xx_hal_qspi.c **** 
1360:Drivers/STM32F7xx_HAL_Driver/Src/stm32f7xx_hal_qspi.c ****         /* Clear the DMA abort callback */
1361:Drivers/STM32F7xx_HAL_Driver/Src/stm32f7xx_hal_qspi.c ****         hqspi->hdma->XferAbortCallback = NULL;
 2217              		.loc 1 1361 14
 2218 0134 7B68     		ldr	r3, [r7, #4]
 2219 0136 DB6B     		ldr	r3, [r3, #60]
 2220              		.loc 1 1361 40
 2221 0138 0022     		movs	r2, #0
 2222 013a 1A65     		str	r2, [r3, #80]
1362:Drivers/STM32F7xx_HAL_Driver/Src/stm32f7xx_hal_qspi.c **** 
1363:Drivers/STM32F7xx_HAL_Driver/Src/stm32f7xx_hal_qspi.c ****         /* Configure the direction of the DMA */
1364:Drivers/STM32F7xx_HAL_Driver/Src/stm32f7xx_hal_qspi.c ****         hqspi->hdma->Init.Direction = DMA_MEMORY_TO_PERIPH;
 2223              		.loc 1 1364 14
 2224 013c 7B68     		ldr	r3, [r7, #4]
 2225 013e DB6B     		ldr	r3, [r3, #60]
 2226              		.loc 1 1364 37
 2227 0140 4022     		movs	r2, #64
 2228 0142 9A60     		str	r2, [r3, #8]
1365:Drivers/STM32F7xx_HAL_Driver/Src/stm32f7xx_hal_qspi.c ****         MODIFY_REG(hqspi->hdma->Instance->CR, DMA_SxCR_DIR, hqspi->hdma->Init.Direction);
ARM GAS  C:\Users\jisu8\AppData\Local\Temp\ccA6Ygqq.s 			page 64


 2229              		.loc 1 1365 9
 2230 0144 7B68     		ldr	r3, [r7, #4]
 2231 0146 DB6B     		ldr	r3, [r3, #60]
 2232 0148 1B68     		ldr	r3, [r3]
 2233 014a 1B68     		ldr	r3, [r3]
 2234 014c 23F0C001 		bic	r1, r3, #192
 2235 0150 7B68     		ldr	r3, [r7, #4]
 2236 0152 DB6B     		ldr	r3, [r3, #60]
 2237 0154 9A68     		ldr	r2, [r3, #8]
 2238 0156 7B68     		ldr	r3, [r7, #4]
 2239 0158 DB6B     		ldr	r3, [r3, #60]
 2240 015a 1B68     		ldr	r3, [r3]
 2241 015c 0A43     		orrs	r2, r2, r1
 2242 015e 1A60     		str	r2, [r3]
1366:Drivers/STM32F7xx_HAL_Driver/Src/stm32f7xx_hal_qspi.c **** 
1367:Drivers/STM32F7xx_HAL_Driver/Src/stm32f7xx_hal_qspi.c ****         /* Enable the QSPI transmit DMA Channel */
1368:Drivers/STM32F7xx_HAL_Driver/Src/stm32f7xx_hal_qspi.c ****         if (HAL_DMA_Start_IT(hqspi->hdma, (uint32_t)pData, (uint32_t)&hqspi->Instance->DR, hqspi->T
 2243              		.loc 1 1368 13
 2244 0160 7B68     		ldr	r3, [r7, #4]
 2245 0162 D86B     		ldr	r0, [r3, #60]
 2246 0164 3968     		ldr	r1, [r7]
 2247              		.loc 1 1368 76
 2248 0166 7B68     		ldr	r3, [r7, #4]
 2249 0168 1B68     		ldr	r3, [r3]
 2250              		.loc 1 1368 70
 2251 016a 2033     		adds	r3, r3, #32
 2252              		.loc 1 1368 13
 2253 016c 1A46     		mov	r2, r3
 2254 016e 7B68     		ldr	r3, [r7, #4]
 2255 0170 9B6A     		ldr	r3, [r3, #40]
 2256 0172 FFF7FEFF 		bl	HAL_DMA_Start_IT
 2257 0176 0346     		mov	r3, r0
 2258              		.loc 1 1368 12
 2259 0178 002B     		cmp	r3, #0
 2260 017a 14D1     		bne	.L114
1369:Drivers/STM32F7xx_HAL_Driver/Src/stm32f7xx_hal_qspi.c ****         {
1370:Drivers/STM32F7xx_HAL_Driver/Src/stm32f7xx_hal_qspi.c ****           /* Process unlocked */
1371:Drivers/STM32F7xx_HAL_Driver/Src/stm32f7xx_hal_qspi.c ****           __HAL_UNLOCK(hqspi);
 2261              		.loc 1 1371 11
 2262 017c 7B68     		ldr	r3, [r7, #4]
 2263 017e 0022     		movs	r2, #0
 2264 0180 83F84020 		strb	r2, [r3, #64]
1372:Drivers/STM32F7xx_HAL_Driver/Src/stm32f7xx_hal_qspi.c **** 
1373:Drivers/STM32F7xx_HAL_Driver/Src/stm32f7xx_hal_qspi.c ****           /* Enable the QSPI transfer error Interrupt */
1374:Drivers/STM32F7xx_HAL_Driver/Src/stm32f7xx_hal_qspi.c ****           __HAL_QSPI_ENABLE_IT(hqspi, QSPI_IT_TE);
 2265              		.loc 1 1374 11
 2266 0184 7B68     		ldr	r3, [r7, #4]
 2267 0186 1B68     		ldr	r3, [r3]
 2268 0188 1A68     		ldr	r2, [r3]
 2269 018a 7B68     		ldr	r3, [r7, #4]
 2270 018c 1B68     		ldr	r3, [r3]
 2271 018e 42F48032 		orr	r2, r2, #65536
 2272 0192 1A60     		str	r2, [r3]
1375:Drivers/STM32F7xx_HAL_Driver/Src/stm32f7xx_hal_qspi.c **** 
1376:Drivers/STM32F7xx_HAL_Driver/Src/stm32f7xx_hal_qspi.c ****           /* Enable the DMA transfer by setting the DMAEN bit in the QSPI CR register */
1377:Drivers/STM32F7xx_HAL_Driver/Src/stm32f7xx_hal_qspi.c ****           SET_BIT(hqspi->Instance->CR, QUADSPI_CR_DMAEN);
 2273              		.loc 1 1377 11
ARM GAS  C:\Users\jisu8\AppData\Local\Temp\ccA6Ygqq.s 			page 65


 2274 0194 7B68     		ldr	r3, [r7, #4]
 2275 0196 1B68     		ldr	r3, [r3]
 2276 0198 1A68     		ldr	r2, [r3]
 2277 019a 7B68     		ldr	r3, [r7, #4]
 2278 019c 1B68     		ldr	r3, [r3]
 2279 019e 42F00402 		orr	r2, r2, #4
 2280 01a2 1A60     		str	r2, [r3]
 2281 01a4 23E0     		b	.L113
 2282              	.L114:
1378:Drivers/STM32F7xx_HAL_Driver/Src/stm32f7xx_hal_qspi.c ****         }
1379:Drivers/STM32F7xx_HAL_Driver/Src/stm32f7xx_hal_qspi.c ****         else
1380:Drivers/STM32F7xx_HAL_Driver/Src/stm32f7xx_hal_qspi.c ****         {
1381:Drivers/STM32F7xx_HAL_Driver/Src/stm32f7xx_hal_qspi.c ****           status = HAL_ERROR;
 2283              		.loc 1 1381 18
 2284 01a6 0123     		movs	r3, #1
 2285 01a8 FB73     		strb	r3, [r7, #15]
1382:Drivers/STM32F7xx_HAL_Driver/Src/stm32f7xx_hal_qspi.c ****           hqspi->ErrorCode |= HAL_QSPI_ERROR_DMA;
 2286              		.loc 1 1382 28
 2287 01aa 7B68     		ldr	r3, [r7, #4]
 2288 01ac 5B6C     		ldr	r3, [r3, #68]
 2289 01ae 43F00402 		orr	r2, r3, #4
 2290 01b2 7B68     		ldr	r3, [r7, #4]
 2291 01b4 5A64     		str	r2, [r3, #68]
1383:Drivers/STM32F7xx_HAL_Driver/Src/stm32f7xx_hal_qspi.c ****           hqspi->State = HAL_QSPI_STATE_READY;
 2292              		.loc 1 1383 24
 2293 01b6 7B68     		ldr	r3, [r7, #4]
 2294 01b8 0122     		movs	r2, #1
 2295 01ba 83F84120 		strb	r2, [r3, #65]
1384:Drivers/STM32F7xx_HAL_Driver/Src/stm32f7xx_hal_qspi.c **** 
1385:Drivers/STM32F7xx_HAL_Driver/Src/stm32f7xx_hal_qspi.c ****           /* Process unlocked */
1386:Drivers/STM32F7xx_HAL_Driver/Src/stm32f7xx_hal_qspi.c ****           __HAL_UNLOCK(hqspi);
 2296              		.loc 1 1386 11
 2297 01be 7B68     		ldr	r3, [r7, #4]
 2298 01c0 0022     		movs	r2, #0
 2299 01c2 83F84020 		strb	r2, [r3, #64]
 2300 01c6 12E0     		b	.L113
 2301              	.L103:
1387:Drivers/STM32F7xx_HAL_Driver/Src/stm32f7xx_hal_qspi.c ****         }
1388:Drivers/STM32F7xx_HAL_Driver/Src/stm32f7xx_hal_qspi.c ****      }
1389:Drivers/STM32F7xx_HAL_Driver/Src/stm32f7xx_hal_qspi.c ****     }
1390:Drivers/STM32F7xx_HAL_Driver/Src/stm32f7xx_hal_qspi.c ****     else
1391:Drivers/STM32F7xx_HAL_Driver/Src/stm32f7xx_hal_qspi.c ****     {
1392:Drivers/STM32F7xx_HAL_Driver/Src/stm32f7xx_hal_qspi.c ****       hqspi->ErrorCode |= HAL_QSPI_ERROR_INVALID_PARAM;
 2302              		.loc 1 1392 24
 2303 01c8 7B68     		ldr	r3, [r7, #4]
 2304 01ca 5B6C     		ldr	r3, [r3, #68]
 2305 01cc 43F00802 		orr	r2, r3, #8
 2306 01d0 7B68     		ldr	r3, [r7, #4]
 2307 01d2 5A64     		str	r2, [r3, #68]
1393:Drivers/STM32F7xx_HAL_Driver/Src/stm32f7xx_hal_qspi.c ****       status = HAL_ERROR;
 2308              		.loc 1 1393 14
 2309 01d4 0123     		movs	r3, #1
 2310 01d6 FB73     		strb	r3, [r7, #15]
1394:Drivers/STM32F7xx_HAL_Driver/Src/stm32f7xx_hal_qspi.c **** 
1395:Drivers/STM32F7xx_HAL_Driver/Src/stm32f7xx_hal_qspi.c ****       /* Process unlocked */
1396:Drivers/STM32F7xx_HAL_Driver/Src/stm32f7xx_hal_qspi.c ****       __HAL_UNLOCK(hqspi);
 2311              		.loc 1 1396 7
ARM GAS  C:\Users\jisu8\AppData\Local\Temp\ccA6Ygqq.s 			page 66


 2312 01d8 7B68     		ldr	r3, [r7, #4]
 2313 01da 0022     		movs	r2, #0
 2314 01dc 83F84020 		strb	r2, [r3, #64]
 2315 01e0 05E0     		b	.L113
 2316              	.L102:
1397:Drivers/STM32F7xx_HAL_Driver/Src/stm32f7xx_hal_qspi.c ****     }
1398:Drivers/STM32F7xx_HAL_Driver/Src/stm32f7xx_hal_qspi.c ****   }
1399:Drivers/STM32F7xx_HAL_Driver/Src/stm32f7xx_hal_qspi.c ****   else
1400:Drivers/STM32F7xx_HAL_Driver/Src/stm32f7xx_hal_qspi.c ****   {
1401:Drivers/STM32F7xx_HAL_Driver/Src/stm32f7xx_hal_qspi.c ****     status = HAL_BUSY;
 2317              		.loc 1 1401 12
 2318 01e2 0223     		movs	r3, #2
 2319 01e4 FB73     		strb	r3, [r7, #15]
1402:Drivers/STM32F7xx_HAL_Driver/Src/stm32f7xx_hal_qspi.c **** 
1403:Drivers/STM32F7xx_HAL_Driver/Src/stm32f7xx_hal_qspi.c ****     /* Process unlocked */
1404:Drivers/STM32F7xx_HAL_Driver/Src/stm32f7xx_hal_qspi.c ****     __HAL_UNLOCK(hqspi);
 2320              		.loc 1 1404 5
 2321 01e6 7B68     		ldr	r3, [r7, #4]
 2322 01e8 0022     		movs	r2, #0
 2323 01ea 83F84020 		strb	r2, [r3, #64]
 2324              	.L113:
1405:Drivers/STM32F7xx_HAL_Driver/Src/stm32f7xx_hal_qspi.c ****   }
1406:Drivers/STM32F7xx_HAL_Driver/Src/stm32f7xx_hal_qspi.c **** 
1407:Drivers/STM32F7xx_HAL_Driver/Src/stm32f7xx_hal_qspi.c ****   return status;
 2325              		.loc 1 1407 10
 2326 01ee FB7B     		ldrb	r3, [r7, #15]	@ zero_extendqisi2
 2327              	.L101:
1408:Drivers/STM32F7xx_HAL_Driver/Src/stm32f7xx_hal_qspi.c **** }
 2328              		.loc 1 1408 1
 2329 01f0 1846     		mov	r0, r3
 2330 01f2 1037     		adds	r7, r7, #16
 2331              	.LCFI62:
 2332              		.cfi_def_cfa_offset 8
 2333 01f4 BD46     		mov	sp, r7
 2334              	.LCFI63:
 2335              		.cfi_def_cfa_register 13
 2336              		@ sp needed
 2337 01f6 80BD     		pop	{r7, pc}
 2338              	.L116:
 2339              		.align	2
 2340              	.L115:
 2341 01f8 00000000 		.word	QSPI_DMATxCplt
 2342 01fc 00000000 		.word	QSPI_DMATxHalfCplt
 2343 0200 00000000 		.word	QSPI_DMAError
 2344              		.cfi_endproc
 2345              	.LFE152:
 2347              		.section	.text.HAL_QSPI_Receive_DMA,"ax",%progbits
 2348              		.align	1
 2349              		.global	HAL_QSPI_Receive_DMA
 2350              		.syntax unified
 2351              		.thumb
 2352              		.thumb_func
 2354              	HAL_QSPI_Receive_DMA:
 2355              	.LFB153:
1409:Drivers/STM32F7xx_HAL_Driver/Src/stm32f7xx_hal_qspi.c **** 
1410:Drivers/STM32F7xx_HAL_Driver/Src/stm32f7xx_hal_qspi.c **** /**
1411:Drivers/STM32F7xx_HAL_Driver/Src/stm32f7xx_hal_qspi.c ****   * @brief  Receive an amount of data in non-blocking mode with DMA.
ARM GAS  C:\Users\jisu8\AppData\Local\Temp\ccA6Ygqq.s 			page 67


1412:Drivers/STM32F7xx_HAL_Driver/Src/stm32f7xx_hal_qspi.c ****   * @param  hqspi QSPI handle
1413:Drivers/STM32F7xx_HAL_Driver/Src/stm32f7xx_hal_qspi.c ****   * @param  pData pointer to data buffer.
1414:Drivers/STM32F7xx_HAL_Driver/Src/stm32f7xx_hal_qspi.c ****   * @note   This function is used only in Indirect Read Mode
1415:Drivers/STM32F7xx_HAL_Driver/Src/stm32f7xx_hal_qspi.c ****   * @note   If DMA peripheral access is configured as halfword, the number
1416:Drivers/STM32F7xx_HAL_Driver/Src/stm32f7xx_hal_qspi.c ****   *         of data and the fifo threshold should be aligned on halfword
1417:Drivers/STM32F7xx_HAL_Driver/Src/stm32f7xx_hal_qspi.c ****   * @note   If DMA peripheral access is configured as word, the number
1418:Drivers/STM32F7xx_HAL_Driver/Src/stm32f7xx_hal_qspi.c ****   *         of data and the fifo threshold should be aligned on word
1419:Drivers/STM32F7xx_HAL_Driver/Src/stm32f7xx_hal_qspi.c ****   * @retval HAL status
1420:Drivers/STM32F7xx_HAL_Driver/Src/stm32f7xx_hal_qspi.c ****   */
1421:Drivers/STM32F7xx_HAL_Driver/Src/stm32f7xx_hal_qspi.c **** HAL_StatusTypeDef HAL_QSPI_Receive_DMA(QSPI_HandleTypeDef *hqspi, uint8_t *pData)
1422:Drivers/STM32F7xx_HAL_Driver/Src/stm32f7xx_hal_qspi.c **** {
 2356              		.loc 1 1422 1
 2357              		.cfi_startproc
 2358              		@ args = 0, pretend = 0, frame = 24
 2359              		@ frame_needed = 1, uses_anonymous_args = 0
 2360 0000 80B5     		push	{r7, lr}
 2361              	.LCFI64:
 2362              		.cfi_def_cfa_offset 8
 2363              		.cfi_offset 7, -8
 2364              		.cfi_offset 14, -4
 2365 0002 86B0     		sub	sp, sp, #24
 2366              	.LCFI65:
 2367              		.cfi_def_cfa_offset 32
 2368 0004 00AF     		add	r7, sp, #0
 2369              	.LCFI66:
 2370              		.cfi_def_cfa_register 7
 2371 0006 7860     		str	r0, [r7, #4]
 2372 0008 3960     		str	r1, [r7]
1423:Drivers/STM32F7xx_HAL_Driver/Src/stm32f7xx_hal_qspi.c ****   HAL_StatusTypeDef status = HAL_OK;
 2373              		.loc 1 1423 21
 2374 000a 0023     		movs	r3, #0
 2375 000c FB75     		strb	r3, [r7, #23]
1424:Drivers/STM32F7xx_HAL_Driver/Src/stm32f7xx_hal_qspi.c ****   uint32_t addr_reg = READ_REG(hqspi->Instance->AR);
 2376              		.loc 1 1424 23
 2377 000e 7B68     		ldr	r3, [r7, #4]
 2378 0010 1B68     		ldr	r3, [r3]
 2379              		.loc 1 1424 12
 2380 0012 9B69     		ldr	r3, [r3, #24]
 2381 0014 3B61     		str	r3, [r7, #16]
1425:Drivers/STM32F7xx_HAL_Driver/Src/stm32f7xx_hal_qspi.c ****   uint32_t data_size = (READ_REG(hqspi->Instance->DLR) + 1U);
 2382              		.loc 1 1425 25
 2383 0016 7B68     		ldr	r3, [r7, #4]
 2384 0018 1B68     		ldr	r3, [r3]
 2385 001a 1B69     		ldr	r3, [r3, #16]
 2386              		.loc 1 1425 12
 2387 001c 0133     		adds	r3, r3, #1
 2388 001e FB60     		str	r3, [r7, #12]
1426:Drivers/STM32F7xx_HAL_Driver/Src/stm32f7xx_hal_qspi.c **** 
1427:Drivers/STM32F7xx_HAL_Driver/Src/stm32f7xx_hal_qspi.c ****   /* Process locked */
1428:Drivers/STM32F7xx_HAL_Driver/Src/stm32f7xx_hal_qspi.c ****   __HAL_LOCK(hqspi);
 2389              		.loc 1 1428 3
 2390 0020 7B68     		ldr	r3, [r7, #4]
 2391 0022 93F84030 		ldrb	r3, [r3, #64]
 2392 0026 DBB2     		uxtb	r3, r3
 2393 0028 012B     		cmp	r3, #1
 2394 002a 01D1     		bne	.L118
 2395              		.loc 1 1428 3 is_stmt 0 discriminator 1
ARM GAS  C:\Users\jisu8\AppData\Local\Temp\ccA6Ygqq.s 			page 68


 2396 002c 0223     		movs	r3, #2
 2397 002e EAE0     		b	.L119
 2398              	.L118:
 2399              		.loc 1 1428 3 discriminator 2
 2400 0030 7B68     		ldr	r3, [r7, #4]
 2401 0032 0122     		movs	r2, #1
 2402 0034 83F84020 		strb	r2, [r3, #64]
1429:Drivers/STM32F7xx_HAL_Driver/Src/stm32f7xx_hal_qspi.c **** 
1430:Drivers/STM32F7xx_HAL_Driver/Src/stm32f7xx_hal_qspi.c ****   if(hqspi->State == HAL_QSPI_STATE_READY)
 2403              		.loc 1 1430 11 is_stmt 1 discriminator 2
 2404 0038 7B68     		ldr	r3, [r7, #4]
 2405 003a 93F84130 		ldrb	r3, [r3, #65]
 2406 003e DBB2     		uxtb	r3, r3
 2407              		.loc 1 1430 5 discriminator 2
 2408 0040 012B     		cmp	r3, #1
 2409 0042 40F0D980 		bne	.L120
1431:Drivers/STM32F7xx_HAL_Driver/Src/stm32f7xx_hal_qspi.c ****   {
1432:Drivers/STM32F7xx_HAL_Driver/Src/stm32f7xx_hal_qspi.c ****     /* Clear the error code */
1433:Drivers/STM32F7xx_HAL_Driver/Src/stm32f7xx_hal_qspi.c ****     hqspi->ErrorCode = HAL_QSPI_ERROR_NONE;
 2410              		.loc 1 1433 22
 2411 0046 7B68     		ldr	r3, [r7, #4]
 2412 0048 0022     		movs	r2, #0
 2413 004a 5A64     		str	r2, [r3, #68]
1434:Drivers/STM32F7xx_HAL_Driver/Src/stm32f7xx_hal_qspi.c **** 
1435:Drivers/STM32F7xx_HAL_Driver/Src/stm32f7xx_hal_qspi.c ****     if(pData != NULL )
 2414              		.loc 1 1435 7
 2415 004c 3B68     		ldr	r3, [r7]
 2416 004e 002B     		cmp	r3, #0
 2417 0050 00F0C580 		beq	.L121
1436:Drivers/STM32F7xx_HAL_Driver/Src/stm32f7xx_hal_qspi.c ****     {
1437:Drivers/STM32F7xx_HAL_Driver/Src/stm32f7xx_hal_qspi.c ****       /* Configure counters of the handle */
1438:Drivers/STM32F7xx_HAL_Driver/Src/stm32f7xx_hal_qspi.c ****       if (hqspi->hdma->Init.PeriphDataAlignment == DMA_PDATAALIGN_BYTE)
 2418              		.loc 1 1438 16
 2419 0054 7B68     		ldr	r3, [r7, #4]
 2420 0056 DB6B     		ldr	r3, [r3, #60]
 2421              		.loc 1 1438 28
 2422 0058 5B69     		ldr	r3, [r3, #20]
 2423              		.loc 1 1438 10
 2424 005a 002B     		cmp	r3, #0
 2425 005c 03D1     		bne	.L122
1439:Drivers/STM32F7xx_HAL_Driver/Src/stm32f7xx_hal_qspi.c ****       {
1440:Drivers/STM32F7xx_HAL_Driver/Src/stm32f7xx_hal_qspi.c ****         hqspi->RxXferCount = data_size;
 2426              		.loc 1 1440 28
 2427 005e 7B68     		ldr	r3, [r7, #4]
 2428 0060 FA68     		ldr	r2, [r7, #12]
 2429 0062 9A63     		str	r2, [r3, #56]
 2430 0064 44E0     		b	.L123
 2431              	.L122:
1441:Drivers/STM32F7xx_HAL_Driver/Src/stm32f7xx_hal_qspi.c ****       }
1442:Drivers/STM32F7xx_HAL_Driver/Src/stm32f7xx_hal_qspi.c ****       else if (hqspi->hdma->Init.PeriphDataAlignment == DMA_PDATAALIGN_HALFWORD)
 2432              		.loc 1 1442 21
 2433 0066 7B68     		ldr	r3, [r7, #4]
 2434 0068 DB6B     		ldr	r3, [r3, #60]
 2435              		.loc 1 1442 33
 2436 006a 5B69     		ldr	r3, [r3, #20]
 2437              		.loc 1 1442 15
 2438 006c B3F5006F 		cmp	r3, #2048
ARM GAS  C:\Users\jisu8\AppData\Local\Temp\ccA6Ygqq.s 			page 69


 2439 0070 1CD1     		bne	.L124
1443:Drivers/STM32F7xx_HAL_Driver/Src/stm32f7xx_hal_qspi.c ****       {
1444:Drivers/STM32F7xx_HAL_Driver/Src/stm32f7xx_hal_qspi.c ****         if (((data_size % 2U) != 0U) || ((hqspi->Init.FifoThreshold % 2U) != 0U))
 2440              		.loc 1 1444 25
 2441 0072 FB68     		ldr	r3, [r7, #12]
 2442 0074 03F00103 		and	r3, r3, #1
 2443              		.loc 1 1444 12
 2444 0078 002B     		cmp	r3, #0
 2445 007a 05D1     		bne	.L125
 2446              		.loc 1 1444 54 discriminator 1
 2447 007c 7B68     		ldr	r3, [r7, #4]
 2448 007e 9B68     		ldr	r3, [r3, #8]
 2449              		.loc 1 1444 69 discriminator 1
 2450 0080 03F00103 		and	r3, r3, #1
 2451              		.loc 1 1444 38 discriminator 1
 2452 0084 002B     		cmp	r3, #0
 2453 0086 0CD0     		beq	.L126
 2454              	.L125:
1445:Drivers/STM32F7xx_HAL_Driver/Src/stm32f7xx_hal_qspi.c ****         {
1446:Drivers/STM32F7xx_HAL_Driver/Src/stm32f7xx_hal_qspi.c ****           /* The number of data or the fifo threshold is not aligned on halfword
1447:Drivers/STM32F7xx_HAL_Driver/Src/stm32f7xx_hal_qspi.c ****              => no transfer possible with DMA peripheral access configured as halfword */
1448:Drivers/STM32F7xx_HAL_Driver/Src/stm32f7xx_hal_qspi.c ****           hqspi->ErrorCode |= HAL_QSPI_ERROR_INVALID_PARAM;
 2455              		.loc 1 1448 28
 2456 0088 7B68     		ldr	r3, [r7, #4]
 2457 008a 5B6C     		ldr	r3, [r3, #68]
 2458 008c 43F00802 		orr	r2, r3, #8
 2459 0090 7B68     		ldr	r3, [r7, #4]
 2460 0092 5A64     		str	r2, [r3, #68]
1449:Drivers/STM32F7xx_HAL_Driver/Src/stm32f7xx_hal_qspi.c ****           status = HAL_ERROR;
 2461              		.loc 1 1449 18
 2462 0094 0123     		movs	r3, #1
 2463 0096 FB75     		strb	r3, [r7, #23]
1450:Drivers/STM32F7xx_HAL_Driver/Src/stm32f7xx_hal_qspi.c **** 
1451:Drivers/STM32F7xx_HAL_Driver/Src/stm32f7xx_hal_qspi.c ****           /* Process unlocked */
1452:Drivers/STM32F7xx_HAL_Driver/Src/stm32f7xx_hal_qspi.c ****           __HAL_UNLOCK(hqspi);
 2464              		.loc 1 1452 11
 2465 0098 7B68     		ldr	r3, [r7, #4]
 2466 009a 0022     		movs	r2, #0
 2467 009c 83F84020 		strb	r2, [r3, #64]
 2468 00a0 26E0     		b	.L123
 2469              	.L126:
1453:Drivers/STM32F7xx_HAL_Driver/Src/stm32f7xx_hal_qspi.c ****         }
1454:Drivers/STM32F7xx_HAL_Driver/Src/stm32f7xx_hal_qspi.c ****         else
1455:Drivers/STM32F7xx_HAL_Driver/Src/stm32f7xx_hal_qspi.c ****         {
1456:Drivers/STM32F7xx_HAL_Driver/Src/stm32f7xx_hal_qspi.c ****           hqspi->RxXferCount = (data_size >> 1U);
 2470              		.loc 1 1456 43
 2471 00a2 FB68     		ldr	r3, [r7, #12]
 2472 00a4 5A08     		lsrs	r2, r3, #1
 2473              		.loc 1 1456 30
 2474 00a6 7B68     		ldr	r3, [r7, #4]
 2475 00a8 9A63     		str	r2, [r3, #56]
 2476 00aa 21E0     		b	.L123
 2477              	.L124:
1457:Drivers/STM32F7xx_HAL_Driver/Src/stm32f7xx_hal_qspi.c ****         }
1458:Drivers/STM32F7xx_HAL_Driver/Src/stm32f7xx_hal_qspi.c ****       }
1459:Drivers/STM32F7xx_HAL_Driver/Src/stm32f7xx_hal_qspi.c ****       else if (hqspi->hdma->Init.PeriphDataAlignment == DMA_PDATAALIGN_WORD)
 2478              		.loc 1 1459 21
ARM GAS  C:\Users\jisu8\AppData\Local\Temp\ccA6Ygqq.s 			page 70


 2479 00ac 7B68     		ldr	r3, [r7, #4]
 2480 00ae DB6B     		ldr	r3, [r3, #60]
 2481              		.loc 1 1459 33
 2482 00b0 5B69     		ldr	r3, [r3, #20]
 2483              		.loc 1 1459 15
 2484 00b2 B3F5805F 		cmp	r3, #4096
 2485 00b6 1BD1     		bne	.L123
1460:Drivers/STM32F7xx_HAL_Driver/Src/stm32f7xx_hal_qspi.c ****       {
1461:Drivers/STM32F7xx_HAL_Driver/Src/stm32f7xx_hal_qspi.c ****         if (((data_size % 4U) != 0U) || ((hqspi->Init.FifoThreshold % 4U) != 0U))
 2486              		.loc 1 1461 25
 2487 00b8 FB68     		ldr	r3, [r7, #12]
 2488 00ba 03F00303 		and	r3, r3, #3
 2489              		.loc 1 1461 12
 2490 00be 002B     		cmp	r3, #0
 2491 00c0 05D1     		bne	.L128
 2492              		.loc 1 1461 54 discriminator 1
 2493 00c2 7B68     		ldr	r3, [r7, #4]
 2494 00c4 9B68     		ldr	r3, [r3, #8]
 2495              		.loc 1 1461 69 discriminator 1
 2496 00c6 03F00303 		and	r3, r3, #3
 2497              		.loc 1 1461 38 discriminator 1
 2498 00ca 002B     		cmp	r3, #0
 2499 00cc 0CD0     		beq	.L129
 2500              	.L128:
1462:Drivers/STM32F7xx_HAL_Driver/Src/stm32f7xx_hal_qspi.c ****         {
1463:Drivers/STM32F7xx_HAL_Driver/Src/stm32f7xx_hal_qspi.c ****           /* The number of data or the fifo threshold is not aligned on word
1464:Drivers/STM32F7xx_HAL_Driver/Src/stm32f7xx_hal_qspi.c ****              => no transfer possible with DMA peripheral access configured as word */
1465:Drivers/STM32F7xx_HAL_Driver/Src/stm32f7xx_hal_qspi.c ****           hqspi->ErrorCode |= HAL_QSPI_ERROR_INVALID_PARAM;
 2501              		.loc 1 1465 28
 2502 00ce 7B68     		ldr	r3, [r7, #4]
 2503 00d0 5B6C     		ldr	r3, [r3, #68]
 2504 00d2 43F00802 		orr	r2, r3, #8
 2505 00d6 7B68     		ldr	r3, [r7, #4]
 2506 00d8 5A64     		str	r2, [r3, #68]
1466:Drivers/STM32F7xx_HAL_Driver/Src/stm32f7xx_hal_qspi.c ****           status = HAL_ERROR;
 2507              		.loc 1 1466 18
 2508 00da 0123     		movs	r3, #1
 2509 00dc FB75     		strb	r3, [r7, #23]
1467:Drivers/STM32F7xx_HAL_Driver/Src/stm32f7xx_hal_qspi.c **** 
1468:Drivers/STM32F7xx_HAL_Driver/Src/stm32f7xx_hal_qspi.c ****           /* Process unlocked */
1469:Drivers/STM32F7xx_HAL_Driver/Src/stm32f7xx_hal_qspi.c ****           __HAL_UNLOCK(hqspi);
 2510              		.loc 1 1469 11
 2511 00de 7B68     		ldr	r3, [r7, #4]
 2512 00e0 0022     		movs	r2, #0
 2513 00e2 83F84020 		strb	r2, [r3, #64]
 2514 00e6 03E0     		b	.L123
 2515              	.L129:
1470:Drivers/STM32F7xx_HAL_Driver/Src/stm32f7xx_hal_qspi.c ****         }
1471:Drivers/STM32F7xx_HAL_Driver/Src/stm32f7xx_hal_qspi.c ****         else
1472:Drivers/STM32F7xx_HAL_Driver/Src/stm32f7xx_hal_qspi.c ****         {
1473:Drivers/STM32F7xx_HAL_Driver/Src/stm32f7xx_hal_qspi.c ****           hqspi->RxXferCount = (data_size >> 2U);
 2516              		.loc 1 1473 43
 2517 00e8 FB68     		ldr	r3, [r7, #12]
 2518 00ea 9A08     		lsrs	r2, r3, #2
 2519              		.loc 1 1473 30
 2520 00ec 7B68     		ldr	r3, [r7, #4]
 2521 00ee 9A63     		str	r2, [r3, #56]
ARM GAS  C:\Users\jisu8\AppData\Local\Temp\ccA6Ygqq.s 			page 71


 2522              	.L123:
1474:Drivers/STM32F7xx_HAL_Driver/Src/stm32f7xx_hal_qspi.c ****         }
1475:Drivers/STM32F7xx_HAL_Driver/Src/stm32f7xx_hal_qspi.c ****       }
1476:Drivers/STM32F7xx_HAL_Driver/Src/stm32f7xx_hal_qspi.c ****       else
1477:Drivers/STM32F7xx_HAL_Driver/Src/stm32f7xx_hal_qspi.c ****       {
1478:Drivers/STM32F7xx_HAL_Driver/Src/stm32f7xx_hal_qspi.c ****         /* Nothing to do */
1479:Drivers/STM32F7xx_HAL_Driver/Src/stm32f7xx_hal_qspi.c ****       }
1480:Drivers/STM32F7xx_HAL_Driver/Src/stm32f7xx_hal_qspi.c **** 
1481:Drivers/STM32F7xx_HAL_Driver/Src/stm32f7xx_hal_qspi.c ****       if (status == HAL_OK)
 2523              		.loc 1 1481 10
 2524 00f0 FB7D     		ldrb	r3, [r7, #23]	@ zero_extendqisi2
 2525 00f2 002B     		cmp	r3, #0
 2526 00f4 40F08680 		bne	.L131
1482:Drivers/STM32F7xx_HAL_Driver/Src/stm32f7xx_hal_qspi.c ****       {
1483:Drivers/STM32F7xx_HAL_Driver/Src/stm32f7xx_hal_qspi.c ****         /* Update state */
1484:Drivers/STM32F7xx_HAL_Driver/Src/stm32f7xx_hal_qspi.c ****         hqspi->State = HAL_QSPI_STATE_BUSY_INDIRECT_RX;
 2527              		.loc 1 1484 22
 2528 00f8 7B68     		ldr	r3, [r7, #4]
 2529 00fa 2222     		movs	r2, #34
 2530 00fc 83F84120 		strb	r2, [r3, #65]
1485:Drivers/STM32F7xx_HAL_Driver/Src/stm32f7xx_hal_qspi.c **** 
1486:Drivers/STM32F7xx_HAL_Driver/Src/stm32f7xx_hal_qspi.c ****         /* Clear interrupt */
1487:Drivers/STM32F7xx_HAL_Driver/Src/stm32f7xx_hal_qspi.c ****         __HAL_QSPI_CLEAR_FLAG(hqspi, (QSPI_FLAG_TE | QSPI_FLAG_TC));
 2531              		.loc 1 1487 9
 2532 0100 7B68     		ldr	r3, [r7, #4]
 2533 0102 1B68     		ldr	r3, [r3]
 2534 0104 0322     		movs	r2, #3
 2535 0106 DA60     		str	r2, [r3, #12]
1488:Drivers/STM32F7xx_HAL_Driver/Src/stm32f7xx_hal_qspi.c **** 
1489:Drivers/STM32F7xx_HAL_Driver/Src/stm32f7xx_hal_qspi.c ****         /* Configure size and pointer of the handle */
1490:Drivers/STM32F7xx_HAL_Driver/Src/stm32f7xx_hal_qspi.c ****         hqspi->RxXferSize = hqspi->RxXferCount;
 2536              		.loc 1 1490 34
 2537 0108 7B68     		ldr	r3, [r7, #4]
 2538 010a 9A6B     		ldr	r2, [r3, #56]
 2539              		.loc 1 1490 27
 2540 010c 7B68     		ldr	r3, [r7, #4]
 2541 010e 5A63     		str	r2, [r3, #52]
1491:Drivers/STM32F7xx_HAL_Driver/Src/stm32f7xx_hal_qspi.c ****         hqspi->pRxBuffPtr = pData;
 2542              		.loc 1 1491 27
 2543 0110 7B68     		ldr	r3, [r7, #4]
 2544 0112 3A68     		ldr	r2, [r7]
 2545 0114 1A63     		str	r2, [r3, #48]
1492:Drivers/STM32F7xx_HAL_Driver/Src/stm32f7xx_hal_qspi.c **** 
1493:Drivers/STM32F7xx_HAL_Driver/Src/stm32f7xx_hal_qspi.c ****         /* Set the QSPI DMA transfer complete callback */
1494:Drivers/STM32F7xx_HAL_Driver/Src/stm32f7xx_hal_qspi.c ****         hqspi->hdma->XferCpltCallback = QSPI_DMARxCplt;
 2546              		.loc 1 1494 14
 2547 0116 7B68     		ldr	r3, [r7, #4]
 2548 0118 DB6B     		ldr	r3, [r3, #60]
 2549              		.loc 1 1494 39
 2550 011a 3D4A     		ldr	r2, .L133
 2551 011c DA63     		str	r2, [r3, #60]
1495:Drivers/STM32F7xx_HAL_Driver/Src/stm32f7xx_hal_qspi.c **** 
1496:Drivers/STM32F7xx_HAL_Driver/Src/stm32f7xx_hal_qspi.c ****         /* Set the QSPI DMA Half transfer complete callback */
1497:Drivers/STM32F7xx_HAL_Driver/Src/stm32f7xx_hal_qspi.c ****         hqspi->hdma->XferHalfCpltCallback = QSPI_DMARxHalfCplt;
 2552              		.loc 1 1497 14
 2553 011e 7B68     		ldr	r3, [r7, #4]
 2554 0120 DB6B     		ldr	r3, [r3, #60]
ARM GAS  C:\Users\jisu8\AppData\Local\Temp\ccA6Ygqq.s 			page 72


 2555              		.loc 1 1497 43
 2556 0122 3C4A     		ldr	r2, .L133+4
 2557 0124 1A64     		str	r2, [r3, #64]
1498:Drivers/STM32F7xx_HAL_Driver/Src/stm32f7xx_hal_qspi.c **** 
1499:Drivers/STM32F7xx_HAL_Driver/Src/stm32f7xx_hal_qspi.c ****         /* Set the DMA error callback */
1500:Drivers/STM32F7xx_HAL_Driver/Src/stm32f7xx_hal_qspi.c ****         hqspi->hdma->XferErrorCallback = QSPI_DMAError;
 2558              		.loc 1 1500 14
 2559 0126 7B68     		ldr	r3, [r7, #4]
 2560 0128 DB6B     		ldr	r3, [r3, #60]
 2561              		.loc 1 1500 40
 2562 012a 3B4A     		ldr	r2, .L133+8
 2563 012c DA64     		str	r2, [r3, #76]
1501:Drivers/STM32F7xx_HAL_Driver/Src/stm32f7xx_hal_qspi.c **** 
1502:Drivers/STM32F7xx_HAL_Driver/Src/stm32f7xx_hal_qspi.c ****         /* Clear the DMA abort callback */
1503:Drivers/STM32F7xx_HAL_Driver/Src/stm32f7xx_hal_qspi.c ****         hqspi->hdma->XferAbortCallback = NULL;
 2564              		.loc 1 1503 14
 2565 012e 7B68     		ldr	r3, [r7, #4]
 2566 0130 DB6B     		ldr	r3, [r3, #60]
 2567              		.loc 1 1503 40
 2568 0132 0022     		movs	r2, #0
 2569 0134 1A65     		str	r2, [r3, #80]
1504:Drivers/STM32F7xx_HAL_Driver/Src/stm32f7xx_hal_qspi.c **** 
1505:Drivers/STM32F7xx_HAL_Driver/Src/stm32f7xx_hal_qspi.c ****         /* Configure the direction of the DMA */
1506:Drivers/STM32F7xx_HAL_Driver/Src/stm32f7xx_hal_qspi.c ****         hqspi->hdma->Init.Direction = DMA_PERIPH_TO_MEMORY;
 2570              		.loc 1 1506 14
 2571 0136 7B68     		ldr	r3, [r7, #4]
 2572 0138 DB6B     		ldr	r3, [r3, #60]
 2573              		.loc 1 1506 37
 2574 013a 0022     		movs	r2, #0
 2575 013c 9A60     		str	r2, [r3, #8]
1507:Drivers/STM32F7xx_HAL_Driver/Src/stm32f7xx_hal_qspi.c ****         MODIFY_REG(hqspi->hdma->Instance->CR, DMA_SxCR_DIR, hqspi->hdma->Init.Direction);
 2576              		.loc 1 1507 9
 2577 013e 7B68     		ldr	r3, [r7, #4]
 2578 0140 DB6B     		ldr	r3, [r3, #60]
 2579 0142 1B68     		ldr	r3, [r3]
 2580 0144 1B68     		ldr	r3, [r3]
 2581 0146 23F0C001 		bic	r1, r3, #192
 2582 014a 7B68     		ldr	r3, [r7, #4]
 2583 014c DB6B     		ldr	r3, [r3, #60]
 2584 014e 9A68     		ldr	r2, [r3, #8]
 2585 0150 7B68     		ldr	r3, [r7, #4]
 2586 0152 DB6B     		ldr	r3, [r3, #60]
 2587 0154 1B68     		ldr	r3, [r3]
 2588 0156 0A43     		orrs	r2, r2, r1
 2589 0158 1A60     		str	r2, [r3]
1508:Drivers/STM32F7xx_HAL_Driver/Src/stm32f7xx_hal_qspi.c **** 
1509:Drivers/STM32F7xx_HAL_Driver/Src/stm32f7xx_hal_qspi.c ****         /* Enable the DMA Channel */
1510:Drivers/STM32F7xx_HAL_Driver/Src/stm32f7xx_hal_qspi.c ****         if (HAL_DMA_Start_IT(hqspi->hdma, (uint32_t)&hqspi->Instance->DR, (uint32_t)pData, hqspi->R
 2590              		.loc 1 1510 13
 2591 015a 7B68     		ldr	r3, [r7, #4]
 2592 015c D86B     		ldr	r0, [r3, #60]
 2593              		.loc 1 1510 59
 2594 015e 7B68     		ldr	r3, [r7, #4]
 2595 0160 1B68     		ldr	r3, [r3]
 2596              		.loc 1 1510 53
 2597 0162 2033     		adds	r3, r3, #32
 2598              		.loc 1 1510 13
ARM GAS  C:\Users\jisu8\AppData\Local\Temp\ccA6Ygqq.s 			page 73


 2599 0164 1946     		mov	r1, r3
 2600 0166 3A68     		ldr	r2, [r7]
 2601 0168 7B68     		ldr	r3, [r7, #4]
 2602 016a 5B6B     		ldr	r3, [r3, #52]
 2603 016c FFF7FEFF 		bl	HAL_DMA_Start_IT
 2604 0170 0346     		mov	r3, r0
 2605              		.loc 1 1510 12
 2606 0172 002B     		cmp	r3, #0
 2607 0174 22D1     		bne	.L132
1511:Drivers/STM32F7xx_HAL_Driver/Src/stm32f7xx_hal_qspi.c ****         {
1512:Drivers/STM32F7xx_HAL_Driver/Src/stm32f7xx_hal_qspi.c ****           /* Configure QSPI: CCR register with functional as indirect read */
1513:Drivers/STM32F7xx_HAL_Driver/Src/stm32f7xx_hal_qspi.c ****           MODIFY_REG(hqspi->Instance->CCR, QUADSPI_CCR_FMODE, QSPI_FUNCTIONAL_MODE_INDIRECT_READ);
 2608              		.loc 1 1513 11
 2609 0176 7B68     		ldr	r3, [r7, #4]
 2610 0178 1B68     		ldr	r3, [r3]
 2611 017a 5B69     		ldr	r3, [r3, #20]
 2612 017c 23F04062 		bic	r2, r3, #201326592
 2613 0180 7B68     		ldr	r3, [r7, #4]
 2614 0182 1B68     		ldr	r3, [r3]
 2615 0184 42F08062 		orr	r2, r2, #67108864
 2616 0188 5A61     		str	r2, [r3, #20]
1514:Drivers/STM32F7xx_HAL_Driver/Src/stm32f7xx_hal_qspi.c **** 
1515:Drivers/STM32F7xx_HAL_Driver/Src/stm32f7xx_hal_qspi.c ****           /* Start the transfer by re-writing the address in AR register */
1516:Drivers/STM32F7xx_HAL_Driver/Src/stm32f7xx_hal_qspi.c ****           WRITE_REG(hqspi->Instance->AR, addr_reg);
 2617              		.loc 1 1516 11
 2618 018a 7B68     		ldr	r3, [r7, #4]
 2619 018c 1B68     		ldr	r3, [r3]
 2620 018e 3A69     		ldr	r2, [r7, #16]
 2621 0190 9A61     		str	r2, [r3, #24]
1517:Drivers/STM32F7xx_HAL_Driver/Src/stm32f7xx_hal_qspi.c **** 
1518:Drivers/STM32F7xx_HAL_Driver/Src/stm32f7xx_hal_qspi.c ****           /* Process unlocked */
1519:Drivers/STM32F7xx_HAL_Driver/Src/stm32f7xx_hal_qspi.c ****           __HAL_UNLOCK(hqspi);
 2622              		.loc 1 1519 11
 2623 0192 7B68     		ldr	r3, [r7, #4]
 2624 0194 0022     		movs	r2, #0
 2625 0196 83F84020 		strb	r2, [r3, #64]
1520:Drivers/STM32F7xx_HAL_Driver/Src/stm32f7xx_hal_qspi.c **** 
1521:Drivers/STM32F7xx_HAL_Driver/Src/stm32f7xx_hal_qspi.c ****           /* Enable the QSPI transfer error Interrupt */
1522:Drivers/STM32F7xx_HAL_Driver/Src/stm32f7xx_hal_qspi.c ****           __HAL_QSPI_ENABLE_IT(hqspi, QSPI_IT_TE);
 2626              		.loc 1 1522 11
 2627 019a 7B68     		ldr	r3, [r7, #4]
 2628 019c 1B68     		ldr	r3, [r3]
 2629 019e 1A68     		ldr	r2, [r3]
 2630 01a0 7B68     		ldr	r3, [r7, #4]
 2631 01a2 1B68     		ldr	r3, [r3]
 2632 01a4 42F48032 		orr	r2, r2, #65536
 2633 01a8 1A60     		str	r2, [r3]
1523:Drivers/STM32F7xx_HAL_Driver/Src/stm32f7xx_hal_qspi.c **** 
1524:Drivers/STM32F7xx_HAL_Driver/Src/stm32f7xx_hal_qspi.c ****           /* Enable the DMA transfer by setting the DMAEN bit in the QSPI CR register */
1525:Drivers/STM32F7xx_HAL_Driver/Src/stm32f7xx_hal_qspi.c ****           SET_BIT(hqspi->Instance->CR, QUADSPI_CR_DMAEN);
 2634              		.loc 1 1525 11
 2635 01aa 7B68     		ldr	r3, [r7, #4]
 2636 01ac 1B68     		ldr	r3, [r3]
 2637 01ae 1A68     		ldr	r2, [r3]
 2638 01b0 7B68     		ldr	r3, [r7, #4]
 2639 01b2 1B68     		ldr	r3, [r3]
 2640 01b4 42F00402 		orr	r2, r2, #4
ARM GAS  C:\Users\jisu8\AppData\Local\Temp\ccA6Ygqq.s 			page 74


 2641 01b8 1A60     		str	r2, [r3]
 2642 01ba 23E0     		b	.L131
 2643              	.L132:
1526:Drivers/STM32F7xx_HAL_Driver/Src/stm32f7xx_hal_qspi.c ****         }
1527:Drivers/STM32F7xx_HAL_Driver/Src/stm32f7xx_hal_qspi.c ****         else
1528:Drivers/STM32F7xx_HAL_Driver/Src/stm32f7xx_hal_qspi.c ****         {
1529:Drivers/STM32F7xx_HAL_Driver/Src/stm32f7xx_hal_qspi.c ****           status = HAL_ERROR;
 2644              		.loc 1 1529 18
 2645 01bc 0123     		movs	r3, #1
 2646 01be FB75     		strb	r3, [r7, #23]
1530:Drivers/STM32F7xx_HAL_Driver/Src/stm32f7xx_hal_qspi.c ****           hqspi->ErrorCode |= HAL_QSPI_ERROR_DMA;
 2647              		.loc 1 1530 28
 2648 01c0 7B68     		ldr	r3, [r7, #4]
 2649 01c2 5B6C     		ldr	r3, [r3, #68]
 2650 01c4 43F00402 		orr	r2, r3, #4
 2651 01c8 7B68     		ldr	r3, [r7, #4]
 2652 01ca 5A64     		str	r2, [r3, #68]
1531:Drivers/STM32F7xx_HAL_Driver/Src/stm32f7xx_hal_qspi.c ****           hqspi->State = HAL_QSPI_STATE_READY;
 2653              		.loc 1 1531 24
 2654 01cc 7B68     		ldr	r3, [r7, #4]
 2655 01ce 0122     		movs	r2, #1
 2656 01d0 83F84120 		strb	r2, [r3, #65]
1532:Drivers/STM32F7xx_HAL_Driver/Src/stm32f7xx_hal_qspi.c **** 
1533:Drivers/STM32F7xx_HAL_Driver/Src/stm32f7xx_hal_qspi.c ****           /* Process unlocked */
1534:Drivers/STM32F7xx_HAL_Driver/Src/stm32f7xx_hal_qspi.c ****           __HAL_UNLOCK(hqspi);
 2657              		.loc 1 1534 11
 2658 01d4 7B68     		ldr	r3, [r7, #4]
 2659 01d6 0022     		movs	r2, #0
 2660 01d8 83F84020 		strb	r2, [r3, #64]
 2661 01dc 12E0     		b	.L131
 2662              	.L121:
1535:Drivers/STM32F7xx_HAL_Driver/Src/stm32f7xx_hal_qspi.c ****         }
1536:Drivers/STM32F7xx_HAL_Driver/Src/stm32f7xx_hal_qspi.c ****       }
1537:Drivers/STM32F7xx_HAL_Driver/Src/stm32f7xx_hal_qspi.c ****     }
1538:Drivers/STM32F7xx_HAL_Driver/Src/stm32f7xx_hal_qspi.c ****     else
1539:Drivers/STM32F7xx_HAL_Driver/Src/stm32f7xx_hal_qspi.c ****     {
1540:Drivers/STM32F7xx_HAL_Driver/Src/stm32f7xx_hal_qspi.c ****       hqspi->ErrorCode |= HAL_QSPI_ERROR_INVALID_PARAM;
 2663              		.loc 1 1540 24
 2664 01de 7B68     		ldr	r3, [r7, #4]
 2665 01e0 5B6C     		ldr	r3, [r3, #68]
 2666 01e2 43F00802 		orr	r2, r3, #8
 2667 01e6 7B68     		ldr	r3, [r7, #4]
 2668 01e8 5A64     		str	r2, [r3, #68]
1541:Drivers/STM32F7xx_HAL_Driver/Src/stm32f7xx_hal_qspi.c ****       status = HAL_ERROR;
 2669              		.loc 1 1541 14
 2670 01ea 0123     		movs	r3, #1
 2671 01ec FB75     		strb	r3, [r7, #23]
1542:Drivers/STM32F7xx_HAL_Driver/Src/stm32f7xx_hal_qspi.c **** 
1543:Drivers/STM32F7xx_HAL_Driver/Src/stm32f7xx_hal_qspi.c ****       /* Process unlocked */
1544:Drivers/STM32F7xx_HAL_Driver/Src/stm32f7xx_hal_qspi.c ****       __HAL_UNLOCK(hqspi);
 2672              		.loc 1 1544 7
 2673 01ee 7B68     		ldr	r3, [r7, #4]
 2674 01f0 0022     		movs	r2, #0
 2675 01f2 83F84020 		strb	r2, [r3, #64]
 2676 01f6 05E0     		b	.L131
 2677              	.L120:
1545:Drivers/STM32F7xx_HAL_Driver/Src/stm32f7xx_hal_qspi.c ****     }
ARM GAS  C:\Users\jisu8\AppData\Local\Temp\ccA6Ygqq.s 			page 75


1546:Drivers/STM32F7xx_HAL_Driver/Src/stm32f7xx_hal_qspi.c ****   }
1547:Drivers/STM32F7xx_HAL_Driver/Src/stm32f7xx_hal_qspi.c ****   else
1548:Drivers/STM32F7xx_HAL_Driver/Src/stm32f7xx_hal_qspi.c ****   {
1549:Drivers/STM32F7xx_HAL_Driver/Src/stm32f7xx_hal_qspi.c ****     status = HAL_BUSY;
 2678              		.loc 1 1549 12
 2679 01f8 0223     		movs	r3, #2
 2680 01fa FB75     		strb	r3, [r7, #23]
1550:Drivers/STM32F7xx_HAL_Driver/Src/stm32f7xx_hal_qspi.c **** 
1551:Drivers/STM32F7xx_HAL_Driver/Src/stm32f7xx_hal_qspi.c ****     /* Process unlocked */
1552:Drivers/STM32F7xx_HAL_Driver/Src/stm32f7xx_hal_qspi.c ****     __HAL_UNLOCK(hqspi);
 2681              		.loc 1 1552 5
 2682 01fc 7B68     		ldr	r3, [r7, #4]
 2683 01fe 0022     		movs	r2, #0
 2684 0200 83F84020 		strb	r2, [r3, #64]
 2685              	.L131:
1553:Drivers/STM32F7xx_HAL_Driver/Src/stm32f7xx_hal_qspi.c ****   }
1554:Drivers/STM32F7xx_HAL_Driver/Src/stm32f7xx_hal_qspi.c **** 
1555:Drivers/STM32F7xx_HAL_Driver/Src/stm32f7xx_hal_qspi.c ****   return status;
 2686              		.loc 1 1555 10
 2687 0204 FB7D     		ldrb	r3, [r7, #23]	@ zero_extendqisi2
 2688              	.L119:
1556:Drivers/STM32F7xx_HAL_Driver/Src/stm32f7xx_hal_qspi.c **** }
 2689              		.loc 1 1556 1
 2690 0206 1846     		mov	r0, r3
 2691 0208 1837     		adds	r7, r7, #24
 2692              	.LCFI67:
 2693              		.cfi_def_cfa_offset 8
 2694 020a BD46     		mov	sp, r7
 2695              	.LCFI68:
 2696              		.cfi_def_cfa_register 13
 2697              		@ sp needed
 2698 020c 80BD     		pop	{r7, pc}
 2699              	.L134:
 2700 020e 00BF     		.align	2
 2701              	.L133:
 2702 0210 00000000 		.word	QSPI_DMARxCplt
 2703 0214 00000000 		.word	QSPI_DMARxHalfCplt
 2704 0218 00000000 		.word	QSPI_DMAError
 2705              		.cfi_endproc
 2706              	.LFE153:
 2708              		.section	.text.HAL_QSPI_AutoPolling,"ax",%progbits
 2709              		.align	1
 2710              		.global	HAL_QSPI_AutoPolling
 2711              		.syntax unified
 2712              		.thumb
 2713              		.thumb_func
 2715              	HAL_QSPI_AutoPolling:
 2716              	.LFB154:
1557:Drivers/STM32F7xx_HAL_Driver/Src/stm32f7xx_hal_qspi.c **** 
1558:Drivers/STM32F7xx_HAL_Driver/Src/stm32f7xx_hal_qspi.c **** /**
1559:Drivers/STM32F7xx_HAL_Driver/Src/stm32f7xx_hal_qspi.c ****   * @brief  Configure the QSPI Automatic Polling Mode in blocking mode.
1560:Drivers/STM32F7xx_HAL_Driver/Src/stm32f7xx_hal_qspi.c ****   * @param  hqspi QSPI handle
1561:Drivers/STM32F7xx_HAL_Driver/Src/stm32f7xx_hal_qspi.c ****   * @param  cmd structure that contains the command configuration information.
1562:Drivers/STM32F7xx_HAL_Driver/Src/stm32f7xx_hal_qspi.c ****   * @param  cfg structure that contains the polling configuration information.
1563:Drivers/STM32F7xx_HAL_Driver/Src/stm32f7xx_hal_qspi.c ****   * @param  Timeout Timeout duration
1564:Drivers/STM32F7xx_HAL_Driver/Src/stm32f7xx_hal_qspi.c ****   * @note   This function is used only in Automatic Polling Mode
1565:Drivers/STM32F7xx_HAL_Driver/Src/stm32f7xx_hal_qspi.c ****   * @retval HAL status
ARM GAS  C:\Users\jisu8\AppData\Local\Temp\ccA6Ygqq.s 			page 76


1566:Drivers/STM32F7xx_HAL_Driver/Src/stm32f7xx_hal_qspi.c ****   */
1567:Drivers/STM32F7xx_HAL_Driver/Src/stm32f7xx_hal_qspi.c **** HAL_StatusTypeDef HAL_QSPI_AutoPolling(QSPI_HandleTypeDef *hqspi, QSPI_CommandTypeDef *cmd, QSPI_Au
1568:Drivers/STM32F7xx_HAL_Driver/Src/stm32f7xx_hal_qspi.c **** {
 2717              		.loc 1 1568 1
 2718              		.cfi_startproc
 2719              		@ args = 0, pretend = 0, frame = 24
 2720              		@ frame_needed = 1, uses_anonymous_args = 0
 2721 0000 80B5     		push	{r7, lr}
 2722              	.LCFI69:
 2723              		.cfi_def_cfa_offset 8
 2724              		.cfi_offset 7, -8
 2725              		.cfi_offset 14, -4
 2726 0002 88B0     		sub	sp, sp, #32
 2727              	.LCFI70:
 2728              		.cfi_def_cfa_offset 40
 2729 0004 02AF     		add	r7, sp, #8
 2730              	.LCFI71:
 2731              		.cfi_def_cfa 7, 32
 2732 0006 F860     		str	r0, [r7, #12]
 2733 0008 B960     		str	r1, [r7, #8]
 2734 000a 7A60     		str	r2, [r7, #4]
 2735 000c 3B60     		str	r3, [r7]
1569:Drivers/STM32F7xx_HAL_Driver/Src/stm32f7xx_hal_qspi.c ****   HAL_StatusTypeDef status;
1570:Drivers/STM32F7xx_HAL_Driver/Src/stm32f7xx_hal_qspi.c ****   uint32_t tickstart = HAL_GetTick();
 2736              		.loc 1 1570 24
 2737 000e FFF7FEFF 		bl	HAL_GetTick
 2738 0012 3861     		str	r0, [r7, #16]
1571:Drivers/STM32F7xx_HAL_Driver/Src/stm32f7xx_hal_qspi.c **** 
1572:Drivers/STM32F7xx_HAL_Driver/Src/stm32f7xx_hal_qspi.c ****   /* Check the parameters */
1573:Drivers/STM32F7xx_HAL_Driver/Src/stm32f7xx_hal_qspi.c ****   assert_param(IS_QSPI_INSTRUCTION_MODE(cmd->InstructionMode));
1574:Drivers/STM32F7xx_HAL_Driver/Src/stm32f7xx_hal_qspi.c ****   if (cmd->InstructionMode != QSPI_INSTRUCTION_NONE)
1575:Drivers/STM32F7xx_HAL_Driver/Src/stm32f7xx_hal_qspi.c ****   {
1576:Drivers/STM32F7xx_HAL_Driver/Src/stm32f7xx_hal_qspi.c ****     assert_param(IS_QSPI_INSTRUCTION(cmd->Instruction));
1577:Drivers/STM32F7xx_HAL_Driver/Src/stm32f7xx_hal_qspi.c ****   }
1578:Drivers/STM32F7xx_HAL_Driver/Src/stm32f7xx_hal_qspi.c **** 
1579:Drivers/STM32F7xx_HAL_Driver/Src/stm32f7xx_hal_qspi.c ****   assert_param(IS_QSPI_ADDRESS_MODE(cmd->AddressMode));
1580:Drivers/STM32F7xx_HAL_Driver/Src/stm32f7xx_hal_qspi.c ****   if (cmd->AddressMode != QSPI_ADDRESS_NONE)
1581:Drivers/STM32F7xx_HAL_Driver/Src/stm32f7xx_hal_qspi.c ****   {
1582:Drivers/STM32F7xx_HAL_Driver/Src/stm32f7xx_hal_qspi.c ****     assert_param(IS_QSPI_ADDRESS_SIZE(cmd->AddressSize));
1583:Drivers/STM32F7xx_HAL_Driver/Src/stm32f7xx_hal_qspi.c ****   }
1584:Drivers/STM32F7xx_HAL_Driver/Src/stm32f7xx_hal_qspi.c **** 
1585:Drivers/STM32F7xx_HAL_Driver/Src/stm32f7xx_hal_qspi.c ****   assert_param(IS_QSPI_ALTERNATE_BYTES_MODE(cmd->AlternateByteMode));
1586:Drivers/STM32F7xx_HAL_Driver/Src/stm32f7xx_hal_qspi.c ****   if (cmd->AlternateByteMode != QSPI_ALTERNATE_BYTES_NONE)
1587:Drivers/STM32F7xx_HAL_Driver/Src/stm32f7xx_hal_qspi.c ****   {
1588:Drivers/STM32F7xx_HAL_Driver/Src/stm32f7xx_hal_qspi.c ****     assert_param(IS_QSPI_ALTERNATE_BYTES_SIZE(cmd->AlternateBytesSize));
1589:Drivers/STM32F7xx_HAL_Driver/Src/stm32f7xx_hal_qspi.c ****   }
1590:Drivers/STM32F7xx_HAL_Driver/Src/stm32f7xx_hal_qspi.c **** 
1591:Drivers/STM32F7xx_HAL_Driver/Src/stm32f7xx_hal_qspi.c ****   assert_param(IS_QSPI_DUMMY_CYCLES(cmd->DummyCycles));
1592:Drivers/STM32F7xx_HAL_Driver/Src/stm32f7xx_hal_qspi.c ****   assert_param(IS_QSPI_DATA_MODE(cmd->DataMode));
1593:Drivers/STM32F7xx_HAL_Driver/Src/stm32f7xx_hal_qspi.c **** 
1594:Drivers/STM32F7xx_HAL_Driver/Src/stm32f7xx_hal_qspi.c ****   assert_param(IS_QSPI_DDR_MODE(cmd->DdrMode));
1595:Drivers/STM32F7xx_HAL_Driver/Src/stm32f7xx_hal_qspi.c ****   assert_param(IS_QSPI_DDR_HHC(cmd->DdrHoldHalfCycle));
1596:Drivers/STM32F7xx_HAL_Driver/Src/stm32f7xx_hal_qspi.c ****   assert_param(IS_QSPI_SIOO_MODE(cmd->SIOOMode));
1597:Drivers/STM32F7xx_HAL_Driver/Src/stm32f7xx_hal_qspi.c **** 
1598:Drivers/STM32F7xx_HAL_Driver/Src/stm32f7xx_hal_qspi.c ****   assert_param(IS_QSPI_INTERVAL(cfg->Interval));
1599:Drivers/STM32F7xx_HAL_Driver/Src/stm32f7xx_hal_qspi.c ****   assert_param(IS_QSPI_STATUS_BYTES_SIZE(cfg->StatusBytesSize));
1600:Drivers/STM32F7xx_HAL_Driver/Src/stm32f7xx_hal_qspi.c ****   assert_param(IS_QSPI_MATCH_MODE(cfg->MatchMode));
ARM GAS  C:\Users\jisu8\AppData\Local\Temp\ccA6Ygqq.s 			page 77


1601:Drivers/STM32F7xx_HAL_Driver/Src/stm32f7xx_hal_qspi.c **** 
1602:Drivers/STM32F7xx_HAL_Driver/Src/stm32f7xx_hal_qspi.c ****   /* Process locked */
1603:Drivers/STM32F7xx_HAL_Driver/Src/stm32f7xx_hal_qspi.c ****   __HAL_LOCK(hqspi);
 2739              		.loc 1 1603 3
 2740 0014 FB68     		ldr	r3, [r7, #12]
 2741 0016 93F84030 		ldrb	r3, [r3, #64]
 2742 001a DBB2     		uxtb	r3, r3
 2743 001c 012B     		cmp	r3, #1
 2744 001e 01D1     		bne	.L136
 2745              		.loc 1 1603 3 is_stmt 0 discriminator 1
 2746 0020 0223     		movs	r3, #2
 2747 0022 60E0     		b	.L137
 2748              	.L136:
 2749              		.loc 1 1603 3 discriminator 2
 2750 0024 FB68     		ldr	r3, [r7, #12]
 2751 0026 0122     		movs	r2, #1
 2752 0028 83F84020 		strb	r2, [r3, #64]
1604:Drivers/STM32F7xx_HAL_Driver/Src/stm32f7xx_hal_qspi.c **** 
1605:Drivers/STM32F7xx_HAL_Driver/Src/stm32f7xx_hal_qspi.c ****   if(hqspi->State == HAL_QSPI_STATE_READY)
 2753              		.loc 1 1605 11 is_stmt 1 discriminator 2
 2754 002c FB68     		ldr	r3, [r7, #12]
 2755 002e 93F84130 		ldrb	r3, [r3, #65]
 2756 0032 DBB2     		uxtb	r3, r3
 2757              		.loc 1 1605 5 discriminator 2
 2758 0034 012B     		cmp	r3, #1
 2759 0036 4FD1     		bne	.L138
1606:Drivers/STM32F7xx_HAL_Driver/Src/stm32f7xx_hal_qspi.c ****   {
1607:Drivers/STM32F7xx_HAL_Driver/Src/stm32f7xx_hal_qspi.c ****     hqspi->ErrorCode = HAL_QSPI_ERROR_NONE;
 2760              		.loc 1 1607 22
 2761 0038 FB68     		ldr	r3, [r7, #12]
 2762 003a 0022     		movs	r2, #0
 2763 003c 5A64     		str	r2, [r3, #68]
1608:Drivers/STM32F7xx_HAL_Driver/Src/stm32f7xx_hal_qspi.c **** 
1609:Drivers/STM32F7xx_HAL_Driver/Src/stm32f7xx_hal_qspi.c ****     /* Update state */
1610:Drivers/STM32F7xx_HAL_Driver/Src/stm32f7xx_hal_qspi.c ****     hqspi->State = HAL_QSPI_STATE_BUSY_AUTO_POLLING;
 2764              		.loc 1 1610 18
 2765 003e FB68     		ldr	r3, [r7, #12]
 2766 0040 4222     		movs	r2, #66
 2767 0042 83F84120 		strb	r2, [r3, #65]
1611:Drivers/STM32F7xx_HAL_Driver/Src/stm32f7xx_hal_qspi.c **** 
1612:Drivers/STM32F7xx_HAL_Driver/Src/stm32f7xx_hal_qspi.c ****     /* Wait till BUSY flag reset */
1613:Drivers/STM32F7xx_HAL_Driver/Src/stm32f7xx_hal_qspi.c ****     status = QSPI_WaitFlagStateUntilTimeout(hqspi, QSPI_FLAG_BUSY, RESET, tickstart, Timeout);
 2768              		.loc 1 1613 14
 2769 0046 3B68     		ldr	r3, [r7]
 2770 0048 0093     		str	r3, [sp]
 2771 004a 3B69     		ldr	r3, [r7, #16]
 2772 004c 0022     		movs	r2, #0
 2773 004e 2021     		movs	r1, #32
 2774 0050 F868     		ldr	r0, [r7, #12]
 2775 0052 FFF7FEFF 		bl	QSPI_WaitFlagStateUntilTimeout
 2776 0056 0346     		mov	r3, r0
 2777 0058 FB75     		strb	r3, [r7, #23]
1614:Drivers/STM32F7xx_HAL_Driver/Src/stm32f7xx_hal_qspi.c **** 
1615:Drivers/STM32F7xx_HAL_Driver/Src/stm32f7xx_hal_qspi.c ****     if (status == HAL_OK)
 2778              		.loc 1 1615 8
 2779 005a FB7D     		ldrb	r3, [r7, #23]	@ zero_extendqisi2
 2780 005c 002B     		cmp	r3, #0
ARM GAS  C:\Users\jisu8\AppData\Local\Temp\ccA6Ygqq.s 			page 78


 2781 005e 3DD1     		bne	.L139
1616:Drivers/STM32F7xx_HAL_Driver/Src/stm32f7xx_hal_qspi.c ****     {
1617:Drivers/STM32F7xx_HAL_Driver/Src/stm32f7xx_hal_qspi.c ****       /* Configure QSPI: PSMAR register with the status match value */
1618:Drivers/STM32F7xx_HAL_Driver/Src/stm32f7xx_hal_qspi.c ****       WRITE_REG(hqspi->Instance->PSMAR, cfg->Match);
 2782              		.loc 1 1618 7
 2783 0060 FB68     		ldr	r3, [r7, #12]
 2784 0062 1B68     		ldr	r3, [r3]
 2785 0064 7A68     		ldr	r2, [r7, #4]
 2786 0066 1268     		ldr	r2, [r2]
 2787 0068 9A62     		str	r2, [r3, #40]
1619:Drivers/STM32F7xx_HAL_Driver/Src/stm32f7xx_hal_qspi.c **** 
1620:Drivers/STM32F7xx_HAL_Driver/Src/stm32f7xx_hal_qspi.c ****       /* Configure QSPI: PSMKR register with the status mask value */
1621:Drivers/STM32F7xx_HAL_Driver/Src/stm32f7xx_hal_qspi.c ****       WRITE_REG(hqspi->Instance->PSMKR, cfg->Mask);
 2788              		.loc 1 1621 7
 2789 006a FB68     		ldr	r3, [r7, #12]
 2790 006c 1B68     		ldr	r3, [r3]
 2791 006e 7A68     		ldr	r2, [r7, #4]
 2792 0070 5268     		ldr	r2, [r2, #4]
 2793 0072 5A62     		str	r2, [r3, #36]
1622:Drivers/STM32F7xx_HAL_Driver/Src/stm32f7xx_hal_qspi.c **** 
1623:Drivers/STM32F7xx_HAL_Driver/Src/stm32f7xx_hal_qspi.c ****       /* Configure QSPI: PIR register with the interval value */
1624:Drivers/STM32F7xx_HAL_Driver/Src/stm32f7xx_hal_qspi.c ****       WRITE_REG(hqspi->Instance->PIR, cfg->Interval);
 2794              		.loc 1 1624 7
 2795 0074 FB68     		ldr	r3, [r7, #12]
 2796 0076 1B68     		ldr	r3, [r3]
 2797 0078 7A68     		ldr	r2, [r7, #4]
 2798 007a 9268     		ldr	r2, [r2, #8]
 2799 007c DA62     		str	r2, [r3, #44]
1625:Drivers/STM32F7xx_HAL_Driver/Src/stm32f7xx_hal_qspi.c **** 
1626:Drivers/STM32F7xx_HAL_Driver/Src/stm32f7xx_hal_qspi.c ****       /* Configure QSPI: CR register with Match mode and Automatic stop enabled
1627:Drivers/STM32F7xx_HAL_Driver/Src/stm32f7xx_hal_qspi.c ****       (otherwise there will be an infinite loop in blocking mode) */
1628:Drivers/STM32F7xx_HAL_Driver/Src/stm32f7xx_hal_qspi.c ****       MODIFY_REG(hqspi->Instance->CR, (QUADSPI_CR_PMM | QUADSPI_CR_APMS),
 2800              		.loc 1 1628 7
 2801 007e FB68     		ldr	r3, [r7, #12]
 2802 0080 1B68     		ldr	r3, [r3]
 2803 0082 1B68     		ldr	r3, [r3]
 2804 0084 23F44002 		bic	r2, r3, #12582912
 2805 0088 7B68     		ldr	r3, [r7, #4]
 2806 008a 1B69     		ldr	r3, [r3, #16]
 2807 008c 1A43     		orrs	r2, r2, r3
 2808 008e FB68     		ldr	r3, [r7, #12]
 2809 0090 1B68     		ldr	r3, [r3]
 2810 0092 42F48002 		orr	r2, r2, #4194304
 2811 0096 1A60     		str	r2, [r3]
1629:Drivers/STM32F7xx_HAL_Driver/Src/stm32f7xx_hal_qspi.c ****                (cfg->MatchMode | QSPI_AUTOMATIC_STOP_ENABLE));
1630:Drivers/STM32F7xx_HAL_Driver/Src/stm32f7xx_hal_qspi.c **** 
1631:Drivers/STM32F7xx_HAL_Driver/Src/stm32f7xx_hal_qspi.c ****       /* Call the configuration function */
1632:Drivers/STM32F7xx_HAL_Driver/Src/stm32f7xx_hal_qspi.c ****       cmd->NbData = cfg->StatusBytesSize;
 2812              		.loc 1 1632 24
 2813 0098 7B68     		ldr	r3, [r7, #4]
 2814 009a DA68     		ldr	r2, [r3, #12]
 2815              		.loc 1 1632 19
 2816 009c BB68     		ldr	r3, [r7, #8]
 2817 009e 9A62     		str	r2, [r3, #40]
1633:Drivers/STM32F7xx_HAL_Driver/Src/stm32f7xx_hal_qspi.c ****       QSPI_Config(hqspi, cmd, QSPI_FUNCTIONAL_MODE_AUTO_POLLING);
 2818              		.loc 1 1633 7
 2819 00a0 4FF00062 		mov	r2, #134217728
ARM GAS  C:\Users\jisu8\AppData\Local\Temp\ccA6Ygqq.s 			page 79


 2820 00a4 B968     		ldr	r1, [r7, #8]
 2821 00a6 F868     		ldr	r0, [r7, #12]
 2822 00a8 FFF7FEFF 		bl	QSPI_Config
1634:Drivers/STM32F7xx_HAL_Driver/Src/stm32f7xx_hal_qspi.c **** 
1635:Drivers/STM32F7xx_HAL_Driver/Src/stm32f7xx_hal_qspi.c ****       /* Wait until SM flag is set to go back in idle state */
1636:Drivers/STM32F7xx_HAL_Driver/Src/stm32f7xx_hal_qspi.c ****       status = QSPI_WaitFlagStateUntilTimeout(hqspi, QSPI_FLAG_SM, SET, tickstart, Timeout);
 2823              		.loc 1 1636 16
 2824 00ac 3B68     		ldr	r3, [r7]
 2825 00ae 0093     		str	r3, [sp]
 2826 00b0 3B69     		ldr	r3, [r7, #16]
 2827 00b2 0122     		movs	r2, #1
 2828 00b4 0821     		movs	r1, #8
 2829 00b6 F868     		ldr	r0, [r7, #12]
 2830 00b8 FFF7FEFF 		bl	QSPI_WaitFlagStateUntilTimeout
 2831 00bc 0346     		mov	r3, r0
 2832 00be FB75     		strb	r3, [r7, #23]
1637:Drivers/STM32F7xx_HAL_Driver/Src/stm32f7xx_hal_qspi.c **** 
1638:Drivers/STM32F7xx_HAL_Driver/Src/stm32f7xx_hal_qspi.c ****       if (status == HAL_OK)
 2833              		.loc 1 1638 10
 2834 00c0 FB7D     		ldrb	r3, [r7, #23]	@ zero_extendqisi2
 2835 00c2 002B     		cmp	r3, #0
 2836 00c4 0AD1     		bne	.L139
1639:Drivers/STM32F7xx_HAL_Driver/Src/stm32f7xx_hal_qspi.c ****       {
1640:Drivers/STM32F7xx_HAL_Driver/Src/stm32f7xx_hal_qspi.c ****         __HAL_QSPI_CLEAR_FLAG(hqspi, QSPI_FLAG_SM);
 2837              		.loc 1 1640 9
 2838 00c6 FB68     		ldr	r3, [r7, #12]
 2839 00c8 1B68     		ldr	r3, [r3]
 2840 00ca 0822     		movs	r2, #8
 2841 00cc DA60     		str	r2, [r3, #12]
1641:Drivers/STM32F7xx_HAL_Driver/Src/stm32f7xx_hal_qspi.c **** 
1642:Drivers/STM32F7xx_HAL_Driver/Src/stm32f7xx_hal_qspi.c ****         /* Update state */
1643:Drivers/STM32F7xx_HAL_Driver/Src/stm32f7xx_hal_qspi.c ****         hqspi->State = HAL_QSPI_STATE_READY;
 2842              		.loc 1 1643 22
 2843 00ce FB68     		ldr	r3, [r7, #12]
 2844 00d0 0122     		movs	r2, #1
 2845 00d2 83F84120 		strb	r2, [r3, #65]
 2846 00d6 01E0     		b	.L139
 2847              	.L138:
1644:Drivers/STM32F7xx_HAL_Driver/Src/stm32f7xx_hal_qspi.c ****       }
1645:Drivers/STM32F7xx_HAL_Driver/Src/stm32f7xx_hal_qspi.c ****     }
1646:Drivers/STM32F7xx_HAL_Driver/Src/stm32f7xx_hal_qspi.c ****   }
1647:Drivers/STM32F7xx_HAL_Driver/Src/stm32f7xx_hal_qspi.c ****   else
1648:Drivers/STM32F7xx_HAL_Driver/Src/stm32f7xx_hal_qspi.c ****   {
1649:Drivers/STM32F7xx_HAL_Driver/Src/stm32f7xx_hal_qspi.c ****     status = HAL_BUSY;
 2848              		.loc 1 1649 12
 2849 00d8 0223     		movs	r3, #2
 2850 00da FB75     		strb	r3, [r7, #23]
 2851              	.L139:
1650:Drivers/STM32F7xx_HAL_Driver/Src/stm32f7xx_hal_qspi.c ****   }
1651:Drivers/STM32F7xx_HAL_Driver/Src/stm32f7xx_hal_qspi.c **** 
1652:Drivers/STM32F7xx_HAL_Driver/Src/stm32f7xx_hal_qspi.c ****   /* Process unlocked */
1653:Drivers/STM32F7xx_HAL_Driver/Src/stm32f7xx_hal_qspi.c ****   __HAL_UNLOCK(hqspi);
 2852              		.loc 1 1653 3
 2853 00dc FB68     		ldr	r3, [r7, #12]
 2854 00de 0022     		movs	r2, #0
 2855 00e0 83F84020 		strb	r2, [r3, #64]
1654:Drivers/STM32F7xx_HAL_Driver/Src/stm32f7xx_hal_qspi.c **** 
ARM GAS  C:\Users\jisu8\AppData\Local\Temp\ccA6Ygqq.s 			page 80


1655:Drivers/STM32F7xx_HAL_Driver/Src/stm32f7xx_hal_qspi.c ****   /* Return function status */
1656:Drivers/STM32F7xx_HAL_Driver/Src/stm32f7xx_hal_qspi.c ****   return status;
 2856              		.loc 1 1656 10
 2857 00e4 FB7D     		ldrb	r3, [r7, #23]	@ zero_extendqisi2
 2858              	.L137:
1657:Drivers/STM32F7xx_HAL_Driver/Src/stm32f7xx_hal_qspi.c **** }
 2859              		.loc 1 1657 1
 2860 00e6 1846     		mov	r0, r3
 2861 00e8 1837     		adds	r7, r7, #24
 2862              	.LCFI72:
 2863              		.cfi_def_cfa_offset 8
 2864 00ea BD46     		mov	sp, r7
 2865              	.LCFI73:
 2866              		.cfi_def_cfa_register 13
 2867              		@ sp needed
 2868 00ec 80BD     		pop	{r7, pc}
 2869              		.cfi_endproc
 2870              	.LFE154:
 2872              		.section	.text.HAL_QSPI_AutoPolling_IT,"ax",%progbits
 2873              		.align	1
 2874              		.global	HAL_QSPI_AutoPolling_IT
 2875              		.syntax unified
 2876              		.thumb
 2877              		.thumb_func
 2879              	HAL_QSPI_AutoPolling_IT:
 2880              	.LFB155:
1658:Drivers/STM32F7xx_HAL_Driver/Src/stm32f7xx_hal_qspi.c **** 
1659:Drivers/STM32F7xx_HAL_Driver/Src/stm32f7xx_hal_qspi.c **** /**
1660:Drivers/STM32F7xx_HAL_Driver/Src/stm32f7xx_hal_qspi.c ****   * @brief  Configure the QSPI Automatic Polling Mode in non-blocking mode.
1661:Drivers/STM32F7xx_HAL_Driver/Src/stm32f7xx_hal_qspi.c ****   * @param  hqspi QSPI handle
1662:Drivers/STM32F7xx_HAL_Driver/Src/stm32f7xx_hal_qspi.c ****   * @param  cmd structure that contains the command configuration information.
1663:Drivers/STM32F7xx_HAL_Driver/Src/stm32f7xx_hal_qspi.c ****   * @param  cfg structure that contains the polling configuration information.
1664:Drivers/STM32F7xx_HAL_Driver/Src/stm32f7xx_hal_qspi.c ****   * @note   This function is used only in Automatic Polling Mode
1665:Drivers/STM32F7xx_HAL_Driver/Src/stm32f7xx_hal_qspi.c ****   * @retval HAL status
1666:Drivers/STM32F7xx_HAL_Driver/Src/stm32f7xx_hal_qspi.c ****   */
1667:Drivers/STM32F7xx_HAL_Driver/Src/stm32f7xx_hal_qspi.c **** HAL_StatusTypeDef HAL_QSPI_AutoPolling_IT(QSPI_HandleTypeDef *hqspi, QSPI_CommandTypeDef *cmd, QSPI
1668:Drivers/STM32F7xx_HAL_Driver/Src/stm32f7xx_hal_qspi.c **** {
 2881              		.loc 1 1668 1
 2882              		.cfi_startproc
 2883              		@ args = 0, pretend = 0, frame = 24
 2884              		@ frame_needed = 1, uses_anonymous_args = 0
 2885 0000 80B5     		push	{r7, lr}
 2886              	.LCFI74:
 2887              		.cfi_def_cfa_offset 8
 2888              		.cfi_offset 7, -8
 2889              		.cfi_offset 14, -4
 2890 0002 86B0     		sub	sp, sp, #24
 2891              	.LCFI75:
 2892              		.cfi_def_cfa_offset 32
 2893 0004 00AF     		add	r7, sp, #0
 2894              	.LCFI76:
 2895              		.cfi_def_cfa_register 7
 2896 0006 F860     		str	r0, [r7, #12]
 2897 0008 B960     		str	r1, [r7, #8]
 2898 000a 7A60     		str	r2, [r7, #4]
1669:Drivers/STM32F7xx_HAL_Driver/Src/stm32f7xx_hal_qspi.c ****   HAL_StatusTypeDef status;
1670:Drivers/STM32F7xx_HAL_Driver/Src/stm32f7xx_hal_qspi.c **** 
ARM GAS  C:\Users\jisu8\AppData\Local\Temp\ccA6Ygqq.s 			page 81


1671:Drivers/STM32F7xx_HAL_Driver/Src/stm32f7xx_hal_qspi.c ****   /* Check the parameters */
1672:Drivers/STM32F7xx_HAL_Driver/Src/stm32f7xx_hal_qspi.c ****   assert_param(IS_QSPI_INSTRUCTION_MODE(cmd->InstructionMode));
1673:Drivers/STM32F7xx_HAL_Driver/Src/stm32f7xx_hal_qspi.c ****   if (cmd->InstructionMode != QSPI_INSTRUCTION_NONE)
1674:Drivers/STM32F7xx_HAL_Driver/Src/stm32f7xx_hal_qspi.c ****   {
1675:Drivers/STM32F7xx_HAL_Driver/Src/stm32f7xx_hal_qspi.c ****     assert_param(IS_QSPI_INSTRUCTION(cmd->Instruction));
1676:Drivers/STM32F7xx_HAL_Driver/Src/stm32f7xx_hal_qspi.c ****   }
1677:Drivers/STM32F7xx_HAL_Driver/Src/stm32f7xx_hal_qspi.c **** 
1678:Drivers/STM32F7xx_HAL_Driver/Src/stm32f7xx_hal_qspi.c ****   assert_param(IS_QSPI_ADDRESS_MODE(cmd->AddressMode));
1679:Drivers/STM32F7xx_HAL_Driver/Src/stm32f7xx_hal_qspi.c ****   if (cmd->AddressMode != QSPI_ADDRESS_NONE)
1680:Drivers/STM32F7xx_HAL_Driver/Src/stm32f7xx_hal_qspi.c ****   {
1681:Drivers/STM32F7xx_HAL_Driver/Src/stm32f7xx_hal_qspi.c ****     assert_param(IS_QSPI_ADDRESS_SIZE(cmd->AddressSize));
1682:Drivers/STM32F7xx_HAL_Driver/Src/stm32f7xx_hal_qspi.c ****   }
1683:Drivers/STM32F7xx_HAL_Driver/Src/stm32f7xx_hal_qspi.c **** 
1684:Drivers/STM32F7xx_HAL_Driver/Src/stm32f7xx_hal_qspi.c ****   assert_param(IS_QSPI_ALTERNATE_BYTES_MODE(cmd->AlternateByteMode));
1685:Drivers/STM32F7xx_HAL_Driver/Src/stm32f7xx_hal_qspi.c ****   if (cmd->AlternateByteMode != QSPI_ALTERNATE_BYTES_NONE)
1686:Drivers/STM32F7xx_HAL_Driver/Src/stm32f7xx_hal_qspi.c ****   {
1687:Drivers/STM32F7xx_HAL_Driver/Src/stm32f7xx_hal_qspi.c ****     assert_param(IS_QSPI_ALTERNATE_BYTES_SIZE(cmd->AlternateBytesSize));
1688:Drivers/STM32F7xx_HAL_Driver/Src/stm32f7xx_hal_qspi.c ****   }
1689:Drivers/STM32F7xx_HAL_Driver/Src/stm32f7xx_hal_qspi.c **** 
1690:Drivers/STM32F7xx_HAL_Driver/Src/stm32f7xx_hal_qspi.c ****   assert_param(IS_QSPI_DUMMY_CYCLES(cmd->DummyCycles));
1691:Drivers/STM32F7xx_HAL_Driver/Src/stm32f7xx_hal_qspi.c ****   assert_param(IS_QSPI_DATA_MODE(cmd->DataMode));
1692:Drivers/STM32F7xx_HAL_Driver/Src/stm32f7xx_hal_qspi.c **** 
1693:Drivers/STM32F7xx_HAL_Driver/Src/stm32f7xx_hal_qspi.c ****   assert_param(IS_QSPI_DDR_MODE(cmd->DdrMode));
1694:Drivers/STM32F7xx_HAL_Driver/Src/stm32f7xx_hal_qspi.c ****   assert_param(IS_QSPI_DDR_HHC(cmd->DdrHoldHalfCycle));
1695:Drivers/STM32F7xx_HAL_Driver/Src/stm32f7xx_hal_qspi.c ****   assert_param(IS_QSPI_SIOO_MODE(cmd->SIOOMode));
1696:Drivers/STM32F7xx_HAL_Driver/Src/stm32f7xx_hal_qspi.c **** 
1697:Drivers/STM32F7xx_HAL_Driver/Src/stm32f7xx_hal_qspi.c ****   assert_param(IS_QSPI_INTERVAL(cfg->Interval));
1698:Drivers/STM32F7xx_HAL_Driver/Src/stm32f7xx_hal_qspi.c ****   assert_param(IS_QSPI_STATUS_BYTES_SIZE(cfg->StatusBytesSize));
1699:Drivers/STM32F7xx_HAL_Driver/Src/stm32f7xx_hal_qspi.c ****   assert_param(IS_QSPI_MATCH_MODE(cfg->MatchMode));
1700:Drivers/STM32F7xx_HAL_Driver/Src/stm32f7xx_hal_qspi.c ****   assert_param(IS_QSPI_AUTOMATIC_STOP(cfg->AutomaticStop));
1701:Drivers/STM32F7xx_HAL_Driver/Src/stm32f7xx_hal_qspi.c **** 
1702:Drivers/STM32F7xx_HAL_Driver/Src/stm32f7xx_hal_qspi.c ****   /* Process locked */
1703:Drivers/STM32F7xx_HAL_Driver/Src/stm32f7xx_hal_qspi.c ****   __HAL_LOCK(hqspi);
 2899              		.loc 1 1703 3
 2900 000c FB68     		ldr	r3, [r7, #12]
 2901 000e 93F84030 		ldrb	r3, [r3, #64]
 2902 0012 DBB2     		uxtb	r3, r3
 2903 0014 012B     		cmp	r3, #1
 2904 0016 01D1     		bne	.L141
 2905              		.loc 1 1703 3 is_stmt 0 discriminator 1
 2906 0018 0223     		movs	r3, #2
 2907 001a 60E0     		b	.L142
 2908              	.L141:
 2909              		.loc 1 1703 3 discriminator 2
 2910 001c FB68     		ldr	r3, [r7, #12]
 2911 001e 0122     		movs	r2, #1
 2912 0020 83F84020 		strb	r2, [r3, #64]
1704:Drivers/STM32F7xx_HAL_Driver/Src/stm32f7xx_hal_qspi.c **** 
1705:Drivers/STM32F7xx_HAL_Driver/Src/stm32f7xx_hal_qspi.c ****   if(hqspi->State == HAL_QSPI_STATE_READY)
 2913              		.loc 1 1705 11 is_stmt 1 discriminator 2
 2914 0024 FB68     		ldr	r3, [r7, #12]
 2915 0026 93F84130 		ldrb	r3, [r3, #65]
 2916 002a DBB2     		uxtb	r3, r3
 2917              		.loc 1 1705 5 discriminator 2
 2918 002c 012B     		cmp	r3, #1
 2919 002e 4FD1     		bne	.L143
1706:Drivers/STM32F7xx_HAL_Driver/Src/stm32f7xx_hal_qspi.c ****   {
ARM GAS  C:\Users\jisu8\AppData\Local\Temp\ccA6Ygqq.s 			page 82


1707:Drivers/STM32F7xx_HAL_Driver/Src/stm32f7xx_hal_qspi.c ****     hqspi->ErrorCode = HAL_QSPI_ERROR_NONE;
 2920              		.loc 1 1707 22
 2921 0030 FB68     		ldr	r3, [r7, #12]
 2922 0032 0022     		movs	r2, #0
 2923 0034 5A64     		str	r2, [r3, #68]
1708:Drivers/STM32F7xx_HAL_Driver/Src/stm32f7xx_hal_qspi.c **** 
1709:Drivers/STM32F7xx_HAL_Driver/Src/stm32f7xx_hal_qspi.c ****     /* Update state */
1710:Drivers/STM32F7xx_HAL_Driver/Src/stm32f7xx_hal_qspi.c ****     hqspi->State = HAL_QSPI_STATE_BUSY_AUTO_POLLING;
 2924              		.loc 1 1710 18
 2925 0036 FB68     		ldr	r3, [r7, #12]
 2926 0038 4222     		movs	r2, #66
 2927 003a 83F84120 		strb	r2, [r3, #65]
1711:Drivers/STM32F7xx_HAL_Driver/Src/stm32f7xx_hal_qspi.c **** 
1712:Drivers/STM32F7xx_HAL_Driver/Src/stm32f7xx_hal_qspi.c ****     /* Wait till BUSY flag reset */
1713:Drivers/STM32F7xx_HAL_Driver/Src/stm32f7xx_hal_qspi.c ****     status = QSPI_WaitFlagStateUntilTimeout_CPUCycle(hqspi, QSPI_FLAG_BUSY, RESET, hqspi->Timeout);
 2928              		.loc 1 1713 14
 2929 003e FB68     		ldr	r3, [r7, #12]
 2930 0040 9B6C     		ldr	r3, [r3, #72]
 2931 0042 0022     		movs	r2, #0
 2932 0044 2021     		movs	r1, #32
 2933 0046 F868     		ldr	r0, [r7, #12]
 2934 0048 FFF7FEFF 		bl	QSPI_WaitFlagStateUntilTimeout_CPUCycle
 2935 004c 0346     		mov	r3, r0
 2936 004e FB75     		strb	r3, [r7, #23]
1714:Drivers/STM32F7xx_HAL_Driver/Src/stm32f7xx_hal_qspi.c **** 
1715:Drivers/STM32F7xx_HAL_Driver/Src/stm32f7xx_hal_qspi.c ****     if (status == HAL_OK)
 2937              		.loc 1 1715 8
 2938 0050 FB7D     		ldrb	r3, [r7, #23]	@ zero_extendqisi2
 2939 0052 002B     		cmp	r3, #0
 2940 0054 37D1     		bne	.L144
1716:Drivers/STM32F7xx_HAL_Driver/Src/stm32f7xx_hal_qspi.c ****     {
1717:Drivers/STM32F7xx_HAL_Driver/Src/stm32f7xx_hal_qspi.c ****       /* Configure QSPI: PSMAR register with the status match value */
1718:Drivers/STM32F7xx_HAL_Driver/Src/stm32f7xx_hal_qspi.c ****       WRITE_REG(hqspi->Instance->PSMAR, cfg->Match);
 2941              		.loc 1 1718 7
 2942 0056 FB68     		ldr	r3, [r7, #12]
 2943 0058 1B68     		ldr	r3, [r3]
 2944 005a 7A68     		ldr	r2, [r7, #4]
 2945 005c 1268     		ldr	r2, [r2]
 2946 005e 9A62     		str	r2, [r3, #40]
1719:Drivers/STM32F7xx_HAL_Driver/Src/stm32f7xx_hal_qspi.c **** 
1720:Drivers/STM32F7xx_HAL_Driver/Src/stm32f7xx_hal_qspi.c ****       /* Configure QSPI: PSMKR register with the status mask value */
1721:Drivers/STM32F7xx_HAL_Driver/Src/stm32f7xx_hal_qspi.c ****       WRITE_REG(hqspi->Instance->PSMKR, cfg->Mask);
 2947              		.loc 1 1721 7
 2948 0060 FB68     		ldr	r3, [r7, #12]
 2949 0062 1B68     		ldr	r3, [r3]
 2950 0064 7A68     		ldr	r2, [r7, #4]
 2951 0066 5268     		ldr	r2, [r2, #4]
 2952 0068 5A62     		str	r2, [r3, #36]
1722:Drivers/STM32F7xx_HAL_Driver/Src/stm32f7xx_hal_qspi.c **** 
1723:Drivers/STM32F7xx_HAL_Driver/Src/stm32f7xx_hal_qspi.c ****       /* Configure QSPI: PIR register with the interval value */
1724:Drivers/STM32F7xx_HAL_Driver/Src/stm32f7xx_hal_qspi.c ****       WRITE_REG(hqspi->Instance->PIR, cfg->Interval);
 2953              		.loc 1 1724 7
 2954 006a FB68     		ldr	r3, [r7, #12]
 2955 006c 1B68     		ldr	r3, [r3]
 2956 006e 7A68     		ldr	r2, [r7, #4]
 2957 0070 9268     		ldr	r2, [r2, #8]
 2958 0072 DA62     		str	r2, [r3, #44]
ARM GAS  C:\Users\jisu8\AppData\Local\Temp\ccA6Ygqq.s 			page 83


1725:Drivers/STM32F7xx_HAL_Driver/Src/stm32f7xx_hal_qspi.c **** 
1726:Drivers/STM32F7xx_HAL_Driver/Src/stm32f7xx_hal_qspi.c ****       /* Configure QSPI: CR register with Match mode and Automatic stop mode */
1727:Drivers/STM32F7xx_HAL_Driver/Src/stm32f7xx_hal_qspi.c ****       MODIFY_REG(hqspi->Instance->CR, (QUADSPI_CR_PMM | QUADSPI_CR_APMS),
 2959              		.loc 1 1727 7
 2960 0074 FB68     		ldr	r3, [r7, #12]
 2961 0076 1B68     		ldr	r3, [r3]
 2962 0078 1B68     		ldr	r3, [r3]
 2963 007a 23F44001 		bic	r1, r3, #12582912
 2964 007e 7B68     		ldr	r3, [r7, #4]
 2965 0080 1A69     		ldr	r2, [r3, #16]
 2966 0082 7B68     		ldr	r3, [r7, #4]
 2967 0084 5B69     		ldr	r3, [r3, #20]
 2968 0086 1A43     		orrs	r2, r2, r3
 2969 0088 FB68     		ldr	r3, [r7, #12]
 2970 008a 1B68     		ldr	r3, [r3]
 2971 008c 0A43     		orrs	r2, r2, r1
 2972 008e 1A60     		str	r2, [r3]
1728:Drivers/STM32F7xx_HAL_Driver/Src/stm32f7xx_hal_qspi.c ****                (cfg->MatchMode | cfg->AutomaticStop));
1729:Drivers/STM32F7xx_HAL_Driver/Src/stm32f7xx_hal_qspi.c **** 
1730:Drivers/STM32F7xx_HAL_Driver/Src/stm32f7xx_hal_qspi.c ****       /* Clear interrupt */
1731:Drivers/STM32F7xx_HAL_Driver/Src/stm32f7xx_hal_qspi.c ****       __HAL_QSPI_CLEAR_FLAG(hqspi, QSPI_FLAG_TE | QSPI_FLAG_SM);
 2973              		.loc 1 1731 7
 2974 0090 FB68     		ldr	r3, [r7, #12]
 2975 0092 1B68     		ldr	r3, [r3]
 2976 0094 0922     		movs	r2, #9
 2977 0096 DA60     		str	r2, [r3, #12]
1732:Drivers/STM32F7xx_HAL_Driver/Src/stm32f7xx_hal_qspi.c **** 
1733:Drivers/STM32F7xx_HAL_Driver/Src/stm32f7xx_hal_qspi.c ****       /* Call the configuration function */
1734:Drivers/STM32F7xx_HAL_Driver/Src/stm32f7xx_hal_qspi.c ****       cmd->NbData = cfg->StatusBytesSize;
 2978              		.loc 1 1734 24
 2979 0098 7B68     		ldr	r3, [r7, #4]
 2980 009a DA68     		ldr	r2, [r3, #12]
 2981              		.loc 1 1734 19
 2982 009c BB68     		ldr	r3, [r7, #8]
 2983 009e 9A62     		str	r2, [r3, #40]
1735:Drivers/STM32F7xx_HAL_Driver/Src/stm32f7xx_hal_qspi.c ****       QSPI_Config(hqspi, cmd, QSPI_FUNCTIONAL_MODE_AUTO_POLLING);
 2984              		.loc 1 1735 7
 2985 00a0 4FF00062 		mov	r2, #134217728
 2986 00a4 B968     		ldr	r1, [r7, #8]
 2987 00a6 F868     		ldr	r0, [r7, #12]
 2988 00a8 FFF7FEFF 		bl	QSPI_Config
1736:Drivers/STM32F7xx_HAL_Driver/Src/stm32f7xx_hal_qspi.c **** 
1737:Drivers/STM32F7xx_HAL_Driver/Src/stm32f7xx_hal_qspi.c ****       /* Process unlocked */
1738:Drivers/STM32F7xx_HAL_Driver/Src/stm32f7xx_hal_qspi.c ****       __HAL_UNLOCK(hqspi);
 2989              		.loc 1 1738 7
 2990 00ac FB68     		ldr	r3, [r7, #12]
 2991 00ae 0022     		movs	r2, #0
 2992 00b0 83F84020 		strb	r2, [r3, #64]
1739:Drivers/STM32F7xx_HAL_Driver/Src/stm32f7xx_hal_qspi.c **** 
1740:Drivers/STM32F7xx_HAL_Driver/Src/stm32f7xx_hal_qspi.c ****       /* Enable the QSPI Transfer Error and status match Interrupt */
1741:Drivers/STM32F7xx_HAL_Driver/Src/stm32f7xx_hal_qspi.c ****       __HAL_QSPI_ENABLE_IT(hqspi, (QSPI_IT_SM | QSPI_IT_TE));
 2993              		.loc 1 1741 7
 2994 00b4 FB68     		ldr	r3, [r7, #12]
 2995 00b6 1B68     		ldr	r3, [r3]
 2996 00b8 1A68     		ldr	r2, [r3]
 2997 00ba FB68     		ldr	r3, [r7, #12]
 2998 00bc 1B68     		ldr	r3, [r3]
ARM GAS  C:\Users\jisu8\AppData\Local\Temp\ccA6Ygqq.s 			page 84


 2999 00be 42F41022 		orr	r2, r2, #589824
 3000 00c2 1A60     		str	r2, [r3]
 3001 00c4 0AE0     		b	.L145
 3002              	.L144:
1742:Drivers/STM32F7xx_HAL_Driver/Src/stm32f7xx_hal_qspi.c **** 
1743:Drivers/STM32F7xx_HAL_Driver/Src/stm32f7xx_hal_qspi.c ****     }
1744:Drivers/STM32F7xx_HAL_Driver/Src/stm32f7xx_hal_qspi.c ****     else
1745:Drivers/STM32F7xx_HAL_Driver/Src/stm32f7xx_hal_qspi.c ****     {
1746:Drivers/STM32F7xx_HAL_Driver/Src/stm32f7xx_hal_qspi.c ****       /* Process unlocked */
1747:Drivers/STM32F7xx_HAL_Driver/Src/stm32f7xx_hal_qspi.c ****       __HAL_UNLOCK(hqspi);
 3003              		.loc 1 1747 7
 3004 00c6 FB68     		ldr	r3, [r7, #12]
 3005 00c8 0022     		movs	r2, #0
 3006 00ca 83F84020 		strb	r2, [r3, #64]
 3007 00ce 05E0     		b	.L145
 3008              	.L143:
1748:Drivers/STM32F7xx_HAL_Driver/Src/stm32f7xx_hal_qspi.c ****     }
1749:Drivers/STM32F7xx_HAL_Driver/Src/stm32f7xx_hal_qspi.c ****   }
1750:Drivers/STM32F7xx_HAL_Driver/Src/stm32f7xx_hal_qspi.c ****   else
1751:Drivers/STM32F7xx_HAL_Driver/Src/stm32f7xx_hal_qspi.c ****   {
1752:Drivers/STM32F7xx_HAL_Driver/Src/stm32f7xx_hal_qspi.c ****     status = HAL_BUSY;
 3009              		.loc 1 1752 12
 3010 00d0 0223     		movs	r3, #2
 3011 00d2 FB75     		strb	r3, [r7, #23]
1753:Drivers/STM32F7xx_HAL_Driver/Src/stm32f7xx_hal_qspi.c **** 
1754:Drivers/STM32F7xx_HAL_Driver/Src/stm32f7xx_hal_qspi.c ****     /* Process unlocked */
1755:Drivers/STM32F7xx_HAL_Driver/Src/stm32f7xx_hal_qspi.c ****     __HAL_UNLOCK(hqspi);
 3012              		.loc 1 1755 5
 3013 00d4 FB68     		ldr	r3, [r7, #12]
 3014 00d6 0022     		movs	r2, #0
 3015 00d8 83F84020 		strb	r2, [r3, #64]
 3016              	.L145:
1756:Drivers/STM32F7xx_HAL_Driver/Src/stm32f7xx_hal_qspi.c ****   }
1757:Drivers/STM32F7xx_HAL_Driver/Src/stm32f7xx_hal_qspi.c **** 
1758:Drivers/STM32F7xx_HAL_Driver/Src/stm32f7xx_hal_qspi.c ****   /* Return function status */
1759:Drivers/STM32F7xx_HAL_Driver/Src/stm32f7xx_hal_qspi.c ****   return status;
 3017              		.loc 1 1759 10
 3018 00dc FB7D     		ldrb	r3, [r7, #23]	@ zero_extendqisi2
 3019              	.L142:
1760:Drivers/STM32F7xx_HAL_Driver/Src/stm32f7xx_hal_qspi.c **** }
 3020              		.loc 1 1760 1
 3021 00de 1846     		mov	r0, r3
 3022 00e0 1837     		adds	r7, r7, #24
 3023              	.LCFI77:
 3024              		.cfi_def_cfa_offset 8
 3025 00e2 BD46     		mov	sp, r7
 3026              	.LCFI78:
 3027              		.cfi_def_cfa_register 13
 3028              		@ sp needed
 3029 00e4 80BD     		pop	{r7, pc}
 3030              		.cfi_endproc
 3031              	.LFE155:
 3033              		.section	.text.HAL_QSPI_MemoryMapped,"ax",%progbits
 3034              		.align	1
 3035              		.global	HAL_QSPI_MemoryMapped
 3036              		.syntax unified
 3037              		.thumb
ARM GAS  C:\Users\jisu8\AppData\Local\Temp\ccA6Ygqq.s 			page 85


 3038              		.thumb_func
 3040              	HAL_QSPI_MemoryMapped:
 3041              	.LFB156:
1761:Drivers/STM32F7xx_HAL_Driver/Src/stm32f7xx_hal_qspi.c **** 
1762:Drivers/STM32F7xx_HAL_Driver/Src/stm32f7xx_hal_qspi.c **** /**
1763:Drivers/STM32F7xx_HAL_Driver/Src/stm32f7xx_hal_qspi.c ****   * @brief  Configure the Memory Mapped mode.
1764:Drivers/STM32F7xx_HAL_Driver/Src/stm32f7xx_hal_qspi.c ****   * @param  hqspi QSPI handle
1765:Drivers/STM32F7xx_HAL_Driver/Src/stm32f7xx_hal_qspi.c ****   * @param  cmd structure that contains the command configuration information.
1766:Drivers/STM32F7xx_HAL_Driver/Src/stm32f7xx_hal_qspi.c ****   * @param  cfg structure that contains the memory mapped configuration information.
1767:Drivers/STM32F7xx_HAL_Driver/Src/stm32f7xx_hal_qspi.c ****   * @note   This function is used only in Memory mapped Mode
1768:Drivers/STM32F7xx_HAL_Driver/Src/stm32f7xx_hal_qspi.c ****   * @retval HAL status
1769:Drivers/STM32F7xx_HAL_Driver/Src/stm32f7xx_hal_qspi.c ****   */
1770:Drivers/STM32F7xx_HAL_Driver/Src/stm32f7xx_hal_qspi.c **** HAL_StatusTypeDef HAL_QSPI_MemoryMapped(QSPI_HandleTypeDef *hqspi, QSPI_CommandTypeDef *cmd, QSPI_M
1771:Drivers/STM32F7xx_HAL_Driver/Src/stm32f7xx_hal_qspi.c **** {
 3042              		.loc 1 1771 1
 3043              		.cfi_startproc
 3044              		@ args = 0, pretend = 0, frame = 24
 3045              		@ frame_needed = 1, uses_anonymous_args = 0
 3046 0000 80B5     		push	{r7, lr}
 3047              	.LCFI79:
 3048              		.cfi_def_cfa_offset 8
 3049              		.cfi_offset 7, -8
 3050              		.cfi_offset 14, -4
 3051 0002 88B0     		sub	sp, sp, #32
 3052              	.LCFI80:
 3053              		.cfi_def_cfa_offset 40
 3054 0004 02AF     		add	r7, sp, #8
 3055              	.LCFI81:
 3056              		.cfi_def_cfa 7, 32
 3057 0006 F860     		str	r0, [r7, #12]
 3058 0008 B960     		str	r1, [r7, #8]
 3059 000a 7A60     		str	r2, [r7, #4]
1772:Drivers/STM32F7xx_HAL_Driver/Src/stm32f7xx_hal_qspi.c ****   HAL_StatusTypeDef status;
1773:Drivers/STM32F7xx_HAL_Driver/Src/stm32f7xx_hal_qspi.c ****   uint32_t tickstart = HAL_GetTick();
 3060              		.loc 1 1773 24
 3061 000c FFF7FEFF 		bl	HAL_GetTick
 3062 0010 3861     		str	r0, [r7, #16]
1774:Drivers/STM32F7xx_HAL_Driver/Src/stm32f7xx_hal_qspi.c **** 
1775:Drivers/STM32F7xx_HAL_Driver/Src/stm32f7xx_hal_qspi.c ****   /* Check the parameters */
1776:Drivers/STM32F7xx_HAL_Driver/Src/stm32f7xx_hal_qspi.c ****   assert_param(IS_QSPI_INSTRUCTION_MODE(cmd->InstructionMode));
1777:Drivers/STM32F7xx_HAL_Driver/Src/stm32f7xx_hal_qspi.c ****   if (cmd->InstructionMode != QSPI_INSTRUCTION_NONE)
1778:Drivers/STM32F7xx_HAL_Driver/Src/stm32f7xx_hal_qspi.c ****   {
1779:Drivers/STM32F7xx_HAL_Driver/Src/stm32f7xx_hal_qspi.c ****   assert_param(IS_QSPI_INSTRUCTION(cmd->Instruction));
1780:Drivers/STM32F7xx_HAL_Driver/Src/stm32f7xx_hal_qspi.c ****   }
1781:Drivers/STM32F7xx_HAL_Driver/Src/stm32f7xx_hal_qspi.c **** 
1782:Drivers/STM32F7xx_HAL_Driver/Src/stm32f7xx_hal_qspi.c ****   assert_param(IS_QSPI_ADDRESS_MODE(cmd->AddressMode));
1783:Drivers/STM32F7xx_HAL_Driver/Src/stm32f7xx_hal_qspi.c ****   if (cmd->AddressMode != QSPI_ADDRESS_NONE)
1784:Drivers/STM32F7xx_HAL_Driver/Src/stm32f7xx_hal_qspi.c ****   {
1785:Drivers/STM32F7xx_HAL_Driver/Src/stm32f7xx_hal_qspi.c ****     assert_param(IS_QSPI_ADDRESS_SIZE(cmd->AddressSize));
1786:Drivers/STM32F7xx_HAL_Driver/Src/stm32f7xx_hal_qspi.c ****   }
1787:Drivers/STM32F7xx_HAL_Driver/Src/stm32f7xx_hal_qspi.c **** 
1788:Drivers/STM32F7xx_HAL_Driver/Src/stm32f7xx_hal_qspi.c ****   assert_param(IS_QSPI_ALTERNATE_BYTES_MODE(cmd->AlternateByteMode));
1789:Drivers/STM32F7xx_HAL_Driver/Src/stm32f7xx_hal_qspi.c ****   if (cmd->AlternateByteMode != QSPI_ALTERNATE_BYTES_NONE)
1790:Drivers/STM32F7xx_HAL_Driver/Src/stm32f7xx_hal_qspi.c ****   {
1791:Drivers/STM32F7xx_HAL_Driver/Src/stm32f7xx_hal_qspi.c ****     assert_param(IS_QSPI_ALTERNATE_BYTES_SIZE(cmd->AlternateBytesSize));
1792:Drivers/STM32F7xx_HAL_Driver/Src/stm32f7xx_hal_qspi.c ****   }
1793:Drivers/STM32F7xx_HAL_Driver/Src/stm32f7xx_hal_qspi.c **** 
ARM GAS  C:\Users\jisu8\AppData\Local\Temp\ccA6Ygqq.s 			page 86


1794:Drivers/STM32F7xx_HAL_Driver/Src/stm32f7xx_hal_qspi.c ****   assert_param(IS_QSPI_DUMMY_CYCLES(cmd->DummyCycles));
1795:Drivers/STM32F7xx_HAL_Driver/Src/stm32f7xx_hal_qspi.c ****   assert_param(IS_QSPI_DATA_MODE(cmd->DataMode));
1796:Drivers/STM32F7xx_HAL_Driver/Src/stm32f7xx_hal_qspi.c **** 
1797:Drivers/STM32F7xx_HAL_Driver/Src/stm32f7xx_hal_qspi.c ****   assert_param(IS_QSPI_DDR_MODE(cmd->DdrMode));
1798:Drivers/STM32F7xx_HAL_Driver/Src/stm32f7xx_hal_qspi.c ****   assert_param(IS_QSPI_DDR_HHC(cmd->DdrHoldHalfCycle));
1799:Drivers/STM32F7xx_HAL_Driver/Src/stm32f7xx_hal_qspi.c ****   assert_param(IS_QSPI_SIOO_MODE(cmd->SIOOMode));
1800:Drivers/STM32F7xx_HAL_Driver/Src/stm32f7xx_hal_qspi.c **** 
1801:Drivers/STM32F7xx_HAL_Driver/Src/stm32f7xx_hal_qspi.c ****   assert_param(IS_QSPI_TIMEOUT_ACTIVATION(cfg->TimeOutActivation));
1802:Drivers/STM32F7xx_HAL_Driver/Src/stm32f7xx_hal_qspi.c **** 
1803:Drivers/STM32F7xx_HAL_Driver/Src/stm32f7xx_hal_qspi.c ****   /* Process locked */
1804:Drivers/STM32F7xx_HAL_Driver/Src/stm32f7xx_hal_qspi.c ****   __HAL_LOCK(hqspi);
 3063              		.loc 1 1804 3
 3064 0012 FB68     		ldr	r3, [r7, #12]
 3065 0014 93F84030 		ldrb	r3, [r3, #64]
 3066 0018 DBB2     		uxtb	r3, r3
 3067 001a 012B     		cmp	r3, #1
 3068 001c 01D1     		bne	.L147
 3069              		.loc 1 1804 3 is_stmt 0 discriminator 1
 3070 001e 0223     		movs	r3, #2
 3071 0020 4CE0     		b	.L148
 3072              	.L147:
 3073              		.loc 1 1804 3 discriminator 2
 3074 0022 FB68     		ldr	r3, [r7, #12]
 3075 0024 0122     		movs	r2, #1
 3076 0026 83F84020 		strb	r2, [r3, #64]
1805:Drivers/STM32F7xx_HAL_Driver/Src/stm32f7xx_hal_qspi.c **** 
1806:Drivers/STM32F7xx_HAL_Driver/Src/stm32f7xx_hal_qspi.c ****   if(hqspi->State == HAL_QSPI_STATE_READY)
 3077              		.loc 1 1806 11 is_stmt 1 discriminator 2
 3078 002a FB68     		ldr	r3, [r7, #12]
 3079 002c 93F84130 		ldrb	r3, [r3, #65]
 3080 0030 DBB2     		uxtb	r3, r3
 3081              		.loc 1 1806 5 discriminator 2
 3082 0032 012B     		cmp	r3, #1
 3083 0034 3BD1     		bne	.L149
1807:Drivers/STM32F7xx_HAL_Driver/Src/stm32f7xx_hal_qspi.c ****   {
1808:Drivers/STM32F7xx_HAL_Driver/Src/stm32f7xx_hal_qspi.c ****     hqspi->ErrorCode = HAL_QSPI_ERROR_NONE;
 3084              		.loc 1 1808 22
 3085 0036 FB68     		ldr	r3, [r7, #12]
 3086 0038 0022     		movs	r2, #0
 3087 003a 5A64     		str	r2, [r3, #68]
1809:Drivers/STM32F7xx_HAL_Driver/Src/stm32f7xx_hal_qspi.c **** 
1810:Drivers/STM32F7xx_HAL_Driver/Src/stm32f7xx_hal_qspi.c ****     /* Update state */
1811:Drivers/STM32F7xx_HAL_Driver/Src/stm32f7xx_hal_qspi.c ****     hqspi->State = HAL_QSPI_STATE_BUSY_MEM_MAPPED;
 3088              		.loc 1 1811 18
 3089 003c FB68     		ldr	r3, [r7, #12]
 3090 003e 8222     		movs	r2, #130
 3091 0040 83F84120 		strb	r2, [r3, #65]
1812:Drivers/STM32F7xx_HAL_Driver/Src/stm32f7xx_hal_qspi.c **** 
1813:Drivers/STM32F7xx_HAL_Driver/Src/stm32f7xx_hal_qspi.c ****     /* Wait till BUSY flag reset */
1814:Drivers/STM32F7xx_HAL_Driver/Src/stm32f7xx_hal_qspi.c ****     status = QSPI_WaitFlagStateUntilTimeout(hqspi, QSPI_FLAG_BUSY, RESET, tickstart, hqspi->Timeout
 3092              		.loc 1 1814 14
 3093 0044 FB68     		ldr	r3, [r7, #12]
 3094 0046 9B6C     		ldr	r3, [r3, #72]
 3095 0048 0093     		str	r3, [sp]
 3096 004a 3B69     		ldr	r3, [r7, #16]
 3097 004c 0022     		movs	r2, #0
 3098 004e 2021     		movs	r1, #32
ARM GAS  C:\Users\jisu8\AppData\Local\Temp\ccA6Ygqq.s 			page 87


 3099 0050 F868     		ldr	r0, [r7, #12]
 3100 0052 FFF7FEFF 		bl	QSPI_WaitFlagStateUntilTimeout
 3101 0056 0346     		mov	r3, r0
 3102 0058 FB75     		strb	r3, [r7, #23]
1815:Drivers/STM32F7xx_HAL_Driver/Src/stm32f7xx_hal_qspi.c **** 
1816:Drivers/STM32F7xx_HAL_Driver/Src/stm32f7xx_hal_qspi.c ****     if (status == HAL_OK)
 3103              		.loc 1 1816 8
 3104 005a FB7D     		ldrb	r3, [r7, #23]	@ zero_extendqisi2
 3105 005c 002B     		cmp	r3, #0
 3106 005e 28D1     		bne	.L150
1817:Drivers/STM32F7xx_HAL_Driver/Src/stm32f7xx_hal_qspi.c ****     {
1818:Drivers/STM32F7xx_HAL_Driver/Src/stm32f7xx_hal_qspi.c ****       /* Configure QSPI: CR register with timeout counter enable */
1819:Drivers/STM32F7xx_HAL_Driver/Src/stm32f7xx_hal_qspi.c ****     MODIFY_REG(hqspi->Instance->CR, QUADSPI_CR_TCEN, cfg->TimeOutActivation);
 3107              		.loc 1 1819 5
 3108 0060 FB68     		ldr	r3, [r7, #12]
 3109 0062 1B68     		ldr	r3, [r3]
 3110 0064 1B68     		ldr	r3, [r3]
 3111 0066 23F00801 		bic	r1, r3, #8
 3112 006a 7B68     		ldr	r3, [r7, #4]
 3113 006c 5A68     		ldr	r2, [r3, #4]
 3114 006e FB68     		ldr	r3, [r7, #12]
 3115 0070 1B68     		ldr	r3, [r3]
 3116 0072 0A43     		orrs	r2, r2, r1
 3117 0074 1A60     		str	r2, [r3]
1820:Drivers/STM32F7xx_HAL_Driver/Src/stm32f7xx_hal_qspi.c **** 
1821:Drivers/STM32F7xx_HAL_Driver/Src/stm32f7xx_hal_qspi.c ****     if (cfg->TimeOutActivation == QSPI_TIMEOUT_COUNTER_ENABLE)
 3118              		.loc 1 1821 12
 3119 0076 7B68     		ldr	r3, [r7, #4]
 3120 0078 5B68     		ldr	r3, [r3, #4]
 3121              		.loc 1 1821 8
 3122 007a 082B     		cmp	r3, #8
 3123 007c 10D1     		bne	.L151
1822:Drivers/STM32F7xx_HAL_Driver/Src/stm32f7xx_hal_qspi.c ****       {
1823:Drivers/STM32F7xx_HAL_Driver/Src/stm32f7xx_hal_qspi.c ****         assert_param(IS_QSPI_TIMEOUT_PERIOD(cfg->TimeOutPeriod));
1824:Drivers/STM32F7xx_HAL_Driver/Src/stm32f7xx_hal_qspi.c **** 
1825:Drivers/STM32F7xx_HAL_Driver/Src/stm32f7xx_hal_qspi.c ****         /* Configure QSPI: LPTR register with the low-power timeout value */
1826:Drivers/STM32F7xx_HAL_Driver/Src/stm32f7xx_hal_qspi.c ****         WRITE_REG(hqspi->Instance->LPTR, cfg->TimeOutPeriod);
 3124              		.loc 1 1826 9
 3125 007e FB68     		ldr	r3, [r7, #12]
 3126 0080 1B68     		ldr	r3, [r3]
 3127 0082 7A68     		ldr	r2, [r7, #4]
 3128 0084 1268     		ldr	r2, [r2]
 3129 0086 1A63     		str	r2, [r3, #48]
1827:Drivers/STM32F7xx_HAL_Driver/Src/stm32f7xx_hal_qspi.c **** 
1828:Drivers/STM32F7xx_HAL_Driver/Src/stm32f7xx_hal_qspi.c ****         /* Clear interrupt */
1829:Drivers/STM32F7xx_HAL_Driver/Src/stm32f7xx_hal_qspi.c ****         __HAL_QSPI_CLEAR_FLAG(hqspi, QSPI_FLAG_TO);
 3130              		.loc 1 1829 9
 3131 0088 FB68     		ldr	r3, [r7, #12]
 3132 008a 1B68     		ldr	r3, [r3]
 3133 008c 1022     		movs	r2, #16
 3134 008e DA60     		str	r2, [r3, #12]
1830:Drivers/STM32F7xx_HAL_Driver/Src/stm32f7xx_hal_qspi.c **** 
1831:Drivers/STM32F7xx_HAL_Driver/Src/stm32f7xx_hal_qspi.c ****         /* Enable the QSPI TimeOut Interrupt */
1832:Drivers/STM32F7xx_HAL_Driver/Src/stm32f7xx_hal_qspi.c ****         __HAL_QSPI_ENABLE_IT(hqspi, QSPI_IT_TO);
 3135              		.loc 1 1832 9
 3136 0090 FB68     		ldr	r3, [r7, #12]
 3137 0092 1B68     		ldr	r3, [r3]
ARM GAS  C:\Users\jisu8\AppData\Local\Temp\ccA6Ygqq.s 			page 88


 3138 0094 1A68     		ldr	r2, [r3]
 3139 0096 FB68     		ldr	r3, [r7, #12]
 3140 0098 1B68     		ldr	r3, [r3]
 3141 009a 42F48012 		orr	r2, r2, #1048576
 3142 009e 1A60     		str	r2, [r3]
 3143              	.L151:
1833:Drivers/STM32F7xx_HAL_Driver/Src/stm32f7xx_hal_qspi.c ****       }
1834:Drivers/STM32F7xx_HAL_Driver/Src/stm32f7xx_hal_qspi.c **** 
1835:Drivers/STM32F7xx_HAL_Driver/Src/stm32f7xx_hal_qspi.c ****       /* Call the configuration function */
1836:Drivers/STM32F7xx_HAL_Driver/Src/stm32f7xx_hal_qspi.c ****       QSPI_Config(hqspi, cmd, QSPI_FUNCTIONAL_MODE_MEMORY_MAPPED);
 3144              		.loc 1 1836 7
 3145 00a0 4FF04062 		mov	r2, #201326592
 3146 00a4 B968     		ldr	r1, [r7, #8]
 3147 00a6 F868     		ldr	r0, [r7, #12]
 3148 00a8 FFF7FEFF 		bl	QSPI_Config
 3149 00ac 01E0     		b	.L150
 3150              	.L149:
1837:Drivers/STM32F7xx_HAL_Driver/Src/stm32f7xx_hal_qspi.c ****     }
1838:Drivers/STM32F7xx_HAL_Driver/Src/stm32f7xx_hal_qspi.c ****   }
1839:Drivers/STM32F7xx_HAL_Driver/Src/stm32f7xx_hal_qspi.c ****   else
1840:Drivers/STM32F7xx_HAL_Driver/Src/stm32f7xx_hal_qspi.c ****   {
1841:Drivers/STM32F7xx_HAL_Driver/Src/stm32f7xx_hal_qspi.c ****     status = HAL_BUSY;
 3151              		.loc 1 1841 12
 3152 00ae 0223     		movs	r3, #2
 3153 00b0 FB75     		strb	r3, [r7, #23]
 3154              	.L150:
1842:Drivers/STM32F7xx_HAL_Driver/Src/stm32f7xx_hal_qspi.c ****   }
1843:Drivers/STM32F7xx_HAL_Driver/Src/stm32f7xx_hal_qspi.c **** 
1844:Drivers/STM32F7xx_HAL_Driver/Src/stm32f7xx_hal_qspi.c ****   /* Process unlocked */
1845:Drivers/STM32F7xx_HAL_Driver/Src/stm32f7xx_hal_qspi.c ****   __HAL_UNLOCK(hqspi);
 3155              		.loc 1 1845 3
 3156 00b2 FB68     		ldr	r3, [r7, #12]
 3157 00b4 0022     		movs	r2, #0
 3158 00b6 83F84020 		strb	r2, [r3, #64]
1846:Drivers/STM32F7xx_HAL_Driver/Src/stm32f7xx_hal_qspi.c **** 
1847:Drivers/STM32F7xx_HAL_Driver/Src/stm32f7xx_hal_qspi.c ****   /* Return function status */
1848:Drivers/STM32F7xx_HAL_Driver/Src/stm32f7xx_hal_qspi.c ****   return status;
 3159              		.loc 1 1848 10
 3160 00ba FB7D     		ldrb	r3, [r7, #23]	@ zero_extendqisi2
 3161              	.L148:
1849:Drivers/STM32F7xx_HAL_Driver/Src/stm32f7xx_hal_qspi.c **** }
 3162              		.loc 1 1849 1
 3163 00bc 1846     		mov	r0, r3
 3164 00be 1837     		adds	r7, r7, #24
 3165              	.LCFI82:
 3166              		.cfi_def_cfa_offset 8
 3167 00c0 BD46     		mov	sp, r7
 3168              	.LCFI83:
 3169              		.cfi_def_cfa_register 13
 3170              		@ sp needed
 3171 00c2 80BD     		pop	{r7, pc}
 3172              		.cfi_endproc
 3173              	.LFE156:
 3175              		.section	.text.HAL_QSPI_ErrorCallback,"ax",%progbits
 3176              		.align	1
 3177              		.weak	HAL_QSPI_ErrorCallback
 3178              		.syntax unified
ARM GAS  C:\Users\jisu8\AppData\Local\Temp\ccA6Ygqq.s 			page 89


 3179              		.thumb
 3180              		.thumb_func
 3182              	HAL_QSPI_ErrorCallback:
 3183              	.LFB157:
1850:Drivers/STM32F7xx_HAL_Driver/Src/stm32f7xx_hal_qspi.c **** 
1851:Drivers/STM32F7xx_HAL_Driver/Src/stm32f7xx_hal_qspi.c **** /**
1852:Drivers/STM32F7xx_HAL_Driver/Src/stm32f7xx_hal_qspi.c ****   * @brief  Transfer Error callback.
1853:Drivers/STM32F7xx_HAL_Driver/Src/stm32f7xx_hal_qspi.c ****   * @param  hqspi QSPI handle
1854:Drivers/STM32F7xx_HAL_Driver/Src/stm32f7xx_hal_qspi.c ****   * @retval None
1855:Drivers/STM32F7xx_HAL_Driver/Src/stm32f7xx_hal_qspi.c ****   */
1856:Drivers/STM32F7xx_HAL_Driver/Src/stm32f7xx_hal_qspi.c **** __weak void HAL_QSPI_ErrorCallback(QSPI_HandleTypeDef *hqspi)
1857:Drivers/STM32F7xx_HAL_Driver/Src/stm32f7xx_hal_qspi.c **** {
 3184              		.loc 1 1857 1
 3185              		.cfi_startproc
 3186              		@ args = 0, pretend = 0, frame = 8
 3187              		@ frame_needed = 1, uses_anonymous_args = 0
 3188              		@ link register save eliminated.
 3189 0000 80B4     		push	{r7}
 3190              	.LCFI84:
 3191              		.cfi_def_cfa_offset 4
 3192              		.cfi_offset 7, -4
 3193 0002 83B0     		sub	sp, sp, #12
 3194              	.LCFI85:
 3195              		.cfi_def_cfa_offset 16
 3196 0004 00AF     		add	r7, sp, #0
 3197              	.LCFI86:
 3198              		.cfi_def_cfa_register 7
 3199 0006 7860     		str	r0, [r7, #4]
1858:Drivers/STM32F7xx_HAL_Driver/Src/stm32f7xx_hal_qspi.c ****   /* Prevent unused argument(s) compilation warning */
1859:Drivers/STM32F7xx_HAL_Driver/Src/stm32f7xx_hal_qspi.c ****   UNUSED(hqspi);
1860:Drivers/STM32F7xx_HAL_Driver/Src/stm32f7xx_hal_qspi.c **** 
1861:Drivers/STM32F7xx_HAL_Driver/Src/stm32f7xx_hal_qspi.c ****   /* NOTE : This function should not be modified, when the callback is needed,
1862:Drivers/STM32F7xx_HAL_Driver/Src/stm32f7xx_hal_qspi.c ****             the HAL_QSPI_ErrorCallback could be implemented in the user file
1863:Drivers/STM32F7xx_HAL_Driver/Src/stm32f7xx_hal_qspi.c ****    */
1864:Drivers/STM32F7xx_HAL_Driver/Src/stm32f7xx_hal_qspi.c **** }
 3200              		.loc 1 1864 1
 3201 0008 00BF     		nop
 3202 000a 0C37     		adds	r7, r7, #12
 3203              	.LCFI87:
 3204              		.cfi_def_cfa_offset 4
 3205 000c BD46     		mov	sp, r7
 3206              	.LCFI88:
 3207              		.cfi_def_cfa_register 13
 3208              		@ sp needed
 3209 000e 5DF8047B 		ldr	r7, [sp], #4
 3210              	.LCFI89:
 3211              		.cfi_restore 7
 3212              		.cfi_def_cfa_offset 0
 3213 0012 7047     		bx	lr
 3214              		.cfi_endproc
 3215              	.LFE157:
 3217              		.section	.text.HAL_QSPI_AbortCpltCallback,"ax",%progbits
 3218              		.align	1
 3219              		.weak	HAL_QSPI_AbortCpltCallback
 3220              		.syntax unified
 3221              		.thumb
 3222              		.thumb_func
ARM GAS  C:\Users\jisu8\AppData\Local\Temp\ccA6Ygqq.s 			page 90


 3224              	HAL_QSPI_AbortCpltCallback:
 3225              	.LFB158:
1865:Drivers/STM32F7xx_HAL_Driver/Src/stm32f7xx_hal_qspi.c **** 
1866:Drivers/STM32F7xx_HAL_Driver/Src/stm32f7xx_hal_qspi.c **** /**
1867:Drivers/STM32F7xx_HAL_Driver/Src/stm32f7xx_hal_qspi.c ****   * @brief  Abort completed callback.
1868:Drivers/STM32F7xx_HAL_Driver/Src/stm32f7xx_hal_qspi.c ****   * @param  hqspi QSPI handle
1869:Drivers/STM32F7xx_HAL_Driver/Src/stm32f7xx_hal_qspi.c ****   * @retval None
1870:Drivers/STM32F7xx_HAL_Driver/Src/stm32f7xx_hal_qspi.c ****   */
1871:Drivers/STM32F7xx_HAL_Driver/Src/stm32f7xx_hal_qspi.c **** __weak void HAL_QSPI_AbortCpltCallback(QSPI_HandleTypeDef *hqspi)
1872:Drivers/STM32F7xx_HAL_Driver/Src/stm32f7xx_hal_qspi.c **** {
 3226              		.loc 1 1872 1
 3227              		.cfi_startproc
 3228              		@ args = 0, pretend = 0, frame = 8
 3229              		@ frame_needed = 1, uses_anonymous_args = 0
 3230              		@ link register save eliminated.
 3231 0000 80B4     		push	{r7}
 3232              	.LCFI90:
 3233              		.cfi_def_cfa_offset 4
 3234              		.cfi_offset 7, -4
 3235 0002 83B0     		sub	sp, sp, #12
 3236              	.LCFI91:
 3237              		.cfi_def_cfa_offset 16
 3238 0004 00AF     		add	r7, sp, #0
 3239              	.LCFI92:
 3240              		.cfi_def_cfa_register 7
 3241 0006 7860     		str	r0, [r7, #4]
1873:Drivers/STM32F7xx_HAL_Driver/Src/stm32f7xx_hal_qspi.c ****   /* Prevent unused argument(s) compilation warning */
1874:Drivers/STM32F7xx_HAL_Driver/Src/stm32f7xx_hal_qspi.c ****   UNUSED(hqspi);
1875:Drivers/STM32F7xx_HAL_Driver/Src/stm32f7xx_hal_qspi.c **** 
1876:Drivers/STM32F7xx_HAL_Driver/Src/stm32f7xx_hal_qspi.c ****   /* NOTE: This function should not be modified, when the callback is needed,
1877:Drivers/STM32F7xx_HAL_Driver/Src/stm32f7xx_hal_qspi.c ****            the HAL_QSPI_AbortCpltCallback could be implemented in the user file
1878:Drivers/STM32F7xx_HAL_Driver/Src/stm32f7xx_hal_qspi.c ****    */
1879:Drivers/STM32F7xx_HAL_Driver/Src/stm32f7xx_hal_qspi.c **** }
 3242              		.loc 1 1879 1
 3243 0008 00BF     		nop
 3244 000a 0C37     		adds	r7, r7, #12
 3245              	.LCFI93:
 3246              		.cfi_def_cfa_offset 4
 3247 000c BD46     		mov	sp, r7
 3248              	.LCFI94:
 3249              		.cfi_def_cfa_register 13
 3250              		@ sp needed
 3251 000e 5DF8047B 		ldr	r7, [sp], #4
 3252              	.LCFI95:
 3253              		.cfi_restore 7
 3254              		.cfi_def_cfa_offset 0
 3255 0012 7047     		bx	lr
 3256              		.cfi_endproc
 3257              	.LFE158:
 3259              		.section	.text.HAL_QSPI_CmdCpltCallback,"ax",%progbits
 3260              		.align	1
 3261              		.weak	HAL_QSPI_CmdCpltCallback
 3262              		.syntax unified
 3263              		.thumb
 3264              		.thumb_func
 3266              	HAL_QSPI_CmdCpltCallback:
 3267              	.LFB159:
ARM GAS  C:\Users\jisu8\AppData\Local\Temp\ccA6Ygqq.s 			page 91


1880:Drivers/STM32F7xx_HAL_Driver/Src/stm32f7xx_hal_qspi.c **** 
1881:Drivers/STM32F7xx_HAL_Driver/Src/stm32f7xx_hal_qspi.c **** /**
1882:Drivers/STM32F7xx_HAL_Driver/Src/stm32f7xx_hal_qspi.c ****   * @brief  Command completed callback.
1883:Drivers/STM32F7xx_HAL_Driver/Src/stm32f7xx_hal_qspi.c ****   * @param  hqspi QSPI handle
1884:Drivers/STM32F7xx_HAL_Driver/Src/stm32f7xx_hal_qspi.c ****   * @retval None
1885:Drivers/STM32F7xx_HAL_Driver/Src/stm32f7xx_hal_qspi.c ****   */
1886:Drivers/STM32F7xx_HAL_Driver/Src/stm32f7xx_hal_qspi.c **** __weak void HAL_QSPI_CmdCpltCallback(QSPI_HandleTypeDef *hqspi)
1887:Drivers/STM32F7xx_HAL_Driver/Src/stm32f7xx_hal_qspi.c **** {
 3268              		.loc 1 1887 1
 3269              		.cfi_startproc
 3270              		@ args = 0, pretend = 0, frame = 8
 3271              		@ frame_needed = 1, uses_anonymous_args = 0
 3272              		@ link register save eliminated.
 3273 0000 80B4     		push	{r7}
 3274              	.LCFI96:
 3275              		.cfi_def_cfa_offset 4
 3276              		.cfi_offset 7, -4
 3277 0002 83B0     		sub	sp, sp, #12
 3278              	.LCFI97:
 3279              		.cfi_def_cfa_offset 16
 3280 0004 00AF     		add	r7, sp, #0
 3281              	.LCFI98:
 3282              		.cfi_def_cfa_register 7
 3283 0006 7860     		str	r0, [r7, #4]
1888:Drivers/STM32F7xx_HAL_Driver/Src/stm32f7xx_hal_qspi.c ****   /* Prevent unused argument(s) compilation warning */
1889:Drivers/STM32F7xx_HAL_Driver/Src/stm32f7xx_hal_qspi.c ****   UNUSED(hqspi);
1890:Drivers/STM32F7xx_HAL_Driver/Src/stm32f7xx_hal_qspi.c **** 
1891:Drivers/STM32F7xx_HAL_Driver/Src/stm32f7xx_hal_qspi.c ****   /* NOTE: This function should not be modified, when the callback is needed,
1892:Drivers/STM32F7xx_HAL_Driver/Src/stm32f7xx_hal_qspi.c ****            the HAL_QSPI_CmdCpltCallback could be implemented in the user file
1893:Drivers/STM32F7xx_HAL_Driver/Src/stm32f7xx_hal_qspi.c ****    */
1894:Drivers/STM32F7xx_HAL_Driver/Src/stm32f7xx_hal_qspi.c **** }
 3284              		.loc 1 1894 1
 3285 0008 00BF     		nop
 3286 000a 0C37     		adds	r7, r7, #12
 3287              	.LCFI99:
 3288              		.cfi_def_cfa_offset 4
 3289 000c BD46     		mov	sp, r7
 3290              	.LCFI100:
 3291              		.cfi_def_cfa_register 13
 3292              		@ sp needed
 3293 000e 5DF8047B 		ldr	r7, [sp], #4
 3294              	.LCFI101:
 3295              		.cfi_restore 7
 3296              		.cfi_def_cfa_offset 0
 3297 0012 7047     		bx	lr
 3298              		.cfi_endproc
 3299              	.LFE159:
 3301              		.section	.text.HAL_QSPI_RxCpltCallback,"ax",%progbits
 3302              		.align	1
 3303              		.weak	HAL_QSPI_RxCpltCallback
 3304              		.syntax unified
 3305              		.thumb
 3306              		.thumb_func
 3308              	HAL_QSPI_RxCpltCallback:
 3309              	.LFB160:
1895:Drivers/STM32F7xx_HAL_Driver/Src/stm32f7xx_hal_qspi.c **** 
1896:Drivers/STM32F7xx_HAL_Driver/Src/stm32f7xx_hal_qspi.c **** /**
ARM GAS  C:\Users\jisu8\AppData\Local\Temp\ccA6Ygqq.s 			page 92


1897:Drivers/STM32F7xx_HAL_Driver/Src/stm32f7xx_hal_qspi.c ****   * @brief  Rx Transfer completed callback.
1898:Drivers/STM32F7xx_HAL_Driver/Src/stm32f7xx_hal_qspi.c ****   * @param  hqspi QSPI handle
1899:Drivers/STM32F7xx_HAL_Driver/Src/stm32f7xx_hal_qspi.c ****   * @retval None
1900:Drivers/STM32F7xx_HAL_Driver/Src/stm32f7xx_hal_qspi.c ****   */
1901:Drivers/STM32F7xx_HAL_Driver/Src/stm32f7xx_hal_qspi.c **** __weak void HAL_QSPI_RxCpltCallback(QSPI_HandleTypeDef *hqspi)
1902:Drivers/STM32F7xx_HAL_Driver/Src/stm32f7xx_hal_qspi.c **** {
 3310              		.loc 1 1902 1
 3311              		.cfi_startproc
 3312              		@ args = 0, pretend = 0, frame = 8
 3313              		@ frame_needed = 1, uses_anonymous_args = 0
 3314              		@ link register save eliminated.
 3315 0000 80B4     		push	{r7}
 3316              	.LCFI102:
 3317              		.cfi_def_cfa_offset 4
 3318              		.cfi_offset 7, -4
 3319 0002 83B0     		sub	sp, sp, #12
 3320              	.LCFI103:
 3321              		.cfi_def_cfa_offset 16
 3322 0004 00AF     		add	r7, sp, #0
 3323              	.LCFI104:
 3324              		.cfi_def_cfa_register 7
 3325 0006 7860     		str	r0, [r7, #4]
1903:Drivers/STM32F7xx_HAL_Driver/Src/stm32f7xx_hal_qspi.c ****   /* Prevent unused argument(s) compilation warning */
1904:Drivers/STM32F7xx_HAL_Driver/Src/stm32f7xx_hal_qspi.c ****   UNUSED(hqspi);
1905:Drivers/STM32F7xx_HAL_Driver/Src/stm32f7xx_hal_qspi.c **** 
1906:Drivers/STM32F7xx_HAL_Driver/Src/stm32f7xx_hal_qspi.c ****   /* NOTE: This function should not be modified, when the callback is needed,
1907:Drivers/STM32F7xx_HAL_Driver/Src/stm32f7xx_hal_qspi.c ****            the HAL_QSPI_RxCpltCallback could be implemented in the user file
1908:Drivers/STM32F7xx_HAL_Driver/Src/stm32f7xx_hal_qspi.c ****    */
1909:Drivers/STM32F7xx_HAL_Driver/Src/stm32f7xx_hal_qspi.c **** }
 3326              		.loc 1 1909 1
 3327 0008 00BF     		nop
 3328 000a 0C37     		adds	r7, r7, #12
 3329              	.LCFI105:
 3330              		.cfi_def_cfa_offset 4
 3331 000c BD46     		mov	sp, r7
 3332              	.LCFI106:
 3333              		.cfi_def_cfa_register 13
 3334              		@ sp needed
 3335 000e 5DF8047B 		ldr	r7, [sp], #4
 3336              	.LCFI107:
 3337              		.cfi_restore 7
 3338              		.cfi_def_cfa_offset 0
 3339 0012 7047     		bx	lr
 3340              		.cfi_endproc
 3341              	.LFE160:
 3343              		.section	.text.HAL_QSPI_TxCpltCallback,"ax",%progbits
 3344              		.align	1
 3345              		.weak	HAL_QSPI_TxCpltCallback
 3346              		.syntax unified
 3347              		.thumb
 3348              		.thumb_func
 3350              	HAL_QSPI_TxCpltCallback:
 3351              	.LFB161:
1910:Drivers/STM32F7xx_HAL_Driver/Src/stm32f7xx_hal_qspi.c **** 
1911:Drivers/STM32F7xx_HAL_Driver/Src/stm32f7xx_hal_qspi.c **** /**
1912:Drivers/STM32F7xx_HAL_Driver/Src/stm32f7xx_hal_qspi.c ****   * @brief  Tx Transfer completed callback.
1913:Drivers/STM32F7xx_HAL_Driver/Src/stm32f7xx_hal_qspi.c ****   * @param  hqspi QSPI handle
ARM GAS  C:\Users\jisu8\AppData\Local\Temp\ccA6Ygqq.s 			page 93


1914:Drivers/STM32F7xx_HAL_Driver/Src/stm32f7xx_hal_qspi.c ****   * @retval None
1915:Drivers/STM32F7xx_HAL_Driver/Src/stm32f7xx_hal_qspi.c ****   */
1916:Drivers/STM32F7xx_HAL_Driver/Src/stm32f7xx_hal_qspi.c **** __weak void HAL_QSPI_TxCpltCallback(QSPI_HandleTypeDef *hqspi)
1917:Drivers/STM32F7xx_HAL_Driver/Src/stm32f7xx_hal_qspi.c **** {
 3352              		.loc 1 1917 1
 3353              		.cfi_startproc
 3354              		@ args = 0, pretend = 0, frame = 8
 3355              		@ frame_needed = 1, uses_anonymous_args = 0
 3356              		@ link register save eliminated.
 3357 0000 80B4     		push	{r7}
 3358              	.LCFI108:
 3359              		.cfi_def_cfa_offset 4
 3360              		.cfi_offset 7, -4
 3361 0002 83B0     		sub	sp, sp, #12
 3362              	.LCFI109:
 3363              		.cfi_def_cfa_offset 16
 3364 0004 00AF     		add	r7, sp, #0
 3365              	.LCFI110:
 3366              		.cfi_def_cfa_register 7
 3367 0006 7860     		str	r0, [r7, #4]
1918:Drivers/STM32F7xx_HAL_Driver/Src/stm32f7xx_hal_qspi.c ****   /* Prevent unused argument(s) compilation warning */
1919:Drivers/STM32F7xx_HAL_Driver/Src/stm32f7xx_hal_qspi.c ****   UNUSED(hqspi);
1920:Drivers/STM32F7xx_HAL_Driver/Src/stm32f7xx_hal_qspi.c **** 
1921:Drivers/STM32F7xx_HAL_Driver/Src/stm32f7xx_hal_qspi.c ****   /* NOTE: This function should not be modified, when the callback is needed,
1922:Drivers/STM32F7xx_HAL_Driver/Src/stm32f7xx_hal_qspi.c ****            the HAL_QSPI_TxCpltCallback could be implemented in the user file
1923:Drivers/STM32F7xx_HAL_Driver/Src/stm32f7xx_hal_qspi.c ****    */
1924:Drivers/STM32F7xx_HAL_Driver/Src/stm32f7xx_hal_qspi.c **** }
 3368              		.loc 1 1924 1
 3369 0008 00BF     		nop
 3370 000a 0C37     		adds	r7, r7, #12
 3371              	.LCFI111:
 3372              		.cfi_def_cfa_offset 4
 3373 000c BD46     		mov	sp, r7
 3374              	.LCFI112:
 3375              		.cfi_def_cfa_register 13
 3376              		@ sp needed
 3377 000e 5DF8047B 		ldr	r7, [sp], #4
 3378              	.LCFI113:
 3379              		.cfi_restore 7
 3380              		.cfi_def_cfa_offset 0
 3381 0012 7047     		bx	lr
 3382              		.cfi_endproc
 3383              	.LFE161:
 3385              		.section	.text.HAL_QSPI_RxHalfCpltCallback,"ax",%progbits
 3386              		.align	1
 3387              		.weak	HAL_QSPI_RxHalfCpltCallback
 3388              		.syntax unified
 3389              		.thumb
 3390              		.thumb_func
 3392              	HAL_QSPI_RxHalfCpltCallback:
 3393              	.LFB162:
1925:Drivers/STM32F7xx_HAL_Driver/Src/stm32f7xx_hal_qspi.c **** 
1926:Drivers/STM32F7xx_HAL_Driver/Src/stm32f7xx_hal_qspi.c **** /**
1927:Drivers/STM32F7xx_HAL_Driver/Src/stm32f7xx_hal_qspi.c ****   * @brief  Rx Half Transfer completed callback.
1928:Drivers/STM32F7xx_HAL_Driver/Src/stm32f7xx_hal_qspi.c ****   * @param  hqspi QSPI handle
1929:Drivers/STM32F7xx_HAL_Driver/Src/stm32f7xx_hal_qspi.c ****   * @retval None
1930:Drivers/STM32F7xx_HAL_Driver/Src/stm32f7xx_hal_qspi.c ****   */
ARM GAS  C:\Users\jisu8\AppData\Local\Temp\ccA6Ygqq.s 			page 94


1931:Drivers/STM32F7xx_HAL_Driver/Src/stm32f7xx_hal_qspi.c **** __weak void HAL_QSPI_RxHalfCpltCallback(QSPI_HandleTypeDef *hqspi)
1932:Drivers/STM32F7xx_HAL_Driver/Src/stm32f7xx_hal_qspi.c **** {
 3394              		.loc 1 1932 1
 3395              		.cfi_startproc
 3396              		@ args = 0, pretend = 0, frame = 8
 3397              		@ frame_needed = 1, uses_anonymous_args = 0
 3398              		@ link register save eliminated.
 3399 0000 80B4     		push	{r7}
 3400              	.LCFI114:
 3401              		.cfi_def_cfa_offset 4
 3402              		.cfi_offset 7, -4
 3403 0002 83B0     		sub	sp, sp, #12
 3404              	.LCFI115:
 3405              		.cfi_def_cfa_offset 16
 3406 0004 00AF     		add	r7, sp, #0
 3407              	.LCFI116:
 3408              		.cfi_def_cfa_register 7
 3409 0006 7860     		str	r0, [r7, #4]
1933:Drivers/STM32F7xx_HAL_Driver/Src/stm32f7xx_hal_qspi.c ****   /* Prevent unused argument(s) compilation warning */
1934:Drivers/STM32F7xx_HAL_Driver/Src/stm32f7xx_hal_qspi.c ****   UNUSED(hqspi);
1935:Drivers/STM32F7xx_HAL_Driver/Src/stm32f7xx_hal_qspi.c **** 
1936:Drivers/STM32F7xx_HAL_Driver/Src/stm32f7xx_hal_qspi.c ****   /* NOTE: This function should not be modified, when the callback is needed,
1937:Drivers/STM32F7xx_HAL_Driver/Src/stm32f7xx_hal_qspi.c ****            the HAL_QSPI_RxHalfCpltCallback could be implemented in the user file
1938:Drivers/STM32F7xx_HAL_Driver/Src/stm32f7xx_hal_qspi.c ****    */
1939:Drivers/STM32F7xx_HAL_Driver/Src/stm32f7xx_hal_qspi.c **** }
 3410              		.loc 1 1939 1
 3411 0008 00BF     		nop
 3412 000a 0C37     		adds	r7, r7, #12
 3413              	.LCFI117:
 3414              		.cfi_def_cfa_offset 4
 3415 000c BD46     		mov	sp, r7
 3416              	.LCFI118:
 3417              		.cfi_def_cfa_register 13
 3418              		@ sp needed
 3419 000e 5DF8047B 		ldr	r7, [sp], #4
 3420              	.LCFI119:
 3421              		.cfi_restore 7
 3422              		.cfi_def_cfa_offset 0
 3423 0012 7047     		bx	lr
 3424              		.cfi_endproc
 3425              	.LFE162:
 3427              		.section	.text.HAL_QSPI_TxHalfCpltCallback,"ax",%progbits
 3428              		.align	1
 3429              		.weak	HAL_QSPI_TxHalfCpltCallback
 3430              		.syntax unified
 3431              		.thumb
 3432              		.thumb_func
 3434              	HAL_QSPI_TxHalfCpltCallback:
 3435              	.LFB163:
1940:Drivers/STM32F7xx_HAL_Driver/Src/stm32f7xx_hal_qspi.c **** 
1941:Drivers/STM32F7xx_HAL_Driver/Src/stm32f7xx_hal_qspi.c **** /**
1942:Drivers/STM32F7xx_HAL_Driver/Src/stm32f7xx_hal_qspi.c ****   * @brief  Tx Half Transfer completed callback.
1943:Drivers/STM32F7xx_HAL_Driver/Src/stm32f7xx_hal_qspi.c ****   * @param  hqspi QSPI handle
1944:Drivers/STM32F7xx_HAL_Driver/Src/stm32f7xx_hal_qspi.c ****   * @retval None
1945:Drivers/STM32F7xx_HAL_Driver/Src/stm32f7xx_hal_qspi.c ****   */
1946:Drivers/STM32F7xx_HAL_Driver/Src/stm32f7xx_hal_qspi.c **** __weak void HAL_QSPI_TxHalfCpltCallback(QSPI_HandleTypeDef *hqspi)
1947:Drivers/STM32F7xx_HAL_Driver/Src/stm32f7xx_hal_qspi.c **** {
ARM GAS  C:\Users\jisu8\AppData\Local\Temp\ccA6Ygqq.s 			page 95


 3436              		.loc 1 1947 1
 3437              		.cfi_startproc
 3438              		@ args = 0, pretend = 0, frame = 8
 3439              		@ frame_needed = 1, uses_anonymous_args = 0
 3440              		@ link register save eliminated.
 3441 0000 80B4     		push	{r7}
 3442              	.LCFI120:
 3443              		.cfi_def_cfa_offset 4
 3444              		.cfi_offset 7, -4
 3445 0002 83B0     		sub	sp, sp, #12
 3446              	.LCFI121:
 3447              		.cfi_def_cfa_offset 16
 3448 0004 00AF     		add	r7, sp, #0
 3449              	.LCFI122:
 3450              		.cfi_def_cfa_register 7
 3451 0006 7860     		str	r0, [r7, #4]
1948:Drivers/STM32F7xx_HAL_Driver/Src/stm32f7xx_hal_qspi.c ****   /* Prevent unused argument(s) compilation warning */
1949:Drivers/STM32F7xx_HAL_Driver/Src/stm32f7xx_hal_qspi.c ****   UNUSED(hqspi);
1950:Drivers/STM32F7xx_HAL_Driver/Src/stm32f7xx_hal_qspi.c **** 
1951:Drivers/STM32F7xx_HAL_Driver/Src/stm32f7xx_hal_qspi.c ****   /* NOTE: This function should not be modified, when the callback is needed,
1952:Drivers/STM32F7xx_HAL_Driver/Src/stm32f7xx_hal_qspi.c ****            the HAL_QSPI_TxHalfCpltCallback could be implemented in the user file
1953:Drivers/STM32F7xx_HAL_Driver/Src/stm32f7xx_hal_qspi.c ****    */
1954:Drivers/STM32F7xx_HAL_Driver/Src/stm32f7xx_hal_qspi.c **** }
 3452              		.loc 1 1954 1
 3453 0008 00BF     		nop
 3454 000a 0C37     		adds	r7, r7, #12
 3455              	.LCFI123:
 3456              		.cfi_def_cfa_offset 4
 3457 000c BD46     		mov	sp, r7
 3458              	.LCFI124:
 3459              		.cfi_def_cfa_register 13
 3460              		@ sp needed
 3461 000e 5DF8047B 		ldr	r7, [sp], #4
 3462              	.LCFI125:
 3463              		.cfi_restore 7
 3464              		.cfi_def_cfa_offset 0
 3465 0012 7047     		bx	lr
 3466              		.cfi_endproc
 3467              	.LFE163:
 3469              		.section	.text.HAL_QSPI_FifoThresholdCallback,"ax",%progbits
 3470              		.align	1
 3471              		.weak	HAL_QSPI_FifoThresholdCallback
 3472              		.syntax unified
 3473              		.thumb
 3474              		.thumb_func
 3476              	HAL_QSPI_FifoThresholdCallback:
 3477              	.LFB164:
1955:Drivers/STM32F7xx_HAL_Driver/Src/stm32f7xx_hal_qspi.c **** 
1956:Drivers/STM32F7xx_HAL_Driver/Src/stm32f7xx_hal_qspi.c **** /**
1957:Drivers/STM32F7xx_HAL_Driver/Src/stm32f7xx_hal_qspi.c ****   * @brief  FIFO Threshold callback.
1958:Drivers/STM32F7xx_HAL_Driver/Src/stm32f7xx_hal_qspi.c ****   * @param  hqspi QSPI handle
1959:Drivers/STM32F7xx_HAL_Driver/Src/stm32f7xx_hal_qspi.c ****   * @retval None
1960:Drivers/STM32F7xx_HAL_Driver/Src/stm32f7xx_hal_qspi.c ****   */
1961:Drivers/STM32F7xx_HAL_Driver/Src/stm32f7xx_hal_qspi.c **** __weak void HAL_QSPI_FifoThresholdCallback(QSPI_HandleTypeDef *hqspi)
1962:Drivers/STM32F7xx_HAL_Driver/Src/stm32f7xx_hal_qspi.c **** {
 3478              		.loc 1 1962 1
 3479              		.cfi_startproc
ARM GAS  C:\Users\jisu8\AppData\Local\Temp\ccA6Ygqq.s 			page 96


 3480              		@ args = 0, pretend = 0, frame = 8
 3481              		@ frame_needed = 1, uses_anonymous_args = 0
 3482              		@ link register save eliminated.
 3483 0000 80B4     		push	{r7}
 3484              	.LCFI126:
 3485              		.cfi_def_cfa_offset 4
 3486              		.cfi_offset 7, -4
 3487 0002 83B0     		sub	sp, sp, #12
 3488              	.LCFI127:
 3489              		.cfi_def_cfa_offset 16
 3490 0004 00AF     		add	r7, sp, #0
 3491              	.LCFI128:
 3492              		.cfi_def_cfa_register 7
 3493 0006 7860     		str	r0, [r7, #4]
1963:Drivers/STM32F7xx_HAL_Driver/Src/stm32f7xx_hal_qspi.c ****   /* Prevent unused argument(s) compilation warning */
1964:Drivers/STM32F7xx_HAL_Driver/Src/stm32f7xx_hal_qspi.c ****   UNUSED(hqspi);
1965:Drivers/STM32F7xx_HAL_Driver/Src/stm32f7xx_hal_qspi.c **** 
1966:Drivers/STM32F7xx_HAL_Driver/Src/stm32f7xx_hal_qspi.c ****   /* NOTE : This function should not be modified, when the callback is needed,
1967:Drivers/STM32F7xx_HAL_Driver/Src/stm32f7xx_hal_qspi.c ****             the HAL_QSPI_FIFOThresholdCallback could be implemented in the user file
1968:Drivers/STM32F7xx_HAL_Driver/Src/stm32f7xx_hal_qspi.c ****    */
1969:Drivers/STM32F7xx_HAL_Driver/Src/stm32f7xx_hal_qspi.c **** }
 3494              		.loc 1 1969 1
 3495 0008 00BF     		nop
 3496 000a 0C37     		adds	r7, r7, #12
 3497              	.LCFI129:
 3498              		.cfi_def_cfa_offset 4
 3499 000c BD46     		mov	sp, r7
 3500              	.LCFI130:
 3501              		.cfi_def_cfa_register 13
 3502              		@ sp needed
 3503 000e 5DF8047B 		ldr	r7, [sp], #4
 3504              	.LCFI131:
 3505              		.cfi_restore 7
 3506              		.cfi_def_cfa_offset 0
 3507 0012 7047     		bx	lr
 3508              		.cfi_endproc
 3509              	.LFE164:
 3511              		.section	.text.HAL_QSPI_StatusMatchCallback,"ax",%progbits
 3512              		.align	1
 3513              		.weak	HAL_QSPI_StatusMatchCallback
 3514              		.syntax unified
 3515              		.thumb
 3516              		.thumb_func
 3518              	HAL_QSPI_StatusMatchCallback:
 3519              	.LFB165:
1970:Drivers/STM32F7xx_HAL_Driver/Src/stm32f7xx_hal_qspi.c **** 
1971:Drivers/STM32F7xx_HAL_Driver/Src/stm32f7xx_hal_qspi.c **** /**
1972:Drivers/STM32F7xx_HAL_Driver/Src/stm32f7xx_hal_qspi.c ****   * @brief  Status Match callback.
1973:Drivers/STM32F7xx_HAL_Driver/Src/stm32f7xx_hal_qspi.c ****   * @param  hqspi QSPI handle
1974:Drivers/STM32F7xx_HAL_Driver/Src/stm32f7xx_hal_qspi.c ****   * @retval None
1975:Drivers/STM32F7xx_HAL_Driver/Src/stm32f7xx_hal_qspi.c ****   */
1976:Drivers/STM32F7xx_HAL_Driver/Src/stm32f7xx_hal_qspi.c **** __weak void HAL_QSPI_StatusMatchCallback(QSPI_HandleTypeDef *hqspi)
1977:Drivers/STM32F7xx_HAL_Driver/Src/stm32f7xx_hal_qspi.c **** {
 3520              		.loc 1 1977 1
 3521              		.cfi_startproc
 3522              		@ args = 0, pretend = 0, frame = 8
 3523              		@ frame_needed = 1, uses_anonymous_args = 0
ARM GAS  C:\Users\jisu8\AppData\Local\Temp\ccA6Ygqq.s 			page 97


 3524              		@ link register save eliminated.
 3525 0000 80B4     		push	{r7}
 3526              	.LCFI132:
 3527              		.cfi_def_cfa_offset 4
 3528              		.cfi_offset 7, -4
 3529 0002 83B0     		sub	sp, sp, #12
 3530              	.LCFI133:
 3531              		.cfi_def_cfa_offset 16
 3532 0004 00AF     		add	r7, sp, #0
 3533              	.LCFI134:
 3534              		.cfi_def_cfa_register 7
 3535 0006 7860     		str	r0, [r7, #4]
1978:Drivers/STM32F7xx_HAL_Driver/Src/stm32f7xx_hal_qspi.c ****   /* Prevent unused argument(s) compilation warning */
1979:Drivers/STM32F7xx_HAL_Driver/Src/stm32f7xx_hal_qspi.c ****   UNUSED(hqspi);
1980:Drivers/STM32F7xx_HAL_Driver/Src/stm32f7xx_hal_qspi.c **** 
1981:Drivers/STM32F7xx_HAL_Driver/Src/stm32f7xx_hal_qspi.c ****   /* NOTE : This function should not be modified, when the callback is needed,
1982:Drivers/STM32F7xx_HAL_Driver/Src/stm32f7xx_hal_qspi.c ****             the HAL_QSPI_StatusMatchCallback could be implemented in the user file
1983:Drivers/STM32F7xx_HAL_Driver/Src/stm32f7xx_hal_qspi.c ****    */
1984:Drivers/STM32F7xx_HAL_Driver/Src/stm32f7xx_hal_qspi.c **** }
 3536              		.loc 1 1984 1
 3537 0008 00BF     		nop
 3538 000a 0C37     		adds	r7, r7, #12
 3539              	.LCFI135:
 3540              		.cfi_def_cfa_offset 4
 3541 000c BD46     		mov	sp, r7
 3542              	.LCFI136:
 3543              		.cfi_def_cfa_register 13
 3544              		@ sp needed
 3545 000e 5DF8047B 		ldr	r7, [sp], #4
 3546              	.LCFI137:
 3547              		.cfi_restore 7
 3548              		.cfi_def_cfa_offset 0
 3549 0012 7047     		bx	lr
 3550              		.cfi_endproc
 3551              	.LFE165:
 3553              		.section	.text.HAL_QSPI_TimeOutCallback,"ax",%progbits
 3554              		.align	1
 3555              		.weak	HAL_QSPI_TimeOutCallback
 3556              		.syntax unified
 3557              		.thumb
 3558              		.thumb_func
 3560              	HAL_QSPI_TimeOutCallback:
 3561              	.LFB166:
1985:Drivers/STM32F7xx_HAL_Driver/Src/stm32f7xx_hal_qspi.c **** 
1986:Drivers/STM32F7xx_HAL_Driver/Src/stm32f7xx_hal_qspi.c **** /**
1987:Drivers/STM32F7xx_HAL_Driver/Src/stm32f7xx_hal_qspi.c ****   * @brief  Timeout callback.
1988:Drivers/STM32F7xx_HAL_Driver/Src/stm32f7xx_hal_qspi.c ****   * @param  hqspi QSPI handle
1989:Drivers/STM32F7xx_HAL_Driver/Src/stm32f7xx_hal_qspi.c ****   * @retval None
1990:Drivers/STM32F7xx_HAL_Driver/Src/stm32f7xx_hal_qspi.c ****   */
1991:Drivers/STM32F7xx_HAL_Driver/Src/stm32f7xx_hal_qspi.c **** __weak void HAL_QSPI_TimeOutCallback(QSPI_HandleTypeDef *hqspi)
1992:Drivers/STM32F7xx_HAL_Driver/Src/stm32f7xx_hal_qspi.c **** {
 3562              		.loc 1 1992 1
 3563              		.cfi_startproc
 3564              		@ args = 0, pretend = 0, frame = 8
 3565              		@ frame_needed = 1, uses_anonymous_args = 0
 3566              		@ link register save eliminated.
 3567 0000 80B4     		push	{r7}
ARM GAS  C:\Users\jisu8\AppData\Local\Temp\ccA6Ygqq.s 			page 98


 3568              	.LCFI138:
 3569              		.cfi_def_cfa_offset 4
 3570              		.cfi_offset 7, -4
 3571 0002 83B0     		sub	sp, sp, #12
 3572              	.LCFI139:
 3573              		.cfi_def_cfa_offset 16
 3574 0004 00AF     		add	r7, sp, #0
 3575              	.LCFI140:
 3576              		.cfi_def_cfa_register 7
 3577 0006 7860     		str	r0, [r7, #4]
1993:Drivers/STM32F7xx_HAL_Driver/Src/stm32f7xx_hal_qspi.c ****   /* Prevent unused argument(s) compilation warning */
1994:Drivers/STM32F7xx_HAL_Driver/Src/stm32f7xx_hal_qspi.c ****   UNUSED(hqspi);
1995:Drivers/STM32F7xx_HAL_Driver/Src/stm32f7xx_hal_qspi.c **** 
1996:Drivers/STM32F7xx_HAL_Driver/Src/stm32f7xx_hal_qspi.c ****   /* NOTE : This function should not be modified, when the callback is needed,
1997:Drivers/STM32F7xx_HAL_Driver/Src/stm32f7xx_hal_qspi.c ****             the HAL_QSPI_TimeOutCallback could be implemented in the user file
1998:Drivers/STM32F7xx_HAL_Driver/Src/stm32f7xx_hal_qspi.c ****    */
1999:Drivers/STM32F7xx_HAL_Driver/Src/stm32f7xx_hal_qspi.c **** }
 3578              		.loc 1 1999 1
 3579 0008 00BF     		nop
 3580 000a 0C37     		adds	r7, r7, #12
 3581              	.LCFI141:
 3582              		.cfi_def_cfa_offset 4
 3583 000c BD46     		mov	sp, r7
 3584              	.LCFI142:
 3585              		.cfi_def_cfa_register 13
 3586              		@ sp needed
 3587 000e 5DF8047B 		ldr	r7, [sp], #4
 3588              	.LCFI143:
 3589              		.cfi_restore 7
 3590              		.cfi_def_cfa_offset 0
 3591 0012 7047     		bx	lr
 3592              		.cfi_endproc
 3593              	.LFE166:
 3595              		.section	.text.HAL_QSPI_GetState,"ax",%progbits
 3596              		.align	1
 3597              		.global	HAL_QSPI_GetState
 3598              		.syntax unified
 3599              		.thumb
 3600              		.thumb_func
 3602              	HAL_QSPI_GetState:
 3603              	.LFB167:
2000:Drivers/STM32F7xx_HAL_Driver/Src/stm32f7xx_hal_qspi.c **** #if (USE_HAL_QSPI_REGISTER_CALLBACKS == 1)
2001:Drivers/STM32F7xx_HAL_Driver/Src/stm32f7xx_hal_qspi.c **** /**
2002:Drivers/STM32F7xx_HAL_Driver/Src/stm32f7xx_hal_qspi.c ****   * @brief  Register a User QSPI Callback
2003:Drivers/STM32F7xx_HAL_Driver/Src/stm32f7xx_hal_qspi.c ****   *         To be used instead of the weak (surcharged) predefined callback
2004:Drivers/STM32F7xx_HAL_Driver/Src/stm32f7xx_hal_qspi.c ****   * @param hqspi QSPI handle
2005:Drivers/STM32F7xx_HAL_Driver/Src/stm32f7xx_hal_qspi.c ****   * @param CallbackId ID of the callback to be registered
2006:Drivers/STM32F7xx_HAL_Driver/Src/stm32f7xx_hal_qspi.c ****   *        This parameter can be one of the following values:
2007:Drivers/STM32F7xx_HAL_Driver/Src/stm32f7xx_hal_qspi.c ****   *          @arg @ref HAL_QSPI_ERROR_CB_ID          QSPI Error Callback ID
2008:Drivers/STM32F7xx_HAL_Driver/Src/stm32f7xx_hal_qspi.c ****   *          @arg @ref HAL_QSPI_ABORT_CB_ID          QSPI Abort Callback ID
2009:Drivers/STM32F7xx_HAL_Driver/Src/stm32f7xx_hal_qspi.c ****   *          @arg @ref HAL_QSPI_FIFO_THRESHOLD_CB_ID QSPI FIFO Threshold Callback ID
2010:Drivers/STM32F7xx_HAL_Driver/Src/stm32f7xx_hal_qspi.c ****   *          @arg @ref HAL_QSPI_CMD_CPLT_CB_ID       QSPI Command Complete Callback ID
2011:Drivers/STM32F7xx_HAL_Driver/Src/stm32f7xx_hal_qspi.c ****   *          @arg @ref HAL_QSPI_RX_CPLT_CB_ID        QSPI Rx Complete Callback ID
2012:Drivers/STM32F7xx_HAL_Driver/Src/stm32f7xx_hal_qspi.c ****   *          @arg @ref HAL_QSPI_TX_CPLT_CB_ID        QSPI Tx Complete Callback ID
2013:Drivers/STM32F7xx_HAL_Driver/Src/stm32f7xx_hal_qspi.c ****   *          @arg @ref HAL_QSPI_RX_HALF_CPLT_CB_ID   QSPI Rx Half Complete Callback ID
2014:Drivers/STM32F7xx_HAL_Driver/Src/stm32f7xx_hal_qspi.c ****   *          @arg @ref HAL_QSPI_TX_HALF_CPLT_CB_ID   QSPI Tx Half Complete Callback ID
2015:Drivers/STM32F7xx_HAL_Driver/Src/stm32f7xx_hal_qspi.c ****   *          @arg @ref HAL_QSPI_STATUS_MATCH_CB_ID   QSPI Status Match Callback ID
ARM GAS  C:\Users\jisu8\AppData\Local\Temp\ccA6Ygqq.s 			page 99


2016:Drivers/STM32F7xx_HAL_Driver/Src/stm32f7xx_hal_qspi.c ****   *          @arg @ref HAL_QSPI_TIMEOUT_CB_ID        QSPI Timeout Callback ID
2017:Drivers/STM32F7xx_HAL_Driver/Src/stm32f7xx_hal_qspi.c ****   *          @arg @ref HAL_QSPI_MSP_INIT_CB_ID       QSPI MspInit callback ID
2018:Drivers/STM32F7xx_HAL_Driver/Src/stm32f7xx_hal_qspi.c ****   *          @arg @ref HAL_QSPI_MSP_DEINIT_CB_ID     QSPI MspDeInit callback ID
2019:Drivers/STM32F7xx_HAL_Driver/Src/stm32f7xx_hal_qspi.c ****   * @param pCallback pointer to the Callback function
2020:Drivers/STM32F7xx_HAL_Driver/Src/stm32f7xx_hal_qspi.c ****   * @retval status
2021:Drivers/STM32F7xx_HAL_Driver/Src/stm32f7xx_hal_qspi.c ****   */
2022:Drivers/STM32F7xx_HAL_Driver/Src/stm32f7xx_hal_qspi.c **** HAL_StatusTypeDef HAL_QSPI_RegisterCallback (QSPI_HandleTypeDef *hqspi, HAL_QSPI_CallbackIDTypeDef 
2023:Drivers/STM32F7xx_HAL_Driver/Src/stm32f7xx_hal_qspi.c **** {
2024:Drivers/STM32F7xx_HAL_Driver/Src/stm32f7xx_hal_qspi.c ****   HAL_StatusTypeDef status = HAL_OK;
2025:Drivers/STM32F7xx_HAL_Driver/Src/stm32f7xx_hal_qspi.c **** 
2026:Drivers/STM32F7xx_HAL_Driver/Src/stm32f7xx_hal_qspi.c ****   if(pCallback == NULL)
2027:Drivers/STM32F7xx_HAL_Driver/Src/stm32f7xx_hal_qspi.c ****   {
2028:Drivers/STM32F7xx_HAL_Driver/Src/stm32f7xx_hal_qspi.c ****     /* Update the error code */
2029:Drivers/STM32F7xx_HAL_Driver/Src/stm32f7xx_hal_qspi.c ****     hqspi->ErrorCode |= HAL_QSPI_ERROR_INVALID_CALLBACK;
2030:Drivers/STM32F7xx_HAL_Driver/Src/stm32f7xx_hal_qspi.c ****     return HAL_ERROR;
2031:Drivers/STM32F7xx_HAL_Driver/Src/stm32f7xx_hal_qspi.c ****   }
2032:Drivers/STM32F7xx_HAL_Driver/Src/stm32f7xx_hal_qspi.c **** 
2033:Drivers/STM32F7xx_HAL_Driver/Src/stm32f7xx_hal_qspi.c ****   /* Process locked */
2034:Drivers/STM32F7xx_HAL_Driver/Src/stm32f7xx_hal_qspi.c ****   __HAL_LOCK(hqspi);
2035:Drivers/STM32F7xx_HAL_Driver/Src/stm32f7xx_hal_qspi.c **** 
2036:Drivers/STM32F7xx_HAL_Driver/Src/stm32f7xx_hal_qspi.c ****   if(hqspi->State == HAL_QSPI_STATE_READY)
2037:Drivers/STM32F7xx_HAL_Driver/Src/stm32f7xx_hal_qspi.c ****   {
2038:Drivers/STM32F7xx_HAL_Driver/Src/stm32f7xx_hal_qspi.c ****     switch (CallbackId)
2039:Drivers/STM32F7xx_HAL_Driver/Src/stm32f7xx_hal_qspi.c ****     {
2040:Drivers/STM32F7xx_HAL_Driver/Src/stm32f7xx_hal_qspi.c ****     case  HAL_QSPI_ERROR_CB_ID :
2041:Drivers/STM32F7xx_HAL_Driver/Src/stm32f7xx_hal_qspi.c ****       hqspi->ErrorCallback = pCallback;
2042:Drivers/STM32F7xx_HAL_Driver/Src/stm32f7xx_hal_qspi.c ****       break;
2043:Drivers/STM32F7xx_HAL_Driver/Src/stm32f7xx_hal_qspi.c ****     case HAL_QSPI_ABORT_CB_ID :
2044:Drivers/STM32F7xx_HAL_Driver/Src/stm32f7xx_hal_qspi.c ****       hqspi->AbortCpltCallback = pCallback;
2045:Drivers/STM32F7xx_HAL_Driver/Src/stm32f7xx_hal_qspi.c ****       break;
2046:Drivers/STM32F7xx_HAL_Driver/Src/stm32f7xx_hal_qspi.c ****     case HAL_QSPI_FIFO_THRESHOLD_CB_ID :
2047:Drivers/STM32F7xx_HAL_Driver/Src/stm32f7xx_hal_qspi.c ****       hqspi->FifoThresholdCallback = pCallback;
2048:Drivers/STM32F7xx_HAL_Driver/Src/stm32f7xx_hal_qspi.c ****       break;
2049:Drivers/STM32F7xx_HAL_Driver/Src/stm32f7xx_hal_qspi.c ****     case HAL_QSPI_CMD_CPLT_CB_ID :
2050:Drivers/STM32F7xx_HAL_Driver/Src/stm32f7xx_hal_qspi.c ****       hqspi->CmdCpltCallback = pCallback;
2051:Drivers/STM32F7xx_HAL_Driver/Src/stm32f7xx_hal_qspi.c ****       break;
2052:Drivers/STM32F7xx_HAL_Driver/Src/stm32f7xx_hal_qspi.c ****     case HAL_QSPI_RX_CPLT_CB_ID :
2053:Drivers/STM32F7xx_HAL_Driver/Src/stm32f7xx_hal_qspi.c ****       hqspi->RxCpltCallback = pCallback;
2054:Drivers/STM32F7xx_HAL_Driver/Src/stm32f7xx_hal_qspi.c ****       break;
2055:Drivers/STM32F7xx_HAL_Driver/Src/stm32f7xx_hal_qspi.c ****     case HAL_QSPI_TX_CPLT_CB_ID :
2056:Drivers/STM32F7xx_HAL_Driver/Src/stm32f7xx_hal_qspi.c ****       hqspi->TxCpltCallback = pCallback;
2057:Drivers/STM32F7xx_HAL_Driver/Src/stm32f7xx_hal_qspi.c ****       break;
2058:Drivers/STM32F7xx_HAL_Driver/Src/stm32f7xx_hal_qspi.c ****     case HAL_QSPI_RX_HALF_CPLT_CB_ID :
2059:Drivers/STM32F7xx_HAL_Driver/Src/stm32f7xx_hal_qspi.c ****       hqspi->RxHalfCpltCallback = pCallback;
2060:Drivers/STM32F7xx_HAL_Driver/Src/stm32f7xx_hal_qspi.c ****       break;
2061:Drivers/STM32F7xx_HAL_Driver/Src/stm32f7xx_hal_qspi.c ****     case HAL_QSPI_TX_HALF_CPLT_CB_ID :
2062:Drivers/STM32F7xx_HAL_Driver/Src/stm32f7xx_hal_qspi.c ****       hqspi->TxHalfCpltCallback = pCallback;
2063:Drivers/STM32F7xx_HAL_Driver/Src/stm32f7xx_hal_qspi.c ****       break;
2064:Drivers/STM32F7xx_HAL_Driver/Src/stm32f7xx_hal_qspi.c ****     case HAL_QSPI_STATUS_MATCH_CB_ID :
2065:Drivers/STM32F7xx_HAL_Driver/Src/stm32f7xx_hal_qspi.c ****       hqspi->StatusMatchCallback = pCallback;
2066:Drivers/STM32F7xx_HAL_Driver/Src/stm32f7xx_hal_qspi.c ****       break;
2067:Drivers/STM32F7xx_HAL_Driver/Src/stm32f7xx_hal_qspi.c ****     case HAL_QSPI_TIMEOUT_CB_ID :
2068:Drivers/STM32F7xx_HAL_Driver/Src/stm32f7xx_hal_qspi.c ****       hqspi->TimeOutCallback = pCallback;
2069:Drivers/STM32F7xx_HAL_Driver/Src/stm32f7xx_hal_qspi.c ****       break;
2070:Drivers/STM32F7xx_HAL_Driver/Src/stm32f7xx_hal_qspi.c ****     case HAL_QSPI_MSP_INIT_CB_ID :
2071:Drivers/STM32F7xx_HAL_Driver/Src/stm32f7xx_hal_qspi.c ****       hqspi->MspInitCallback = pCallback;
2072:Drivers/STM32F7xx_HAL_Driver/Src/stm32f7xx_hal_qspi.c ****       break;
ARM GAS  C:\Users\jisu8\AppData\Local\Temp\ccA6Ygqq.s 			page 100


2073:Drivers/STM32F7xx_HAL_Driver/Src/stm32f7xx_hal_qspi.c ****     case HAL_QSPI_MSP_DEINIT_CB_ID :
2074:Drivers/STM32F7xx_HAL_Driver/Src/stm32f7xx_hal_qspi.c ****       hqspi->MspDeInitCallback = pCallback;
2075:Drivers/STM32F7xx_HAL_Driver/Src/stm32f7xx_hal_qspi.c ****       break;
2076:Drivers/STM32F7xx_HAL_Driver/Src/stm32f7xx_hal_qspi.c ****     default :
2077:Drivers/STM32F7xx_HAL_Driver/Src/stm32f7xx_hal_qspi.c ****       /* Update the error code */
2078:Drivers/STM32F7xx_HAL_Driver/Src/stm32f7xx_hal_qspi.c ****       hqspi->ErrorCode |= HAL_QSPI_ERROR_INVALID_CALLBACK;
2079:Drivers/STM32F7xx_HAL_Driver/Src/stm32f7xx_hal_qspi.c ****       /* update return status */
2080:Drivers/STM32F7xx_HAL_Driver/Src/stm32f7xx_hal_qspi.c ****       status =  HAL_ERROR;
2081:Drivers/STM32F7xx_HAL_Driver/Src/stm32f7xx_hal_qspi.c ****       break;
2082:Drivers/STM32F7xx_HAL_Driver/Src/stm32f7xx_hal_qspi.c ****     }
2083:Drivers/STM32F7xx_HAL_Driver/Src/stm32f7xx_hal_qspi.c ****   }
2084:Drivers/STM32F7xx_HAL_Driver/Src/stm32f7xx_hal_qspi.c ****   else if (hqspi->State == HAL_QSPI_STATE_RESET)
2085:Drivers/STM32F7xx_HAL_Driver/Src/stm32f7xx_hal_qspi.c ****   {
2086:Drivers/STM32F7xx_HAL_Driver/Src/stm32f7xx_hal_qspi.c ****     switch (CallbackId)
2087:Drivers/STM32F7xx_HAL_Driver/Src/stm32f7xx_hal_qspi.c ****     {
2088:Drivers/STM32F7xx_HAL_Driver/Src/stm32f7xx_hal_qspi.c ****     case HAL_QSPI_MSP_INIT_CB_ID :
2089:Drivers/STM32F7xx_HAL_Driver/Src/stm32f7xx_hal_qspi.c ****       hqspi->MspInitCallback = pCallback;
2090:Drivers/STM32F7xx_HAL_Driver/Src/stm32f7xx_hal_qspi.c ****       break;
2091:Drivers/STM32F7xx_HAL_Driver/Src/stm32f7xx_hal_qspi.c ****     case HAL_QSPI_MSP_DEINIT_CB_ID :
2092:Drivers/STM32F7xx_HAL_Driver/Src/stm32f7xx_hal_qspi.c ****       hqspi->MspDeInitCallback = pCallback;
2093:Drivers/STM32F7xx_HAL_Driver/Src/stm32f7xx_hal_qspi.c ****       break;
2094:Drivers/STM32F7xx_HAL_Driver/Src/stm32f7xx_hal_qspi.c ****     default :
2095:Drivers/STM32F7xx_HAL_Driver/Src/stm32f7xx_hal_qspi.c ****       /* Update the error code */
2096:Drivers/STM32F7xx_HAL_Driver/Src/stm32f7xx_hal_qspi.c ****       hqspi->ErrorCode |= HAL_QSPI_ERROR_INVALID_CALLBACK;
2097:Drivers/STM32F7xx_HAL_Driver/Src/stm32f7xx_hal_qspi.c ****       /* update return status */
2098:Drivers/STM32F7xx_HAL_Driver/Src/stm32f7xx_hal_qspi.c ****       status =  HAL_ERROR;
2099:Drivers/STM32F7xx_HAL_Driver/Src/stm32f7xx_hal_qspi.c ****       break;
2100:Drivers/STM32F7xx_HAL_Driver/Src/stm32f7xx_hal_qspi.c ****     }
2101:Drivers/STM32F7xx_HAL_Driver/Src/stm32f7xx_hal_qspi.c ****   }
2102:Drivers/STM32F7xx_HAL_Driver/Src/stm32f7xx_hal_qspi.c ****   else
2103:Drivers/STM32F7xx_HAL_Driver/Src/stm32f7xx_hal_qspi.c ****   {
2104:Drivers/STM32F7xx_HAL_Driver/Src/stm32f7xx_hal_qspi.c ****     /* Update the error code */
2105:Drivers/STM32F7xx_HAL_Driver/Src/stm32f7xx_hal_qspi.c ****     hqspi->ErrorCode |= HAL_QSPI_ERROR_INVALID_CALLBACK;
2106:Drivers/STM32F7xx_HAL_Driver/Src/stm32f7xx_hal_qspi.c ****     /* update return status */
2107:Drivers/STM32F7xx_HAL_Driver/Src/stm32f7xx_hal_qspi.c ****     status =  HAL_ERROR;
2108:Drivers/STM32F7xx_HAL_Driver/Src/stm32f7xx_hal_qspi.c ****   }
2109:Drivers/STM32F7xx_HAL_Driver/Src/stm32f7xx_hal_qspi.c **** 
2110:Drivers/STM32F7xx_HAL_Driver/Src/stm32f7xx_hal_qspi.c ****   /* Release Lock */
2111:Drivers/STM32F7xx_HAL_Driver/Src/stm32f7xx_hal_qspi.c ****   __HAL_UNLOCK(hqspi);
2112:Drivers/STM32F7xx_HAL_Driver/Src/stm32f7xx_hal_qspi.c ****   return status;
2113:Drivers/STM32F7xx_HAL_Driver/Src/stm32f7xx_hal_qspi.c **** }
2114:Drivers/STM32F7xx_HAL_Driver/Src/stm32f7xx_hal_qspi.c **** 
2115:Drivers/STM32F7xx_HAL_Driver/Src/stm32f7xx_hal_qspi.c **** /**
2116:Drivers/STM32F7xx_HAL_Driver/Src/stm32f7xx_hal_qspi.c ****   * @brief  Unregister a User QSPI Callback
2117:Drivers/STM32F7xx_HAL_Driver/Src/stm32f7xx_hal_qspi.c ****   *         QSPI Callback is redirected to the weak (surcharged) predefined callback
2118:Drivers/STM32F7xx_HAL_Driver/Src/stm32f7xx_hal_qspi.c ****   * @param hqspi QSPI handle
2119:Drivers/STM32F7xx_HAL_Driver/Src/stm32f7xx_hal_qspi.c ****   * @param CallbackId ID of the callback to be unregistered
2120:Drivers/STM32F7xx_HAL_Driver/Src/stm32f7xx_hal_qspi.c ****   *        This parameter can be one of the following values:
2121:Drivers/STM32F7xx_HAL_Driver/Src/stm32f7xx_hal_qspi.c ****   *          @arg @ref HAL_QSPI_ERROR_CB_ID          QSPI Error Callback ID
2122:Drivers/STM32F7xx_HAL_Driver/Src/stm32f7xx_hal_qspi.c ****   *          @arg @ref HAL_QSPI_ABORT_CB_ID          QSPI Abort Callback ID
2123:Drivers/STM32F7xx_HAL_Driver/Src/stm32f7xx_hal_qspi.c ****   *          @arg @ref HAL_QSPI_FIFO_THRESHOLD_CB_ID QSPI FIFO Threshold Callback ID
2124:Drivers/STM32F7xx_HAL_Driver/Src/stm32f7xx_hal_qspi.c ****   *          @arg @ref HAL_QSPI_CMD_CPLT_CB_ID       QSPI Command Complete Callback ID
2125:Drivers/STM32F7xx_HAL_Driver/Src/stm32f7xx_hal_qspi.c ****   *          @arg @ref HAL_QSPI_RX_CPLT_CB_ID        QSPI Rx Complete Callback ID
2126:Drivers/STM32F7xx_HAL_Driver/Src/stm32f7xx_hal_qspi.c ****   *          @arg @ref HAL_QSPI_TX_CPLT_CB_ID        QSPI Tx Complete Callback ID
2127:Drivers/STM32F7xx_HAL_Driver/Src/stm32f7xx_hal_qspi.c ****   *          @arg @ref HAL_QSPI_RX_HALF_CPLT_CB_ID   QSPI Rx Half Complete Callback ID
2128:Drivers/STM32F7xx_HAL_Driver/Src/stm32f7xx_hal_qspi.c ****   *          @arg @ref HAL_QSPI_TX_HALF_CPLT_CB_ID   QSPI Tx Half Complete Callback ID
2129:Drivers/STM32F7xx_HAL_Driver/Src/stm32f7xx_hal_qspi.c ****   *          @arg @ref HAL_QSPI_STATUS_MATCH_CB_ID   QSPI Status Match Callback ID
ARM GAS  C:\Users\jisu8\AppData\Local\Temp\ccA6Ygqq.s 			page 101


2130:Drivers/STM32F7xx_HAL_Driver/Src/stm32f7xx_hal_qspi.c ****   *          @arg @ref HAL_QSPI_TIMEOUT_CB_ID        QSPI Timeout Callback ID
2131:Drivers/STM32F7xx_HAL_Driver/Src/stm32f7xx_hal_qspi.c ****   *          @arg @ref HAL_QSPI_MSP_INIT_CB_ID       QSPI MspInit callback ID
2132:Drivers/STM32F7xx_HAL_Driver/Src/stm32f7xx_hal_qspi.c ****   *          @arg @ref HAL_QSPI_MSP_DEINIT_CB_ID     QSPI MspDeInit callback ID
2133:Drivers/STM32F7xx_HAL_Driver/Src/stm32f7xx_hal_qspi.c ****   * @retval status
2134:Drivers/STM32F7xx_HAL_Driver/Src/stm32f7xx_hal_qspi.c ****   */
2135:Drivers/STM32F7xx_HAL_Driver/Src/stm32f7xx_hal_qspi.c **** HAL_StatusTypeDef HAL_QSPI_UnRegisterCallback (QSPI_HandleTypeDef *hqspi, HAL_QSPI_CallbackIDTypeDe
2136:Drivers/STM32F7xx_HAL_Driver/Src/stm32f7xx_hal_qspi.c **** {
2137:Drivers/STM32F7xx_HAL_Driver/Src/stm32f7xx_hal_qspi.c ****   HAL_StatusTypeDef status = HAL_OK;
2138:Drivers/STM32F7xx_HAL_Driver/Src/stm32f7xx_hal_qspi.c **** 
2139:Drivers/STM32F7xx_HAL_Driver/Src/stm32f7xx_hal_qspi.c ****   /* Process locked */
2140:Drivers/STM32F7xx_HAL_Driver/Src/stm32f7xx_hal_qspi.c ****   __HAL_LOCK(hqspi);
2141:Drivers/STM32F7xx_HAL_Driver/Src/stm32f7xx_hal_qspi.c **** 
2142:Drivers/STM32F7xx_HAL_Driver/Src/stm32f7xx_hal_qspi.c ****   if(hqspi->State == HAL_QSPI_STATE_READY)
2143:Drivers/STM32F7xx_HAL_Driver/Src/stm32f7xx_hal_qspi.c ****   {
2144:Drivers/STM32F7xx_HAL_Driver/Src/stm32f7xx_hal_qspi.c ****     switch (CallbackId)
2145:Drivers/STM32F7xx_HAL_Driver/Src/stm32f7xx_hal_qspi.c ****     {
2146:Drivers/STM32F7xx_HAL_Driver/Src/stm32f7xx_hal_qspi.c ****     case  HAL_QSPI_ERROR_CB_ID :
2147:Drivers/STM32F7xx_HAL_Driver/Src/stm32f7xx_hal_qspi.c ****       hqspi->ErrorCallback = HAL_QSPI_ErrorCallback;
2148:Drivers/STM32F7xx_HAL_Driver/Src/stm32f7xx_hal_qspi.c ****       break;
2149:Drivers/STM32F7xx_HAL_Driver/Src/stm32f7xx_hal_qspi.c ****     case HAL_QSPI_ABORT_CB_ID :
2150:Drivers/STM32F7xx_HAL_Driver/Src/stm32f7xx_hal_qspi.c ****       hqspi->AbortCpltCallback = HAL_QSPI_AbortCpltCallback;
2151:Drivers/STM32F7xx_HAL_Driver/Src/stm32f7xx_hal_qspi.c ****       break;
2152:Drivers/STM32F7xx_HAL_Driver/Src/stm32f7xx_hal_qspi.c ****     case HAL_QSPI_FIFO_THRESHOLD_CB_ID :
2153:Drivers/STM32F7xx_HAL_Driver/Src/stm32f7xx_hal_qspi.c ****       hqspi->FifoThresholdCallback = HAL_QSPI_FifoThresholdCallback;
2154:Drivers/STM32F7xx_HAL_Driver/Src/stm32f7xx_hal_qspi.c ****       break;
2155:Drivers/STM32F7xx_HAL_Driver/Src/stm32f7xx_hal_qspi.c ****     case HAL_QSPI_CMD_CPLT_CB_ID :
2156:Drivers/STM32F7xx_HAL_Driver/Src/stm32f7xx_hal_qspi.c ****       hqspi->CmdCpltCallback = HAL_QSPI_CmdCpltCallback;
2157:Drivers/STM32F7xx_HAL_Driver/Src/stm32f7xx_hal_qspi.c ****       break;
2158:Drivers/STM32F7xx_HAL_Driver/Src/stm32f7xx_hal_qspi.c ****     case HAL_QSPI_RX_CPLT_CB_ID :
2159:Drivers/STM32F7xx_HAL_Driver/Src/stm32f7xx_hal_qspi.c ****       hqspi->RxCpltCallback = HAL_QSPI_RxCpltCallback;
2160:Drivers/STM32F7xx_HAL_Driver/Src/stm32f7xx_hal_qspi.c ****       break;
2161:Drivers/STM32F7xx_HAL_Driver/Src/stm32f7xx_hal_qspi.c ****     case HAL_QSPI_TX_CPLT_CB_ID :
2162:Drivers/STM32F7xx_HAL_Driver/Src/stm32f7xx_hal_qspi.c ****       hqspi->TxCpltCallback = HAL_QSPI_TxCpltCallback;
2163:Drivers/STM32F7xx_HAL_Driver/Src/stm32f7xx_hal_qspi.c ****       break;
2164:Drivers/STM32F7xx_HAL_Driver/Src/stm32f7xx_hal_qspi.c ****     case HAL_QSPI_RX_HALF_CPLT_CB_ID :
2165:Drivers/STM32F7xx_HAL_Driver/Src/stm32f7xx_hal_qspi.c ****       hqspi->RxHalfCpltCallback = HAL_QSPI_RxHalfCpltCallback;
2166:Drivers/STM32F7xx_HAL_Driver/Src/stm32f7xx_hal_qspi.c ****       break;
2167:Drivers/STM32F7xx_HAL_Driver/Src/stm32f7xx_hal_qspi.c ****     case HAL_QSPI_TX_HALF_CPLT_CB_ID :
2168:Drivers/STM32F7xx_HAL_Driver/Src/stm32f7xx_hal_qspi.c ****       hqspi->TxHalfCpltCallback = HAL_QSPI_TxHalfCpltCallback;
2169:Drivers/STM32F7xx_HAL_Driver/Src/stm32f7xx_hal_qspi.c ****       break;
2170:Drivers/STM32F7xx_HAL_Driver/Src/stm32f7xx_hal_qspi.c ****     case HAL_QSPI_STATUS_MATCH_CB_ID :
2171:Drivers/STM32F7xx_HAL_Driver/Src/stm32f7xx_hal_qspi.c ****       hqspi->StatusMatchCallback = HAL_QSPI_StatusMatchCallback;
2172:Drivers/STM32F7xx_HAL_Driver/Src/stm32f7xx_hal_qspi.c ****       break;
2173:Drivers/STM32F7xx_HAL_Driver/Src/stm32f7xx_hal_qspi.c ****     case HAL_QSPI_TIMEOUT_CB_ID :
2174:Drivers/STM32F7xx_HAL_Driver/Src/stm32f7xx_hal_qspi.c ****       hqspi->TimeOutCallback = HAL_QSPI_TimeOutCallback;
2175:Drivers/STM32F7xx_HAL_Driver/Src/stm32f7xx_hal_qspi.c ****       break;
2176:Drivers/STM32F7xx_HAL_Driver/Src/stm32f7xx_hal_qspi.c ****     case HAL_QSPI_MSP_INIT_CB_ID :
2177:Drivers/STM32F7xx_HAL_Driver/Src/stm32f7xx_hal_qspi.c ****       hqspi->MspInitCallback = HAL_QSPI_MspInit;
2178:Drivers/STM32F7xx_HAL_Driver/Src/stm32f7xx_hal_qspi.c ****       break;
2179:Drivers/STM32F7xx_HAL_Driver/Src/stm32f7xx_hal_qspi.c ****     case HAL_QSPI_MSP_DEINIT_CB_ID :
2180:Drivers/STM32F7xx_HAL_Driver/Src/stm32f7xx_hal_qspi.c ****       hqspi->MspDeInitCallback = HAL_QSPI_MspDeInit;
2181:Drivers/STM32F7xx_HAL_Driver/Src/stm32f7xx_hal_qspi.c ****       break;
2182:Drivers/STM32F7xx_HAL_Driver/Src/stm32f7xx_hal_qspi.c ****     default :
2183:Drivers/STM32F7xx_HAL_Driver/Src/stm32f7xx_hal_qspi.c ****       /* Update the error code */
2184:Drivers/STM32F7xx_HAL_Driver/Src/stm32f7xx_hal_qspi.c ****       hqspi->ErrorCode |= HAL_QSPI_ERROR_INVALID_CALLBACK;
2185:Drivers/STM32F7xx_HAL_Driver/Src/stm32f7xx_hal_qspi.c ****       /* update return status */
2186:Drivers/STM32F7xx_HAL_Driver/Src/stm32f7xx_hal_qspi.c ****       status =  HAL_ERROR;
ARM GAS  C:\Users\jisu8\AppData\Local\Temp\ccA6Ygqq.s 			page 102


2187:Drivers/STM32F7xx_HAL_Driver/Src/stm32f7xx_hal_qspi.c ****       break;
2188:Drivers/STM32F7xx_HAL_Driver/Src/stm32f7xx_hal_qspi.c ****     }
2189:Drivers/STM32F7xx_HAL_Driver/Src/stm32f7xx_hal_qspi.c ****   }
2190:Drivers/STM32F7xx_HAL_Driver/Src/stm32f7xx_hal_qspi.c ****   else if (hqspi->State == HAL_QSPI_STATE_RESET)
2191:Drivers/STM32F7xx_HAL_Driver/Src/stm32f7xx_hal_qspi.c ****   {
2192:Drivers/STM32F7xx_HAL_Driver/Src/stm32f7xx_hal_qspi.c ****     switch (CallbackId)
2193:Drivers/STM32F7xx_HAL_Driver/Src/stm32f7xx_hal_qspi.c ****     {
2194:Drivers/STM32F7xx_HAL_Driver/Src/stm32f7xx_hal_qspi.c ****     case HAL_QSPI_MSP_INIT_CB_ID :
2195:Drivers/STM32F7xx_HAL_Driver/Src/stm32f7xx_hal_qspi.c ****       hqspi->MspInitCallback = HAL_QSPI_MspInit;
2196:Drivers/STM32F7xx_HAL_Driver/Src/stm32f7xx_hal_qspi.c ****       break;
2197:Drivers/STM32F7xx_HAL_Driver/Src/stm32f7xx_hal_qspi.c ****     case HAL_QSPI_MSP_DEINIT_CB_ID :
2198:Drivers/STM32F7xx_HAL_Driver/Src/stm32f7xx_hal_qspi.c ****       hqspi->MspDeInitCallback = HAL_QSPI_MspDeInit;
2199:Drivers/STM32F7xx_HAL_Driver/Src/stm32f7xx_hal_qspi.c ****       break;
2200:Drivers/STM32F7xx_HAL_Driver/Src/stm32f7xx_hal_qspi.c ****     default :
2201:Drivers/STM32F7xx_HAL_Driver/Src/stm32f7xx_hal_qspi.c ****       /* Update the error code */
2202:Drivers/STM32F7xx_HAL_Driver/Src/stm32f7xx_hal_qspi.c ****       hqspi->ErrorCode |= HAL_QSPI_ERROR_INVALID_CALLBACK;
2203:Drivers/STM32F7xx_HAL_Driver/Src/stm32f7xx_hal_qspi.c ****       /* update return status */
2204:Drivers/STM32F7xx_HAL_Driver/Src/stm32f7xx_hal_qspi.c ****       status =  HAL_ERROR;
2205:Drivers/STM32F7xx_HAL_Driver/Src/stm32f7xx_hal_qspi.c ****       break;
2206:Drivers/STM32F7xx_HAL_Driver/Src/stm32f7xx_hal_qspi.c ****     }
2207:Drivers/STM32F7xx_HAL_Driver/Src/stm32f7xx_hal_qspi.c ****   }
2208:Drivers/STM32F7xx_HAL_Driver/Src/stm32f7xx_hal_qspi.c ****   else
2209:Drivers/STM32F7xx_HAL_Driver/Src/stm32f7xx_hal_qspi.c ****   {
2210:Drivers/STM32F7xx_HAL_Driver/Src/stm32f7xx_hal_qspi.c ****     /* Update the error code */
2211:Drivers/STM32F7xx_HAL_Driver/Src/stm32f7xx_hal_qspi.c ****     hqspi->ErrorCode |= HAL_QSPI_ERROR_INVALID_CALLBACK;
2212:Drivers/STM32F7xx_HAL_Driver/Src/stm32f7xx_hal_qspi.c ****     /* update return status */
2213:Drivers/STM32F7xx_HAL_Driver/Src/stm32f7xx_hal_qspi.c ****     status =  HAL_ERROR;
2214:Drivers/STM32F7xx_HAL_Driver/Src/stm32f7xx_hal_qspi.c ****   }
2215:Drivers/STM32F7xx_HAL_Driver/Src/stm32f7xx_hal_qspi.c **** 
2216:Drivers/STM32F7xx_HAL_Driver/Src/stm32f7xx_hal_qspi.c ****   /* Release Lock */
2217:Drivers/STM32F7xx_HAL_Driver/Src/stm32f7xx_hal_qspi.c ****   __HAL_UNLOCK(hqspi);
2218:Drivers/STM32F7xx_HAL_Driver/Src/stm32f7xx_hal_qspi.c ****   return status;
2219:Drivers/STM32F7xx_HAL_Driver/Src/stm32f7xx_hal_qspi.c **** }
2220:Drivers/STM32F7xx_HAL_Driver/Src/stm32f7xx_hal_qspi.c **** #endif
2221:Drivers/STM32F7xx_HAL_Driver/Src/stm32f7xx_hal_qspi.c **** 
2222:Drivers/STM32F7xx_HAL_Driver/Src/stm32f7xx_hal_qspi.c **** /**
2223:Drivers/STM32F7xx_HAL_Driver/Src/stm32f7xx_hal_qspi.c ****   * @}
2224:Drivers/STM32F7xx_HAL_Driver/Src/stm32f7xx_hal_qspi.c ****   */
2225:Drivers/STM32F7xx_HAL_Driver/Src/stm32f7xx_hal_qspi.c **** 
2226:Drivers/STM32F7xx_HAL_Driver/Src/stm32f7xx_hal_qspi.c **** /** @defgroup QSPI_Exported_Functions_Group3 Peripheral Control and State functions
2227:Drivers/STM32F7xx_HAL_Driver/Src/stm32f7xx_hal_qspi.c ****   *  @brief   QSPI control and State functions
2228:Drivers/STM32F7xx_HAL_Driver/Src/stm32f7xx_hal_qspi.c ****   *
2229:Drivers/STM32F7xx_HAL_Driver/Src/stm32f7xx_hal_qspi.c **** @verbatim
2230:Drivers/STM32F7xx_HAL_Driver/Src/stm32f7xx_hal_qspi.c ****  ===============================================================================
2231:Drivers/STM32F7xx_HAL_Driver/Src/stm32f7xx_hal_qspi.c ****                   ##### Peripheral Control and State functions #####
2232:Drivers/STM32F7xx_HAL_Driver/Src/stm32f7xx_hal_qspi.c ****  ===============================================================================
2233:Drivers/STM32F7xx_HAL_Driver/Src/stm32f7xx_hal_qspi.c ****     [..]
2234:Drivers/STM32F7xx_HAL_Driver/Src/stm32f7xx_hal_qspi.c ****     This subsection provides a set of functions allowing to :
2235:Drivers/STM32F7xx_HAL_Driver/Src/stm32f7xx_hal_qspi.c ****       (+) Check in run-time the state of the driver.
2236:Drivers/STM32F7xx_HAL_Driver/Src/stm32f7xx_hal_qspi.c ****       (+) Check the error code set during last operation.
2237:Drivers/STM32F7xx_HAL_Driver/Src/stm32f7xx_hal_qspi.c ****       (+) Abort any operation.
2238:Drivers/STM32F7xx_HAL_Driver/Src/stm32f7xx_hal_qspi.c **** 
2239:Drivers/STM32F7xx_HAL_Driver/Src/stm32f7xx_hal_qspi.c **** 
2240:Drivers/STM32F7xx_HAL_Driver/Src/stm32f7xx_hal_qspi.c **** @endverbatim
2241:Drivers/STM32F7xx_HAL_Driver/Src/stm32f7xx_hal_qspi.c ****   * @{
2242:Drivers/STM32F7xx_HAL_Driver/Src/stm32f7xx_hal_qspi.c ****   */
2243:Drivers/STM32F7xx_HAL_Driver/Src/stm32f7xx_hal_qspi.c **** 
ARM GAS  C:\Users\jisu8\AppData\Local\Temp\ccA6Ygqq.s 			page 103


2244:Drivers/STM32F7xx_HAL_Driver/Src/stm32f7xx_hal_qspi.c **** /**
2245:Drivers/STM32F7xx_HAL_Driver/Src/stm32f7xx_hal_qspi.c ****   * @brief  Return the QSPI handle state.
2246:Drivers/STM32F7xx_HAL_Driver/Src/stm32f7xx_hal_qspi.c ****   * @param  hqspi QSPI handle
2247:Drivers/STM32F7xx_HAL_Driver/Src/stm32f7xx_hal_qspi.c ****   * @retval HAL state
2248:Drivers/STM32F7xx_HAL_Driver/Src/stm32f7xx_hal_qspi.c ****   */
2249:Drivers/STM32F7xx_HAL_Driver/Src/stm32f7xx_hal_qspi.c **** HAL_QSPI_StateTypeDef HAL_QSPI_GetState(QSPI_HandleTypeDef *hqspi)
2250:Drivers/STM32F7xx_HAL_Driver/Src/stm32f7xx_hal_qspi.c **** {
 3604              		.loc 1 2250 1
 3605              		.cfi_startproc
 3606              		@ args = 0, pretend = 0, frame = 8
 3607              		@ frame_needed = 1, uses_anonymous_args = 0
 3608              		@ link register save eliminated.
 3609 0000 80B4     		push	{r7}
 3610              	.LCFI144:
 3611              		.cfi_def_cfa_offset 4
 3612              		.cfi_offset 7, -4
 3613 0002 83B0     		sub	sp, sp, #12
 3614              	.LCFI145:
 3615              		.cfi_def_cfa_offset 16
 3616 0004 00AF     		add	r7, sp, #0
 3617              	.LCFI146:
 3618              		.cfi_def_cfa_register 7
 3619 0006 7860     		str	r0, [r7, #4]
2251:Drivers/STM32F7xx_HAL_Driver/Src/stm32f7xx_hal_qspi.c ****   /* Return QSPI handle state */
2252:Drivers/STM32F7xx_HAL_Driver/Src/stm32f7xx_hal_qspi.c ****   return hqspi->State;
 3620              		.loc 1 2252 15
 3621 0008 7B68     		ldr	r3, [r7, #4]
 3622 000a 93F84130 		ldrb	r3, [r3, #65]
 3623 000e DBB2     		uxtb	r3, r3
2253:Drivers/STM32F7xx_HAL_Driver/Src/stm32f7xx_hal_qspi.c **** }
 3624              		.loc 1 2253 1
 3625 0010 1846     		mov	r0, r3
 3626 0012 0C37     		adds	r7, r7, #12
 3627              	.LCFI147:
 3628              		.cfi_def_cfa_offset 4
 3629 0014 BD46     		mov	sp, r7
 3630              	.LCFI148:
 3631              		.cfi_def_cfa_register 13
 3632              		@ sp needed
 3633 0016 5DF8047B 		ldr	r7, [sp], #4
 3634              	.LCFI149:
 3635              		.cfi_restore 7
 3636              		.cfi_def_cfa_offset 0
 3637 001a 7047     		bx	lr
 3638              		.cfi_endproc
 3639              	.LFE167:
 3641              		.section	.text.HAL_QSPI_GetError,"ax",%progbits
 3642              		.align	1
 3643              		.global	HAL_QSPI_GetError
 3644              		.syntax unified
 3645              		.thumb
 3646              		.thumb_func
 3648              	HAL_QSPI_GetError:
 3649              	.LFB168:
2254:Drivers/STM32F7xx_HAL_Driver/Src/stm32f7xx_hal_qspi.c **** 
2255:Drivers/STM32F7xx_HAL_Driver/Src/stm32f7xx_hal_qspi.c **** /**
2256:Drivers/STM32F7xx_HAL_Driver/Src/stm32f7xx_hal_qspi.c **** * @brief  Return the QSPI error code.
ARM GAS  C:\Users\jisu8\AppData\Local\Temp\ccA6Ygqq.s 			page 104


2257:Drivers/STM32F7xx_HAL_Driver/Src/stm32f7xx_hal_qspi.c **** * @param  hqspi QSPI handle
2258:Drivers/STM32F7xx_HAL_Driver/Src/stm32f7xx_hal_qspi.c **** * @retval QSPI Error Code
2259:Drivers/STM32F7xx_HAL_Driver/Src/stm32f7xx_hal_qspi.c **** */
2260:Drivers/STM32F7xx_HAL_Driver/Src/stm32f7xx_hal_qspi.c **** uint32_t HAL_QSPI_GetError(QSPI_HandleTypeDef *hqspi)
2261:Drivers/STM32F7xx_HAL_Driver/Src/stm32f7xx_hal_qspi.c **** {
 3650              		.loc 1 2261 1
 3651              		.cfi_startproc
 3652              		@ args = 0, pretend = 0, frame = 8
 3653              		@ frame_needed = 1, uses_anonymous_args = 0
 3654              		@ link register save eliminated.
 3655 0000 80B4     		push	{r7}
 3656              	.LCFI150:
 3657              		.cfi_def_cfa_offset 4
 3658              		.cfi_offset 7, -4
 3659 0002 83B0     		sub	sp, sp, #12
 3660              	.LCFI151:
 3661              		.cfi_def_cfa_offset 16
 3662 0004 00AF     		add	r7, sp, #0
 3663              	.LCFI152:
 3664              		.cfi_def_cfa_register 7
 3665 0006 7860     		str	r0, [r7, #4]
2262:Drivers/STM32F7xx_HAL_Driver/Src/stm32f7xx_hal_qspi.c ****   return hqspi->ErrorCode;
 3666              		.loc 1 2262 15
 3667 0008 7B68     		ldr	r3, [r7, #4]
 3668 000a 5B6C     		ldr	r3, [r3, #68]
2263:Drivers/STM32F7xx_HAL_Driver/Src/stm32f7xx_hal_qspi.c **** }
 3669              		.loc 1 2263 1
 3670 000c 1846     		mov	r0, r3
 3671 000e 0C37     		adds	r7, r7, #12
 3672              	.LCFI153:
 3673              		.cfi_def_cfa_offset 4
 3674 0010 BD46     		mov	sp, r7
 3675              	.LCFI154:
 3676              		.cfi_def_cfa_register 13
 3677              		@ sp needed
 3678 0012 5DF8047B 		ldr	r7, [sp], #4
 3679              	.LCFI155:
 3680              		.cfi_restore 7
 3681              		.cfi_def_cfa_offset 0
 3682 0016 7047     		bx	lr
 3683              		.cfi_endproc
 3684              	.LFE168:
 3686              		.section	.text.HAL_QSPI_Abort,"ax",%progbits
 3687              		.align	1
 3688              		.global	HAL_QSPI_Abort
 3689              		.syntax unified
 3690              		.thumb
 3691              		.thumb_func
 3693              	HAL_QSPI_Abort:
 3694              	.LFB169:
2264:Drivers/STM32F7xx_HAL_Driver/Src/stm32f7xx_hal_qspi.c **** 
2265:Drivers/STM32F7xx_HAL_Driver/Src/stm32f7xx_hal_qspi.c **** /**
2266:Drivers/STM32F7xx_HAL_Driver/Src/stm32f7xx_hal_qspi.c **** * @brief  Abort the current transmission.
2267:Drivers/STM32F7xx_HAL_Driver/Src/stm32f7xx_hal_qspi.c **** * @param  hqspi QSPI handle
2268:Drivers/STM32F7xx_HAL_Driver/Src/stm32f7xx_hal_qspi.c **** * @retval HAL status
2269:Drivers/STM32F7xx_HAL_Driver/Src/stm32f7xx_hal_qspi.c **** */
2270:Drivers/STM32F7xx_HAL_Driver/Src/stm32f7xx_hal_qspi.c **** HAL_StatusTypeDef HAL_QSPI_Abort(QSPI_HandleTypeDef *hqspi)
ARM GAS  C:\Users\jisu8\AppData\Local\Temp\ccA6Ygqq.s 			page 105


2271:Drivers/STM32F7xx_HAL_Driver/Src/stm32f7xx_hal_qspi.c **** {
 3695              		.loc 1 2271 1
 3696              		.cfi_startproc
 3697              		@ args = 0, pretend = 0, frame = 16
 3698              		@ frame_needed = 1, uses_anonymous_args = 0
 3699 0000 80B5     		push	{r7, lr}
 3700              	.LCFI156:
 3701              		.cfi_def_cfa_offset 8
 3702              		.cfi_offset 7, -8
 3703              		.cfi_offset 14, -4
 3704 0002 86B0     		sub	sp, sp, #24
 3705              	.LCFI157:
 3706              		.cfi_def_cfa_offset 32
 3707 0004 02AF     		add	r7, sp, #8
 3708              	.LCFI158:
 3709              		.cfi_def_cfa 7, 24
 3710 0006 7860     		str	r0, [r7, #4]
2272:Drivers/STM32F7xx_HAL_Driver/Src/stm32f7xx_hal_qspi.c ****   HAL_StatusTypeDef status = HAL_OK;
 3711              		.loc 1 2272 21
 3712 0008 0023     		movs	r3, #0
 3713 000a FB73     		strb	r3, [r7, #15]
2273:Drivers/STM32F7xx_HAL_Driver/Src/stm32f7xx_hal_qspi.c ****   uint32_t tickstart = HAL_GetTick();
 3714              		.loc 1 2273 24
 3715 000c FFF7FEFF 		bl	HAL_GetTick
 3716 0010 B860     		str	r0, [r7, #8]
2274:Drivers/STM32F7xx_HAL_Driver/Src/stm32f7xx_hal_qspi.c **** 
2275:Drivers/STM32F7xx_HAL_Driver/Src/stm32f7xx_hal_qspi.c ****   /* Check if the state is in one of the busy states */
2276:Drivers/STM32F7xx_HAL_Driver/Src/stm32f7xx_hal_qspi.c ****   if (((uint32_t)hqspi->State & 0x2U) != 0U)
 3717              		.loc 1 2276 23
 3718 0012 7B68     		ldr	r3, [r7, #4]
 3719 0014 93F84130 		ldrb	r3, [r3, #65]
 3720 0018 DBB2     		uxtb	r3, r3
 3721              		.loc 1 2276 31
 3722 001a 03F00203 		and	r3, r3, #2
 3723              		.loc 1 2276 6
 3724 001e 002B     		cmp	r3, #0
 3725 0020 62D0     		beq	.L167
2277:Drivers/STM32F7xx_HAL_Driver/Src/stm32f7xx_hal_qspi.c ****   {
2278:Drivers/STM32F7xx_HAL_Driver/Src/stm32f7xx_hal_qspi.c ****     /* Process unlocked */
2279:Drivers/STM32F7xx_HAL_Driver/Src/stm32f7xx_hal_qspi.c ****     __HAL_UNLOCK(hqspi);
 3726              		.loc 1 2279 5
 3727 0022 7B68     		ldr	r3, [r7, #4]
 3728 0024 0022     		movs	r2, #0
 3729 0026 83F84020 		strb	r2, [r3, #64]
2280:Drivers/STM32F7xx_HAL_Driver/Src/stm32f7xx_hal_qspi.c **** 
2281:Drivers/STM32F7xx_HAL_Driver/Src/stm32f7xx_hal_qspi.c ****     if ((hqspi->Instance->CR & QUADSPI_CR_DMAEN) != 0U)
 3730              		.loc 1 2281 15
 3731 002a 7B68     		ldr	r3, [r7, #4]
 3732 002c 1B68     		ldr	r3, [r3]
 3733              		.loc 1 2281 25
 3734 002e 1B68     		ldr	r3, [r3]
 3735              		.loc 1 2281 30
 3736 0030 03F00403 		and	r3, r3, #4
 3737              		.loc 1 2281 8
 3738 0034 002B     		cmp	r3, #0
 3739 0036 17D0     		beq	.L168
2282:Drivers/STM32F7xx_HAL_Driver/Src/stm32f7xx_hal_qspi.c ****     {
ARM GAS  C:\Users\jisu8\AppData\Local\Temp\ccA6Ygqq.s 			page 106


2283:Drivers/STM32F7xx_HAL_Driver/Src/stm32f7xx_hal_qspi.c ****       /* Disable the DMA transfer by clearing the DMAEN bit in the QSPI CR register */
2284:Drivers/STM32F7xx_HAL_Driver/Src/stm32f7xx_hal_qspi.c ****       CLEAR_BIT(hqspi->Instance->CR, QUADSPI_CR_DMAEN);
 3740              		.loc 1 2284 7
 3741 0038 7B68     		ldr	r3, [r7, #4]
 3742 003a 1B68     		ldr	r3, [r3]
 3743 003c 1A68     		ldr	r2, [r3]
 3744 003e 7B68     		ldr	r3, [r7, #4]
 3745 0040 1B68     		ldr	r3, [r3]
 3746 0042 22F00402 		bic	r2, r2, #4
 3747 0046 1A60     		str	r2, [r3]
2285:Drivers/STM32F7xx_HAL_Driver/Src/stm32f7xx_hal_qspi.c **** 
2286:Drivers/STM32F7xx_HAL_Driver/Src/stm32f7xx_hal_qspi.c ****       /* Abort DMA channel */
2287:Drivers/STM32F7xx_HAL_Driver/Src/stm32f7xx_hal_qspi.c ****       status = HAL_DMA_Abort(hqspi->hdma);
 3748              		.loc 1 2287 16
 3749 0048 7B68     		ldr	r3, [r7, #4]
 3750 004a DB6B     		ldr	r3, [r3, #60]
 3751 004c 1846     		mov	r0, r3
 3752 004e FFF7FEFF 		bl	HAL_DMA_Abort
 3753 0052 0346     		mov	r3, r0
 3754 0054 FB73     		strb	r3, [r7, #15]
2288:Drivers/STM32F7xx_HAL_Driver/Src/stm32f7xx_hal_qspi.c ****       if(status != HAL_OK)
 3755              		.loc 1 2288 9
 3756 0056 FB7B     		ldrb	r3, [r7, #15]	@ zero_extendqisi2
 3757 0058 002B     		cmp	r3, #0
 3758 005a 05D0     		beq	.L168
2289:Drivers/STM32F7xx_HAL_Driver/Src/stm32f7xx_hal_qspi.c ****       {
2290:Drivers/STM32F7xx_HAL_Driver/Src/stm32f7xx_hal_qspi.c ****         hqspi->ErrorCode |= HAL_QSPI_ERROR_DMA;
 3759              		.loc 1 2290 26
 3760 005c 7B68     		ldr	r3, [r7, #4]
 3761 005e 5B6C     		ldr	r3, [r3, #68]
 3762 0060 43F00402 		orr	r2, r3, #4
 3763 0064 7B68     		ldr	r3, [r7, #4]
 3764 0066 5A64     		str	r2, [r3, #68]
 3765              	.L168:
2291:Drivers/STM32F7xx_HAL_Driver/Src/stm32f7xx_hal_qspi.c ****       }
2292:Drivers/STM32F7xx_HAL_Driver/Src/stm32f7xx_hal_qspi.c ****     }
2293:Drivers/STM32F7xx_HAL_Driver/Src/stm32f7xx_hal_qspi.c **** 
2294:Drivers/STM32F7xx_HAL_Driver/Src/stm32f7xx_hal_qspi.c ****     if (__HAL_QSPI_GET_FLAG(hqspi, QSPI_FLAG_BUSY) != RESET)
 3766              		.loc 1 2294 9
 3767 0068 7B68     		ldr	r3, [r7, #4]
 3768 006a 1B68     		ldr	r3, [r3]
 3769 006c 9B68     		ldr	r3, [r3, #8]
 3770 006e 03F02003 		and	r3, r3, #32
 3771              		.loc 1 2294 8
 3772 0072 002B     		cmp	r3, #0
 3773 0074 34D0     		beq	.L169
2295:Drivers/STM32F7xx_HAL_Driver/Src/stm32f7xx_hal_qspi.c ****     {
2296:Drivers/STM32F7xx_HAL_Driver/Src/stm32f7xx_hal_qspi.c ****       /* Configure QSPI: CR register with Abort request */
2297:Drivers/STM32F7xx_HAL_Driver/Src/stm32f7xx_hal_qspi.c ****       SET_BIT(hqspi->Instance->CR, QUADSPI_CR_ABORT);
 3774              		.loc 1 2297 7
 3775 0076 7B68     		ldr	r3, [r7, #4]
 3776 0078 1B68     		ldr	r3, [r3]
 3777 007a 1A68     		ldr	r2, [r3]
 3778 007c 7B68     		ldr	r3, [r7, #4]
 3779 007e 1B68     		ldr	r3, [r3]
 3780 0080 42F00202 		orr	r2, r2, #2
 3781 0084 1A60     		str	r2, [r3]
ARM GAS  C:\Users\jisu8\AppData\Local\Temp\ccA6Ygqq.s 			page 107


2298:Drivers/STM32F7xx_HAL_Driver/Src/stm32f7xx_hal_qspi.c ****       
2299:Drivers/STM32F7xx_HAL_Driver/Src/stm32f7xx_hal_qspi.c ****       /* Wait until TC flag is set to go back in idle state */
2300:Drivers/STM32F7xx_HAL_Driver/Src/stm32f7xx_hal_qspi.c ****       status = QSPI_WaitFlagStateUntilTimeout(hqspi, QSPI_FLAG_TC, SET, tickstart, hqspi->Timeout);
 3782              		.loc 1 2300 16
 3783 0086 7B68     		ldr	r3, [r7, #4]
 3784 0088 9B6C     		ldr	r3, [r3, #72]
 3785 008a 0093     		str	r3, [sp]
 3786 008c BB68     		ldr	r3, [r7, #8]
 3787 008e 0122     		movs	r2, #1
 3788 0090 0221     		movs	r1, #2
 3789 0092 7868     		ldr	r0, [r7, #4]
 3790 0094 FFF7FEFF 		bl	QSPI_WaitFlagStateUntilTimeout
 3791 0098 0346     		mov	r3, r0
 3792 009a FB73     		strb	r3, [r7, #15]
2301:Drivers/STM32F7xx_HAL_Driver/Src/stm32f7xx_hal_qspi.c ****       
2302:Drivers/STM32F7xx_HAL_Driver/Src/stm32f7xx_hal_qspi.c ****       if (status == HAL_OK)
 3793              		.loc 1 2302 10
 3794 009c FB7B     		ldrb	r3, [r7, #15]	@ zero_extendqisi2
 3795 009e 002B     		cmp	r3, #0
 3796 00a0 0ED1     		bne	.L170
2303:Drivers/STM32F7xx_HAL_Driver/Src/stm32f7xx_hal_qspi.c ****       {
2304:Drivers/STM32F7xx_HAL_Driver/Src/stm32f7xx_hal_qspi.c ****         __HAL_QSPI_CLEAR_FLAG(hqspi, QSPI_FLAG_TC);
 3797              		.loc 1 2304 9
 3798 00a2 7B68     		ldr	r3, [r7, #4]
 3799 00a4 1B68     		ldr	r3, [r3]
 3800 00a6 0222     		movs	r2, #2
 3801 00a8 DA60     		str	r2, [r3, #12]
2305:Drivers/STM32F7xx_HAL_Driver/Src/stm32f7xx_hal_qspi.c ****         
2306:Drivers/STM32F7xx_HAL_Driver/Src/stm32f7xx_hal_qspi.c ****         /* Wait until BUSY flag is reset */
2307:Drivers/STM32F7xx_HAL_Driver/Src/stm32f7xx_hal_qspi.c ****         status = QSPI_WaitFlagStateUntilTimeout(hqspi, QSPI_FLAG_BUSY, RESET, tickstart, hqspi->Tim
 3802              		.loc 1 2307 18
 3803 00aa 7B68     		ldr	r3, [r7, #4]
 3804 00ac 9B6C     		ldr	r3, [r3, #72]
 3805 00ae 0093     		str	r3, [sp]
 3806 00b0 BB68     		ldr	r3, [r7, #8]
 3807 00b2 0022     		movs	r2, #0
 3808 00b4 2021     		movs	r1, #32
 3809 00b6 7868     		ldr	r0, [r7, #4]
 3810 00b8 FFF7FEFF 		bl	QSPI_WaitFlagStateUntilTimeout
 3811 00bc 0346     		mov	r3, r0
 3812 00be FB73     		strb	r3, [r7, #15]
 3813              	.L170:
2308:Drivers/STM32F7xx_HAL_Driver/Src/stm32f7xx_hal_qspi.c ****       }
2309:Drivers/STM32F7xx_HAL_Driver/Src/stm32f7xx_hal_qspi.c **** 
2310:Drivers/STM32F7xx_HAL_Driver/Src/stm32f7xx_hal_qspi.c ****       if (status == HAL_OK)
 3814              		.loc 1 2310 10
 3815 00c0 FB7B     		ldrb	r3, [r7, #15]	@ zero_extendqisi2
 3816 00c2 002B     		cmp	r3, #0
 3817 00c4 10D1     		bne	.L167
2311:Drivers/STM32F7xx_HAL_Driver/Src/stm32f7xx_hal_qspi.c ****       {
2312:Drivers/STM32F7xx_HAL_Driver/Src/stm32f7xx_hal_qspi.c ****         /* Reset functional mode configuration to indirect write mode by default */
2313:Drivers/STM32F7xx_HAL_Driver/Src/stm32f7xx_hal_qspi.c ****         CLEAR_BIT(hqspi->Instance->CCR, QUADSPI_CCR_FMODE);
 3818              		.loc 1 2313 9
 3819 00c6 7B68     		ldr	r3, [r7, #4]
 3820 00c8 1B68     		ldr	r3, [r3]
 3821 00ca 5A69     		ldr	r2, [r3, #20]
 3822 00cc 7B68     		ldr	r3, [r7, #4]
ARM GAS  C:\Users\jisu8\AppData\Local\Temp\ccA6Ygqq.s 			page 108


 3823 00ce 1B68     		ldr	r3, [r3]
 3824 00d0 22F04062 		bic	r2, r2, #201326592
 3825 00d4 5A61     		str	r2, [r3, #20]
2314:Drivers/STM32F7xx_HAL_Driver/Src/stm32f7xx_hal_qspi.c ****         
2315:Drivers/STM32F7xx_HAL_Driver/Src/stm32f7xx_hal_qspi.c ****         /* Update state */
2316:Drivers/STM32F7xx_HAL_Driver/Src/stm32f7xx_hal_qspi.c ****         hqspi->State = HAL_QSPI_STATE_READY;
 3826              		.loc 1 2316 22
 3827 00d6 7B68     		ldr	r3, [r7, #4]
 3828 00d8 0122     		movs	r2, #1
 3829 00da 83F84120 		strb	r2, [r3, #65]
 3830 00de 03E0     		b	.L167
 3831              	.L169:
2317:Drivers/STM32F7xx_HAL_Driver/Src/stm32f7xx_hal_qspi.c ****       }
2318:Drivers/STM32F7xx_HAL_Driver/Src/stm32f7xx_hal_qspi.c ****     }
2319:Drivers/STM32F7xx_HAL_Driver/Src/stm32f7xx_hal_qspi.c ****     else
2320:Drivers/STM32F7xx_HAL_Driver/Src/stm32f7xx_hal_qspi.c ****     {
2321:Drivers/STM32F7xx_HAL_Driver/Src/stm32f7xx_hal_qspi.c ****       /* Update state */
2322:Drivers/STM32F7xx_HAL_Driver/Src/stm32f7xx_hal_qspi.c ****       hqspi->State = HAL_QSPI_STATE_READY;
 3832              		.loc 1 2322 20
 3833 00e0 7B68     		ldr	r3, [r7, #4]
 3834 00e2 0122     		movs	r2, #1
 3835 00e4 83F84120 		strb	r2, [r3, #65]
 3836              	.L167:
2323:Drivers/STM32F7xx_HAL_Driver/Src/stm32f7xx_hal_qspi.c ****     }
2324:Drivers/STM32F7xx_HAL_Driver/Src/stm32f7xx_hal_qspi.c ****   }
2325:Drivers/STM32F7xx_HAL_Driver/Src/stm32f7xx_hal_qspi.c **** 
2326:Drivers/STM32F7xx_HAL_Driver/Src/stm32f7xx_hal_qspi.c ****   return status;
 3837              		.loc 1 2326 10
 3838 00e8 FB7B     		ldrb	r3, [r7, #15]	@ zero_extendqisi2
2327:Drivers/STM32F7xx_HAL_Driver/Src/stm32f7xx_hal_qspi.c **** }
 3839              		.loc 1 2327 1
 3840 00ea 1846     		mov	r0, r3
 3841 00ec 1037     		adds	r7, r7, #16
 3842              	.LCFI159:
 3843              		.cfi_def_cfa_offset 8
 3844 00ee BD46     		mov	sp, r7
 3845              	.LCFI160:
 3846              		.cfi_def_cfa_register 13
 3847              		@ sp needed
 3848 00f0 80BD     		pop	{r7, pc}
 3849              		.cfi_endproc
 3850              	.LFE169:
 3852              		.section	.text.HAL_QSPI_Abort_IT,"ax",%progbits
 3853              		.align	1
 3854              		.global	HAL_QSPI_Abort_IT
 3855              		.syntax unified
 3856              		.thumb
 3857              		.thumb_func
 3859              	HAL_QSPI_Abort_IT:
 3860              	.LFB170:
2328:Drivers/STM32F7xx_HAL_Driver/Src/stm32f7xx_hal_qspi.c **** 
2329:Drivers/STM32F7xx_HAL_Driver/Src/stm32f7xx_hal_qspi.c **** /**
2330:Drivers/STM32F7xx_HAL_Driver/Src/stm32f7xx_hal_qspi.c **** * @brief  Abort the current transmission (non-blocking function)
2331:Drivers/STM32F7xx_HAL_Driver/Src/stm32f7xx_hal_qspi.c **** * @param  hqspi QSPI handle
2332:Drivers/STM32F7xx_HAL_Driver/Src/stm32f7xx_hal_qspi.c **** * @retval HAL status
2333:Drivers/STM32F7xx_HAL_Driver/Src/stm32f7xx_hal_qspi.c **** */
2334:Drivers/STM32F7xx_HAL_Driver/Src/stm32f7xx_hal_qspi.c **** HAL_StatusTypeDef HAL_QSPI_Abort_IT(QSPI_HandleTypeDef *hqspi)
ARM GAS  C:\Users\jisu8\AppData\Local\Temp\ccA6Ygqq.s 			page 109


2335:Drivers/STM32F7xx_HAL_Driver/Src/stm32f7xx_hal_qspi.c **** {
 3861              		.loc 1 2335 1
 3862              		.cfi_startproc
 3863              		@ args = 0, pretend = 0, frame = 16
 3864              		@ frame_needed = 1, uses_anonymous_args = 0
 3865 0000 80B5     		push	{r7, lr}
 3866              	.LCFI161:
 3867              		.cfi_def_cfa_offset 8
 3868              		.cfi_offset 7, -8
 3869              		.cfi_offset 14, -4
 3870 0002 84B0     		sub	sp, sp, #16
 3871              	.LCFI162:
 3872              		.cfi_def_cfa_offset 24
 3873 0004 00AF     		add	r7, sp, #0
 3874              	.LCFI163:
 3875              		.cfi_def_cfa_register 7
 3876 0006 7860     		str	r0, [r7, #4]
2336:Drivers/STM32F7xx_HAL_Driver/Src/stm32f7xx_hal_qspi.c ****   HAL_StatusTypeDef status = HAL_OK;
 3877              		.loc 1 2336 21
 3878 0008 0023     		movs	r3, #0
 3879 000a FB73     		strb	r3, [r7, #15]
2337:Drivers/STM32F7xx_HAL_Driver/Src/stm32f7xx_hal_qspi.c **** 
2338:Drivers/STM32F7xx_HAL_Driver/Src/stm32f7xx_hal_qspi.c ****   /* Check if the state is in one of the busy states */
2339:Drivers/STM32F7xx_HAL_Driver/Src/stm32f7xx_hal_qspi.c ****   if (((uint32_t)hqspi->State & 0x2U) != 0U)
 3880              		.loc 1 2339 23
 3881 000c 7B68     		ldr	r3, [r7, #4]
 3882 000e 93F84130 		ldrb	r3, [r3, #65]
 3883 0012 DBB2     		uxtb	r3, r3
 3884              		.loc 1 2339 31
 3885 0014 03F00203 		and	r3, r3, #2
 3886              		.loc 1 2339 6
 3887 0018 002B     		cmp	r3, #0
 3888 001a 52D0     		beq	.L173
2340:Drivers/STM32F7xx_HAL_Driver/Src/stm32f7xx_hal_qspi.c ****   {
2341:Drivers/STM32F7xx_HAL_Driver/Src/stm32f7xx_hal_qspi.c ****     /* Process unlocked */
2342:Drivers/STM32F7xx_HAL_Driver/Src/stm32f7xx_hal_qspi.c ****     __HAL_UNLOCK(hqspi);
 3889              		.loc 1 2342 5
 3890 001c 7B68     		ldr	r3, [r7, #4]
 3891 001e 0022     		movs	r2, #0
 3892 0020 83F84020 		strb	r2, [r3, #64]
2343:Drivers/STM32F7xx_HAL_Driver/Src/stm32f7xx_hal_qspi.c **** 
2344:Drivers/STM32F7xx_HAL_Driver/Src/stm32f7xx_hal_qspi.c ****     /* Update QSPI state */
2345:Drivers/STM32F7xx_HAL_Driver/Src/stm32f7xx_hal_qspi.c ****     hqspi->State = HAL_QSPI_STATE_ABORT;
 3893              		.loc 1 2345 18
 3894 0024 7B68     		ldr	r3, [r7, #4]
 3895 0026 0822     		movs	r2, #8
 3896 0028 83F84120 		strb	r2, [r3, #65]
2346:Drivers/STM32F7xx_HAL_Driver/Src/stm32f7xx_hal_qspi.c **** 
2347:Drivers/STM32F7xx_HAL_Driver/Src/stm32f7xx_hal_qspi.c ****     /* Disable all interrupts */
2348:Drivers/STM32F7xx_HAL_Driver/Src/stm32f7xx_hal_qspi.c ****     __HAL_QSPI_DISABLE_IT(hqspi, (QSPI_IT_TO | QSPI_IT_SM | QSPI_IT_FT | QSPI_IT_TC | QSPI_IT_TE));
 3897              		.loc 1 2348 5
 3898 002c 7B68     		ldr	r3, [r7, #4]
 3899 002e 1B68     		ldr	r3, [r3]
 3900 0030 1A68     		ldr	r2, [r3]
 3901 0032 7B68     		ldr	r3, [r7, #4]
 3902 0034 1B68     		ldr	r3, [r3]
 3903 0036 22F4F812 		bic	r2, r2, #2031616
ARM GAS  C:\Users\jisu8\AppData\Local\Temp\ccA6Ygqq.s 			page 110


 3904 003a 1A60     		str	r2, [r3]
2349:Drivers/STM32F7xx_HAL_Driver/Src/stm32f7xx_hal_qspi.c **** 
2350:Drivers/STM32F7xx_HAL_Driver/Src/stm32f7xx_hal_qspi.c ****     if ((hqspi->Instance->CR & QUADSPI_CR_DMAEN) != 0U)
 3905              		.loc 1 2350 15
 3906 003c 7B68     		ldr	r3, [r7, #4]
 3907 003e 1B68     		ldr	r3, [r3]
 3908              		.loc 1 2350 25
 3909 0040 1B68     		ldr	r3, [r3]
 3910              		.loc 1 2350 30
 3911 0042 03F00403 		and	r3, r3, #4
 3912              		.loc 1 2350 8
 3913 0046 002B     		cmp	r3, #0
 3914 0048 1BD0     		beq	.L174
2351:Drivers/STM32F7xx_HAL_Driver/Src/stm32f7xx_hal_qspi.c ****     {
2352:Drivers/STM32F7xx_HAL_Driver/Src/stm32f7xx_hal_qspi.c ****       /* Disable the DMA transfer by clearing the DMAEN bit in the QSPI CR register */
2353:Drivers/STM32F7xx_HAL_Driver/Src/stm32f7xx_hal_qspi.c ****       CLEAR_BIT(hqspi->Instance->CR, QUADSPI_CR_DMAEN);
 3915              		.loc 1 2353 7
 3916 004a 7B68     		ldr	r3, [r7, #4]
 3917 004c 1B68     		ldr	r3, [r3]
 3918 004e 1A68     		ldr	r2, [r3]
 3919 0050 7B68     		ldr	r3, [r7, #4]
 3920 0052 1B68     		ldr	r3, [r3]
 3921 0054 22F00402 		bic	r2, r2, #4
 3922 0058 1A60     		str	r2, [r3]
2354:Drivers/STM32F7xx_HAL_Driver/Src/stm32f7xx_hal_qspi.c **** 
2355:Drivers/STM32F7xx_HAL_Driver/Src/stm32f7xx_hal_qspi.c ****       /* Abort DMA channel */
2356:Drivers/STM32F7xx_HAL_Driver/Src/stm32f7xx_hal_qspi.c ****       hqspi->hdma->XferAbortCallback = QSPI_DMAAbortCplt;
 3923              		.loc 1 2356 12
 3924 005a 7B68     		ldr	r3, [r7, #4]
 3925 005c DB6B     		ldr	r3, [r3, #60]
 3926              		.loc 1 2356 38
 3927 005e 1B4A     		ldr	r2, .L177
 3928 0060 1A65     		str	r2, [r3, #80]
2357:Drivers/STM32F7xx_HAL_Driver/Src/stm32f7xx_hal_qspi.c ****       if (HAL_DMA_Abort_IT(hqspi->hdma) != HAL_OK)
 3929              		.loc 1 2357 11
 3930 0062 7B68     		ldr	r3, [r7, #4]
 3931 0064 DB6B     		ldr	r3, [r3, #60]
 3932 0066 1846     		mov	r0, r3
 3933 0068 FFF7FEFF 		bl	HAL_DMA_Abort_IT
 3934 006c 0346     		mov	r3, r0
 3935              		.loc 1 2357 10
 3936 006e 002B     		cmp	r3, #0
 3937 0070 27D0     		beq	.L173
2358:Drivers/STM32F7xx_HAL_Driver/Src/stm32f7xx_hal_qspi.c ****       {
2359:Drivers/STM32F7xx_HAL_Driver/Src/stm32f7xx_hal_qspi.c ****         /* Change state of QSPI */
2360:Drivers/STM32F7xx_HAL_Driver/Src/stm32f7xx_hal_qspi.c ****         hqspi->State = HAL_QSPI_STATE_READY;
 3938              		.loc 1 2360 22
 3939 0072 7B68     		ldr	r3, [r7, #4]
 3940 0074 0122     		movs	r2, #1
 3941 0076 83F84120 		strb	r2, [r3, #65]
2361:Drivers/STM32F7xx_HAL_Driver/Src/stm32f7xx_hal_qspi.c **** 
2362:Drivers/STM32F7xx_HAL_Driver/Src/stm32f7xx_hal_qspi.c ****         /* Abort Complete callback */
2363:Drivers/STM32F7xx_HAL_Driver/Src/stm32f7xx_hal_qspi.c **** #if (USE_HAL_QSPI_REGISTER_CALLBACKS == 1)
2364:Drivers/STM32F7xx_HAL_Driver/Src/stm32f7xx_hal_qspi.c ****         hqspi->AbortCpltCallback(hqspi);
2365:Drivers/STM32F7xx_HAL_Driver/Src/stm32f7xx_hal_qspi.c **** #else
2366:Drivers/STM32F7xx_HAL_Driver/Src/stm32f7xx_hal_qspi.c ****         HAL_QSPI_AbortCpltCallback(hqspi);
 3942              		.loc 1 2366 9
ARM GAS  C:\Users\jisu8\AppData\Local\Temp\ccA6Ygqq.s 			page 111


 3943 007a 7868     		ldr	r0, [r7, #4]
 3944 007c FFF7FEFF 		bl	HAL_QSPI_AbortCpltCallback
 3945 0080 1FE0     		b	.L173
 3946              	.L174:
2367:Drivers/STM32F7xx_HAL_Driver/Src/stm32f7xx_hal_qspi.c **** #endif
2368:Drivers/STM32F7xx_HAL_Driver/Src/stm32f7xx_hal_qspi.c ****       }
2369:Drivers/STM32F7xx_HAL_Driver/Src/stm32f7xx_hal_qspi.c ****     }
2370:Drivers/STM32F7xx_HAL_Driver/Src/stm32f7xx_hal_qspi.c ****     else
2371:Drivers/STM32F7xx_HAL_Driver/Src/stm32f7xx_hal_qspi.c ****     {
2372:Drivers/STM32F7xx_HAL_Driver/Src/stm32f7xx_hal_qspi.c ****       if (__HAL_QSPI_GET_FLAG(hqspi, QSPI_FLAG_BUSY) != RESET)
 3947              		.loc 1 2372 11
 3948 0082 7B68     		ldr	r3, [r7, #4]
 3949 0084 1B68     		ldr	r3, [r3]
 3950 0086 9B68     		ldr	r3, [r3, #8]
 3951 0088 03F02003 		and	r3, r3, #32
 3952              		.loc 1 2372 10
 3953 008c 002B     		cmp	r3, #0
 3954 008e 14D0     		beq	.L175
2373:Drivers/STM32F7xx_HAL_Driver/Src/stm32f7xx_hal_qspi.c ****       {
2374:Drivers/STM32F7xx_HAL_Driver/Src/stm32f7xx_hal_qspi.c ****         /* Clear interrupt */
2375:Drivers/STM32F7xx_HAL_Driver/Src/stm32f7xx_hal_qspi.c ****         __HAL_QSPI_CLEAR_FLAG(hqspi, QSPI_FLAG_TC);
 3955              		.loc 1 2375 9
 3956 0090 7B68     		ldr	r3, [r7, #4]
 3957 0092 1B68     		ldr	r3, [r3]
 3958 0094 0222     		movs	r2, #2
 3959 0096 DA60     		str	r2, [r3, #12]
2376:Drivers/STM32F7xx_HAL_Driver/Src/stm32f7xx_hal_qspi.c ****         
2377:Drivers/STM32F7xx_HAL_Driver/Src/stm32f7xx_hal_qspi.c ****         /* Enable the QSPI Transfer Complete Interrupt */
2378:Drivers/STM32F7xx_HAL_Driver/Src/stm32f7xx_hal_qspi.c ****         __HAL_QSPI_ENABLE_IT(hqspi, QSPI_IT_TC);
 3960              		.loc 1 2378 9
 3961 0098 7B68     		ldr	r3, [r7, #4]
 3962 009a 1B68     		ldr	r3, [r3]
 3963 009c 1A68     		ldr	r2, [r3]
 3964 009e 7B68     		ldr	r3, [r7, #4]
 3965 00a0 1B68     		ldr	r3, [r3]
 3966 00a2 42F40032 		orr	r2, r2, #131072
 3967 00a6 1A60     		str	r2, [r3]
2379:Drivers/STM32F7xx_HAL_Driver/Src/stm32f7xx_hal_qspi.c ****         
2380:Drivers/STM32F7xx_HAL_Driver/Src/stm32f7xx_hal_qspi.c ****         /* Configure QSPI: CR register with Abort request */
2381:Drivers/STM32F7xx_HAL_Driver/Src/stm32f7xx_hal_qspi.c ****         SET_BIT(hqspi->Instance->CR, QUADSPI_CR_ABORT);
 3968              		.loc 1 2381 9
 3969 00a8 7B68     		ldr	r3, [r7, #4]
 3970 00aa 1B68     		ldr	r3, [r3]
 3971 00ac 1A68     		ldr	r2, [r3]
 3972 00ae 7B68     		ldr	r3, [r7, #4]
 3973 00b0 1B68     		ldr	r3, [r3]
 3974 00b2 42F00202 		orr	r2, r2, #2
 3975 00b6 1A60     		str	r2, [r3]
 3976 00b8 03E0     		b	.L173
 3977              	.L175:
2382:Drivers/STM32F7xx_HAL_Driver/Src/stm32f7xx_hal_qspi.c ****       }    
2383:Drivers/STM32F7xx_HAL_Driver/Src/stm32f7xx_hal_qspi.c ****       else
2384:Drivers/STM32F7xx_HAL_Driver/Src/stm32f7xx_hal_qspi.c ****       {
2385:Drivers/STM32F7xx_HAL_Driver/Src/stm32f7xx_hal_qspi.c ****         /* Change state of QSPI */
2386:Drivers/STM32F7xx_HAL_Driver/Src/stm32f7xx_hal_qspi.c ****         hqspi->State = HAL_QSPI_STATE_READY;
 3978              		.loc 1 2386 22
 3979 00ba 7B68     		ldr	r3, [r7, #4]
ARM GAS  C:\Users\jisu8\AppData\Local\Temp\ccA6Ygqq.s 			page 112


 3980 00bc 0122     		movs	r2, #1
 3981 00be 83F84120 		strb	r2, [r3, #65]
 3982              	.L173:
2387:Drivers/STM32F7xx_HAL_Driver/Src/stm32f7xx_hal_qspi.c ****       }
2388:Drivers/STM32F7xx_HAL_Driver/Src/stm32f7xx_hal_qspi.c ****     }
2389:Drivers/STM32F7xx_HAL_Driver/Src/stm32f7xx_hal_qspi.c ****   }
2390:Drivers/STM32F7xx_HAL_Driver/Src/stm32f7xx_hal_qspi.c ****   return status;
 3983              		.loc 1 2390 10
 3984 00c2 FB7B     		ldrb	r3, [r7, #15]	@ zero_extendqisi2
2391:Drivers/STM32F7xx_HAL_Driver/Src/stm32f7xx_hal_qspi.c **** }
 3985              		.loc 1 2391 1
 3986 00c4 1846     		mov	r0, r3
 3987 00c6 1037     		adds	r7, r7, #16
 3988              	.LCFI164:
 3989              		.cfi_def_cfa_offset 8
 3990 00c8 BD46     		mov	sp, r7
 3991              	.LCFI165:
 3992              		.cfi_def_cfa_register 13
 3993              		@ sp needed
 3994 00ca 80BD     		pop	{r7, pc}
 3995              	.L178:
 3996              		.align	2
 3997              	.L177:
 3998 00cc 00000000 		.word	QSPI_DMAAbortCplt
 3999              		.cfi_endproc
 4000              	.LFE170:
 4002              		.section	.text.HAL_QSPI_SetTimeout,"ax",%progbits
 4003              		.align	1
 4004              		.global	HAL_QSPI_SetTimeout
 4005              		.syntax unified
 4006              		.thumb
 4007              		.thumb_func
 4009              	HAL_QSPI_SetTimeout:
 4010              	.LFB171:
2392:Drivers/STM32F7xx_HAL_Driver/Src/stm32f7xx_hal_qspi.c **** 
2393:Drivers/STM32F7xx_HAL_Driver/Src/stm32f7xx_hal_qspi.c **** /** @brief Set QSPI timeout.
2394:Drivers/STM32F7xx_HAL_Driver/Src/stm32f7xx_hal_qspi.c ****   * @param  hqspi QSPI handle.
2395:Drivers/STM32F7xx_HAL_Driver/Src/stm32f7xx_hal_qspi.c ****   * @param  Timeout Timeout for the QSPI memory access.
2396:Drivers/STM32F7xx_HAL_Driver/Src/stm32f7xx_hal_qspi.c ****   * @retval None
2397:Drivers/STM32F7xx_HAL_Driver/Src/stm32f7xx_hal_qspi.c ****   */
2398:Drivers/STM32F7xx_HAL_Driver/Src/stm32f7xx_hal_qspi.c **** void HAL_QSPI_SetTimeout(QSPI_HandleTypeDef *hqspi, uint32_t Timeout)
2399:Drivers/STM32F7xx_HAL_Driver/Src/stm32f7xx_hal_qspi.c **** {
 4011              		.loc 1 2399 1
 4012              		.cfi_startproc
 4013              		@ args = 0, pretend = 0, frame = 8
 4014              		@ frame_needed = 1, uses_anonymous_args = 0
 4015              		@ link register save eliminated.
 4016 0000 80B4     		push	{r7}
 4017              	.LCFI166:
 4018              		.cfi_def_cfa_offset 4
 4019              		.cfi_offset 7, -4
 4020 0002 83B0     		sub	sp, sp, #12
 4021              	.LCFI167:
 4022              		.cfi_def_cfa_offset 16
 4023 0004 00AF     		add	r7, sp, #0
 4024              	.LCFI168:
 4025              		.cfi_def_cfa_register 7
ARM GAS  C:\Users\jisu8\AppData\Local\Temp\ccA6Ygqq.s 			page 113


 4026 0006 7860     		str	r0, [r7, #4]
 4027 0008 3960     		str	r1, [r7]
2400:Drivers/STM32F7xx_HAL_Driver/Src/stm32f7xx_hal_qspi.c ****   hqspi->Timeout = Timeout;
 4028              		.loc 1 2400 18
 4029 000a 7B68     		ldr	r3, [r7, #4]
 4030 000c 3A68     		ldr	r2, [r7]
 4031 000e 9A64     		str	r2, [r3, #72]
2401:Drivers/STM32F7xx_HAL_Driver/Src/stm32f7xx_hal_qspi.c **** }
 4032              		.loc 1 2401 1
 4033 0010 00BF     		nop
 4034 0012 0C37     		adds	r7, r7, #12
 4035              	.LCFI169:
 4036              		.cfi_def_cfa_offset 4
 4037 0014 BD46     		mov	sp, r7
 4038              	.LCFI170:
 4039              		.cfi_def_cfa_register 13
 4040              		@ sp needed
 4041 0016 5DF8047B 		ldr	r7, [sp], #4
 4042              	.LCFI171:
 4043              		.cfi_restore 7
 4044              		.cfi_def_cfa_offset 0
 4045 001a 7047     		bx	lr
 4046              		.cfi_endproc
 4047              	.LFE171:
 4049              		.section	.text.HAL_QSPI_SetFifoThreshold,"ax",%progbits
 4050              		.align	1
 4051              		.global	HAL_QSPI_SetFifoThreshold
 4052              		.syntax unified
 4053              		.thumb
 4054              		.thumb_func
 4056              	HAL_QSPI_SetFifoThreshold:
 4057              	.LFB172:
2402:Drivers/STM32F7xx_HAL_Driver/Src/stm32f7xx_hal_qspi.c **** 
2403:Drivers/STM32F7xx_HAL_Driver/Src/stm32f7xx_hal_qspi.c **** /** @brief Set QSPI Fifo threshold.
2404:Drivers/STM32F7xx_HAL_Driver/Src/stm32f7xx_hal_qspi.c ****   * @param  hqspi QSPI handle.
2405:Drivers/STM32F7xx_HAL_Driver/Src/stm32f7xx_hal_qspi.c ****   * @param  Threshold Threshold of the Fifo (value between 1 and 16).
2406:Drivers/STM32F7xx_HAL_Driver/Src/stm32f7xx_hal_qspi.c ****   * @retval HAL status
2407:Drivers/STM32F7xx_HAL_Driver/Src/stm32f7xx_hal_qspi.c ****   */
2408:Drivers/STM32F7xx_HAL_Driver/Src/stm32f7xx_hal_qspi.c **** HAL_StatusTypeDef HAL_QSPI_SetFifoThreshold(QSPI_HandleTypeDef *hqspi, uint32_t Threshold)
2409:Drivers/STM32F7xx_HAL_Driver/Src/stm32f7xx_hal_qspi.c **** {
 4058              		.loc 1 2409 1
 4059              		.cfi_startproc
 4060              		@ args = 0, pretend = 0, frame = 16
 4061              		@ frame_needed = 1, uses_anonymous_args = 0
 4062              		@ link register save eliminated.
 4063 0000 80B4     		push	{r7}
 4064              	.LCFI172:
 4065              		.cfi_def_cfa_offset 4
 4066              		.cfi_offset 7, -4
 4067 0002 85B0     		sub	sp, sp, #20
 4068              	.LCFI173:
 4069              		.cfi_def_cfa_offset 24
 4070 0004 00AF     		add	r7, sp, #0
 4071              	.LCFI174:
 4072              		.cfi_def_cfa_register 7
 4073 0006 7860     		str	r0, [r7, #4]
 4074 0008 3960     		str	r1, [r7]
ARM GAS  C:\Users\jisu8\AppData\Local\Temp\ccA6Ygqq.s 			page 114


2410:Drivers/STM32F7xx_HAL_Driver/Src/stm32f7xx_hal_qspi.c ****   HAL_StatusTypeDef status = HAL_OK;
 4075              		.loc 1 2410 21
 4076 000a 0023     		movs	r3, #0
 4077 000c FB73     		strb	r3, [r7, #15]
2411:Drivers/STM32F7xx_HAL_Driver/Src/stm32f7xx_hal_qspi.c **** 
2412:Drivers/STM32F7xx_HAL_Driver/Src/stm32f7xx_hal_qspi.c ****   /* Process locked */
2413:Drivers/STM32F7xx_HAL_Driver/Src/stm32f7xx_hal_qspi.c ****   __HAL_LOCK(hqspi);
 4078              		.loc 1 2413 3
 4079 000e 7B68     		ldr	r3, [r7, #4]
 4080 0010 93F84030 		ldrb	r3, [r3, #64]
 4081 0014 DBB2     		uxtb	r3, r3
 4082 0016 012B     		cmp	r3, #1
 4083 0018 01D1     		bne	.L181
 4084              		.loc 1 2413 3 is_stmt 0 discriminator 1
 4085 001a 0223     		movs	r3, #2
 4086 001c 21E0     		b	.L182
 4087              	.L181:
 4088              		.loc 1 2413 3 discriminator 2
 4089 001e 7B68     		ldr	r3, [r7, #4]
 4090 0020 0122     		movs	r2, #1
 4091 0022 83F84020 		strb	r2, [r3, #64]
2414:Drivers/STM32F7xx_HAL_Driver/Src/stm32f7xx_hal_qspi.c **** 
2415:Drivers/STM32F7xx_HAL_Driver/Src/stm32f7xx_hal_qspi.c ****   if(hqspi->State == HAL_QSPI_STATE_READY)
 4092              		.loc 1 2415 11 is_stmt 1 discriminator 2
 4093 0026 7B68     		ldr	r3, [r7, #4]
 4094 0028 93F84130 		ldrb	r3, [r3, #65]
 4095 002c DBB2     		uxtb	r3, r3
 4096              		.loc 1 2415 5 discriminator 2
 4097 002e 012B     		cmp	r3, #1
 4098 0030 10D1     		bne	.L183
2416:Drivers/STM32F7xx_HAL_Driver/Src/stm32f7xx_hal_qspi.c ****   {
2417:Drivers/STM32F7xx_HAL_Driver/Src/stm32f7xx_hal_qspi.c ****     /* Synchronize init structure with new FIFO threshold value */
2418:Drivers/STM32F7xx_HAL_Driver/Src/stm32f7xx_hal_qspi.c ****     hqspi->Init.FifoThreshold = Threshold;
 4099              		.loc 1 2418 31
 4100 0032 7B68     		ldr	r3, [r7, #4]
 4101 0034 3A68     		ldr	r2, [r7]
 4102 0036 9A60     		str	r2, [r3, #8]
2419:Drivers/STM32F7xx_HAL_Driver/Src/stm32f7xx_hal_qspi.c **** 
2420:Drivers/STM32F7xx_HAL_Driver/Src/stm32f7xx_hal_qspi.c ****     /* Configure QSPI FIFO Threshold */
2421:Drivers/STM32F7xx_HAL_Driver/Src/stm32f7xx_hal_qspi.c ****     MODIFY_REG(hqspi->Instance->CR, QUADSPI_CR_FTHRES,
 4103              		.loc 1 2421 5
 4104 0038 7B68     		ldr	r3, [r7, #4]
 4105 003a 1B68     		ldr	r3, [r3]
 4106 003c 1B68     		ldr	r3, [r3]
 4107 003e 23F4F851 		bic	r1, r3, #7936
 4108 0042 7B68     		ldr	r3, [r7, #4]
 4109 0044 9B68     		ldr	r3, [r3, #8]
 4110 0046 013B     		subs	r3, r3, #1
 4111 0048 1A02     		lsls	r2, r3, #8
 4112 004a 7B68     		ldr	r3, [r7, #4]
 4113 004c 1B68     		ldr	r3, [r3]
 4114 004e 0A43     		orrs	r2, r2, r1
 4115 0050 1A60     		str	r2, [r3]
 4116 0052 01E0     		b	.L184
 4117              	.L183:
2422:Drivers/STM32F7xx_HAL_Driver/Src/stm32f7xx_hal_qspi.c ****                ((hqspi->Init.FifoThreshold - 1U) << QUADSPI_CR_FTHRES_Pos));
2423:Drivers/STM32F7xx_HAL_Driver/Src/stm32f7xx_hal_qspi.c ****   }
ARM GAS  C:\Users\jisu8\AppData\Local\Temp\ccA6Ygqq.s 			page 115


2424:Drivers/STM32F7xx_HAL_Driver/Src/stm32f7xx_hal_qspi.c ****   else
2425:Drivers/STM32F7xx_HAL_Driver/Src/stm32f7xx_hal_qspi.c ****   {
2426:Drivers/STM32F7xx_HAL_Driver/Src/stm32f7xx_hal_qspi.c ****     status = HAL_BUSY;
 4118              		.loc 1 2426 12
 4119 0054 0223     		movs	r3, #2
 4120 0056 FB73     		strb	r3, [r7, #15]
 4121              	.L184:
2427:Drivers/STM32F7xx_HAL_Driver/Src/stm32f7xx_hal_qspi.c ****   }
2428:Drivers/STM32F7xx_HAL_Driver/Src/stm32f7xx_hal_qspi.c **** 
2429:Drivers/STM32F7xx_HAL_Driver/Src/stm32f7xx_hal_qspi.c ****   /* Process unlocked */
2430:Drivers/STM32F7xx_HAL_Driver/Src/stm32f7xx_hal_qspi.c ****   __HAL_UNLOCK(hqspi);
 4122              		.loc 1 2430 3
 4123 0058 7B68     		ldr	r3, [r7, #4]
 4124 005a 0022     		movs	r2, #0
 4125 005c 83F84020 		strb	r2, [r3, #64]
2431:Drivers/STM32F7xx_HAL_Driver/Src/stm32f7xx_hal_qspi.c **** 
2432:Drivers/STM32F7xx_HAL_Driver/Src/stm32f7xx_hal_qspi.c ****   /* Return function status */
2433:Drivers/STM32F7xx_HAL_Driver/Src/stm32f7xx_hal_qspi.c ****   return status;
 4126              		.loc 1 2433 10
 4127 0060 FB7B     		ldrb	r3, [r7, #15]	@ zero_extendqisi2
 4128              	.L182:
2434:Drivers/STM32F7xx_HAL_Driver/Src/stm32f7xx_hal_qspi.c **** }
 4129              		.loc 1 2434 1
 4130 0062 1846     		mov	r0, r3
 4131 0064 1437     		adds	r7, r7, #20
 4132              	.LCFI175:
 4133              		.cfi_def_cfa_offset 4
 4134 0066 BD46     		mov	sp, r7
 4135              	.LCFI176:
 4136              		.cfi_def_cfa_register 13
 4137              		@ sp needed
 4138 0068 5DF8047B 		ldr	r7, [sp], #4
 4139              	.LCFI177:
 4140              		.cfi_restore 7
 4141              		.cfi_def_cfa_offset 0
 4142 006c 7047     		bx	lr
 4143              		.cfi_endproc
 4144              	.LFE172:
 4146              		.section	.text.HAL_QSPI_GetFifoThreshold,"ax",%progbits
 4147              		.align	1
 4148              		.global	HAL_QSPI_GetFifoThreshold
 4149              		.syntax unified
 4150              		.thumb
 4151              		.thumb_func
 4153              	HAL_QSPI_GetFifoThreshold:
 4154              	.LFB173:
2435:Drivers/STM32F7xx_HAL_Driver/Src/stm32f7xx_hal_qspi.c **** 
2436:Drivers/STM32F7xx_HAL_Driver/Src/stm32f7xx_hal_qspi.c **** /** @brief Get QSPI Fifo threshold.
2437:Drivers/STM32F7xx_HAL_Driver/Src/stm32f7xx_hal_qspi.c ****   * @param  hqspi QSPI handle.
2438:Drivers/STM32F7xx_HAL_Driver/Src/stm32f7xx_hal_qspi.c ****   * @retval Fifo threshold (value between 1 and 16)
2439:Drivers/STM32F7xx_HAL_Driver/Src/stm32f7xx_hal_qspi.c ****   */
2440:Drivers/STM32F7xx_HAL_Driver/Src/stm32f7xx_hal_qspi.c **** uint32_t HAL_QSPI_GetFifoThreshold(QSPI_HandleTypeDef *hqspi)
2441:Drivers/STM32F7xx_HAL_Driver/Src/stm32f7xx_hal_qspi.c **** {
 4155              		.loc 1 2441 1
 4156              		.cfi_startproc
 4157              		@ args = 0, pretend = 0, frame = 8
 4158              		@ frame_needed = 1, uses_anonymous_args = 0
ARM GAS  C:\Users\jisu8\AppData\Local\Temp\ccA6Ygqq.s 			page 116


 4159              		@ link register save eliminated.
 4160 0000 80B4     		push	{r7}
 4161              	.LCFI178:
 4162              		.cfi_def_cfa_offset 4
 4163              		.cfi_offset 7, -4
 4164 0002 83B0     		sub	sp, sp, #12
 4165              	.LCFI179:
 4166              		.cfi_def_cfa_offset 16
 4167 0004 00AF     		add	r7, sp, #0
 4168              	.LCFI180:
 4169              		.cfi_def_cfa_register 7
 4170 0006 7860     		str	r0, [r7, #4]
2442:Drivers/STM32F7xx_HAL_Driver/Src/stm32f7xx_hal_qspi.c ****   return ((READ_BIT(hqspi->Instance->CR, QUADSPI_CR_FTHRES) >> QUADSPI_CR_FTHRES_Pos) + 1U);
 4171              		.loc 1 2442 12
 4172 0008 7B68     		ldr	r3, [r7, #4]
 4173 000a 1B68     		ldr	r3, [r3]
 4174 000c 1B68     		ldr	r3, [r3]
 4175              		.loc 1 2442 61
 4176 000e 1B0A     		lsrs	r3, r3, #8
 4177 0010 03F01F03 		and	r3, r3, #31
 4178              		.loc 1 2442 87
 4179 0014 0133     		adds	r3, r3, #1
2443:Drivers/STM32F7xx_HAL_Driver/Src/stm32f7xx_hal_qspi.c **** }
 4180              		.loc 1 2443 1
 4181 0016 1846     		mov	r0, r3
 4182 0018 0C37     		adds	r7, r7, #12
 4183              	.LCFI181:
 4184              		.cfi_def_cfa_offset 4
 4185 001a BD46     		mov	sp, r7
 4186              	.LCFI182:
 4187              		.cfi_def_cfa_register 13
 4188              		@ sp needed
 4189 001c 5DF8047B 		ldr	r7, [sp], #4
 4190              	.LCFI183:
 4191              		.cfi_restore 7
 4192              		.cfi_def_cfa_offset 0
 4193 0020 7047     		bx	lr
 4194              		.cfi_endproc
 4195              	.LFE173:
 4197              		.section	.text.HAL_QSPI_SetFlashID,"ax",%progbits
 4198              		.align	1
 4199              		.global	HAL_QSPI_SetFlashID
 4200              		.syntax unified
 4201              		.thumb
 4202              		.thumb_func
 4204              	HAL_QSPI_SetFlashID:
 4205              	.LFB174:
2444:Drivers/STM32F7xx_HAL_Driver/Src/stm32f7xx_hal_qspi.c **** 
2445:Drivers/STM32F7xx_HAL_Driver/Src/stm32f7xx_hal_qspi.c **** /** @brief  Set FlashID.
2446:Drivers/STM32F7xx_HAL_Driver/Src/stm32f7xx_hal_qspi.c ****   * @param  hqspi QSPI handle.
2447:Drivers/STM32F7xx_HAL_Driver/Src/stm32f7xx_hal_qspi.c ****   * @param  FlashID Index of the flash memory to be accessed.
2448:Drivers/STM32F7xx_HAL_Driver/Src/stm32f7xx_hal_qspi.c ****   *                   This parameter can be a value of @ref QSPI_Flash_Select.
2449:Drivers/STM32F7xx_HAL_Driver/Src/stm32f7xx_hal_qspi.c ****   * @note   The FlashID is ignored when dual flash mode is enabled.
2450:Drivers/STM32F7xx_HAL_Driver/Src/stm32f7xx_hal_qspi.c ****   * @retval HAL status
2451:Drivers/STM32F7xx_HAL_Driver/Src/stm32f7xx_hal_qspi.c ****   */
2452:Drivers/STM32F7xx_HAL_Driver/Src/stm32f7xx_hal_qspi.c **** HAL_StatusTypeDef HAL_QSPI_SetFlashID(QSPI_HandleTypeDef *hqspi, uint32_t FlashID)
2453:Drivers/STM32F7xx_HAL_Driver/Src/stm32f7xx_hal_qspi.c **** {
ARM GAS  C:\Users\jisu8\AppData\Local\Temp\ccA6Ygqq.s 			page 117


 4206              		.loc 1 2453 1
 4207              		.cfi_startproc
 4208              		@ args = 0, pretend = 0, frame = 16
 4209              		@ frame_needed = 1, uses_anonymous_args = 0
 4210              		@ link register save eliminated.
 4211 0000 80B4     		push	{r7}
 4212              	.LCFI184:
 4213              		.cfi_def_cfa_offset 4
 4214              		.cfi_offset 7, -4
 4215 0002 85B0     		sub	sp, sp, #20
 4216              	.LCFI185:
 4217              		.cfi_def_cfa_offset 24
 4218 0004 00AF     		add	r7, sp, #0
 4219              	.LCFI186:
 4220              		.cfi_def_cfa_register 7
 4221 0006 7860     		str	r0, [r7, #4]
 4222 0008 3960     		str	r1, [r7]
2454:Drivers/STM32F7xx_HAL_Driver/Src/stm32f7xx_hal_qspi.c ****   HAL_StatusTypeDef status = HAL_OK;
 4223              		.loc 1 2454 21
 4224 000a 0023     		movs	r3, #0
 4225 000c FB73     		strb	r3, [r7, #15]
2455:Drivers/STM32F7xx_HAL_Driver/Src/stm32f7xx_hal_qspi.c **** 
2456:Drivers/STM32F7xx_HAL_Driver/Src/stm32f7xx_hal_qspi.c ****   /* Check the parameter */
2457:Drivers/STM32F7xx_HAL_Driver/Src/stm32f7xx_hal_qspi.c ****   assert_param(IS_QSPI_FLASH_ID(FlashID));
2458:Drivers/STM32F7xx_HAL_Driver/Src/stm32f7xx_hal_qspi.c **** 
2459:Drivers/STM32F7xx_HAL_Driver/Src/stm32f7xx_hal_qspi.c ****   /* Process locked */
2460:Drivers/STM32F7xx_HAL_Driver/Src/stm32f7xx_hal_qspi.c ****   __HAL_LOCK(hqspi);
 4226              		.loc 1 2460 3
 4227 000e 7B68     		ldr	r3, [r7, #4]
 4228 0010 93F84030 		ldrb	r3, [r3, #64]
 4229 0014 DBB2     		uxtb	r3, r3
 4230 0016 012B     		cmp	r3, #1
 4231 0018 01D1     		bne	.L188
 4232              		.loc 1 2460 3 is_stmt 0 discriminator 1
 4233 001a 0223     		movs	r3, #2
 4234 001c 1EE0     		b	.L189
 4235              	.L188:
 4236              		.loc 1 2460 3 discriminator 2
 4237 001e 7B68     		ldr	r3, [r7, #4]
 4238 0020 0122     		movs	r2, #1
 4239 0022 83F84020 		strb	r2, [r3, #64]
2461:Drivers/STM32F7xx_HAL_Driver/Src/stm32f7xx_hal_qspi.c **** 
2462:Drivers/STM32F7xx_HAL_Driver/Src/stm32f7xx_hal_qspi.c ****   if(hqspi->State == HAL_QSPI_STATE_READY)
 4240              		.loc 1 2462 11 is_stmt 1 discriminator 2
 4241 0026 7B68     		ldr	r3, [r7, #4]
 4242 0028 93F84130 		ldrb	r3, [r3, #65]
 4243 002c DBB2     		uxtb	r3, r3
 4244              		.loc 1 2462 5 discriminator 2
 4245 002e 012B     		cmp	r3, #1
 4246 0030 0DD1     		bne	.L190
2463:Drivers/STM32F7xx_HAL_Driver/Src/stm32f7xx_hal_qspi.c ****   {
2464:Drivers/STM32F7xx_HAL_Driver/Src/stm32f7xx_hal_qspi.c ****     /* Synchronize init structure with new FlashID value */
2465:Drivers/STM32F7xx_HAL_Driver/Src/stm32f7xx_hal_qspi.c ****     hqspi->Init.FlashID = FlashID;
 4247              		.loc 1 2465 25
 4248 0032 7B68     		ldr	r3, [r7, #4]
 4249 0034 3A68     		ldr	r2, [r7]
 4250 0036 DA61     		str	r2, [r3, #28]
ARM GAS  C:\Users\jisu8\AppData\Local\Temp\ccA6Ygqq.s 			page 118


2466:Drivers/STM32F7xx_HAL_Driver/Src/stm32f7xx_hal_qspi.c **** 
2467:Drivers/STM32F7xx_HAL_Driver/Src/stm32f7xx_hal_qspi.c ****     /* Configure QSPI FlashID */
2468:Drivers/STM32F7xx_HAL_Driver/Src/stm32f7xx_hal_qspi.c ****     MODIFY_REG(hqspi->Instance->CR, QUADSPI_CR_FSEL, FlashID);
 4251              		.loc 1 2468 5
 4252 0038 7B68     		ldr	r3, [r7, #4]
 4253 003a 1B68     		ldr	r3, [r3]
 4254 003c 1B68     		ldr	r3, [r3]
 4255 003e 23F08001 		bic	r1, r3, #128
 4256 0042 7B68     		ldr	r3, [r7, #4]
 4257 0044 1B68     		ldr	r3, [r3]
 4258 0046 3A68     		ldr	r2, [r7]
 4259 0048 0A43     		orrs	r2, r2, r1
 4260 004a 1A60     		str	r2, [r3]
 4261 004c 01E0     		b	.L191
 4262              	.L190:
2469:Drivers/STM32F7xx_HAL_Driver/Src/stm32f7xx_hal_qspi.c ****   }
2470:Drivers/STM32F7xx_HAL_Driver/Src/stm32f7xx_hal_qspi.c ****   else
2471:Drivers/STM32F7xx_HAL_Driver/Src/stm32f7xx_hal_qspi.c ****   {
2472:Drivers/STM32F7xx_HAL_Driver/Src/stm32f7xx_hal_qspi.c ****     status = HAL_BUSY;
 4263              		.loc 1 2472 12
 4264 004e 0223     		movs	r3, #2
 4265 0050 FB73     		strb	r3, [r7, #15]
 4266              	.L191:
2473:Drivers/STM32F7xx_HAL_Driver/Src/stm32f7xx_hal_qspi.c ****   }
2474:Drivers/STM32F7xx_HAL_Driver/Src/stm32f7xx_hal_qspi.c **** 
2475:Drivers/STM32F7xx_HAL_Driver/Src/stm32f7xx_hal_qspi.c ****   /* Process unlocked */
2476:Drivers/STM32F7xx_HAL_Driver/Src/stm32f7xx_hal_qspi.c ****   __HAL_UNLOCK(hqspi);
 4267              		.loc 1 2476 3
 4268 0052 7B68     		ldr	r3, [r7, #4]
 4269 0054 0022     		movs	r2, #0
 4270 0056 83F84020 		strb	r2, [r3, #64]
2477:Drivers/STM32F7xx_HAL_Driver/Src/stm32f7xx_hal_qspi.c **** 
2478:Drivers/STM32F7xx_HAL_Driver/Src/stm32f7xx_hal_qspi.c ****   /* Return function status */
2479:Drivers/STM32F7xx_HAL_Driver/Src/stm32f7xx_hal_qspi.c ****   return status;
 4271              		.loc 1 2479 10
 4272 005a FB7B     		ldrb	r3, [r7, #15]	@ zero_extendqisi2
 4273              	.L189:
2480:Drivers/STM32F7xx_HAL_Driver/Src/stm32f7xx_hal_qspi.c **** }
 4274              		.loc 1 2480 1
 4275 005c 1846     		mov	r0, r3
 4276 005e 1437     		adds	r7, r7, #20
 4277              	.LCFI187:
 4278              		.cfi_def_cfa_offset 4
 4279 0060 BD46     		mov	sp, r7
 4280              	.LCFI188:
 4281              		.cfi_def_cfa_register 13
 4282              		@ sp needed
 4283 0062 5DF8047B 		ldr	r7, [sp], #4
 4284              	.LCFI189:
 4285              		.cfi_restore 7
 4286              		.cfi_def_cfa_offset 0
 4287 0066 7047     		bx	lr
 4288              		.cfi_endproc
 4289              	.LFE174:
 4291              		.section	.text.QSPI_DMARxCplt,"ax",%progbits
 4292              		.align	1
 4293              		.syntax unified
ARM GAS  C:\Users\jisu8\AppData\Local\Temp\ccA6Ygqq.s 			page 119


 4294              		.thumb
 4295              		.thumb_func
 4297              	QSPI_DMARxCplt:
 4298              	.LFB175:
2481:Drivers/STM32F7xx_HAL_Driver/Src/stm32f7xx_hal_qspi.c **** 
2482:Drivers/STM32F7xx_HAL_Driver/Src/stm32f7xx_hal_qspi.c **** /**
2483:Drivers/STM32F7xx_HAL_Driver/Src/stm32f7xx_hal_qspi.c ****   * @}
2484:Drivers/STM32F7xx_HAL_Driver/Src/stm32f7xx_hal_qspi.c ****   */
2485:Drivers/STM32F7xx_HAL_Driver/Src/stm32f7xx_hal_qspi.c **** 
2486:Drivers/STM32F7xx_HAL_Driver/Src/stm32f7xx_hal_qspi.c **** /**
2487:Drivers/STM32F7xx_HAL_Driver/Src/stm32f7xx_hal_qspi.c ****   * @}
2488:Drivers/STM32F7xx_HAL_Driver/Src/stm32f7xx_hal_qspi.c ****   */
2489:Drivers/STM32F7xx_HAL_Driver/Src/stm32f7xx_hal_qspi.c **** 
2490:Drivers/STM32F7xx_HAL_Driver/Src/stm32f7xx_hal_qspi.c **** /** @defgroup QSPI_Private_Functions QSPI Private Functions
2491:Drivers/STM32F7xx_HAL_Driver/Src/stm32f7xx_hal_qspi.c ****   * @{
2492:Drivers/STM32F7xx_HAL_Driver/Src/stm32f7xx_hal_qspi.c ****   */
2493:Drivers/STM32F7xx_HAL_Driver/Src/stm32f7xx_hal_qspi.c **** 
2494:Drivers/STM32F7xx_HAL_Driver/Src/stm32f7xx_hal_qspi.c **** /**
2495:Drivers/STM32F7xx_HAL_Driver/Src/stm32f7xx_hal_qspi.c ****   * @brief  DMA QSPI receive process complete callback.
2496:Drivers/STM32F7xx_HAL_Driver/Src/stm32f7xx_hal_qspi.c ****   * @param  hdma DMA handle
2497:Drivers/STM32F7xx_HAL_Driver/Src/stm32f7xx_hal_qspi.c ****   * @retval None
2498:Drivers/STM32F7xx_HAL_Driver/Src/stm32f7xx_hal_qspi.c ****   */
2499:Drivers/STM32F7xx_HAL_Driver/Src/stm32f7xx_hal_qspi.c **** static void QSPI_DMARxCplt(DMA_HandleTypeDef *hdma)
2500:Drivers/STM32F7xx_HAL_Driver/Src/stm32f7xx_hal_qspi.c **** {
 4299              		.loc 1 2500 1
 4300              		.cfi_startproc
 4301              		@ args = 0, pretend = 0, frame = 16
 4302              		@ frame_needed = 1, uses_anonymous_args = 0
 4303              		@ link register save eliminated.
 4304 0000 80B4     		push	{r7}
 4305              	.LCFI190:
 4306              		.cfi_def_cfa_offset 4
 4307              		.cfi_offset 7, -4
 4308 0002 85B0     		sub	sp, sp, #20
 4309              	.LCFI191:
 4310              		.cfi_def_cfa_offset 24
 4311 0004 00AF     		add	r7, sp, #0
 4312              	.LCFI192:
 4313              		.cfi_def_cfa_register 7
 4314 0006 7860     		str	r0, [r7, #4]
2501:Drivers/STM32F7xx_HAL_Driver/Src/stm32f7xx_hal_qspi.c ****   QSPI_HandleTypeDef* hqspi = (QSPI_HandleTypeDef*)(hdma->Parent);
 4315              		.loc 1 2501 23
 4316 0008 7B68     		ldr	r3, [r7, #4]
 4317 000a 9B6B     		ldr	r3, [r3, #56]
 4318 000c FB60     		str	r3, [r7, #12]
2502:Drivers/STM32F7xx_HAL_Driver/Src/stm32f7xx_hal_qspi.c ****   hqspi->RxXferCount = 0U;
 4319              		.loc 1 2502 22
 4320 000e FB68     		ldr	r3, [r7, #12]
 4321 0010 0022     		movs	r2, #0
 4322 0012 9A63     		str	r2, [r3, #56]
2503:Drivers/STM32F7xx_HAL_Driver/Src/stm32f7xx_hal_qspi.c **** 
2504:Drivers/STM32F7xx_HAL_Driver/Src/stm32f7xx_hal_qspi.c ****   /* Enable the QSPI transfer complete Interrupt */
2505:Drivers/STM32F7xx_HAL_Driver/Src/stm32f7xx_hal_qspi.c ****   __HAL_QSPI_ENABLE_IT(hqspi, QSPI_IT_TC);
 4323              		.loc 1 2505 3
 4324 0014 FB68     		ldr	r3, [r7, #12]
 4325 0016 1B68     		ldr	r3, [r3]
 4326 0018 1A68     		ldr	r2, [r3]
ARM GAS  C:\Users\jisu8\AppData\Local\Temp\ccA6Ygqq.s 			page 120


 4327 001a FB68     		ldr	r3, [r7, #12]
 4328 001c 1B68     		ldr	r3, [r3]
 4329 001e 42F40032 		orr	r2, r2, #131072
 4330 0022 1A60     		str	r2, [r3]
2506:Drivers/STM32F7xx_HAL_Driver/Src/stm32f7xx_hal_qspi.c **** }
 4331              		.loc 1 2506 1
 4332 0024 00BF     		nop
 4333 0026 1437     		adds	r7, r7, #20
 4334              	.LCFI193:
 4335              		.cfi_def_cfa_offset 4
 4336 0028 BD46     		mov	sp, r7
 4337              	.LCFI194:
 4338              		.cfi_def_cfa_register 13
 4339              		@ sp needed
 4340 002a 5DF8047B 		ldr	r7, [sp], #4
 4341              	.LCFI195:
 4342              		.cfi_restore 7
 4343              		.cfi_def_cfa_offset 0
 4344 002e 7047     		bx	lr
 4345              		.cfi_endproc
 4346              	.LFE175:
 4348              		.section	.text.QSPI_DMATxCplt,"ax",%progbits
 4349              		.align	1
 4350              		.syntax unified
 4351              		.thumb
 4352              		.thumb_func
 4354              	QSPI_DMATxCplt:
 4355              	.LFB176:
2507:Drivers/STM32F7xx_HAL_Driver/Src/stm32f7xx_hal_qspi.c **** 
2508:Drivers/STM32F7xx_HAL_Driver/Src/stm32f7xx_hal_qspi.c **** /**
2509:Drivers/STM32F7xx_HAL_Driver/Src/stm32f7xx_hal_qspi.c ****   * @brief  DMA QSPI transmit process complete callback.
2510:Drivers/STM32F7xx_HAL_Driver/Src/stm32f7xx_hal_qspi.c ****   * @param  hdma DMA handle
2511:Drivers/STM32F7xx_HAL_Driver/Src/stm32f7xx_hal_qspi.c ****   * @retval None
2512:Drivers/STM32F7xx_HAL_Driver/Src/stm32f7xx_hal_qspi.c ****   */
2513:Drivers/STM32F7xx_HAL_Driver/Src/stm32f7xx_hal_qspi.c **** static void QSPI_DMATxCplt(DMA_HandleTypeDef *hdma)
2514:Drivers/STM32F7xx_HAL_Driver/Src/stm32f7xx_hal_qspi.c **** {
 4356              		.loc 1 2514 1
 4357              		.cfi_startproc
 4358              		@ args = 0, pretend = 0, frame = 16
 4359              		@ frame_needed = 1, uses_anonymous_args = 0
 4360              		@ link register save eliminated.
 4361 0000 80B4     		push	{r7}
 4362              	.LCFI196:
 4363              		.cfi_def_cfa_offset 4
 4364              		.cfi_offset 7, -4
 4365 0002 85B0     		sub	sp, sp, #20
 4366              	.LCFI197:
 4367              		.cfi_def_cfa_offset 24
 4368 0004 00AF     		add	r7, sp, #0
 4369              	.LCFI198:
 4370              		.cfi_def_cfa_register 7
 4371 0006 7860     		str	r0, [r7, #4]
2515:Drivers/STM32F7xx_HAL_Driver/Src/stm32f7xx_hal_qspi.c ****   QSPI_HandleTypeDef* hqspi = (QSPI_HandleTypeDef*)(hdma->Parent);
 4372              		.loc 1 2515 23
 4373 0008 7B68     		ldr	r3, [r7, #4]
 4374 000a 9B6B     		ldr	r3, [r3, #56]
 4375 000c FB60     		str	r3, [r7, #12]
ARM GAS  C:\Users\jisu8\AppData\Local\Temp\ccA6Ygqq.s 			page 121


2516:Drivers/STM32F7xx_HAL_Driver/Src/stm32f7xx_hal_qspi.c ****   hqspi->TxXferCount = 0U;
 4376              		.loc 1 2516 22
 4377 000e FB68     		ldr	r3, [r7, #12]
 4378 0010 0022     		movs	r2, #0
 4379 0012 DA62     		str	r2, [r3, #44]
2517:Drivers/STM32F7xx_HAL_Driver/Src/stm32f7xx_hal_qspi.c **** 
2518:Drivers/STM32F7xx_HAL_Driver/Src/stm32f7xx_hal_qspi.c ****   /* Enable the QSPI transfer complete Interrupt */
2519:Drivers/STM32F7xx_HAL_Driver/Src/stm32f7xx_hal_qspi.c ****   __HAL_QSPI_ENABLE_IT(hqspi, QSPI_IT_TC);
 4380              		.loc 1 2519 3
 4381 0014 FB68     		ldr	r3, [r7, #12]
 4382 0016 1B68     		ldr	r3, [r3]
 4383 0018 1A68     		ldr	r2, [r3]
 4384 001a FB68     		ldr	r3, [r7, #12]
 4385 001c 1B68     		ldr	r3, [r3]
 4386 001e 42F40032 		orr	r2, r2, #131072
 4387 0022 1A60     		str	r2, [r3]
2520:Drivers/STM32F7xx_HAL_Driver/Src/stm32f7xx_hal_qspi.c **** }
 4388              		.loc 1 2520 1
 4389 0024 00BF     		nop
 4390 0026 1437     		adds	r7, r7, #20
 4391              	.LCFI199:
 4392              		.cfi_def_cfa_offset 4
 4393 0028 BD46     		mov	sp, r7
 4394              	.LCFI200:
 4395              		.cfi_def_cfa_register 13
 4396              		@ sp needed
 4397 002a 5DF8047B 		ldr	r7, [sp], #4
 4398              	.LCFI201:
 4399              		.cfi_restore 7
 4400              		.cfi_def_cfa_offset 0
 4401 002e 7047     		bx	lr
 4402              		.cfi_endproc
 4403              	.LFE176:
 4405              		.section	.text.QSPI_DMARxHalfCplt,"ax",%progbits
 4406              		.align	1
 4407              		.syntax unified
 4408              		.thumb
 4409              		.thumb_func
 4411              	QSPI_DMARxHalfCplt:
 4412              	.LFB177:
2521:Drivers/STM32F7xx_HAL_Driver/Src/stm32f7xx_hal_qspi.c **** 
2522:Drivers/STM32F7xx_HAL_Driver/Src/stm32f7xx_hal_qspi.c **** /**
2523:Drivers/STM32F7xx_HAL_Driver/Src/stm32f7xx_hal_qspi.c ****   * @brief  DMA QSPI receive process half complete callback.
2524:Drivers/STM32F7xx_HAL_Driver/Src/stm32f7xx_hal_qspi.c ****   * @param  hdma DMA handle
2525:Drivers/STM32F7xx_HAL_Driver/Src/stm32f7xx_hal_qspi.c ****   * @retval None
2526:Drivers/STM32F7xx_HAL_Driver/Src/stm32f7xx_hal_qspi.c ****   */
2527:Drivers/STM32F7xx_HAL_Driver/Src/stm32f7xx_hal_qspi.c **** static void QSPI_DMARxHalfCplt(DMA_HandleTypeDef *hdma)
2528:Drivers/STM32F7xx_HAL_Driver/Src/stm32f7xx_hal_qspi.c **** {
 4413              		.loc 1 2528 1
 4414              		.cfi_startproc
 4415              		@ args = 0, pretend = 0, frame = 16
 4416              		@ frame_needed = 1, uses_anonymous_args = 0
 4417 0000 80B5     		push	{r7, lr}
 4418              	.LCFI202:
 4419              		.cfi_def_cfa_offset 8
 4420              		.cfi_offset 7, -8
 4421              		.cfi_offset 14, -4
ARM GAS  C:\Users\jisu8\AppData\Local\Temp\ccA6Ygqq.s 			page 122


 4422 0002 84B0     		sub	sp, sp, #16
 4423              	.LCFI203:
 4424              		.cfi_def_cfa_offset 24
 4425 0004 00AF     		add	r7, sp, #0
 4426              	.LCFI204:
 4427              		.cfi_def_cfa_register 7
 4428 0006 7860     		str	r0, [r7, #4]
2529:Drivers/STM32F7xx_HAL_Driver/Src/stm32f7xx_hal_qspi.c ****   QSPI_HandleTypeDef* hqspi = (QSPI_HandleTypeDef*)(hdma->Parent);
 4429              		.loc 1 2529 23
 4430 0008 7B68     		ldr	r3, [r7, #4]
 4431 000a 9B6B     		ldr	r3, [r3, #56]
 4432 000c FB60     		str	r3, [r7, #12]
2530:Drivers/STM32F7xx_HAL_Driver/Src/stm32f7xx_hal_qspi.c **** 
2531:Drivers/STM32F7xx_HAL_Driver/Src/stm32f7xx_hal_qspi.c **** #if (USE_HAL_QSPI_REGISTER_CALLBACKS == 1)
2532:Drivers/STM32F7xx_HAL_Driver/Src/stm32f7xx_hal_qspi.c ****   hqspi->RxHalfCpltCallback(hqspi);
2533:Drivers/STM32F7xx_HAL_Driver/Src/stm32f7xx_hal_qspi.c **** #else
2534:Drivers/STM32F7xx_HAL_Driver/Src/stm32f7xx_hal_qspi.c ****   HAL_QSPI_RxHalfCpltCallback(hqspi);
 4433              		.loc 1 2534 3
 4434 000e F868     		ldr	r0, [r7, #12]
 4435 0010 FFF7FEFF 		bl	HAL_QSPI_RxHalfCpltCallback
2535:Drivers/STM32F7xx_HAL_Driver/Src/stm32f7xx_hal_qspi.c **** #endif
2536:Drivers/STM32F7xx_HAL_Driver/Src/stm32f7xx_hal_qspi.c **** }
 4436              		.loc 1 2536 1
 4437 0014 00BF     		nop
 4438 0016 1037     		adds	r7, r7, #16
 4439              	.LCFI205:
 4440              		.cfi_def_cfa_offset 8
 4441 0018 BD46     		mov	sp, r7
 4442              	.LCFI206:
 4443              		.cfi_def_cfa_register 13
 4444              		@ sp needed
 4445 001a 80BD     		pop	{r7, pc}
 4446              		.cfi_endproc
 4447              	.LFE177:
 4449              		.section	.text.QSPI_DMATxHalfCplt,"ax",%progbits
 4450              		.align	1
 4451              		.syntax unified
 4452              		.thumb
 4453              		.thumb_func
 4455              	QSPI_DMATxHalfCplt:
 4456              	.LFB178:
2537:Drivers/STM32F7xx_HAL_Driver/Src/stm32f7xx_hal_qspi.c **** 
2538:Drivers/STM32F7xx_HAL_Driver/Src/stm32f7xx_hal_qspi.c **** /**
2539:Drivers/STM32F7xx_HAL_Driver/Src/stm32f7xx_hal_qspi.c ****   * @brief  DMA QSPI transmit process half complete callback.
2540:Drivers/STM32F7xx_HAL_Driver/Src/stm32f7xx_hal_qspi.c ****   * @param  hdma DMA handle
2541:Drivers/STM32F7xx_HAL_Driver/Src/stm32f7xx_hal_qspi.c ****   * @retval None
2542:Drivers/STM32F7xx_HAL_Driver/Src/stm32f7xx_hal_qspi.c ****   */
2543:Drivers/STM32F7xx_HAL_Driver/Src/stm32f7xx_hal_qspi.c **** static void QSPI_DMATxHalfCplt(DMA_HandleTypeDef *hdma)
2544:Drivers/STM32F7xx_HAL_Driver/Src/stm32f7xx_hal_qspi.c **** {
 4457              		.loc 1 2544 1
 4458              		.cfi_startproc
 4459              		@ args = 0, pretend = 0, frame = 16
 4460              		@ frame_needed = 1, uses_anonymous_args = 0
 4461 0000 80B5     		push	{r7, lr}
 4462              	.LCFI207:
 4463              		.cfi_def_cfa_offset 8
 4464              		.cfi_offset 7, -8
ARM GAS  C:\Users\jisu8\AppData\Local\Temp\ccA6Ygqq.s 			page 123


 4465              		.cfi_offset 14, -4
 4466 0002 84B0     		sub	sp, sp, #16
 4467              	.LCFI208:
 4468              		.cfi_def_cfa_offset 24
 4469 0004 00AF     		add	r7, sp, #0
 4470              	.LCFI209:
 4471              		.cfi_def_cfa_register 7
 4472 0006 7860     		str	r0, [r7, #4]
2545:Drivers/STM32F7xx_HAL_Driver/Src/stm32f7xx_hal_qspi.c ****   QSPI_HandleTypeDef* hqspi = (QSPI_HandleTypeDef*)(hdma->Parent);
 4473              		.loc 1 2545 23
 4474 0008 7B68     		ldr	r3, [r7, #4]
 4475 000a 9B6B     		ldr	r3, [r3, #56]
 4476 000c FB60     		str	r3, [r7, #12]
2546:Drivers/STM32F7xx_HAL_Driver/Src/stm32f7xx_hal_qspi.c **** 
2547:Drivers/STM32F7xx_HAL_Driver/Src/stm32f7xx_hal_qspi.c **** #if (USE_HAL_QSPI_REGISTER_CALLBACKS == 1)
2548:Drivers/STM32F7xx_HAL_Driver/Src/stm32f7xx_hal_qspi.c ****   hqspi->TxHalfCpltCallback(hqspi);
2549:Drivers/STM32F7xx_HAL_Driver/Src/stm32f7xx_hal_qspi.c **** #else
2550:Drivers/STM32F7xx_HAL_Driver/Src/stm32f7xx_hal_qspi.c ****   HAL_QSPI_TxHalfCpltCallback(hqspi);
 4477              		.loc 1 2550 3
 4478 000e F868     		ldr	r0, [r7, #12]
 4479 0010 FFF7FEFF 		bl	HAL_QSPI_TxHalfCpltCallback
2551:Drivers/STM32F7xx_HAL_Driver/Src/stm32f7xx_hal_qspi.c **** #endif
2552:Drivers/STM32F7xx_HAL_Driver/Src/stm32f7xx_hal_qspi.c **** }
 4480              		.loc 1 2552 1
 4481 0014 00BF     		nop
 4482 0016 1037     		adds	r7, r7, #16
 4483              	.LCFI210:
 4484              		.cfi_def_cfa_offset 8
 4485 0018 BD46     		mov	sp, r7
 4486              	.LCFI211:
 4487              		.cfi_def_cfa_register 13
 4488              		@ sp needed
 4489 001a 80BD     		pop	{r7, pc}
 4490              		.cfi_endproc
 4491              	.LFE178:
 4493              		.section	.text.QSPI_DMAError,"ax",%progbits
 4494              		.align	1
 4495              		.syntax unified
 4496              		.thumb
 4497              		.thumb_func
 4499              	QSPI_DMAError:
 4500              	.LFB179:
2553:Drivers/STM32F7xx_HAL_Driver/Src/stm32f7xx_hal_qspi.c **** 
2554:Drivers/STM32F7xx_HAL_Driver/Src/stm32f7xx_hal_qspi.c **** /**
2555:Drivers/STM32F7xx_HAL_Driver/Src/stm32f7xx_hal_qspi.c ****   * @brief  DMA QSPI communication error callback.
2556:Drivers/STM32F7xx_HAL_Driver/Src/stm32f7xx_hal_qspi.c ****   * @param  hdma DMA handle
2557:Drivers/STM32F7xx_HAL_Driver/Src/stm32f7xx_hal_qspi.c ****   * @retval None
2558:Drivers/STM32F7xx_HAL_Driver/Src/stm32f7xx_hal_qspi.c ****   */
2559:Drivers/STM32F7xx_HAL_Driver/Src/stm32f7xx_hal_qspi.c **** static void QSPI_DMAError(DMA_HandleTypeDef *hdma)
2560:Drivers/STM32F7xx_HAL_Driver/Src/stm32f7xx_hal_qspi.c **** {
 4501              		.loc 1 2560 1
 4502              		.cfi_startproc
 4503              		@ args = 0, pretend = 0, frame = 16
 4504              		@ frame_needed = 1, uses_anonymous_args = 0
 4505 0000 80B5     		push	{r7, lr}
 4506              	.LCFI212:
 4507              		.cfi_def_cfa_offset 8
ARM GAS  C:\Users\jisu8\AppData\Local\Temp\ccA6Ygqq.s 			page 124


 4508              		.cfi_offset 7, -8
 4509              		.cfi_offset 14, -4
 4510 0002 84B0     		sub	sp, sp, #16
 4511              	.LCFI213:
 4512              		.cfi_def_cfa_offset 24
 4513 0004 00AF     		add	r7, sp, #0
 4514              	.LCFI214:
 4515              		.cfi_def_cfa_register 7
 4516 0006 7860     		str	r0, [r7, #4]
2561:Drivers/STM32F7xx_HAL_Driver/Src/stm32f7xx_hal_qspi.c ****   QSPI_HandleTypeDef* hqspi = ( QSPI_HandleTypeDef* )(hdma->Parent);
 4517              		.loc 1 2561 23
 4518 0008 7B68     		ldr	r3, [r7, #4]
 4519 000a 9B6B     		ldr	r3, [r3, #56]
 4520 000c FB60     		str	r3, [r7, #12]
2562:Drivers/STM32F7xx_HAL_Driver/Src/stm32f7xx_hal_qspi.c **** 
2563:Drivers/STM32F7xx_HAL_Driver/Src/stm32f7xx_hal_qspi.c ****   /* if DMA error is FIFO error ignore it */
2564:Drivers/STM32F7xx_HAL_Driver/Src/stm32f7xx_hal_qspi.c ****   if(HAL_DMA_GetError(hdma) != HAL_DMA_ERROR_FE)
 4521              		.loc 1 2564 6
 4522 000e 7868     		ldr	r0, [r7, #4]
 4523 0010 FFF7FEFF 		bl	HAL_DMA_GetError
 4524 0014 0346     		mov	r3, r0
 4525              		.loc 1 2564 5
 4526 0016 022B     		cmp	r3, #2
 4527 0018 16D0     		beq	.L198
2565:Drivers/STM32F7xx_HAL_Driver/Src/stm32f7xx_hal_qspi.c ****   {
2566:Drivers/STM32F7xx_HAL_Driver/Src/stm32f7xx_hal_qspi.c ****   hqspi->RxXferCount = 0U;
 4528              		.loc 1 2566 22
 4529 001a FB68     		ldr	r3, [r7, #12]
 4530 001c 0022     		movs	r2, #0
 4531 001e 9A63     		str	r2, [r3, #56]
2567:Drivers/STM32F7xx_HAL_Driver/Src/stm32f7xx_hal_qspi.c ****   hqspi->TxXferCount = 0U;
 4532              		.loc 1 2567 22
 4533 0020 FB68     		ldr	r3, [r7, #12]
 4534 0022 0022     		movs	r2, #0
 4535 0024 DA62     		str	r2, [r3, #44]
2568:Drivers/STM32F7xx_HAL_Driver/Src/stm32f7xx_hal_qspi.c ****   hqspi->ErrorCode   |= HAL_QSPI_ERROR_DMA;
 4536              		.loc 1 2568 22
 4537 0026 FB68     		ldr	r3, [r7, #12]
 4538 0028 5B6C     		ldr	r3, [r3, #68]
 4539 002a 43F00402 		orr	r2, r3, #4
 4540 002e FB68     		ldr	r3, [r7, #12]
 4541 0030 5A64     		str	r2, [r3, #68]
2569:Drivers/STM32F7xx_HAL_Driver/Src/stm32f7xx_hal_qspi.c **** 
2570:Drivers/STM32F7xx_HAL_Driver/Src/stm32f7xx_hal_qspi.c ****   /* Disable the DMA transfer by clearing the DMAEN bit in the QSPI CR register */
2571:Drivers/STM32F7xx_HAL_Driver/Src/stm32f7xx_hal_qspi.c ****   CLEAR_BIT(hqspi->Instance->CR, QUADSPI_CR_DMAEN);
 4542              		.loc 1 2571 3
 4543 0032 FB68     		ldr	r3, [r7, #12]
 4544 0034 1B68     		ldr	r3, [r3]
 4545 0036 1A68     		ldr	r2, [r3]
 4546 0038 FB68     		ldr	r3, [r7, #12]
 4547 003a 1B68     		ldr	r3, [r3]
 4548 003c 22F00402 		bic	r2, r2, #4
 4549 0040 1A60     		str	r2, [r3]
2572:Drivers/STM32F7xx_HAL_Driver/Src/stm32f7xx_hal_qspi.c **** 
2573:Drivers/STM32F7xx_HAL_Driver/Src/stm32f7xx_hal_qspi.c ****   /* Abort the QSPI */
2574:Drivers/STM32F7xx_HAL_Driver/Src/stm32f7xx_hal_qspi.c ****   (void)HAL_QSPI_Abort_IT(hqspi);
 4550              		.loc 1 2574 9
ARM GAS  C:\Users\jisu8\AppData\Local\Temp\ccA6Ygqq.s 			page 125


 4551 0042 F868     		ldr	r0, [r7, #12]
 4552 0044 FFF7FEFF 		bl	HAL_QSPI_Abort_IT
 4553              	.L198:
2575:Drivers/STM32F7xx_HAL_Driver/Src/stm32f7xx_hal_qspi.c **** 
2576:Drivers/STM32F7xx_HAL_Driver/Src/stm32f7xx_hal_qspi.c ****   }
2577:Drivers/STM32F7xx_HAL_Driver/Src/stm32f7xx_hal_qspi.c **** }
 4554              		.loc 1 2577 1
 4555 0048 00BF     		nop
 4556 004a 1037     		adds	r7, r7, #16
 4557              	.LCFI215:
 4558              		.cfi_def_cfa_offset 8
 4559 004c BD46     		mov	sp, r7
 4560              	.LCFI216:
 4561              		.cfi_def_cfa_register 13
 4562              		@ sp needed
 4563 004e 80BD     		pop	{r7, pc}
 4564              		.cfi_endproc
 4565              	.LFE179:
 4567              		.section	.text.QSPI_DMAAbortCplt,"ax",%progbits
 4568              		.align	1
 4569              		.syntax unified
 4570              		.thumb
 4571              		.thumb_func
 4573              	QSPI_DMAAbortCplt:
 4574              	.LFB180:
2578:Drivers/STM32F7xx_HAL_Driver/Src/stm32f7xx_hal_qspi.c **** 
2579:Drivers/STM32F7xx_HAL_Driver/Src/stm32f7xx_hal_qspi.c **** /**
2580:Drivers/STM32F7xx_HAL_Driver/Src/stm32f7xx_hal_qspi.c ****   * @brief  DMA QSPI abort complete callback.
2581:Drivers/STM32F7xx_HAL_Driver/Src/stm32f7xx_hal_qspi.c ****   * @param  hdma DMA handle
2582:Drivers/STM32F7xx_HAL_Driver/Src/stm32f7xx_hal_qspi.c ****   * @retval None
2583:Drivers/STM32F7xx_HAL_Driver/Src/stm32f7xx_hal_qspi.c ****   */
2584:Drivers/STM32F7xx_HAL_Driver/Src/stm32f7xx_hal_qspi.c **** static void QSPI_DMAAbortCplt(DMA_HandleTypeDef *hdma)
2585:Drivers/STM32F7xx_HAL_Driver/Src/stm32f7xx_hal_qspi.c **** {
 4575              		.loc 1 2585 1
 4576              		.cfi_startproc
 4577              		@ args = 0, pretend = 0, frame = 16
 4578              		@ frame_needed = 1, uses_anonymous_args = 0
 4579 0000 80B5     		push	{r7, lr}
 4580              	.LCFI217:
 4581              		.cfi_def_cfa_offset 8
 4582              		.cfi_offset 7, -8
 4583              		.cfi_offset 14, -4
 4584 0002 84B0     		sub	sp, sp, #16
 4585              	.LCFI218:
 4586              		.cfi_def_cfa_offset 24
 4587 0004 00AF     		add	r7, sp, #0
 4588              	.LCFI219:
 4589              		.cfi_def_cfa_register 7
 4590 0006 7860     		str	r0, [r7, #4]
2586:Drivers/STM32F7xx_HAL_Driver/Src/stm32f7xx_hal_qspi.c ****   QSPI_HandleTypeDef* hqspi = ( QSPI_HandleTypeDef* )(hdma->Parent);
 4591              		.loc 1 2586 23
 4592 0008 7B68     		ldr	r3, [r7, #4]
 4593 000a 9B6B     		ldr	r3, [r3, #56]
 4594 000c FB60     		str	r3, [r7, #12]
2587:Drivers/STM32F7xx_HAL_Driver/Src/stm32f7xx_hal_qspi.c **** 
2588:Drivers/STM32F7xx_HAL_Driver/Src/stm32f7xx_hal_qspi.c ****   hqspi->RxXferCount = 0U;
 4595              		.loc 1 2588 22
ARM GAS  C:\Users\jisu8\AppData\Local\Temp\ccA6Ygqq.s 			page 126


 4596 000e FB68     		ldr	r3, [r7, #12]
 4597 0010 0022     		movs	r2, #0
 4598 0012 9A63     		str	r2, [r3, #56]
2589:Drivers/STM32F7xx_HAL_Driver/Src/stm32f7xx_hal_qspi.c ****   hqspi->TxXferCount = 0U;
 4599              		.loc 1 2589 22
 4600 0014 FB68     		ldr	r3, [r7, #12]
 4601 0016 0022     		movs	r2, #0
 4602 0018 DA62     		str	r2, [r3, #44]
2590:Drivers/STM32F7xx_HAL_Driver/Src/stm32f7xx_hal_qspi.c **** 
2591:Drivers/STM32F7xx_HAL_Driver/Src/stm32f7xx_hal_qspi.c ****   if(hqspi->State == HAL_QSPI_STATE_ABORT)
 4603              		.loc 1 2591 11
 4604 001a FB68     		ldr	r3, [r7, #12]
 4605 001c 93F84130 		ldrb	r3, [r3, #65]
 4606 0020 DBB2     		uxtb	r3, r3
 4607              		.loc 1 2591 5
 4608 0022 082B     		cmp	r3, #8
 4609 0024 14D1     		bne	.L200
2592:Drivers/STM32F7xx_HAL_Driver/Src/stm32f7xx_hal_qspi.c ****   {
2593:Drivers/STM32F7xx_HAL_Driver/Src/stm32f7xx_hal_qspi.c ****     /* DMA Abort called by QSPI abort */
2594:Drivers/STM32F7xx_HAL_Driver/Src/stm32f7xx_hal_qspi.c ****     /* Clear interrupt */
2595:Drivers/STM32F7xx_HAL_Driver/Src/stm32f7xx_hal_qspi.c ****     __HAL_QSPI_CLEAR_FLAG(hqspi, QSPI_FLAG_TC);
 4610              		.loc 1 2595 5
 4611 0026 FB68     		ldr	r3, [r7, #12]
 4612 0028 1B68     		ldr	r3, [r3]
 4613 002a 0222     		movs	r2, #2
 4614 002c DA60     		str	r2, [r3, #12]
2596:Drivers/STM32F7xx_HAL_Driver/Src/stm32f7xx_hal_qspi.c **** 
2597:Drivers/STM32F7xx_HAL_Driver/Src/stm32f7xx_hal_qspi.c ****     /* Enable the QSPI Transfer Complete Interrupt */
2598:Drivers/STM32F7xx_HAL_Driver/Src/stm32f7xx_hal_qspi.c ****     __HAL_QSPI_ENABLE_IT(hqspi, QSPI_IT_TC);
 4615              		.loc 1 2598 5
 4616 002e FB68     		ldr	r3, [r7, #12]
 4617 0030 1B68     		ldr	r3, [r3]
 4618 0032 1A68     		ldr	r2, [r3]
 4619 0034 FB68     		ldr	r3, [r7, #12]
 4620 0036 1B68     		ldr	r3, [r3]
 4621 0038 42F40032 		orr	r2, r2, #131072
 4622 003c 1A60     		str	r2, [r3]
2599:Drivers/STM32F7xx_HAL_Driver/Src/stm32f7xx_hal_qspi.c **** 
2600:Drivers/STM32F7xx_HAL_Driver/Src/stm32f7xx_hal_qspi.c ****     /* Configure QSPI: CR register with Abort request */
2601:Drivers/STM32F7xx_HAL_Driver/Src/stm32f7xx_hal_qspi.c ****     SET_BIT(hqspi->Instance->CR, QUADSPI_CR_ABORT);
 4623              		.loc 1 2601 5
 4624 003e FB68     		ldr	r3, [r7, #12]
 4625 0040 1B68     		ldr	r3, [r3]
 4626 0042 1A68     		ldr	r2, [r3]
 4627 0044 FB68     		ldr	r3, [r7, #12]
 4628 0046 1B68     		ldr	r3, [r3]
 4629 0048 42F00202 		orr	r2, r2, #2
 4630 004c 1A60     		str	r2, [r3]
2602:Drivers/STM32F7xx_HAL_Driver/Src/stm32f7xx_hal_qspi.c ****   }
2603:Drivers/STM32F7xx_HAL_Driver/Src/stm32f7xx_hal_qspi.c ****   else
2604:Drivers/STM32F7xx_HAL_Driver/Src/stm32f7xx_hal_qspi.c ****   {
2605:Drivers/STM32F7xx_HAL_Driver/Src/stm32f7xx_hal_qspi.c ****     /* DMA Abort called due to a transfer error interrupt */
2606:Drivers/STM32F7xx_HAL_Driver/Src/stm32f7xx_hal_qspi.c ****     /* Change state of QSPI */
2607:Drivers/STM32F7xx_HAL_Driver/Src/stm32f7xx_hal_qspi.c ****     hqspi->State = HAL_QSPI_STATE_READY;
2608:Drivers/STM32F7xx_HAL_Driver/Src/stm32f7xx_hal_qspi.c **** 
2609:Drivers/STM32F7xx_HAL_Driver/Src/stm32f7xx_hal_qspi.c ****     /* Error callback */
2610:Drivers/STM32F7xx_HAL_Driver/Src/stm32f7xx_hal_qspi.c **** #if (USE_HAL_QSPI_REGISTER_CALLBACKS == 1)
ARM GAS  C:\Users\jisu8\AppData\Local\Temp\ccA6Ygqq.s 			page 127


2611:Drivers/STM32F7xx_HAL_Driver/Src/stm32f7xx_hal_qspi.c ****     hqspi->ErrorCallback(hqspi);
2612:Drivers/STM32F7xx_HAL_Driver/Src/stm32f7xx_hal_qspi.c **** #else
2613:Drivers/STM32F7xx_HAL_Driver/Src/stm32f7xx_hal_qspi.c ****     HAL_QSPI_ErrorCallback(hqspi);
2614:Drivers/STM32F7xx_HAL_Driver/Src/stm32f7xx_hal_qspi.c **** #endif
2615:Drivers/STM32F7xx_HAL_Driver/Src/stm32f7xx_hal_qspi.c ****   }
2616:Drivers/STM32F7xx_HAL_Driver/Src/stm32f7xx_hal_qspi.c **** }
 4631              		.loc 1 2616 1
 4632 004e 06E0     		b	.L202
 4633              	.L200:
2607:Drivers/STM32F7xx_HAL_Driver/Src/stm32f7xx_hal_qspi.c **** 
 4634              		.loc 1 2607 18
 4635 0050 FB68     		ldr	r3, [r7, #12]
 4636 0052 0122     		movs	r2, #1
 4637 0054 83F84120 		strb	r2, [r3, #65]
2613:Drivers/STM32F7xx_HAL_Driver/Src/stm32f7xx_hal_qspi.c **** #endif
 4638              		.loc 1 2613 5
 4639 0058 F868     		ldr	r0, [r7, #12]
 4640 005a FFF7FEFF 		bl	HAL_QSPI_ErrorCallback
 4641              	.L202:
 4642              		.loc 1 2616 1
 4643 005e 00BF     		nop
 4644 0060 1037     		adds	r7, r7, #16
 4645              	.LCFI220:
 4646              		.cfi_def_cfa_offset 8
 4647 0062 BD46     		mov	sp, r7
 4648              	.LCFI221:
 4649              		.cfi_def_cfa_register 13
 4650              		@ sp needed
 4651 0064 80BD     		pop	{r7, pc}
 4652              		.cfi_endproc
 4653              	.LFE180:
 4655              		.section	.text.QSPI_WaitFlagStateUntilTimeout,"ax",%progbits
 4656              		.align	1
 4657              		.syntax unified
 4658              		.thumb
 4659              		.thumb_func
 4661              	QSPI_WaitFlagStateUntilTimeout:
 4662              	.LFB181:
2617:Drivers/STM32F7xx_HAL_Driver/Src/stm32f7xx_hal_qspi.c **** 
2618:Drivers/STM32F7xx_HAL_Driver/Src/stm32f7xx_hal_qspi.c **** /**
2619:Drivers/STM32F7xx_HAL_Driver/Src/stm32f7xx_hal_qspi.c ****   * @brief  Wait for a flag state until timeout.
2620:Drivers/STM32F7xx_HAL_Driver/Src/stm32f7xx_hal_qspi.c ****   * @param  hqspi QSPI handle
2621:Drivers/STM32F7xx_HAL_Driver/Src/stm32f7xx_hal_qspi.c ****   * @param  Flag Flag checked
2622:Drivers/STM32F7xx_HAL_Driver/Src/stm32f7xx_hal_qspi.c ****   * @param  State Value of the flag expected
2623:Drivers/STM32F7xx_HAL_Driver/Src/stm32f7xx_hal_qspi.c ****   * @param  Tickstart Tick start value
2624:Drivers/STM32F7xx_HAL_Driver/Src/stm32f7xx_hal_qspi.c ****   * @param  Timeout Duration of the timeout
2625:Drivers/STM32F7xx_HAL_Driver/Src/stm32f7xx_hal_qspi.c ****   * @retval HAL status
2626:Drivers/STM32F7xx_HAL_Driver/Src/stm32f7xx_hal_qspi.c ****   */
2627:Drivers/STM32F7xx_HAL_Driver/Src/stm32f7xx_hal_qspi.c **** static HAL_StatusTypeDef QSPI_WaitFlagStateUntilTimeout(QSPI_HandleTypeDef *hqspi, uint32_t Flag,
2628:Drivers/STM32F7xx_HAL_Driver/Src/stm32f7xx_hal_qspi.c ****                                                         FlagStatus State, uint32_t Tickstart, uint3
2629:Drivers/STM32F7xx_HAL_Driver/Src/stm32f7xx_hal_qspi.c **** {
 4663              		.loc 1 2629 1
 4664              		.cfi_startproc
 4665              		@ args = 4, pretend = 0, frame = 16
 4666              		@ frame_needed = 1, uses_anonymous_args = 0
 4667 0000 80B5     		push	{r7, lr}
 4668              	.LCFI222:
ARM GAS  C:\Users\jisu8\AppData\Local\Temp\ccA6Ygqq.s 			page 128


 4669              		.cfi_def_cfa_offset 8
 4670              		.cfi_offset 7, -8
 4671              		.cfi_offset 14, -4
 4672 0002 84B0     		sub	sp, sp, #16
 4673              	.LCFI223:
 4674              		.cfi_def_cfa_offset 24
 4675 0004 00AF     		add	r7, sp, #0
 4676              	.LCFI224:
 4677              		.cfi_def_cfa_register 7
 4678 0006 F860     		str	r0, [r7, #12]
 4679 0008 B960     		str	r1, [r7, #8]
 4680 000a 3B60     		str	r3, [r7]
 4681 000c 1346     		mov	r3, r2
 4682 000e FB71     		strb	r3, [r7, #7]
2630:Drivers/STM32F7xx_HAL_Driver/Src/stm32f7xx_hal_qspi.c ****   /* Wait until flag is in expected state */
2631:Drivers/STM32F7xx_HAL_Driver/Src/stm32f7xx_hal_qspi.c ****   while((__HAL_QSPI_GET_FLAG(hqspi, Flag)) != State)
 4683              		.loc 1 2631 8
 4684 0010 1AE0     		b	.L204
 4685              	.L207:
2632:Drivers/STM32F7xx_HAL_Driver/Src/stm32f7xx_hal_qspi.c ****   {
2633:Drivers/STM32F7xx_HAL_Driver/Src/stm32f7xx_hal_qspi.c ****     /* Check for the Timeout */
2634:Drivers/STM32F7xx_HAL_Driver/Src/stm32f7xx_hal_qspi.c ****     if (Timeout != HAL_MAX_DELAY)
 4686              		.loc 1 2634 8
 4687 0012 BB69     		ldr	r3, [r7, #24]
 4688 0014 B3F1FF3F 		cmp	r3, #-1
 4689 0018 16D0     		beq	.L204
2635:Drivers/STM32F7xx_HAL_Driver/Src/stm32f7xx_hal_qspi.c ****     {
2636:Drivers/STM32F7xx_HAL_Driver/Src/stm32f7xx_hal_qspi.c ****       if(((HAL_GetTick() - Tickstart) > Timeout) || (Timeout == 0U))
 4690              		.loc 1 2636 12
 4691 001a FFF7FEFF 		bl	HAL_GetTick
 4692 001e 0246     		mov	r2, r0
 4693              		.loc 1 2636 26
 4694 0020 3B68     		ldr	r3, [r7]
 4695 0022 D31A     		subs	r3, r2, r3
 4696              		.loc 1 2636 9
 4697 0024 BA69     		ldr	r2, [r7, #24]
 4698 0026 9A42     		cmp	r2, r3
 4699 0028 02D3     		bcc	.L205
 4700              		.loc 1 2636 50 discriminator 1
 4701 002a BB69     		ldr	r3, [r7, #24]
 4702 002c 002B     		cmp	r3, #0
 4703 002e 0BD1     		bne	.L204
 4704              	.L205:
2637:Drivers/STM32F7xx_HAL_Driver/Src/stm32f7xx_hal_qspi.c ****       {
2638:Drivers/STM32F7xx_HAL_Driver/Src/stm32f7xx_hal_qspi.c ****         hqspi->State     = HAL_QSPI_STATE_ERROR;
 4705              		.loc 1 2638 26
 4706 0030 FB68     		ldr	r3, [r7, #12]
 4707 0032 0422     		movs	r2, #4
 4708 0034 83F84120 		strb	r2, [r3, #65]
2639:Drivers/STM32F7xx_HAL_Driver/Src/stm32f7xx_hal_qspi.c ****         hqspi->ErrorCode |= HAL_QSPI_ERROR_TIMEOUT;
 4709              		.loc 1 2639 26
 4710 0038 FB68     		ldr	r3, [r7, #12]
 4711 003a 5B6C     		ldr	r3, [r3, #68]
 4712 003c 43F00102 		orr	r2, r3, #1
 4713 0040 FB68     		ldr	r3, [r7, #12]
 4714 0042 5A64     		str	r2, [r3, #68]
2640:Drivers/STM32F7xx_HAL_Driver/Src/stm32f7xx_hal_qspi.c **** 
ARM GAS  C:\Users\jisu8\AppData\Local\Temp\ccA6Ygqq.s 			page 129


2641:Drivers/STM32F7xx_HAL_Driver/Src/stm32f7xx_hal_qspi.c ****         return HAL_ERROR;
 4715              		.loc 1 2641 16
 4716 0044 0123     		movs	r3, #1
 4717 0046 0EE0     		b	.L206
 4718              	.L204:
2631:Drivers/STM32F7xx_HAL_Driver/Src/stm32f7xx_hal_qspi.c ****   {
 4719              		.loc 1 2631 10
 4720 0048 FB68     		ldr	r3, [r7, #12]
 4721 004a 1B68     		ldr	r3, [r3]
 4722 004c 9A68     		ldr	r2, [r3, #8]
 4723 004e BB68     		ldr	r3, [r7, #8]
 4724 0050 1340     		ands	r3, r3, r2
 4725 0052 002B     		cmp	r3, #0
 4726 0054 14BF     		ite	ne
 4727 0056 0123     		movne	r3, #1
 4728 0058 0023     		moveq	r3, #0
 4729 005a DBB2     		uxtb	r3, r3
 4730 005c 1A46     		mov	r2, r3
2631:Drivers/STM32F7xx_HAL_Driver/Src/stm32f7xx_hal_qspi.c ****   {
 4731              		.loc 1 2631 44
 4732 005e FB79     		ldrb	r3, [r7, #7]	@ zero_extendqisi2
2631:Drivers/STM32F7xx_HAL_Driver/Src/stm32f7xx_hal_qspi.c ****   {
 4733              		.loc 1 2631 8
 4734 0060 9A42     		cmp	r2, r3
 4735 0062 D6D1     		bne	.L207
2642:Drivers/STM32F7xx_HAL_Driver/Src/stm32f7xx_hal_qspi.c ****       }
2643:Drivers/STM32F7xx_HAL_Driver/Src/stm32f7xx_hal_qspi.c ****     }
2644:Drivers/STM32F7xx_HAL_Driver/Src/stm32f7xx_hal_qspi.c ****   }
2645:Drivers/STM32F7xx_HAL_Driver/Src/stm32f7xx_hal_qspi.c ****   return HAL_OK;
 4736              		.loc 1 2645 10
 4737 0064 0023     		movs	r3, #0
 4738              	.L206:
2646:Drivers/STM32F7xx_HAL_Driver/Src/stm32f7xx_hal_qspi.c **** }
 4739              		.loc 1 2646 1
 4740 0066 1846     		mov	r0, r3
 4741 0068 1037     		adds	r7, r7, #16
 4742              	.LCFI225:
 4743              		.cfi_def_cfa_offset 8
 4744 006a BD46     		mov	sp, r7
 4745              	.LCFI226:
 4746              		.cfi_def_cfa_register 13
 4747              		@ sp needed
 4748 006c 80BD     		pop	{r7, pc}
 4749              		.cfi_endproc
 4750              	.LFE181:
 4752              		.section	.text.QSPI_WaitFlagStateUntilTimeout_CPUCycle,"ax",%progbits
 4753              		.align	1
 4754              		.syntax unified
 4755              		.thumb
 4756              		.thumb_func
 4758              	QSPI_WaitFlagStateUntilTimeout_CPUCycle:
 4759              	.LFB182:
2647:Drivers/STM32F7xx_HAL_Driver/Src/stm32f7xx_hal_qspi.c **** 
2648:Drivers/STM32F7xx_HAL_Driver/Src/stm32f7xx_hal_qspi.c **** /**
2649:Drivers/STM32F7xx_HAL_Driver/Src/stm32f7xx_hal_qspi.c ****   * @brief  Wait for a flag state until timeout using CPU cycle.
2650:Drivers/STM32F7xx_HAL_Driver/Src/stm32f7xx_hal_qspi.c ****   * @param  hqspi : QSPI handle
2651:Drivers/STM32F7xx_HAL_Driver/Src/stm32f7xx_hal_qspi.c ****   * @param  Flag : Flag checked
ARM GAS  C:\Users\jisu8\AppData\Local\Temp\ccA6Ygqq.s 			page 130


2652:Drivers/STM32F7xx_HAL_Driver/Src/stm32f7xx_hal_qspi.c ****   * @param  State : Value of the flag expected
2653:Drivers/STM32F7xx_HAL_Driver/Src/stm32f7xx_hal_qspi.c ****   * @param  Timeout : Duration of the timeout
2654:Drivers/STM32F7xx_HAL_Driver/Src/stm32f7xx_hal_qspi.c ****   * @retval HAL status
2655:Drivers/STM32F7xx_HAL_Driver/Src/stm32f7xx_hal_qspi.c ****   */
2656:Drivers/STM32F7xx_HAL_Driver/Src/stm32f7xx_hal_qspi.c **** static HAL_StatusTypeDef QSPI_WaitFlagStateUntilTimeout_CPUCycle(QSPI_HandleTypeDef *hqspi, uint32_
2657:Drivers/STM32F7xx_HAL_Driver/Src/stm32f7xx_hal_qspi.c **** { 
 4760              		.loc 1 2657 1
 4761              		.cfi_startproc
 4762              		@ args = 0, pretend = 0, frame = 24
 4763              		@ frame_needed = 1, uses_anonymous_args = 0
 4764              		@ link register save eliminated.
 4765 0000 80B4     		push	{r7}
 4766              	.LCFI227:
 4767              		.cfi_def_cfa_offset 4
 4768              		.cfi_offset 7, -4
 4769 0002 87B0     		sub	sp, sp, #28
 4770              	.LCFI228:
 4771              		.cfi_def_cfa_offset 32
 4772 0004 00AF     		add	r7, sp, #0
 4773              	.LCFI229:
 4774              		.cfi_def_cfa_register 7
 4775 0006 F860     		str	r0, [r7, #12]
 4776 0008 B960     		str	r1, [r7, #8]
 4777 000a 3B60     		str	r3, [r7]
 4778 000c 1346     		mov	r3, r2
 4779 000e FB71     		strb	r3, [r7, #7]
2658:Drivers/STM32F7xx_HAL_Driver/Src/stm32f7xx_hal_qspi.c ****   __IO uint32_t count = Timeout * (SystemCoreClock / 16U / 1000U);
 4780              		.loc 1 2658 58
 4781 0010 174B     		ldr	r3, .L212
 4782 0012 1B68     		ldr	r3, [r3]
 4783 0014 174A     		ldr	r2, .L212+4
 4784 0016 A2FB0323 		umull	r2, r3, r2, r3
 4785 001a 9B0A     		lsrs	r3, r3, #10
 4786              		.loc 1 2658 33
 4787 001c 3A68     		ldr	r2, [r7]
 4788 001e 02FB03F3 		mul	r3, r2, r3
 4789              		.loc 1 2658 17
 4790 0022 7B61     		str	r3, [r7, #20]
 4791              	.L211:
2659:Drivers/STM32F7xx_HAL_Driver/Src/stm32f7xx_hal_qspi.c ****    do
2660:Drivers/STM32F7xx_HAL_Driver/Src/stm32f7xx_hal_qspi.c ****    {
2661:Drivers/STM32F7xx_HAL_Driver/Src/stm32f7xx_hal_qspi.c ****      if (count-- == 0U)
 4792              		.loc 1 2661 15
 4793 0024 7B69     		ldr	r3, [r7, #20]
 4794 0026 5A1E     		subs	r2, r3, #1
 4795 0028 7A61     		str	r2, [r7, #20]
 4796              		.loc 1 2661 9
 4797 002a 002B     		cmp	r3, #0
 4798 002c 0BD1     		bne	.L209
2662:Drivers/STM32F7xx_HAL_Driver/Src/stm32f7xx_hal_qspi.c ****      {
2663:Drivers/STM32F7xx_HAL_Driver/Src/stm32f7xx_hal_qspi.c ****        hqspi->State     = HAL_QSPI_STATE_ERROR;
 4799              		.loc 1 2663 25
 4800 002e FB68     		ldr	r3, [r7, #12]
 4801 0030 0422     		movs	r2, #4
 4802 0032 83F84120 		strb	r2, [r3, #65]
2664:Drivers/STM32F7xx_HAL_Driver/Src/stm32f7xx_hal_qspi.c ****        hqspi->ErrorCode |= HAL_QSPI_ERROR_TIMEOUT;
 4803              		.loc 1 2664 25
ARM GAS  C:\Users\jisu8\AppData\Local\Temp\ccA6Ygqq.s 			page 131


 4804 0036 FB68     		ldr	r3, [r7, #12]
 4805 0038 5B6C     		ldr	r3, [r3, #68]
 4806 003a 43F00102 		orr	r2, r3, #1
 4807 003e FB68     		ldr	r3, [r7, #12]
 4808 0040 5A64     		str	r2, [r3, #68]
2665:Drivers/STM32F7xx_HAL_Driver/Src/stm32f7xx_hal_qspi.c ****        return HAL_TIMEOUT;
 4809              		.loc 1 2665 15
 4810 0042 0323     		movs	r3, #3
 4811 0044 0EE0     		b	.L210
 4812              	.L209:
2666:Drivers/STM32F7xx_HAL_Driver/Src/stm32f7xx_hal_qspi.c ****      }
2667:Drivers/STM32F7xx_HAL_Driver/Src/stm32f7xx_hal_qspi.c ****    }
2668:Drivers/STM32F7xx_HAL_Driver/Src/stm32f7xx_hal_qspi.c ****    while ((__HAL_QSPI_GET_FLAG(hqspi, Flag)) != State);
 4813              		.loc 1 2668 12
 4814 0046 FB68     		ldr	r3, [r7, #12]
 4815 0048 1B68     		ldr	r3, [r3]
 4816 004a 9A68     		ldr	r2, [r3, #8]
 4817 004c BB68     		ldr	r3, [r7, #8]
 4818 004e 1340     		ands	r3, r3, r2
 4819 0050 002B     		cmp	r3, #0
 4820 0052 14BF     		ite	ne
 4821 0054 0123     		movne	r3, #1
 4822 0056 0023     		moveq	r3, #0
 4823 0058 DBB2     		uxtb	r3, r3
 4824 005a 1A46     		mov	r2, r3
 4825              		.loc 1 2668 46
 4826 005c FB79     		ldrb	r3, [r7, #7]	@ zero_extendqisi2
 4827              		.loc 1 2668 4
 4828 005e 9A42     		cmp	r2, r3
 4829 0060 E0D1     		bne	.L211
2669:Drivers/STM32F7xx_HAL_Driver/Src/stm32f7xx_hal_qspi.c ****    
2670:Drivers/STM32F7xx_HAL_Driver/Src/stm32f7xx_hal_qspi.c ****    return HAL_OK;   
 4830              		.loc 1 2670 11
 4831 0062 0023     		movs	r3, #0
 4832              	.L210:
2671:Drivers/STM32F7xx_HAL_Driver/Src/stm32f7xx_hal_qspi.c **** }
 4833              		.loc 1 2671 1
 4834 0064 1846     		mov	r0, r3
 4835 0066 1C37     		adds	r7, r7, #28
 4836              	.LCFI230:
 4837              		.cfi_def_cfa_offset 4
 4838 0068 BD46     		mov	sp, r7
 4839              	.LCFI231:
 4840              		.cfi_def_cfa_register 13
 4841              		@ sp needed
 4842 006a 5DF8047B 		ldr	r7, [sp], #4
 4843              	.LCFI232:
 4844              		.cfi_restore 7
 4845              		.cfi_def_cfa_offset 0
 4846 006e 7047     		bx	lr
 4847              	.L213:
 4848              		.align	2
 4849              	.L212:
 4850 0070 00000000 		.word	SystemCoreClock
 4851 0074 D34D6210 		.word	274877907
 4852              		.cfi_endproc
 4853              	.LFE182:
ARM GAS  C:\Users\jisu8\AppData\Local\Temp\ccA6Ygqq.s 			page 132


 4855              		.section	.text.QSPI_Config,"ax",%progbits
 4856              		.align	1
 4857              		.syntax unified
 4858              		.thumb
 4859              		.thumb_func
 4861              	QSPI_Config:
 4862              	.LFB183:
2672:Drivers/STM32F7xx_HAL_Driver/Src/stm32f7xx_hal_qspi.c **** 
2673:Drivers/STM32F7xx_HAL_Driver/Src/stm32f7xx_hal_qspi.c **** /**
2674:Drivers/STM32F7xx_HAL_Driver/Src/stm32f7xx_hal_qspi.c ****   * @brief  Configure the communication registers.
2675:Drivers/STM32F7xx_HAL_Driver/Src/stm32f7xx_hal_qspi.c ****   * @param  hqspi QSPI handle
2676:Drivers/STM32F7xx_HAL_Driver/Src/stm32f7xx_hal_qspi.c ****   * @param  cmd structure that contains the command configuration information
2677:Drivers/STM32F7xx_HAL_Driver/Src/stm32f7xx_hal_qspi.c ****   * @param  FunctionalMode functional mode to configured
2678:Drivers/STM32F7xx_HAL_Driver/Src/stm32f7xx_hal_qspi.c ****   *           This parameter can be one of the following values:
2679:Drivers/STM32F7xx_HAL_Driver/Src/stm32f7xx_hal_qspi.c ****   *            @arg QSPI_FUNCTIONAL_MODE_INDIRECT_WRITE: Indirect write mode
2680:Drivers/STM32F7xx_HAL_Driver/Src/stm32f7xx_hal_qspi.c ****   *            @arg QSPI_FUNCTIONAL_MODE_INDIRECT_READ: Indirect read mode
2681:Drivers/STM32F7xx_HAL_Driver/Src/stm32f7xx_hal_qspi.c ****   *            @arg QSPI_FUNCTIONAL_MODE_AUTO_POLLING: Automatic polling mode
2682:Drivers/STM32F7xx_HAL_Driver/Src/stm32f7xx_hal_qspi.c ****   *            @arg QSPI_FUNCTIONAL_MODE_MEMORY_MAPPED: Memory-mapped mode
2683:Drivers/STM32F7xx_HAL_Driver/Src/stm32f7xx_hal_qspi.c ****   * @retval None
2684:Drivers/STM32F7xx_HAL_Driver/Src/stm32f7xx_hal_qspi.c ****   */
2685:Drivers/STM32F7xx_HAL_Driver/Src/stm32f7xx_hal_qspi.c **** static void QSPI_Config(QSPI_HandleTypeDef *hqspi, QSPI_CommandTypeDef *cmd, uint32_t FunctionalMod
2686:Drivers/STM32F7xx_HAL_Driver/Src/stm32f7xx_hal_qspi.c **** {
 4863              		.loc 1 2686 1
 4864              		.cfi_startproc
 4865              		@ args = 0, pretend = 0, frame = 16
 4866              		@ frame_needed = 1, uses_anonymous_args = 0
 4867              		@ link register save eliminated.
 4868 0000 80B4     		push	{r7}
 4869              	.LCFI233:
 4870              		.cfi_def_cfa_offset 4
 4871              		.cfi_offset 7, -4
 4872 0002 85B0     		sub	sp, sp, #20
 4873              	.LCFI234:
 4874              		.cfi_def_cfa_offset 24
 4875 0004 00AF     		add	r7, sp, #0
 4876              	.LCFI235:
 4877              		.cfi_def_cfa_register 7
 4878 0006 F860     		str	r0, [r7, #12]
 4879 0008 B960     		str	r1, [r7, #8]
 4880 000a 7A60     		str	r2, [r7, #4]
2687:Drivers/STM32F7xx_HAL_Driver/Src/stm32f7xx_hal_qspi.c ****   assert_param(IS_QSPI_FUNCTIONAL_MODE(FunctionalMode));
2688:Drivers/STM32F7xx_HAL_Driver/Src/stm32f7xx_hal_qspi.c **** 
2689:Drivers/STM32F7xx_HAL_Driver/Src/stm32f7xx_hal_qspi.c ****   if ((cmd->DataMode != QSPI_DATA_NONE) && (FunctionalMode != QSPI_FUNCTIONAL_MODE_MEMORY_MAPPED))
 4881              		.loc 1 2689 11
 4882 000c BB68     		ldr	r3, [r7, #8]
 4883 000e 5B6A     		ldr	r3, [r3, #36]
 4884              		.loc 1 2689 6
 4885 0010 002B     		cmp	r3, #0
 4886 0012 09D0     		beq	.L215
 4887              		.loc 1 2689 41 discriminator 1
 4888 0014 7B68     		ldr	r3, [r7, #4]
 4889 0016 B3F1406F 		cmp	r3, #201326592
 4890 001a 05D0     		beq	.L215
2690:Drivers/STM32F7xx_HAL_Driver/Src/stm32f7xx_hal_qspi.c ****   {
2691:Drivers/STM32F7xx_HAL_Driver/Src/stm32f7xx_hal_qspi.c ****     /* Configure QSPI: DLR register with the number of data to read or write */
2692:Drivers/STM32F7xx_HAL_Driver/Src/stm32f7xx_hal_qspi.c ****     WRITE_REG(hqspi->Instance->DLR, (cmd->NbData - 1U));
 4891              		.loc 1 2692 5
ARM GAS  C:\Users\jisu8\AppData\Local\Temp\ccA6Ygqq.s 			page 133


 4892 001c BB68     		ldr	r3, [r7, #8]
 4893 001e 9A6A     		ldr	r2, [r3, #40]
 4894 0020 FB68     		ldr	r3, [r7, #12]
 4895 0022 1B68     		ldr	r3, [r3]
 4896 0024 013A     		subs	r2, r2, #1
 4897 0026 1A61     		str	r2, [r3, #16]
 4898              	.L215:
2693:Drivers/STM32F7xx_HAL_Driver/Src/stm32f7xx_hal_qspi.c ****   }
2694:Drivers/STM32F7xx_HAL_Driver/Src/stm32f7xx_hal_qspi.c **** 
2695:Drivers/STM32F7xx_HAL_Driver/Src/stm32f7xx_hal_qspi.c ****   if (cmd->InstructionMode != QSPI_INSTRUCTION_NONE)
 4899              		.loc 1 2695 10
 4900 0028 BB68     		ldr	r3, [r7, #8]
 4901 002a 9B69     		ldr	r3, [r3, #24]
 4902              		.loc 1 2695 6
 4903 002c 002B     		cmp	r3, #0
 4904 002e 00F0B980 		beq	.L216
2696:Drivers/STM32F7xx_HAL_Driver/Src/stm32f7xx_hal_qspi.c ****   {
2697:Drivers/STM32F7xx_HAL_Driver/Src/stm32f7xx_hal_qspi.c ****     if (cmd->AlternateByteMode != QSPI_ALTERNATE_BYTES_NONE)
 4905              		.loc 1 2697 12
 4906 0032 BB68     		ldr	r3, [r7, #8]
 4907 0034 1B6A     		ldr	r3, [r3, #32]
 4908              		.loc 1 2697 8
 4909 0036 002B     		cmp	r3, #0
 4910 0038 5FD0     		beq	.L217
2698:Drivers/STM32F7xx_HAL_Driver/Src/stm32f7xx_hal_qspi.c ****     {
2699:Drivers/STM32F7xx_HAL_Driver/Src/stm32f7xx_hal_qspi.c ****       /* Configure QSPI: ABR register with alternate bytes value */
2700:Drivers/STM32F7xx_HAL_Driver/Src/stm32f7xx_hal_qspi.c ****       WRITE_REG(hqspi->Instance->ABR, cmd->AlternateBytes);
 4911              		.loc 1 2700 7
 4912 003a FB68     		ldr	r3, [r7, #12]
 4913 003c 1B68     		ldr	r3, [r3]
 4914 003e BA68     		ldr	r2, [r7, #8]
 4915 0040 9268     		ldr	r2, [r2, #8]
 4916 0042 DA61     		str	r2, [r3, #28]
2701:Drivers/STM32F7xx_HAL_Driver/Src/stm32f7xx_hal_qspi.c **** 
2702:Drivers/STM32F7xx_HAL_Driver/Src/stm32f7xx_hal_qspi.c ****       if (cmd->AddressMode != QSPI_ADDRESS_NONE)
 4917              		.loc 1 2702 14
 4918 0044 BB68     		ldr	r3, [r7, #8]
 4919 0046 DB69     		ldr	r3, [r3, #28]
 4920              		.loc 1 2702 10
 4921 0048 002B     		cmp	r3, #0
 4922 004a 31D0     		beq	.L218
2703:Drivers/STM32F7xx_HAL_Driver/Src/stm32f7xx_hal_qspi.c ****       {
2704:Drivers/STM32F7xx_HAL_Driver/Src/stm32f7xx_hal_qspi.c ****         /*---- Command with instruction, address and alternate bytes ----*/
2705:Drivers/STM32F7xx_HAL_Driver/Src/stm32f7xx_hal_qspi.c ****         /* Configure QSPI: CCR register with all communications parameters */
2706:Drivers/STM32F7xx_HAL_Driver/Src/stm32f7xx_hal_qspi.c ****         WRITE_REG(hqspi->Instance->CCR, (cmd->DdrMode | cmd->DdrHoldHalfCycle | cmd->SIOOMode |
 4923              		.loc 1 2706 9
 4924 004c BB68     		ldr	r3, [r7, #8]
 4925 004e DA6A     		ldr	r2, [r3, #44]
 4926 0050 BB68     		ldr	r3, [r7, #8]
 4927 0052 1B6B     		ldr	r3, [r3, #48]
 4928 0054 1A43     		orrs	r2, r2, r3
 4929 0056 BB68     		ldr	r3, [r7, #8]
 4930 0058 5B6B     		ldr	r3, [r3, #52]
 4931 005a 1A43     		orrs	r2, r2, r3
 4932 005c BB68     		ldr	r3, [r7, #8]
 4933 005e 5B6A     		ldr	r3, [r3, #36]
 4934 0060 1A43     		orrs	r2, r2, r3
ARM GAS  C:\Users\jisu8\AppData\Local\Temp\ccA6Ygqq.s 			page 134


 4935 0062 BB68     		ldr	r3, [r7, #8]
 4936 0064 5B69     		ldr	r3, [r3, #20]
 4937 0066 9B04     		lsls	r3, r3, #18
 4938 0068 1A43     		orrs	r2, r2, r3
 4939 006a BB68     		ldr	r3, [r7, #8]
 4940 006c 1B69     		ldr	r3, [r3, #16]
 4941 006e 1A43     		orrs	r2, r2, r3
 4942 0070 BB68     		ldr	r3, [r7, #8]
 4943 0072 1B6A     		ldr	r3, [r3, #32]
 4944 0074 1A43     		orrs	r2, r2, r3
 4945 0076 BB68     		ldr	r3, [r7, #8]
 4946 0078 DB68     		ldr	r3, [r3, #12]
 4947 007a 1A43     		orrs	r2, r2, r3
 4948 007c BB68     		ldr	r3, [r7, #8]
 4949 007e DB69     		ldr	r3, [r3, #28]
 4950 0080 1A43     		orrs	r2, r2, r3
 4951 0082 BB68     		ldr	r3, [r7, #8]
 4952 0084 9B69     		ldr	r3, [r3, #24]
 4953 0086 1A43     		orrs	r2, r2, r3
 4954 0088 BB68     		ldr	r3, [r7, #8]
 4955 008a 1B68     		ldr	r3, [r3]
 4956 008c 42EA0301 		orr	r1, r2, r3
 4957 0090 FB68     		ldr	r3, [r7, #12]
 4958 0092 1B68     		ldr	r3, [r3]
 4959 0094 7A68     		ldr	r2, [r7, #4]
 4960 0096 0A43     		orrs	r2, r2, r1
 4961 0098 5A61     		str	r2, [r3, #20]
2707:Drivers/STM32F7xx_HAL_Driver/Src/stm32f7xx_hal_qspi.c ****                                          cmd->DataMode | (cmd->DummyCycles << QUADSPI_CCR_DCYC_Pos)
2708:Drivers/STM32F7xx_HAL_Driver/Src/stm32f7xx_hal_qspi.c ****                                          cmd->AlternateBytesSize | cmd->AlternateByteMode |
2709:Drivers/STM32F7xx_HAL_Driver/Src/stm32f7xx_hal_qspi.c ****                                          cmd->AddressSize | cmd->AddressMode | cmd->InstructionMode
2710:Drivers/STM32F7xx_HAL_Driver/Src/stm32f7xx_hal_qspi.c ****                                          cmd->Instruction | FunctionalMode));
2711:Drivers/STM32F7xx_HAL_Driver/Src/stm32f7xx_hal_qspi.c **** 
2712:Drivers/STM32F7xx_HAL_Driver/Src/stm32f7xx_hal_qspi.c ****         if (FunctionalMode != QSPI_FUNCTIONAL_MODE_MEMORY_MAPPED)
 4962              		.loc 1 2712 12
 4963 009a 7B68     		ldr	r3, [r7, #4]
 4964 009c B3F1406F 		cmp	r3, #201326592
 4965 00a0 00F02E81 		beq	.L224
2713:Drivers/STM32F7xx_HAL_Driver/Src/stm32f7xx_hal_qspi.c ****         {
2714:Drivers/STM32F7xx_HAL_Driver/Src/stm32f7xx_hal_qspi.c ****           /* Configure QSPI: AR register with address value */
2715:Drivers/STM32F7xx_HAL_Driver/Src/stm32f7xx_hal_qspi.c ****           WRITE_REG(hqspi->Instance->AR, cmd->Address);
 4966              		.loc 1 2715 11
 4967 00a4 FB68     		ldr	r3, [r7, #12]
 4968 00a6 1B68     		ldr	r3, [r3]
 4969 00a8 BA68     		ldr	r2, [r7, #8]
 4970 00aa 5268     		ldr	r2, [r2, #4]
 4971 00ac 9A61     		str	r2, [r3, #24]
2716:Drivers/STM32F7xx_HAL_Driver/Src/stm32f7xx_hal_qspi.c ****         }
2717:Drivers/STM32F7xx_HAL_Driver/Src/stm32f7xx_hal_qspi.c ****       }
2718:Drivers/STM32F7xx_HAL_Driver/Src/stm32f7xx_hal_qspi.c ****       else
2719:Drivers/STM32F7xx_HAL_Driver/Src/stm32f7xx_hal_qspi.c ****       {
2720:Drivers/STM32F7xx_HAL_Driver/Src/stm32f7xx_hal_qspi.c ****         /*---- Command with instruction and alternate bytes ----*/
2721:Drivers/STM32F7xx_HAL_Driver/Src/stm32f7xx_hal_qspi.c ****         /* Configure QSPI: CCR register with all communications parameters */
2722:Drivers/STM32F7xx_HAL_Driver/Src/stm32f7xx_hal_qspi.c ****         WRITE_REG(hqspi->Instance->CCR, (cmd->DdrMode | cmd->DdrHoldHalfCycle | cmd->SIOOMode |
2723:Drivers/STM32F7xx_HAL_Driver/Src/stm32f7xx_hal_qspi.c ****                                          cmd->DataMode | (cmd->DummyCycles << QUADSPI_CCR_DCYC_Pos)
2724:Drivers/STM32F7xx_HAL_Driver/Src/stm32f7xx_hal_qspi.c ****                                          cmd->AlternateBytesSize | cmd->AlternateByteMode |
2725:Drivers/STM32F7xx_HAL_Driver/Src/stm32f7xx_hal_qspi.c ****                                          cmd->AddressMode | cmd->InstructionMode |
2726:Drivers/STM32F7xx_HAL_Driver/Src/stm32f7xx_hal_qspi.c ****                                          cmd->Instruction | FunctionalMode));
ARM GAS  C:\Users\jisu8\AppData\Local\Temp\ccA6Ygqq.s 			page 135


2727:Drivers/STM32F7xx_HAL_Driver/Src/stm32f7xx_hal_qspi.c ****       }
2728:Drivers/STM32F7xx_HAL_Driver/Src/stm32f7xx_hal_qspi.c ****     }
2729:Drivers/STM32F7xx_HAL_Driver/Src/stm32f7xx_hal_qspi.c ****     else
2730:Drivers/STM32F7xx_HAL_Driver/Src/stm32f7xx_hal_qspi.c ****     {
2731:Drivers/STM32F7xx_HAL_Driver/Src/stm32f7xx_hal_qspi.c ****       if (cmd->AddressMode != QSPI_ADDRESS_NONE)
2732:Drivers/STM32F7xx_HAL_Driver/Src/stm32f7xx_hal_qspi.c ****       {
2733:Drivers/STM32F7xx_HAL_Driver/Src/stm32f7xx_hal_qspi.c ****         /*---- Command with instruction and address ----*/
2734:Drivers/STM32F7xx_HAL_Driver/Src/stm32f7xx_hal_qspi.c ****         /* Configure QSPI: CCR register with all communications parameters */
2735:Drivers/STM32F7xx_HAL_Driver/Src/stm32f7xx_hal_qspi.c ****         WRITE_REG(hqspi->Instance->CCR, (cmd->DdrMode | cmd->DdrHoldHalfCycle | cmd->SIOOMode |
2736:Drivers/STM32F7xx_HAL_Driver/Src/stm32f7xx_hal_qspi.c ****                                          cmd->DataMode | (cmd->DummyCycles << QUADSPI_CCR_DCYC_Pos)
2737:Drivers/STM32F7xx_HAL_Driver/Src/stm32f7xx_hal_qspi.c ****                                          cmd->AlternateByteMode | cmd->AddressSize | cmd->AddressMo
2738:Drivers/STM32F7xx_HAL_Driver/Src/stm32f7xx_hal_qspi.c ****                                          cmd->InstructionMode | cmd->Instruction | FunctionalMode))
2739:Drivers/STM32F7xx_HAL_Driver/Src/stm32f7xx_hal_qspi.c **** 
2740:Drivers/STM32F7xx_HAL_Driver/Src/stm32f7xx_hal_qspi.c ****         if (FunctionalMode != QSPI_FUNCTIONAL_MODE_MEMORY_MAPPED)
2741:Drivers/STM32F7xx_HAL_Driver/Src/stm32f7xx_hal_qspi.c ****         {
2742:Drivers/STM32F7xx_HAL_Driver/Src/stm32f7xx_hal_qspi.c ****           /* Configure QSPI: AR register with address value */
2743:Drivers/STM32F7xx_HAL_Driver/Src/stm32f7xx_hal_qspi.c ****           WRITE_REG(hqspi->Instance->AR, cmd->Address);
2744:Drivers/STM32F7xx_HAL_Driver/Src/stm32f7xx_hal_qspi.c ****         }
2745:Drivers/STM32F7xx_HAL_Driver/Src/stm32f7xx_hal_qspi.c ****       }
2746:Drivers/STM32F7xx_HAL_Driver/Src/stm32f7xx_hal_qspi.c ****       else
2747:Drivers/STM32F7xx_HAL_Driver/Src/stm32f7xx_hal_qspi.c ****       {
2748:Drivers/STM32F7xx_HAL_Driver/Src/stm32f7xx_hal_qspi.c ****         /*---- Command with only instruction ----*/
2749:Drivers/STM32F7xx_HAL_Driver/Src/stm32f7xx_hal_qspi.c ****         /* Configure QSPI: CCR register with all communications parameters */
2750:Drivers/STM32F7xx_HAL_Driver/Src/stm32f7xx_hal_qspi.c ****         WRITE_REG(hqspi->Instance->CCR, (cmd->DdrMode | cmd->DdrHoldHalfCycle | cmd->SIOOMode |
2751:Drivers/STM32F7xx_HAL_Driver/Src/stm32f7xx_hal_qspi.c ****                                          cmd->DataMode | (cmd->DummyCycles << QUADSPI_CCR_DCYC_Pos)
2752:Drivers/STM32F7xx_HAL_Driver/Src/stm32f7xx_hal_qspi.c ****                                          cmd->AlternateByteMode | cmd->AddressMode |
2753:Drivers/STM32F7xx_HAL_Driver/Src/stm32f7xx_hal_qspi.c ****                                          cmd->InstructionMode | cmd->Instruction | FunctionalMode))
2754:Drivers/STM32F7xx_HAL_Driver/Src/stm32f7xx_hal_qspi.c ****       }
2755:Drivers/STM32F7xx_HAL_Driver/Src/stm32f7xx_hal_qspi.c ****     }
2756:Drivers/STM32F7xx_HAL_Driver/Src/stm32f7xx_hal_qspi.c ****   }
2757:Drivers/STM32F7xx_HAL_Driver/Src/stm32f7xx_hal_qspi.c ****   else
2758:Drivers/STM32F7xx_HAL_Driver/Src/stm32f7xx_hal_qspi.c ****   {
2759:Drivers/STM32F7xx_HAL_Driver/Src/stm32f7xx_hal_qspi.c ****     if (cmd->AlternateByteMode != QSPI_ALTERNATE_BYTES_NONE)
2760:Drivers/STM32F7xx_HAL_Driver/Src/stm32f7xx_hal_qspi.c ****     {
2761:Drivers/STM32F7xx_HAL_Driver/Src/stm32f7xx_hal_qspi.c ****       /* Configure QSPI: ABR register with alternate bytes value */
2762:Drivers/STM32F7xx_HAL_Driver/Src/stm32f7xx_hal_qspi.c ****       WRITE_REG(hqspi->Instance->ABR, cmd->AlternateBytes);
2763:Drivers/STM32F7xx_HAL_Driver/Src/stm32f7xx_hal_qspi.c **** 
2764:Drivers/STM32F7xx_HAL_Driver/Src/stm32f7xx_hal_qspi.c ****       if (cmd->AddressMode != QSPI_ADDRESS_NONE)
2765:Drivers/STM32F7xx_HAL_Driver/Src/stm32f7xx_hal_qspi.c ****       {
2766:Drivers/STM32F7xx_HAL_Driver/Src/stm32f7xx_hal_qspi.c ****         /*---- Command with address and alternate bytes ----*/
2767:Drivers/STM32F7xx_HAL_Driver/Src/stm32f7xx_hal_qspi.c ****         /* Configure QSPI: CCR register with all communications parameters */
2768:Drivers/STM32F7xx_HAL_Driver/Src/stm32f7xx_hal_qspi.c ****         WRITE_REG(hqspi->Instance->CCR, (cmd->DdrMode | cmd->DdrHoldHalfCycle | cmd->SIOOMode |
2769:Drivers/STM32F7xx_HAL_Driver/Src/stm32f7xx_hal_qspi.c ****                                          cmd->DataMode | (cmd->DummyCycles << QUADSPI_CCR_DCYC_Pos)
2770:Drivers/STM32F7xx_HAL_Driver/Src/stm32f7xx_hal_qspi.c ****                                          cmd->AlternateBytesSize | cmd->AlternateByteMode |
2771:Drivers/STM32F7xx_HAL_Driver/Src/stm32f7xx_hal_qspi.c ****                                          cmd->AddressSize | cmd->AddressMode |
2772:Drivers/STM32F7xx_HAL_Driver/Src/stm32f7xx_hal_qspi.c ****                                          cmd->InstructionMode | FunctionalMode));
2773:Drivers/STM32F7xx_HAL_Driver/Src/stm32f7xx_hal_qspi.c **** 
2774:Drivers/STM32F7xx_HAL_Driver/Src/stm32f7xx_hal_qspi.c ****         if (FunctionalMode != QSPI_FUNCTIONAL_MODE_MEMORY_MAPPED)
2775:Drivers/STM32F7xx_HAL_Driver/Src/stm32f7xx_hal_qspi.c ****         {
2776:Drivers/STM32F7xx_HAL_Driver/Src/stm32f7xx_hal_qspi.c ****           /* Configure QSPI: AR register with address value */
2777:Drivers/STM32F7xx_HAL_Driver/Src/stm32f7xx_hal_qspi.c ****           WRITE_REG(hqspi->Instance->AR, cmd->Address);
2778:Drivers/STM32F7xx_HAL_Driver/Src/stm32f7xx_hal_qspi.c ****         }
2779:Drivers/STM32F7xx_HAL_Driver/Src/stm32f7xx_hal_qspi.c ****       }
2780:Drivers/STM32F7xx_HAL_Driver/Src/stm32f7xx_hal_qspi.c ****       else
2781:Drivers/STM32F7xx_HAL_Driver/Src/stm32f7xx_hal_qspi.c ****       {
2782:Drivers/STM32F7xx_HAL_Driver/Src/stm32f7xx_hal_qspi.c ****         /*---- Command with only alternate bytes ----*/
2783:Drivers/STM32F7xx_HAL_Driver/Src/stm32f7xx_hal_qspi.c ****         /* Configure QSPI: CCR register with all communications parameters */
ARM GAS  C:\Users\jisu8\AppData\Local\Temp\ccA6Ygqq.s 			page 136


2784:Drivers/STM32F7xx_HAL_Driver/Src/stm32f7xx_hal_qspi.c ****         WRITE_REG(hqspi->Instance->CCR, (cmd->DdrMode | cmd->DdrHoldHalfCycle | cmd->SIOOMode |
2785:Drivers/STM32F7xx_HAL_Driver/Src/stm32f7xx_hal_qspi.c ****                                          cmd->DataMode | (cmd->DummyCycles << QUADSPI_CCR_DCYC_Pos)
2786:Drivers/STM32F7xx_HAL_Driver/Src/stm32f7xx_hal_qspi.c ****                                          cmd->AlternateBytesSize | cmd->AlternateByteMode |
2787:Drivers/STM32F7xx_HAL_Driver/Src/stm32f7xx_hal_qspi.c ****                                          cmd->AddressMode | cmd->InstructionMode | FunctionalMode))
2788:Drivers/STM32F7xx_HAL_Driver/Src/stm32f7xx_hal_qspi.c ****       }
2789:Drivers/STM32F7xx_HAL_Driver/Src/stm32f7xx_hal_qspi.c ****     }
2790:Drivers/STM32F7xx_HAL_Driver/Src/stm32f7xx_hal_qspi.c ****     else
2791:Drivers/STM32F7xx_HAL_Driver/Src/stm32f7xx_hal_qspi.c ****     {
2792:Drivers/STM32F7xx_HAL_Driver/Src/stm32f7xx_hal_qspi.c ****       if (cmd->AddressMode != QSPI_ADDRESS_NONE)
2793:Drivers/STM32F7xx_HAL_Driver/Src/stm32f7xx_hal_qspi.c ****       {
2794:Drivers/STM32F7xx_HAL_Driver/Src/stm32f7xx_hal_qspi.c ****         /*---- Command with only address ----*/
2795:Drivers/STM32F7xx_HAL_Driver/Src/stm32f7xx_hal_qspi.c ****         /* Configure QSPI: CCR register with all communications parameters */
2796:Drivers/STM32F7xx_HAL_Driver/Src/stm32f7xx_hal_qspi.c ****         WRITE_REG(hqspi->Instance->CCR, (cmd->DdrMode | cmd->DdrHoldHalfCycle | cmd->SIOOMode |
2797:Drivers/STM32F7xx_HAL_Driver/Src/stm32f7xx_hal_qspi.c ****                                          cmd->DataMode | (cmd->DummyCycles << QUADSPI_CCR_DCYC_Pos)
2798:Drivers/STM32F7xx_HAL_Driver/Src/stm32f7xx_hal_qspi.c ****                                          cmd->AlternateByteMode | cmd->AddressSize |
2799:Drivers/STM32F7xx_HAL_Driver/Src/stm32f7xx_hal_qspi.c ****                                          cmd->AddressMode | cmd->InstructionMode | FunctionalMode))
2800:Drivers/STM32F7xx_HAL_Driver/Src/stm32f7xx_hal_qspi.c **** 
2801:Drivers/STM32F7xx_HAL_Driver/Src/stm32f7xx_hal_qspi.c ****         if (FunctionalMode != QSPI_FUNCTIONAL_MODE_MEMORY_MAPPED)
2802:Drivers/STM32F7xx_HAL_Driver/Src/stm32f7xx_hal_qspi.c ****         {
2803:Drivers/STM32F7xx_HAL_Driver/Src/stm32f7xx_hal_qspi.c ****           /* Configure QSPI: AR register with address value */
2804:Drivers/STM32F7xx_HAL_Driver/Src/stm32f7xx_hal_qspi.c ****           WRITE_REG(hqspi->Instance->AR, cmd->Address);
2805:Drivers/STM32F7xx_HAL_Driver/Src/stm32f7xx_hal_qspi.c ****         }
2806:Drivers/STM32F7xx_HAL_Driver/Src/stm32f7xx_hal_qspi.c ****       }
2807:Drivers/STM32F7xx_HAL_Driver/Src/stm32f7xx_hal_qspi.c ****       else
2808:Drivers/STM32F7xx_HAL_Driver/Src/stm32f7xx_hal_qspi.c ****       {
2809:Drivers/STM32F7xx_HAL_Driver/Src/stm32f7xx_hal_qspi.c ****         /*---- Command with only data phase ----*/
2810:Drivers/STM32F7xx_HAL_Driver/Src/stm32f7xx_hal_qspi.c ****         if (cmd->DataMode != QSPI_DATA_NONE)
2811:Drivers/STM32F7xx_HAL_Driver/Src/stm32f7xx_hal_qspi.c ****         {
2812:Drivers/STM32F7xx_HAL_Driver/Src/stm32f7xx_hal_qspi.c ****           /* Configure QSPI: CCR register with all communications parameters */
2813:Drivers/STM32F7xx_HAL_Driver/Src/stm32f7xx_hal_qspi.c ****           WRITE_REG(hqspi->Instance->CCR, (cmd->DdrMode | cmd->DdrHoldHalfCycle | cmd->SIOOMode |
2814:Drivers/STM32F7xx_HAL_Driver/Src/stm32f7xx_hal_qspi.c ****                                            cmd->DataMode | (cmd->DummyCycles << QUADSPI_CCR_DCYC_Po
2815:Drivers/STM32F7xx_HAL_Driver/Src/stm32f7xx_hal_qspi.c ****                                            cmd->AlternateByteMode | cmd->AddressMode |
2816:Drivers/STM32F7xx_HAL_Driver/Src/stm32f7xx_hal_qspi.c ****                                            cmd->InstructionMode | FunctionalMode));
2817:Drivers/STM32F7xx_HAL_Driver/Src/stm32f7xx_hal_qspi.c ****         }
2818:Drivers/STM32F7xx_HAL_Driver/Src/stm32f7xx_hal_qspi.c ****       }
2819:Drivers/STM32F7xx_HAL_Driver/Src/stm32f7xx_hal_qspi.c ****     }
2820:Drivers/STM32F7xx_HAL_Driver/Src/stm32f7xx_hal_qspi.c ****   }
2821:Drivers/STM32F7xx_HAL_Driver/Src/stm32f7xx_hal_qspi.c **** }
 4972              		.loc 1 2821 1
 4973 00ae 27E1     		b	.L224
 4974              	.L218:
2722:Drivers/STM32F7xx_HAL_Driver/Src/stm32f7xx_hal_qspi.c ****                                          cmd->DataMode | (cmd->DummyCycles << QUADSPI_CCR_DCYC_Pos)
 4975              		.loc 1 2722 9
 4976 00b0 BB68     		ldr	r3, [r7, #8]
 4977 00b2 DA6A     		ldr	r2, [r3, #44]
 4978 00b4 BB68     		ldr	r3, [r7, #8]
 4979 00b6 1B6B     		ldr	r3, [r3, #48]
 4980 00b8 1A43     		orrs	r2, r2, r3
 4981 00ba BB68     		ldr	r3, [r7, #8]
 4982 00bc 5B6B     		ldr	r3, [r3, #52]
 4983 00be 1A43     		orrs	r2, r2, r3
 4984 00c0 BB68     		ldr	r3, [r7, #8]
 4985 00c2 5B6A     		ldr	r3, [r3, #36]
 4986 00c4 1A43     		orrs	r2, r2, r3
 4987 00c6 BB68     		ldr	r3, [r7, #8]
 4988 00c8 5B69     		ldr	r3, [r3, #20]
 4989 00ca 9B04     		lsls	r3, r3, #18
ARM GAS  C:\Users\jisu8\AppData\Local\Temp\ccA6Ygqq.s 			page 137


 4990 00cc 1A43     		orrs	r2, r2, r3
 4991 00ce BB68     		ldr	r3, [r7, #8]
 4992 00d0 1B69     		ldr	r3, [r3, #16]
 4993 00d2 1A43     		orrs	r2, r2, r3
 4994 00d4 BB68     		ldr	r3, [r7, #8]
 4995 00d6 1B6A     		ldr	r3, [r3, #32]
 4996 00d8 1A43     		orrs	r2, r2, r3
 4997 00da BB68     		ldr	r3, [r7, #8]
 4998 00dc DB69     		ldr	r3, [r3, #28]
 4999 00de 1A43     		orrs	r2, r2, r3
 5000 00e0 BB68     		ldr	r3, [r7, #8]
 5001 00e2 9B69     		ldr	r3, [r3, #24]
 5002 00e4 1A43     		orrs	r2, r2, r3
 5003 00e6 BB68     		ldr	r3, [r7, #8]
 5004 00e8 1B68     		ldr	r3, [r3]
 5005 00ea 42EA0301 		orr	r1, r2, r3
 5006 00ee FB68     		ldr	r3, [r7, #12]
 5007 00f0 1B68     		ldr	r3, [r3]
 5008 00f2 7A68     		ldr	r2, [r7, #4]
 5009 00f4 0A43     		orrs	r2, r2, r1
 5010 00f6 5A61     		str	r2, [r3, #20]
 5011              		.loc 1 2821 1
 5012 00f8 02E1     		b	.L224
 5013              	.L217:
2731:Drivers/STM32F7xx_HAL_Driver/Src/stm32f7xx_hal_qspi.c ****       {
 5014              		.loc 1 2731 14
 5015 00fa BB68     		ldr	r3, [r7, #8]
 5016 00fc DB69     		ldr	r3, [r3, #28]
2731:Drivers/STM32F7xx_HAL_Driver/Src/stm32f7xx_hal_qspi.c ****       {
 5017              		.loc 1 2731 10
 5018 00fe 002B     		cmp	r3, #0
 5019 0100 2ED0     		beq	.L220
2735:Drivers/STM32F7xx_HAL_Driver/Src/stm32f7xx_hal_qspi.c ****                                          cmd->DataMode | (cmd->DummyCycles << QUADSPI_CCR_DCYC_Pos)
 5020              		.loc 1 2735 9
 5021 0102 BB68     		ldr	r3, [r7, #8]
 5022 0104 DA6A     		ldr	r2, [r3, #44]
 5023 0106 BB68     		ldr	r3, [r7, #8]
 5024 0108 1B6B     		ldr	r3, [r3, #48]
 5025 010a 1A43     		orrs	r2, r2, r3
 5026 010c BB68     		ldr	r3, [r7, #8]
 5027 010e 5B6B     		ldr	r3, [r3, #52]
 5028 0110 1A43     		orrs	r2, r2, r3
 5029 0112 BB68     		ldr	r3, [r7, #8]
 5030 0114 5B6A     		ldr	r3, [r3, #36]
 5031 0116 1A43     		orrs	r2, r2, r3
 5032 0118 BB68     		ldr	r3, [r7, #8]
 5033 011a 5B69     		ldr	r3, [r3, #20]
 5034 011c 9B04     		lsls	r3, r3, #18
 5035 011e 1A43     		orrs	r2, r2, r3
 5036 0120 BB68     		ldr	r3, [r7, #8]
 5037 0122 1B6A     		ldr	r3, [r3, #32]
 5038 0124 1A43     		orrs	r2, r2, r3
 5039 0126 BB68     		ldr	r3, [r7, #8]
 5040 0128 DB68     		ldr	r3, [r3, #12]
 5041 012a 1A43     		orrs	r2, r2, r3
 5042 012c BB68     		ldr	r3, [r7, #8]
 5043 012e DB69     		ldr	r3, [r3, #28]
ARM GAS  C:\Users\jisu8\AppData\Local\Temp\ccA6Ygqq.s 			page 138


 5044 0130 1A43     		orrs	r2, r2, r3
 5045 0132 BB68     		ldr	r3, [r7, #8]
 5046 0134 9B69     		ldr	r3, [r3, #24]
 5047 0136 1A43     		orrs	r2, r2, r3
 5048 0138 BB68     		ldr	r3, [r7, #8]
 5049 013a 1B68     		ldr	r3, [r3]
 5050 013c 42EA0301 		orr	r1, r2, r3
 5051 0140 FB68     		ldr	r3, [r7, #12]
 5052 0142 1B68     		ldr	r3, [r3]
 5053 0144 7A68     		ldr	r2, [r7, #4]
 5054 0146 0A43     		orrs	r2, r2, r1
 5055 0148 5A61     		str	r2, [r3, #20]
2740:Drivers/STM32F7xx_HAL_Driver/Src/stm32f7xx_hal_qspi.c ****         {
 5056              		.loc 1 2740 12
 5057 014a 7B68     		ldr	r3, [r7, #4]
 5058 014c B3F1406F 		cmp	r3, #201326592
 5059 0150 00F0D680 		beq	.L224
2743:Drivers/STM32F7xx_HAL_Driver/Src/stm32f7xx_hal_qspi.c ****         }
 5060              		.loc 1 2743 11
 5061 0154 FB68     		ldr	r3, [r7, #12]
 5062 0156 1B68     		ldr	r3, [r3]
 5063 0158 BA68     		ldr	r2, [r7, #8]
 5064 015a 5268     		ldr	r2, [r2, #4]
 5065 015c 9A61     		str	r2, [r3, #24]
 5066              		.loc 1 2821 1
 5067 015e CFE0     		b	.L224
 5068              	.L220:
2750:Drivers/STM32F7xx_HAL_Driver/Src/stm32f7xx_hal_qspi.c ****                                          cmd->DataMode | (cmd->DummyCycles << QUADSPI_CCR_DCYC_Pos)
 5069              		.loc 1 2750 9
 5070 0160 BB68     		ldr	r3, [r7, #8]
 5071 0162 DA6A     		ldr	r2, [r3, #44]
 5072 0164 BB68     		ldr	r3, [r7, #8]
 5073 0166 1B6B     		ldr	r3, [r3, #48]
 5074 0168 1A43     		orrs	r2, r2, r3
 5075 016a BB68     		ldr	r3, [r7, #8]
 5076 016c 5B6B     		ldr	r3, [r3, #52]
 5077 016e 1A43     		orrs	r2, r2, r3
 5078 0170 BB68     		ldr	r3, [r7, #8]
 5079 0172 5B6A     		ldr	r3, [r3, #36]
 5080 0174 1A43     		orrs	r2, r2, r3
 5081 0176 BB68     		ldr	r3, [r7, #8]
 5082 0178 5B69     		ldr	r3, [r3, #20]
 5083 017a 9B04     		lsls	r3, r3, #18
 5084 017c 1A43     		orrs	r2, r2, r3
 5085 017e BB68     		ldr	r3, [r7, #8]
 5086 0180 1B6A     		ldr	r3, [r3, #32]
 5087 0182 1A43     		orrs	r2, r2, r3
 5088 0184 BB68     		ldr	r3, [r7, #8]
 5089 0186 DB69     		ldr	r3, [r3, #28]
 5090 0188 1A43     		orrs	r2, r2, r3
 5091 018a BB68     		ldr	r3, [r7, #8]
 5092 018c 9B69     		ldr	r3, [r3, #24]
 5093 018e 1A43     		orrs	r2, r2, r3
 5094 0190 BB68     		ldr	r3, [r7, #8]
 5095 0192 1B68     		ldr	r3, [r3]
 5096 0194 42EA0301 		orr	r1, r2, r3
 5097 0198 FB68     		ldr	r3, [r7, #12]
ARM GAS  C:\Users\jisu8\AppData\Local\Temp\ccA6Ygqq.s 			page 139


 5098 019a 1B68     		ldr	r3, [r3]
 5099 019c 7A68     		ldr	r2, [r7, #4]
 5100 019e 0A43     		orrs	r2, r2, r1
 5101 01a0 5A61     		str	r2, [r3, #20]
 5102              		.loc 1 2821 1
 5103 01a2 ADE0     		b	.L224
 5104              	.L216:
2759:Drivers/STM32F7xx_HAL_Driver/Src/stm32f7xx_hal_qspi.c ****     {
 5105              		.loc 1 2759 12
 5106 01a4 BB68     		ldr	r3, [r7, #8]
 5107 01a6 1B6A     		ldr	r3, [r3, #32]
2759:Drivers/STM32F7xx_HAL_Driver/Src/stm32f7xx_hal_qspi.c ****     {
 5108              		.loc 1 2759 8
 5109 01a8 002B     		cmp	r3, #0
 5110 01aa 58D0     		beq	.L221
2762:Drivers/STM32F7xx_HAL_Driver/Src/stm32f7xx_hal_qspi.c **** 
 5111              		.loc 1 2762 7
 5112 01ac FB68     		ldr	r3, [r7, #12]
 5113 01ae 1B68     		ldr	r3, [r3]
 5114 01b0 BA68     		ldr	r2, [r7, #8]
 5115 01b2 9268     		ldr	r2, [r2, #8]
 5116 01b4 DA61     		str	r2, [r3, #28]
2764:Drivers/STM32F7xx_HAL_Driver/Src/stm32f7xx_hal_qspi.c ****       {
 5117              		.loc 1 2764 14
 5118 01b6 BB68     		ldr	r3, [r7, #8]
 5119 01b8 DB69     		ldr	r3, [r3, #28]
2764:Drivers/STM32F7xx_HAL_Driver/Src/stm32f7xx_hal_qspi.c ****       {
 5120              		.loc 1 2764 10
 5121 01ba 002B     		cmp	r3, #0
 5122 01bc 2DD0     		beq	.L222
2768:Drivers/STM32F7xx_HAL_Driver/Src/stm32f7xx_hal_qspi.c ****                                          cmd->DataMode | (cmd->DummyCycles << QUADSPI_CCR_DCYC_Pos)
 5123              		.loc 1 2768 9
 5124 01be BB68     		ldr	r3, [r7, #8]
 5125 01c0 DA6A     		ldr	r2, [r3, #44]
 5126 01c2 BB68     		ldr	r3, [r7, #8]
 5127 01c4 1B6B     		ldr	r3, [r3, #48]
 5128 01c6 1A43     		orrs	r2, r2, r3
 5129 01c8 BB68     		ldr	r3, [r7, #8]
 5130 01ca 5B6B     		ldr	r3, [r3, #52]
 5131 01cc 1A43     		orrs	r2, r2, r3
 5132 01ce BB68     		ldr	r3, [r7, #8]
 5133 01d0 5B6A     		ldr	r3, [r3, #36]
 5134 01d2 1A43     		orrs	r2, r2, r3
 5135 01d4 BB68     		ldr	r3, [r7, #8]
 5136 01d6 5B69     		ldr	r3, [r3, #20]
 5137 01d8 9B04     		lsls	r3, r3, #18
 5138 01da 1A43     		orrs	r2, r2, r3
 5139 01dc BB68     		ldr	r3, [r7, #8]
 5140 01de 1B69     		ldr	r3, [r3, #16]
 5141 01e0 1A43     		orrs	r2, r2, r3
 5142 01e2 BB68     		ldr	r3, [r7, #8]
 5143 01e4 1B6A     		ldr	r3, [r3, #32]
 5144 01e6 1A43     		orrs	r2, r2, r3
 5145 01e8 BB68     		ldr	r3, [r7, #8]
 5146 01ea DB68     		ldr	r3, [r3, #12]
 5147 01ec 1A43     		orrs	r2, r2, r3
 5148 01ee BB68     		ldr	r3, [r7, #8]
ARM GAS  C:\Users\jisu8\AppData\Local\Temp\ccA6Ygqq.s 			page 140


 5149 01f0 DB69     		ldr	r3, [r3, #28]
 5150 01f2 1A43     		orrs	r2, r2, r3
 5151 01f4 BB68     		ldr	r3, [r7, #8]
 5152 01f6 9B69     		ldr	r3, [r3, #24]
 5153 01f8 42EA0301 		orr	r1, r2, r3
 5154 01fc FB68     		ldr	r3, [r7, #12]
 5155 01fe 1B68     		ldr	r3, [r3]
 5156 0200 7A68     		ldr	r2, [r7, #4]
 5157 0202 0A43     		orrs	r2, r2, r1
 5158 0204 5A61     		str	r2, [r3, #20]
2774:Drivers/STM32F7xx_HAL_Driver/Src/stm32f7xx_hal_qspi.c ****         {
 5159              		.loc 1 2774 12
 5160 0206 7B68     		ldr	r3, [r7, #4]
 5161 0208 B3F1406F 		cmp	r3, #201326592
 5162 020c 78D0     		beq	.L224
2777:Drivers/STM32F7xx_HAL_Driver/Src/stm32f7xx_hal_qspi.c ****         }
 5163              		.loc 1 2777 11
 5164 020e FB68     		ldr	r3, [r7, #12]
 5165 0210 1B68     		ldr	r3, [r3]
 5166 0212 BA68     		ldr	r2, [r7, #8]
 5167 0214 5268     		ldr	r2, [r2, #4]
 5168 0216 9A61     		str	r2, [r3, #24]
 5169              		.loc 1 2821 1
 5170 0218 72E0     		b	.L224
 5171              	.L222:
2784:Drivers/STM32F7xx_HAL_Driver/Src/stm32f7xx_hal_qspi.c ****                                          cmd->DataMode | (cmd->DummyCycles << QUADSPI_CCR_DCYC_Pos)
 5172              		.loc 1 2784 9
 5173 021a BB68     		ldr	r3, [r7, #8]
 5174 021c DA6A     		ldr	r2, [r3, #44]
 5175 021e BB68     		ldr	r3, [r7, #8]
 5176 0220 1B6B     		ldr	r3, [r3, #48]
 5177 0222 1A43     		orrs	r2, r2, r3
 5178 0224 BB68     		ldr	r3, [r7, #8]
 5179 0226 5B6B     		ldr	r3, [r3, #52]
 5180 0228 1A43     		orrs	r2, r2, r3
 5181 022a BB68     		ldr	r3, [r7, #8]
 5182 022c 5B6A     		ldr	r3, [r3, #36]
 5183 022e 1A43     		orrs	r2, r2, r3
 5184 0230 BB68     		ldr	r3, [r7, #8]
 5185 0232 5B69     		ldr	r3, [r3, #20]
 5186 0234 9B04     		lsls	r3, r3, #18
 5187 0236 1A43     		orrs	r2, r2, r3
 5188 0238 BB68     		ldr	r3, [r7, #8]
 5189 023a 1B69     		ldr	r3, [r3, #16]
 5190 023c 1A43     		orrs	r2, r2, r3
 5191 023e BB68     		ldr	r3, [r7, #8]
 5192 0240 1B6A     		ldr	r3, [r3, #32]
 5193 0242 1A43     		orrs	r2, r2, r3
 5194 0244 BB68     		ldr	r3, [r7, #8]
 5195 0246 DB69     		ldr	r3, [r3, #28]
 5196 0248 1A43     		orrs	r2, r2, r3
 5197 024a BB68     		ldr	r3, [r7, #8]
 5198 024c 9B69     		ldr	r3, [r3, #24]
 5199 024e 42EA0301 		orr	r1, r2, r3
 5200 0252 FB68     		ldr	r3, [r7, #12]
 5201 0254 1B68     		ldr	r3, [r3]
 5202 0256 7A68     		ldr	r2, [r7, #4]
ARM GAS  C:\Users\jisu8\AppData\Local\Temp\ccA6Ygqq.s 			page 141


 5203 0258 0A43     		orrs	r2, r2, r1
 5204 025a 5A61     		str	r2, [r3, #20]
 5205              		.loc 1 2821 1
 5206 025c 50E0     		b	.L224
 5207              	.L221:
2792:Drivers/STM32F7xx_HAL_Driver/Src/stm32f7xx_hal_qspi.c ****       {
 5208              		.loc 1 2792 14
 5209 025e BB68     		ldr	r3, [r7, #8]
 5210 0260 DB69     		ldr	r3, [r3, #28]
2792:Drivers/STM32F7xx_HAL_Driver/Src/stm32f7xx_hal_qspi.c ****       {
 5211              		.loc 1 2792 10
 5212 0262 002B     		cmp	r3, #0
 5213 0264 2AD0     		beq	.L223
2796:Drivers/STM32F7xx_HAL_Driver/Src/stm32f7xx_hal_qspi.c ****                                          cmd->DataMode | (cmd->DummyCycles << QUADSPI_CCR_DCYC_Pos)
 5214              		.loc 1 2796 9
 5215 0266 BB68     		ldr	r3, [r7, #8]
 5216 0268 DA6A     		ldr	r2, [r3, #44]
 5217 026a BB68     		ldr	r3, [r7, #8]
 5218 026c 1B6B     		ldr	r3, [r3, #48]
 5219 026e 1A43     		orrs	r2, r2, r3
 5220 0270 BB68     		ldr	r3, [r7, #8]
 5221 0272 5B6B     		ldr	r3, [r3, #52]
 5222 0274 1A43     		orrs	r2, r2, r3
 5223 0276 BB68     		ldr	r3, [r7, #8]
 5224 0278 5B6A     		ldr	r3, [r3, #36]
 5225 027a 1A43     		orrs	r2, r2, r3
 5226 027c BB68     		ldr	r3, [r7, #8]
 5227 027e 5B69     		ldr	r3, [r3, #20]
 5228 0280 9B04     		lsls	r3, r3, #18
 5229 0282 1A43     		orrs	r2, r2, r3
 5230 0284 BB68     		ldr	r3, [r7, #8]
 5231 0286 1B6A     		ldr	r3, [r3, #32]
 5232 0288 1A43     		orrs	r2, r2, r3
 5233 028a BB68     		ldr	r3, [r7, #8]
 5234 028c DB68     		ldr	r3, [r3, #12]
 5235 028e 1A43     		orrs	r2, r2, r3
 5236 0290 BB68     		ldr	r3, [r7, #8]
 5237 0292 DB69     		ldr	r3, [r3, #28]
 5238 0294 1A43     		orrs	r2, r2, r3
 5239 0296 BB68     		ldr	r3, [r7, #8]
 5240 0298 9B69     		ldr	r3, [r3, #24]
 5241 029a 42EA0301 		orr	r1, r2, r3
 5242 029e FB68     		ldr	r3, [r7, #12]
 5243 02a0 1B68     		ldr	r3, [r3]
 5244 02a2 7A68     		ldr	r2, [r7, #4]
 5245 02a4 0A43     		orrs	r2, r2, r1
 5246 02a6 5A61     		str	r2, [r3, #20]
2801:Drivers/STM32F7xx_HAL_Driver/Src/stm32f7xx_hal_qspi.c ****         {
 5247              		.loc 1 2801 12
 5248 02a8 7B68     		ldr	r3, [r7, #4]
 5249 02aa B3F1406F 		cmp	r3, #201326592
 5250 02ae 27D0     		beq	.L224
2804:Drivers/STM32F7xx_HAL_Driver/Src/stm32f7xx_hal_qspi.c ****         }
 5251              		.loc 1 2804 11
 5252 02b0 FB68     		ldr	r3, [r7, #12]
 5253 02b2 1B68     		ldr	r3, [r3]
 5254 02b4 BA68     		ldr	r2, [r7, #8]
ARM GAS  C:\Users\jisu8\AppData\Local\Temp\ccA6Ygqq.s 			page 142


 5255 02b6 5268     		ldr	r2, [r2, #4]
 5256 02b8 9A61     		str	r2, [r3, #24]
 5257              		.loc 1 2821 1
 5258 02ba 21E0     		b	.L224
 5259              	.L223:
2810:Drivers/STM32F7xx_HAL_Driver/Src/stm32f7xx_hal_qspi.c ****         {
 5260              		.loc 1 2810 16
 5261 02bc BB68     		ldr	r3, [r7, #8]
 5262 02be 5B6A     		ldr	r3, [r3, #36]
2810:Drivers/STM32F7xx_HAL_Driver/Src/stm32f7xx_hal_qspi.c ****         {
 5263              		.loc 1 2810 12
 5264 02c0 002B     		cmp	r3, #0
 5265 02c2 1DD0     		beq	.L224
2813:Drivers/STM32F7xx_HAL_Driver/Src/stm32f7xx_hal_qspi.c ****                                            cmd->DataMode | (cmd->DummyCycles << QUADSPI_CCR_DCYC_Po
 5266              		.loc 1 2813 11
 5267 02c4 BB68     		ldr	r3, [r7, #8]
 5268 02c6 DA6A     		ldr	r2, [r3, #44]
 5269 02c8 BB68     		ldr	r3, [r7, #8]
 5270 02ca 1B6B     		ldr	r3, [r3, #48]
 5271 02cc 1A43     		orrs	r2, r2, r3
 5272 02ce BB68     		ldr	r3, [r7, #8]
 5273 02d0 5B6B     		ldr	r3, [r3, #52]
 5274 02d2 1A43     		orrs	r2, r2, r3
 5275 02d4 BB68     		ldr	r3, [r7, #8]
 5276 02d6 5B6A     		ldr	r3, [r3, #36]
 5277 02d8 1A43     		orrs	r2, r2, r3
 5278 02da BB68     		ldr	r3, [r7, #8]
 5279 02dc 5B69     		ldr	r3, [r3, #20]
 5280 02de 9B04     		lsls	r3, r3, #18
 5281 02e0 1A43     		orrs	r2, r2, r3
 5282 02e2 BB68     		ldr	r3, [r7, #8]
 5283 02e4 1B6A     		ldr	r3, [r3, #32]
 5284 02e6 1A43     		orrs	r2, r2, r3
 5285 02e8 BB68     		ldr	r3, [r7, #8]
 5286 02ea DB69     		ldr	r3, [r3, #28]
 5287 02ec 1A43     		orrs	r2, r2, r3
 5288 02ee BB68     		ldr	r3, [r7, #8]
 5289 02f0 9B69     		ldr	r3, [r3, #24]
 5290 02f2 42EA0301 		orr	r1, r2, r3
 5291 02f6 FB68     		ldr	r3, [r7, #12]
 5292 02f8 1B68     		ldr	r3, [r3]
 5293 02fa 7A68     		ldr	r2, [r7, #4]
 5294 02fc 0A43     		orrs	r2, r2, r1
 5295 02fe 5A61     		str	r2, [r3, #20]
 5296              	.L224:
 5297              		.loc 1 2821 1
 5298 0300 00BF     		nop
 5299 0302 1437     		adds	r7, r7, #20
 5300              	.LCFI236:
 5301              		.cfi_def_cfa_offset 4
 5302 0304 BD46     		mov	sp, r7
 5303              	.LCFI237:
 5304              		.cfi_def_cfa_register 13
 5305              		@ sp needed
 5306 0306 5DF8047B 		ldr	r7, [sp], #4
 5307              	.LCFI238:
 5308              		.cfi_restore 7
ARM GAS  C:\Users\jisu8\AppData\Local\Temp\ccA6Ygqq.s 			page 143


 5309              		.cfi_def_cfa_offset 0
 5310 030a 7047     		bx	lr
 5311              		.cfi_endproc
 5312              	.LFE183:
 5314              		.text
 5315              	.Letext0:
 5316              		.file 2 "d:\\3.tools\\arm_gcc_toolchain\\arm-none-eabi\\include\\machine\\_default_types.h"
 5317              		.file 3 "d:\\3.tools\\arm_gcc_toolchain\\arm-none-eabi\\include\\sys\\_stdint.h"
 5318              		.file 4 "Drivers/CMSIS/Device/ST/STM32F7xx/Include/stm32f746xx.h"
 5319              		.file 5 "Drivers/CMSIS/Device/ST/STM32F7xx/Include/stm32f7xx.h"
 5320              		.file 6 "Drivers/STM32F7xx_HAL_Driver/Inc/stm32f7xx_hal_def.h"
 5321              		.file 7 "Drivers/STM32F7xx_HAL_Driver/Inc/stm32f7xx_hal_dma.h"
 5322              		.file 8 "Drivers/STM32F7xx_HAL_Driver/Inc/stm32f7xx_hal_qspi.h"
 5323              		.file 9 "Drivers/CMSIS/Device/ST/STM32F7xx/Include/system_stm32f7xx.h"
ARM GAS  C:\Users\jisu8\AppData\Local\Temp\ccA6Ygqq.s 			page 144


DEFINED SYMBOLS
                            *ABS*:00000000 stm32f7xx_hal_qspi.c
C:\Users\jisu8\AppData\Local\Temp\ccA6Ygqq.s:20     .text.HAL_QSPI_Init:00000000 $t
C:\Users\jisu8\AppData\Local\Temp\ccA6Ygqq.s:26     .text.HAL_QSPI_Init:00000000 HAL_QSPI_Init
C:\Users\jisu8\AppData\Local\Temp\ccA6Ygqq.s:265    .text.HAL_QSPI_MspInit:00000000 HAL_QSPI_MspInit
C:\Users\jisu8\AppData\Local\Temp\ccA6Ygqq.s:4009   .text.HAL_QSPI_SetTimeout:00000000 HAL_QSPI_SetTimeout
C:\Users\jisu8\AppData\Local\Temp\ccA6Ygqq.s:4661   .text.QSPI_WaitFlagStateUntilTimeout:00000000 QSPI_WaitFlagStateUntilTimeout
C:\Users\jisu8\AppData\Local\Temp\ccA6Ygqq.s:181    .text.HAL_QSPI_Init:000000f0 $d
C:\Users\jisu8\AppData\Local\Temp\ccA6Ygqq.s:187    .text.HAL_QSPI_DeInit:00000000 $t
C:\Users\jisu8\AppData\Local\Temp\ccA6Ygqq.s:193    .text.HAL_QSPI_DeInit:00000000 HAL_QSPI_DeInit
C:\Users\jisu8\AppData\Local\Temp\ccA6Ygqq.s:307    .text.HAL_QSPI_MspDeInit:00000000 HAL_QSPI_MspDeInit
C:\Users\jisu8\AppData\Local\Temp\ccA6Ygqq.s:259    .text.HAL_QSPI_MspInit:00000000 $t
C:\Users\jisu8\AppData\Local\Temp\ccA6Ygqq.s:301    .text.HAL_QSPI_MspDeInit:00000000 $t
C:\Users\jisu8\AppData\Local\Temp\ccA6Ygqq.s:343    .text.HAL_QSPI_IRQHandler:00000000 $t
C:\Users\jisu8\AppData\Local\Temp\ccA6Ygqq.s:349    .text.HAL_QSPI_IRQHandler:00000000 HAL_QSPI_IRQHandler
C:\Users\jisu8\AppData\Local\Temp\ccA6Ygqq.s:3476   .text.HAL_QSPI_FifoThresholdCallback:00000000 HAL_QSPI_FifoThresholdCallback
C:\Users\jisu8\AppData\Local\Temp\ccA6Ygqq.s:3859   .text.HAL_QSPI_Abort_IT:00000000 HAL_QSPI_Abort_IT
C:\Users\jisu8\AppData\Local\Temp\ccA6Ygqq.s:3350   .text.HAL_QSPI_TxCpltCallback:00000000 HAL_QSPI_TxCpltCallback
C:\Users\jisu8\AppData\Local\Temp\ccA6Ygqq.s:3308   .text.HAL_QSPI_RxCpltCallback:00000000 HAL_QSPI_RxCpltCallback
C:\Users\jisu8\AppData\Local\Temp\ccA6Ygqq.s:3266   .text.HAL_QSPI_CmdCpltCallback:00000000 HAL_QSPI_CmdCpltCallback
C:\Users\jisu8\AppData\Local\Temp\ccA6Ygqq.s:3224   .text.HAL_QSPI_AbortCpltCallback:00000000 HAL_QSPI_AbortCpltCallback
C:\Users\jisu8\AppData\Local\Temp\ccA6Ygqq.s:3182   .text.HAL_QSPI_ErrorCallback:00000000 HAL_QSPI_ErrorCallback
C:\Users\jisu8\AppData\Local\Temp\ccA6Ygqq.s:3518   .text.HAL_QSPI_StatusMatchCallback:00000000 HAL_QSPI_StatusMatchCallback
C:\Users\jisu8\AppData\Local\Temp\ccA6Ygqq.s:3560   .text.HAL_QSPI_TimeOutCallback:00000000 HAL_QSPI_TimeOutCallback
C:\Users\jisu8\AppData\Local\Temp\ccA6Ygqq.s:931    .text.HAL_QSPI_IRQHandler:0000037c $d
C:\Users\jisu8\AppData\Local\Temp\ccA6Ygqq.s:4573   .text.QSPI_DMAAbortCplt:00000000 QSPI_DMAAbortCplt
C:\Users\jisu8\AppData\Local\Temp\ccA6Ygqq.s:936    .text.HAL_QSPI_Command:00000000 $t
C:\Users\jisu8\AppData\Local\Temp\ccA6Ygqq.s:942    .text.HAL_QSPI_Command:00000000 HAL_QSPI_Command
C:\Users\jisu8\AppData\Local\Temp\ccA6Ygqq.s:4861   .text.QSPI_Config:00000000 QSPI_Config
C:\Users\jisu8\AppData\Local\Temp\ccA6Ygqq.s:1075   .text.HAL_QSPI_Command_IT:00000000 $t
C:\Users\jisu8\AppData\Local\Temp\ccA6Ygqq.s:1081   .text.HAL_QSPI_Command_IT:00000000 HAL_QSPI_Command_IT
C:\Users\jisu8\AppData\Local\Temp\ccA6Ygqq.s:4758   .text.QSPI_WaitFlagStateUntilTimeout_CPUCycle:00000000 QSPI_WaitFlagStateUntilTimeout_CPUCycle
C:\Users\jisu8\AppData\Local\Temp\ccA6Ygqq.s:1220   .text.HAL_QSPI_Transmit:00000000 $t
C:\Users\jisu8\AppData\Local\Temp\ccA6Ygqq.s:1226   .text.HAL_QSPI_Transmit:00000000 HAL_QSPI_Transmit
C:\Users\jisu8\AppData\Local\Temp\ccA6Ygqq.s:3693   .text.HAL_QSPI_Abort:00000000 HAL_QSPI_Abort
C:\Users\jisu8\AppData\Local\Temp\ccA6Ygqq.s:1443   .text.HAL_QSPI_Receive:00000000 $t
C:\Users\jisu8\AppData\Local\Temp\ccA6Ygqq.s:1449   .text.HAL_QSPI_Receive:00000000 HAL_QSPI_Receive
C:\Users\jisu8\AppData\Local\Temp\ccA6Ygqq.s:1679   .text.HAL_QSPI_Transmit_IT:00000000 $t
C:\Users\jisu8\AppData\Local\Temp\ccA6Ygqq.s:1685   .text.HAL_QSPI_Transmit_IT:00000000 HAL_QSPI_Transmit_IT
C:\Users\jisu8\AppData\Local\Temp\ccA6Ygqq.s:1833   .text.HAL_QSPI_Receive_IT:00000000 $t
C:\Users\jisu8\AppData\Local\Temp\ccA6Ygqq.s:1839   .text.HAL_QSPI_Receive_IT:00000000 HAL_QSPI_Receive_IT
C:\Users\jisu8\AppData\Local\Temp\ccA6Ygqq.s:1999   .text.HAL_QSPI_Transmit_DMA:00000000 $t
C:\Users\jisu8\AppData\Local\Temp\ccA6Ygqq.s:2005   .text.HAL_QSPI_Transmit_DMA:00000000 HAL_QSPI_Transmit_DMA
C:\Users\jisu8\AppData\Local\Temp\ccA6Ygqq.s:2341   .text.HAL_QSPI_Transmit_DMA:000001f8 $d
C:\Users\jisu8\AppData\Local\Temp\ccA6Ygqq.s:4354   .text.QSPI_DMATxCplt:00000000 QSPI_DMATxCplt
C:\Users\jisu8\AppData\Local\Temp\ccA6Ygqq.s:4455   .text.QSPI_DMATxHalfCplt:00000000 QSPI_DMATxHalfCplt
C:\Users\jisu8\AppData\Local\Temp\ccA6Ygqq.s:4499   .text.QSPI_DMAError:00000000 QSPI_DMAError
C:\Users\jisu8\AppData\Local\Temp\ccA6Ygqq.s:2348   .text.HAL_QSPI_Receive_DMA:00000000 $t
C:\Users\jisu8\AppData\Local\Temp\ccA6Ygqq.s:2354   .text.HAL_QSPI_Receive_DMA:00000000 HAL_QSPI_Receive_DMA
C:\Users\jisu8\AppData\Local\Temp\ccA6Ygqq.s:2702   .text.HAL_QSPI_Receive_DMA:00000210 $d
C:\Users\jisu8\AppData\Local\Temp\ccA6Ygqq.s:4297   .text.QSPI_DMARxCplt:00000000 QSPI_DMARxCplt
C:\Users\jisu8\AppData\Local\Temp\ccA6Ygqq.s:4411   .text.QSPI_DMARxHalfCplt:00000000 QSPI_DMARxHalfCplt
C:\Users\jisu8\AppData\Local\Temp\ccA6Ygqq.s:2709   .text.HAL_QSPI_AutoPolling:00000000 $t
C:\Users\jisu8\AppData\Local\Temp\ccA6Ygqq.s:2715   .text.HAL_QSPI_AutoPolling:00000000 HAL_QSPI_AutoPolling
C:\Users\jisu8\AppData\Local\Temp\ccA6Ygqq.s:2873   .text.HAL_QSPI_AutoPolling_IT:00000000 $t
C:\Users\jisu8\AppData\Local\Temp\ccA6Ygqq.s:2879   .text.HAL_QSPI_AutoPolling_IT:00000000 HAL_QSPI_AutoPolling_IT
C:\Users\jisu8\AppData\Local\Temp\ccA6Ygqq.s:3034   .text.HAL_QSPI_MemoryMapped:00000000 $t
ARM GAS  C:\Users\jisu8\AppData\Local\Temp\ccA6Ygqq.s 			page 145


C:\Users\jisu8\AppData\Local\Temp\ccA6Ygqq.s:3040   .text.HAL_QSPI_MemoryMapped:00000000 HAL_QSPI_MemoryMapped
C:\Users\jisu8\AppData\Local\Temp\ccA6Ygqq.s:3176   .text.HAL_QSPI_ErrorCallback:00000000 $t
C:\Users\jisu8\AppData\Local\Temp\ccA6Ygqq.s:3218   .text.HAL_QSPI_AbortCpltCallback:00000000 $t
C:\Users\jisu8\AppData\Local\Temp\ccA6Ygqq.s:3260   .text.HAL_QSPI_CmdCpltCallback:00000000 $t
C:\Users\jisu8\AppData\Local\Temp\ccA6Ygqq.s:3302   .text.HAL_QSPI_RxCpltCallback:00000000 $t
C:\Users\jisu8\AppData\Local\Temp\ccA6Ygqq.s:3344   .text.HAL_QSPI_TxCpltCallback:00000000 $t
C:\Users\jisu8\AppData\Local\Temp\ccA6Ygqq.s:3386   .text.HAL_QSPI_RxHalfCpltCallback:00000000 $t
C:\Users\jisu8\AppData\Local\Temp\ccA6Ygqq.s:3392   .text.HAL_QSPI_RxHalfCpltCallback:00000000 HAL_QSPI_RxHalfCpltCallback
C:\Users\jisu8\AppData\Local\Temp\ccA6Ygqq.s:3428   .text.HAL_QSPI_TxHalfCpltCallback:00000000 $t
C:\Users\jisu8\AppData\Local\Temp\ccA6Ygqq.s:3434   .text.HAL_QSPI_TxHalfCpltCallback:00000000 HAL_QSPI_TxHalfCpltCallback
C:\Users\jisu8\AppData\Local\Temp\ccA6Ygqq.s:3470   .text.HAL_QSPI_FifoThresholdCallback:00000000 $t
C:\Users\jisu8\AppData\Local\Temp\ccA6Ygqq.s:3512   .text.HAL_QSPI_StatusMatchCallback:00000000 $t
C:\Users\jisu8\AppData\Local\Temp\ccA6Ygqq.s:3554   .text.HAL_QSPI_TimeOutCallback:00000000 $t
C:\Users\jisu8\AppData\Local\Temp\ccA6Ygqq.s:3596   .text.HAL_QSPI_GetState:00000000 $t
C:\Users\jisu8\AppData\Local\Temp\ccA6Ygqq.s:3602   .text.HAL_QSPI_GetState:00000000 HAL_QSPI_GetState
C:\Users\jisu8\AppData\Local\Temp\ccA6Ygqq.s:3642   .text.HAL_QSPI_GetError:00000000 $t
C:\Users\jisu8\AppData\Local\Temp\ccA6Ygqq.s:3648   .text.HAL_QSPI_GetError:00000000 HAL_QSPI_GetError
C:\Users\jisu8\AppData\Local\Temp\ccA6Ygqq.s:3687   .text.HAL_QSPI_Abort:00000000 $t
C:\Users\jisu8\AppData\Local\Temp\ccA6Ygqq.s:3853   .text.HAL_QSPI_Abort_IT:00000000 $t
C:\Users\jisu8\AppData\Local\Temp\ccA6Ygqq.s:3998   .text.HAL_QSPI_Abort_IT:000000cc $d
C:\Users\jisu8\AppData\Local\Temp\ccA6Ygqq.s:4003   .text.HAL_QSPI_SetTimeout:00000000 $t
C:\Users\jisu8\AppData\Local\Temp\ccA6Ygqq.s:4050   .text.HAL_QSPI_SetFifoThreshold:00000000 $t
C:\Users\jisu8\AppData\Local\Temp\ccA6Ygqq.s:4056   .text.HAL_QSPI_SetFifoThreshold:00000000 HAL_QSPI_SetFifoThreshold
C:\Users\jisu8\AppData\Local\Temp\ccA6Ygqq.s:4147   .text.HAL_QSPI_GetFifoThreshold:00000000 $t
C:\Users\jisu8\AppData\Local\Temp\ccA6Ygqq.s:4153   .text.HAL_QSPI_GetFifoThreshold:00000000 HAL_QSPI_GetFifoThreshold
C:\Users\jisu8\AppData\Local\Temp\ccA6Ygqq.s:4198   .text.HAL_QSPI_SetFlashID:00000000 $t
C:\Users\jisu8\AppData\Local\Temp\ccA6Ygqq.s:4204   .text.HAL_QSPI_SetFlashID:00000000 HAL_QSPI_SetFlashID
C:\Users\jisu8\AppData\Local\Temp\ccA6Ygqq.s:4292   .text.QSPI_DMARxCplt:00000000 $t
C:\Users\jisu8\AppData\Local\Temp\ccA6Ygqq.s:4349   .text.QSPI_DMATxCplt:00000000 $t
C:\Users\jisu8\AppData\Local\Temp\ccA6Ygqq.s:4406   .text.QSPI_DMARxHalfCplt:00000000 $t
C:\Users\jisu8\AppData\Local\Temp\ccA6Ygqq.s:4450   .text.QSPI_DMATxHalfCplt:00000000 $t
C:\Users\jisu8\AppData\Local\Temp\ccA6Ygqq.s:4494   .text.QSPI_DMAError:00000000 $t
C:\Users\jisu8\AppData\Local\Temp\ccA6Ygqq.s:4568   .text.QSPI_DMAAbortCplt:00000000 $t
C:\Users\jisu8\AppData\Local\Temp\ccA6Ygqq.s:4656   .text.QSPI_WaitFlagStateUntilTimeout:00000000 $t
C:\Users\jisu8\AppData\Local\Temp\ccA6Ygqq.s:4753   .text.QSPI_WaitFlagStateUntilTimeout_CPUCycle:00000000 $t
C:\Users\jisu8\AppData\Local\Temp\ccA6Ygqq.s:4850   .text.QSPI_WaitFlagStateUntilTimeout_CPUCycle:00000070 $d
C:\Users\jisu8\AppData\Local\Temp\ccA6Ygqq.s:4856   .text.QSPI_Config:00000000 $t

UNDEFINED SYMBOLS
HAL_GetTick
HAL_DMA_Abort_IT
HAL_DMA_Start_IT
HAL_DMA_Abort
HAL_DMA_GetError
SystemCoreClock
