ARM GAS  C:\Users\jisu8\AppData\Local\Temp\ccuSDrq2.s 			page 1


   1              		.cpu cortex-m7
   2              		.arch armv7e-m
   3              		.fpu fpv5-sp-d16
   4              		.eabi_attribute 27, 1
   5              		.eabi_attribute 28, 1
   6              		.eabi_attribute 20, 1
   7              		.eabi_attribute 21, 1
   8              		.eabi_attribute 23, 3
   9              		.eabi_attribute 24, 1
  10              		.eabi_attribute 25, 1
  11              		.eabi_attribute 26, 1
  12              		.eabi_attribute 30, 1
  13              		.eabi_attribute 34, 1
  14              		.eabi_attribute 18, 4
  15              		.file	"usbd_storage_if.c"
  16              		.text
  17              	.Ltext0:
  18              		.cfi_sections	.debug_frame
  19              		.section	.text.STORAGE_IsWriteProtected_HS,"ax",%progbits
  20              		.align	1
  21              		.syntax unified
  22              		.thumb
  23              		.thumb_func
  25              	STORAGE_IsWriteProtected_HS:
  26              	.LVL0:
  27              	.LFB148:
  28              		.file 1 "USB_DEVICE/App/usbd_storage_if.c"
   1:USB_DEVICE/App/usbd_storage_if.c **** /* USER CODE BEGIN Header */
   2:USB_DEVICE/App/usbd_storage_if.c **** /**
   3:USB_DEVICE/App/usbd_storage_if.c ****   ******************************************************************************
   4:USB_DEVICE/App/usbd_storage_if.c ****   * @file           : usbd_storage_if.c
   5:USB_DEVICE/App/usbd_storage_if.c ****   * @version        : v1.0_Cube
   6:USB_DEVICE/App/usbd_storage_if.c ****   * @brief          : Memory management layer.
   7:USB_DEVICE/App/usbd_storage_if.c ****   ******************************************************************************
   8:USB_DEVICE/App/usbd_storage_if.c ****   * @attention
   9:USB_DEVICE/App/usbd_storage_if.c ****   *
  10:USB_DEVICE/App/usbd_storage_if.c ****   * Copyright (c) 2023 STMicroelectronics.
  11:USB_DEVICE/App/usbd_storage_if.c ****   * All rights reserved.
  12:USB_DEVICE/App/usbd_storage_if.c ****   *
  13:USB_DEVICE/App/usbd_storage_if.c ****   * This software is licensed under terms that can be found in the LICENSE file
  14:USB_DEVICE/App/usbd_storage_if.c ****   * in the root directory of this software component.
  15:USB_DEVICE/App/usbd_storage_if.c ****   * If no LICENSE file comes with this software, it is provided AS-IS.
  16:USB_DEVICE/App/usbd_storage_if.c ****   *
  17:USB_DEVICE/App/usbd_storage_if.c ****   ******************************************************************************
  18:USB_DEVICE/App/usbd_storage_if.c ****   */
  19:USB_DEVICE/App/usbd_storage_if.c **** /* USER CODE END Header */
  20:USB_DEVICE/App/usbd_storage_if.c **** 
  21:USB_DEVICE/App/usbd_storage_if.c **** /* Includes ------------------------------------------------------------------*/
  22:USB_DEVICE/App/usbd_storage_if.c **** #include "usbd_storage_if.h"
  23:USB_DEVICE/App/usbd_storage_if.c **** #include "bsp_driver_sd.h"
  24:USB_DEVICE/App/usbd_storage_if.c **** /* USER CODE BEGIN INCLUDE */
  25:USB_DEVICE/App/usbd_storage_if.c **** 
  26:USB_DEVICE/App/usbd_storage_if.c **** /* USER CODE END INCLUDE */
  27:USB_DEVICE/App/usbd_storage_if.c **** 
  28:USB_DEVICE/App/usbd_storage_if.c **** /* Private typedef -----------------------------------------------------------*/
  29:USB_DEVICE/App/usbd_storage_if.c **** /* Private define ------------------------------------------------------------*/
  30:USB_DEVICE/App/usbd_storage_if.c **** /* Private macro -------------------------------------------------------------*/
ARM GAS  C:\Users\jisu8\AppData\Local\Temp\ccuSDrq2.s 			page 2


  31:USB_DEVICE/App/usbd_storage_if.c **** 
  32:USB_DEVICE/App/usbd_storage_if.c **** /* USER CODE BEGIN PV */
  33:USB_DEVICE/App/usbd_storage_if.c **** /* Private variables ---------------------------------------------------------*/
  34:USB_DEVICE/App/usbd_storage_if.c **** 
  35:USB_DEVICE/App/usbd_storage_if.c **** /* USER CODE END PV */
  36:USB_DEVICE/App/usbd_storage_if.c **** 
  37:USB_DEVICE/App/usbd_storage_if.c **** /** @addtogroup STM32_USB_OTG_DEVICE_LIBRARY
  38:USB_DEVICE/App/usbd_storage_if.c ****   * @brief Usb device.
  39:USB_DEVICE/App/usbd_storage_if.c ****   * @{
  40:USB_DEVICE/App/usbd_storage_if.c ****   */
  41:USB_DEVICE/App/usbd_storage_if.c **** 
  42:USB_DEVICE/App/usbd_storage_if.c **** /** @defgroup USBD_STORAGE
  43:USB_DEVICE/App/usbd_storage_if.c ****   * @brief Usb mass storage device module
  44:USB_DEVICE/App/usbd_storage_if.c ****   * @{
  45:USB_DEVICE/App/usbd_storage_if.c ****   */
  46:USB_DEVICE/App/usbd_storage_if.c **** 
  47:USB_DEVICE/App/usbd_storage_if.c **** /** @defgroup USBD_STORAGE_Private_TypesDefinitions
  48:USB_DEVICE/App/usbd_storage_if.c ****   * @brief Private types.
  49:USB_DEVICE/App/usbd_storage_if.c ****   * @{
  50:USB_DEVICE/App/usbd_storage_if.c ****   */
  51:USB_DEVICE/App/usbd_storage_if.c **** 
  52:USB_DEVICE/App/usbd_storage_if.c **** /* USER CODE BEGIN PRIVATE_TYPES */
  53:USB_DEVICE/App/usbd_storage_if.c **** 
  54:USB_DEVICE/App/usbd_storage_if.c **** /* USER CODE END PRIVATE_TYPES */
  55:USB_DEVICE/App/usbd_storage_if.c **** 
  56:USB_DEVICE/App/usbd_storage_if.c **** /**
  57:USB_DEVICE/App/usbd_storage_if.c ****   * @}
  58:USB_DEVICE/App/usbd_storage_if.c ****   */
  59:USB_DEVICE/App/usbd_storage_if.c **** 
  60:USB_DEVICE/App/usbd_storage_if.c **** /** @defgroup USBD_STORAGE_Private_Defines
  61:USB_DEVICE/App/usbd_storage_if.c ****   * @brief Private defines.
  62:USB_DEVICE/App/usbd_storage_if.c ****   * @{
  63:USB_DEVICE/App/usbd_storage_if.c ****   */
  64:USB_DEVICE/App/usbd_storage_if.c **** 
  65:USB_DEVICE/App/usbd_storage_if.c **** #define STORAGE_LUN_NBR                  1
  66:USB_DEVICE/App/usbd_storage_if.c **** #define STORAGE_BLK_NBR                  0x10000
  67:USB_DEVICE/App/usbd_storage_if.c **** #define STORAGE_BLK_SIZ                  0x200
  68:USB_DEVICE/App/usbd_storage_if.c **** 
  69:USB_DEVICE/App/usbd_storage_if.c **** /* USER CODE BEGIN PRIVATE_DEFINES */
  70:USB_DEVICE/App/usbd_storage_if.c **** /* USER CODE END PRIVATE_DEFINES */
  71:USB_DEVICE/App/usbd_storage_if.c **** 
  72:USB_DEVICE/App/usbd_storage_if.c **** /**
  73:USB_DEVICE/App/usbd_storage_if.c ****   * @}
  74:USB_DEVICE/App/usbd_storage_if.c ****   */
  75:USB_DEVICE/App/usbd_storage_if.c **** 
  76:USB_DEVICE/App/usbd_storage_if.c **** /** @defgroup USBD_STORAGE_Private_Macros
  77:USB_DEVICE/App/usbd_storage_if.c ****   * @brief Private macros.
  78:USB_DEVICE/App/usbd_storage_if.c ****   * @{
  79:USB_DEVICE/App/usbd_storage_if.c ****   */
  80:USB_DEVICE/App/usbd_storage_if.c **** 
  81:USB_DEVICE/App/usbd_storage_if.c **** /* USER CODE BEGIN PRIVATE_MACRO */
  82:USB_DEVICE/App/usbd_storage_if.c **** 
  83:USB_DEVICE/App/usbd_storage_if.c **** /* USER CODE END PRIVATE_MACRO */
  84:USB_DEVICE/App/usbd_storage_if.c **** 
  85:USB_DEVICE/App/usbd_storage_if.c **** /**
  86:USB_DEVICE/App/usbd_storage_if.c ****   * @}
  87:USB_DEVICE/App/usbd_storage_if.c ****   */
ARM GAS  C:\Users\jisu8\AppData\Local\Temp\ccuSDrq2.s 			page 3


  88:USB_DEVICE/App/usbd_storage_if.c **** 
  89:USB_DEVICE/App/usbd_storage_if.c **** /** @defgroup USBD_STORAGE_Private_Variables
  90:USB_DEVICE/App/usbd_storage_if.c ****   * @brief Private variables.
  91:USB_DEVICE/App/usbd_storage_if.c ****   * @{
  92:USB_DEVICE/App/usbd_storage_if.c ****   */
  93:USB_DEVICE/App/usbd_storage_if.c **** 
  94:USB_DEVICE/App/usbd_storage_if.c **** /* USER CODE BEGIN INQUIRY_DATA_HS */
  95:USB_DEVICE/App/usbd_storage_if.c **** /** USB Mass storage Standard Inquiry Data. */
  96:USB_DEVICE/App/usbd_storage_if.c **** const int8_t STORAGE_Inquirydata_HS[] = {/* 36 */
  97:USB_DEVICE/App/usbd_storage_if.c **** 
  98:USB_DEVICE/App/usbd_storage_if.c ****   /* LUN 0 */
  99:USB_DEVICE/App/usbd_storage_if.c ****   0x00,
 100:USB_DEVICE/App/usbd_storage_if.c ****   0x80,
 101:USB_DEVICE/App/usbd_storage_if.c ****   0x02,
 102:USB_DEVICE/App/usbd_storage_if.c ****   0x02,
 103:USB_DEVICE/App/usbd_storage_if.c ****   (STANDARD_INQUIRY_DATA_LEN - 5),
 104:USB_DEVICE/App/usbd_storage_if.c ****   0x00,
 105:USB_DEVICE/App/usbd_storage_if.c ****   0x00,
 106:USB_DEVICE/App/usbd_storage_if.c ****   0x00,
 107:USB_DEVICE/App/usbd_storage_if.c ****   'S', 'T', 'M', ' ', ' ', ' ', ' ', ' ', /* Manufacturer : 8 bytes */
 108:USB_DEVICE/App/usbd_storage_if.c ****   'P', 'r', 'o', 'd', 'u', 'c', 't', ' ', /* Product      : 16 Bytes */
 109:USB_DEVICE/App/usbd_storage_if.c ****   ' ', ' ', ' ', ' ', ' ', ' ', ' ', ' ',
 110:USB_DEVICE/App/usbd_storage_if.c ****   '0', '.', '0' ,'1'                      /* Version      : 4 Bytes */
 111:USB_DEVICE/App/usbd_storage_if.c **** };
 112:USB_DEVICE/App/usbd_storage_if.c **** /* USER CODE END INQUIRY_DATA_HS */
 113:USB_DEVICE/App/usbd_storage_if.c **** 
 114:USB_DEVICE/App/usbd_storage_if.c **** /* USER CODE BEGIN PRIVATE_VARIABLES */
 115:USB_DEVICE/App/usbd_storage_if.c **** 
 116:USB_DEVICE/App/usbd_storage_if.c **** /* USER CODE END PRIVATE_VARIABLES */
 117:USB_DEVICE/App/usbd_storage_if.c **** 
 118:USB_DEVICE/App/usbd_storage_if.c **** /**
 119:USB_DEVICE/App/usbd_storage_if.c ****   * @}
 120:USB_DEVICE/App/usbd_storage_if.c ****   */
 121:USB_DEVICE/App/usbd_storage_if.c **** 
 122:USB_DEVICE/App/usbd_storage_if.c **** /** @defgroup USBD_STORAGE_Exported_Variables
 123:USB_DEVICE/App/usbd_storage_if.c ****   * @brief Public variables.
 124:USB_DEVICE/App/usbd_storage_if.c ****   * @{
 125:USB_DEVICE/App/usbd_storage_if.c ****   */
 126:USB_DEVICE/App/usbd_storage_if.c **** 
 127:USB_DEVICE/App/usbd_storage_if.c **** extern USBD_HandleTypeDef hUsbDeviceHS;
 128:USB_DEVICE/App/usbd_storage_if.c **** 
 129:USB_DEVICE/App/usbd_storage_if.c **** /* USER CODE BEGIN EXPORTED_VARIABLES */
 130:USB_DEVICE/App/usbd_storage_if.c **** 
 131:USB_DEVICE/App/usbd_storage_if.c **** /* USER CODE END EXPORTED_VARIABLES */
 132:USB_DEVICE/App/usbd_storage_if.c **** 
 133:USB_DEVICE/App/usbd_storage_if.c **** /**
 134:USB_DEVICE/App/usbd_storage_if.c ****   * @}
 135:USB_DEVICE/App/usbd_storage_if.c ****   */
 136:USB_DEVICE/App/usbd_storage_if.c **** 
 137:USB_DEVICE/App/usbd_storage_if.c **** /** @defgroup USBD_STORAGE_Private_FunctionPrototypes
 138:USB_DEVICE/App/usbd_storage_if.c ****   * @brief Private functions declaration.
 139:USB_DEVICE/App/usbd_storage_if.c ****   * @{
 140:USB_DEVICE/App/usbd_storage_if.c ****   */
 141:USB_DEVICE/App/usbd_storage_if.c **** 
 142:USB_DEVICE/App/usbd_storage_if.c **** static int8_t STORAGE_Init_HS(uint8_t lun);
 143:USB_DEVICE/App/usbd_storage_if.c **** static int8_t STORAGE_GetCapacity_HS(uint8_t lun, uint32_t *block_num, uint16_t *block_size);
 144:USB_DEVICE/App/usbd_storage_if.c **** static int8_t STORAGE_IsReady_HS(uint8_t lun);
ARM GAS  C:\Users\jisu8\AppData\Local\Temp\ccuSDrq2.s 			page 4


 145:USB_DEVICE/App/usbd_storage_if.c **** static int8_t STORAGE_IsWriteProtected_HS(uint8_t lun);
 146:USB_DEVICE/App/usbd_storage_if.c **** static int8_t STORAGE_Read_HS(uint8_t lun, uint8_t *buf, uint32_t blk_addr, uint16_t blk_len);
 147:USB_DEVICE/App/usbd_storage_if.c **** static int8_t STORAGE_Write_HS(uint8_t lun, uint8_t *buf, uint32_t blk_addr, uint16_t blk_len);
 148:USB_DEVICE/App/usbd_storage_if.c **** static int8_t STORAGE_GetMaxLun_HS(void);
 149:USB_DEVICE/App/usbd_storage_if.c **** 
 150:USB_DEVICE/App/usbd_storage_if.c **** /* USER CODE BEGIN PRIVATE_FUNCTIONS_DECLARATION */
 151:USB_DEVICE/App/usbd_storage_if.c **** 
 152:USB_DEVICE/App/usbd_storage_if.c **** /* USER CODE END PRIVATE_FUNCTIONS_DECLARATION */
 153:USB_DEVICE/App/usbd_storage_if.c **** 
 154:USB_DEVICE/App/usbd_storage_if.c **** /**
 155:USB_DEVICE/App/usbd_storage_if.c ****   * @}
 156:USB_DEVICE/App/usbd_storage_if.c ****   */
 157:USB_DEVICE/App/usbd_storage_if.c **** 
 158:USB_DEVICE/App/usbd_storage_if.c **** USBD_StorageTypeDef USBD_Storage_Interface_fops_HS =
 159:USB_DEVICE/App/usbd_storage_if.c **** {
 160:USB_DEVICE/App/usbd_storage_if.c ****   STORAGE_Init_HS,
 161:USB_DEVICE/App/usbd_storage_if.c ****   STORAGE_GetCapacity_HS,
 162:USB_DEVICE/App/usbd_storage_if.c ****   STORAGE_IsReady_HS,
 163:USB_DEVICE/App/usbd_storage_if.c ****   STORAGE_IsWriteProtected_HS,
 164:USB_DEVICE/App/usbd_storage_if.c ****   STORAGE_Read_HS,
 165:USB_DEVICE/App/usbd_storage_if.c ****   STORAGE_Write_HS,
 166:USB_DEVICE/App/usbd_storage_if.c ****   STORAGE_GetMaxLun_HS,
 167:USB_DEVICE/App/usbd_storage_if.c ****   (int8_t *)STORAGE_Inquirydata_HS
 168:USB_DEVICE/App/usbd_storage_if.c **** };
 169:USB_DEVICE/App/usbd_storage_if.c **** 
 170:USB_DEVICE/App/usbd_storage_if.c **** /* Private functions ---------------------------------------------------------*/
 171:USB_DEVICE/App/usbd_storage_if.c **** 
 172:USB_DEVICE/App/usbd_storage_if.c **** /**
 173:USB_DEVICE/App/usbd_storage_if.c ****   * @brief  Initializes the storage unit (medium).
 174:USB_DEVICE/App/usbd_storage_if.c ****   * @param  lun: Logical unit number.
 175:USB_DEVICE/App/usbd_storage_if.c ****   * @retval USBD_OK if all operations are OK else USBD_FAIL
 176:USB_DEVICE/App/usbd_storage_if.c ****   */
 177:USB_DEVICE/App/usbd_storage_if.c **** int8_t STORAGE_Init_HS(uint8_t lun)
 178:USB_DEVICE/App/usbd_storage_if.c **** {
 179:USB_DEVICE/App/usbd_storage_if.c ****     int8_t ret = USBD_FAIL;
 180:USB_DEVICE/App/usbd_storage_if.c **** 	ret = BSP_SD_Init();
 181:USB_DEVICE/App/usbd_storage_if.c ****     return ret;
 182:USB_DEVICE/App/usbd_storage_if.c **** }
 183:USB_DEVICE/App/usbd_storage_if.c **** 
 184:USB_DEVICE/App/usbd_storage_if.c **** /**
 185:USB_DEVICE/App/usbd_storage_if.c ****   * @brief  Returns the medium capacity.
 186:USB_DEVICE/App/usbd_storage_if.c ****   * @param  lun: Logical unit number.
 187:USB_DEVICE/App/usbd_storage_if.c ****   * @param  block_num: Number of total block number.
 188:USB_DEVICE/App/usbd_storage_if.c ****   * @param  block_size: Block size.
 189:USB_DEVICE/App/usbd_storage_if.c ****   * @retval USBD_OK if all operations are OK else USBD_FAIL
 190:USB_DEVICE/App/usbd_storage_if.c ****   */
 191:USB_DEVICE/App/usbd_storage_if.c **** int8_t STORAGE_GetCapacity_HS(uint8_t lun, uint32_t *block_num, uint16_t *block_size)
 192:USB_DEVICE/App/usbd_storage_if.c **** {
 193:USB_DEVICE/App/usbd_storage_if.c ****     BSP_SD_CardInfo info;
 194:USB_DEVICE/App/usbd_storage_if.c ****     int8_t ret = -1;
 195:USB_DEVICE/App/usbd_storage_if.c **** 
 196:USB_DEVICE/App/usbd_storage_if.c ****     if (BSP_SD_IsDetected() != SD_NOT_PRESENT)
 197:USB_DEVICE/App/usbd_storage_if.c ****     {
 198:USB_DEVICE/App/usbd_storage_if.c ****         BSP_SD_GetCardInfo(&info);
 199:USB_DEVICE/App/usbd_storage_if.c **** 
 200:USB_DEVICE/App/usbd_storage_if.c ****         *block_num = info.LogBlockNbr - 1;
 201:USB_DEVICE/App/usbd_storage_if.c ****         *block_size = info.LogBlockSize;
ARM GAS  C:\Users\jisu8\AppData\Local\Temp\ccuSDrq2.s 			page 5


 202:USB_DEVICE/App/usbd_storage_if.c ****         ret = USBD_OK;
 203:USB_DEVICE/App/usbd_storage_if.c ****     }
 204:USB_DEVICE/App/usbd_storage_if.c ****     return ret;
 205:USB_DEVICE/App/usbd_storage_if.c **** }
 206:USB_DEVICE/App/usbd_storage_if.c **** 
 207:USB_DEVICE/App/usbd_storage_if.c **** /**
 208:USB_DEVICE/App/usbd_storage_if.c ****   * @brief   Checks whether the medium is ready.
 209:USB_DEVICE/App/usbd_storage_if.c ****   * @param  lun:  Logical unit number.
 210:USB_DEVICE/App/usbd_storage_if.c ****   * @retval USBD_OK if all operations are OK else USBD_FAIL
 211:USB_DEVICE/App/usbd_storage_if.c ****   */
 212:USB_DEVICE/App/usbd_storage_if.c **** int8_t STORAGE_IsReady_HS(uint8_t lun)
 213:USB_DEVICE/App/usbd_storage_if.c **** {
 214:USB_DEVICE/App/usbd_storage_if.c ****     static int8_t prev_status = 0;
 215:USB_DEVICE/App/usbd_storage_if.c ****     int8_t ret = USBD_FAIL;
 216:USB_DEVICE/App/usbd_storage_if.c **** 
 217:USB_DEVICE/App/usbd_storage_if.c ****     if (BSP_SD_IsDetected() != SD_NOT_PRESENT)
 218:USB_DEVICE/App/usbd_storage_if.c ****     {
 219:USB_DEVICE/App/usbd_storage_if.c ****         if (prev_status < 0)
 220:USB_DEVICE/App/usbd_storage_if.c ****         {
 221:USB_DEVICE/App/usbd_storage_if.c ****             BSP_SD_Init();
 222:USB_DEVICE/App/usbd_storage_if.c ****             prev_status = 0;
 223:USB_DEVICE/App/usbd_storage_if.c ****         }
 224:USB_DEVICE/App/usbd_storage_if.c ****         if (BSP_SD_GetCardState() == SD_TRANSFER_OK)
 225:USB_DEVICE/App/usbd_storage_if.c ****         {
 226:USB_DEVICE/App/usbd_storage_if.c ****             ret = USBD_OK;
 227:USB_DEVICE/App/usbd_storage_if.c ****         }
 228:USB_DEVICE/App/usbd_storage_if.c ****     }
 229:USB_DEVICE/App/usbd_storage_if.c ****     else if (prev_status == 0)
 230:USB_DEVICE/App/usbd_storage_if.c ****     {
 231:USB_DEVICE/App/usbd_storage_if.c ****         prev_status = -1;
 232:USB_DEVICE/App/usbd_storage_if.c ****     }
 233:USB_DEVICE/App/usbd_storage_if.c ****     return ret;
 234:USB_DEVICE/App/usbd_storage_if.c **** }
 235:USB_DEVICE/App/usbd_storage_if.c **** 
 236:USB_DEVICE/App/usbd_storage_if.c **** /**
 237:USB_DEVICE/App/usbd_storage_if.c ****   * @brief  Checks whether the medium is write protected.
 238:USB_DEVICE/App/usbd_storage_if.c ****   * @param  lun: Logical unit number.
 239:USB_DEVICE/App/usbd_storage_if.c ****   * @retval USBD_OK if all operations are OK else USBD_FAIL
 240:USB_DEVICE/App/usbd_storage_if.c ****   */
 241:USB_DEVICE/App/usbd_storage_if.c **** int8_t STORAGE_IsWriteProtected_HS(uint8_t lun)
 242:USB_DEVICE/App/usbd_storage_if.c **** {
  29              		.loc 1 242 1 view -0
  30              		.cfi_startproc
  31              		@ args = 0, pretend = 0, frame = 0
  32              		@ frame_needed = 0, uses_anonymous_args = 0
  33              		@ link register save eliminated.
 243:USB_DEVICE/App/usbd_storage_if.c ****     return (USBD_OK);
  34              		.loc 1 243 5 view .LVU1
 244:USB_DEVICE/App/usbd_storage_if.c **** }
  35              		.loc 1 244 1 is_stmt 0 view .LVU2
  36 0000 0020     		movs	r0, #0
  37              	.LVL1:
  38              		.loc 1 244 1 view .LVU3
  39 0002 7047     		bx	lr
  40              		.cfi_endproc
  41              	.LFE148:
  43              		.section	.text.STORAGE_GetMaxLun_HS,"ax",%progbits
ARM GAS  C:\Users\jisu8\AppData\Local\Temp\ccuSDrq2.s 			page 6


  44              		.align	1
  45              		.syntax unified
  46              		.thumb
  47              		.thumb_func
  49              	STORAGE_GetMaxLun_HS:
  50              	.LFB151:
 245:USB_DEVICE/App/usbd_storage_if.c **** 
 246:USB_DEVICE/App/usbd_storage_if.c **** /**
 247:USB_DEVICE/App/usbd_storage_if.c ****   * @brief  Reads data from the medium.
 248:USB_DEVICE/App/usbd_storage_if.c ****   * @param  lun: Logical unit number.
 249:USB_DEVICE/App/usbd_storage_if.c ****   * @param  buf: data buffer.
 250:USB_DEVICE/App/usbd_storage_if.c ****   * @param  blk_addr: Logical block address.
 251:USB_DEVICE/App/usbd_storage_if.c ****   * @param  blk_len: Blocks number.
 252:USB_DEVICE/App/usbd_storage_if.c ****   * @retval USBD_OK if all operations are OK else USBD_FAIL
 253:USB_DEVICE/App/usbd_storage_if.c ****   */
 254:USB_DEVICE/App/usbd_storage_if.c **** int8_t STORAGE_Read_HS(uint8_t lun, uint8_t *buf, uint32_t blk_addr, uint16_t blk_len)
 255:USB_DEVICE/App/usbd_storage_if.c **** {
 256:USB_DEVICE/App/usbd_storage_if.c **** 	int8_t ret = USBD_FAIL;
 257:USB_DEVICE/App/usbd_storage_if.c **** 
 258:USB_DEVICE/App/usbd_storage_if.c **** 	if (BSP_SD_IsDetected() != SD_NOT_PRESENT)
 259:USB_DEVICE/App/usbd_storage_if.c **** 	{
 260:USB_DEVICE/App/usbd_storage_if.c **** 	    BSP_SD_ReadBlocks_DMA((uint32_t *) buf, blk_addr, blk_len);
 261:USB_DEVICE/App/usbd_storage_if.c **** 
 262:USB_DEVICE/App/usbd_storage_if.c **** 	    /* Wait until SD card is ready to use for  new operation */
 263:USB_DEVICE/App/usbd_storage_if.c **** 	    while (BSP_SD_GetCardState() != SD_TRANSFER_OK)
 264:USB_DEVICE/App/usbd_storage_if.c **** 
 265:USB_DEVICE/App/usbd_storage_if.c **** 	    ret = USBD_OK;
 266:USB_DEVICE/App/usbd_storage_if.c **** 	}
 267:USB_DEVICE/App/usbd_storage_if.c **** 	return ret;
 268:USB_DEVICE/App/usbd_storage_if.c **** }
 269:USB_DEVICE/App/usbd_storage_if.c **** 
 270:USB_DEVICE/App/usbd_storage_if.c **** /**
 271:USB_DEVICE/App/usbd_storage_if.c ****   * @brief  Writes data into the medium.
 272:USB_DEVICE/App/usbd_storage_if.c ****   * @param  lun: Logical unit number.
 273:USB_DEVICE/App/usbd_storage_if.c ****   * @param  buf: data buffer.
 274:USB_DEVICE/App/usbd_storage_if.c ****   * @param  blk_addr: Logical block address.
 275:USB_DEVICE/App/usbd_storage_if.c ****   * @param  blk_len: Blocks number.
 276:USB_DEVICE/App/usbd_storage_if.c ****   * @retval USBD_OK if all operations are OK else USBD_FAIL
 277:USB_DEVICE/App/usbd_storage_if.c ****   */
 278:USB_DEVICE/App/usbd_storage_if.c **** int8_t STORAGE_Write_HS(uint8_t lun, uint8_t *buf, uint32_t blk_addr, uint16_t blk_len)
 279:USB_DEVICE/App/usbd_storage_if.c **** {
 280:USB_DEVICE/App/usbd_storage_if.c **** 	int8_t ret = USBD_FAIL;
 281:USB_DEVICE/App/usbd_storage_if.c **** 
 282:USB_DEVICE/App/usbd_storage_if.c **** 	if (BSP_SD_IsDetected() != SD_NOT_PRESENT)
 283:USB_DEVICE/App/usbd_storage_if.c **** 	{
 284:USB_DEVICE/App/usbd_storage_if.c **** 	    BSP_SD_WriteBlocks_DMA((uint32_t *) buf, blk_addr, blk_len);
 285:USB_DEVICE/App/usbd_storage_if.c **** 
 286:USB_DEVICE/App/usbd_storage_if.c **** 	    /* Wait until SD card is ready to use for new operation */
 287:USB_DEVICE/App/usbd_storage_if.c **** 	    while (BSP_SD_GetCardState() != SD_TRANSFER_OK)
 288:USB_DEVICE/App/usbd_storage_if.c **** 
 289:USB_DEVICE/App/usbd_storage_if.c **** 	    ret = USBD_OK;
 290:USB_DEVICE/App/usbd_storage_if.c **** 	}
 291:USB_DEVICE/App/usbd_storage_if.c **** 	return ret;
 292:USB_DEVICE/App/usbd_storage_if.c **** }
 293:USB_DEVICE/App/usbd_storage_if.c **** 
 294:USB_DEVICE/App/usbd_storage_if.c **** /**
 295:USB_DEVICE/App/usbd_storage_if.c ****   * @brief  Returns the Max Supported LUNs.
ARM GAS  C:\Users\jisu8\AppData\Local\Temp\ccuSDrq2.s 			page 7


 296:USB_DEVICE/App/usbd_storage_if.c ****   * @param  None
 297:USB_DEVICE/App/usbd_storage_if.c ****   * @retval Lun(s) number.
 298:USB_DEVICE/App/usbd_storage_if.c ****   */
 299:USB_DEVICE/App/usbd_storage_if.c **** int8_t STORAGE_GetMaxLun_HS(void)
 300:USB_DEVICE/App/usbd_storage_if.c **** {
  51              		.loc 1 300 1 is_stmt 1 view -0
  52              		.cfi_startproc
  53              		@ args = 0, pretend = 0, frame = 0
  54              		@ frame_needed = 0, uses_anonymous_args = 0
  55              		@ link register save eliminated.
 301:USB_DEVICE/App/usbd_storage_if.c ****     return (STORAGE_LUN_NBR - 1);
  56              		.loc 1 301 5 view .LVU5
 302:USB_DEVICE/App/usbd_storage_if.c **** }
  57              		.loc 1 302 1 is_stmt 0 view .LVU6
  58 0000 0020     		movs	r0, #0
  59 0002 7047     		bx	lr
  60              		.cfi_endproc
  61              	.LFE151:
  63              		.section	.text.STORAGE_Write_HS,"ax",%progbits
  64              		.align	1
  65              		.syntax unified
  66              		.thumb
  67              		.thumb_func
  69              	STORAGE_Write_HS:
  70              	.LVL2:
  71              	.LFB150:
 279:USB_DEVICE/App/usbd_storage_if.c **** 	int8_t ret = USBD_FAIL;
  72              		.loc 1 279 1 is_stmt 1 view -0
  73              		.cfi_startproc
  74              		@ args = 0, pretend = 0, frame = 0
  75              		@ frame_needed = 0, uses_anonymous_args = 0
 279:USB_DEVICE/App/usbd_storage_if.c **** 	int8_t ret = USBD_FAIL;
  76              		.loc 1 279 1 is_stmt 0 view .LVU8
  77 0000 70B5     		push	{r4, r5, r6, lr}
  78              	.LCFI0:
  79              		.cfi_def_cfa_offset 16
  80              		.cfi_offset 4, -16
  81              		.cfi_offset 5, -12
  82              		.cfi_offset 6, -8
  83              		.cfi_offset 14, -4
  84 0002 0C46     		mov	r4, r1
  85 0004 1546     		mov	r5, r2
  86 0006 1E46     		mov	r6, r3
 280:USB_DEVICE/App/usbd_storage_if.c **** 
  87              		.loc 1 280 2 is_stmt 1 view .LVU9
  88              	.LVL3:
 282:USB_DEVICE/App/usbd_storage_if.c **** 	{
  89              		.loc 1 282 2 view .LVU10
 282:USB_DEVICE/App/usbd_storage_if.c **** 	{
  90              		.loc 1 282 6 is_stmt 0 view .LVU11
  91 0008 FFF7FEFF 		bl	BSP_SD_IsDetected
  92              	.LVL4:
 282:USB_DEVICE/App/usbd_storage_if.c **** 	{
  93              		.loc 1 282 5 view .LVU12
  94 000c 10B9     		cbnz	r0, .L9
 280:USB_DEVICE/App/usbd_storage_if.c **** 
  95              		.loc 1 280 9 view .LVU13
ARM GAS  C:\Users\jisu8\AppData\Local\Temp\ccuSDrq2.s 			page 8


  96 000e 0324     		movs	r4, #3
  97              	.LVL5:
  98              	.L4:
 291:USB_DEVICE/App/usbd_storage_if.c **** }
  99              		.loc 1 291 2 is_stmt 1 view .LVU14
 292:USB_DEVICE/App/usbd_storage_if.c **** 
 100              		.loc 1 292 1 is_stmt 0 view .LVU15
 101 0010 2046     		mov	r0, r4
 102 0012 70BD     		pop	{r4, r5, r6, pc}
 103              	.LVL6:
 104              	.L9:
 284:USB_DEVICE/App/usbd_storage_if.c **** 
 105              		.loc 1 284 6 is_stmt 1 view .LVU16
 106 0014 3246     		mov	r2, r6
 107 0016 2946     		mov	r1, r5
 108 0018 2046     		mov	r0, r4
 109 001a FFF7FEFF 		bl	BSP_SD_WriteBlocks_DMA
 110              	.LVL7:
 287:USB_DEVICE/App/usbd_storage_if.c **** 
 111              		.loc 1 287 6 view .LVU17
 280:USB_DEVICE/App/usbd_storage_if.c **** 
 112              		.loc 1 280 9 is_stmt 0 view .LVU18
 113 001e 0324     		movs	r4, #3
 114              	.LVL8:
 287:USB_DEVICE/App/usbd_storage_if.c **** 
 115              		.loc 1 287 12 view .LVU19
 116 0020 00E0     		b	.L5
 117              	.LVL9:
 118              	.L7:
 289:USB_DEVICE/App/usbd_storage_if.c **** 	}
 119              		.loc 1 289 10 view .LVU20
 120 0022 0024     		movs	r4, #0
 121              	.LVL10:
 122              	.L5:
 287:USB_DEVICE/App/usbd_storage_if.c **** 
 123              		.loc 1 287 12 is_stmt 1 view .LVU21
 287:USB_DEVICE/App/usbd_storage_if.c **** 
 124              		.loc 1 287 13 is_stmt 0 view .LVU22
 125 0024 FFF7FEFF 		bl	BSP_SD_GetCardState
 126              	.LVL11:
 287:USB_DEVICE/App/usbd_storage_if.c **** 
 127              		.loc 1 287 12 view .LVU23
 128 0028 0028     		cmp	r0, #0
 129 002a FAD1     		bne	.L7
 130 002c F0E7     		b	.L4
 131              		.cfi_endproc
 132              	.LFE150:
 134              		.section	.text.STORAGE_Read_HS,"ax",%progbits
 135              		.align	1
 136              		.syntax unified
 137              		.thumb
 138              		.thumb_func
 140              	STORAGE_Read_HS:
 141              	.LVL12:
 142              	.LFB149:
 255:USB_DEVICE/App/usbd_storage_if.c **** 	int8_t ret = USBD_FAIL;
 143              		.loc 1 255 1 is_stmt 1 view -0
ARM GAS  C:\Users\jisu8\AppData\Local\Temp\ccuSDrq2.s 			page 9


 144              		.cfi_startproc
 145              		@ args = 0, pretend = 0, frame = 0
 146              		@ frame_needed = 0, uses_anonymous_args = 0
 255:USB_DEVICE/App/usbd_storage_if.c **** 	int8_t ret = USBD_FAIL;
 147              		.loc 1 255 1 is_stmt 0 view .LVU25
 148 0000 70B5     		push	{r4, r5, r6, lr}
 149              	.LCFI1:
 150              		.cfi_def_cfa_offset 16
 151              		.cfi_offset 4, -16
 152              		.cfi_offset 5, -12
 153              		.cfi_offset 6, -8
 154              		.cfi_offset 14, -4
 155 0002 0C46     		mov	r4, r1
 156 0004 1546     		mov	r5, r2
 157 0006 1E46     		mov	r6, r3
 256:USB_DEVICE/App/usbd_storage_if.c **** 
 158              		.loc 1 256 2 is_stmt 1 view .LVU26
 159              	.LVL13:
 258:USB_DEVICE/App/usbd_storage_if.c **** 	{
 160              		.loc 1 258 2 view .LVU27
 258:USB_DEVICE/App/usbd_storage_if.c **** 	{
 161              		.loc 1 258 6 is_stmt 0 view .LVU28
 162 0008 FFF7FEFF 		bl	BSP_SD_IsDetected
 163              	.LVL14:
 258:USB_DEVICE/App/usbd_storage_if.c **** 	{
 164              		.loc 1 258 5 view .LVU29
 165 000c 10B9     		cbnz	r0, .L16
 256:USB_DEVICE/App/usbd_storage_if.c **** 
 166              		.loc 1 256 9 view .LVU30
 167 000e 0324     		movs	r4, #3
 168              	.LVL15:
 169              	.L11:
 267:USB_DEVICE/App/usbd_storage_if.c **** }
 170              		.loc 1 267 2 is_stmt 1 view .LVU31
 268:USB_DEVICE/App/usbd_storage_if.c **** 
 171              		.loc 1 268 1 is_stmt 0 view .LVU32
 172 0010 2046     		mov	r0, r4
 173 0012 70BD     		pop	{r4, r5, r6, pc}
 174              	.LVL16:
 175              	.L16:
 260:USB_DEVICE/App/usbd_storage_if.c **** 
 176              		.loc 1 260 6 is_stmt 1 view .LVU33
 177 0014 3246     		mov	r2, r6
 178 0016 2946     		mov	r1, r5
 179 0018 2046     		mov	r0, r4
 180 001a FFF7FEFF 		bl	BSP_SD_ReadBlocks_DMA
 181              	.LVL17:
 263:USB_DEVICE/App/usbd_storage_if.c **** 
 182              		.loc 1 263 6 view .LVU34
 256:USB_DEVICE/App/usbd_storage_if.c **** 
 183              		.loc 1 256 9 is_stmt 0 view .LVU35
 184 001e 0324     		movs	r4, #3
 185              	.LVL18:
 263:USB_DEVICE/App/usbd_storage_if.c **** 
 186              		.loc 1 263 12 view .LVU36
 187 0020 00E0     		b	.L12
 188              	.LVL19:
ARM GAS  C:\Users\jisu8\AppData\Local\Temp\ccuSDrq2.s 			page 10


 189              	.L14:
 265:USB_DEVICE/App/usbd_storage_if.c **** 	}
 190              		.loc 1 265 10 view .LVU37
 191 0022 0024     		movs	r4, #0
 192              	.LVL20:
 193              	.L12:
 263:USB_DEVICE/App/usbd_storage_if.c **** 
 194              		.loc 1 263 12 is_stmt 1 view .LVU38
 263:USB_DEVICE/App/usbd_storage_if.c **** 
 195              		.loc 1 263 13 is_stmt 0 view .LVU39
 196 0024 FFF7FEFF 		bl	BSP_SD_GetCardState
 197              	.LVL21:
 263:USB_DEVICE/App/usbd_storage_if.c **** 
 198              		.loc 1 263 12 view .LVU40
 199 0028 0028     		cmp	r0, #0
 200 002a FAD1     		bne	.L14
 201 002c F0E7     		b	.L11
 202              		.cfi_endproc
 203              	.LFE149:
 205              		.section	.text.STORAGE_IsReady_HS,"ax",%progbits
 206              		.align	1
 207              		.syntax unified
 208              		.thumb
 209              		.thumb_func
 211              	STORAGE_IsReady_HS:
 212              	.LVL22:
 213              	.LFB147:
 213:USB_DEVICE/App/usbd_storage_if.c ****     static int8_t prev_status = 0;
 214              		.loc 1 213 1 is_stmt 1 view -0
 215              		.cfi_startproc
 216              		@ args = 0, pretend = 0, frame = 0
 217              		@ frame_needed = 0, uses_anonymous_args = 0
 213:USB_DEVICE/App/usbd_storage_if.c ****     static int8_t prev_status = 0;
 218              		.loc 1 213 1 is_stmt 0 view .LVU42
 219 0000 08B5     		push	{r3, lr}
 220              	.LCFI2:
 221              		.cfi_def_cfa_offset 8
 222              		.cfi_offset 3, -8
 223              		.cfi_offset 14, -4
 214:USB_DEVICE/App/usbd_storage_if.c ****     int8_t ret = USBD_FAIL;
 224              		.loc 1 214 5 is_stmt 1 view .LVU43
 215:USB_DEVICE/App/usbd_storage_if.c **** 
 225              		.loc 1 215 5 view .LVU44
 226              	.LVL23:
 217:USB_DEVICE/App/usbd_storage_if.c ****     {
 227              		.loc 1 217 5 view .LVU45
 217:USB_DEVICE/App/usbd_storage_if.c ****     {
 228              		.loc 1 217 9 is_stmt 0 view .LVU46
 229 0002 FFF7FEFF 		bl	BSP_SD_IsDetected
 230              	.LVL24:
 217:USB_DEVICE/App/usbd_storage_if.c ****     {
 231              		.loc 1 217 8 view .LVU47
 232 0006 88B1     		cbz	r0, .L18
 219:USB_DEVICE/App/usbd_storage_if.c ****         {
 233              		.loc 1 219 9 is_stmt 1 view .LVU48
 219:USB_DEVICE/App/usbd_storage_if.c ****         {
 234              		.loc 1 219 25 is_stmt 0 view .LVU49
ARM GAS  C:\Users\jisu8\AppData\Local\Temp\ccuSDrq2.s 			page 11


 235 0008 0E4B     		ldr	r3, .L26
 236 000a 93F90030 		ldrsb	r3, [r3]
 219:USB_DEVICE/App/usbd_storage_if.c ****         {
 237              		.loc 1 219 12 view .LVU50
 238 000e 002B     		cmp	r3, #0
 239 0010 04DB     		blt	.L24
 240              	.L19:
 224:USB_DEVICE/App/usbd_storage_if.c ****         {
 241              		.loc 1 224 9 is_stmt 1 view .LVU51
 224:USB_DEVICE/App/usbd_storage_if.c ****         {
 242              		.loc 1 224 13 is_stmt 0 view .LVU52
 243 0012 FFF7FEFF 		bl	BSP_SD_GetCardState
 244              	.LVL25:
 224:USB_DEVICE/App/usbd_storage_if.c ****         {
 245              		.loc 1 224 12 view .LVU53
 246 0016 38B9     		cbnz	r0, .L25
 226:USB_DEVICE/App/usbd_storage_if.c ****         }
 247              		.loc 1 226 17 view .LVU54
 248 0018 0020     		movs	r0, #0
 249              	.L20:
 250              	.LVL26:
 233:USB_DEVICE/App/usbd_storage_if.c **** }
 251              		.loc 1 233 5 is_stmt 1 view .LVU55
 234:USB_DEVICE/App/usbd_storage_if.c **** 
 252              		.loc 1 234 1 is_stmt 0 view .LVU56
 253 001a 08BD     		pop	{r3, pc}
 254              	.LVL27:
 255              	.L24:
 221:USB_DEVICE/App/usbd_storage_if.c ****             prev_status = 0;
 256              		.loc 1 221 13 is_stmt 1 view .LVU57
 257 001c FFF7FEFF 		bl	BSP_SD_Init
 258              	.LVL28:
 222:USB_DEVICE/App/usbd_storage_if.c ****         }
 259              		.loc 1 222 13 view .LVU58
 222:USB_DEVICE/App/usbd_storage_if.c ****         }
 260              		.loc 1 222 25 is_stmt 0 view .LVU59
 261 0020 084B     		ldr	r3, .L26
 262 0022 0022     		movs	r2, #0
 263 0024 1A70     		strb	r2, [r3]
 264 0026 F4E7     		b	.L19
 265              	.L25:
 215:USB_DEVICE/App/usbd_storage_if.c **** 
 266              		.loc 1 215 12 view .LVU60
 267 0028 0320     		movs	r0, #3
 268 002a F6E7     		b	.L20
 269              	.L18:
 229:USB_DEVICE/App/usbd_storage_if.c ****     {
 270              		.loc 1 229 10 is_stmt 1 view .LVU61
 229:USB_DEVICE/App/usbd_storage_if.c ****     {
 271              		.loc 1 229 26 is_stmt 0 view .LVU62
 272 002c 054B     		ldr	r3, .L26
 273 002e 93F90030 		ldrsb	r3, [r3]
 229:USB_DEVICE/App/usbd_storage_if.c ****     {
 274              		.loc 1 229 13 view .LVU63
 275 0032 23B9     		cbnz	r3, .L22
 231:USB_DEVICE/App/usbd_storage_if.c ****     }
 276              		.loc 1 231 9 is_stmt 1 view .LVU64
ARM GAS  C:\Users\jisu8\AppData\Local\Temp\ccuSDrq2.s 			page 12


 231:USB_DEVICE/App/usbd_storage_if.c ****     }
 277              		.loc 1 231 21 is_stmt 0 view .LVU65
 278 0034 034B     		ldr	r3, .L26
 279 0036 FF22     		movs	r2, #255
 280 0038 1A70     		strb	r2, [r3]
 215:USB_DEVICE/App/usbd_storage_if.c **** 
 281              		.loc 1 215 12 view .LVU66
 282 003a 0320     		movs	r0, #3
 283 003c EDE7     		b	.L20
 284              	.L22:
 285 003e 0320     		movs	r0, #3
 286 0040 EBE7     		b	.L20
 287              	.L27:
 288 0042 00BF     		.align	2
 289              	.L26:
 290 0044 00000000 		.word	.LANCHOR0
 291              		.cfi_endproc
 292              	.LFE147:
 294              		.section	.text.STORAGE_Init_HS,"ax",%progbits
 295              		.align	1
 296              		.syntax unified
 297              		.thumb
 298              		.thumb_func
 300              	STORAGE_Init_HS:
 301              	.LVL29:
 302              	.LFB145:
 178:USB_DEVICE/App/usbd_storage_if.c ****     int8_t ret = USBD_FAIL;
 303              		.loc 1 178 1 is_stmt 1 view -0
 304              		.cfi_startproc
 305              		@ args = 0, pretend = 0, frame = 0
 306              		@ frame_needed = 0, uses_anonymous_args = 0
 178:USB_DEVICE/App/usbd_storage_if.c ****     int8_t ret = USBD_FAIL;
 307              		.loc 1 178 1 is_stmt 0 view .LVU68
 308 0000 08B5     		push	{r3, lr}
 309              	.LCFI3:
 310              		.cfi_def_cfa_offset 8
 311              		.cfi_offset 3, -8
 312              		.cfi_offset 14, -4
 179:USB_DEVICE/App/usbd_storage_if.c **** 	ret = BSP_SD_Init();
 313              		.loc 1 179 5 is_stmt 1 view .LVU69
 314              	.LVL30:
 180:USB_DEVICE/App/usbd_storage_if.c ****     return ret;
 315              		.loc 1 180 2 view .LVU70
 180:USB_DEVICE/App/usbd_storage_if.c ****     return ret;
 316              		.loc 1 180 8 is_stmt 0 view .LVU71
 317 0002 FFF7FEFF 		bl	BSP_SD_Init
 318              	.LVL31:
 181:USB_DEVICE/App/usbd_storage_if.c **** }
 319              		.loc 1 181 5 is_stmt 1 view .LVU72
 182:USB_DEVICE/App/usbd_storage_if.c **** 
 320              		.loc 1 182 1 is_stmt 0 view .LVU73
 321 0006 40B2     		sxtb	r0, r0
 182:USB_DEVICE/App/usbd_storage_if.c **** 
 322              		.loc 1 182 1 view .LVU74
 323 0008 08BD     		pop	{r3, pc}
 324              		.cfi_endproc
 325              	.LFE145:
ARM GAS  C:\Users\jisu8\AppData\Local\Temp\ccuSDrq2.s 			page 13


 327              		.section	.text.STORAGE_GetCapacity_HS,"ax",%progbits
 328              		.align	1
 329              		.syntax unified
 330              		.thumb
 331              		.thumb_func
 333              	STORAGE_GetCapacity_HS:
 334              	.LVL32:
 335              	.LFB146:
 192:USB_DEVICE/App/usbd_storage_if.c ****     BSP_SD_CardInfo info;
 336              		.loc 1 192 1 is_stmt 1 view -0
 337              		.cfi_startproc
 338              		@ args = 0, pretend = 0, frame = 32
 339              		@ frame_needed = 0, uses_anonymous_args = 0
 192:USB_DEVICE/App/usbd_storage_if.c ****     BSP_SD_CardInfo info;
 340              		.loc 1 192 1 is_stmt 0 view .LVU76
 341 0000 30B5     		push	{r4, r5, lr}
 342              	.LCFI4:
 343              		.cfi_def_cfa_offset 12
 344              		.cfi_offset 4, -12
 345              		.cfi_offset 5, -8
 346              		.cfi_offset 14, -4
 347 0002 89B0     		sub	sp, sp, #36
 348              	.LCFI5:
 349              		.cfi_def_cfa_offset 48
 350 0004 0D46     		mov	r5, r1
 351 0006 1446     		mov	r4, r2
 193:USB_DEVICE/App/usbd_storage_if.c ****     int8_t ret = -1;
 352              		.loc 1 193 5 is_stmt 1 view .LVU77
 194:USB_DEVICE/App/usbd_storage_if.c **** 
 353              		.loc 1 194 5 view .LVU78
 354              	.LVL33:
 196:USB_DEVICE/App/usbd_storage_if.c ****     {
 355              		.loc 1 196 5 view .LVU79
 196:USB_DEVICE/App/usbd_storage_if.c ****     {
 356              		.loc 1 196 9 is_stmt 0 view .LVU80
 357 0008 FFF7FEFF 		bl	BSP_SD_IsDetected
 358              	.LVL34:
 196:USB_DEVICE/App/usbd_storage_if.c ****     {
 359              		.loc 1 196 8 view .LVU81
 360 000c 50B1     		cbz	r0, .L32
 198:USB_DEVICE/App/usbd_storage_if.c **** 
 361              		.loc 1 198 9 is_stmt 1 view .LVU82
 362 000e 6846     		mov	r0, sp
 363 0010 FFF7FEFF 		bl	BSP_SD_GetCardInfo
 364              	.LVL35:
 200:USB_DEVICE/App/usbd_storage_if.c ****         *block_size = info.LogBlockSize;
 365              		.loc 1 200 9 view .LVU83
 200:USB_DEVICE/App/usbd_storage_if.c ****         *block_size = info.LogBlockSize;
 366              		.loc 1 200 26 is_stmt 0 view .LVU84
 367 0014 069B     		ldr	r3, [sp, #24]
 200:USB_DEVICE/App/usbd_storage_if.c ****         *block_size = info.LogBlockSize;
 368              		.loc 1 200 39 view .LVU85
 369 0016 013B     		subs	r3, r3, #1
 200:USB_DEVICE/App/usbd_storage_if.c ****         *block_size = info.LogBlockSize;
 370              		.loc 1 200 20 view .LVU86
 371 0018 2B60     		str	r3, [r5]
 201:USB_DEVICE/App/usbd_storage_if.c ****         ret = USBD_OK;
ARM GAS  C:\Users\jisu8\AppData\Local\Temp\ccuSDrq2.s 			page 14


 372              		.loc 1 201 9 is_stmt 1 view .LVU87
 201:USB_DEVICE/App/usbd_storage_if.c ****         ret = USBD_OK;
 373              		.loc 1 201 27 is_stmt 0 view .LVU88
 374 001a 079B     		ldr	r3, [sp, #28]
 201:USB_DEVICE/App/usbd_storage_if.c ****         ret = USBD_OK;
 375              		.loc 1 201 21 view .LVU89
 376 001c 2380     		strh	r3, [r4]	@ movhi
 202:USB_DEVICE/App/usbd_storage_if.c ****     }
 377              		.loc 1 202 9 is_stmt 1 view .LVU90
 378              	.LVL36:
 202:USB_DEVICE/App/usbd_storage_if.c ****     }
 379              		.loc 1 202 13 is_stmt 0 view .LVU91
 380 001e 0020     		movs	r0, #0
 381              	.LVL37:
 382              	.L31:
 204:USB_DEVICE/App/usbd_storage_if.c **** }
 383              		.loc 1 204 5 is_stmt 1 view .LVU92
 205:USB_DEVICE/App/usbd_storage_if.c **** 
 384              		.loc 1 205 1 is_stmt 0 view .LVU93
 385 0020 09B0     		add	sp, sp, #36
 386              	.LCFI6:
 387              		.cfi_remember_state
 388              		.cfi_def_cfa_offset 12
 389              		@ sp needed
 390 0022 30BD     		pop	{r4, r5, pc}
 391              	.LVL38:
 392              	.L32:
 393              	.LCFI7:
 394              		.cfi_restore_state
 194:USB_DEVICE/App/usbd_storage_if.c **** 
 395              		.loc 1 194 12 view .LVU94
 396 0024 4FF0FF30 		mov	r0, #-1
 397 0028 FAE7     		b	.L31
 398              		.cfi_endproc
 399              	.LFE146:
 401              		.global	USBD_Storage_Interface_fops_HS
 402              		.global	STORAGE_Inquirydata_HS
 403              		.section	.bss.prev_status.0,"aw",%nobits
 404              		.set	.LANCHOR0,. + 0
 407              	prev_status.0:
 408 0000 00       		.space	1
 409              		.section	.data.USBD_Storage_Interface_fops_HS,"aw"
 410              		.align	2
 413              	USBD_Storage_Interface_fops_HS:
 414 0000 00000000 		.word	STORAGE_Init_HS
 415 0004 00000000 		.word	STORAGE_GetCapacity_HS
 416 0008 00000000 		.word	STORAGE_IsReady_HS
 417 000c 00000000 		.word	STORAGE_IsWriteProtected_HS
 418 0010 00000000 		.word	STORAGE_Read_HS
 419 0014 00000000 		.word	STORAGE_Write_HS
 420 0018 00000000 		.word	STORAGE_GetMaxLun_HS
 421 001c 00000000 		.word	STORAGE_Inquirydata_HS
 422              		.section	.rodata.STORAGE_Inquirydata_HS,"a"
 423              		.align	2
 426              	STORAGE_Inquirydata_HS:
 427 0000 00800202 		.ascii	"\000\200\002\002\037\000\000\000STM     Product    "
 427      1F000000 
ARM GAS  C:\Users\jisu8\AppData\Local\Temp\ccuSDrq2.s 			page 15


 427      53544D20 
 427      20202020 
 427      50726F64 
 428 001b 20202020 		.ascii	"     0.01"
 428      20302E30 
 428      31
 429              		.text
 430              	.Letext0:
 431              		.file 2 "d:\\3.tools\\arm_gcc_toolchain\\arm-none-eabi\\include\\machine\\_default_types.h"
 432              		.file 3 "d:\\3.tools\\arm_gcc_toolchain\\arm-none-eabi\\include\\sys\\_stdint.h"
 433              		.file 4 "Drivers/STM32F7xx_HAL_Driver/Inc/stm32f7xx_hal_sd.h"
 434              		.file 5 "Middlewares/ST/STM32_USB_Device_Library/Class/MSC/Inc/usbd_msc.h"
 435              		.file 6 "USB_DEVICE/App/usbd_storage_if.h"
 436              		.file 7 "FATFS/Target/bsp_driver_sd.h"
 437              		.file 8 "Middlewares/ST/STM32_USB_Device_Library/Core/Inc/usbd_def.h"
ARM GAS  C:\Users\jisu8\AppData\Local\Temp\ccuSDrq2.s 			page 16

